ARM GAS  /tmp/ccH33UjV.s 			page 1


   1              		.syntax unified
   2              		.cpu cortex-m3
   3              		.fpu softvfp
   4              		.eabi_attribute 20, 1
   5              		.eabi_attribute 21, 1
   6              		.eabi_attribute 23, 3
   7              		.eabi_attribute 24, 1
   8              		.eabi_attribute 25, 1
   9              		.eabi_attribute 26, 1
  10              		.eabi_attribute 30, 2
  11              		.eabi_attribute 34, 1
  12              		.eabi_attribute 18, 4
  13              		.thumb
  14              		.file	"adc.c"
  15              		.text
  16              	.Ltext0:
  17              		.cfi_sections	.debug_frame
  18              		.section	.text.adcInit,"ax",%progbits
  19              		.align	2
  20              		.p2align 4,,15
  21              		.global	adcInit
  22              		.thumb
  23              		.thumb_func
  24              		.type	adcInit, %function
  25              	adcInit:
  26              	.LFB63:
  27              		.file 1 "../../ChibiOS/os/hal/src/adc.c"
  28              		.loc 1 61 0
  29              		.cfi_startproc
  30              		@ args = 0, pretend = 0, frame = 0
  31              		@ frame_needed = 0, uses_anonymous_args = 0
  32              		@ link register save eliminated.
  33              		.loc 1 64 0
  34              		.loc 1 63 0
  35 0000 FFF7FEBF 		b	adc_lld_init
  36              		.cfi_endproc
  37              	.LFE63:
  38              		.size	adcInit, .-adcInit
  39 0004 AFF30080 		.section	.text.adcObjectInit,"ax",%progbits
  39      AFF30080 
  39      AFF30080 
  40              		.align	2
  41              		.p2align 4,,15
  42              		.global	adcObjectInit
  43              		.thumb
  44              		.thumb_func
  45              		.type	adcObjectInit, %function
  46              	adcObjectInit:
  47              	.LFB64:
  48              		.loc 1 73 0
  49              		.cfi_startproc
  50              		@ args = 0, pretend = 0, frame = 0
  51              		@ frame_needed = 0, uses_anonymous_args = 0
  52              		@ link register save eliminated.
  53              	.LVL0:
  54              		.loc 1 73 0
  55 0000 0346     		mov	r3, r0
ARM GAS  /tmp/ccH33UjV.s 			page 2


  56              		.loc 1 76 0
  57 0002 0022     		movs	r2, #0
  58              		.loc 1 75 0
  59 0004 0121     		movs	r1, #1
  60              		.loc 1 85 0
  61 0006 00F11800 		add	r0, r0, #24
  62              	.LVL1:
  63              		.loc 1 75 0
  64 000a 1970     		strb	r1, [r3, #0]
  65              		.loc 1 76 0
  66 000c 5A60     		str	r2, [r3, #4]
  67              		.loc 1 77 0
  68 000e 9A60     		str	r2, [r3, #8]
  69              		.loc 1 78 0
  70 0010 DA60     		str	r2, [r3, #12]
  71              		.loc 1 79 0
  72 0012 1A61     		str	r2, [r3, #16]
  73              		.loc 1 81 0
  74 0014 5A61     		str	r2, [r3, #20]
  75              		.loc 1 93 0
  76              		.loc 1 85 0
  77 0016 FFF7FEBF 		b	chMtxInit
  78              	.LVL2:
  79              		.cfi_endproc
  80              	.LFE64:
  81              		.size	adcObjectInit, .-adcObjectInit
  82 001a 00BFAFF3 		.section	.text.adcStart,"ax",%progbits
  82      0080
  83              		.align	2
  84              		.p2align 4,,15
  85              		.global	adcStart
  86              		.thumb
  87              		.thumb_func
  88              		.type	adcStart, %function
  89              	adcStart:
  90              	.LFB65:
  91              		.loc 1 104 0
  92              		.cfi_startproc
  93              		@ args = 0, pretend = 0, frame = 0
  94              		@ frame_needed = 0, uses_anonymous_args = 0
  95              	.LVL3:
  96 0000 38B5     		push	{r3, r4, r5, lr}
  97              	.LCFI0:
  98              		.cfi_def_cfa_offset 16
  99              		.cfi_offset 14, -4
 100              		.cfi_offset 5, -8
 101              		.cfi_offset 4, -12
 102              		.cfi_offset 3, -16
 103              		.loc 1 104 0
 104 0002 0446     		mov	r4, r0
 105 0004 0D46     		mov	r5, r1
 106              		.loc 1 106 0
 107 0006 C0B1     		cbz	r0, .L7
 108              	.LVL4:
 109              	.L4:
 110              	.LBB2:
 111              		.loc 1 108 0
ARM GAS  /tmp/ccH33UjV.s 			page 3


 112 0008 2023     		movs	r3, #32
 113              	.LVL5:
 114              	@ 108 "../../ChibiOS/os/hal/src/adc.c" 1
 115 000a 83F31188 		msr     BASEPRI, r3
 116              	@ 0 "" 2
 117              	.LVL6:
 118              		.thumb
 119              	.LBE2:
 120 000e FFF7FEFF 		bl	dbg_check_lock
 121              	.LVL7:
 122              		.loc 1 109 0
 123 0012 2178     		ldrb	r1, [r4, #0]	@ zero_extendqisi2
 124 0014 481E     		subs	r0, r1, #1
 125 0016 C3B2     		uxtb	r3, r0
 126 0018 012B     		cmp	r3, #1
 127 001a 02D9     		bls	.L5
 128              		.loc 1 109 0 is_stmt 0 discriminator 1
 129 001c 0948     		ldr	r0, .L8
 130 001e FFF7FEFF 		bl	chDbgPanic
 131              	.L5:
 132              		.loc 1 112 0 is_stmt 1
 133 0022 2046     		mov	r0, r4
 134              		.loc 1 111 0
 135 0024 6560     		str	r5, [r4, #4]
 136              		.loc 1 112 0
 137 0026 FFF7FEFF 		bl	adc_lld_start
 138              		.loc 1 113 0
 139 002a 0222     		movs	r2, #2
 140 002c 2270     		strb	r2, [r4, #0]
 141              		.loc 1 114 0
 142 002e FFF7FEFF 		bl	dbg_check_unlock
 143              	.LBB3:
 144 0032 0023     		movs	r3, #0
 145              	.LVL8:
 146              	@ 114 "../../ChibiOS/os/hal/src/adc.c" 1
 147 0034 83F31188 		msr     BASEPRI, r3
 148              	@ 0 "" 2
 149              	.LVL9:
 150              		.thumb
 151              	.LBE3:
 152              		.loc 1 115 0
 153 0038 38BD     		pop	{r3, r4, r5, pc}
 154              	.LVL10:
 155              	.L7:
 156              		.loc 1 106 0 discriminator 1
 157 003a 0348     		ldr	r0, .L8+4
 158 003c FFF7FEFF 		bl	chDbgPanic
 159 0040 E2E7     		b	.L4
 160              	.L9:
 161 0042 00BF     		.align	2
 162              	.L8:
 163 0044 10000000 		.word	.LC1
 164 0048 00000000 		.word	.LC0
 165              		.cfi_endproc
 166              	.LFE65:
 167              		.size	adcStart, .-adcStart
 168 004c AFF30080 		.section	.text.adcStop,"ax",%progbits
ARM GAS  /tmp/ccH33UjV.s 			page 4


 169              		.align	2
 170              		.p2align 4,,15
 171              		.global	adcStop
 172              		.thumb
 173              		.thumb_func
 174              		.type	adcStop, %function
 175              	adcStop:
 176              	.LFB66:
 177              		.loc 1 124 0
 178              		.cfi_startproc
 179              		@ args = 0, pretend = 0, frame = 0
 180              		@ frame_needed = 0, uses_anonymous_args = 0
 181              	.LVL11:
 182 0000 10B5     		push	{r4, lr}
 183              	.LCFI1:
 184              		.cfi_def_cfa_offset 8
 185              		.cfi_offset 14, -4
 186              		.cfi_offset 4, -8
 187              		.loc 1 124 0
 188 0002 0446     		mov	r4, r0
 189              		.loc 1 126 0
 190 0004 B8B1     		cbz	r0, .L13
 191              	.LVL12:
 192              	.L11:
 193              	.LBB4:
 194              		.loc 1 128 0
 195 0006 2023     		movs	r3, #32
 196              	.LVL13:
 197              	@ 128 "../../ChibiOS/os/hal/src/adc.c" 1
 198 0008 83F31188 		msr     BASEPRI, r3
 199              	@ 0 "" 2
 200              	.LVL14:
 201              		.thumb
 202              	.LBE4:
 203 000c FFF7FEFF 		bl	dbg_check_lock
 204              	.LVL15:
 205              		.loc 1 129 0
 206 0010 2178     		ldrb	r1, [r4, #0]	@ zero_extendqisi2
 207 0012 481E     		subs	r0, r1, #1
 208 0014 C3B2     		uxtb	r3, r0
 209 0016 012B     		cmp	r3, #1
 210 0018 02D9     		bls	.L12
 211              		.loc 1 129 0 is_stmt 0 discriminator 1
 212 001a 0948     		ldr	r0, .L14
 213 001c FFF7FEFF 		bl	chDbgPanic
 214              	.L12:
 215              		.loc 1 131 0 is_stmt 1
 216 0020 2046     		mov	r0, r4
 217 0022 FFF7FEFF 		bl	adc_lld_stop
 218              		.loc 1 132 0
 219 0026 0122     		movs	r2, #1
 220 0028 2270     		strb	r2, [r4, #0]
 221              		.loc 1 133 0
 222 002a FFF7FEFF 		bl	dbg_check_unlock
 223              	.LBB5:
 224 002e 0023     		movs	r3, #0
 225              	.LVL16:
ARM GAS  /tmp/ccH33UjV.s 			page 5


 226              	@ 133 "../../ChibiOS/os/hal/src/adc.c" 1
 227 0030 83F31188 		msr     BASEPRI, r3
 228              	@ 0 "" 2
 229              	.LVL17:
 230              		.thumb
 231              	.LBE5:
 232              		.loc 1 134 0
 233 0034 10BD     		pop	{r4, pc}
 234              	.LVL18:
 235              	.L13:
 236              		.loc 1 126 0 discriminator 1
 237 0036 0348     		ldr	r0, .L14+4
 238 0038 FFF7FEFF 		bl	chDbgPanic
 239 003c E3E7     		b	.L11
 240              	.L15:
 241 003e 00BF     		.align	2
 242              	.L14:
 243 0040 2C000000 		.word	.LC3
 244 0044 20000000 		.word	.LC2
 245              		.cfi_endproc
 246              	.LFE66:
 247              		.size	adcStop, .-adcStop
 248 0048 AFF30080 		.section	.text.adcStartConversion,"ax",%progbits
 248      AFF30080 
 249              		.align	2
 250              		.p2align 4,,15
 251              		.global	adcStartConversion
 252              		.thumb
 253              		.thumb_func
 254              		.type	adcStartConversion, %function
 255              	adcStartConversion:
 256              	.LFB67:
 257              		.loc 1 155 0
 258              		.cfi_startproc
 259              		@ args = 0, pretend = 0, frame = 0
 260              		@ frame_needed = 0, uses_anonymous_args = 0
 261              	.LVL19:
 262 0000 F8B5     		push	{r3, r4, r5, r6, r7, lr}
 263              	.LCFI2:
 264              		.cfi_def_cfa_offset 24
 265              		.cfi_offset 14, -4
 266              		.cfi_offset 7, -8
 267              		.cfi_offset 6, -12
 268              		.cfi_offset 5, -16
 269              		.cfi_offset 4, -20
 270              		.cfi_offset 3, -24
 271              		.loc 1 155 0
 272 0002 1D46     		mov	r5, r3
 273 0004 0446     		mov	r4, r0
 274 0006 0E46     		mov	r6, r1
 275 0008 1746     		mov	r7, r2
 276              	.LBB10:
 277              		.loc 1 157 0
 278 000a 2023     		movs	r3, #32
 279              	.LVL20:
 280              	@ 157 "../../ChibiOS/os/hal/src/adc.c" 1
 281 000c 83F31188 		msr     BASEPRI, r3
ARM GAS  /tmp/ccH33UjV.s 			page 6


 282              	@ 0 "" 2
 283              	.LVL21:
 284              		.thumb
 285              	.LBE10:
 286 0010 FFF7FEFF 		bl	dbg_check_lock
 287              	.LVL22:
 288              	.LBB11:
 289              	.LBB12:
 290              		.loc 1 185 0
 291 0014 FFF7FEFF 		bl	chDbgCheckClassI
 292              		.loc 1 186 0
 293 0018 ECB1     		cbz	r4, .L17
 294 001a E6B1     		cbz	r6, .L17
 295 001c DFB1     		cbz	r7, .L17
 296 001e 012D     		cmp	r5, #1
 297 0020 01D0     		beq	.L18
 298 0022 EB07     		lsls	r3, r5, #31
 299 0024 17D4     		bmi	.L17
 300              	.L18:
 301              		.loc 1 189 0
 302 0026 2378     		ldrb	r3, [r4, #0]	@ zero_extendqisi2
 303 0028 022B     		cmp	r3, #2
 304 002a 06D0     		beq	.L19
 305 002c 042B     		cmp	r3, #4
 306 002e 04D0     		beq	.L19
 307 0030 052B     		cmp	r3, #5
 308 0032 02D0     		beq	.L19
 309 0034 0A48     		ldr	r0, .L20
 310 0036 FFF7FEFF 		bl	chDbgPanic
 311              	.L19:
 312              		.loc 1 197 0
 313 003a 0323     		movs	r3, #3
 314 003c 2370     		strb	r3, [r4, #0]
 315              		.loc 1 198 0
 316 003e 2046     		mov	r0, r4
 317              		.loc 1 194 0
 318 0040 A760     		str	r7, [r4, #8]
 319              		.loc 1 195 0
 320 0042 E560     		str	r5, [r4, #12]
 321              		.loc 1 196 0
 322 0044 2661     		str	r6, [r4, #16]
 323              		.loc 1 198 0
 324 0046 FFF7FEFF 		bl	adc_lld_start_conversion
 325              	.LBE12:
 326              	.LBE11:
 327              		.loc 1 159 0
 328 004a FFF7FEFF 		bl	dbg_check_unlock
 329              	.LBB14:
 330 004e 0023     		movs	r3, #0
 331              	.LVL23:
 332              	@ 159 "../../ChibiOS/os/hal/src/adc.c" 1
 333 0050 83F31188 		msr     BASEPRI, r3
 334              	@ 0 "" 2
 335              	.LVL24:
 336              		.thumb
 337              	.LBE14:
 338              		.loc 1 160 0
ARM GAS  /tmp/ccH33UjV.s 			page 7


 339 0054 F8BD     		pop	{r3, r4, r5, r6, r7, pc}
 340              	.LVL25:
 341              	.L17:
 342              	.LBB15:
 343              	.LBB13:
 344              		.loc 1 186 0
 345 0056 0348     		ldr	r0, .L20+4
 346 0058 FFF7FEFF 		bl	chDbgPanic
 347 005c E3E7     		b	.L18
 348              	.L21:
 349 005e 00BF     		.align	2
 350              	.L20:
 351 0060 54000000 		.word	.LC5
 352 0064 3C000000 		.word	.LC4
 353              	.LBE13:
 354              	.LBE15:
 355              		.cfi_endproc
 356              	.LFE67:
 357              		.size	adcStartConversion, .-adcStartConversion
 358 0068 AFF30080 		.section	.text.adcStartConversionI,"ax",%progbits
 358      AFF30080 
 359              		.align	2
 360              		.p2align 4,,15
 361              		.global	adcStartConversionI
 362              		.thumb
 363              		.thumb_func
 364              		.type	adcStartConversionI, %function
 365              	adcStartConversionI:
 366              	.LFB68:
 367              		.loc 1 183 0
 368              		.cfi_startproc
 369              		@ args = 0, pretend = 0, frame = 0
 370              		@ frame_needed = 0, uses_anonymous_args = 0
 371              	.LVL26:
 372 0000 F8B5     		push	{r3, r4, r5, r6, r7, lr}
 373              	.LCFI3:
 374              		.cfi_def_cfa_offset 24
 375              		.cfi_offset 14, -4
 376              		.cfi_offset 7, -8
 377              		.cfi_offset 6, -12
 378              		.cfi_offset 5, -16
 379              		.cfi_offset 4, -20
 380              		.cfi_offset 3, -24
 381              		.loc 1 183 0
 382 0002 0446     		mov	r4, r0
 383 0004 0D46     		mov	r5, r1
 384 0006 1646     		mov	r6, r2
 385 0008 1F46     		mov	r7, r3
 386              		.loc 1 185 0
 387 000a FFF7FEFF 		bl	chDbgCheckClassI
 388              	.LVL27:
 389              		.loc 1 186 0
 390 000e CCB1     		cbz	r4, .L23
 391              		.loc 1 186 0 is_stmt 0 discriminator 2
 392 0010 C5B1     		cbz	r5, .L23
 393              		.loc 1 186 0 discriminator 3
 394 0012 BEB1     		cbz	r6, .L23
ARM GAS  /tmp/ccH33UjV.s 			page 8


 395              		.loc 1 186 0 discriminator 4
 396 0014 012F     		cmp	r7, #1
 397 0016 01D0     		beq	.L24
 398              		.loc 1 186 0 discriminator 5
 399 0018 FA07     		lsls	r2, r7, #31
 400 001a 13D4     		bmi	.L23
 401              	.L24:
 402              		.loc 1 189 0 is_stmt 1
 403 001c 2378     		ldrb	r3, [r4, #0]	@ zero_extendqisi2
 404 001e 022B     		cmp	r3, #2
 405 0020 06D0     		beq	.L25
 406              		.loc 1 189 0 is_stmt 0 discriminator 1
 407 0022 042B     		cmp	r3, #4
 408 0024 04D0     		beq	.L25
 409              		.loc 1 189 0 discriminator 2
 410 0026 052B     		cmp	r3, #5
 411 0028 02D0     		beq	.L25
 412              		.loc 1 189 0 discriminator 3
 413 002a 0848     		ldr	r0, .L26
 414 002c FFF7FEFF 		bl	chDbgPanic
 415              	.L25:
 416              		.loc 1 197 0 is_stmt 1
 417 0030 0323     		movs	r3, #3
 418              		.loc 1 198 0
 419 0032 2046     		mov	r0, r4
 420              		.loc 1 194 0
 421 0034 A660     		str	r6, [r4, #8]
 422              		.loc 1 195 0
 423 0036 E760     		str	r7, [r4, #12]
 424              		.loc 1 196 0
 425 0038 2561     		str	r5, [r4, #16]
 426              		.loc 1 197 0
 427 003a 2370     		strb	r3, [r4, #0]
 428              		.loc 1 199 0
 429 003c BDE8F840 		pop	{r3, r4, r5, r6, r7, lr}
 430              		.loc 1 198 0
 431 0040 FFF7FEBF 		b	adc_lld_start_conversion
 432              	.L23:
 433              		.loc 1 186 0 discriminator 1
 434 0044 0248     		ldr	r0, .L26+4
 435 0046 FFF7FEFF 		bl	chDbgPanic
 436 004a E7E7     		b	.L24
 437              	.L27:
 438              		.align	2
 439              	.L26:
 440 004c 54000000 		.word	.LC5
 441 0050 3C000000 		.word	.LC4
 442              		.cfi_endproc
 443              	.LFE68:
 444              		.size	adcStartConversionI, .-adcStartConversionI
 445 0054 AFF30080 		.section	.text.adcStopConversion,"ax",%progbits
 445      AFF30080 
 445      AFF30080 
 446              		.align	2
 447              		.p2align 4,,15
 448              		.global	adcStopConversion
 449              		.thumb
ARM GAS  /tmp/ccH33UjV.s 			page 9


 450              		.thumb_func
 451              		.type	adcStopConversion, %function
 452              	adcStopConversion:
 453              	.LFB69:
 454              		.loc 1 211 0
 455              		.cfi_startproc
 456              		@ args = 0, pretend = 0, frame = 0
 457              		@ frame_needed = 0, uses_anonymous_args = 0
 458              	.LVL28:
 459 0000 10B5     		push	{r4, lr}
 460              	.LCFI4:
 461              		.cfi_def_cfa_offset 8
 462              		.cfi_offset 14, -4
 463              		.cfi_offset 4, -8
 464              		.loc 1 211 0
 465 0002 0446     		mov	r4, r0
 466              		.loc 1 213 0
 467 0004 18B3     		cbz	r0, .L32
 468              	.LVL29:
 469              	.L29:
 470              	.LBB16:
 471              		.loc 1 215 0
 472 0006 2023     		movs	r3, #32
 473              	.LVL30:
 474              	@ 215 "../../ChibiOS/os/hal/src/adc.c" 1
 475 0008 83F31188 		msr     BASEPRI, r3
 476              	@ 0 "" 2
 477              	.LVL31:
 478              		.thumb
 479              	.LBE16:
 480 000c FFF7FEFF 		bl	dbg_check_lock
 481              	.LVL32:
 482              		.loc 1 216 0
 483 0010 2378     		ldrb	r3, [r4, #0]	@ zero_extendqisi2
 484 0012 981E     		subs	r0, r3, #2
 485 0014 C2B2     		uxtb	r2, r0
 486 0016 012A     		cmp	r2, #1
 487 0018 03D9     		bls	.L30
 488              		.loc 1 216 0 is_stmt 0 discriminator 1
 489 001a 0F48     		ldr	r0, .L33
 490 001c FFF7FEFF 		bl	chDbgPanic
 491 0020 2378     		ldrb	r3, [r4, #0]	@ zero_extendqisi2
 492              	.L30:
 493              		.loc 1 219 0 is_stmt 1
 494 0022 022B     		cmp	r3, #2
 495 0024 0DD0     		beq	.L31
 496              		.loc 1 220 0
 497 0026 2046     		mov	r0, r4
 498 0028 FFF7FEFF 		bl	adc_lld_stop_conversion
 499              		.loc 1 223 0
 500 002c 6069     		ldr	r0, [r4, #20]
 501              		.loc 1 221 0
 502 002e 0023     		movs	r3, #0
 503              		.loc 1 222 0
 504 0030 0221     		movs	r1, #2
 505              		.loc 1 221 0
 506 0032 2361     		str	r3, [r4, #16]
ARM GAS  /tmp/ccH33UjV.s 			page 10


 507              		.loc 1 222 0
 508 0034 2170     		strb	r1, [r4, #0]
 509              		.loc 1 223 0
 510 0036 20B1     		cbz	r0, .L31
 511              	.LVL33:
 512              	.LBB17:
 513              		.loc 1 223 0 is_stmt 0 discriminator 1
 514 0038 6361     		str	r3, [r4, #20]
 515 003a 6FF00101 		mvn	r1, #1
 516 003e FFF7FEFF 		bl	chSchWakeupS
 517              	.LVL34:
 518              	.L31:
 519              	.LBE17:
 520              		.loc 1 225 0 is_stmt 1
 521 0042 FFF7FEFF 		bl	dbg_check_unlock
 522              	.LBB18:
 523 0046 0023     		movs	r3, #0
 524              	.LVL35:
 525              	@ 225 "../../ChibiOS/os/hal/src/adc.c" 1
 526 0048 83F31188 		msr     BASEPRI, r3
 527              	@ 0 "" 2
 528              	.LVL36:
 529              		.thumb
 530              	.LBE18:
 531              		.loc 1 226 0
 532 004c 10BD     		pop	{r4, pc}
 533              	.LVL37:
 534              	.L32:
 535              		.loc 1 213 0 discriminator 1
 536 004e 0348     		ldr	r0, .L33+4
 537 0050 FFF7FEFF 		bl	chDbgPanic
 538 0054 D7E7     		b	.L29
 539              	.L34:
 540 0056 00BF     		.align	2
 541              	.L33:
 542 0058 88000000 		.word	.LC7
 543 005c 70000000 		.word	.LC6
 544              		.cfi_endproc
 545              	.LFE69:
 546              		.size	adcStopConversion, .-adcStopConversion
 547              		.section	.text.adcStopConversionI,"ax",%progbits
 548              		.align	2
 549              		.p2align 4,,15
 550              		.global	adcStopConversionI
 551              		.thumb
 552              		.thumb_func
 553              		.type	adcStopConversionI, %function
 554              	adcStopConversionI:
 555              	.LFB70:
 556              		.loc 1 238 0
 557              		.cfi_startproc
 558              		@ args = 0, pretend = 0, frame = 0
 559              		@ frame_needed = 0, uses_anonymous_args = 0
 560              	.LVL38:
 561 0000 10B5     		push	{r4, lr}
 562              	.LCFI5:
 563              		.cfi_def_cfa_offset 8
ARM GAS  /tmp/ccH33UjV.s 			page 11


 564              		.cfi_offset 14, -4
 565              		.cfi_offset 4, -8
 566              		.loc 1 238 0
 567 0002 0446     		mov	r4, r0
 568              		.loc 1 240 0
 569 0004 FFF7FEFF 		bl	chDbgCheckClassI
 570              	.LVL39:
 571              		.loc 1 241 0
 572 0008 002C     		cmp	r4, #0
 573 000a 1DD0     		beq	.L39
 574              	.L36:
 575              		.loc 1 242 0
 576 000c 2378     		ldrb	r3, [r4, #0]	@ zero_extendqisi2
 577 000e 981E     		subs	r0, r3, #2
 578 0010 C2B2     		uxtb	r2, r0
 579 0012 022A     		cmp	r2, #2
 580 0014 13D8     		bhi	.L40
 581              	.L37:
 582              		.loc 1 247 0
 583 0016 022B     		cmp	r3, #2
 584 0018 10D0     		beq	.L35
 585              		.loc 1 248 0
 586 001a 2046     		mov	r0, r4
 587 001c FFF7FEFF 		bl	adc_lld_stop_conversion
 588              		.loc 1 251 0
 589 0020 6069     		ldr	r0, [r4, #20]
 590              		.loc 1 249 0
 591 0022 0023     		movs	r3, #0
 592              		.loc 1 250 0
 593 0024 0221     		movs	r1, #2
 594              		.loc 1 249 0
 595 0026 2361     		str	r3, [r4, #16]
 596              		.loc 1 250 0
 597 0028 2170     		strb	r1, [r4, #0]
 598              		.loc 1 251 0
 599 002a 38B1     		cbz	r0, .L35
 600              	.LVL40:
 601              	.LBB19:
 602              		.loc 1 251 0 is_stmt 0 discriminator 1
 603 002c 6361     		str	r3, [r4, #20]
 604 002e 6FF00103 		mvn	r3, #1
 605 0032 8362     		str	r3, [r0, #40]
 606              	.LBE19:
 607              		.loc 1 253 0 is_stmt 1 discriminator 1
 608 0034 BDE81040 		pop	{r4, lr}
 609              	.LBB20:
 610              		.loc 1 251 0 discriminator 1
 611 0038 FFF7FEBF 		b	chSchReadyI
 612              	.LVL41:
 613              	.L35:
 614 003c 10BD     		pop	{r4, pc}
 615              	.L40:
 616              	.LBE20:
 617              		.loc 1 242 0 discriminator 1
 618 003e 0448     		ldr	r0, .L41
 619 0040 FFF7FEFF 		bl	chDbgPanic
 620 0044 2378     		ldrb	r3, [r4, #0]	@ zero_extendqisi2
ARM GAS  /tmp/ccH33UjV.s 			page 12


 621 0046 E6E7     		b	.L37
 622              	.L39:
 623              		.loc 1 241 0 discriminator 1
 624 0048 0248     		ldr	r0, .L41+4
 625 004a FFF7FEFF 		bl	chDbgPanic
 626 004e DDE7     		b	.L36
 627              	.L42:
 628              		.align	2
 629              	.L41:
 630 0050 B8000000 		.word	.LC9
 631 0054 A0000000 		.word	.LC8
 632              		.cfi_endproc
 633              	.LFE70:
 634              		.size	adcStopConversionI, .-adcStopConversionI
 635 0058 AFF30080 		.section	.text.adcConvert,"ax",%progbits
 635      AFF30080 
 636              		.align	2
 637              		.p2align 4,,15
 638              		.global	adcConvert
 639              		.thumb
 640              		.thumb_func
 641              		.type	adcConvert, %function
 642              	adcConvert:
 643              	.LFB71:
 644              		.loc 1 282 0
 645              		.cfi_startproc
 646              		@ args = 0, pretend = 0, frame = 0
 647              		@ frame_needed = 0, uses_anonymous_args = 0
 648              	.LVL42:
 649 0000 2DE9F041 		push	{r4, r5, r6, r7, r8, lr}
 650              	.LCFI6:
 651              		.cfi_def_cfa_offset 24
 652              		.cfi_offset 14, -4
 653              		.cfi_offset 8, -8
 654              		.cfi_offset 7, -12
 655              		.cfi_offset 6, -16
 656              		.cfi_offset 5, -20
 657              		.cfi_offset 4, -24
 658              		.loc 1 282 0
 659 0004 1D46     		mov	r5, r3
 660 0006 0446     		mov	r4, r0
 661 0008 0E46     		mov	r6, r1
 662 000a 1746     		mov	r7, r2
 663              	.LBB25:
 664              		.loc 1 285 0
 665 000c 2023     		movs	r3, #32
 666              	.LVL43:
 667              	@ 285 "../../ChibiOS/os/hal/src/adc.c" 1
 668 000e 83F31188 		msr     BASEPRI, r3
 669              	@ 0 "" 2
 670              	.LVL44:
 671              		.thumb
 672              	.LBE25:
 673 0012 FFF7FEFF 		bl	dbg_check_lock
 674              	.LVL45:
 675              		.loc 1 286 0
 676 0016 6369     		ldr	r3, [r4, #20]
ARM GAS  /tmp/ccH33UjV.s 			page 13


 677 0018 13B1     		cbz	r3, .L44
 678              		.loc 1 286 0 is_stmt 0 discriminator 1
 679 001a 1A48     		ldr	r0, .L48
 680 001c FFF7FEFF 		bl	chDbgPanic
 681              	.L44:
 682              	.LVL46:
 683              	.LBB26:
 684              	.LBB27:
 685              		.loc 1 185 0 is_stmt 1
 686 0020 FFF7FEFF 		bl	chDbgCheckClassI
 687              		.loc 1 186 0
 688 0024 002E     		cmp	r6, #0
 689 0026 29D0     		beq	.L45
 690 0028 47B3     		cbz	r7, .L45
 691 002a 012D     		cmp	r5, #1
 692 002c 01D0     		beq	.L46
 693 002e E907     		lsls	r1, r5, #31
 694 0030 24D4     		bmi	.L45
 695              	.L46:
 696              		.loc 1 189 0
 697 0032 2378     		ldrb	r3, [r4, #0]	@ zero_extendqisi2
 698 0034 022B     		cmp	r3, #2
 699 0036 06D0     		beq	.L47
 700 0038 042B     		cmp	r3, #4
 701 003a 04D0     		beq	.L47
 702 003c 052B     		cmp	r3, #5
 703 003e 02D0     		beq	.L47
 704 0040 1148     		ldr	r0, .L48+4
 705 0042 FFF7FEFF 		bl	chDbgPanic
 706              	.L47:
 707              		.loc 1 197 0
 708 0046 0322     		movs	r2, #3
 709              	.LBE27:
 710              	.LBE26:
 711              		.loc 1 288 0
 712 0048 DFF84480 		ldr	r8, .L48+12
 713              	.LBB30:
 714              	.LBB28:
 715              		.loc 1 197 0
 716 004c 2270     		strb	r2, [r4, #0]
 717              		.loc 1 198 0
 718 004e 2046     		mov	r0, r4
 719              		.loc 1 194 0
 720 0050 A760     		str	r7, [r4, #8]
 721              		.loc 1 195 0
 722 0052 E560     		str	r5, [r4, #12]
 723              		.loc 1 196 0
 724 0054 2661     		str	r6, [r4, #16]
 725              		.loc 1 198 0
 726 0056 FFF7FEFF 		bl	adc_lld_start_conversion
 727              	.LBE28:
 728              	.LBE30:
 729              		.loc 1 288 0
 730 005a D8F81810 		ldr	r1, [r8, #24]
 731              		.loc 1 289 0
 732 005e 0220     		movs	r0, #2
 733              		.loc 1 288 0
ARM GAS  /tmp/ccH33UjV.s 			page 14


 734 0060 6161     		str	r1, [r4, #20]
 735              		.loc 1 289 0
 736 0062 FFF7FEFF 		bl	chSchGoSleepS
 737              		.loc 1 290 0
 738 0066 D8F81800 		ldr	r0, [r8, #24]
 739 006a 846A     		ldr	r4, [r0, #40]
 740              	.LVL47:
 741              		.loc 1 291 0
 742 006c FFF7FEFF 		bl	dbg_check_unlock
 743              	.LVL48:
 744              	.LBB31:
 745 0070 0023     		movs	r3, #0
 746              	.LVL49:
 747              	@ 291 "../../ChibiOS/os/hal/src/adc.c" 1
 748 0072 83F31188 		msr     BASEPRI, r3
 749              	@ 0 "" 2
 750              	.LVL50:
 751              		.thumb
 752              	.LBE31:
 753              		.loc 1 293 0
 754 0076 2046     		mov	r0, r4
 755 0078 BDE8F081 		pop	{r4, r5, r6, r7, r8, pc}
 756              	.LVL51:
 757              	.L45:
 758              	.LBB32:
 759              	.LBB29:
 760              		.loc 1 186 0
 761 007c 0348     		ldr	r0, .L48+8
 762 007e FFF7FEFF 		bl	chDbgPanic
 763 0082 D6E7     		b	.L46
 764              	.L49:
 765              		.align	2
 766              	.L48:
 767 0084 D4000000 		.word	.LC10
 768 0088 54000000 		.word	.LC5
 769 008c 3C000000 		.word	.LC4
 770 0090 00000000 		.word	rlist
 771              	.LBE29:
 772              	.LBE32:
 773              		.cfi_endproc
 774              	.LFE71:
 775              		.size	adcConvert, .-adcConvert
 776 0094 AFF30080 		.section	.text.adcAcquireBus,"ax",%progbits
 776      AFF30080 
 776      AFF30080 
 777              		.align	2
 778              		.p2align 4,,15
 779              		.global	adcAcquireBus
 780              		.thumb
 781              		.thumb_func
 782              		.type	adcAcquireBus, %function
 783              	adcAcquireBus:
 784              	.LFB72:
 785              		.loc 1 308 0
 786              		.cfi_startproc
 787              		@ args = 0, pretend = 0, frame = 0
 788              		@ frame_needed = 0, uses_anonymous_args = 0
ARM GAS  /tmp/ccH33UjV.s 			page 15


 789              	.LVL52:
 790 0000 10B5     		push	{r4, lr}
 791              	.LCFI7:
 792              		.cfi_def_cfa_offset 8
 793              		.cfi_offset 14, -4
 794              		.cfi_offset 4, -8
 795              		.loc 1 308 0
 796 0002 0446     		mov	r4, r0
 797              		.loc 1 310 0
 798 0004 28B1     		cbz	r0, .L52
 799              	.LVL53:
 800              	.L51:
 801              		.loc 1 313 0
 802 0006 04F11800 		add	r0, r4, #24
 803              		.loc 1 317 0
 804 000a BDE81040 		pop	{r4, lr}
 805              		.loc 1 313 0
 806 000e FFF7FEBF 		b	chMtxLock
 807              	.L52:
 808              		.loc 1 310 0 discriminator 1
 809 0012 0248     		ldr	r0, .L53
 810 0014 FFF7FEFF 		bl	chDbgPanic
 811 0018 F5E7     		b	.L51
 812              	.L54:
 813 001a 00BF     		.align	2
 814              	.L53:
 815 001c E8000000 		.word	.LC11
 816              		.cfi_endproc
 817              	.LFE72:
 818              		.size	adcAcquireBus, .-adcAcquireBus
 819              		.section	.text.adcReleaseBus,"ax",%progbits
 820              		.align	2
 821              		.p2align 4,,15
 822              		.global	adcReleaseBus
 823              		.thumb
 824              		.thumb_func
 825              		.type	adcReleaseBus, %function
 826              	adcReleaseBus:
 827              	.LFB73:
 828              		.loc 1 328 0
 829              		.cfi_startproc
 830              		@ args = 0, pretend = 0, frame = 0
 831              		@ frame_needed = 0, uses_anonymous_args = 0
 832              	.LVL54:
 833 0000 08B5     		push	{r3, lr}
 834              	.LCFI8:
 835              		.cfi_def_cfa_offset 8
 836              		.cfi_offset 14, -4
 837              		.cfi_offset 3, -8
 838              		.loc 1 330 0
 839 0002 18B1     		cbz	r0, .L57
 840              	.LVL55:
 841              	.L56:
 842              		.loc 1 338 0
 843 0004 BDE80840 		pop	{r3, lr}
 844              		.loc 1 334 0
 845 0008 FFF7FEBF 		b	chMtxUnlock
ARM GAS  /tmp/ccH33UjV.s 			page 16


 846              	.LVL56:
 847              	.L57:
 848              		.loc 1 330 0 discriminator 1
 849 000c 0148     		ldr	r0, .L58
 850              	.LVL57:
 851 000e FFF7FEFF 		bl	chDbgPanic
 852 0012 F7E7     		b	.L56
 853              	.L59:
 854              		.align	2
 855              	.L58:
 856 0014 FC000000 		.word	.LC12
 857              		.cfi_endproc
 858              	.LFE73:
 859              		.size	adcReleaseBus, .-adcReleaseBus
 860 0018 AFF30080 		.section	.rodata.str1.4,"aMS",%progbits,1
 860      AFF30080 
 861              		.align	2
 862              	.LC0:
 863 0000 22616463 		.ascii	"\"adcStart\"()\000"
 863      53746172 
 863      74222829 
 863      00
 864 000d 000000   		.space	3
 865              	.LC1:
 866 0010 61646353 		.ascii	"adcStart(), #1\000"
 866      74617274 
 866      28292C20 
 866      233100
 867 001f 00       		.space	1
 868              	.LC2:
 869 0020 22616463 		.ascii	"\"adcStop\"()\000"
 869      53746F70 
 869      22282900 
 870              	.LC3:
 871 002c 61646353 		.ascii	"adcStop(), #1\000"
 871      746F7028 
 871      292C2023 
 871      3100
 872 003a 0000     		.space	2
 873              	.LC4:
 874 003c 22616463 		.ascii	"\"adcStartConversionI\"()\000"
 874      53746172 
 874      74436F6E 
 874      76657273 
 874      696F6E49 
 875              	.LC5:
 876 0054 61646353 		.ascii	"adcStartConversionI(), #1\000"
 876      74617274 
 876      436F6E76 
 876      65727369 
 876      6F6E4928 
 877 006e 0000     		.space	2
 878              	.LC6:
 879 0070 22616463 		.ascii	"\"adcStopConversion\"()\000"
 879      53746F70 
 879      436F6E76 
 879      65727369 
ARM GAS  /tmp/ccH33UjV.s 			page 17


 879      6F6E2228 
 880 0086 0000     		.space	2
 881              	.LC7:
 882 0088 61646353 		.ascii	"adcStopConversion(), #1\000"
 882      746F7043 
 882      6F6E7665 
 882      7273696F 
 882      6E28292C 
 883              	.LC8:
 884 00a0 22616463 		.ascii	"\"adcStopConversionI\"()\000"
 884      53746F70 
 884      436F6E76 
 884      65727369 
 884      6F6E4922 
 885 00b7 00       		.space	1
 886              	.LC9:
 887 00b8 61646353 		.ascii	"adcStopConversionI(), #1\000"
 887      746F7043 
 887      6F6E7665 
 887      7273696F 
 887      6E492829 
 888 00d1 000000   		.space	3
 889              	.LC10:
 890 00d4 61646343 		.ascii	"adcConvert(), #1\000"
 890      6F6E7665 
 890      72742829 
 890      2C202331 
 890      00
 891 00e5 000000   		.space	3
 892              	.LC11:
 893 00e8 22616463 		.ascii	"\"adcAcquireBus\"()\000"
 893      41637175 
 893      69726542 
 893      75732228 
 893      2900
 894 00fa 0000     		.space	2
 895              	.LC12:
 896 00fc 22616463 		.ascii	"\"adcReleaseBus\"()\000"
 896      52656C65 
 896      61736542 
 896      75732228 
 896      2900
 897 010e 0000     		.text
 898              	.Letext0:
 899              		.file 2 "/home/tino/ChibiStudio/tools/GNU Tools ARM Embedded/4.6 2012q2/bin/../lib/gcc/arm-none-ea
 900              		.file 3 "/home/tino/ChibiStudio/tools/GNU Tools ARM Embedded/4.6 2012q2/bin/../lib/gcc/arm-none-ea
 901              		.file 4 "../../ChibiOS/os/ports/GCC/ARMCMx/chtypes.h"
 902              		.file 5 "../../ChibiOS/os/kernel/include/chlists.h"
 903              		.file 6 "../../ChibiOS/os/kernel/include/chthreads.h"
 904              		.file 7 "../../ChibiOS/os/ports/GCC/ARMCMx/chcore_v7m.h"
 905              		.file 8 "../../ChibiOS/os/kernel/include/chschd.h"
 906              		.file 9 "../../ChibiOS/os/kernel/include/chmtx.h"
 907              		.file 10 "../../ChibiOS/os/hal/platforms/STM32F1xx/stm32f10x.h"
 908              		.file 11 "../../ChibiOS/os/hal/platforms/STM32F1xx/stm32_dma.h"
 909              		.file 12 "../../ChibiOS/os/hal/include/adc.h"
 910              		.file 13 "../../ChibiOS/os/hal/platforms/STM32F1xx/adc_lld.h"
 911              		.file 14 "../../ChibiOS/os/ports/common/ARMCMx/CMSIS/include/core_cm3.h"
ARM GAS  /tmp/ccH33UjV.s 			page 18

