ARM GAS  /tmp/ccrvXwR4.s 			page 1


   1              		.syntax unified
   2              		.cpu cortex-m3
   3              		.fpu softvfp
   4              		.eabi_attribute 20, 1
   5              		.eabi_attribute 21, 1
   6              		.eabi_attribute 23, 3
   7              		.eabi_attribute 24, 1
   8              		.eabi_attribute 25, 1
   9              		.eabi_attribute 26, 1
  10              		.eabi_attribute 30, 2
  11              		.eabi_attribute 34, 1
  12              		.eabi_attribute 18, 4
  13              		.thumb
  14              		.file	"BaseSubscriber.cpp"
  15              		.text
  16              	.Ltext0:
  17              		.cfi_sections	.debug_frame
  18              		.section	.text._ZN14BaseSubscriberC2EPKcjPhPP11BaseMessagem,"ax",%progbits
  19              		.align	2
  20              		.p2align 4,,15
  21              		.global	_ZN14BaseSubscriberC2EPKcjPhPP11BaseMessagem
  22              		.thumb
  23              		.thumb_func
  24              		.type	_ZN14BaseSubscriberC2EPKcjPhPP11BaseMessagem, %function
  25              	_ZN14BaseSubscriberC2EPKcjPhPP11BaseMessagem:
  26              	.LFB17:
  27              		.file 1 "../../Middleware/BaseSubscriber.cpp"
  28              		.loc 1 7 0
  29              		.cfi_startproc
  30              		@ args = 8, pretend = 0, frame = 0
  31              		@ frame_needed = 0, uses_anonymous_args = 0
  32              	.LVL0:
  33 0000 F8B5     		push	{r3, r4, r5, r6, r7, lr}
  34              	.LCFI0:
  35              		.cfi_def_cfa_offset 24
  36              		.cfi_offset 14, -4
  37              		.cfi_offset 7, -8
  38              		.cfi_offset 6, -12
  39              		.cfi_offset 5, -16
  40              		.cfi_offset 4, -20
  41              		.cfi_offset 3, -24
  42              		.loc 1 7 0
  43 0002 0446     		mov	r4, r0
  44 0004 0E46     		mov	r6, r1
  45 0006 1546     		mov	r5, r2
  46              	.LBB2:
  47              		.loc 1 8 0
  48 0008 0699     		ldr	r1, [sp, #24]
  49              	.LVL1:
  50 000a 079A     		ldr	r2, [sp, #28]
  51              	.LVL2:
  52 000c 00F10C00 		add	r0, r0, #12
  53              	.LVL3:
  54              	.LBE2:
  55              		.loc 1 7 0
  56 0010 1F46     		mov	r7, r3
  57              	.LBB3:
ARM GAS  /tmp/ccrvXwR4.s 			page 2


  58              		.loc 1 8 0
  59 0012 FFF7FEFF 		bl	_ZN12MessageQueueC1EPP11BaseMessagem
  60              	.LVL4:
  61              		.loc 1 12 0
  62 0016 0020     		movs	r0, #0
  63              		.loc 1 14 0
  64 0018 0123     		movs	r3, #1
  65              		.loc 1 12 0
  66 001a A060     		str	r0, [r4, #8]
  67              		.loc 1 10 0
  68 001c 2660     		str	r6, [r4, #0]
  69              		.loc 1 11 0
  70 001e 6560     		str	r5, [r4, #4]
  71              		.loc 1 13 0
  72 0020 2762     		str	r7, [r4, #32]
  73              		.loc 1 14 0
  74 0022 6362     		str	r3, [r4, #36]
  75              	.LBE3:
  76              		.loc 1 15 0
  77 0024 2046     		mov	r0, r4
  78 0026 F8BD     		pop	{r3, r4, r5, r6, r7, pc}
  79              		.cfi_endproc
  80              	.LFE17:
  81              		.size	_ZN14BaseSubscriberC2EPKcjPhPP11BaseMessagem, .-_ZN14BaseSubscriberC2EPKcjPhPP11BaseMessagem
  82 0028 AFF30080 		.section	.text._ZN14BaseSubscriber5topicEv,"ax",%progbits
  82      AFF30080 
  83              		.align	2
  84              		.p2align 4,,15
  85              		.global	_ZN14BaseSubscriber5topicEv
  86              		.thumb
  87              		.thumb_func
  88              		.type	_ZN14BaseSubscriber5topicEv, %function
  89              	_ZN14BaseSubscriber5topicEv:
  90              	.LFB19:
  91              		.loc 1 17 0
  92              		.cfi_startproc
  93              		@ args = 0, pretend = 0, frame = 0
  94              		@ frame_needed = 0, uses_anonymous_args = 0
  95              		@ link register save eliminated.
  96              	.LVL5:
  97              		.loc 1 18 0
  98 0000 0068     		ldr	r0, [r0, #0]
  99              	.LVL6:
 100              		.loc 1 19 0
 101 0002 7047     		bx	lr
 102              		.cfi_endproc
 103              	.LFE19:
 104              		.size	_ZN14BaseSubscriber5topicEv, .-_ZN14BaseSubscriber5topicEv
 105 0004 AFF30080 		.section	.text._ZN14BaseSubscriber6sourceEv,"ax",%progbits
 105      AFF30080 
 105      AFF30080 
 106              		.align	2
 107              		.p2align 4,,15
 108              		.global	_ZN14BaseSubscriber6sourceEv
 109              		.thumb
 110              		.thumb_func
 111              		.type	_ZN14BaseSubscriber6sourceEv, %function
ARM GAS  /tmp/ccrvXwR4.s 			page 3


 112              	_ZN14BaseSubscriber6sourceEv:
 113              	.LFB20:
 114              		.loc 1 21 0
 115              		.cfi_startproc
 116              		@ args = 0, pretend = 0, frame = 0
 117              		@ frame_needed = 0, uses_anonymous_args = 0
 118              		@ link register save eliminated.
 119              	.LVL7:
 120              		.loc 1 22 0
 121 0000 8068     		ldr	r0, [r0, #8]
 122              	.LVL8:
 123              		.loc 1 23 0
 124 0002 7047     		bx	lr
 125              		.cfi_endproc
 126              	.LFE20:
 127              		.size	_ZN14BaseSubscriber6sourceEv, .-_ZN14BaseSubscriber6sourceEv
 128 0004 AFF30080 		.section	.text._ZN14BaseSubscriber3getEv,"ax",%progbits
 128      AFF30080 
 128      AFF30080 
 129              		.align	2
 130              		.p2align 4,,15
 131              		.global	_ZN14BaseSubscriber3getEv
 132              		.thumb
 133              		.thumb_func
 134              		.type	_ZN14BaseSubscriber3getEv, %function
 135              	_ZN14BaseSubscriber3getEv:
 136              	.LFB21:
 137              		.loc 1 25 0
 138              		.cfi_startproc
 139              		@ args = 0, pretend = 0, frame = 0
 140              		@ frame_needed = 0, uses_anonymous_args = 0
 141              		@ link register save eliminated.
 142              	.LVL9:
 143              		.loc 1 26 0
 144 0000 0C30     		adds	r0, r0, #12
 145              	.LVL10:
 146              		.loc 1 27 0
 147              		.loc 1 26 0
 148 0002 FFF7FEBF 		b	_ZN12MessageQueue3getEv
 149              	.LVL11:
 150              		.cfi_endproc
 151              	.LFE21:
 152              		.size	_ZN14BaseSubscriber3getEv, .-_ZN14BaseSubscriber3getEv
 153 0006 00BFAFF3 		.section	.text._ZN14BaseSubscriber7releaseEP11BaseMessage,"ax",%progbits
 153      0080AFF3 
 153      0080
 154              		.align	2
 155              		.p2align 4,,15
 156              		.global	_ZN14BaseSubscriber7releaseEP11BaseMessage
 157              		.thumb
 158              		.thumb_func
 159              		.type	_ZN14BaseSubscriber7releaseEP11BaseMessage, %function
 160              	_ZN14BaseSubscriber7releaseEP11BaseMessage:
 161              	.LFB22:
 162              		.loc 1 29 0
 163              		.cfi_startproc
 164              		@ args = 0, pretend = 0, frame = 0
ARM GAS  /tmp/ccrvXwR4.s 			page 4


 165              		@ frame_needed = 0, uses_anonymous_args = 0
 166              		@ link register save eliminated.
 167              	.LVL12:
 168              		.loc 1 30 0
 169 0000 8068     		ldr	r0, [r0, #8]
 170              	.LVL13:
 171              		.loc 1 31 0
 172              		.loc 1 30 0
 173 0002 FFF7FEBF 		b	_ZN13BasePublisher7releaseEP11BaseMessage
 174              	.LVL14:
 175              		.cfi_endproc
 176              	.LFE22:
 177              		.size	_ZN14BaseSubscriber7releaseEP11BaseMessage, .-_ZN14BaseSubscriber7releaseEP11BaseMessage
 178 0006 00BFAFF3 		.section	.text._ZN14BaseSubscriber8releaseIEP11BaseMessage,"ax",%progbits
 178      0080AFF3 
 178      0080
 179              		.align	2
 180              		.p2align 4,,15
 181              		.global	_ZN14BaseSubscriber8releaseIEP11BaseMessage
 182              		.thumb
 183              		.thumb_func
 184              		.type	_ZN14BaseSubscriber8releaseIEP11BaseMessage, %function
 185              	_ZN14BaseSubscriber8releaseIEP11BaseMessage:
 186              	.LFB23:
 187              		.loc 1 33 0
 188              		.cfi_startproc
 189              		@ args = 0, pretend = 0, frame = 0
 190              		@ frame_needed = 0, uses_anonymous_args = 0
 191              		@ link register save eliminated.
 192              	.LVL15:
 193              		.loc 1 34 0
 194 0000 8068     		ldr	r0, [r0, #8]
 195              	.LVL16:
 196              		.loc 1 35 0
 197              		.loc 1 34 0
 198 0002 FFF7FEBF 		b	_ZN13BasePublisher8releaseIEP11BaseMessage
 199              	.LVL17:
 200              		.cfi_endproc
 201              	.LFE23:
 202              		.size	_ZN14BaseSubscriber8releaseIEP11BaseMessage, .-_ZN14BaseSubscriber8releaseIEP11BaseMessage
 203 0006 00BFAFF3 		.section	.text._ZN14BaseSubscriber4sizeEv,"ax",%progbits
 203      0080AFF3 
 203      0080
 204              		.align	2
 205              		.p2align 4,,15
 206              		.global	_ZN14BaseSubscriber4sizeEv
 207              		.thumb
 208              		.thumb_func
 209              		.type	_ZN14BaseSubscriber4sizeEv, %function
 210              	_ZN14BaseSubscriber4sizeEv:
 211              	.LFB24:
 212              		.loc 1 37 0
 213              		.cfi_startproc
 214              		@ args = 0, pretend = 0, frame = 0
 215              		@ frame_needed = 0, uses_anonymous_args = 0
 216              	.LVL18:
 217 0000 08B5     		push	{r3, lr}
ARM GAS  /tmp/ccrvXwR4.s 			page 5


 218              	.LCFI1:
 219              		.cfi_def_cfa_offset 8
 220              		.cfi_offset 14, -4
 221              		.cfi_offset 3, -8
 222              		.loc 1 38 0
 223 0002 0C30     		adds	r0, r0, #12
 224              	.LVL19:
 225 0004 FFF7FEFF 		bl	_ZN12MessageQueue4sizeEv
 226              	.LVL20:
 227 0008 80B2     		uxth	r0, r0
 228              		.loc 1 39 0
 229 000a 08BD     		pop	{r3, pc}
 230              		.cfi_endproc
 231              	.LFE24:
 232              		.size	_ZN14BaseSubscriber4sizeEv, .-_ZN14BaseSubscriber4sizeEv
 233              		.global	_ZN14BaseSubscriberC1EPKcjPhPP11BaseMessagem
 234              		.thumb_set _ZN14BaseSubscriberC1EPKcjPhPP11BaseMessagem,_ZN14BaseSubscriberC2EPKcjPhPP11BaseMessag
 235 000c AFF30080 		.text
 236              	.Letext0:
 237              		.file 2 "/home/tino/ChibiStudio/tools/GNU Tools ARM Embedded/4.6 2012q2/bin/../lib/gcc/arm-none-ea
 238              		.file 3 "/home/tino/ChibiStudio/tools/GNU Tools ARM Embedded/4.6 2012q2/bin/../lib/gcc/arm-none-ea
 239              		.file 4 "../../ChibiOS/os/ports/GCC/ARMCMx/chtypes.h"
 240              		.file 5 "../../ChibiOS/os/kernel/include/chmemcore.h"
 241              		.file 6 "../../ChibiOS/os/kernel/include/chmempools.h"
 242              		.file 7 "../../Middleware/BaseMessage.hpp"
 243              		.file 8 "../../Middleware/MessageQueue.hpp"
 244              		.file 9 "../../Middleware/BasePublisher.hpp"
 245              		.file 10 "../../Middleware/BaseSubscriber.hpp"
 246              		.file 11 "../../ChibiOS/os/various/cpp_wrappers/ch.hpp"