ARM GAS  /tmp/ccPXEhp1.s 			page 1


   1              		.syntax unified
   2              		.cpu cortex-m3
   3              		.fpu softvfp
   4              		.eabi_attribute 20, 1
   5              		.eabi_attribute 21, 1
   6              		.eabi_attribute 23, 3
   7              		.eabi_attribute 24, 1
   8              		.eabi_attribute 25, 1
   9              		.eabi_attribute 26, 1
  10              		.eabi_attribute 30, 2
  11              		.eabi_attribute 34, 1
  12              		.eabi_attribute 18, 4
  13              		.thumb
  14              		.file	"BasePublisher.cpp"
  15              		.text
  16              	.Ltext0:
  17              		.cfi_sections	.debug_frame
  18              		.section	.text._ZN13BasePublisherC2EPKcj,"ax",%progbits
  19              		.align	2
  20              		.p2align 4,,15
  21              		.global	_ZN13BasePublisherC2EPKcj
  22              		.thumb
  23              		.thumb_func
  24              		.type	_ZN13BasePublisherC2EPKcj, %function
  25              	_ZN13BasePublisherC2EPKcj:
  26              	.LFB81:
  27              		.file 1 "../../Middleware/BasePublisher.cpp"
  28              		.loc 1 11 0
  29              		.cfi_startproc
  30              		@ args = 0, pretend = 0, frame = 0
  31              		@ frame_needed = 0, uses_anonymous_args = 0
  32              	.LVL0:
  33 0000 10B5     		push	{r4, lr}
  34              	.LCFI0:
  35              		.cfi_def_cfa_offset 8
  36              		.cfi_offset 14, -4
  37              		.cfi_offset 4, -8
  38              	.LBB2:
  39              		.loc 1 13 0
  40 0002 0023     		movs	r3, #0
  41              	.LBE2:
  42              		.loc 1 11 0
  43 0004 0446     		mov	r4, r0
  44              	.LBB3:
  45              		.loc 1 13 0
  46 0006 84E80A00 		stmia	r4, {r1, r3}
  47              		.loc 1 15 0
  48 000a 00F10C00 		add	r0, r0, #12
  49              	.LVL1:
  50 000e 1146     		mov	r1, r2
  51              	.LVL2:
  52              		.loc 1 14 0
  53 0010 A360     		str	r3, [r4, #8]
  54              		.loc 1 15 0
  55 0012 1A46     		mov	r2, r3
  56              	.LVL3:
  57 0014 FFF7FEFF 		bl	chPoolInit
ARM GAS  /tmp/ccPXEhp1.s 			page 2


  58              	.LVL4:
  59              	.LBE3:
  60              		.loc 1 16 0
  61 0018 2046     		mov	r0, r4
  62 001a 10BD     		pop	{r4, pc}
  63              		.cfi_endproc
  64              	.LFE81:
  65              		.size	_ZN13BasePublisherC2EPKcj, .-_ZN13BasePublisherC2EPKcj
  66 001c AFF30080 		.section	.text._ZN13BasePublisher5topicEv,"ax",%progbits
  67              		.align	2
  68              		.p2align 4,,15
  69              		.global	_ZN13BasePublisher5topicEv
  70              		.thumb
  71              		.thumb_func
  72              		.type	_ZN13BasePublisher5topicEv, %function
  73              	_ZN13BasePublisher5topicEv:
  74              	.LFB83:
  75              		.loc 1 18 0
  76              		.cfi_startproc
  77              		@ args = 0, pretend = 0, frame = 0
  78              		@ frame_needed = 0, uses_anonymous_args = 0
  79              		@ link register save eliminated.
  80              	.LVL5:
  81              		.loc 1 19 0
  82 0000 0068     		ldr	r0, [r0, #0]
  83              	.LVL6:
  84              		.loc 1 20 0
  85 0002 7047     		bx	lr
  86              		.cfi_endproc
  87              	.LFE83:
  88              		.size	_ZN13BasePublisher5topicEv, .-_ZN13BasePublisher5topicEv
  89 0004 AFF30080 		.section	.text._ZN13BasePublisher5allocEv,"ax",%progbits
  89      AFF30080 
  89      AFF30080 
  90              		.align	2
  91              		.p2align 4,,15
  92              		.global	_ZN13BasePublisher5allocEv
  93              		.thumb
  94              		.thumb_func
  95              		.type	_ZN13BasePublisher5allocEv, %function
  96              	_ZN13BasePublisher5allocEv:
  97              	.LFB84:
  98              		.loc 1 22 0
  99              		.cfi_startproc
 100              		@ args = 0, pretend = 0, frame = 0
 101              		@ frame_needed = 0, uses_anonymous_args = 0
 102              	.LVL7:
 103 0000 10B5     		push	{r4, lr}
 104              	.LCFI1:
 105              		.cfi_def_cfa_offset 8
 106              		.cfi_offset 14, -4
 107              		.cfi_offset 4, -8
 108              	.LBB12:
 109              	.LBB13:
 110              	.LBB14:
 111              		.loc 1 25 0
 112 0002 2023     		movs	r3, #32
ARM GAS  /tmp/ccPXEhp1.s 			page 3


 113              	.LVL8:
 114              	.LBE14:
 115              	.LBE13:
 116              	.LBE12:
 117              		.loc 1 22 0
 118 0004 0446     		mov	r4, r0
 119              	.LBB21:
 120              	.LBB16:
 121              	.LBB15:
 122              		.loc 1 25 0
 123              	@ 25 "../../Middleware/BasePublisher.cpp" 1
 124 0006 83F31188 		msr     BASEPRI, r3
 125              	@ 0 "" 2
 126              	.LVL9:
 127              		.thumb
 128              	.LBE15:
 129 000a FFF7FEFF 		bl	dbg_check_lock
 130              	.LVL10:
 131              	.LBE16:
 132              	.LBB17:
 133              	.LBB18:
 134              		.loc 1 35 0
 135 000e 04F10C00 		add	r0, r4, #12
 136 0012 FFF7FEFF 		bl	chPoolAllocI
 137 0016 0446     		mov	r4, r0
 138              	.LVL11:
 139              		.loc 1 38 0
 140 0018 08B1     		cbz	r0, .L5
 141              		.loc 1 39 0
 142 001a FFF7FEFF 		bl	_ZN11BaseMessage5resetEv
 143              	.LVL12:
 144              	.L5:
 145              	.LBE18:
 146              	.LBE17:
 147              	.LBB19:
 148              		.loc 1 27 0
 149 001e FFF7FEFF 		bl	dbg_check_unlock
 150              	.LBB20:
 151 0022 0023     		movs	r3, #0
 152              	.LVL13:
 153              	@ 27 "../../Middleware/BasePublisher.cpp" 1
 154 0024 83F31188 		msr     BASEPRI, r3
 155              	@ 0 "" 2
 156              	.LVL14:
 157              		.thumb
 158              	.LBE20:
 159              	.LBE19:
 160              	.LBE21:
 161              		.loc 1 30 0
 162 0028 2046     		mov	r0, r4
 163 002a 10BD     		pop	{r4, pc}
 164              		.cfi_endproc
 165              	.LFE84:
 166              		.size	_ZN13BasePublisher5allocEv, .-_ZN13BasePublisher5allocEv
 167 002c AFF30080 		.section	.text._ZN13BasePublisher6allocIEv,"ax",%progbits
 168              		.align	2
 169              		.p2align 4,,15
ARM GAS  /tmp/ccPXEhp1.s 			page 4


 170              		.global	_ZN13BasePublisher6allocIEv
 171              		.thumb
 172              		.thumb_func
 173              		.type	_ZN13BasePublisher6allocIEv, %function
 174              	_ZN13BasePublisher6allocIEv:
 175              	.LFB85:
 176              		.loc 1 32 0
 177              		.cfi_startproc
 178              		@ args = 0, pretend = 0, frame = 0
 179              		@ frame_needed = 0, uses_anonymous_args = 0
 180              	.LVL15:
 181 0000 10B5     		push	{r4, lr}
 182              	.LCFI2:
 183              		.cfi_def_cfa_offset 8
 184              		.cfi_offset 14, -4
 185              		.cfi_offset 4, -8
 186              	.LBB22:
 187              		.loc 1 35 0
 188 0002 0C30     		adds	r0, r0, #12
 189              	.LVL16:
 190 0004 FFF7FEFF 		bl	chPoolAllocI
 191              	.LVL17:
 192 0008 0446     		mov	r4, r0
 193              	.LVL18:
 194              		.loc 1 38 0
 195 000a 08B1     		cbz	r0, .L8
 196              		.loc 1 39 0
 197 000c FFF7FEFF 		bl	_ZN11BaseMessage5resetEv
 198              	.LVL19:
 199              	.L8:
 200              	.LBE22:
 201              		.loc 1 42 0
 202 0010 2046     		mov	r0, r4
 203 0012 10BD     		pop	{r4, pc}
 204              		.cfi_endproc
 205              	.LFE85:
 206              		.size	_ZN13BasePublisher6allocIEv, .-_ZN13BasePublisher6allocIEv
 207 0014 AFF30080 		.section	.text._ZN13BasePublisher7releaseEP11BaseMessage,"ax",%progbits
 207      AFF30080 
 207      AFF30080 
 208              		.align	2
 209              		.p2align 4,,15
 210              		.global	_ZN13BasePublisher7releaseEP11BaseMessage
 211              		.thumb
 212              		.thumb_func
 213              		.type	_ZN13BasePublisher7releaseEP11BaseMessage, %function
 214              	_ZN13BasePublisher7releaseEP11BaseMessage:
 215              	.LFB86:
 216              		.loc 1 44 0
 217              		.cfi_startproc
 218              		@ args = 0, pretend = 0, frame = 0
 219              		@ frame_needed = 0, uses_anonymous_args = 0
 220              	.LVL20:
 221 0000 38B5     		push	{r3, r4, r5, lr}
 222              	.LCFI3:
 223              		.cfi_def_cfa_offset 16
 224              		.cfi_offset 14, -4
ARM GAS  /tmp/ccPXEhp1.s 			page 5


 225              		.cfi_offset 5, -8
 226              		.cfi_offset 4, -12
 227              		.cfi_offset 3, -16
 228              		.loc 1 44 0
 229 0002 0446     		mov	r4, r0
 230 0004 0D46     		mov	r5, r1
 231              	.LBB30:
 232              	.LBB31:
 233              		.loc 1 45 0
 234 0006 2023     		movs	r3, #32
 235              	.LVL21:
 236              	@ 45 "../../Middleware/BasePublisher.cpp" 1
 237 0008 83F31188 		msr     BASEPRI, r3
 238              	@ 0 "" 2
 239              	.LVL22:
 240              		.thumb
 241              	.LBE31:
 242 000c FFF7FEFF 		bl	dbg_check_lock
 243              	.LVL23:
 244              	.LBE30:
 245              	.LBB32:
 246              	.LBB33:
 247              		.loc 1 53 0
 248 0010 2846     		mov	r0, r5
 249 0012 FFF7FEFF 		bl	_ZN11BaseMessage11dereferenceEv
 250 0016 20B1     		cbz	r0, .L10
 251              		.loc 1 54 0
 252 0018 04F10C00 		add	r0, r4, #12
 253 001c 2946     		mov	r1, r5
 254 001e FFF7FEFF 		bl	chPoolFreeI
 255              	.L10:
 256              	.LBE33:
 257              	.LBE32:
 258              	.LBB34:
 259              		.loc 1 47 0
 260 0022 FFF7FEFF 		bl	dbg_check_unlock
 261              	.LBB35:
 262 0026 0023     		movs	r3, #0
 263              	.LVL24:
 264              	@ 47 "../../Middleware/BasePublisher.cpp" 1
 265 0028 83F31188 		msr     BASEPRI, r3
 266              	@ 0 "" 2
 267              	.LVL25:
 268              		.thumb
 269              	.LBE35:
 270              	.LBE34:
 271              		.loc 1 48 0
 272 002c 38BD     		pop	{r3, r4, r5, pc}
 273              		.cfi_endproc
 274              	.LFE86:
 275              		.size	_ZN13BasePublisher7releaseEP11BaseMessage, .-_ZN13BasePublisher7releaseEP11BaseMessage
 276 002e 00BF     		.section	.text._ZN13BasePublisher8releaseIEP11BaseMessage,"ax",%progbits
 277              		.align	2
 278              		.p2align 4,,15
 279              		.global	_ZN13BasePublisher8releaseIEP11BaseMessage
 280              		.thumb
 281              		.thumb_func
ARM GAS  /tmp/ccPXEhp1.s 			page 6


 282              		.type	_ZN13BasePublisher8releaseIEP11BaseMessage, %function
 283              	_ZN13BasePublisher8releaseIEP11BaseMessage:
 284              	.LFB87:
 285              		.loc 1 51 0
 286              		.cfi_startproc
 287              		@ args = 0, pretend = 0, frame = 0
 288              		@ frame_needed = 0, uses_anonymous_args = 0
 289              	.LVL26:
 290 0000 38B5     		push	{r3, r4, r5, lr}
 291              	.LCFI4:
 292              		.cfi_def_cfa_offset 16
 293              		.cfi_offset 14, -4
 294              		.cfi_offset 5, -8
 295              		.cfi_offset 4, -12
 296              		.cfi_offset 3, -16
 297              		.loc 1 51 0
 298 0002 0546     		mov	r5, r0
 299              		.loc 1 53 0
 300 0004 0846     		mov	r0, r1
 301              	.LVL27:
 302              		.loc 1 51 0
 303 0006 0C46     		mov	r4, r1
 304              		.loc 1 53 0
 305 0008 FFF7FEFF 		bl	_ZN11BaseMessage11dereferenceEv
 306              	.LVL28:
 307 000c 00B9     		cbnz	r0, .L13
 308 000e 38BD     		pop	{r3, r4, r5, pc}
 309              	.L13:
 310              		.loc 1 54 0
 311 0010 05F10C00 		add	r0, r5, #12
 312 0014 2146     		mov	r1, r4
 313              		.loc 1 56 0
 314 0016 BDE83840 		pop	{r3, r4, r5, lr}
 315              		.loc 1 54 0
 316 001a FFF7FEBF 		b	chPoolFreeI
 317              		.cfi_endproc
 318              	.LFE87:
 319              		.size	_ZN13BasePublisher8releaseIEP11BaseMessage, .-_ZN13BasePublisher8releaseIEP11BaseMessage
 320 001e 00BF     		.section	.text._ZN13BasePublisher11unsubscribeEP16RemoteSubscriber,"ax",%progbits
 321              		.align	2
 322              		.p2align 4,,15
 323              		.global	_ZN13BasePublisher11unsubscribeEP16RemoteSubscriber
 324              		.thumb
 325              		.thumb_func
 326              		.type	_ZN13BasePublisher11unsubscribeEP16RemoteSubscriber, %function
 327              	_ZN13BasePublisher11unsubscribeEP16RemoteSubscriber:
 328              	.LFB88:
 329              		.loc 1 59 0
 330              		.cfi_startproc
 331              		@ args = 0, pretend = 0, frame = 0
 332              		@ frame_needed = 0, uses_anonymous_args = 0
 333              	.LVL29:
 334              	.LBB36:
 335              		.loc 1 63 0
 336 0000 8068     		ldr	r0, [r0, #8]
 337              	.LVL30:
 338              	.LBE36:
ARM GAS  /tmp/ccPXEhp1.s 			page 7


 339              		.loc 1 59 0
 340 0002 10B5     		push	{r4, lr}
 341              	.LCFI5:
 342              		.cfi_def_cfa_offset 8
 343              		.cfi_offset 14, -4
 344              		.cfi_offset 4, -8
 345              	.LBB37:
 346              		.loc 1 65 0
 347 0004 8842     		cmp	r0, r1
 348              	.LBE37:
 349              		.loc 1 59 0
 350 0006 0C46     		mov	r4, r1
 351              	.LBB38:
 352              		.loc 1 65 0
 353 0008 03D0     		beq	.L15
 354              	.LVL31:
 355              	.L16:
 356              		.loc 1 67 0
 357 000a FFF7FEFF 		bl	_ZN16RemoteSubscriber4nextEv
 358              	.LVL32:
 359              		.loc 1 65 0
 360 000e 8442     		cmp	r4, r0
 361 0010 FBD1     		bne	.L16
 362              	.L15:
 363              	.LBE38:
 364              		.loc 1 71 0
 365 0012 BDE81040 		pop	{r4, lr}
 366              	.LBB39:
 367              		.loc 1 70 0
 368 0016 FFF7FEBF 		b	_ZN16RemoteSubscriber4nextEv
 369              	.LVL33:
 370              	.LBE39:
 371              		.cfi_endproc
 372              	.LFE88:
 373              		.size	_ZN13BasePublisher11unsubscribeEP16RemoteSubscriber, .-_ZN13BasePublisher11unsubscribeEP16Re
 374 001a 00BFAFF3 		.section	.text._ZN13BasePublisher11unsubscribeEP15LocalSubscriber,"ax",%progbits
 374      0080
 375              		.align	2
 376              		.p2align 4,,15
 377              		.global	_ZN13BasePublisher11unsubscribeEP15LocalSubscriber
 378              		.thumb
 379              		.thumb_func
 380              		.type	_ZN13BasePublisher11unsubscribeEP15LocalSubscriber, %function
 381              	_ZN13BasePublisher11unsubscribeEP15LocalSubscriber:
 382              	.LFB89:
 383              		.loc 1 74 0
 384              		.cfi_startproc
 385              		@ args = 0, pretend = 0, frame = 0
 386              		@ frame_needed = 0, uses_anonymous_args = 0
 387              	.LVL34:
 388              	.LBB40:
 389              		.loc 1 78 0
 390 0000 4068     		ldr	r0, [r0, #4]
 391              	.LVL35:
 392              	.LBE40:
 393              		.loc 1 74 0
 394 0002 10B5     		push	{r4, lr}
ARM GAS  /tmp/ccPXEhp1.s 			page 8


 395              	.LCFI6:
 396              		.cfi_def_cfa_offset 8
 397              		.cfi_offset 14, -4
 398              		.cfi_offset 4, -8
 399              	.LBB41:
 400              		.loc 1 80 0
 401 0004 8842     		cmp	r0, r1
 402              	.LBE41:
 403              		.loc 1 74 0
 404 0006 0C46     		mov	r4, r1
 405              	.LBB42:
 406              		.loc 1 80 0
 407 0008 03D0     		beq	.L20
 408              	.LVL36:
 409              	.L21:
 410              		.loc 1 82 0
 411 000a FFF7FEFF 		bl	_ZN15LocalSubscriber4nextEv
 412              	.LVL37:
 413              		.loc 1 80 0
 414 000e 8442     		cmp	r4, r0
 415 0010 FBD1     		bne	.L21
 416              	.L20:
 417              	.LBE42:
 418              		.loc 1 86 0
 419 0012 BDE81040 		pop	{r4, lr}
 420              	.LBB43:
 421              		.loc 1 85 0
 422 0016 FFF7FEBF 		b	_ZN15LocalSubscriber4nextEv
 423              	.LVL38:
 424              	.LBE43:
 425              		.cfi_endproc
 426              	.LFE89:
 427              		.size	_ZN13BasePublisher11unsubscribeEP15LocalSubscriber, .-_ZN13BasePublisher11unsubscribeEP15Loc
 428              		.global	_ZN13BasePublisherC1EPKcj
 429              		.thumb_set _ZN13BasePublisherC1EPKcj,_ZN13BasePublisherC2EPKcj
 430 001a 00BFAFF3 		.text
 430      0080
 431              	.Letext0:
 432              		.file 2 "/home/tino/ChibiStudio/tools/GNU Tools ARM Embedded/4.6 2012q2/bin/../lib/gcc/arm-none-ea
 433              		.file 3 "/home/tino/ChibiStudio/tools/GNU Tools ARM Embedded/4.6 2012q2/bin/../lib/gcc/arm-none-ea
 434              		.file 4 "../../ChibiOS/os/ports/GCC/ARMCMx/chtypes.h"
 435              		.file 5 "../../ChibiOS/os/kernel/include/chlists.h"
 436              		.file 6 "../../ChibiOS/os/kernel/include/chthreads.h"
 437              		.file 7 "../../ChibiOS/os/ports/GCC/ARMCMx/chcore_v7m.h"
 438              		.file 8 "../../ChibiOS/os/kernel/include/chmtx.h"
 439              		.file 9 "../../ChibiOS/os/kernel/include/chmemcore.h"
 440              		.file 10 "../../ChibiOS/os/kernel/include/chmempools.h"
 441              		.file 11 "../../Middleware/BaseMessage.hpp"
 442              		.file 12 "../../Middleware/MessageQueue.hpp"
 443              		.file 13 "../../Middleware/BasePublisher.hpp"
 444              		.file 14 "../../Middleware/LocalSubscriber.hpp"
 445              		.file 15 "../../Middleware/RemoteSubscriber.hpp"
 446              		.file 16 "../../Middleware/LocalPublisher.hpp"
 447              		.file 17 "../../RTCAN/include/rtcan.h"
 448              		.file 18 "../../Middleware/BaseSubscriber.hpp"
 449              		.file 19 "../../Middleware/RemotePublisher.hpp"
 450              		.file 20 "../../ChibiOS/os/various/cpp_wrappers/ch.hpp"
ARM GAS  /tmp/ccPXEhp1.s 			page 9


 451              		.file 21 "../../ChibiOS/os/ports/common/ARMCMx/CMSIS/include/core_cm3.h"