ARM GAS  /tmp/ccrvXwR4.s 			page 1


   1              		.syntax unified
   2              		.cpu cortex-m3
   3              		.fpu softvfp
   4              		.eabi_attribute 20, 1
   5              		.eabi_attribute 21, 1
   6              		.eabi_attribute 23, 3
   7              		.eabi_attribute 24, 1
   8              		.eabi_attribute 25, 1
   9              		.eabi_attribute 26, 1
  10              		.eabi_attribute 30, 2
  11              		.eabi_attribute 34, 1
  12              		.eabi_attribute 18, 4
  13              		.thumb
  14              		.file	"BaseSubscriber.cpp"
  15              		.text
  16              	.Ltext0:
  17              		.cfi_sections	.debug_frame
  18              		.section	.text._ZN14BaseSubscriberC2EPKcjPhPP11BaseMessagem,"ax",%progbits
  19              		.align	2
  20              		.p2align 4,,15
  21              		.global	_ZN14BaseSubscriberC2EPKcjPhPP11BaseMessagem
  22              		.thumb
  23              		.thumb_func
  24              		.type	_ZN14BaseSubscriberC2EPKcjPhPP11BaseMessagem, %function
  25              	_ZN14BaseSubscriberC2EPKcjPhPP11BaseMessagem:
  26              	.LFB17:
  27              		.file 1 "../../Middleware/BaseSubscriber.cpp"
  28              		.loc 1 7 0
  29              		.cfi_startproc
  30              		@ args = 8, pretend = 0, frame = 0
  31              		@ frame_needed = 0, uses_anonymous_args = 0
  32              	.LVL0:
  33 0000 F8B5     		push	{r3, r4, r5, r6, r7, lr}
  34              	.LCFI0:
  35              		.cfi_def_cfa_offset 24
  36              		.cfi_offset 14, -4
  37              		.cfi_offset 7, -8
  38              		.cfi_offset 6, -12
  39              		.cfi_offset 5, -16
  40              		.cfi_offset 4, -20
  41              		.cfi_offset 3, -24
  42              		.loc 1 7 0
  43 0002 0446     		mov	r4, r0
  44 0004 0E46     		mov	r6, r1
  45 0006 1546     		mov	r5, r2
  46              	.LBB2:
  47              		.loc 1 8 0
  48 0008 0699     		ldr	r1, [sp, #24]
  49              	.LVL1:
  50 000a 079A     		ldr	r2, [sp, #28]
  51              	.LVL2:
  52 000c 00F10C00 		add	r0, r0, #12
  53              	.LVL3:
  54              	.LBE2:
  55              		.loc 1 7 0
  56 0010 1F46     		mov	r7, r3
  57              	.LBB3:
ARM GAS  /tmp/ccrvXwR4.s 			page 2


  58              		.loc 1 8 0
  59 0012 FFF7FEFF 		bl	_ZN12MessageQueueC1EPP11BaseMessagem
  60              	.LVL4:
  61              		.loc 1 12 0
  62 0016 0020     		movs	r0, #0
  63              		.loc 1 14 0
  64 0018 0123     		movs	r3, #1
  65              		.loc 1 12 0
  66 001a A060     		str	r0, [r4, #8]
  67              		.loc 1 10 0
  68 001c 2660     		str	r6, [r4, #0]
  69              		.loc 1 11 0
  70 001e 6560     		str	r5, [r4, #4]
  71              		.loc 1 13 0
  72 0020 2762     		str	r7, [r4, #32]
  73              		.loc 1 14 0
  74 0022 6362     		str	r3, [r4, #36]
  75              	.LBE3:
  76              		.loc 1 15 0
  77 0024 2046     		mov	r0, r4
  78 0026 F8BD     		pop	{r3, r4, r5, r6, r7, pc}
  79              		.cfi_endproc
  80              	.LFE17:
  81              		.size	_ZN14BaseSubscriberC2EPKcjPhPP11BaseMessagem, .-_ZN14BaseSubscriberC2EPKcjPhPP11BaseMessagem
  82 0028 AFF30080 		.section	.text._ZN14BaseSubscriber5topicEv,"ax",%progbits
  82      AFF30080 
  83              		.align	2
  84              		.p2align 4,,15
  85              		.global	_ZN14BaseSubscriber5topicEv
  86              		.thumb
  87              		.thumb_func
  88              		.type	_ZN14BaseSubscriber5topicEv, %function
  89              	_ZN14BaseSubscriber5topicEv:
  90              	.LFB19:
  91              		.loc 1 17 0
  92              		.cfi_startproc
  93              		@ args = 0, pretend = 0, frame = 0
  94              		@ frame_needed = 0, uses_anonymous_args = 0
  95              		@ link register save eliminated.
  96              	.LVL5:
  97              		.loc 1 18 0
  98 0000 0068     		ldr	r0, [r0, #0]
  99              	.LVL6:
 100              		.loc 1 19 0
 101 0002 7047     		bx	lr
 102              		.cfi_endproc
 103              	.LFE19:
 104              		.size	_ZN14BaseSubscriber5topicEv, .-_ZN14BaseSubscriber5topicEv
 105 0004 AFF30080 		.section	.text._ZN14BaseSubscriber6sourceEv,"ax",%progbits
 105      AFF30080 
 105      AFF30080 
 106              		.align	2
 107              		.p2align 4,,15
 108              		.global	_ZN14BaseSubscriber6sourceEv
 109              		.thumb
 110              		.thumb_func
 111              		.type	_ZN14BaseSubscriber6sourceEv, %function
ARM GAS  /tmp/ccrvXwR4.s 			page 3


 112              	_ZN14BaseSubscriber6sourceEv:
 113              	.LFB20:
 114              		.loc 1 21 0
 115              		.cfi_startproc
 116              		@ args = 0, pretend = 0, frame = 0
 117              		@ frame_needed = 0, uses_anonymous_args = 0
 118              		@ link register save eliminated.
 119              	.LVL7:
 120              		.loc 1 22 0
 121 0000 8068     		ldr	r0, [r0, #8]
 122              	.LVL8:
 123              		.loc 1 23 0
 124 0002 7047     		bx	lr
 125              		.cfi_endproc
 126              	.LFE20:
 127              		.size	_ZN14BaseSubscriber6sourceEv, .-_ZN14BaseSubscriber6sourceEv
 128 0004 AFF30080 		.section	.text._ZN14BaseSubscriber3getEv,"ax",%progbits
 128      AFF30080 
 128      AFF30080 
 129              		.align	2
 130              		.p2align 4,,15
 131              		.global	_ZN14BaseSubscriber3getEv
 132              		.thumb
 133              		.thumb_func
 134              		.type	_ZN14BaseSubscriber3getEv, %function
 135              	_ZN14BaseSubscriber3getEv:
 136              	.LFB21:
 137              		.loc 1 25 0
 138              		.cfi_startproc
 139              		@ args = 0, pretend = 0, frame = 0
 140              		@ frame_needed = 0, uses_anonymous_args = 0
 141              		@ link register save eliminated.
 142              	.LVL9:
 143              		.loc 1 26 0
 144 0000 0C30     		adds	r0, r0, #12
 145              	.LVL10:
 146              		.loc 1 27 0
 147              		.loc 1 26 0
 148 0002 FFF7FEBF 		b	_ZN12MessageQueue3getEv
 149              	.LVL11:
 150              		.cfi_endproc
 151              	.LFE21:
 152              		.size	_ZN14BaseSubscriber3getEv, .-_ZN14BaseSubscriber3getEv
 153 0006 00BFAFF3 		.section	.text._ZN14BaseSubscriber7releaseEP11BaseMessage,"ax",%progbits
 153      0080AFF3 
 153      0080
 154              		.align	2
 155              		.p2align 4,,15
 156              		.global	_ZN14BaseSubscriber7releaseEP11BaseMessage
 157              		.thumb
 158              		.thumb_func
 159              		.type	_ZN14BaseSubscriber7releaseEP11BaseMessage, %function
 160              	_ZN14BaseSubscriber7releaseEP11BaseMessage:
 161              	.LFB22:
 162              		.loc 1 29 0
 163              		.cfi_startproc
 164              		@ args = 0, pretend = 0, frame = 0
ARM GAS  /tmp/ccrvXwR4.s 			page 4


 165              		@ frame_needed = 0, uses_anonymous_args = 0
 166              		@ link register save eliminated.
 167              	.LVL12:
 168              		.loc 1 30 0
 169 0000 8068     		ldr	r0, [r0, #8]
 170              	.LVL13:
 171              		.loc 1 31 0
 172              		.loc 1 30 0
 173 0002 FFF7FEBF 		b	_ZN13BasePublisher7releaseEP11BaseMessage
 174              	.LVL14:
 175              		.cfi_endproc
 176              	.LFE22:
 177              		.size	_ZN14BaseSubscriber7releaseEP11BaseMessage, .-_ZN14BaseSubscriber7releaseEP11BaseMessage
 178 0006 00BFAFF3 		.section	.text._ZN14BaseSubscriber8releaseIEP11BaseMessage,"ax",%progbits
 178      0080AFF3 
 178      0080
 179              		.align	2
 180              		.p2align 4,,15
 181              		.global	_ZN14BaseSubscriber8releaseIEP11BaseMessage
 182              		.thumb
 183              		.thumb_func
 184              		.type	_ZN14BaseSubscriber8releaseIEP11BaseMessage, %function
 185              	_ZN14BaseSubscriber8releaseIEP11BaseMessage:
 186              	.LFB23:
 187              		.loc 1 33 0
 188              		.cfi_startproc
 189              		@ args = 0, pretend = 0, frame = 0
 190              		@ frame_needed = 0, uses_anonymous_args = 0
 191              		@ link register save eliminated.
 192              	.LVL15:
 193              		.loc 1 34 0
 194 0000 8068     		ldr	r0, [r0, #8]
 195              	.LVL16:
 196              		.loc 1 35 0
 197              		.loc 1 34 0
 198 0002 FFF7FEBF 		b	_ZN13BasePublisher8releaseIEP11BaseMessage
 199              	.LVL17:
 200              		.cfi_endproc
 201              	.LFE23:
 202              		.size	_ZN14BaseSubscriber8releaseIEP11BaseMessage, .-_ZN14BaseSubscriber8releaseIEP11BaseMessage
 203 0006 00BFAFF3 		.section	.text._ZN14BaseSubscriber4sizeEv,"ax",%progbits
 203      0080AFF3 
 203      0080
 204              		.align	2
 205              		.p2align 4,,15
 206              		.global	_ZN14BaseSubscriber4sizeEv
 207              		.thumb
 208              		.thumb_func
 209              		.type	_ZN14BaseSubscriber4sizeEv, %function
 210              	_ZN14BaseSubscriber4sizeEv:
 211              	.LFB24:
 212              		.loc 1 37 0
 213              		.cfi_startproc
 214              		@ args = 0, pretend = 0, frame = 0
 215              		@ frame_needed = 0, uses_anonymous_args = 0
 216              	.LVL18:
 217 0000 08B5     		push	{r3, lr}
ARM GAS  /tmp/ccrvXwR4.s 			page 5


 218              	.LCFI1:
 219              		.cfi_def_cfa_offset 8
 220              		.cfi_offset 14, -4
 221              		.cfi_offset 3, -8
 222              		.loc 1 38 0
 223 0002 0C30     		adds	r0, r0, #12
 224              	.LVL19:
 225 0004 FFF7FEFF 		bl	_ZN12MessageQueue4sizeEv
 226              	.LVL20:
 227 0008 80B2     		uxth	r0, r0
 228              		.loc 1 39 0
 229 000a 08BD     		pop	{r3, pc}
 230              		.cfi_endproc
 231              	.LFE24:
 232              		.size	_ZN14BaseSubscriber4sizeEv, .-_ZN14BaseSubscriber4sizeEv
 233              		.global	_ZN14BaseSubscriberC1EPKcjPhPP11BaseMessagem
 234              		.thumb_set _ZN14BaseSubscriberC1EPKcjPhPP11BaseMessagem,_ZN14BaseSubscriberC2EPKcjPhPP11BaseMessag
 235 000c AFF30080 		.text
 236              	.Letext0:
 237              		.file 2 "/home/tino/ChibiStudio/tools/GNU Tools ARM Embedded/4.6 2012q2/bin/../lib/gcc/arm-none-ea
 238              		.file 3 "/home/tino/ChibiStudio/tools/GNU Tools ARM Embedded/4.6 2012q2/bin/../lib/gcc/arm-none-ea
 239              		.file 4 "../../ChibiOS/os/ports/GCC/ARMCMx/chtypes.h"
 240              		.file 5 "../../ChibiOS/os/kernel/include/chmemcore.h"
 241              		.file 6 "../../ChibiOS/os/kernel/include/chmempools.h"
 242              		.file 7 "../../Middleware/BaseMessage.hpp"
 243              		.file 8 "../../Middleware/MessageQueue.hpp"
 244              		.file 9 "../../Middleware/BasePublisher.hpp"
 245              		.file 10 "../../Middleware/BaseSubscriber.hpp"
 246              		.file 11 "../../ChibiOS/os/various/cpp_wrappers/ch.hpp"
 247              		.section	.debug_info,"",%progbits
 248              	.Ldebug_info0:
 249 0000 DB070000 		.4byte	0x7db
 250 0004 0200     		.2byte	0x2
 251 0006 00000000 		.4byte	.Ldebug_abbrev0
 252 000a 04       		.byte	0x4
 253 000b 01       		.uleb128 0x1
 254 000c A1050000 		.4byte	.LASF85
 255 0010 04       		.byte	0x4
 256 0011 0E000000 		.4byte	.LASF86
 257 0015 25010000 		.4byte	.LASF87
 258 0019 00000000 		.4byte	0
 259 001d 00000000 		.4byte	0
 260 0021 00000000 		.4byte	.Ldebug_ranges0+0
 261 0025 00000000 		.4byte	.Ldebug_line0
 262 0029 02       		.uleb128 0x2
 263 002a 04       		.byte	0x4
 264 002b 05       		.byte	0x5
 265 002c 696E7400 		.ascii	"int\000"
 266 0030 03       		.uleb128 0x3
 267 0031 66000000 		.4byte	.LASF2
 268 0035 02       		.byte	0x2
 269 0036 D4       		.byte	0xd4
 270 0037 3B000000 		.4byte	0x3b
 271 003b 04       		.uleb128 0x4
 272 003c 04       		.byte	0x4
 273 003d 07       		.byte	0x7
 274 003e 5A030000 		.4byte	.LASF0
ARM GAS  /tmp/ccrvXwR4.s 			page 6


 275 0042 04       		.uleb128 0x4
 276 0043 01       		.byte	0x1
 277 0044 06       		.byte	0x6
 278 0045 22030000 		.4byte	.LASF1
 279 0049 03       		.uleb128 0x3
 280 004a D9010000 		.4byte	.LASF3
 281 004e 03       		.byte	0x3
 282 004f 2A       		.byte	0x2a
 283 0050 54000000 		.4byte	0x54
 284 0054 04       		.uleb128 0x4
 285 0055 01       		.byte	0x1
 286 0056 08       		.byte	0x8
 287 0057 0E030000 		.4byte	.LASF4
 288 005b 04       		.uleb128 0x4
 289 005c 02       		.byte	0x2
 290 005d 05       		.byte	0x5
 291 005e 7E010000 		.4byte	.LASF5
 292 0062 03       		.uleb128 0x3
 293 0063 67030000 		.4byte	.LASF6
 294 0067 03       		.byte	0x3
 295 0068 36       		.byte	0x36
 296 0069 6D000000 		.4byte	0x6d
 297 006d 04       		.uleb128 0x4
 298 006e 02       		.byte	0x2
 299 006f 07       		.byte	0x7
 300 0070 A7030000 		.4byte	.LASF7
 301 0074 04       		.uleb128 0x4
 302 0075 04       		.byte	0x4
 303 0076 05       		.byte	0x5
 304 0077 EE030000 		.4byte	.LASF8
 305 007b 03       		.uleb128 0x3
 306 007c 51030000 		.4byte	.LASF9
 307 0080 03       		.byte	0x3
 308 0081 50       		.byte	0x50
 309 0082 86000000 		.4byte	0x86
 310 0086 04       		.uleb128 0x4
 311 0087 04       		.byte	0x4
 312 0088 07       		.byte	0x7
 313 0089 9C040000 		.4byte	.LASF10
 314 008d 04       		.uleb128 0x4
 315 008e 08       		.byte	0x8
 316 008f 05       		.byte	0x5
 317 0090 7E020000 		.4byte	.LASF11
 318 0094 04       		.uleb128 0x4
 319 0095 08       		.byte	0x8
 320 0096 07       		.byte	0x7
 321 0097 2E030000 		.4byte	.LASF12
 322 009b 03       		.uleb128 0x3
 323 009c 20040000 		.4byte	.LASF13
 324 00a0 04       		.byte	0x4
 325 00a1 24       		.byte	0x24
 326 00a2 A6000000 		.4byte	0xa6
 327 00a6 04       		.uleb128 0x4
 328 00a7 01       		.byte	0x1
 329 00a8 02       		.byte	0x2
 330 00a9 1E020000 		.4byte	.LASF14
 331 00ad 05       		.uleb128 0x5
ARM GAS  /tmp/ccrvXwR4.s 			page 7


 332 00ae 04       		.byte	0x4
 333 00af 03       		.uleb128 0x3
 334 00b0 1E050000 		.4byte	.LASF15
 335 00b4 05       		.byte	0x5
 336 00b5 25       		.byte	0x25
 337 00b6 BA000000 		.4byte	0xba
 338 00ba 06       		.uleb128 0x6
 339 00bb 04       		.byte	0x4
 340 00bc C0000000 		.4byte	0xc0
 341 00c0 07       		.uleb128 0x7
 342 00c1 AD000000 		.4byte	0xad
 343 00c5 CF000000 		.4byte	0xcf
 344 00c9 08       		.uleb128 0x8
 345 00ca 30000000 		.4byte	0x30
 346 00ce 00       		.byte	0
 347 00cf 09       		.uleb128 0x9
 348 00d0 90040000 		.4byte	.LASF88
 349 00d4 04       		.byte	0x4
 350 00d5 06       		.byte	0x6
 351 00d6 25       		.byte	0x25
 352 00d7 EA000000 		.4byte	0xea
 353 00db 0A       		.uleb128 0xa
 354 00dc 53040000 		.4byte	.LASF16
 355 00e0 06       		.byte	0x6
 356 00e1 26       		.byte	0x26
 357 00e2 EA000000 		.4byte	0xea
 358 00e6 02       		.byte	0x2
 359 00e7 23       		.byte	0x23
 360 00e8 00       		.uleb128 0
 361 00e9 00       		.byte	0
 362 00ea 06       		.uleb128 0x6
 363 00eb 04       		.byte	0x4
 364 00ec CF000000 		.4byte	0xcf
 365 00f0 0B       		.uleb128 0xb
 366 00f1 0C       		.byte	0xc
 367 00f2 06       		.byte	0x6
 368 00f3 2D       		.byte	0x2d
 369 00f4 41040000 		.4byte	.LASF89
 370 00f8 27010000 		.4byte	0x127
 371 00fc 0A       		.uleb128 0xa
 372 00fd 00000000 		.4byte	.LASF17
 373 0101 06       		.byte	0x6
 374 0102 2E       		.byte	0x2e
 375 0103 27010000 		.4byte	0x127
 376 0107 02       		.byte	0x2
 377 0108 23       		.byte	0x23
 378 0109 00       		.uleb128 0
 379 010a 0A       		.uleb128 0xa
 380 010b 8C020000 		.4byte	.LASF18
 381 010f 06       		.byte	0x6
 382 0110 2F       		.byte	0x2f
 383 0111 30000000 		.4byte	0x30
 384 0115 02       		.byte	0x2
 385 0116 23       		.byte	0x23
 386 0117 04       		.uleb128 0x4
 387 0118 0A       		.uleb128 0xa
 388 0119 45030000 		.4byte	.LASF19
ARM GAS  /tmp/ccrvXwR4.s 			page 8


 389 011d 06       		.byte	0x6
 390 011e 31       		.byte	0x31
 391 011f AF000000 		.4byte	0xaf
 392 0123 02       		.byte	0x2
 393 0124 23       		.byte	0x23
 394 0125 08       		.uleb128 0x8
 395 0126 00       		.byte	0
 396 0127 06       		.uleb128 0x6
 397 0128 04       		.byte	0x4
 398 0129 CF000000 		.4byte	0xcf
 399 012d 03       		.uleb128 0x3
 400 012e 40000000 		.4byte	.LASF20
 401 0132 06       		.byte	0x6
 402 0133 33       		.byte	0x33
 403 0134 F0000000 		.4byte	0xf0
 404 0138 06       		.uleb128 0x6
 405 0139 04       		.byte	0x4
 406 013a 3E010000 		.4byte	0x13e
 407 013e 0C       		.uleb128 0xc
 408 013f 43010000 		.4byte	0x143
 409 0143 04       		.uleb128 0x4
 410 0144 01       		.byte	0x1
 411 0145 08       		.byte	0x8
 412 0146 E9030000 		.4byte	.LASF21
 413 014a 06       		.uleb128 0x6
 414 014b 04       		.byte	0x4
 415 014c 49000000 		.4byte	0x49
 416 0150 0D       		.uleb128 0xd
 417 0151 AC020000 		.4byte	.LASF90
 418 0155 0B       		.byte	0xb
 419 0156 21       		.byte	0x21
 420 0157 0E       		.uleb128 0xe
 421 0158 F2020000 		.4byte	.LASF22
 422 015c 02       		.byte	0x2
 423 015d 07       		.byte	0x7
 424 015e 06       		.byte	0x6
 425 015f E3010000 		.4byte	0x1e3
 426 0163 0F       		.uleb128 0xf
 427 0164 F7030000 		.4byte	.LASF25
 428 0168 07       		.byte	0x7
 429 0169 08       		.byte	0x8
 430 016a 62000000 		.4byte	0x62
 431 016e 02       		.byte	0x2
 432 016f 23       		.byte	0x23
 433 0170 00       		.uleb128 0
 434 0171 02       		.byte	0x2
 435 0172 10       		.uleb128 0x10
 436 0173 01       		.byte	0x1
 437 0174 F2020000 		.4byte	.LASF22
 438 0178 07       		.byte	0x7
 439 0179 0A       		.byte	0xa
 440 017a E3010000 		.4byte	0x1e3
 441 017e 01       		.byte	0x1
 442 017f 87010000 		.4byte	0x187
 443 0183 8E010000 		.4byte	0x18e
 444 0187 11       		.uleb128 0x11
 445 0188 E3010000 		.4byte	0x1e3
ARM GAS  /tmp/ccrvXwR4.s 			page 9


 446 018c 01       		.byte	0x1
 447 018d 00       		.byte	0
 448 018e 12       		.uleb128 0x12
 449 018f 01       		.byte	0x1
 450 0190 4C050000 		.4byte	.LASF23
 451 0194 07       		.byte	0x7
 452 0195 0B       		.byte	0xb
 453 0196 56050000 		.4byte	.LASF42
 454 019a 01       		.byte	0x1
 455 019b A3010000 		.4byte	0x1a3
 456 019f AA010000 		.4byte	0x1aa
 457 01a3 11       		.uleb128 0x11
 458 01a4 E3010000 		.4byte	0x1e3
 459 01a8 01       		.byte	0x1
 460 01a9 00       		.byte	0
 461 01aa 13       		.uleb128 0x13
 462 01ab 01       		.byte	0x1
 463 01ac AE040000 		.4byte	.LASF31
 464 01b0 07       		.byte	0x7
 465 01b1 0C       		.byte	0xc
 466 01b2 B3010000 		.4byte	.LASF33
 467 01b6 9B000000 		.4byte	0x9b
 468 01ba 01       		.byte	0x1
 469 01bb C3010000 		.4byte	0x1c3
 470 01bf CA010000 		.4byte	0x1ca
 471 01c3 11       		.uleb128 0x11
 472 01c4 E3010000 		.4byte	0x1e3
 473 01c8 01       		.byte	0x1
 474 01c9 00       		.byte	0
 475 01ca 14       		.uleb128 0x14
 476 01cb 01       		.byte	0x1
 477 01cc 2B050000 		.4byte	.LASF61
 478 01d0 07       		.byte	0x7
 479 01d1 0D       		.byte	0xd
 480 01d2 73050000 		.4byte	.LASF62
 481 01d6 01       		.byte	0x1
 482 01d7 DB010000 		.4byte	0x1db
 483 01db 11       		.uleb128 0x11
 484 01dc E3010000 		.4byte	0x1e3
 485 01e0 01       		.byte	0x1
 486 01e1 00       		.byte	0
 487 01e2 00       		.byte	0
 488 01e3 06       		.uleb128 0x6
 489 01e4 04       		.byte	0x4
 490 01e5 57010000 		.4byte	0x157
 491 01e9 0E       		.uleb128 0xe
 492 01ea 56010000 		.4byte	.LASF24
 493 01ee 14       		.byte	0x14
 494 01ef 08       		.byte	0x8
 495 01f0 07       		.byte	0x7
 496 01f1 2D030000 		.4byte	0x32d
 497 01f5 0F       		.uleb128 0xf
 498 01f6 FE020000 		.4byte	.LASF26
 499 01fa 08       		.byte	0x8
 500 01fb 09       		.byte	0x9
 501 01fc 2D030000 		.4byte	0x32d
 502 0200 02       		.byte	0x2
ARM GAS  /tmp/ccrvXwR4.s 			page 10


 503 0201 23       		.byte	0x23
 504 0202 00       		.uleb128 0
 505 0203 02       		.byte	0x2
 506 0204 0F       		.uleb128 0xf
 507 0205 EC050000 		.4byte	.LASF27
 508 0209 08       		.byte	0x8
 509 020a 0A       		.byte	0xa
 510 020b 2D030000 		.4byte	0x32d
 511 020f 02       		.byte	0x2
 512 0210 23       		.byte	0x23
 513 0211 04       		.uleb128 0x4
 514 0212 02       		.byte	0x2
 515 0213 0F       		.uleb128 0xf
 516 0214 EB000000 		.4byte	.LASF28
 517 0218 08       		.byte	0x8
 518 0219 0B       		.byte	0xb
 519 021a 2D030000 		.4byte	0x32d
 520 021e 02       		.byte	0x2
 521 021f 23       		.byte	0x23
 522 0220 08       		.uleb128 0x8
 523 0221 02       		.byte	0x2
 524 0222 0F       		.uleb128 0xf
 525 0223 1C030000 		.4byte	.LASF29
 526 0227 08       		.byte	0x8
 527 0228 0C       		.byte	0xc
 528 0229 2D030000 		.4byte	0x32d
 529 022d 02       		.byte	0x2
 530 022e 23       		.byte	0x23
 531 022f 0C       		.uleb128 0xc
 532 0230 02       		.byte	0x2
 533 0231 0F       		.uleb128 0xf
 534 0232 02040000 		.4byte	.LASF30
 535 0236 08       		.byte	0x8
 536 0237 0D       		.byte	0xd
 537 0238 7B000000 		.4byte	0x7b
 538 023c 02       		.byte	0x2
 539 023d 23       		.byte	0x23
 540 023e 10       		.uleb128 0x10
 541 023f 02       		.byte	0x2
 542 0240 10       		.uleb128 0x10
 543 0241 01       		.byte	0x1
 544 0242 56010000 		.4byte	.LASF24
 545 0246 08       		.byte	0x8
 546 0247 0F       		.byte	0xf
 547 0248 33030000 		.4byte	0x333
 548 024c 01       		.byte	0x1
 549 024d 55020000 		.4byte	0x255
 550 0251 66020000 		.4byte	0x266
 551 0255 11       		.uleb128 0x11
 552 0256 33030000 		.4byte	0x333
 553 025a 01       		.byte	0x1
 554 025b 08       		.uleb128 0x8
 555 025c 2D030000 		.4byte	0x32d
 556 0260 08       		.uleb128 0x8
 557 0261 7B000000 		.4byte	0x7b
 558 0265 00       		.byte	0
 559 0266 13       		.uleb128 0x13
ARM GAS  /tmp/ccrvXwR4.s 			page 11


 560 0267 01       		.byte	0x1
 561 0268 19050000 		.4byte	.LASF32
 562 026c 08       		.byte	0x8
 563 026d 10       		.byte	0x10
 564 026e 58020000 		.4byte	.LASF34
 565 0272 7B000000 		.4byte	0x7b
 566 0276 01       		.byte	0x1
 567 0277 7F020000 		.4byte	0x27f
 568 027b 86020000 		.4byte	0x286
 569 027f 11       		.uleb128 0x11
 570 0280 33030000 		.4byte	0x333
 571 0284 01       		.byte	0x1
 572 0285 00       		.byte	0
 573 0286 13       		.uleb128 0x13
 574 0287 01       		.byte	0x1
 575 0288 D3010000 		.4byte	.LASF35
 576 028c 08       		.byte	0x8
 577 028d 11       		.byte	0x11
 578 028e 23020000 		.4byte	.LASF36
 579 0292 7B000000 		.4byte	0x7b
 580 0296 01       		.byte	0x1
 581 0297 9F020000 		.4byte	0x29f
 582 029b A6020000 		.4byte	0x2a6
 583 029f 11       		.uleb128 0x11
 584 02a0 33030000 		.4byte	0x333
 585 02a4 01       		.byte	0x1
 586 02a5 00       		.byte	0
 587 02a6 15       		.uleb128 0x15
 588 02a7 01       		.byte	0x1
 589 02a8 67657400 		.ascii	"get\000"
 590 02ac 08       		.byte	0x8
 591 02ad 12       		.byte	0x12
 592 02ae 84030000 		.4byte	.LASF39
 593 02b2 E3010000 		.4byte	0x1e3
 594 02b6 01       		.byte	0x1
 595 02b7 BF020000 		.4byte	0x2bf
 596 02bb C6020000 		.4byte	0x2c6
 597 02bf 11       		.uleb128 0x11
 598 02c0 33030000 		.4byte	0x333
 599 02c4 01       		.byte	0x1
 600 02c5 00       		.byte	0
 601 02c6 13       		.uleb128 0x13
 602 02c7 01       		.byte	0x1
 603 02c8 9C050000 		.4byte	.LASF37
 604 02cc 08       		.byte	0x8
 605 02cd 13       		.byte	0x13
 606 02ce 07040000 		.4byte	.LASF38
 607 02d2 E3010000 		.4byte	0x1e3
 608 02d6 01       		.byte	0x1
 609 02d7 DF020000 		.4byte	0x2df
 610 02db E6020000 		.4byte	0x2e6
 611 02df 11       		.uleb128 0x11
 612 02e0 33030000 		.4byte	0x333
 613 02e4 01       		.byte	0x1
 614 02e5 00       		.byte	0
 615 02e6 15       		.uleb128 0x15
 616 02e7 01       		.byte	0x1
ARM GAS  /tmp/ccrvXwR4.s 			page 12


 617 02e8 70757400 		.ascii	"put\000"
 618 02ec 08       		.byte	0x8
 619 02ed 14       		.byte	0x14
 620 02ee C4030000 		.4byte	.LASF40
 621 02f2 9B000000 		.4byte	0x9b
 622 02f6 01       		.byte	0x1
 623 02f7 FF020000 		.4byte	0x2ff
 624 02fb 0B030000 		.4byte	0x30b
 625 02ff 11       		.uleb128 0x11
 626 0300 33030000 		.4byte	0x333
 627 0304 01       		.byte	0x1
 628 0305 08       		.uleb128 0x8
 629 0306 E3010000 		.4byte	0x1e3
 630 030a 00       		.byte	0
 631 030b 16       		.uleb128 0x16
 632 030c 01       		.byte	0x1
 633 030d B7020000 		.4byte	.LASF41
 634 0311 08       		.byte	0x8
 635 0312 15       		.byte	0x15
 636 0313 BD000000 		.4byte	.LASF43
 637 0317 9B000000 		.4byte	0x9b
 638 031b 01       		.byte	0x1
 639 031c 20030000 		.4byte	0x320
 640 0320 11       		.uleb128 0x11
 641 0321 33030000 		.4byte	0x333
 642 0325 01       		.byte	0x1
 643 0326 08       		.uleb128 0x8
 644 0327 E3010000 		.4byte	0x1e3
 645 032b 00       		.byte	0
 646 032c 00       		.byte	0
 647 032d 06       		.uleb128 0x6
 648 032e 04       		.byte	0x4
 649 032f E3010000 		.4byte	0x1e3
 650 0333 06       		.uleb128 0x6
 651 0334 04       		.byte	0x4
 652 0335 E9010000 		.4byte	0x1e9
 653 0339 0E       		.uleb128 0xe
 654 033a 32000000 		.4byte	.LASF44
 655 033e 18       		.byte	0x18
 656 033f 09       		.byte	0x9
 657 0340 0A       		.byte	0xa
 658 0341 88040000 		.4byte	0x488
 659 0345 0F       		.uleb128 0xf
 660 0346 7D030000 		.4byte	.LASF45
 661 034a 09       		.byte	0x9
 662 034b 0C       		.byte	0xc
 663 034c 38010000 		.4byte	0x138
 664 0350 02       		.byte	0x2
 665 0351 23       		.byte	0x23
 666 0352 00       		.uleb128 0
 667 0353 02       		.byte	0x2
 668 0354 0F       		.uleb128 0xf
 669 0355 71020000 		.4byte	.LASF46
 670 0359 09       		.byte	0x9
 671 035a 0D       		.byte	0xd
 672 035b 8E040000 		.4byte	0x48e
 673 035f 02       		.byte	0x2
ARM GAS  /tmp/ccrvXwR4.s 			page 13


 674 0360 23       		.byte	0x23
 675 0361 04       		.uleb128 0x4
 676 0362 02       		.byte	0x2
 677 0363 0F       		.uleb128 0xf
 678 0364 71040000 		.4byte	.LASF47
 679 0368 09       		.byte	0x9
 680 0369 0E       		.byte	0xe
 681 036a 9A040000 		.4byte	0x49a
 682 036e 02       		.byte	0x2
 683 036f 23       		.byte	0x23
 684 0370 08       		.uleb128 0x8
 685 0371 02       		.byte	0x2
 686 0372 0F       		.uleb128 0xf
 687 0373 A1030000 		.4byte	.LASF48
 688 0377 09       		.byte	0x9
 689 0378 0F       		.byte	0xf
 690 0379 2D010000 		.4byte	0x12d
 691 037d 02       		.byte	0x2
 692 037e 23       		.byte	0x23
 693 037f 0C       		.uleb128 0xc
 694 0380 02       		.byte	0x2
 695 0381 10       		.uleb128 0x10
 696 0382 01       		.byte	0x1
 697 0383 32000000 		.4byte	.LASF44
 698 0387 09       		.byte	0x9
 699 0388 11       		.byte	0x11
 700 0389 A0040000 		.4byte	0x4a0
 701 038d 01       		.byte	0x1
 702 038e 96030000 		.4byte	0x396
 703 0392 A7030000 		.4byte	0x3a7
 704 0396 11       		.uleb128 0x11
 705 0397 A0040000 		.4byte	0x4a0
 706 039b 01       		.byte	0x1
 707 039c 08       		.uleb128 0x8
 708 039d 38010000 		.4byte	0x138
 709 03a1 08       		.uleb128 0x8
 710 03a2 30000000 		.4byte	0x30
 711 03a6 00       		.byte	0
 712 03a7 13       		.uleb128 0x13
 713 03a8 01       		.byte	0x1
 714 03a9 08000000 		.4byte	.LASF49
 715 03ad 09       		.byte	0x9
 716 03ae 12       		.byte	0x12
 717 03af 31050000 		.4byte	.LASF50
 718 03b3 38010000 		.4byte	0x138
 719 03b7 01       		.byte	0x1
 720 03b8 C0030000 		.4byte	0x3c0
 721 03bc C7030000 		.4byte	0x3c7
 722 03c0 11       		.uleb128 0x11
 723 03c1 A0040000 		.4byte	0x4a0
 724 03c5 01       		.byte	0x1
 725 03c6 00       		.byte	0
 726 03c7 13       		.uleb128 0x13
 727 03c8 01       		.byte	0x1
 728 03c9 77030000 		.4byte	.LASF51
 729 03cd 09       		.byte	0x9
 730 03ce 13       		.byte	0x13
ARM GAS  /tmp/ccrvXwR4.s 			page 14


 731 03cf 63010000 		.4byte	.LASF52
 732 03d3 E3010000 		.4byte	0x1e3
 733 03d7 01       		.byte	0x1
 734 03d8 E0030000 		.4byte	0x3e0
 735 03dc E7030000 		.4byte	0x3e7
 736 03e0 11       		.uleb128 0x11
 737 03e1 A0040000 		.4byte	0x4a0
 738 03e5 01       		.byte	0x1
 739 03e6 00       		.byte	0
 740 03e7 13       		.uleb128 0x13
 741 03e8 01       		.byte	0x1
 742 03e9 8C050000 		.4byte	.LASF53
 743 03ed 09       		.byte	0x9
 744 03ee 14       		.byte	0x14
 745 03ef F2040000 		.4byte	.LASF54
 746 03f3 E3010000 		.4byte	0x1e3
 747 03f7 01       		.byte	0x1
 748 03f8 00040000 		.4byte	0x400
 749 03fc 07040000 		.4byte	0x407
 750 0400 11       		.uleb128 0x11
 751 0401 A0040000 		.4byte	0x4a0
 752 0405 01       		.byte	0x1
 753 0406 00       		.byte	0
 754 0407 12       		.uleb128 0x12
 755 0408 01       		.byte	0x1
 756 0409 06030000 		.4byte	.LASF55
 757 040d 09       		.byte	0x9
 758 040e 15       		.byte	0x15
 759 040f BC020000 		.4byte	.LASF56
 760 0413 01       		.byte	0x1
 761 0414 1C040000 		.4byte	0x41c
 762 0418 28040000 		.4byte	0x428
 763 041c 11       		.uleb128 0x11
 764 041d A0040000 		.4byte	0x4a0
 765 0421 01       		.byte	0x1
 766 0422 08       		.uleb128 0x8
 767 0423 E3010000 		.4byte	0x1e3
 768 0427 00       		.byte	0
 769 0428 12       		.uleb128 0x12
 770 0429 01       		.byte	0x1
 771 042a 93050000 		.4byte	.LASF57
 772 042e 09       		.byte	0x9
 773 042f 16       		.byte	0x16
 774 0430 88010000 		.4byte	.LASF58
 775 0434 01       		.byte	0x1
 776 0435 3D040000 		.4byte	0x43d
 777 0439 49040000 		.4byte	0x449
 778 043d 11       		.uleb128 0x11
 779 043e A0040000 		.4byte	0x4a0
 780 0442 01       		.byte	0x1
 781 0443 08       		.uleb128 0x8
 782 0444 E3010000 		.4byte	0x1e3
 783 0448 00       		.byte	0
 784 0449 12       		.uleb128 0x12
 785 044a 01       		.byte	0x1
 786 044b E6020000 		.4byte	.LASF59
 787 044f 09       		.byte	0x9
ARM GAS  /tmp/ccrvXwR4.s 			page 15


 788 0450 17       		.byte	0x17
 789 0451 EA010000 		.4byte	.LASF60
 790 0455 01       		.byte	0x1
 791 0456 5E040000 		.4byte	0x45e
 792 045a 6A040000 		.4byte	0x46a
 793 045e 11       		.uleb128 0x11
 794 045f A0040000 		.4byte	0x4a0
 795 0463 01       		.byte	0x1
 796 0464 08       		.uleb128 0x8
 797 0465 9A040000 		.4byte	0x49a
 798 0469 00       		.byte	0
 799 046a 14       		.uleb128 0x14
 800 046b 01       		.byte	0x1
 801 046c E6020000 		.4byte	.LASF59
 802 0470 09       		.byte	0x9
 803 0471 18       		.byte	0x18
 804 0472 F2000000 		.4byte	.LASF63
 805 0476 01       		.byte	0x1
 806 0477 7B040000 		.4byte	0x47b
 807 047b 11       		.uleb128 0x11
 808 047c A0040000 		.4byte	0x4a0
 809 0480 01       		.byte	0x1
 810 0481 08       		.uleb128 0x8
 811 0482 8E040000 		.4byte	0x48e
 812 0486 00       		.byte	0
 813 0487 00       		.byte	0
 814 0488 17       		.uleb128 0x17
 815 0489 0D060000 		.4byte	.LASF64
 816 048d 01       		.byte	0x1
 817 048e 06       		.uleb128 0x6
 818 048f 04       		.byte	0x4
 819 0490 88040000 		.4byte	0x488
 820 0494 17       		.uleb128 0x17
 821 0495 9B020000 		.4byte	.LASF65
 822 0499 01       		.byte	0x1
 823 049a 06       		.uleb128 0x6
 824 049b 04       		.byte	0x4
 825 049c 94040000 		.4byte	0x494
 826 04a0 06       		.uleb128 0x6
 827 04a1 04       		.byte	0x4
 828 04a2 39030000 		.4byte	0x339
 829 04a6 0E       		.uleb128 0xe
 830 04a7 62040000 		.4byte	.LASF66
 831 04ab 28       		.byte	0x28
 832 04ac 0A       		.byte	0xa
 833 04ad 0B       		.byte	0xb
 834 04ae 20060000 		.4byte	0x620
 835 04b2 0F       		.uleb128 0xf
 836 04b3 7D030000 		.4byte	.LASF45
 837 04b7 0A       		.byte	0xa
 838 04b8 0D       		.byte	0xd
 839 04b9 38010000 		.4byte	0x138
 840 04bd 02       		.byte	0x2
 841 04be 23       		.byte	0x23
 842 04bf 00       		.uleb128 0
 843 04c0 02       		.byte	0x2
 844 04c1 0F       		.uleb128 0xf
ARM GAS  /tmp/ccrvXwR4.s 			page 16


 845 04c2 BA030000 		.4byte	.LASF67
 846 04c6 0A       		.byte	0xa
 847 04c7 0E       		.byte	0xe
 848 04c8 7B000000 		.4byte	0x7b
 849 04cc 02       		.byte	0x2
 850 04cd 23       		.byte	0x23
 851 04ce 04       		.uleb128 0x4
 852 04cf 02       		.byte	0x2
 853 04d0 0F       		.uleb128 0xf
 854 04d1 E3000000 		.4byte	.LASF68
 855 04d5 0A       		.byte	0xa
 856 04d6 0F       		.byte	0xf
 857 04d7 A0040000 		.4byte	0x4a0
 858 04db 02       		.byte	0x2
 859 04dc 23       		.byte	0x23
 860 04dd 08       		.uleb128 0x8
 861 04de 02       		.byte	0x2
 862 04df 0F       		.uleb128 0xf
 863 04e0 70030000 		.4byte	.LASF69
 864 04e4 0A       		.byte	0xa
 865 04e5 10       		.byte	0x10
 866 04e6 E9010000 		.4byte	0x1e9
 867 04ea 02       		.byte	0x2
 868 04eb 23       		.byte	0x23
 869 04ec 0C       		.uleb128 0xc
 870 04ed 02       		.byte	0x2
 871 04ee 0F       		.uleb128 0xf
 872 04ef FE020000 		.4byte	.LASF26
 873 04f3 0A       		.byte	0xa
 874 04f4 12       		.byte	0x12
 875 04f5 4A010000 		.4byte	0x14a
 876 04f9 02       		.byte	0x2
 877 04fa 23       		.byte	0x23
 878 04fb 20       		.uleb128 0x20
 879 04fc 02       		.byte	0x2
 880 04fd 0F       		.uleb128 0xf
 881 04fe 0E050000 		.4byte	.LASF70
 882 0502 0A       		.byte	0xa
 883 0503 13       		.byte	0x13
 884 0504 7B000000 		.4byte	0x7b
 885 0508 02       		.byte	0x2
 886 0509 23       		.byte	0x23
 887 050a 24       		.uleb128 0x24
 888 050b 02       		.byte	0x2
 889 050c 10       		.uleb128 0x10
 890 050d 01       		.byte	0x1
 891 050e 62040000 		.4byte	.LASF66
 892 0512 0A       		.byte	0xa
 893 0513 15       		.byte	0x15
 894 0514 20060000 		.4byte	0x620
 895 0518 01       		.byte	0x1
 896 0519 21050000 		.4byte	0x521
 897 051d 41050000 		.4byte	0x541
 898 0521 11       		.uleb128 0x11
 899 0522 20060000 		.4byte	0x620
 900 0526 01       		.byte	0x1
 901 0527 08       		.uleb128 0x8
ARM GAS  /tmp/ccrvXwR4.s 			page 17


 902 0528 38010000 		.4byte	0x138
 903 052c 08       		.uleb128 0x8
 904 052d 30000000 		.4byte	0x30
 905 0531 08       		.uleb128 0x8
 906 0532 4A010000 		.4byte	0x14a
 907 0536 08       		.uleb128 0x8
 908 0537 2D030000 		.4byte	0x32d
 909 053b 08       		.uleb128 0x8
 910 053c 7B000000 		.4byte	0x7b
 911 0540 00       		.byte	0
 912 0541 13       		.uleb128 0x13
 913 0542 01       		.byte	0x1
 914 0543 08000000 		.4byte	.LASF49
 915 0547 0A       		.byte	0xa
 916 0548 17       		.byte	0x17
 917 0549 F1050000 		.4byte	.LASF71
 918 054d 38010000 		.4byte	0x138
 919 0551 01       		.byte	0x1
 920 0552 5A050000 		.4byte	0x55a
 921 0556 61050000 		.4byte	0x561
 922 055a 11       		.uleb128 0x11
 923 055b 20060000 		.4byte	0x620
 924 055f 01       		.byte	0x1
 925 0560 00       		.byte	0
 926 0561 13       		.uleb128 0x13
 927 0562 01       		.byte	0x1
 928 0563 B6000000 		.4byte	.LASF72
 929 0567 0A       		.byte	0xa
 930 0568 18       		.byte	0x18
 931 0569 6D000000 		.4byte	.LASF73
 932 056d A0040000 		.4byte	0x4a0
 933 0571 01       		.byte	0x1
 934 0572 7A050000 		.4byte	0x57a
 935 0576 81050000 		.4byte	0x581
 936 057a 11       		.uleb128 0x11
 937 057b 20060000 		.4byte	0x620
 938 057f 01       		.byte	0x1
 939 0580 00       		.byte	0
 940 0581 13       		.uleb128 0x13
 941 0582 01       		.byte	0x1
 942 0583 9C030000 		.4byte	.LASF74
 943 0587 0A       		.byte	0xa
 944 0588 19       		.byte	0x19
 945 0589 3D020000 		.4byte	.LASF75
 946 058d 26060000 		.4byte	0x626
 947 0591 01       		.byte	0x1
 948 0592 9A050000 		.4byte	0x59a
 949 0596 A1050000 		.4byte	0x5a1
 950 059a 11       		.uleb128 0x11
 951 059b 20060000 		.4byte	0x620
 952 059f 01       		.byte	0x1
 953 05a0 00       		.byte	0
 954 05a1 15       		.uleb128 0x15
 955 05a2 01       		.byte	0x1
 956 05a3 67657400 		.ascii	"get\000"
 957 05a7 0A       		.byte	0xa
 958 05a8 1A       		.byte	0x1a
ARM GAS  /tmp/ccrvXwR4.s 			page 18


 959 05a9 27040000 		.4byte	.LASF76
 960 05ad E3010000 		.4byte	0x1e3
 961 05b1 01       		.byte	0x1
 962 05b2 BA050000 		.4byte	0x5ba
 963 05b6 C1050000 		.4byte	0x5c1
 964 05ba 11       		.uleb128 0x11
 965 05bb 20060000 		.4byte	0x620
 966 05bf 01       		.byte	0x1
 967 05c0 00       		.byte	0
 968 05c1 12       		.uleb128 0x12
 969 05c2 01       		.byte	0x1
 970 05c3 06030000 		.4byte	.LASF55
 971 05c7 0A       		.byte	0xa
 972 05c8 1B       		.byte	0x1b
 973 05c9 BA040000 		.4byte	.LASF77
 974 05cd 01       		.byte	0x1
 975 05ce D6050000 		.4byte	0x5d6
 976 05d2 E2050000 		.4byte	0x5e2
 977 05d6 11       		.uleb128 0x11
 978 05d7 20060000 		.4byte	0x620
 979 05db 01       		.byte	0x1
 980 05dc 08       		.uleb128 0x8
 981 05dd E3010000 		.4byte	0x1e3
 982 05e1 00       		.byte	0
 983 05e2 12       		.uleb128 0x12
 984 05e3 01       		.byte	0x1
 985 05e4 93050000 		.4byte	.LASF57
 986 05e8 0A       		.byte	0xa
 987 05e9 1C       		.byte	0x1c
 988 05ea 8A000000 		.4byte	.LASF78
 989 05ee 01       		.byte	0x1
 990 05ef F7050000 		.4byte	0x5f7
 991 05f3 03060000 		.4byte	0x603
 992 05f7 11       		.uleb128 0x11
 993 05f8 20060000 		.4byte	0x620
 994 05fc 01       		.byte	0x1
 995 05fd 08       		.uleb128 0x8
 996 05fe E3010000 		.4byte	0x1e3
 997 0602 00       		.byte	0
 998 0603 16       		.uleb128 0x16
 999 0604 01       		.byte	0x1
 1000 0605 19050000 		.4byte	.LASF32
 1001 0609 0A       		.byte	0xa
 1002 060a 1D       		.byte	0x1d
 1003 060b 4B000000 		.4byte	.LASF79
 1004 060f 62000000 		.4byte	0x62
 1005 0613 01       		.byte	0x1
 1006 0614 18060000 		.4byte	0x618
 1007 0618 11       		.uleb128 0x11
 1008 0619 20060000 		.4byte	0x620
 1009 061d 01       		.byte	0x1
 1010 061e 00       		.byte	0
 1011 061f 00       		.byte	0
 1012 0620 06       		.uleb128 0x6
 1013 0621 04       		.byte	0x4
 1014 0622 A6040000 		.4byte	0x4a6
 1015 0626 06       		.uleb128 0x6
ARM GAS  /tmp/ccrvXwR4.s 			page 19


 1016 0627 04       		.byte	0x4
 1017 0628 A6040000 		.4byte	0x4a6
 1018 062c 18       		.uleb128 0x18
 1019 062d 0C050000 		.4byte	0x50c
 1020 0631 01       		.byte	0x1
 1021 0632 07       		.byte	0x7
 1022 0633 00       		.byte	0
 1023 0634 3C060000 		.4byte	0x63c
 1024 0638 7E060000 		.4byte	0x67e
 1025 063c 19       		.uleb128 0x19
 1026 063d 4E040000 		.4byte	.LASF84
 1027 0641 7E060000 		.4byte	0x67e
 1028 0645 01       		.byte	0x1
 1029 0646 1A       		.uleb128 0x1a
 1030 0647 08000000 		.4byte	.LASF49
 1031 064b 01       		.byte	0x1
 1032 064c 07       		.byte	0x7
 1033 064d 38010000 		.4byte	0x138
 1034 0651 1A       		.uleb128 0x1a
 1035 0652 E1010000 		.4byte	.LASF80
 1036 0656 01       		.byte	0x1
 1037 0657 07       		.byte	0x7
 1038 0658 30000000 		.4byte	0x30
 1039 065c 1A       		.uleb128 0x1a
 1040 065d 5B040000 		.4byte	.LASF81
 1041 0661 01       		.byte	0x1
 1042 0662 07       		.byte	0x7
 1043 0663 4A010000 		.4byte	0x14a
 1044 0667 1A       		.uleb128 0x1a
 1045 0668 E5040000 		.4byte	.LASF82
 1046 066c 01       		.byte	0x1
 1047 066d 07       		.byte	0x7
 1048 066e 2D030000 		.4byte	0x32d
 1049 0672 1A       		.uleb128 0x1a
 1050 0673 85040000 		.4byte	.LASF83
 1051 0677 01       		.byte	0x1
 1052 0678 07       		.byte	0x7
 1053 0679 7B000000 		.4byte	0x7b
 1054 067d 00       		.byte	0
 1055 067e 0C       		.uleb128 0xc
 1056 067f 20060000 		.4byte	0x620
 1057 0683 1B       		.uleb128 0x1b
 1058 0684 2C060000 		.4byte	0x62c
 1059 0688 00000000 		.4byte	.LFB17
 1060 068c 28000000 		.4byte	.LFE17
 1061 0690 00000000 		.4byte	.LLST0
 1062 0694 9C060000 		.4byte	0x69c
 1063 0698 D1060000 		.4byte	0x6d1
 1064 069c 1C       		.uleb128 0x1c
 1065 069d 3C060000 		.4byte	0x63c
 1066 06a1 20000000 		.4byte	.LLST1
 1067 06a5 1C       		.uleb128 0x1c
 1068 06a6 46060000 		.4byte	0x646
 1069 06aa 3E000000 		.4byte	.LLST2
 1070 06ae 1C       		.uleb128 0x1c
 1071 06af 51060000 		.4byte	0x651
 1072 06b3 5C000000 		.4byte	.LLST3
ARM GAS  /tmp/ccrvXwR4.s 			page 20


 1073 06b7 1C       		.uleb128 0x1c
 1074 06b8 5C060000 		.4byte	0x65c
 1075 06bc 7A000000 		.4byte	.LLST4
 1076 06c0 1D       		.uleb128 0x1d
 1077 06c1 67060000 		.4byte	0x667
 1078 06c5 02       		.byte	0x2
 1079 06c6 91       		.byte	0x91
 1080 06c7 00       		.sleb128 0
 1081 06c8 1D       		.uleb128 0x1d
 1082 06c9 72060000 		.4byte	0x672
 1083 06cd 02       		.byte	0x2
 1084 06ce 91       		.byte	0x91
 1085 06cf 04       		.sleb128 4
 1086 06d0 00       		.byte	0
 1087 06d1 1E       		.uleb128 0x1e
 1088 06d2 41050000 		.4byte	0x541
 1089 06d6 01       		.byte	0x1
 1090 06d7 11       		.byte	0x11
 1091 06d8 00000000 		.4byte	.LFB19
 1092 06dc 04000000 		.4byte	.LFE19
 1093 06e0 02       		.byte	0x2
 1094 06e1 7D       		.byte	0x7d
 1095 06e2 00       		.sleb128 0
 1096 06e3 EB060000 		.4byte	0x6eb
 1097 06e7 FA060000 		.4byte	0x6fa
 1098 06eb 1F       		.uleb128 0x1f
 1099 06ec 4E040000 		.4byte	.LASF84
 1100 06f0 7E060000 		.4byte	0x67e
 1101 06f4 01       		.byte	0x1
 1102 06f5 98000000 		.4byte	.LLST5
 1103 06f9 00       		.byte	0
 1104 06fa 1E       		.uleb128 0x1e
 1105 06fb 61050000 		.4byte	0x561
 1106 06ff 01       		.byte	0x1
 1107 0700 15       		.byte	0x15
 1108 0701 00000000 		.4byte	.LFB20
 1109 0705 04000000 		.4byte	.LFE20
 1110 0709 02       		.byte	0x2
 1111 070a 7D       		.byte	0x7d
 1112 070b 00       		.sleb128 0
 1113 070c 14070000 		.4byte	0x714
 1114 0710 23070000 		.4byte	0x723
 1115 0714 1F       		.uleb128 0x1f
 1116 0715 4E040000 		.4byte	.LASF84
 1117 0719 7E060000 		.4byte	0x67e
 1118 071d 01       		.byte	0x1
 1119 071e AB000000 		.4byte	.LLST6
 1120 0722 00       		.byte	0
 1121 0723 1E       		.uleb128 0x1e
 1122 0724 A1050000 		.4byte	0x5a1
 1123 0728 01       		.byte	0x1
 1124 0729 19       		.byte	0x19
 1125 072a 00000000 		.4byte	.LFB21
 1126 072e 06000000 		.4byte	.LFE21
 1127 0732 02       		.byte	0x2
 1128 0733 7D       		.byte	0x7d
 1129 0734 00       		.sleb128 0
ARM GAS  /tmp/ccrvXwR4.s 			page 21


 1130 0735 3D070000 		.4byte	0x73d
 1131 0739 4C070000 		.4byte	0x74c
 1132 073d 1F       		.uleb128 0x1f
 1133 073e 4E040000 		.4byte	.LASF84
 1134 0742 7E060000 		.4byte	0x67e
 1135 0746 01       		.byte	0x1
 1136 0747 BE000000 		.4byte	.LLST7
 1137 074b 00       		.byte	0
 1138 074c 1E       		.uleb128 0x1e
 1139 074d C1050000 		.4byte	0x5c1
 1140 0751 01       		.byte	0x1
 1141 0752 1D       		.byte	0x1d
 1142 0753 00000000 		.4byte	.LFB22
 1143 0757 06000000 		.4byte	.LFE22
 1144 075b 02       		.byte	0x2
 1145 075c 7D       		.byte	0x7d
 1146 075d 00       		.sleb128 0
 1147 075e 66070000 		.4byte	0x766
 1148 0762 82070000 		.4byte	0x782
 1149 0766 1F       		.uleb128 0x1f
 1150 0767 4E040000 		.4byte	.LASF84
 1151 076b 7E060000 		.4byte	0x67e
 1152 076f 01       		.byte	0x1
 1153 0770 DE000000 		.4byte	.LLST8
 1154 0774 20       		.uleb128 0x20
 1155 0775 6400     		.ascii	"d\000"
 1156 0777 01       		.byte	0x1
 1157 0778 1D       		.byte	0x1d
 1158 0779 E3010000 		.4byte	0x1e3
 1159 077d F1000000 		.4byte	.LLST9
 1160 0781 00       		.byte	0
 1161 0782 1E       		.uleb128 0x1e
 1162 0783 E2050000 		.4byte	0x5e2
 1163 0787 01       		.byte	0x1
 1164 0788 21       		.byte	0x21
 1165 0789 00000000 		.4byte	.LFB23
 1166 078d 06000000 		.4byte	.LFE23
 1167 0791 02       		.byte	0x2
 1168 0792 7D       		.byte	0x7d
 1169 0793 00       		.sleb128 0
 1170 0794 9C070000 		.4byte	0x79c
 1171 0798 B8070000 		.4byte	0x7b8
 1172 079c 1F       		.uleb128 0x1f
 1173 079d 4E040000 		.4byte	.LASF84
 1174 07a1 7E060000 		.4byte	0x67e
 1175 07a5 01       		.byte	0x1
 1176 07a6 04010000 		.4byte	.LLST10
 1177 07aa 20       		.uleb128 0x20
 1178 07ab 6400     		.ascii	"d\000"
 1179 07ad 01       		.byte	0x1
 1180 07ae 21       		.byte	0x21
 1181 07af E3010000 		.4byte	0x1e3
 1182 07b3 17010000 		.4byte	.LLST11
 1183 07b7 00       		.byte	0
 1184 07b8 21       		.uleb128 0x21
 1185 07b9 03060000 		.4byte	0x603
 1186 07bd 01       		.byte	0x1
ARM GAS  /tmp/ccrvXwR4.s 			page 22


 1187 07be 25       		.byte	0x25
 1188 07bf 00000000 		.4byte	.LFB24
 1189 07c3 0C000000 		.4byte	.LFE24
 1190 07c7 2A010000 		.4byte	.LLST12
 1191 07cb CF070000 		.4byte	0x7cf
 1192 07cf 1F       		.uleb128 0x1f
 1193 07d0 4E040000 		.4byte	.LASF84
 1194 07d4 7E060000 		.4byte	0x67e
 1195 07d8 01       		.byte	0x1
 1196 07d9 4A010000 		.4byte	.LLST13
 1197 07dd 00       		.byte	0
 1198 07de 00       		.byte	0
 1199              		.section	.debug_abbrev,"",%progbits
 1200              	.Ldebug_abbrev0:
 1201 0000 01       		.uleb128 0x1
 1202 0001 11       		.uleb128 0x11
 1203 0002 01       		.byte	0x1
 1204 0003 25       		.uleb128 0x25
 1205 0004 0E       		.uleb128 0xe
 1206 0005 13       		.uleb128 0x13
 1207 0006 0B       		.uleb128 0xb
 1208 0007 03       		.uleb128 0x3
 1209 0008 0E       		.uleb128 0xe
 1210 0009 1B       		.uleb128 0x1b
 1211 000a 0E       		.uleb128 0xe
 1212 000b 11       		.uleb128 0x11
 1213 000c 01       		.uleb128 0x1
 1214 000d 52       		.uleb128 0x52
 1215 000e 01       		.uleb128 0x1
 1216 000f 55       		.uleb128 0x55
 1217 0010 06       		.uleb128 0x6
 1218 0011 10       		.uleb128 0x10
 1219 0012 06       		.uleb128 0x6
 1220 0013 00       		.byte	0
 1221 0014 00       		.byte	0
 1222 0015 02       		.uleb128 0x2
 1223 0016 24       		.uleb128 0x24
 1224 0017 00       		.byte	0
 1225 0018 0B       		.uleb128 0xb
 1226 0019 0B       		.uleb128 0xb
 1227 001a 3E       		.uleb128 0x3e
 1228 001b 0B       		.uleb128 0xb
 1229 001c 03       		.uleb128 0x3
 1230 001d 08       		.uleb128 0x8
 1231 001e 00       		.byte	0
 1232 001f 00       		.byte	0
 1233 0020 03       		.uleb128 0x3
 1234 0021 16       		.uleb128 0x16
 1235 0022 00       		.byte	0
 1236 0023 03       		.uleb128 0x3
 1237 0024 0E       		.uleb128 0xe
 1238 0025 3A       		.uleb128 0x3a
 1239 0026 0B       		.uleb128 0xb
 1240 0027 3B       		.uleb128 0x3b
 1241 0028 0B       		.uleb128 0xb
 1242 0029 49       		.uleb128 0x49
 1243 002a 13       		.uleb128 0x13
ARM GAS  /tmp/ccrvXwR4.s 			page 23


 1244 002b 00       		.byte	0
 1245 002c 00       		.byte	0
 1246 002d 04       		.uleb128 0x4
 1247 002e 24       		.uleb128 0x24
 1248 002f 00       		.byte	0
 1249 0030 0B       		.uleb128 0xb
 1250 0031 0B       		.uleb128 0xb
 1251 0032 3E       		.uleb128 0x3e
 1252 0033 0B       		.uleb128 0xb
 1253 0034 03       		.uleb128 0x3
 1254 0035 0E       		.uleb128 0xe
 1255 0036 00       		.byte	0
 1256 0037 00       		.byte	0
 1257 0038 05       		.uleb128 0x5
 1258 0039 0F       		.uleb128 0xf
 1259 003a 00       		.byte	0
 1260 003b 0B       		.uleb128 0xb
 1261 003c 0B       		.uleb128 0xb
 1262 003d 00       		.byte	0
 1263 003e 00       		.byte	0
 1264 003f 06       		.uleb128 0x6
 1265 0040 0F       		.uleb128 0xf
 1266 0041 00       		.byte	0
 1267 0042 0B       		.uleb128 0xb
 1268 0043 0B       		.uleb128 0xb
 1269 0044 49       		.uleb128 0x49
 1270 0045 13       		.uleb128 0x13
 1271 0046 00       		.byte	0
 1272 0047 00       		.byte	0
 1273 0048 07       		.uleb128 0x7
 1274 0049 15       		.uleb128 0x15
 1275 004a 01       		.byte	0x1
 1276 004b 49       		.uleb128 0x49
 1277 004c 13       		.uleb128 0x13
 1278 004d 01       		.uleb128 0x1
 1279 004e 13       		.uleb128 0x13
 1280 004f 00       		.byte	0
 1281 0050 00       		.byte	0
 1282 0051 08       		.uleb128 0x8
 1283 0052 05       		.uleb128 0x5
 1284 0053 00       		.byte	0
 1285 0054 49       		.uleb128 0x49
 1286 0055 13       		.uleb128 0x13
 1287 0056 00       		.byte	0
 1288 0057 00       		.byte	0
 1289 0058 09       		.uleb128 0x9
 1290 0059 13       		.uleb128 0x13
 1291 005a 01       		.byte	0x1
 1292 005b 03       		.uleb128 0x3
 1293 005c 0E       		.uleb128 0xe
 1294 005d 0B       		.uleb128 0xb
 1295 005e 0B       		.uleb128 0xb
 1296 005f 3A       		.uleb128 0x3a
 1297 0060 0B       		.uleb128 0xb
 1298 0061 3B       		.uleb128 0x3b
 1299 0062 0B       		.uleb128 0xb
 1300 0063 01       		.uleb128 0x1
ARM GAS  /tmp/ccrvXwR4.s 			page 24


 1301 0064 13       		.uleb128 0x13
 1302 0065 00       		.byte	0
 1303 0066 00       		.byte	0
 1304 0067 0A       		.uleb128 0xa
 1305 0068 0D       		.uleb128 0xd
 1306 0069 00       		.byte	0
 1307 006a 03       		.uleb128 0x3
 1308 006b 0E       		.uleb128 0xe
 1309 006c 3A       		.uleb128 0x3a
 1310 006d 0B       		.uleb128 0xb
 1311 006e 3B       		.uleb128 0x3b
 1312 006f 0B       		.uleb128 0xb
 1313 0070 49       		.uleb128 0x49
 1314 0071 13       		.uleb128 0x13
 1315 0072 38       		.uleb128 0x38
 1316 0073 0A       		.uleb128 0xa
 1317 0074 00       		.byte	0
 1318 0075 00       		.byte	0
 1319 0076 0B       		.uleb128 0xb
 1320 0077 13       		.uleb128 0x13
 1321 0078 01       		.byte	0x1
 1322 0079 0B       		.uleb128 0xb
 1323 007a 0B       		.uleb128 0xb
 1324 007b 3A       		.uleb128 0x3a
 1325 007c 0B       		.uleb128 0xb
 1326 007d 3B       		.uleb128 0x3b
 1327 007e 0B       		.uleb128 0xb
 1328 007f 8740     		.uleb128 0x2007
 1329 0081 0E       		.uleb128 0xe
 1330 0082 01       		.uleb128 0x1
 1331 0083 13       		.uleb128 0x13
 1332 0084 00       		.byte	0
 1333 0085 00       		.byte	0
 1334 0086 0C       		.uleb128 0xc
 1335 0087 26       		.uleb128 0x26
 1336 0088 00       		.byte	0
 1337 0089 49       		.uleb128 0x49
 1338 008a 13       		.uleb128 0x13
 1339 008b 00       		.byte	0
 1340 008c 00       		.byte	0
 1341 008d 0D       		.uleb128 0xd
 1342 008e 39       		.uleb128 0x39
 1343 008f 00       		.byte	0
 1344 0090 03       		.uleb128 0x3
 1345 0091 0E       		.uleb128 0xe
 1346 0092 3A       		.uleb128 0x3a
 1347 0093 0B       		.uleb128 0xb
 1348 0094 3B       		.uleb128 0x3b
 1349 0095 0B       		.uleb128 0xb
 1350 0096 00       		.byte	0
 1351 0097 00       		.byte	0
 1352 0098 0E       		.uleb128 0xe
 1353 0099 02       		.uleb128 0x2
 1354 009a 01       		.byte	0x1
 1355 009b 03       		.uleb128 0x3
 1356 009c 0E       		.uleb128 0xe
 1357 009d 0B       		.uleb128 0xb
ARM GAS  /tmp/ccrvXwR4.s 			page 25


 1358 009e 0B       		.uleb128 0xb
 1359 009f 3A       		.uleb128 0x3a
 1360 00a0 0B       		.uleb128 0xb
 1361 00a1 3B       		.uleb128 0x3b
 1362 00a2 0B       		.uleb128 0xb
 1363 00a3 01       		.uleb128 0x1
 1364 00a4 13       		.uleb128 0x13
 1365 00a5 00       		.byte	0
 1366 00a6 00       		.byte	0
 1367 00a7 0F       		.uleb128 0xf
 1368 00a8 0D       		.uleb128 0xd
 1369 00a9 00       		.byte	0
 1370 00aa 03       		.uleb128 0x3
 1371 00ab 0E       		.uleb128 0xe
 1372 00ac 3A       		.uleb128 0x3a
 1373 00ad 0B       		.uleb128 0xb
 1374 00ae 3B       		.uleb128 0x3b
 1375 00af 0B       		.uleb128 0xb
 1376 00b0 49       		.uleb128 0x49
 1377 00b1 13       		.uleb128 0x13
 1378 00b2 38       		.uleb128 0x38
 1379 00b3 0A       		.uleb128 0xa
 1380 00b4 32       		.uleb128 0x32
 1381 00b5 0B       		.uleb128 0xb
 1382 00b6 00       		.byte	0
 1383 00b7 00       		.byte	0
 1384 00b8 10       		.uleb128 0x10
 1385 00b9 2E       		.uleb128 0x2e
 1386 00ba 01       		.byte	0x1
 1387 00bb 3F       		.uleb128 0x3f
 1388 00bc 0C       		.uleb128 0xc
 1389 00bd 03       		.uleb128 0x3
 1390 00be 0E       		.uleb128 0xe
 1391 00bf 3A       		.uleb128 0x3a
 1392 00c0 0B       		.uleb128 0xb
 1393 00c1 3B       		.uleb128 0x3b
 1394 00c2 0B       		.uleb128 0xb
 1395 00c3 49       		.uleb128 0x49
 1396 00c4 13       		.uleb128 0x13
 1397 00c5 3C       		.uleb128 0x3c
 1398 00c6 0C       		.uleb128 0xc
 1399 00c7 64       		.uleb128 0x64
 1400 00c8 13       		.uleb128 0x13
 1401 00c9 01       		.uleb128 0x1
 1402 00ca 13       		.uleb128 0x13
 1403 00cb 00       		.byte	0
 1404 00cc 00       		.byte	0
 1405 00cd 11       		.uleb128 0x11
 1406 00ce 05       		.uleb128 0x5
 1407 00cf 00       		.byte	0
 1408 00d0 49       		.uleb128 0x49
 1409 00d1 13       		.uleb128 0x13
 1410 00d2 34       		.uleb128 0x34
 1411 00d3 0C       		.uleb128 0xc
 1412 00d4 00       		.byte	0
 1413 00d5 00       		.byte	0
 1414 00d6 12       		.uleb128 0x12
ARM GAS  /tmp/ccrvXwR4.s 			page 26


 1415 00d7 2E       		.uleb128 0x2e
 1416 00d8 01       		.byte	0x1
 1417 00d9 3F       		.uleb128 0x3f
 1418 00da 0C       		.uleb128 0xc
 1419 00db 03       		.uleb128 0x3
 1420 00dc 0E       		.uleb128 0xe
 1421 00dd 3A       		.uleb128 0x3a
 1422 00de 0B       		.uleb128 0xb
 1423 00df 3B       		.uleb128 0x3b
 1424 00e0 0B       		.uleb128 0xb
 1425 00e1 8740     		.uleb128 0x2007
 1426 00e3 0E       		.uleb128 0xe
 1427 00e4 3C       		.uleb128 0x3c
 1428 00e5 0C       		.uleb128 0xc
 1429 00e6 64       		.uleb128 0x64
 1430 00e7 13       		.uleb128 0x13
 1431 00e8 01       		.uleb128 0x1
 1432 00e9 13       		.uleb128 0x13
 1433 00ea 00       		.byte	0
 1434 00eb 00       		.byte	0
 1435 00ec 13       		.uleb128 0x13
 1436 00ed 2E       		.uleb128 0x2e
 1437 00ee 01       		.byte	0x1
 1438 00ef 3F       		.uleb128 0x3f
 1439 00f0 0C       		.uleb128 0xc
 1440 00f1 03       		.uleb128 0x3
 1441 00f2 0E       		.uleb128 0xe
 1442 00f3 3A       		.uleb128 0x3a
 1443 00f4 0B       		.uleb128 0xb
 1444 00f5 3B       		.uleb128 0x3b
 1445 00f6 0B       		.uleb128 0xb
 1446 00f7 8740     		.uleb128 0x2007
 1447 00f9 0E       		.uleb128 0xe
 1448 00fa 49       		.uleb128 0x49
 1449 00fb 13       		.uleb128 0x13
 1450 00fc 3C       		.uleb128 0x3c
 1451 00fd 0C       		.uleb128 0xc
 1452 00fe 64       		.uleb128 0x64
 1453 00ff 13       		.uleb128 0x13
 1454 0100 01       		.uleb128 0x1
 1455 0101 13       		.uleb128 0x13
 1456 0102 00       		.byte	0
 1457 0103 00       		.byte	0
 1458 0104 14       		.uleb128 0x14
 1459 0105 2E       		.uleb128 0x2e
 1460 0106 01       		.byte	0x1
 1461 0107 3F       		.uleb128 0x3f
 1462 0108 0C       		.uleb128 0xc
 1463 0109 03       		.uleb128 0x3
 1464 010a 0E       		.uleb128 0xe
 1465 010b 3A       		.uleb128 0x3a
 1466 010c 0B       		.uleb128 0xb
 1467 010d 3B       		.uleb128 0x3b
 1468 010e 0B       		.uleb128 0xb
 1469 010f 8740     		.uleb128 0x2007
 1470 0111 0E       		.uleb128 0xe
 1471 0112 3C       		.uleb128 0x3c
ARM GAS  /tmp/ccrvXwR4.s 			page 27


 1472 0113 0C       		.uleb128 0xc
 1473 0114 64       		.uleb128 0x64
 1474 0115 13       		.uleb128 0x13
 1475 0116 00       		.byte	0
 1476 0117 00       		.byte	0
 1477 0118 15       		.uleb128 0x15
 1478 0119 2E       		.uleb128 0x2e
 1479 011a 01       		.byte	0x1
 1480 011b 3F       		.uleb128 0x3f
 1481 011c 0C       		.uleb128 0xc
 1482 011d 03       		.uleb128 0x3
 1483 011e 08       		.uleb128 0x8
 1484 011f 3A       		.uleb128 0x3a
 1485 0120 0B       		.uleb128 0xb
 1486 0121 3B       		.uleb128 0x3b
 1487 0122 0B       		.uleb128 0xb
 1488 0123 8740     		.uleb128 0x2007
 1489 0125 0E       		.uleb128 0xe
 1490 0126 49       		.uleb128 0x49
 1491 0127 13       		.uleb128 0x13
 1492 0128 3C       		.uleb128 0x3c
 1493 0129 0C       		.uleb128 0xc
 1494 012a 64       		.uleb128 0x64
 1495 012b 13       		.uleb128 0x13
 1496 012c 01       		.uleb128 0x1
 1497 012d 13       		.uleb128 0x13
 1498 012e 00       		.byte	0
 1499 012f 00       		.byte	0
 1500 0130 16       		.uleb128 0x16
 1501 0131 2E       		.uleb128 0x2e
 1502 0132 01       		.byte	0x1
 1503 0133 3F       		.uleb128 0x3f
 1504 0134 0C       		.uleb128 0xc
 1505 0135 03       		.uleb128 0x3
 1506 0136 0E       		.uleb128 0xe
 1507 0137 3A       		.uleb128 0x3a
 1508 0138 0B       		.uleb128 0xb
 1509 0139 3B       		.uleb128 0x3b
 1510 013a 0B       		.uleb128 0xb
 1511 013b 8740     		.uleb128 0x2007
 1512 013d 0E       		.uleb128 0xe
 1513 013e 49       		.uleb128 0x49
 1514 013f 13       		.uleb128 0x13
 1515 0140 3C       		.uleb128 0x3c
 1516 0141 0C       		.uleb128 0xc
 1517 0142 64       		.uleb128 0x64
 1518 0143 13       		.uleb128 0x13
 1519 0144 00       		.byte	0
 1520 0145 00       		.byte	0
 1521 0146 17       		.uleb128 0x17
 1522 0147 13       		.uleb128 0x13
 1523 0148 00       		.byte	0
 1524 0149 03       		.uleb128 0x3
 1525 014a 0E       		.uleb128 0xe
 1526 014b 3C       		.uleb128 0x3c
 1527 014c 0C       		.uleb128 0xc
 1528 014d 00       		.byte	0
ARM GAS  /tmp/ccrvXwR4.s 			page 28


 1529 014e 00       		.byte	0
 1530 014f 18       		.uleb128 0x18
 1531 0150 2E       		.uleb128 0x2e
 1532 0151 01       		.byte	0x1
 1533 0152 47       		.uleb128 0x47
 1534 0153 13       		.uleb128 0x13
 1535 0154 3A       		.uleb128 0x3a
 1536 0155 0B       		.uleb128 0xb
 1537 0156 3B       		.uleb128 0x3b
 1538 0157 0B       		.uleb128 0xb
 1539 0158 20       		.uleb128 0x20
 1540 0159 0B       		.uleb128 0xb
 1541 015a 64       		.uleb128 0x64
 1542 015b 13       		.uleb128 0x13
 1543 015c 01       		.uleb128 0x1
 1544 015d 13       		.uleb128 0x13
 1545 015e 00       		.byte	0
 1546 015f 00       		.byte	0
 1547 0160 19       		.uleb128 0x19
 1548 0161 05       		.uleb128 0x5
 1549 0162 00       		.byte	0
 1550 0163 03       		.uleb128 0x3
 1551 0164 0E       		.uleb128 0xe
 1552 0165 49       		.uleb128 0x49
 1553 0166 13       		.uleb128 0x13
 1554 0167 34       		.uleb128 0x34
 1555 0168 0C       		.uleb128 0xc
 1556 0169 00       		.byte	0
 1557 016a 00       		.byte	0
 1558 016b 1A       		.uleb128 0x1a
 1559 016c 05       		.uleb128 0x5
 1560 016d 00       		.byte	0
 1561 016e 03       		.uleb128 0x3
 1562 016f 0E       		.uleb128 0xe
 1563 0170 3A       		.uleb128 0x3a
 1564 0171 0B       		.uleb128 0xb
 1565 0172 3B       		.uleb128 0x3b
 1566 0173 0B       		.uleb128 0xb
 1567 0174 49       		.uleb128 0x49
 1568 0175 13       		.uleb128 0x13
 1569 0176 00       		.byte	0
 1570 0177 00       		.byte	0
 1571 0178 1B       		.uleb128 0x1b
 1572 0179 2E       		.uleb128 0x2e
 1573 017a 01       		.byte	0x1
 1574 017b 31       		.uleb128 0x31
 1575 017c 13       		.uleb128 0x13
 1576 017d 11       		.uleb128 0x11
 1577 017e 01       		.uleb128 0x1
 1578 017f 12       		.uleb128 0x12
 1579 0180 01       		.uleb128 0x1
 1580 0181 40       		.uleb128 0x40
 1581 0182 06       		.uleb128 0x6
 1582 0183 64       		.uleb128 0x64
 1583 0184 13       		.uleb128 0x13
 1584 0185 01       		.uleb128 0x1
 1585 0186 13       		.uleb128 0x13
ARM GAS  /tmp/ccrvXwR4.s 			page 29


 1586 0187 00       		.byte	0
 1587 0188 00       		.byte	0
 1588 0189 1C       		.uleb128 0x1c
 1589 018a 05       		.uleb128 0x5
 1590 018b 00       		.byte	0
 1591 018c 31       		.uleb128 0x31
 1592 018d 13       		.uleb128 0x13
 1593 018e 02       		.uleb128 0x2
 1594 018f 06       		.uleb128 0x6
 1595 0190 00       		.byte	0
 1596 0191 00       		.byte	0
 1597 0192 1D       		.uleb128 0x1d
 1598 0193 05       		.uleb128 0x5
 1599 0194 00       		.byte	0
 1600 0195 31       		.uleb128 0x31
 1601 0196 13       		.uleb128 0x13
 1602 0197 02       		.uleb128 0x2
 1603 0198 0A       		.uleb128 0xa
 1604 0199 00       		.byte	0
 1605 019a 00       		.byte	0
 1606 019b 1E       		.uleb128 0x1e
 1607 019c 2E       		.uleb128 0x2e
 1608 019d 01       		.byte	0x1
 1609 019e 47       		.uleb128 0x47
 1610 019f 13       		.uleb128 0x13
 1611 01a0 3A       		.uleb128 0x3a
 1612 01a1 0B       		.uleb128 0xb
 1613 01a2 3B       		.uleb128 0x3b
 1614 01a3 0B       		.uleb128 0xb
 1615 01a4 11       		.uleb128 0x11
 1616 01a5 01       		.uleb128 0x1
 1617 01a6 12       		.uleb128 0x12
 1618 01a7 01       		.uleb128 0x1
 1619 01a8 40       		.uleb128 0x40
 1620 01a9 0A       		.uleb128 0xa
 1621 01aa 64       		.uleb128 0x64
 1622 01ab 13       		.uleb128 0x13
 1623 01ac 01       		.uleb128 0x1
 1624 01ad 13       		.uleb128 0x13
 1625 01ae 00       		.byte	0
 1626 01af 00       		.byte	0
 1627 01b0 1F       		.uleb128 0x1f
 1628 01b1 05       		.uleb128 0x5
 1629 01b2 00       		.byte	0
 1630 01b3 03       		.uleb128 0x3
 1631 01b4 0E       		.uleb128 0xe
 1632 01b5 49       		.uleb128 0x49
 1633 01b6 13       		.uleb128 0x13
 1634 01b7 34       		.uleb128 0x34
 1635 01b8 0C       		.uleb128 0xc
 1636 01b9 02       		.uleb128 0x2
 1637 01ba 06       		.uleb128 0x6
 1638 01bb 00       		.byte	0
 1639 01bc 00       		.byte	0
 1640 01bd 20       		.uleb128 0x20
 1641 01be 05       		.uleb128 0x5
 1642 01bf 00       		.byte	0
ARM GAS  /tmp/ccrvXwR4.s 			page 30


 1643 01c0 03       		.uleb128 0x3
 1644 01c1 08       		.uleb128 0x8
 1645 01c2 3A       		.uleb128 0x3a
 1646 01c3 0B       		.uleb128 0xb
 1647 01c4 3B       		.uleb128 0x3b
 1648 01c5 0B       		.uleb128 0xb
 1649 01c6 49       		.uleb128 0x49
 1650 01c7 13       		.uleb128 0x13
 1651 01c8 02       		.uleb128 0x2
 1652 01c9 06       		.uleb128 0x6
 1653 01ca 00       		.byte	0
 1654 01cb 00       		.byte	0
 1655 01cc 21       		.uleb128 0x21
 1656 01cd 2E       		.uleb128 0x2e
 1657 01ce 01       		.byte	0x1
 1658 01cf 47       		.uleb128 0x47
 1659 01d0 13       		.uleb128 0x13
 1660 01d1 3A       		.uleb128 0x3a
 1661 01d2 0B       		.uleb128 0xb
 1662 01d3 3B       		.uleb128 0x3b
 1663 01d4 0B       		.uleb128 0xb
 1664 01d5 11       		.uleb128 0x11
 1665 01d6 01       		.uleb128 0x1
 1666 01d7 12       		.uleb128 0x12
 1667 01d8 01       		.uleb128 0x1
 1668 01d9 40       		.uleb128 0x40
 1669 01da 06       		.uleb128 0x6
 1670 01db 64       		.uleb128 0x64
 1671 01dc 13       		.uleb128 0x13
 1672 01dd 00       		.byte	0
 1673 01de 00       		.byte	0
 1674 01df 00       		.byte	0
 1675              		.section	.debug_loc,"",%progbits
 1676              	.Ldebug_loc0:
 1677              	.LLST0:
 1678 0000 00000000 		.4byte	.LFB17
 1679 0004 02000000 		.4byte	.LCFI0
 1680 0008 0200     		.2byte	0x2
 1681 000a 7D       		.byte	0x7d
 1682 000b 00       		.sleb128 0
 1683 000c 02000000 		.4byte	.LCFI0
 1684 0010 28000000 		.4byte	.LFE17
 1685 0014 0200     		.2byte	0x2
 1686 0016 7D       		.byte	0x7d
 1687 0017 18       		.sleb128 24
 1688 0018 00000000 		.4byte	0
 1689 001c 00000000 		.4byte	0
 1690              	.LLST1:
 1691 0020 00000000 		.4byte	.LVL0
 1692 0024 10000000 		.4byte	.LVL3
 1693 0028 0100     		.2byte	0x1
 1694 002a 50       		.byte	0x50
 1695 002b 10000000 		.4byte	.LVL3
 1696 002f 28000000 		.4byte	.LFE17
 1697 0033 0100     		.2byte	0x1
 1698 0035 54       		.byte	0x54
 1699 0036 00000000 		.4byte	0
ARM GAS  /tmp/ccrvXwR4.s 			page 31


 1700 003a 00000000 		.4byte	0
 1701              	.LLST2:
 1702 003e 00000000 		.4byte	.LVL0
 1703 0042 0A000000 		.4byte	.LVL1
 1704 0046 0100     		.2byte	0x1
 1705 0048 51       		.byte	0x51
 1706 0049 0A000000 		.4byte	.LVL1
 1707 004d 28000000 		.4byte	.LFE17
 1708 0051 0100     		.2byte	0x1
 1709 0053 56       		.byte	0x56
 1710 0054 00000000 		.4byte	0
 1711 0058 00000000 		.4byte	0
 1712              	.LLST3:
 1713 005c 00000000 		.4byte	.LVL0
 1714 0060 0C000000 		.4byte	.LVL2
 1715 0064 0100     		.2byte	0x1
 1716 0066 52       		.byte	0x52
 1717 0067 0C000000 		.4byte	.LVL2
 1718 006b 28000000 		.4byte	.LFE17
 1719 006f 0100     		.2byte	0x1
 1720 0071 55       		.byte	0x55
 1721 0072 00000000 		.4byte	0
 1722 0076 00000000 		.4byte	0
 1723              	.LLST4:
 1724 007a 00000000 		.4byte	.LVL0
 1725 007e 15000000 		.4byte	.LVL4-1
 1726 0082 0100     		.2byte	0x1
 1727 0084 53       		.byte	0x53
 1728 0085 15000000 		.4byte	.LVL4-1
 1729 0089 28000000 		.4byte	.LFE17
 1730 008d 0100     		.2byte	0x1
 1731 008f 57       		.byte	0x57
 1732 0090 00000000 		.4byte	0
 1733 0094 00000000 		.4byte	0
 1734              	.LLST5:
 1735 0098 00000000 		.4byte	.LVL5
 1736 009c 02000000 		.4byte	.LVL6
 1737 00a0 0100     		.2byte	0x1
 1738 00a2 50       		.byte	0x50
 1739 00a3 00000000 		.4byte	0
 1740 00a7 00000000 		.4byte	0
 1741              	.LLST6:
 1742 00ab 00000000 		.4byte	.LVL7
 1743 00af 02000000 		.4byte	.LVL8
 1744 00b3 0100     		.2byte	0x1
 1745 00b5 50       		.byte	0x50
 1746 00b6 00000000 		.4byte	0
 1747 00ba 00000000 		.4byte	0
 1748              	.LLST7:
 1749 00be 00000000 		.4byte	.LVL9
 1750 00c2 02000000 		.4byte	.LVL10
 1751 00c6 0100     		.2byte	0x1
 1752 00c8 50       		.byte	0x50
 1753 00c9 02000000 		.4byte	.LVL10
 1754 00cd 05000000 		.4byte	.LVL11-1
 1755 00d1 0300     		.2byte	0x3
 1756 00d3 70       		.byte	0x70
ARM GAS  /tmp/ccrvXwR4.s 			page 32


 1757 00d4 74       		.sleb128 -12
 1758 00d5 9F       		.byte	0x9f
 1759 00d6 00000000 		.4byte	0
 1760 00da 00000000 		.4byte	0
 1761              	.LLST8:
 1762 00de 00000000 		.4byte	.LVL12
 1763 00e2 02000000 		.4byte	.LVL13
 1764 00e6 0100     		.2byte	0x1
 1765 00e8 50       		.byte	0x50
 1766 00e9 00000000 		.4byte	0
 1767 00ed 00000000 		.4byte	0
 1768              	.LLST9:
 1769 00f1 00000000 		.4byte	.LVL12
 1770 00f5 05000000 		.4byte	.LVL14-1
 1771 00f9 0100     		.2byte	0x1
 1772 00fb 51       		.byte	0x51
 1773 00fc 00000000 		.4byte	0
 1774 0100 00000000 		.4byte	0
 1775              	.LLST10:
 1776 0104 00000000 		.4byte	.LVL15
 1777 0108 02000000 		.4byte	.LVL16
 1778 010c 0100     		.2byte	0x1
 1779 010e 50       		.byte	0x50
 1780 010f 00000000 		.4byte	0
 1781 0113 00000000 		.4byte	0
 1782              	.LLST11:
 1783 0117 00000000 		.4byte	.LVL15
 1784 011b 05000000 		.4byte	.LVL17-1
 1785 011f 0100     		.2byte	0x1
 1786 0121 51       		.byte	0x51
 1787 0122 00000000 		.4byte	0
 1788 0126 00000000 		.4byte	0
 1789              	.LLST12:
 1790 012a 00000000 		.4byte	.LFB24
 1791 012e 02000000 		.4byte	.LCFI1
 1792 0132 0200     		.2byte	0x2
 1793 0134 7D       		.byte	0x7d
 1794 0135 00       		.sleb128 0
 1795 0136 02000000 		.4byte	.LCFI1
 1796 013a 0C000000 		.4byte	.LFE24
 1797 013e 0200     		.2byte	0x2
 1798 0140 7D       		.byte	0x7d
 1799 0141 08       		.sleb128 8
 1800 0142 00000000 		.4byte	0
 1801 0146 00000000 		.4byte	0
 1802              	.LLST13:
 1803 014a 00000000 		.4byte	.LVL18
 1804 014e 04000000 		.4byte	.LVL19
 1805 0152 0100     		.2byte	0x1
 1806 0154 50       		.byte	0x50
 1807 0155 04000000 		.4byte	.LVL19
 1808 0159 07000000 		.4byte	.LVL20-1
 1809 015d 0300     		.2byte	0x3
 1810 015f 70       		.byte	0x70
 1811 0160 74       		.sleb128 -12
 1812 0161 9F       		.byte	0x9f
 1813 0162 00000000 		.4byte	0
ARM GAS  /tmp/ccrvXwR4.s 			page 33


 1814 0166 00000000 		.4byte	0
 1815              		.section	.debug_aranges,"",%progbits
 1816 0000 4C000000 		.4byte	0x4c
 1817 0004 0200     		.2byte	0x2
 1818 0006 00000000 		.4byte	.Ldebug_info0
 1819 000a 04       		.byte	0x4
 1820 000b 00       		.byte	0
 1821 000c 0000     		.2byte	0
 1822 000e 0000     		.2byte	0
 1823 0010 00000000 		.4byte	.LFB17
 1824 0014 28000000 		.4byte	.LFE17-.LFB17
 1825 0018 00000000 		.4byte	.LFB19
 1826 001c 04000000 		.4byte	.LFE19-.LFB19
 1827 0020 00000000 		.4byte	.LFB20
 1828 0024 04000000 		.4byte	.LFE20-.LFB20
 1829 0028 00000000 		.4byte	.LFB21
 1830 002c 06000000 		.4byte	.LFE21-.LFB21
 1831 0030 00000000 		.4byte	.LFB22
 1832 0034 06000000 		.4byte	.LFE22-.LFB22
 1833 0038 00000000 		.4byte	.LFB23
 1834 003c 06000000 		.4byte	.LFE23-.LFB23
 1835 0040 00000000 		.4byte	.LFB24
 1836 0044 0C000000 		.4byte	.LFE24-.LFB24
 1837 0048 00000000 		.4byte	0
 1838 004c 00000000 		.4byte	0
 1839              		.section	.debug_ranges,"",%progbits
 1840              	.Ldebug_ranges0:
 1841 0000 00000000 		.4byte	.LFB17
 1842 0004 28000000 		.4byte	.LFE17
 1843 0008 00000000 		.4byte	.LFB19
 1844 000c 04000000 		.4byte	.LFE19
 1845 0010 00000000 		.4byte	.LFB20
 1846 0014 04000000 		.4byte	.LFE20
 1847 0018 00000000 		.4byte	.LFB21
 1848 001c 06000000 		.4byte	.LFE21
 1849 0020 00000000 		.4byte	.LFB22
 1850 0024 06000000 		.4byte	.LFE22
 1851 0028 00000000 		.4byte	.LFB23
 1852 002c 06000000 		.4byte	.LFE23
 1853 0030 00000000 		.4byte	.LFB24
 1854 0034 0C000000 		.4byte	.LFE24
 1855 0038 00000000 		.4byte	0
 1856 003c 00000000 		.4byte	0
 1857              		.section	.debug_line,"",%progbits
 1858              	.Ldebug_line0:
 1859 0000 B8020000 		.section	.debug_str,"MS",%progbits,1
 1859      02003002 
 1859      00000201 
 1859      FB0E0D00 
 1859      01010101 
 1860              	.LASF17:
 1861 0000 6D705F6E 		.ascii	"mp_next\000"
 1861      65787400 
 1862              	.LASF49:
 1863 0008 746F7069 		.ascii	"topic\000"
 1863      6300
 1864              	.LASF86:
ARM GAS  /tmp/ccrvXwR4.s 			page 34


 1865 000e 2E2E2F2E 		.ascii	"../../Middleware/BaseSubscriber.cpp\000"
 1865      2E2F4D69 
 1865      64646C65 
 1865      77617265 
 1865      2F426173 
 1866              	.LASF44:
 1867 0032 42617365 		.ascii	"BasePublisher\000"
 1867      5075626C 
 1867      69736865 
 1867      7200
 1868              	.LASF20:
 1869 0040 4D656D6F 		.ascii	"MemoryPool\000"
 1869      7279506F 
 1869      6F6C00
 1870              	.LASF79:
 1871 004b 5F5A4E31 		.ascii	"_ZN14BaseSubscriber4sizeEv\000"
 1871      34426173 
 1871      65537562 
 1871      73637269 
 1871      62657234 
 1872              	.LASF2:
 1873 0066 73697A65 		.ascii	"size_t\000"
 1873      5F7400
 1874              	.LASF73:
 1875 006d 5F5A4E31 		.ascii	"_ZN14BaseSubscriber6sourceEv\000"
 1875      34426173 
 1875      65537562 
 1875      73637269 
 1875      62657236 
 1876              	.LASF78:
 1877 008a 5F5A4E31 		.ascii	"_ZN14BaseSubscriber8releaseIEP11BaseMessage\000"
 1877      34426173 
 1877      65537562 
 1877      73637269 
 1877      62657238 
 1878              	.LASF72:
 1879 00b6 736F7572 		.ascii	"source\000"
 1879      636500
 1880              	.LASF43:
 1881 00bd 5F5A4E31 		.ascii	"_ZN12MessageQueue4putIEP11BaseMessage\000"
 1881      324D6573 
 1881      73616765 
 1881      51756575 
 1881      65347075 
 1882              	.LASF68:
 1883 00e3 5F736F75 		.ascii	"_source\000"
 1883      72636500 
 1884              	.LASF28:
 1885 00eb 5F777269 		.ascii	"_write\000"
 1885      746500
 1886              	.LASF63:
 1887 00f2 5F5A4E31 		.ascii	"_ZN13BasePublisher11unsubscribeEP15LocalSubscriber\000"
 1887      33426173 
 1887      65507562 
 1887      6C697368 
 1887      65723131 
 1888              	.LASF87:
ARM GAS  /tmp/ccrvXwR4.s 			page 35


 1889 0125 2F686F6D 		.ascii	"/home/tino/workspace/openrobots/R2P_IR_module/fw\000"
 1889      652F7469 
 1889      6E6F2F77 
 1889      6F726B73 
 1889      70616365 
 1890              	.LASF24:
 1891 0156 4D657373 		.ascii	"MessageQueue\000"
 1891      61676551 
 1891      75657565 
 1891      00
 1892              	.LASF52:
 1893 0163 5F5A4E31 		.ascii	"_ZN13BasePublisher5allocEv\000"
 1893      33426173 
 1893      65507562 
 1893      6C697368 
 1893      65723561 
 1894              	.LASF5:
 1895 017e 73686F72 		.ascii	"short int\000"
 1895      7420696E 
 1895      7400
 1896              	.LASF58:
 1897 0188 5F5A4E31 		.ascii	"_ZN13BasePublisher8releaseIEP11BaseMessage\000"
 1897      33426173 
 1897      65507562 
 1897      6C697368 
 1897      65723872 
 1898              	.LASF33:
 1899 01b3 5F5A4E31 		.ascii	"_ZN11BaseMessage11dereferenceEv\000"
 1899      31426173 
 1899      654D6573 
 1899      73616765 
 1899      31316465 
 1900              	.LASF35:
 1901 01d3 73697A65 		.ascii	"sizeI\000"
 1901      4900
 1902              	.LASF3:
 1903 01d9 75696E74 		.ascii	"uint8_t\000"
 1903      385F7400 
 1904              	.LASF80:
 1905 01e1 6D73675F 		.ascii	"msg_size\000"
 1905      73697A65 
 1905      00
 1906              	.LASF60:
 1907 01ea 5F5A4E31 		.ascii	"_ZN13BasePublisher11unsubscribeEP16RemoteSubscriber"
 1907      33426173 
 1907      65507562 
 1907      6C697368 
 1907      65723131 
 1908 021d 00       		.ascii	"\000"
 1909              	.LASF14:
 1910 021e 626F6F6C 		.ascii	"bool\000"
 1910      00
 1911              	.LASF36:
 1912 0223 5F5A4E31 		.ascii	"_ZN12MessageQueue5sizeIEv\000"
 1912      324D6573 
 1912      73616765 
 1912      51756575 
ARM GAS  /tmp/ccrvXwR4.s 			page 36


 1912      65357369 
 1913              	.LASF75:
 1914 023d 5F5A4E31 		.ascii	"_ZN14BaseSubscriber4lastEv\000"
 1914      34426173 
 1914      65537562 
 1914      73637269 
 1914      62657234 
 1915              	.LASF34:
 1916 0258 5F5A4E31 		.ascii	"_ZN12MessageQueue4sizeEv\000"
 1916      324D6573 
 1916      73616765 
 1916      51756575 
 1916      65347369 
 1917              	.LASF46:
 1918 0271 5F737562 		.ascii	"_subscribers\000"
 1918      73637269 
 1918      62657273 
 1918      00
 1919              	.LASF11:
 1920 027e 6C6F6E67 		.ascii	"long long int\000"
 1920      206C6F6E 
 1920      6720696E 
 1920      7400
 1921              	.LASF18:
 1922 028c 6D705F6F 		.ascii	"mp_object_size\000"
 1922      626A6563 
 1922      745F7369 
 1922      7A6500
 1923              	.LASF65:
 1924 029b 52656D6F 		.ascii	"RemoteSubscriber\000"
 1924      74655375 
 1924      62736372 
 1924      69626572 
 1924      00
 1925              	.LASF90:
 1926 02ac 63686962 		.ascii	"chibios_rt\000"
 1926      696F735F 
 1926      727400
 1927              	.LASF41:
 1928 02b7 70757449 		.ascii	"putI\000"
 1928      00
 1929              	.LASF56:
 1930 02bc 5F5A4E31 		.ascii	"_ZN13BasePublisher7releaseEP11BaseMessage\000"
 1930      33426173 
 1930      65507562 
 1930      6C697368 
 1930      65723772 
 1931              	.LASF59:
 1932 02e6 756E7375 		.ascii	"unsubscribe\000"
 1932      62736372 
 1932      69626500 
 1933              	.LASF22:
 1934 02f2 42617365 		.ascii	"BaseMessage\000"
 1934      4D657373 
 1934      61676500 
 1935              	.LASF26:
 1936 02fe 5F627566 		.ascii	"_buffer\000"
ARM GAS  /tmp/ccrvXwR4.s 			page 37


 1936      66657200 
 1937              	.LASF55:
 1938 0306 72656C65 		.ascii	"release\000"
 1938      61736500 
 1939              	.LASF4:
 1940 030e 756E7369 		.ascii	"unsigned char\000"
 1940      676E6564 
 1940      20636861 
 1940      7200
 1941              	.LASF29:
 1942 031c 5F726561 		.ascii	"_read\000"
 1942      6400
 1943              	.LASF1:
 1944 0322 7369676E 		.ascii	"signed char\000"
 1944      65642063 
 1944      68617200 
 1945              	.LASF12:
 1946 032e 6C6F6E67 		.ascii	"long long unsigned int\000"
 1946      206C6F6E 
 1946      6720756E 
 1946      7369676E 
 1946      65642069 
 1947              	.LASF19:
 1948 0345 6D705F70 		.ascii	"mp_provider\000"
 1948      726F7669 
 1948      64657200 
 1949              	.LASF9:
 1950 0351 75696E74 		.ascii	"uint32_t\000"
 1950      33325F74 
 1950      00
 1951              	.LASF0:
 1952 035a 756E7369 		.ascii	"unsigned int\000"
 1952      676E6564 
 1952      20696E74 
 1952      00
 1953              	.LASF6:
 1954 0367 75696E74 		.ascii	"uint16_t\000"
 1954      31365F74 
 1954      00
 1955              	.LASF69:
 1956 0370 5F717565 		.ascii	"_queue\000"
 1956      756500
 1957              	.LASF51:
 1958 0377 616C6C6F 		.ascii	"alloc\000"
 1958      6300
 1959              	.LASF45:
 1960 037d 5F746F70 		.ascii	"_topic\000"
 1960      696300
 1961              	.LASF39:
 1962 0384 5F5A4E31 		.ascii	"_ZN12MessageQueue3getEv\000"
 1962      324D6573 
 1962      73616765 
 1962      51756575 
 1962      65336765 
 1963              	.LASF74:
 1964 039c 6C617374 		.ascii	"last\000"
 1964      00
ARM GAS  /tmp/ccrvXwR4.s 			page 38


 1965              	.LASF48:
 1966 03a1 5F706F6F 		.ascii	"_pool\000"
 1966      6C00
 1967              	.LASF7:
 1968 03a7 73686F72 		.ascii	"short unsigned int\000"
 1968      7420756E 
 1968      7369676E 
 1968      65642069 
 1968      6E7400
 1969              	.LASF67:
 1970 03ba 5F6D7367 		.ascii	"_msg_size\000"
 1970      5F73697A 
 1970      6500
 1971              	.LASF40:
 1972 03c4 5F5A4E31 		.ascii	"_ZN12MessageQueue3putEP11BaseMessage\000"
 1972      324D6573 
 1972      73616765 
 1972      51756575 
 1972      65337075 
 1973              	.LASF21:
 1974 03e9 63686172 		.ascii	"char\000"
 1974      00
 1975              	.LASF8:
 1976 03ee 6C6F6E67 		.ascii	"long int\000"
 1976      20696E74 
 1976      00
 1977              	.LASF25:
 1978 03f7 5F726566 		.ascii	"_ref_count\000"
 1978      5F636F75 
 1978      6E7400
 1979              	.LASF30:
 1980 0402 5F636E74 		.ascii	"_cnt\000"
 1980      00
 1981              	.LASF38:
 1982 0407 5F5A4E31 		.ascii	"_ZN12MessageQueue4getIEv\000"
 1982      324D6573 
 1982      73616765 
 1982      51756575 
 1982      65346765 
 1983              	.LASF13:
 1984 0420 626F6F6C 		.ascii	"bool_t\000"
 1984      5F7400
 1985              	.LASF76:
 1986 0427 5F5A4E31 		.ascii	"_ZN14BaseSubscriber3getEv\000"
 1986      34426173 
 1986      65537562 
 1986      73637269 
 1986      62657233 
 1987              	.LASF89:
 1988 0441 31304D65 		.ascii	"10MemoryPool\000"
 1988      6D6F7279 
 1988      506F6F6C 
 1988      00
 1989              	.LASF84:
 1990 044e 74686973 		.ascii	"this\000"
 1990      00
 1991              	.LASF16:
ARM GAS  /tmp/ccrvXwR4.s 			page 39


 1992 0453 70685F6E 		.ascii	"ph_next\000"
 1992      65787400 
 1993              	.LASF81:
 1994 045b 62756666 		.ascii	"buffer\000"
 1994      657200
 1995              	.LASF66:
 1996 0462 42617365 		.ascii	"BaseSubscriber\000"
 1996      53756273 
 1996      63726962 
 1996      657200
 1997              	.LASF47:
 1998 0471 5F72656D 		.ascii	"_remote_subscribers\000"
 1998      6F74655F 
 1998      73756273 
 1998      63726962 
 1998      65727300 
 1999              	.LASF83:
 2000 0485 71756575 		.ascii	"queue_size\000"
 2000      655F7369 
 2000      7A6500
 2001              	.LASF88:
 2002 0490 706F6F6C 		.ascii	"pool_header\000"
 2002      5F686561 
 2002      64657200 
 2003              	.LASF10:
 2004 049c 6C6F6E67 		.ascii	"long unsigned int\000"
 2004      20756E73 
 2004      69676E65 
 2004      6420696E 
 2004      7400
 2005              	.LASF31:
 2006 04ae 64657265 		.ascii	"dereference\000"
 2006      66657265 
 2006      6E636500 
 2007              	.LASF77:
 2008 04ba 5F5A4E31 		.ascii	"_ZN14BaseSubscriber7releaseEP11BaseMessage\000"
 2008      34426173 
 2008      65537562 
 2008      73637269 
 2008      62657237 
 2009              	.LASF82:
 2010 04e5 71756575 		.ascii	"queue_buffer\000"
 2010      655F6275 
 2010      66666572 
 2010      00
 2011              	.LASF54:
 2012 04f2 5F5A4E31 		.ascii	"_ZN13BasePublisher6allocIEv\000"
 2012      33426173 
 2012      65507562 
 2012      6C697368 
 2012      65723661 
 2013              	.LASF70:
 2014 050e 616C6C6F 		.ascii	"alloc_flag\000"
 2014      635F666C 
 2014      616700
 2015              	.LASF32:
 2016 0519 73697A65 		.ascii	"size\000"
ARM GAS  /tmp/ccrvXwR4.s 			page 40


 2016      00
 2017              	.LASF15:
 2018 051e 6D656D67 		.ascii	"memgetfunc_t\000"
 2018      65746675 
 2018      6E635F74 
 2018      00
 2019              	.LASF61:
 2020 052b 72657365 		.ascii	"reset\000"
 2020      7400
 2021              	.LASF50:
 2022 0531 5F5A4E31 		.ascii	"_ZN13BasePublisher5topicEv\000"
 2022      33426173 
 2022      65507562 
 2022      6C697368 
 2022      65723574 
 2023              	.LASF23:
 2024 054c 72656665 		.ascii	"reference\000"
 2024      72656E63 
 2024      6500
 2025              	.LASF42:
 2026 0556 5F5A4E31 		.ascii	"_ZN11BaseMessage9referenceEv\000"
 2026      31426173 
 2026      654D6573 
 2026      73616765 
 2026      39726566 
 2027              	.LASF62:
 2028 0573 5F5A4E31 		.ascii	"_ZN11BaseMessage5resetEv\000"
 2028      31426173 
 2028      654D6573 
 2028      73616765 
 2028      35726573 
 2029              	.LASF53:
 2030 058c 616C6C6F 		.ascii	"allocI\000"
 2030      634900
 2031              	.LASF57:
 2032 0593 72656C65 		.ascii	"releaseI\000"
 2032      61736549 
 2032      00
 2033              	.LASF37:
 2034 059c 67657449 		.ascii	"getI\000"
 2034      00
 2035              	.LASF85:
 2036 05a1 474E5520 		.ascii	"GNU C++ 4.6.2 20120613 (release) [ARM/embedded-4_6-"
 2036      432B2B20 
 2036      342E362E 
 2036      32203230 
 2036      31323036 
 2037 05d4 6272616E 		.ascii	"branch revision 188521]\000"
 2037      63682072 
 2037      65766973 
 2037      696F6E20 
 2037      31383835 
 2038              	.LASF27:
 2039 05ec 5F746F70 		.ascii	"_top\000"
 2039      00
 2040              	.LASF71:
 2041 05f1 5F5A4E31 		.ascii	"_ZN14BaseSubscriber5topicEv\000"
ARM GAS  /tmp/ccrvXwR4.s 			page 41


 2041      34426173 
 2041      65537562 
 2041      73637269 
 2041      62657235 
 2042              	.LASF64:
 2043 060d 4C6F6361 		.ascii	"LocalSubscriber\000"
 2043      6C537562 
 2043      73637269 
 2043      62657200 
 2044              		.ident	"GCC: (GNU Tools for ARM Embedded Processors) 4.6.2 20120613 (release) [ARM/embedded-4_6-br
ARM GAS  /tmp/ccrvXwR4.s 			page 42


DEFINED SYMBOLS
                            *ABS*:00000000 BaseSubscriber.cpp
     /tmp/ccrvXwR4.s:19     .text._ZN14BaseSubscriberC2EPKcjPhPP11BaseMessagem:00000000 $t
     /tmp/ccrvXwR4.s:25     .text._ZN14BaseSubscriberC2EPKcjPhPP11BaseMessagem:00000000 _ZN14BaseSubscriberC2EPKcjPhPP11BaseMessagem
     /tmp/ccrvXwR4.s:83     .text._ZN14BaseSubscriber5topicEv:00000000 $t
     /tmp/ccrvXwR4.s:89     .text._ZN14BaseSubscriber5topicEv:00000000 _ZN14BaseSubscriber5topicEv
     /tmp/ccrvXwR4.s:106    .text._ZN14BaseSubscriber6sourceEv:00000000 $t
     /tmp/ccrvXwR4.s:112    .text._ZN14BaseSubscriber6sourceEv:00000000 _ZN14BaseSubscriber6sourceEv
     /tmp/ccrvXwR4.s:129    .text._ZN14BaseSubscriber3getEv:00000000 $t
     /tmp/ccrvXwR4.s:135    .text._ZN14BaseSubscriber3getEv:00000000 _ZN14BaseSubscriber3getEv
     /tmp/ccrvXwR4.s:154    .text._ZN14BaseSubscriber7releaseEP11BaseMessage:00000000 $t
     /tmp/ccrvXwR4.s:160    .text._ZN14BaseSubscriber7releaseEP11BaseMessage:00000000 _ZN14BaseSubscriber7releaseEP11BaseMessage
     /tmp/ccrvXwR4.s:179    .text._ZN14BaseSubscriber8releaseIEP11BaseMessage:00000000 $t
     /tmp/ccrvXwR4.s:185    .text._ZN14BaseSubscriber8releaseIEP11BaseMessage:00000000 _ZN14BaseSubscriber8releaseIEP11BaseMessage
     /tmp/ccrvXwR4.s:204    .text._ZN14BaseSubscriber4sizeEv:00000000 $t
     /tmp/ccrvXwR4.s:210    .text._ZN14BaseSubscriber4sizeEv:00000000 _ZN14BaseSubscriber4sizeEv
     /tmp/ccrvXwR4.s:25     .text._ZN14BaseSubscriberC2EPKcjPhPP11BaseMessagem:00000000 _ZN14BaseSubscriberC1EPKcjPhPP11BaseMessagem
                     .debug_frame:00000010 $d

UNDEFINED SYMBOLS
_ZN12MessageQueueC1EPP11BaseMessagem
_ZN12MessageQueue3getEv
_ZN13BasePublisher7releaseEP11BaseMessage
_ZN13BasePublisher8releaseIEP11BaseMessage
_ZN12MessageQueue4sizeEv
