ARM GAS  /tmp/ccPXEhp1.s 			page 1


   1              		.syntax unified
   2              		.cpu cortex-m3
   3              		.fpu softvfp
   4              		.eabi_attribute 20, 1
   5              		.eabi_attribute 21, 1
   6              		.eabi_attribute 23, 3
   7              		.eabi_attribute 24, 1
   8              		.eabi_attribute 25, 1
   9              		.eabi_attribute 26, 1
  10              		.eabi_attribute 30, 2
  11              		.eabi_attribute 34, 1
  12              		.eabi_attribute 18, 4
  13              		.thumb
  14              		.file	"BasePublisher.cpp"
  15              		.text
  16              	.Ltext0:
  17              		.cfi_sections	.debug_frame
  18              		.section	.text._ZN13BasePublisherC2EPKcj,"ax",%progbits
  19              		.align	2
  20              		.p2align 4,,15
  21              		.global	_ZN13BasePublisherC2EPKcj
  22              		.thumb
  23              		.thumb_func
  24              		.type	_ZN13BasePublisherC2EPKcj, %function
  25              	_ZN13BasePublisherC2EPKcj:
  26              	.LFB81:
  27              		.file 1 "../../Middleware/BasePublisher.cpp"
  28              		.loc 1 11 0
  29              		.cfi_startproc
  30              		@ args = 0, pretend = 0, frame = 0
  31              		@ frame_needed = 0, uses_anonymous_args = 0
  32              	.LVL0:
  33 0000 10B5     		push	{r4, lr}
  34              	.LCFI0:
  35              		.cfi_def_cfa_offset 8
  36              		.cfi_offset 14, -4
  37              		.cfi_offset 4, -8
  38              	.LBB2:
  39              		.loc 1 13 0
  40 0002 0023     		movs	r3, #0
  41              	.LBE2:
  42              		.loc 1 11 0
  43 0004 0446     		mov	r4, r0
  44              	.LBB3:
  45              		.loc 1 13 0
  46 0006 84E80A00 		stmia	r4, {r1, r3}
  47              		.loc 1 15 0
  48 000a 00F10C00 		add	r0, r0, #12
  49              	.LVL1:
  50 000e 1146     		mov	r1, r2
  51              	.LVL2:
  52              		.loc 1 14 0
  53 0010 A360     		str	r3, [r4, #8]
  54              		.loc 1 15 0
  55 0012 1A46     		mov	r2, r3
  56              	.LVL3:
  57 0014 FFF7FEFF 		bl	chPoolInit
ARM GAS  /tmp/ccPXEhp1.s 			page 2


  58              	.LVL4:
  59              	.LBE3:
  60              		.loc 1 16 0
  61 0018 2046     		mov	r0, r4
  62 001a 10BD     		pop	{r4, pc}
  63              		.cfi_endproc
  64              	.LFE81:
  65              		.size	_ZN13BasePublisherC2EPKcj, .-_ZN13BasePublisherC2EPKcj
  66 001c AFF30080 		.section	.text._ZN13BasePublisher5topicEv,"ax",%progbits
  67              		.align	2
  68              		.p2align 4,,15
  69              		.global	_ZN13BasePublisher5topicEv
  70              		.thumb
  71              		.thumb_func
  72              		.type	_ZN13BasePublisher5topicEv, %function
  73              	_ZN13BasePublisher5topicEv:
  74              	.LFB83:
  75              		.loc 1 18 0
  76              		.cfi_startproc
  77              		@ args = 0, pretend = 0, frame = 0
  78              		@ frame_needed = 0, uses_anonymous_args = 0
  79              		@ link register save eliminated.
  80              	.LVL5:
  81              		.loc 1 19 0
  82 0000 0068     		ldr	r0, [r0, #0]
  83              	.LVL6:
  84              		.loc 1 20 0
  85 0002 7047     		bx	lr
  86              		.cfi_endproc
  87              	.LFE83:
  88              		.size	_ZN13BasePublisher5topicEv, .-_ZN13BasePublisher5topicEv
  89 0004 AFF30080 		.section	.text._ZN13BasePublisher5allocEv,"ax",%progbits
  89      AFF30080 
  89      AFF30080 
  90              		.align	2
  91              		.p2align 4,,15
  92              		.global	_ZN13BasePublisher5allocEv
  93              		.thumb
  94              		.thumb_func
  95              		.type	_ZN13BasePublisher5allocEv, %function
  96              	_ZN13BasePublisher5allocEv:
  97              	.LFB84:
  98              		.loc 1 22 0
  99              		.cfi_startproc
 100              		@ args = 0, pretend = 0, frame = 0
 101              		@ frame_needed = 0, uses_anonymous_args = 0
 102              	.LVL7:
 103 0000 10B5     		push	{r4, lr}
 104              	.LCFI1:
 105              		.cfi_def_cfa_offset 8
 106              		.cfi_offset 14, -4
 107              		.cfi_offset 4, -8
 108              	.LBB12:
 109              	.LBB13:
 110              	.LBB14:
 111              		.loc 1 25 0
 112 0002 2023     		movs	r3, #32
ARM GAS  /tmp/ccPXEhp1.s 			page 3


 113              	.LVL8:
 114              	.LBE14:
 115              	.LBE13:
 116              	.LBE12:
 117              		.loc 1 22 0
 118 0004 0446     		mov	r4, r0
 119              	.LBB21:
 120              	.LBB16:
 121              	.LBB15:
 122              		.loc 1 25 0
 123              	@ 25 "../../Middleware/BasePublisher.cpp" 1
 124 0006 83F31188 		msr     BASEPRI, r3
 125              	@ 0 "" 2
 126              	.LVL9:
 127              		.thumb
 128              	.LBE15:
 129 000a FFF7FEFF 		bl	dbg_check_lock
 130              	.LVL10:
 131              	.LBE16:
 132              	.LBB17:
 133              	.LBB18:
 134              		.loc 1 35 0
 135 000e 04F10C00 		add	r0, r4, #12
 136 0012 FFF7FEFF 		bl	chPoolAllocI
 137 0016 0446     		mov	r4, r0
 138              	.LVL11:
 139              		.loc 1 38 0
 140 0018 08B1     		cbz	r0, .L5
 141              		.loc 1 39 0
 142 001a FFF7FEFF 		bl	_ZN11BaseMessage5resetEv
 143              	.LVL12:
 144              	.L5:
 145              	.LBE18:
 146              	.LBE17:
 147              	.LBB19:
 148              		.loc 1 27 0
 149 001e FFF7FEFF 		bl	dbg_check_unlock
 150              	.LBB20:
 151 0022 0023     		movs	r3, #0
 152              	.LVL13:
 153              	@ 27 "../../Middleware/BasePublisher.cpp" 1
 154 0024 83F31188 		msr     BASEPRI, r3
 155              	@ 0 "" 2
 156              	.LVL14:
 157              		.thumb
 158              	.LBE20:
 159              	.LBE19:
 160              	.LBE21:
 161              		.loc 1 30 0
 162 0028 2046     		mov	r0, r4
 163 002a 10BD     		pop	{r4, pc}
 164              		.cfi_endproc
 165              	.LFE84:
 166              		.size	_ZN13BasePublisher5allocEv, .-_ZN13BasePublisher5allocEv
 167 002c AFF30080 		.section	.text._ZN13BasePublisher6allocIEv,"ax",%progbits
 168              		.align	2
 169              		.p2align 4,,15
ARM GAS  /tmp/ccPXEhp1.s 			page 4


 170              		.global	_ZN13BasePublisher6allocIEv
 171              		.thumb
 172              		.thumb_func
 173              		.type	_ZN13BasePublisher6allocIEv, %function
 174              	_ZN13BasePublisher6allocIEv:
 175              	.LFB85:
 176              		.loc 1 32 0
 177              		.cfi_startproc
 178              		@ args = 0, pretend = 0, frame = 0
 179              		@ frame_needed = 0, uses_anonymous_args = 0
 180              	.LVL15:
 181 0000 10B5     		push	{r4, lr}
 182              	.LCFI2:
 183              		.cfi_def_cfa_offset 8
 184              		.cfi_offset 14, -4
 185              		.cfi_offset 4, -8
 186              	.LBB22:
 187              		.loc 1 35 0
 188 0002 0C30     		adds	r0, r0, #12
 189              	.LVL16:
 190 0004 FFF7FEFF 		bl	chPoolAllocI
 191              	.LVL17:
 192 0008 0446     		mov	r4, r0
 193              	.LVL18:
 194              		.loc 1 38 0
 195 000a 08B1     		cbz	r0, .L8
 196              		.loc 1 39 0
 197 000c FFF7FEFF 		bl	_ZN11BaseMessage5resetEv
 198              	.LVL19:
 199              	.L8:
 200              	.LBE22:
 201              		.loc 1 42 0
 202 0010 2046     		mov	r0, r4
 203 0012 10BD     		pop	{r4, pc}
 204              		.cfi_endproc
 205              	.LFE85:
 206              		.size	_ZN13BasePublisher6allocIEv, .-_ZN13BasePublisher6allocIEv
 207 0014 AFF30080 		.section	.text._ZN13BasePublisher7releaseEP11BaseMessage,"ax",%progbits
 207      AFF30080 
 207      AFF30080 
 208              		.align	2
 209              		.p2align 4,,15
 210              		.global	_ZN13BasePublisher7releaseEP11BaseMessage
 211              		.thumb
 212              		.thumb_func
 213              		.type	_ZN13BasePublisher7releaseEP11BaseMessage, %function
 214              	_ZN13BasePublisher7releaseEP11BaseMessage:
 215              	.LFB86:
 216              		.loc 1 44 0
 217              		.cfi_startproc
 218              		@ args = 0, pretend = 0, frame = 0
 219              		@ frame_needed = 0, uses_anonymous_args = 0
 220              	.LVL20:
 221 0000 38B5     		push	{r3, r4, r5, lr}
 222              	.LCFI3:
 223              		.cfi_def_cfa_offset 16
 224              		.cfi_offset 14, -4
ARM GAS  /tmp/ccPXEhp1.s 			page 5


 225              		.cfi_offset 5, -8
 226              		.cfi_offset 4, -12
 227              		.cfi_offset 3, -16
 228              		.loc 1 44 0
 229 0002 0446     		mov	r4, r0
 230 0004 0D46     		mov	r5, r1
 231              	.LBB30:
 232              	.LBB31:
 233              		.loc 1 45 0
 234 0006 2023     		movs	r3, #32
 235              	.LVL21:
 236              	@ 45 "../../Middleware/BasePublisher.cpp" 1
 237 0008 83F31188 		msr     BASEPRI, r3
 238              	@ 0 "" 2
 239              	.LVL22:
 240              		.thumb
 241              	.LBE31:
 242 000c FFF7FEFF 		bl	dbg_check_lock
 243              	.LVL23:
 244              	.LBE30:
 245              	.LBB32:
 246              	.LBB33:
 247              		.loc 1 53 0
 248 0010 2846     		mov	r0, r5
 249 0012 FFF7FEFF 		bl	_ZN11BaseMessage11dereferenceEv
 250 0016 20B1     		cbz	r0, .L10
 251              		.loc 1 54 0
 252 0018 04F10C00 		add	r0, r4, #12
 253 001c 2946     		mov	r1, r5
 254 001e FFF7FEFF 		bl	chPoolFreeI
 255              	.L10:
 256              	.LBE33:
 257              	.LBE32:
 258              	.LBB34:
 259              		.loc 1 47 0
 260 0022 FFF7FEFF 		bl	dbg_check_unlock
 261              	.LBB35:
 262 0026 0023     		movs	r3, #0
 263              	.LVL24:
 264              	@ 47 "../../Middleware/BasePublisher.cpp" 1
 265 0028 83F31188 		msr     BASEPRI, r3
 266              	@ 0 "" 2
 267              	.LVL25:
 268              		.thumb
 269              	.LBE35:
 270              	.LBE34:
 271              		.loc 1 48 0
 272 002c 38BD     		pop	{r3, r4, r5, pc}
 273              		.cfi_endproc
 274              	.LFE86:
 275              		.size	_ZN13BasePublisher7releaseEP11BaseMessage, .-_ZN13BasePublisher7releaseEP11BaseMessage
 276 002e 00BF     		.section	.text._ZN13BasePublisher8releaseIEP11BaseMessage,"ax",%progbits
 277              		.align	2
 278              		.p2align 4,,15
 279              		.global	_ZN13BasePublisher8releaseIEP11BaseMessage
 280              		.thumb
 281              		.thumb_func
ARM GAS  /tmp/ccPXEhp1.s 			page 6


 282              		.type	_ZN13BasePublisher8releaseIEP11BaseMessage, %function
 283              	_ZN13BasePublisher8releaseIEP11BaseMessage:
 284              	.LFB87:
 285              		.loc 1 51 0
 286              		.cfi_startproc
 287              		@ args = 0, pretend = 0, frame = 0
 288              		@ frame_needed = 0, uses_anonymous_args = 0
 289              	.LVL26:
 290 0000 38B5     		push	{r3, r4, r5, lr}
 291              	.LCFI4:
 292              		.cfi_def_cfa_offset 16
 293              		.cfi_offset 14, -4
 294              		.cfi_offset 5, -8
 295              		.cfi_offset 4, -12
 296              		.cfi_offset 3, -16
 297              		.loc 1 51 0
 298 0002 0546     		mov	r5, r0
 299              		.loc 1 53 0
 300 0004 0846     		mov	r0, r1
 301              	.LVL27:
 302              		.loc 1 51 0
 303 0006 0C46     		mov	r4, r1
 304              		.loc 1 53 0
 305 0008 FFF7FEFF 		bl	_ZN11BaseMessage11dereferenceEv
 306              	.LVL28:
 307 000c 00B9     		cbnz	r0, .L13
 308 000e 38BD     		pop	{r3, r4, r5, pc}
 309              	.L13:
 310              		.loc 1 54 0
 311 0010 05F10C00 		add	r0, r5, #12
 312 0014 2146     		mov	r1, r4
 313              		.loc 1 56 0
 314 0016 BDE83840 		pop	{r3, r4, r5, lr}
 315              		.loc 1 54 0
 316 001a FFF7FEBF 		b	chPoolFreeI
 317              		.cfi_endproc
 318              	.LFE87:
 319              		.size	_ZN13BasePublisher8releaseIEP11BaseMessage, .-_ZN13BasePublisher8releaseIEP11BaseMessage
 320 001e 00BF     		.section	.text._ZN13BasePublisher11unsubscribeEP16RemoteSubscriber,"ax",%progbits
 321              		.align	2
 322              		.p2align 4,,15
 323              		.global	_ZN13BasePublisher11unsubscribeEP16RemoteSubscriber
 324              		.thumb
 325              		.thumb_func
 326              		.type	_ZN13BasePublisher11unsubscribeEP16RemoteSubscriber, %function
 327              	_ZN13BasePublisher11unsubscribeEP16RemoteSubscriber:
 328              	.LFB88:
 329              		.loc 1 59 0
 330              		.cfi_startproc
 331              		@ args = 0, pretend = 0, frame = 0
 332              		@ frame_needed = 0, uses_anonymous_args = 0
 333              	.LVL29:
 334              	.LBB36:
 335              		.loc 1 63 0
 336 0000 8068     		ldr	r0, [r0, #8]
 337              	.LVL30:
 338              	.LBE36:
ARM GAS  /tmp/ccPXEhp1.s 			page 7


 339              		.loc 1 59 0
 340 0002 10B5     		push	{r4, lr}
 341              	.LCFI5:
 342              		.cfi_def_cfa_offset 8
 343              		.cfi_offset 14, -4
 344              		.cfi_offset 4, -8
 345              	.LBB37:
 346              		.loc 1 65 0
 347 0004 8842     		cmp	r0, r1
 348              	.LBE37:
 349              		.loc 1 59 0
 350 0006 0C46     		mov	r4, r1
 351              	.LBB38:
 352              		.loc 1 65 0
 353 0008 03D0     		beq	.L15
 354              	.LVL31:
 355              	.L16:
 356              		.loc 1 67 0
 357 000a FFF7FEFF 		bl	_ZN16RemoteSubscriber4nextEv
 358              	.LVL32:
 359              		.loc 1 65 0
 360 000e 8442     		cmp	r4, r0
 361 0010 FBD1     		bne	.L16
 362              	.L15:
 363              	.LBE38:
 364              		.loc 1 71 0
 365 0012 BDE81040 		pop	{r4, lr}
 366              	.LBB39:
 367              		.loc 1 70 0
 368 0016 FFF7FEBF 		b	_ZN16RemoteSubscriber4nextEv
 369              	.LVL33:
 370              	.LBE39:
 371              		.cfi_endproc
 372              	.LFE88:
 373              		.size	_ZN13BasePublisher11unsubscribeEP16RemoteSubscriber, .-_ZN13BasePublisher11unsubscribeEP16Re
 374 001a 00BFAFF3 		.section	.text._ZN13BasePublisher11unsubscribeEP15LocalSubscriber,"ax",%progbits
 374      0080
 375              		.align	2
 376              		.p2align 4,,15
 377              		.global	_ZN13BasePublisher11unsubscribeEP15LocalSubscriber
 378              		.thumb
 379              		.thumb_func
 380              		.type	_ZN13BasePublisher11unsubscribeEP15LocalSubscriber, %function
 381              	_ZN13BasePublisher11unsubscribeEP15LocalSubscriber:
 382              	.LFB89:
 383              		.loc 1 74 0
 384              		.cfi_startproc
 385              		@ args = 0, pretend = 0, frame = 0
 386              		@ frame_needed = 0, uses_anonymous_args = 0
 387              	.LVL34:
 388              	.LBB40:
 389              		.loc 1 78 0
 390 0000 4068     		ldr	r0, [r0, #4]
 391              	.LVL35:
 392              	.LBE40:
 393              		.loc 1 74 0
 394 0002 10B5     		push	{r4, lr}
ARM GAS  /tmp/ccPXEhp1.s 			page 8


 395              	.LCFI6:
 396              		.cfi_def_cfa_offset 8
 397              		.cfi_offset 14, -4
 398              		.cfi_offset 4, -8
 399              	.LBB41:
 400              		.loc 1 80 0
 401 0004 8842     		cmp	r0, r1
 402              	.LBE41:
 403              		.loc 1 74 0
 404 0006 0C46     		mov	r4, r1
 405              	.LBB42:
 406              		.loc 1 80 0
 407 0008 03D0     		beq	.L20
 408              	.LVL36:
 409              	.L21:
 410              		.loc 1 82 0
 411 000a FFF7FEFF 		bl	_ZN15LocalSubscriber4nextEv
 412              	.LVL37:
 413              		.loc 1 80 0
 414 000e 8442     		cmp	r4, r0
 415 0010 FBD1     		bne	.L21
 416              	.L20:
 417              	.LBE42:
 418              		.loc 1 86 0
 419 0012 BDE81040 		pop	{r4, lr}
 420              	.LBB43:
 421              		.loc 1 85 0
 422 0016 FFF7FEBF 		b	_ZN15LocalSubscriber4nextEv
 423              	.LVL38:
 424              	.LBE43:
 425              		.cfi_endproc
 426              	.LFE89:
 427              		.size	_ZN13BasePublisher11unsubscribeEP15LocalSubscriber, .-_ZN13BasePublisher11unsubscribeEP15Loc
 428              		.global	_ZN13BasePublisherC1EPKcj
 429              		.thumb_set _ZN13BasePublisherC1EPKcj,_ZN13BasePublisherC2EPKcj
 430 001a 00BFAFF3 		.text
 430      0080
 431              	.Letext0:
 432              		.file 2 "/home/tino/ChibiStudio/tools/GNU Tools ARM Embedded/4.6 2012q2/bin/../lib/gcc/arm-none-ea
 433              		.file 3 "/home/tino/ChibiStudio/tools/GNU Tools ARM Embedded/4.6 2012q2/bin/../lib/gcc/arm-none-ea
 434              		.file 4 "../../ChibiOS/os/ports/GCC/ARMCMx/chtypes.h"
 435              		.file 5 "../../ChibiOS/os/kernel/include/chlists.h"
 436              		.file 6 "../../ChibiOS/os/kernel/include/chthreads.h"
 437              		.file 7 "../../ChibiOS/os/ports/GCC/ARMCMx/chcore_v7m.h"
 438              		.file 8 "../../ChibiOS/os/kernel/include/chmtx.h"
 439              		.file 9 "../../ChibiOS/os/kernel/include/chmemcore.h"
 440              		.file 10 "../../ChibiOS/os/kernel/include/chmempools.h"
 441              		.file 11 "../../Middleware/BaseMessage.hpp"
 442              		.file 12 "../../Middleware/MessageQueue.hpp"
 443              		.file 13 "../../Middleware/BasePublisher.hpp"
 444              		.file 14 "../../Middleware/LocalSubscriber.hpp"
 445              		.file 15 "../../Middleware/RemoteSubscriber.hpp"
 446              		.file 16 "../../Middleware/LocalPublisher.hpp"
 447              		.file 17 "../../RTCAN/include/rtcan.h"
 448              		.file 18 "../../Middleware/BaseSubscriber.hpp"
 449              		.file 19 "../../Middleware/RemotePublisher.hpp"
 450              		.file 20 "../../ChibiOS/os/various/cpp_wrappers/ch.hpp"
ARM GAS  /tmp/ccPXEhp1.s 			page 9


 451              		.file 21 "../../ChibiOS/os/ports/common/ARMCMx/CMSIS/include/core_cm3.h"
 452              		.section	.debug_info,"",%progbits
 453              	.Ldebug_info0:
 454 0000 15140000 		.4byte	0x1415
 455 0004 0200     		.2byte	0x2
 456 0006 00000000 		.4byte	.Ldebug_abbrev0
 457 000a 04       		.byte	0x4
 458 000b 01       		.uleb128 0x1
 459 000c 71090000 		.4byte	.LASF192
 460 0010 04       		.byte	0x4
 461 0011 0E0C0000 		.4byte	.LASF193
 462 0015 C0020000 		.4byte	.LASF194
 463 0019 00000000 		.4byte	0
 464 001d 00000000 		.4byte	0
 465 0021 80000000 		.4byte	.Ldebug_ranges0+0x80
 466 0025 00000000 		.4byte	.Ldebug_line0
 467 0029 02       		.uleb128 0x2
 468 002a 04       		.byte	0x4
 469 002b 05       		.byte	0x5
 470 002c 696E7400 		.ascii	"int\000"
 471 0030 03       		.uleb128 0x3
 472 0031 88000000 		.4byte	.LASF2
 473 0035 02       		.byte	0x2
 474 0036 D4       		.byte	0xd4
 475 0037 3B000000 		.4byte	0x3b
 476 003b 04       		.uleb128 0x4
 477 003c 04       		.byte	0x4
 478 003d 07       		.byte	0x7
 479 003e 71040000 		.4byte	.LASF0
 480 0042 04       		.uleb128 0x4
 481 0043 01       		.byte	0x1
 482 0044 06       		.byte	0x6
 483 0045 C3010000 		.4byte	.LASF1
 484 0049 03       		.uleb128 0x3
 485 004a F90B0000 		.4byte	.LASF3
 486 004e 03       		.byte	0x3
 487 004f 2A       		.byte	0x2a
 488 0050 54000000 		.4byte	0x54
 489 0054 04       		.uleb128 0x4
 490 0055 01       		.byte	0x1
 491 0056 08       		.byte	0x8
 492 0057 A8080000 		.4byte	.LASF4
 493 005b 04       		.uleb128 0x4
 494 005c 02       		.byte	0x2
 495 005d 05       		.byte	0x5
 496 005e F3080000 		.4byte	.LASF5
 497 0062 03       		.uleb128 0x3
 498 0063 5D030000 		.4byte	.LASF6
 499 0067 03       		.byte	0x3
 500 0068 36       		.byte	0x36
 501 0069 6D000000 		.4byte	0x6d
 502 006d 04       		.uleb128 0x4
 503 006e 02       		.byte	0x2
 504 006f 07       		.byte	0x7
 505 0070 7A050000 		.4byte	.LASF7
 506 0074 03       		.uleb128 0x3
 507 0075 A0080000 		.4byte	.LASF8
ARM GAS  /tmp/ccPXEhp1.s 			page 10


 508 0079 03       		.byte	0x3
 509 007a 4F       		.byte	0x4f
 510 007b 7F000000 		.4byte	0x7f
 511 007f 04       		.uleb128 0x4
 512 0080 04       		.byte	0x4
 513 0081 05       		.byte	0x5
 514 0082 6D020000 		.4byte	.LASF9
 515 0086 03       		.uleb128 0x3
 516 0087 A80B0000 		.4byte	.LASF10
 517 008b 03       		.byte	0x3
 518 008c 50       		.byte	0x50
 519 008d 91000000 		.4byte	0x91
 520 0091 04       		.uleb128 0x4
 521 0092 04       		.byte	0x4
 522 0093 07       		.byte	0x7
 523 0094 520A0000 		.4byte	.LASF11
 524 0098 04       		.uleb128 0x4
 525 0099 08       		.byte	0x8
 526 009a 05       		.byte	0x5
 527 009b B5010000 		.4byte	.LASF12
 528 009f 03       		.uleb128 0x3
 529 00a0 09070000 		.4byte	.LASF13
 530 00a4 03       		.byte	0x3
 531 00a5 78       		.byte	0x78
 532 00a6 AA000000 		.4byte	0xaa
 533 00aa 04       		.uleb128 0x4
 534 00ab 08       		.byte	0x8
 535 00ac 07       		.byte	0x7
 536 00ad EB000000 		.4byte	.LASF14
 537 00b1 03       		.uleb128 0x3
 538 00b2 06020000 		.4byte	.LASF15
 539 00b6 04       		.byte	0x4
 540 00b7 24       		.byte	0x24
 541 00b8 BC000000 		.4byte	0xbc
 542 00bc 04       		.uleb128 0x4
 543 00bd 01       		.byte	0x1
 544 00be 02       		.byte	0x2
 545 00bf F8050000 		.4byte	.LASF16
 546 00c3 03       		.uleb128 0x3
 547 00c4 1D090000 		.4byte	.LASF17
 548 00c8 04       		.byte	0x4
 549 00c9 25       		.byte	0x25
 550 00ca 49000000 		.4byte	0x49
 551 00ce 03       		.uleb128 0x3
 552 00cf 7A030000 		.4byte	.LASF18
 553 00d3 04       		.byte	0x4
 554 00d4 26       		.byte	0x26
 555 00d5 49000000 		.4byte	0x49
 556 00d9 03       		.uleb128 0x3
 557 00da 3D080000 		.4byte	.LASF19
 558 00de 04       		.byte	0x4
 559 00df 27       		.byte	0x27
 560 00e0 49000000 		.4byte	0x49
 561 00e4 03       		.uleb128 0x3
 562 00e5 4B020000 		.4byte	.LASF20
 563 00e9 04       		.byte	0x4
 564 00ea 28       		.byte	0x28
ARM GAS  /tmp/ccPXEhp1.s 			page 11


 565 00eb 49000000 		.4byte	0x49
 566 00ef 03       		.uleb128 0x3
 567 00f0 8C080000 		.4byte	.LASF21
 568 00f4 04       		.byte	0x4
 569 00f5 29       		.byte	0x29
 570 00f6 86000000 		.4byte	0x86
 571 00fa 03       		.uleb128 0x3
 572 00fb A6050000 		.4byte	.LASF22
 573 00ff 04       		.byte	0x4
 574 0100 2A       		.byte	0x2a
 575 0101 74000000 		.4byte	0x74
 576 0105 03       		.uleb128 0x3
 577 0106 09060000 		.4byte	.LASF23
 578 010a 04       		.byte	0x4
 579 010b 2C       		.byte	0x2c
 580 010c 86000000 		.4byte	0x86
 581 0110 03       		.uleb128 0x3
 582 0111 B30A0000 		.4byte	.LASF24
 583 0115 04       		.byte	0x4
 584 0116 2E       		.byte	0x2e
 585 0117 86000000 		.4byte	0x86
 586 011b 03       		.uleb128 0x3
 587 011c 6A090000 		.4byte	.LASF25
 588 0120 05       		.byte	0x5
 589 0121 23       		.byte	0x23
 590 0122 26010000 		.4byte	0x126
 591 0126 05       		.uleb128 0x5
 592 0127 6A090000 		.4byte	.LASF25
 593 012b 4C       		.byte	0x4c
 594 012c 06       		.byte	0x6
 595 012d 57       		.byte	0x57
 596 012e 8E020000 		.4byte	0x28e
 597 0132 06       		.uleb128 0x6
 598 0133 04       		.byte	0x4
 599 0134 06       		.byte	0x6
 600 0135 8F       		.byte	0x8f
 601 0136 67010000 		.4byte	0x167
 602 013a 07       		.uleb128 0x7
 603 013b 94000000 		.4byte	.LASF26
 604 013f 06       		.byte	0x6
 605 0140 96       		.byte	0x96
 606 0141 FA000000 		.4byte	0xfa
 607 0145 07       		.uleb128 0x7
 608 0146 12010000 		.4byte	.LASF27
 609 014a 06       		.byte	0x6
 610 014b 9D       		.byte	0x9d
 611 014c FA000000 		.4byte	0xfa
 612 0150 07       		.uleb128 0x7
 613 0151 5E0C0000 		.4byte	.LASF28
 614 0155 06       		.byte	0x6
 615 0156 A4       		.byte	0xa4
 616 0157 F9020000 		.4byte	0x2f9
 617 015b 07       		.uleb128 0x7
 618 015c 0F090000 		.4byte	.LASF29
 619 0160 06       		.byte	0x6
 620 0161 AB       		.byte	0xab
 621 0162 05010000 		.4byte	0x105
ARM GAS  /tmp/ccPXEhp1.s 			page 12


 622 0166 00       		.byte	0
 623 0167 08       		.uleb128 0x8
 624 0168 16090000 		.4byte	.LASF30
 625 016c 06       		.byte	0x6
 626 016d 58       		.byte	0x58
 627 016e 8D040000 		.4byte	0x48d
 628 0172 02       		.byte	0x2
 629 0173 23       		.byte	0x23
 630 0174 00       		.uleb128 0
 631 0175 08       		.uleb128 0x8
 632 0176 6B080000 		.4byte	.LASF31
 633 017a 06       		.byte	0x6
 634 017b 5A       		.byte	0x5a
 635 017c 8D040000 		.4byte	0x48d
 636 0180 02       		.byte	0x2
 637 0181 23       		.byte	0x23
 638 0182 04       		.uleb128 0x4
 639 0183 08       		.uleb128 0x8
 640 0184 92010000 		.4byte	.LASF32
 641 0188 06       		.byte	0x6
 642 0189 5C       		.byte	0x5c
 643 018a EF000000 		.4byte	0xef
 644 018e 02       		.byte	0x2
 645 018f 23       		.byte	0x23
 646 0190 08       		.uleb128 0x8
 647 0191 08       		.uleb128 0x8
 648 0192 280D0000 		.4byte	.LASF33
 649 0196 06       		.byte	0x6
 650 0197 5D       		.byte	0x5d
 651 0198 94030000 		.4byte	0x394
 652 019c 02       		.byte	0x2
 653 019d 23       		.byte	0x23
 654 019e 0C       		.uleb128 0xc
 655 019f 08       		.uleb128 0x8
 656 01a0 88030000 		.4byte	.LASF34
 657 01a4 06       		.byte	0x6
 658 01a5 5F       		.byte	0x5f
 659 01a6 8D040000 		.4byte	0x48d
 660 01aa 02       		.byte	0x2
 661 01ab 23       		.byte	0x23
 662 01ac 10       		.uleb128 0x10
 663 01ad 08       		.uleb128 0x8
 664 01ae 12070000 		.4byte	.LASF35
 665 01b2 06       		.byte	0x6
 666 01b3 60       		.byte	0x60
 667 01b4 8D040000 		.4byte	0x48d
 668 01b8 02       		.byte	0x2
 669 01b9 23       		.byte	0x23
 670 01ba 14       		.uleb128 0x14
 671 01bb 08       		.uleb128 0x8
 672 01bc D90A0000 		.4byte	.LASF36
 673 01c0 06       		.byte	0x6
 674 01c1 67       		.byte	0x67
 675 01c2 93040000 		.4byte	0x493
 676 01c6 02       		.byte	0x2
 677 01c7 23       		.byte	0x23
 678 01c8 18       		.uleb128 0x18
ARM GAS  /tmp/ccPXEhp1.s 			page 13


 679 01c9 08       		.uleb128 0x8
 680 01ca 66040000 		.4byte	.LASF37
 681 01ce 06       		.byte	0x6
 682 01cf 6D       		.byte	0x6d
 683 01d0 A5040000 		.4byte	0x4a5
 684 01d4 02       		.byte	0x2
 685 01d5 23       		.byte	0x23
 686 01d6 1C       		.uleb128 0x1c
 687 01d7 08       		.uleb128 0x8
 688 01d8 FD080000 		.4byte	.LASF38
 689 01dc 06       		.byte	0x6
 690 01dd 72       		.byte	0x72
 691 01de CE000000 		.4byte	0xce
 692 01e2 02       		.byte	0x2
 693 01e3 23       		.byte	0x23
 694 01e4 20       		.uleb128 0x20
 695 01e5 08       		.uleb128 0x8
 696 01e6 BE0C0000 		.4byte	.LASF39
 697 01ea 06       		.byte	0x6
 698 01eb 76       		.byte	0x76
 699 01ec C3000000 		.4byte	0xc3
 700 01f0 02       		.byte	0x2
 701 01f1 23       		.byte	0x23
 702 01f2 21       		.uleb128 0x21
 703 01f3 08       		.uleb128 0x8
 704 01f4 C20B0000 		.4byte	.LASF40
 705 01f8 06       		.byte	0x6
 706 01f9 7B       		.byte	0x7b
 707 01fa D9000000 		.4byte	0xd9
 708 01fe 02       		.byte	0x2
 709 01ff 23       		.byte	0x23
 710 0200 22       		.uleb128 0x22
 711 0201 08       		.uleb128 0x8
 712 0202 05090000 		.4byte	.LASF41
 713 0206 06       		.byte	0x6
 714 0207 81       		.byte	0x81
 715 0208 E4000000 		.4byte	0xe4
 716 020c 02       		.byte	0x2
 717 020d 23       		.byte	0x23
 718 020e 23       		.uleb128 0x23
 719 020f 08       		.uleb128 0x8
 720 0210 66030000 		.4byte	.LASF42
 721 0214 06       		.byte	0x6
 722 0215 88       		.byte	0x88
 723 0216 B7030000 		.4byte	0x3b7
 724 021a 02       		.byte	0x2
 725 021b 23       		.byte	0x23
 726 021c 24       		.uleb128 0x24
 727 021d 09       		.uleb128 0x9
 728 021e 705F7500 		.ascii	"p_u\000"
 729 0222 06       		.byte	0x6
 730 0223 AD       		.byte	0xad
 731 0224 32010000 		.4byte	0x132
 732 0228 02       		.byte	0x2
 733 0229 23       		.byte	0x23
 734 022a 28       		.uleb128 0x28
 735 022b 08       		.uleb128 0x8
ARM GAS  /tmp/ccPXEhp1.s 			page 14


 736 022c 2E0D0000 		.4byte	.LASF43
 737 0230 06       		.byte	0x6
 738 0231 B2       		.byte	0xb2
 739 0232 E3020000 		.4byte	0x2e3
 740 0236 02       		.byte	0x2
 741 0237 23       		.byte	0x23
 742 0238 2C       		.uleb128 0x2c
 743 0239 08       		.uleb128 0x8
 744 023a CA040000 		.4byte	.LASF44
 745 023e 06       		.byte	0x6
 746 023f B8       		.byte	0xb8
 747 0240 BD020000 		.4byte	0x2bd
 748 0244 02       		.byte	0x2
 749 0245 23       		.byte	0x23
 750 0246 30       		.uleb128 0x30
 751 0247 08       		.uleb128 0x8
 752 0248 D90B0000 		.4byte	.LASF45
 753 024c 06       		.byte	0x6
 754 024d BC       		.byte	0xbc
 755 024e FA000000 		.4byte	0xfa
 756 0252 02       		.byte	0x2
 757 0253 23       		.byte	0x23
 758 0254 38       		.uleb128 0x38
 759 0255 08       		.uleb128 0x8
 760 0256 FE060000 		.4byte	.LASF46
 761 025a 06       		.byte	0x6
 762 025b C2       		.byte	0xc2
 763 025c 05010000 		.4byte	0x105
 764 0260 02       		.byte	0x2
 765 0261 23       		.byte	0x23
 766 0262 3C       		.uleb128 0x3c
 767 0263 08       		.uleb128 0x8
 768 0264 E9080000 		.4byte	.LASF47
 769 0268 06       		.byte	0x6
 770 0269 C9       		.byte	0xc9
 771 026a AB040000 		.4byte	0x4ab
 772 026e 02       		.byte	0x2
 773 026f 23       		.byte	0x23
 774 0270 40       		.uleb128 0x40
 775 0271 08       		.uleb128 0x8
 776 0272 BD0A0000 		.4byte	.LASF48
 777 0276 06       		.byte	0x6
 778 0277 CD       		.byte	0xcd
 779 0278 EF000000 		.4byte	0xef
 780 027c 02       		.byte	0x2
 781 027d 23       		.byte	0x23
 782 027e 44       		.uleb128 0x44
 783 027f 08       		.uleb128 0x8
 784 0280 DF030000 		.4byte	.LASF49
 785 0284 06       		.byte	0x6
 786 0285 D3       		.byte	0xd3
 787 0286 F9020000 		.4byte	0x2f9
 788 028a 02       		.byte	0x2
 789 028b 23       		.byte	0x23
 790 028c 48       		.uleb128 0x48
 791 028d 00       		.byte	0
 792 028e 0A       		.uleb128 0xa
ARM GAS  /tmp/ccPXEhp1.s 			page 15


 793 028f 08       		.byte	0x8
 794 0290 05       		.byte	0x5
 795 0291 5A       		.byte	0x5a
 796 0292 CB070000 		.4byte	.LASF51
 797 0296 B7020000 		.4byte	0x2b7
 798 029a 08       		.uleb128 0x8
 799 029b 16090000 		.4byte	.LASF30
 800 029f 05       		.byte	0x5
 801 02a0 5B       		.byte	0x5b
 802 02a1 B7020000 		.4byte	0x2b7
 803 02a5 02       		.byte	0x2
 804 02a6 23       		.byte	0x23
 805 02a7 00       		.uleb128 0
 806 02a8 08       		.uleb128 0x8
 807 02a9 6B080000 		.4byte	.LASF31
 808 02ad 05       		.byte	0x5
 809 02ae 5D       		.byte	0x5d
 810 02af B7020000 		.4byte	0x2b7
 811 02b3 02       		.byte	0x2
 812 02b4 23       		.byte	0x23
 813 02b5 04       		.uleb128 0x4
 814 02b6 00       		.byte	0
 815 02b7 0B       		.uleb128 0xb
 816 02b8 04       		.byte	0x4
 817 02b9 1B010000 		.4byte	0x11b
 818 02bd 03       		.uleb128 0x3
 819 02be 37070000 		.4byte	.LASF50
 820 02c2 05       		.byte	0x5
 821 02c3 5F       		.byte	0x5f
 822 02c4 8E020000 		.4byte	0x28e
 823 02c8 0A       		.uleb128 0xa
 824 02c9 04       		.byte	0x4
 825 02ca 05       		.byte	0x5
 826 02cb 64       		.byte	0x64
 827 02cc 55020000 		.4byte	.LASF52
 828 02d0 E3020000 		.4byte	0x2e3
 829 02d4 08       		.uleb128 0x8
 830 02d5 16090000 		.4byte	.LASF30
 831 02d9 05       		.byte	0x5
 832 02da 66       		.byte	0x66
 833 02db B7020000 		.4byte	0x2b7
 834 02df 02       		.byte	0x2
 835 02e0 23       		.byte	0x23
 836 02e1 00       		.uleb128 0
 837 02e2 00       		.byte	0
 838 02e3 03       		.uleb128 0x3
 839 02e4 FD050000 		.4byte	.LASF53
 840 02e8 05       		.byte	0x5
 841 02e9 69       		.byte	0x69
 842 02ea C8020000 		.4byte	0x2c8
 843 02ee 03       		.uleb128 0x3
 844 02ef E7030000 		.4byte	.LASF54
 845 02f3 07       		.byte	0x7
 846 02f4 DE       		.byte	0xde
 847 02f5 F9020000 		.4byte	0x2f9
 848 02f9 0C       		.uleb128 0xc
 849 02fa 04       		.byte	0x4
ARM GAS  /tmp/ccPXEhp1.s 			page 16


 850 02fb 03       		.uleb128 0x3
 851 02fc 23060000 		.4byte	.LASF55
 852 0300 07       		.byte	0x7
 853 0301 E4       		.byte	0xe4
 854 0302 9F000000 		.4byte	0x9f
 855 0306 0D       		.uleb128 0xd
 856 0307 7D0B0000 		.4byte	.LASF56
 857 030b 24       		.byte	0x24
 858 030c 07       		.byte	0x7
 859 030d 0501     		.2byte	0x105
 860 030f 94030000 		.4byte	0x394
 861 0313 0E       		.uleb128 0xe
 862 0314 723400   		.ascii	"r4\000"
 863 0317 07       		.byte	0x7
 864 0318 1801     		.2byte	0x118
 865 031a EE020000 		.4byte	0x2ee
 866 031e 02       		.byte	0x2
 867 031f 23       		.byte	0x23
 868 0320 00       		.uleb128 0
 869 0321 0E       		.uleb128 0xe
 870 0322 723500   		.ascii	"r5\000"
 871 0325 07       		.byte	0x7
 872 0326 1901     		.2byte	0x119
 873 0328 EE020000 		.4byte	0x2ee
 874 032c 02       		.byte	0x2
 875 032d 23       		.byte	0x23
 876 032e 04       		.uleb128 0x4
 877 032f 0E       		.uleb128 0xe
 878 0330 723600   		.ascii	"r6\000"
 879 0333 07       		.byte	0x7
 880 0334 1A01     		.2byte	0x11a
 881 0336 EE020000 		.4byte	0x2ee
 882 033a 02       		.byte	0x2
 883 033b 23       		.byte	0x23
 884 033c 08       		.uleb128 0x8
 885 033d 0E       		.uleb128 0xe
 886 033e 723700   		.ascii	"r7\000"
 887 0341 07       		.byte	0x7
 888 0342 1B01     		.2byte	0x11b
 889 0344 EE020000 		.4byte	0x2ee
 890 0348 02       		.byte	0x2
 891 0349 23       		.byte	0x23
 892 034a 0C       		.uleb128 0xc
 893 034b 0E       		.uleb128 0xe
 894 034c 723800   		.ascii	"r8\000"
 895 034f 07       		.byte	0x7
 896 0350 1C01     		.2byte	0x11c
 897 0352 EE020000 		.4byte	0x2ee
 898 0356 02       		.byte	0x2
 899 0357 23       		.byte	0x23
 900 0358 10       		.uleb128 0x10
 901 0359 0E       		.uleb128 0xe
 902 035a 723900   		.ascii	"r9\000"
 903 035d 07       		.byte	0x7
 904 035e 1D01     		.2byte	0x11d
 905 0360 EE020000 		.4byte	0x2ee
 906 0364 02       		.byte	0x2
ARM GAS  /tmp/ccPXEhp1.s 			page 17


 907 0365 23       		.byte	0x23
 908 0366 14       		.uleb128 0x14
 909 0367 0E       		.uleb128 0xe
 910 0368 72313000 		.ascii	"r10\000"
 911 036c 07       		.byte	0x7
 912 036d 1E01     		.2byte	0x11e
 913 036f EE020000 		.4byte	0x2ee
 914 0373 02       		.byte	0x2
 915 0374 23       		.byte	0x23
 916 0375 18       		.uleb128 0x18
 917 0376 0E       		.uleb128 0xe
 918 0377 72313100 		.ascii	"r11\000"
 919 037b 07       		.byte	0x7
 920 037c 1F01     		.2byte	0x11f
 921 037e EE020000 		.4byte	0x2ee
 922 0382 02       		.byte	0x2
 923 0383 23       		.byte	0x23
 924 0384 1C       		.uleb128 0x1c
 925 0385 0E       		.uleb128 0xe
 926 0386 6C7200   		.ascii	"lr\000"
 927 0389 07       		.byte	0x7
 928 038a 2001     		.2byte	0x120
 929 038c EE020000 		.4byte	0x2ee
 930 0390 02       		.byte	0x2
 931 0391 23       		.byte	0x23
 932 0392 20       		.uleb128 0x20
 933 0393 00       		.byte	0
 934 0394 0D       		.uleb128 0xd
 935 0395 FC0A0000 		.4byte	.LASF57
 936 0399 04       		.byte	0x4
 937 039a 07       		.byte	0x7
 938 039b 2A01     		.2byte	0x12a
 939 039d B1030000 		.4byte	0x3b1
 940 03a1 0E       		.uleb128 0xe
 941 03a2 72313300 		.ascii	"r13\000"
 942 03a6 07       		.byte	0x7
 943 03a7 2B01     		.2byte	0x12b
 944 03a9 B1030000 		.4byte	0x3b1
 945 03ad 02       		.byte	0x2
 946 03ae 23       		.byte	0x23
 947 03af 00       		.uleb128 0
 948 03b0 00       		.byte	0
 949 03b1 0B       		.uleb128 0xb
 950 03b2 04       		.byte	0x4
 951 03b3 06030000 		.4byte	0x306
 952 03b7 0F       		.uleb128 0xf
 953 03b8 10010000 		.4byte	0x110
 954 03bc 05       		.uleb128 0x5
 955 03bd F8060000 		.4byte	.LASF58
 956 03c1 10       		.byte	0x10
 957 03c2 08       		.byte	0x8
 958 03c3 25       		.byte	0x25
 959 03c4 F3030000 		.4byte	0x3f3
 960 03c8 08       		.uleb128 0x8
 961 03c9 0D020000 		.4byte	.LASF59
 962 03cd 08       		.byte	0x8
 963 03ce 26       		.byte	0x26
ARM GAS  /tmp/ccPXEhp1.s 			page 18


 964 03cf BD020000 		.4byte	0x2bd
 965 03d3 02       		.byte	0x2
 966 03d4 23       		.byte	0x23
 967 03d5 00       		.uleb128 0
 968 03d6 08       		.uleb128 0x8
 969 03d7 200D0000 		.4byte	.LASF60
 970 03db 08       		.byte	0x8
 971 03dc 28       		.byte	0x28
 972 03dd B7020000 		.4byte	0x2b7
 973 03e1 02       		.byte	0x2
 974 03e2 23       		.byte	0x23
 975 03e3 08       		.uleb128 0x8
 976 03e4 08       		.uleb128 0x8
 977 03e5 AC0A0000 		.4byte	.LASF61
 978 03e9 08       		.byte	0x8
 979 03ea 2A       		.byte	0x2a
 980 03eb F3030000 		.4byte	0x3f3
 981 03ef 02       		.byte	0x2
 982 03f0 23       		.byte	0x23
 983 03f1 0C       		.uleb128 0xc
 984 03f2 00       		.byte	0
 985 03f3 0B       		.uleb128 0xb
 986 03f4 04       		.byte	0x4
 987 03f5 BC030000 		.4byte	0x3bc
 988 03f9 03       		.uleb128 0x3
 989 03fa F8060000 		.4byte	.LASF58
 990 03fe 08       		.byte	0x8
 991 03ff 2C       		.byte	0x2c
 992 0400 BC030000 		.4byte	0x3bc
 993 0404 03       		.uleb128 0x3
 994 0405 D7000000 		.4byte	.LASF62
 995 0409 09       		.byte	0x9
 996 040a 25       		.byte	0x25
 997 040b 0F040000 		.4byte	0x40f
 998 040f 0B       		.uleb128 0xb
 999 0410 04       		.byte	0x4
 1000 0411 15040000 		.4byte	0x415
 1001 0415 10       		.uleb128 0x10
 1002 0416 F9020000 		.4byte	0x2f9
 1003 041a 24040000 		.4byte	0x424
 1004 041e 11       		.uleb128 0x11
 1005 041f 30000000 		.4byte	0x30
 1006 0423 00       		.byte	0
 1007 0424 05       		.uleb128 0x5
 1008 0425 B60B0000 		.4byte	.LASF63
 1009 0429 04       		.byte	0x4
 1010 042a 0A       		.byte	0xa
 1011 042b 25       		.byte	0x25
 1012 042c 3F040000 		.4byte	0x43f
 1013 0430 08       		.uleb128 0x8
 1014 0431 FA070000 		.4byte	.LASF64
 1015 0435 0A       		.byte	0xa
 1016 0436 26       		.byte	0x26
 1017 0437 3F040000 		.4byte	0x43f
 1018 043b 02       		.byte	0x2
 1019 043c 23       		.byte	0x23
 1020 043d 00       		.uleb128 0
ARM GAS  /tmp/ccPXEhp1.s 			page 19


 1021 043e 00       		.byte	0
 1022 043f 0B       		.uleb128 0xb
 1023 0440 04       		.byte	0x4
 1024 0441 24040000 		.4byte	0x424
 1025 0445 0A       		.uleb128 0xa
 1026 0446 0C       		.byte	0xc
 1027 0447 0A       		.byte	0xa
 1028 0448 2D       		.byte	0x2d
 1029 0449 C3000000 		.4byte	.LASF65
 1030 044d 7C040000 		.4byte	0x47c
 1031 0451 08       		.uleb128 0x8
 1032 0452 E50A0000 		.4byte	.LASF66
 1033 0456 0A       		.byte	0xa
 1034 0457 2E       		.byte	0x2e
 1035 0458 7C040000 		.4byte	0x47c
 1036 045c 02       		.byte	0x2
 1037 045d 23       		.byte	0x23
 1038 045e 00       		.uleb128 0
 1039 045f 08       		.uleb128 0x8
 1040 0460 C60C0000 		.4byte	.LASF67
 1041 0464 0A       		.byte	0xa
 1042 0465 2F       		.byte	0x2f
 1043 0466 30000000 		.4byte	0x30
 1044 046a 02       		.byte	0x2
 1045 046b 23       		.byte	0x23
 1046 046c 04       		.uleb128 0x4
 1047 046d 08       		.uleb128 0x8
 1048 046e E1010000 		.4byte	.LASF68
 1049 0472 0A       		.byte	0xa
 1050 0473 31       		.byte	0x31
 1051 0474 04040000 		.4byte	0x404
 1052 0478 02       		.byte	0x2
 1053 0479 23       		.byte	0x23
 1054 047a 08       		.uleb128 0x8
 1055 047b 00       		.byte	0
 1056 047c 0B       		.uleb128 0xb
 1057 047d 04       		.byte	0x4
 1058 047e 24040000 		.4byte	0x424
 1059 0482 03       		.uleb128 0x3
 1060 0483 FF090000 		.4byte	.LASF69
 1061 0487 0A       		.byte	0xa
 1062 0488 33       		.byte	0x33
 1063 0489 45040000 		.4byte	0x445
 1064 048d 0B       		.uleb128 0xb
 1065 048e 04       		.byte	0x4
 1066 048f 26010000 		.4byte	0x126
 1067 0493 0B       		.uleb128 0xb
 1068 0494 04       		.byte	0x4
 1069 0495 99040000 		.4byte	0x499
 1070 0499 12       		.uleb128 0x12
 1071 049a 9E040000 		.4byte	0x49e
 1072 049e 04       		.uleb128 0x4
 1073 049f 01       		.byte	0x1
 1074 04a0 08       		.byte	0x8
 1075 04a1 6B0A0000 		.4byte	.LASF70
 1076 04a5 0B       		.uleb128 0xb
 1077 04a6 04       		.byte	0x4
ARM GAS  /tmp/ccPXEhp1.s 			page 20


 1078 04a7 FB020000 		.4byte	0x2fb
 1079 04ab 0B       		.uleb128 0xb
 1080 04ac 04       		.byte	0x4
 1081 04ad F9030000 		.4byte	0x3f9
 1082 04b1 0B       		.uleb128 0xb
 1083 04b2 04       		.byte	0x4
 1084 04b3 49000000 		.4byte	0x49
 1085 04b7 13       		.uleb128 0x13
 1086 04b8 1B010000 		.4byte	.LASF195
 1087 04bc 14       		.byte	0x14
 1088 04bd 21       		.byte	0x21
 1089 04be 14       		.uleb128 0x14
 1090 04bf A6000000 		.4byte	.LASF71
 1091 04c3 02       		.byte	0x2
 1092 04c4 0B       		.byte	0xb
 1093 04c5 06       		.byte	0x6
 1094 04c6 4A050000 		.4byte	0x54a
 1095 04ca 15       		.uleb128 0x15
 1096 04cb 9B000000 		.4byte	.LASF74
 1097 04cf 0B       		.byte	0xb
 1098 04d0 08       		.byte	0x8
 1099 04d1 62000000 		.4byte	0x62
 1100 04d5 02       		.byte	0x2
 1101 04d6 23       		.byte	0x23
 1102 04d7 00       		.uleb128 0
 1103 04d8 02       		.byte	0x2
 1104 04d9 16       		.uleb128 0x16
 1105 04da 01       		.byte	0x1
 1106 04db A6000000 		.4byte	.LASF71
 1107 04df 0B       		.byte	0xb
 1108 04e0 0A       		.byte	0xa
 1109 04e1 4A050000 		.4byte	0x54a
 1110 04e5 01       		.byte	0x1
 1111 04e6 EE040000 		.4byte	0x4ee
 1112 04ea F5040000 		.4byte	0x4f5
 1113 04ee 17       		.uleb128 0x17
 1114 04ef 4A050000 		.4byte	0x54a
 1115 04f3 01       		.byte	0x1
 1116 04f4 00       		.byte	0
 1117 04f5 18       		.uleb128 0x18
 1118 04f6 01       		.byte	0x1
 1119 04f7 B8060000 		.4byte	.LASF72
 1120 04fb 0B       		.byte	0xb
 1121 04fc 0B       		.byte	0xb
 1122 04fd 7C0A0000 		.4byte	.LASF91
 1123 0501 01       		.byte	0x1
 1124 0502 0A050000 		.4byte	0x50a
 1125 0506 11050000 		.4byte	0x511
 1126 050a 17       		.uleb128 0x17
 1127 050b 4A050000 		.4byte	0x54a
 1128 050f 01       		.byte	0x1
 1129 0510 00       		.byte	0
 1130 0511 19       		.uleb128 0x19
 1131 0512 01       		.byte	0x1
 1132 0513 A00A0000 		.4byte	.LASF80
 1133 0517 0B       		.byte	0xb
 1134 0518 0C       		.byte	0xc
ARM GAS  /tmp/ccPXEhp1.s 			page 21


 1135 0519 00000000 		.4byte	.LASF82
 1136 051d B1000000 		.4byte	0xb1
 1137 0521 01       		.byte	0x1
 1138 0522 2A050000 		.4byte	0x52a
 1139 0526 31050000 		.4byte	0x531
 1140 052a 17       		.uleb128 0x17
 1141 052b 4A050000 		.4byte	0x54a
 1142 052f 01       		.byte	0x1
 1143 0530 00       		.byte	0
 1144 0531 1A       		.uleb128 0x1a
 1145 0532 01       		.byte	0x1
 1146 0533 09040000 		.4byte	.LASF110
 1147 0537 0B       		.byte	0xb
 1148 0538 0D       		.byte	0xd
 1149 0539 ED010000 		.4byte	.LASF111
 1150 053d 01       		.byte	0x1
 1151 053e 42050000 		.4byte	0x542
 1152 0542 17       		.uleb128 0x17
 1153 0543 4A050000 		.4byte	0x54a
 1154 0547 01       		.byte	0x1
 1155 0548 00       		.byte	0
 1156 0549 00       		.byte	0
 1157 054a 0B       		.uleb128 0xb
 1158 054b 04       		.byte	0x4
 1159 054c BE040000 		.4byte	0x4be
 1160 0550 14       		.uleb128 0x14
 1161 0551 010C0000 		.4byte	.LASF73
 1162 0555 14       		.byte	0x14
 1163 0556 0C       		.byte	0xc
 1164 0557 07       		.byte	0x7
 1165 0558 94060000 		.4byte	0x694
 1166 055c 15       		.uleb128 0x15
 1167 055d 29030000 		.4byte	.LASF75
 1168 0561 0C       		.byte	0xc
 1169 0562 09       		.byte	0x9
 1170 0563 94060000 		.4byte	0x694
 1171 0567 02       		.byte	0x2
 1172 0568 23       		.byte	0x23
 1173 0569 00       		.uleb128 0
 1174 056a 02       		.byte	0x2
 1175 056b 15       		.uleb128 0x15
 1176 056c B10B0000 		.4byte	.LASF76
 1177 0570 0C       		.byte	0xc
 1178 0571 0A       		.byte	0xa
 1179 0572 94060000 		.4byte	0x694
 1180 0576 02       		.byte	0x2
 1181 0577 23       		.byte	0x23
 1182 0578 04       		.uleb128 0x4
 1183 0579 02       		.byte	0x2
 1184 057a 15       		.uleb128 0x15
 1185 057b 2E060000 		.4byte	.LASF77
 1186 057f 0C       		.byte	0xc
 1187 0580 0B       		.byte	0xb
 1188 0581 94060000 		.4byte	0x694
 1189 0585 02       		.byte	0x2
 1190 0586 23       		.byte	0x23
 1191 0587 08       		.uleb128 0x8
ARM GAS  /tmp/ccPXEhp1.s 			page 22


 1192 0588 02       		.byte	0x2
 1193 0589 15       		.uleb128 0x15
 1194 058a 0F040000 		.4byte	.LASF78
 1195 058e 0C       		.byte	0xc
 1196 058f 0C       		.byte	0xc
 1197 0590 94060000 		.4byte	0x694
 1198 0594 02       		.byte	0x2
 1199 0595 23       		.byte	0x23
 1200 0596 0C       		.uleb128 0xc
 1201 0597 02       		.byte	0x2
 1202 0598 15       		.uleb128 0x15
 1203 0599 E00A0000 		.4byte	.LASF79
 1204 059d 0C       		.byte	0xc
 1205 059e 0D       		.byte	0xd
 1206 059f 86000000 		.4byte	0x86
 1207 05a3 02       		.byte	0x2
 1208 05a4 23       		.byte	0x23
 1209 05a5 10       		.uleb128 0x10
 1210 05a6 02       		.byte	0x2
 1211 05a7 16       		.uleb128 0x16
 1212 05a8 01       		.byte	0x1
 1213 05a9 010C0000 		.4byte	.LASF73
 1214 05ad 0C       		.byte	0xc
 1215 05ae 0F       		.byte	0xf
 1216 05af 9A060000 		.4byte	0x69a
 1217 05b3 01       		.byte	0x1
 1218 05b4 BC050000 		.4byte	0x5bc
 1219 05b8 CD050000 		.4byte	0x5cd
 1220 05bc 17       		.uleb128 0x17
 1221 05bd 9A060000 		.4byte	0x69a
 1222 05c1 01       		.byte	0x1
 1223 05c2 11       		.uleb128 0x11
 1224 05c3 94060000 		.4byte	0x694
 1225 05c7 11       		.uleb128 0x11
 1226 05c8 86000000 		.4byte	0x86
 1227 05cc 00       		.byte	0
 1228 05cd 19       		.uleb128 0x19
 1229 05ce 01       		.byte	0x1
 1230 05cf 75050000 		.4byte	.LASF81
 1231 05d3 0C       		.byte	0xc
 1232 05d4 10       		.byte	0x10
 1233 05d5 8D050000 		.4byte	.LASF83
 1234 05d9 86000000 		.4byte	0x86
 1235 05dd 01       		.byte	0x1
 1236 05de E6050000 		.4byte	0x5e6
 1237 05e2 ED050000 		.4byte	0x5ed
 1238 05e6 17       		.uleb128 0x17
 1239 05e7 9A060000 		.4byte	0x69a
 1240 05eb 01       		.byte	0x1
 1241 05ec 00       		.byte	0
 1242 05ed 19       		.uleb128 0x19
 1243 05ee 01       		.byte	0x1
 1244 05ef A20B0000 		.4byte	.LASF84
 1245 05f3 0C       		.byte	0xc
 1246 05f4 11       		.byte	0x11
 1247 05f5 360B0000 		.4byte	.LASF85
 1248 05f9 86000000 		.4byte	0x86
ARM GAS  /tmp/ccPXEhp1.s 			page 23


 1249 05fd 01       		.byte	0x1
 1250 05fe 06060000 		.4byte	0x606
 1251 0602 0D060000 		.4byte	0x60d
 1252 0606 17       		.uleb128 0x17
 1253 0607 9A060000 		.4byte	0x69a
 1254 060b 01       		.byte	0x1
 1255 060c 00       		.byte	0
 1256 060d 1B       		.uleb128 0x1b
 1257 060e 01       		.byte	0x1
 1258 060f 67657400 		.ascii	"get\000"
 1259 0613 0C       		.byte	0xc
 1260 0614 12       		.byte	0x12
 1261 0615 6F010000 		.4byte	.LASF88
 1262 0619 4A050000 		.4byte	0x54a
 1263 061d 01       		.byte	0x1
 1264 061e 26060000 		.4byte	0x626
 1265 0622 2D060000 		.4byte	0x62d
 1266 0626 17       		.uleb128 0x17
 1267 0627 9A060000 		.4byte	0x69a
 1268 062b 01       		.byte	0x1
 1269 062c 00       		.byte	0
 1270 062d 19       		.uleb128 0x19
 1271 062e 01       		.byte	0x1
 1272 062f 8F000000 		.4byte	.LASF86
 1273 0633 0C       		.byte	0xc
 1274 0634 13       		.byte	0x13
 1275 0635 390A0000 		.4byte	.LASF87
 1276 0639 4A050000 		.4byte	0x54a
 1277 063d 01       		.byte	0x1
 1278 063e 46060000 		.4byte	0x646
 1279 0642 4D060000 		.4byte	0x64d
 1280 0646 17       		.uleb128 0x17
 1281 0647 9A060000 		.4byte	0x69a
 1282 064b 01       		.byte	0x1
 1283 064c 00       		.byte	0
 1284 064d 1B       		.uleb128 0x1b
 1285 064e 01       		.byte	0x1
 1286 064f 70757400 		.ascii	"put\000"
 1287 0653 0C       		.byte	0xc
 1288 0654 14       		.byte	0x14
 1289 0655 0A0A0000 		.4byte	.LASF89
 1290 0659 B1000000 		.4byte	0xb1
 1291 065d 01       		.byte	0x1
 1292 065e 66060000 		.4byte	0x666
 1293 0662 72060000 		.4byte	0x672
 1294 0666 17       		.uleb128 0x17
 1295 0667 9A060000 		.4byte	0x69a
 1296 066b 01       		.byte	0x1
 1297 066c 11       		.uleb128 0x11
 1298 066d 4A050000 		.4byte	0x54a
 1299 0671 00       		.byte	0
 1300 0672 1C       		.uleb128 0x1c
 1301 0673 01       		.byte	0x1
 1302 0674 CE0A0000 		.4byte	.LASF90
 1303 0678 0C       		.byte	0xc
 1304 0679 15       		.byte	0x15
 1305 067a A4040000 		.4byte	.LASF92
ARM GAS  /tmp/ccPXEhp1.s 			page 24


 1306 067e B1000000 		.4byte	0xb1
 1307 0682 01       		.byte	0x1
 1308 0683 87060000 		.4byte	0x687
 1309 0687 17       		.uleb128 0x17
 1310 0688 9A060000 		.4byte	0x69a
 1311 068c 01       		.byte	0x1
 1312 068d 11       		.uleb128 0x11
 1313 068e 4A050000 		.4byte	0x54a
 1314 0692 00       		.byte	0
 1315 0693 00       		.byte	0
 1316 0694 0B       		.uleb128 0xb
 1317 0695 04       		.byte	0x4
 1318 0696 4A050000 		.4byte	0x54a
 1319 069a 0B       		.uleb128 0xb
 1320 069b 04       		.byte	0x4
 1321 069c 50050000 		.4byte	0x550
 1322 06a0 14       		.uleb128 0x14
 1323 06a1 15060000 		.4byte	.LASF93
 1324 06a5 18       		.byte	0x18
 1325 06a6 0D       		.byte	0xd
 1326 06a7 0A       		.byte	0xa
 1327 06a8 EF070000 		.4byte	0x7ef
 1328 06ac 15       		.uleb128 0x15
 1329 06ad 95020000 		.4byte	.LASF94
 1330 06b1 0D       		.byte	0xd
 1331 06b2 0C       		.byte	0xc
 1332 06b3 93040000 		.4byte	0x493
 1333 06b7 02       		.byte	0x2
 1334 06b8 23       		.byte	0x23
 1335 06b9 00       		.uleb128 0
 1336 06ba 02       		.byte	0x2
 1337 06bb 15       		.uleb128 0x15
 1338 06bc 6D030000 		.4byte	.LASF95
 1339 06c0 0D       		.byte	0xd
 1340 06c1 0D       		.byte	0xd
 1341 06c2 E0090000 		.4byte	0x9e0
 1342 06c6 02       		.byte	0x2
 1343 06c7 23       		.byte	0x23
 1344 06c8 04       		.uleb128 0x4
 1345 06c9 02       		.byte	0x2
 1346 06ca 15       		.uleb128 0x15
 1347 06cb 45080000 		.4byte	.LASF96
 1348 06cf 0D       		.byte	0xd
 1349 06d0 0E       		.byte	0xe
 1350 06d1 6B0B0000 		.4byte	0xb6b
 1351 06d5 02       		.byte	0x2
 1352 06d6 23       		.byte	0x23
 1353 06d7 08       		.uleb128 0x8
 1354 06d8 02       		.byte	0x2
 1355 06d9 15       		.uleb128 0x15
 1356 06da 8C010000 		.4byte	.LASF97
 1357 06de 0D       		.byte	0xd
 1358 06df 0F       		.byte	0xf
 1359 06e0 82040000 		.4byte	0x482
 1360 06e4 02       		.byte	0x2
 1361 06e5 23       		.byte	0x23
 1362 06e6 0C       		.uleb128 0xc
ARM GAS  /tmp/ccPXEhp1.s 			page 25


 1363 06e7 02       		.byte	0x2
 1364 06e8 16       		.uleb128 0x16
 1365 06e9 01       		.byte	0x1
 1366 06ea 15060000 		.4byte	.LASF93
 1367 06ee 0D       		.byte	0xd
 1368 06ef 11       		.byte	0x11
 1369 06f0 710B0000 		.4byte	0xb71
 1370 06f4 01       		.byte	0x1
 1371 06f5 FD060000 		.4byte	0x6fd
 1372 06f9 0E070000 		.4byte	0x70e
 1373 06fd 17       		.uleb128 0x17
 1374 06fe 710B0000 		.4byte	0xb71
 1375 0702 01       		.byte	0x1
 1376 0703 11       		.uleb128 0x11
 1377 0704 93040000 		.4byte	0x493
 1378 0708 11       		.uleb128 0x11
 1379 0709 30000000 		.4byte	0x30
 1380 070d 00       		.byte	0
 1381 070e 19       		.uleb128 0x19
 1382 070f 01       		.byte	0x1
 1383 0710 F1020000 		.4byte	.LASF98
 1384 0714 0D       		.byte	0xd
 1385 0715 12       		.byte	0x12
 1386 0716 A30C0000 		.4byte	.LASF99
 1387 071a 93040000 		.4byte	0x493
 1388 071e 01       		.byte	0x1
 1389 071f 27070000 		.4byte	0x727
 1390 0723 2E070000 		.4byte	0x72e
 1391 0727 17       		.uleb128 0x17
 1392 0728 710B0000 		.4byte	0xb71
 1393 072c 01       		.byte	0x1
 1394 072d 00       		.byte	0
 1395 072e 19       		.uleb128 0x19
 1396 072f 01       		.byte	0x1
 1397 0730 C80A0000 		.4byte	.LASF100
 1398 0734 0D       		.byte	0xd
 1399 0735 13       		.byte	0x13
 1400 0736 4B040000 		.4byte	.LASF101
 1401 073a 4A050000 		.4byte	0x54a
 1402 073e 01       		.byte	0x1
 1403 073f 47070000 		.4byte	0x747
 1404 0743 4E070000 		.4byte	0x74e
 1405 0747 17       		.uleb128 0x17
 1406 0748 710B0000 		.4byte	0xb71
 1407 074c 01       		.byte	0x1
 1408 074d 00       		.byte	0
 1409 074e 19       		.uleb128 0x19
 1410 074f 01       		.byte	0x1
 1411 0750 E4000000 		.4byte	.LASF102
 1412 0754 0D       		.byte	0xd
 1413 0755 14       		.byte	0x14
 1414 0756 35090000 		.4byte	.LASF103
 1415 075a 4A050000 		.4byte	0x54a
 1416 075e 01       		.byte	0x1
 1417 075f 67070000 		.4byte	0x767
 1418 0763 6E070000 		.4byte	0x76e
 1419 0767 17       		.uleb128 0x17
ARM GAS  /tmp/ccPXEhp1.s 			page 26


 1420 0768 710B0000 		.4byte	0xb71
 1421 076c 01       		.byte	0x1
 1422 076d 00       		.byte	0
 1423 076e 18       		.uleb128 0x18
 1424 076f 01       		.byte	0x1
 1425 0770 D9010000 		.4byte	.LASF104
 1426 0774 0D       		.byte	0xd
 1427 0775 15       		.byte	0x15
 1428 0776 90030000 		.4byte	.LASF105
 1429 077a 01       		.byte	0x1
 1430 077b 83070000 		.4byte	0x783
 1431 077f 8F070000 		.4byte	0x78f
 1432 0783 17       		.uleb128 0x17
 1433 0784 710B0000 		.4byte	0xb71
 1434 0788 01       		.byte	0x1
 1435 0789 11       		.uleb128 0x11
 1436 078a 4A050000 		.4byte	0x54a
 1437 078e 00       		.byte	0
 1438 078f 18       		.uleb128 0x18
 1439 0790 01       		.byte	0x1
 1440 0791 15040000 		.4byte	.LASF106
 1441 0795 0D       		.byte	0xd
 1442 0796 16       		.byte	0x16
 1443 0797 E40C0000 		.4byte	.LASF107
 1444 079b 01       		.byte	0x1
 1445 079c A4070000 		.4byte	0x7a4
 1446 07a0 B0070000 		.4byte	0x7b0
 1447 07a4 17       		.uleb128 0x17
 1448 07a5 710B0000 		.4byte	0xb71
 1449 07a9 01       		.byte	0x1
 1450 07aa 11       		.uleb128 0x11
 1451 07ab 4A050000 		.4byte	0x54a
 1452 07af 00       		.byte	0
 1453 07b0 18       		.uleb128 0x18
 1454 07b1 01       		.byte	0x1
 1455 07b2 94080000 		.4byte	.LASF108
 1456 07b6 0D       		.byte	0xd
 1457 07b7 17       		.byte	0x17
 1458 07b8 E0040000 		.4byte	.LASF109
 1459 07bc 01       		.byte	0x1
 1460 07bd C5070000 		.4byte	0x7c5
 1461 07c1 D1070000 		.4byte	0x7d1
 1462 07c5 17       		.uleb128 0x17
 1463 07c6 710B0000 		.4byte	0xb71
 1464 07ca 01       		.byte	0x1
 1465 07cb 11       		.uleb128 0x11
 1466 07cc 6B0B0000 		.4byte	0xb6b
 1467 07d0 00       		.byte	0
 1468 07d1 1A       		.uleb128 0x1a
 1469 07d2 01       		.byte	0x1
 1470 07d3 94080000 		.4byte	.LASF108
 1471 07d7 0D       		.byte	0xd
 1472 07d8 18       		.byte	0x18
 1473 07d9 B6080000 		.4byte	.LASF112
 1474 07dd 01       		.byte	0x1
 1475 07de E2070000 		.4byte	0x7e2
 1476 07e2 17       		.uleb128 0x17
ARM GAS  /tmp/ccPXEhp1.s 			page 27


 1477 07e3 710B0000 		.4byte	0xb71
 1478 07e7 01       		.byte	0x1
 1479 07e8 11       		.uleb128 0x11
 1480 07e9 E0090000 		.4byte	0x9e0
 1481 07ed 00       		.byte	0
 1482 07ee 00       		.byte	0
 1483 07ef 05       		.uleb128 0x5
 1484 07f0 25090000 		.4byte	.LASF113
 1485 07f4 3C       		.byte	0x3c
 1486 07f5 0E       		.byte	0xe
 1487 07f6 0D       		.byte	0xd
 1488 07f7 E0090000 		.4byte	0x9e0
 1489 07fb 1D       		.uleb128 0x1d
 1490 07fc 100E0000 		.4byte	0xe10
 1491 0800 02       		.byte	0x2
 1492 0801 23       		.byte	0x23
 1493 0802 00       		.uleb128 0
 1494 0803 01       		.byte	0x1
 1495 0804 15       		.uleb128 0x15
 1496 0805 D30A0000 		.4byte	.LASF114
 1497 0809 0E       		.byte	0xe
 1498 080a 0F       		.byte	0xf
 1499 080b CD100000 		.4byte	0x10cd
 1500 080f 02       		.byte	0x2
 1501 0810 23       		.byte	0x23
 1502 0811 28       		.uleb128 0x28
 1503 0812 02       		.byte	0x2
 1504 0813 15       		.uleb128 0x15
 1505 0814 AA070000 		.4byte	.LASF115
 1506 0818 0E       		.byte	0xe
 1507 0819 10       		.byte	0x10
 1508 081a CD100000 		.4byte	0x10cd
 1509 081e 02       		.byte	0x2
 1510 081f 23       		.byte	0x23
 1511 0820 2C       		.uleb128 0x2c
 1512 0821 02       		.byte	0x2
 1513 0822 1E       		.uleb128 0x1e
 1514 0823 5F747000 		.ascii	"_tp\000"
 1515 0827 0E       		.byte	0xe
 1516 0828 11       		.byte	0x11
 1517 0829 B7020000 		.4byte	0x2b7
 1518 082d 02       		.byte	0x2
 1519 082e 23       		.byte	0x23
 1520 082f 30       		.uleb128 0x30
 1521 0830 02       		.byte	0x2
 1522 0831 15       		.uleb128 0x15
 1523 0832 DE0C0000 		.4byte	.LASF116
 1524 0836 0E       		.byte	0xe
 1525 0837 12       		.byte	0x12
 1526 0838 05010000 		.4byte	0x105
 1527 083c 02       		.byte	0x2
 1528 083d 23       		.byte	0x23
 1529 083e 34       		.uleb128 0x34
 1530 083f 02       		.byte	0x2
 1531 0840 15       		.uleb128 0x15
 1532 0841 2F0A0000 		.4byte	.LASF117
 1533 0845 0E       		.byte	0xe
ARM GAS  /tmp/ccPXEhp1.s 			page 28


 1534 0846 13       		.byte	0x13
 1535 0847 F40D0000 		.4byte	0xdf4
 1536 084b 02       		.byte	0x2
 1537 084c 23       		.byte	0x23
 1538 084d 38       		.uleb128 0x38
 1539 084e 02       		.byte	0x2
 1540 084f 16       		.uleb128 0x16
 1541 0850 01       		.byte	0x1
 1542 0851 25090000 		.4byte	.LASF113
 1543 0855 0E       		.byte	0xe
 1544 0856 15       		.byte	0x15
 1545 0857 E0090000 		.4byte	0x9e0
 1546 085b 01       		.byte	0x1
 1547 085c 64080000 		.4byte	0x864
 1548 0860 89080000 		.4byte	0x889
 1549 0864 17       		.uleb128 0x17
 1550 0865 E0090000 		.4byte	0x9e0
 1551 0869 01       		.byte	0x1
 1552 086a 11       		.uleb128 0x11
 1553 086b 93040000 		.4byte	0x493
 1554 086f 11       		.uleb128 0x11
 1555 0870 30000000 		.4byte	0x30
 1556 0874 11       		.uleb128 0x11
 1557 0875 B1040000 		.4byte	0x4b1
 1558 0879 11       		.uleb128 0x11
 1559 087a 94060000 		.4byte	0x694
 1560 087e 11       		.uleb128 0x11
 1561 087f 86000000 		.4byte	0x86
 1562 0883 11       		.uleb128 0x11
 1563 0884 F40D0000 		.4byte	0xdf4
 1564 0888 00       		.byte	0
 1565 0889 19       		.uleb128 0x19
 1566 088a 01       		.byte	0x1
 1567 088b 87010000 		.4byte	.LASF118
 1568 088f 0E       		.byte	0xe
 1569 0890 17       		.byte	0x17
 1570 0891 7E040000 		.4byte	.LASF119
 1571 0895 CD100000 		.4byte	0x10cd
 1572 0899 01       		.byte	0x1
 1573 089a A2080000 		.4byte	0x8a2
 1574 089e A9080000 		.4byte	0x8a9
 1575 08a2 17       		.uleb128 0x17
 1576 08a3 E0090000 		.4byte	0x9e0
 1577 08a7 01       		.byte	0x1
 1578 08a8 00       		.byte	0
 1579 08a9 18       		.uleb128 0x18
 1580 08aa 01       		.byte	0x1
 1581 08ab 87010000 		.4byte	.LASF118
 1582 08af 0E       		.byte	0xe
 1583 08b0 18       		.byte	0x18
 1584 08b1 1F080000 		.4byte	.LASF120
 1585 08b5 01       		.byte	0x1
 1586 08b6 BE080000 		.4byte	0x8be
 1587 08ba CA080000 		.4byte	0x8ca
 1588 08be 17       		.uleb128 0x17
 1589 08bf E0090000 		.4byte	0x9e0
 1590 08c3 01       		.byte	0x1
ARM GAS  /tmp/ccPXEhp1.s 			page 29


 1591 08c4 11       		.uleb128 0x11
 1592 08c5 CD100000 		.4byte	0x10cd
 1593 08c9 00       		.byte	0
 1594 08ca 18       		.uleb128 0x18
 1595 08cb 01       		.byte	0x1
 1596 08cc F0030000 		.4byte	.LASF121
 1597 08d0 0E       		.byte	0xe
 1598 08d1 19       		.byte	0x19
 1599 08d2 57060000 		.4byte	.LASF122
 1600 08d6 01       		.byte	0x1
 1601 08d7 DF080000 		.4byte	0x8df
 1602 08db EB080000 		.4byte	0x8eb
 1603 08df 17       		.uleb128 0x17
 1604 08e0 E0090000 		.4byte	0x9e0
 1605 08e4 01       		.byte	0x1
 1606 08e5 11       		.uleb128 0x11
 1607 08e6 CD100000 		.4byte	0x10cd
 1608 08ea 00       		.byte	0
 1609 08eb 19       		.uleb128 0x19
 1610 08ec 01       		.byte	0x1
 1611 08ed 640A0000 		.4byte	.LASF123
 1612 08f1 0E       		.byte	0xe
 1613 08f2 1A       		.byte	0x1a
 1614 08f3 F7020000 		.4byte	.LASF124
 1615 08f7 CD100000 		.4byte	0x10cd
 1616 08fb 01       		.byte	0x1
 1617 08fc 04090000 		.4byte	0x904
 1618 0900 10090000 		.4byte	0x910
 1619 0904 17       		.uleb128 0x17
 1620 0905 E0090000 		.4byte	0x9e0
 1621 0909 01       		.byte	0x1
 1622 090a 11       		.uleb128 0x11
 1623 090b 4A050000 		.4byte	0x54a
 1624 090f 00       		.byte	0
 1625 0910 19       		.uleb128 0x19
 1626 0911 01       		.byte	0x1
 1627 0912 640A0000 		.4byte	.LASF123
 1628 0916 0E       		.byte	0xe
 1629 0917 1B       		.byte	0x1b
 1630 0918 310C0000 		.4byte	.LASF125
 1631 091c CD100000 		.4byte	0x10cd
 1632 0920 01       		.byte	0x1
 1633 0921 29090000 		.4byte	0x929
 1634 0925 3A090000 		.4byte	0x93a
 1635 0929 17       		.uleb128 0x17
 1636 092a E0090000 		.4byte	0x9e0
 1637 092e 01       		.byte	0x1
 1638 092f 11       		.uleb128 0x11
 1639 0930 4A050000 		.4byte	0x54a
 1640 0934 11       		.uleb128 0x11
 1641 0935 D3100000 		.4byte	0x10d3
 1642 0939 00       		.byte	0
 1643 093a 18       		.uleb128 0x18
 1644 093b 01       		.byte	0x1
 1645 093c CF010000 		.4byte	.LASF126
 1646 0940 0E       		.byte	0xe
 1647 0941 1C       		.byte	0x1c
ARM GAS  /tmp/ccPXEhp1.s 			page 30


 1648 0942 3E050000 		.4byte	.LASF127
 1649 0946 01       		.byte	0x1
 1650 0947 4F090000 		.4byte	0x94f
 1651 094b 60090000 		.4byte	0x960
 1652 094f 17       		.uleb128 0x17
 1653 0950 E0090000 		.4byte	0x9e0
 1654 0954 01       		.byte	0x1
 1655 0955 11       		.uleb128 0x11
 1656 0956 8A0C0000 		.4byte	0xc8a
 1657 095a 11       		.uleb128 0x11
 1658 095b 05010000 		.4byte	0x105
 1659 095f 00       		.byte	0
 1660 0960 18       		.uleb128 0x18
 1661 0961 01       		.byte	0x1
 1662 0962 CF010000 		.4byte	.LASF126
 1663 0966 0E       		.byte	0xe
 1664 0967 1D       		.byte	0x1d
 1665 0968 CC090000 		.4byte	.LASF128
 1666 096c 01       		.byte	0x1
 1667 096d 75090000 		.4byte	0x975
 1668 0971 86090000 		.4byte	0x986
 1669 0975 17       		.uleb128 0x17
 1670 0976 E0090000 		.4byte	0x9e0
 1671 097a 01       		.byte	0x1
 1672 097b 11       		.uleb128 0x11
 1673 097c C7100000 		.4byte	0x10c7
 1674 0980 11       		.uleb128 0x11
 1675 0981 05010000 		.4byte	0x105
 1676 0985 00       		.byte	0
 1677 0986 18       		.uleb128 0x18
 1678 0987 01       		.byte	0x1
 1679 0988 94080000 		.4byte	.LASF108
 1680 098c 0E       		.byte	0xe
 1681 098d 1E       		.byte	0x1e
 1682 098e 9C020000 		.4byte	.LASF129
 1683 0992 01       		.byte	0x1
 1684 0993 9B090000 		.4byte	0x99b
 1685 0997 A2090000 		.4byte	0x9a2
 1686 099b 17       		.uleb128 0x17
 1687 099c E0090000 		.4byte	0x9e0
 1688 09a0 01       		.byte	0x1
 1689 09a1 00       		.byte	0
 1690 09a2 19       		.uleb128 0x19
 1691 09a3 01       		.byte	0x1
 1692 09a4 DF050000 		.4byte	.LASF130
 1693 09a8 0E       		.byte	0xe
 1694 09a9 1F       		.byte	0x1f
 1695 09aa DA070000 		.4byte	.LASF131
 1696 09ae F40D0000 		.4byte	0xdf4
 1697 09b2 01       		.byte	0x1
 1698 09b3 BB090000 		.4byte	0x9bb
 1699 09b7 C2090000 		.4byte	0x9c2
 1700 09bb 17       		.uleb128 0x17
 1701 09bc E0090000 		.4byte	0x9e0
 1702 09c0 01       		.byte	0x1
 1703 09c1 00       		.byte	0
 1704 09c2 1A       		.uleb128 0x1a
ARM GAS  /tmp/ccPXEhp1.s 			page 31


 1705 09c3 01       		.byte	0x1
 1706 09c4 DF050000 		.4byte	.LASF130
 1707 09c8 0E       		.byte	0xe
 1708 09c9 20       		.byte	0x20
 1709 09ca 500B0000 		.4byte	.LASF132
 1710 09ce 01       		.byte	0x1
 1711 09cf D3090000 		.4byte	0x9d3
 1712 09d3 17       		.uleb128 0x17
 1713 09d4 E0090000 		.4byte	0x9e0
 1714 09d8 01       		.byte	0x1
 1715 09d9 11       		.uleb128 0x11
 1716 09da 4A050000 		.4byte	0x54a
 1717 09de 00       		.byte	0
 1718 09df 00       		.byte	0
 1719 09e0 0B       		.uleb128 0xb
 1720 09e1 04       		.byte	0x4
 1721 09e2 EF070000 		.4byte	0x7ef
 1722 09e6 05       		.uleb128 0x5
 1723 09e7 B2000000 		.4byte	.LASF133
 1724 09eb 34       		.byte	0x34
 1725 09ec 0F       		.byte	0xf
 1726 09ed 0A       		.byte	0xa
 1727 09ee 6B0B0000 		.4byte	0xb6b
 1728 09f2 1D       		.uleb128 0x1d
 1729 09f3 100E0000 		.4byte	0xe10
 1730 09f7 02       		.byte	0x2
 1731 09f8 23       		.byte	0x23
 1732 09f9 00       		.uleb128 0
 1733 09fa 01       		.byte	0x1
 1734 09fb 1E       		.uleb128 0x1e
 1735 09fc 5F696400 		.ascii	"_id\000"
 1736 0a00 0F       		.byte	0xf
 1737 0a01 0D       		.byte	0xd
 1738 0a02 62000000 		.4byte	0x62
 1739 0a06 02       		.byte	0x2
 1740 0a07 23       		.byte	0x23
 1741 0a08 28       		.uleb128 0x28
 1742 0a09 03       		.byte	0x3
 1743 0a0a 15       		.uleb128 0x15
 1744 0a0b D30A0000 		.4byte	.LASF114
 1745 0a0f 0F       		.byte	0xf
 1746 0a10 0F       		.byte	0xf
 1747 0a11 D9100000 		.4byte	0x10d9
 1748 0a15 02       		.byte	0x2
 1749 0a16 23       		.byte	0x23
 1750 0a17 2C       		.uleb128 0x2c
 1751 0a18 02       		.byte	0x2
 1752 0a19 15       		.uleb128 0x15
 1753 0a1a AA070000 		.4byte	.LASF115
 1754 0a1e 0F       		.byte	0xf
 1755 0a1f 10       		.byte	0x10
 1756 0a20 D9100000 		.4byte	0x10d9
 1757 0a24 02       		.byte	0x2
 1758 0a25 23       		.byte	0x23
 1759 0a26 30       		.uleb128 0x30
 1760 0a27 02       		.byte	0x2
 1761 0a28 16       		.uleb128 0x16
ARM GAS  /tmp/ccPXEhp1.s 			page 32


 1762 0a29 01       		.byte	0x1
 1763 0a2a B2000000 		.4byte	.LASF133
 1764 0a2e 0F       		.byte	0xf
 1765 0a2f 12       		.byte	0x12
 1766 0a30 6B0B0000 		.4byte	0xb6b
 1767 0a34 01       		.byte	0x1
 1768 0a35 3D0A0000 		.4byte	0xa3d
 1769 0a39 5D0A0000 		.4byte	0xa5d
 1770 0a3d 17       		.uleb128 0x17
 1771 0a3e 6B0B0000 		.4byte	0xb6b
 1772 0a42 01       		.byte	0x1
 1773 0a43 11       		.uleb128 0x11
 1774 0a44 93040000 		.4byte	0x493
 1775 0a48 11       		.uleb128 0x11
 1776 0a49 30000000 		.4byte	0x30
 1777 0a4d 11       		.uleb128 0x11
 1778 0a4e B1040000 		.4byte	0x4b1
 1779 0a52 11       		.uleb128 0x11
 1780 0a53 94060000 		.4byte	0x694
 1781 0a57 11       		.uleb128 0x11
 1782 0a58 86000000 		.4byte	0x86
 1783 0a5c 00       		.byte	0
 1784 0a5d 19       		.uleb128 0x19
 1785 0a5e 01       		.byte	0x1
 1786 0a5f 87010000 		.4byte	.LASF118
 1787 0a63 0F       		.byte	0xf
 1788 0a64 13       		.byte	0x13
 1789 0a65 02080000 		.4byte	.LASF134
 1790 0a69 D9100000 		.4byte	0x10d9
 1791 0a6d 01       		.byte	0x1
 1792 0a6e 760A0000 		.4byte	0xa76
 1793 0a72 7D0A0000 		.4byte	0xa7d
 1794 0a76 17       		.uleb128 0x17
 1795 0a77 6B0B0000 		.4byte	0xb6b
 1796 0a7b 01       		.byte	0x1
 1797 0a7c 00       		.byte	0
 1798 0a7d 18       		.uleb128 0x18
 1799 0a7e 01       		.byte	0x1
 1800 0a7f 87010000 		.4byte	.LASF118
 1801 0a83 0F       		.byte	0xf
 1802 0a84 14       		.byte	0x14
 1803 0a85 76020000 		.4byte	.LASF135
 1804 0a89 01       		.byte	0x1
 1805 0a8a 920A0000 		.4byte	0xa92
 1806 0a8e 9E0A0000 		.4byte	0xa9e
 1807 0a92 17       		.uleb128 0x17
 1808 0a93 6B0B0000 		.4byte	0xb6b
 1809 0a97 01       		.byte	0x1
 1810 0a98 11       		.uleb128 0x11
 1811 0a99 D9100000 		.4byte	0x10d9
 1812 0a9d 00       		.byte	0
 1813 0a9e 18       		.uleb128 0x18
 1814 0a9f 01       		.byte	0x1
 1815 0aa0 F0030000 		.4byte	.LASF121
 1816 0aa4 0F       		.byte	0xf
 1817 0aa5 15       		.byte	0x15
 1818 0aa6 99060000 		.4byte	.LASF136
ARM GAS  /tmp/ccPXEhp1.s 			page 33


 1819 0aaa 01       		.byte	0x1
 1820 0aab B30A0000 		.4byte	0xab3
 1821 0aaf BF0A0000 		.4byte	0xabf
 1822 0ab3 17       		.uleb128 0x17
 1823 0ab4 6B0B0000 		.4byte	0xb6b
 1824 0ab8 01       		.byte	0x1
 1825 0ab9 11       		.uleb128 0x11
 1826 0aba D9100000 		.4byte	0x10d9
 1827 0abe 00       		.byte	0
 1828 0abf 19       		.uleb128 0x19
 1829 0ac0 01       		.byte	0x1
 1830 0ac1 640A0000 		.4byte	.LASF123
 1831 0ac5 0F       		.byte	0xf
 1832 0ac6 16       		.byte	0x16
 1833 0ac7 31030000 		.4byte	.LASF137
 1834 0acb D9100000 		.4byte	0x10d9
 1835 0acf 01       		.byte	0x1
 1836 0ad0 D80A0000 		.4byte	0xad8
 1837 0ad4 E40A0000 		.4byte	0xae4
 1838 0ad8 17       		.uleb128 0x17
 1839 0ad9 6B0B0000 		.4byte	0xb6b
 1840 0add 01       		.byte	0x1
 1841 0ade 11       		.uleb128 0x11
 1842 0adf 4A050000 		.4byte	0x54a
 1843 0ae3 00       		.byte	0
 1844 0ae4 19       		.uleb128 0x19
 1845 0ae5 01       		.byte	0x1
 1846 0ae6 640A0000 		.4byte	.LASF123
 1847 0aea 0F       		.byte	0xf
 1848 0aeb 17       		.byte	0x17
 1849 0aec B1050000 		.4byte	.LASF138
 1850 0af0 D9100000 		.4byte	0x10d9
 1851 0af4 01       		.byte	0x1
 1852 0af5 FD0A0000 		.4byte	0xafd
 1853 0af9 0E0B0000 		.4byte	0xb0e
 1854 0afd 17       		.uleb128 0x17
 1855 0afe 6B0B0000 		.4byte	0xb6b
 1856 0b02 01       		.byte	0x1
 1857 0b03 11       		.uleb128 0x11
 1858 0b04 4A050000 		.4byte	0x54a
 1859 0b08 11       		.uleb128 0x11
 1860 0b09 D3100000 		.4byte	0x10d3
 1861 0b0d 00       		.byte	0
 1862 0b0e 18       		.uleb128 0x18
 1863 0b0f 01       		.byte	0x1
 1864 0b10 CF010000 		.4byte	.LASF126
 1865 0b14 0F       		.byte	0xf
 1866 0b15 18       		.byte	0x18
 1867 0b16 040B0000 		.4byte	.LASF139
 1868 0b1a 01       		.byte	0x1
 1869 0b1b 230B0000 		.4byte	0xb23
 1870 0b1f 2F0B0000 		.4byte	0xb2f
 1871 0b23 17       		.uleb128 0x17
 1872 0b24 6B0B0000 		.4byte	0xb6b
 1873 0b28 01       		.byte	0x1
 1874 0b29 11       		.uleb128 0x11
 1875 0b2a 8A0C0000 		.4byte	0xc8a
ARM GAS  /tmp/ccPXEhp1.s 			page 34


 1876 0b2e 00       		.byte	0
 1877 0b2f 1F       		.uleb128 0x1f
 1878 0b30 01       		.byte	0x1
 1879 0b31 696400   		.ascii	"id\000"
 1880 0b34 0F       		.byte	0xf
 1881 0b35 19       		.byte	0x19
 1882 0b36 15020000 		.4byte	.LASF140
 1883 0b3a 01       		.byte	0x1
 1884 0b3b 430B0000 		.4byte	0xb43
 1885 0b3f 4F0B0000 		.4byte	0xb4f
 1886 0b43 17       		.uleb128 0x17
 1887 0b44 6B0B0000 		.4byte	0xb6b
 1888 0b48 01       		.byte	0x1
 1889 0b49 11       		.uleb128 0x11
 1890 0b4a 62000000 		.4byte	0x62
 1891 0b4e 00       		.byte	0
 1892 0b4f 20       		.uleb128 0x20
 1893 0b50 01       		.byte	0x1
 1894 0b51 696400   		.ascii	"id\000"
 1895 0b54 0F       		.byte	0xf
 1896 0b55 1A       		.byte	0x1a
 1897 0b56 30020000 		.4byte	.LASF141
 1898 0b5a 62000000 		.4byte	0x62
 1899 0b5e 01       		.byte	0x1
 1900 0b5f 630B0000 		.4byte	0xb63
 1901 0b63 17       		.uleb128 0x17
 1902 0b64 6B0B0000 		.4byte	0xb6b
 1903 0b68 01       		.byte	0x1
 1904 0b69 00       		.byte	0
 1905 0b6a 00       		.byte	0
 1906 0b6b 0B       		.uleb128 0xb
 1907 0b6c 04       		.byte	0x4
 1908 0b6d E6090000 		.4byte	0x9e6
 1909 0b71 0B       		.uleb128 0xb
 1910 0b72 04       		.byte	0x4
 1911 0b73 A0060000 		.4byte	0x6a0
 1912 0b77 14       		.uleb128 0x14
 1913 0b78 26010000 		.4byte	.LASF142
 1914 0b7c 1C       		.byte	0x1c
 1915 0b7d 10       		.byte	0x10
 1916 0b7e 0A       		.byte	0xa
 1917 0b7f 840C0000 		.4byte	0xc84
 1918 0b83 1D       		.uleb128 0x1d
 1919 0b84 A0060000 		.4byte	0x6a0
 1920 0b88 02       		.byte	0x2
 1921 0b89 23       		.byte	0x23
 1922 0b8a 00       		.uleb128 0
 1923 0b8b 01       		.byte	0x1
 1924 0b8c 15       		.uleb128 0x15
 1925 0b8d D30A0000 		.4byte	.LASF114
 1926 0b91 10       		.byte	0x10
 1927 0b92 0C       		.byte	0xc
 1928 0b93 840C0000 		.4byte	0xc84
 1929 0b97 02       		.byte	0x2
 1930 0b98 23       		.byte	0x23
 1931 0b99 18       		.uleb128 0x18
 1932 0b9a 02       		.byte	0x2
ARM GAS  /tmp/ccPXEhp1.s 			page 35


 1933 0b9b 16       		.uleb128 0x16
 1934 0b9c 01       		.byte	0x1
 1935 0b9d 26010000 		.4byte	.LASF142
 1936 0ba1 10       		.byte	0x10
 1937 0ba2 0E       		.byte	0xe
 1938 0ba3 8A0C0000 		.4byte	0xc8a
 1939 0ba7 01       		.byte	0x1
 1940 0ba8 B00B0000 		.4byte	0xbb0
 1941 0bac C10B0000 		.4byte	0xbc1
 1942 0bb0 17       		.uleb128 0x17
 1943 0bb1 8A0C0000 		.4byte	0xc8a
 1944 0bb5 01       		.byte	0x1
 1945 0bb6 11       		.uleb128 0x11
 1946 0bb7 93040000 		.4byte	0x493
 1947 0bbb 11       		.uleb128 0x11
 1948 0bbc 30000000 		.4byte	0x30
 1949 0bc0 00       		.byte	0
 1950 0bc1 19       		.uleb128 0x19
 1951 0bc2 01       		.byte	0x1
 1952 0bc3 87010000 		.4byte	.LASF118
 1953 0bc7 10       		.byte	0x10
 1954 0bc8 0F       		.byte	0xf
 1955 0bc9 880C0000 		.4byte	.LASF143
 1956 0bcd 840C0000 		.4byte	0xc84
 1957 0bd1 01       		.byte	0x1
 1958 0bd2 DA0B0000 		.4byte	0xbda
 1959 0bd6 E10B0000 		.4byte	0xbe1
 1960 0bda 17       		.uleb128 0x17
 1961 0bdb 8A0C0000 		.4byte	0xc8a
 1962 0bdf 01       		.byte	0x1
 1963 0be0 00       		.byte	0
 1964 0be1 18       		.uleb128 0x18
 1965 0be2 01       		.byte	0x1
 1966 0be3 87010000 		.4byte	.LASF118
 1967 0be7 10       		.byte	0x10
 1968 0be8 10       		.byte	0x10
 1969 0be9 7C060000 		.4byte	.LASF144
 1970 0bed 01       		.byte	0x1
 1971 0bee F60B0000 		.4byte	0xbf6
 1972 0bf2 020C0000 		.4byte	0xc02
 1973 0bf6 17       		.uleb128 0x17
 1974 0bf7 8A0C0000 		.4byte	0xc8a
 1975 0bfb 01       		.byte	0x1
 1976 0bfc 11       		.uleb128 0x11
 1977 0bfd 840C0000 		.4byte	0xc84
 1978 0c01 00       		.byte	0
 1979 0c02 19       		.uleb128 0x19
 1980 0c03 01       		.byte	0x1
 1981 0c04 63020000 		.4byte	.LASF145
 1982 0c08 10       		.byte	0x10
 1983 0c09 11       		.byte	0x11
 1984 0c0a 35010000 		.4byte	.LASF146
 1985 0c0e 29000000 		.4byte	0x29
 1986 0c12 01       		.byte	0x1
 1987 0c13 1B0C0000 		.4byte	0xc1b
 1988 0c17 270C0000 		.4byte	0xc27
 1989 0c1b 17       		.uleb128 0x17
ARM GAS  /tmp/ccPXEhp1.s 			page 36


 1990 0c1c 8A0C0000 		.4byte	0xc8a
 1991 0c20 01       		.byte	0x1
 1992 0c21 11       		.uleb128 0x11
 1993 0c22 4A050000 		.4byte	0x54a
 1994 0c26 00       		.byte	0
 1995 0c27 18       		.uleb128 0x18
 1996 0c28 01       		.byte	0x1
 1997 0c29 CF010000 		.4byte	.LASF126
 1998 0c2d 10       		.byte	0x10
 1999 0c2e 12       		.byte	0x12
 2000 0c2f C2060000 		.4byte	.LASF147
 2001 0c33 01       		.byte	0x1
 2002 0c34 3C0C0000 		.4byte	0xc3c
 2003 0c38 570C0000 		.4byte	0xc57
 2004 0c3c 17       		.uleb128 0x17
 2005 0c3d 8A0C0000 		.4byte	0xc8a
 2006 0c41 01       		.byte	0x1
 2007 0c42 11       		.uleb128 0x11
 2008 0c43 E0090000 		.4byte	0x9e0
 2009 0c47 11       		.uleb128 0x11
 2010 0c48 F9020000 		.4byte	0x2f9
 2011 0c4c 11       		.uleb128 0x11
 2012 0c4d 30000000 		.4byte	0x30
 2013 0c51 11       		.uleb128 0x11
 2014 0c52 900C0000 		.4byte	0xc90
 2015 0c56 00       		.byte	0
 2016 0c57 1A       		.uleb128 0x1a
 2017 0c58 01       		.byte	0x1
 2018 0c59 CF010000 		.4byte	.LASF126
 2019 0c5d 10       		.byte	0x10
 2020 0c5e 13       		.byte	0x13
 2021 0c5f 25000000 		.4byte	.LASF148
 2022 0c63 01       		.byte	0x1
 2023 0c64 680C0000 		.4byte	0xc68
 2024 0c68 17       		.uleb128 0x17
 2025 0c69 8A0C0000 		.4byte	0xc8a
 2026 0c6d 01       		.byte	0x1
 2027 0c6e 11       		.uleb128 0x11
 2028 0c6f 6B0B0000 		.4byte	0xb6b
 2029 0c73 11       		.uleb128 0x11
 2030 0c74 F9020000 		.4byte	0x2f9
 2031 0c78 11       		.uleb128 0x11
 2032 0c79 30000000 		.4byte	0x30
 2033 0c7d 11       		.uleb128 0x11
 2034 0c7e 900C0000 		.4byte	0xc90
 2035 0c82 00       		.byte	0
 2036 0c83 00       		.byte	0
 2037 0c84 0B       		.uleb128 0xb
 2038 0c85 04       		.byte	0x4
 2039 0c86 770B0000 		.4byte	0xb77
 2040 0c8a 0B       		.uleb128 0xb
 2041 0c8b 04       		.byte	0x4
 2042 0c8c 770B0000 		.4byte	0xb77
 2043 0c90 0B       		.uleb128 0xb
 2044 0c91 04       		.byte	0x4
 2045 0c92 86000000 		.4byte	0x86
 2046 0c96 0F       		.uleb128 0xf
ARM GAS  /tmp/ccPXEhp1.s 			page 37


 2047 0c97 74000000 		.4byte	0x74
 2048 0c9b 03       		.uleb128 0x3
 2049 0c9c 700A0000 		.4byte	.LASF149
 2050 0ca0 11       		.byte	0x11
 2051 0ca1 55       		.byte	0x55
 2052 0ca2 A60C0000 		.4byte	0xca6
 2053 0ca6 05       		.uleb128 0x5
 2054 0ca7 700A0000 		.4byte	.LASF149
 2055 0cab 1E       		.byte	0x1e
 2056 0cac 11       		.byte	0x11
 2057 0cad AB       		.byte	0xab
 2058 0cae 8A0D0000 		.4byte	0xd8a
 2059 0cb2 06       		.uleb128 0x6
 2060 0cb3 04       		.byte	0x4
 2061 0cb4 11       		.byte	0x11
 2062 0cb5 B0       		.byte	0xb0
 2063 0cb6 010D0000 		.4byte	0xd01
 2064 0cba 21       		.uleb128 0x21
 2065 0cbb 04       		.byte	0x4
 2066 0cbc 11       		.byte	0x11
 2067 0cbd B1       		.byte	0xb1
 2068 0cbe D10C0000 		.4byte	0xcd1
 2069 0cc2 08       		.uleb128 0x8
 2070 0cc3 D50C0000 		.4byte	.LASF150
 2071 0cc7 11       		.byte	0x11
 2072 0cc8 B2       		.byte	0xb2
 2073 0cc9 86000000 		.4byte	0x86
 2074 0ccd 02       		.byte	0x2
 2075 0cce 23       		.byte	0x23
 2076 0ccf 00       		.uleb128 0
 2077 0cd0 00       		.byte	0
 2078 0cd1 21       		.uleb128 0x21
 2079 0cd2 04       		.byte	0x4
 2080 0cd3 11       		.byte	0x11
 2081 0cd4 B4       		.byte	0xb4
 2082 0cd5 F60C0000 		.4byte	0xcf6
 2083 0cd9 08       		.uleb128 0x8
 2084 0cda E8050000 		.4byte	.LASF151
 2085 0cde 11       		.byte	0x11
 2086 0cdf B5       		.byte	0xb5
 2087 0ce0 62000000 		.4byte	0x62
 2088 0ce4 02       		.byte	0x2
 2089 0ce5 23       		.byte	0x23
 2090 0ce6 00       		.uleb128 0
 2091 0ce7 08       		.uleb128 0x8
 2092 0ce8 D0000000 		.4byte	.LASF152
 2093 0cec 11       		.byte	0x11
 2094 0ced B6       		.byte	0xb6
 2095 0cee 62000000 		.4byte	0x62
 2096 0cf2 02       		.byte	0x2
 2097 0cf3 23       		.byte	0x23
 2098 0cf4 02       		.uleb128 0x2
 2099 0cf5 00       		.byte	0
 2100 0cf6 22       		.uleb128 0x22
 2101 0cf7 BA0C0000 		.4byte	0xcba
 2102 0cfb 22       		.uleb128 0x22
 2103 0cfc D10C0000 		.4byte	0xcd1
ARM GAS  /tmp/ccPXEhp1.s 			page 38


 2104 0d00 00       		.byte	0
 2105 0d01 08       		.uleb128 0x8
 2106 0d02 87010000 		.4byte	.LASF118
 2107 0d06 11       		.byte	0x11
 2108 0d07 AC       		.byte	0xac
 2109 0d08 EE0D0000 		.4byte	0xdee
 2110 0d0c 02       		.byte	0x2
 2111 0d0d 23       		.byte	0x23
 2112 0d0e 00       		.uleb128 0
 2113 0d0f 08       		.uleb128 0x8
 2114 0d10 C90B0000 		.4byte	.LASF153
 2115 0d14 11       		.byte	0x11
 2116 0d15 AD       		.byte	0xad
 2117 0d16 E30D0000 		.4byte	0xde3
 2118 0d1a 02       		.byte	0x2
 2119 0d1b 23       		.byte	0x23
 2120 0d1c 04       		.uleb128 0x4
 2121 0d1d 08       		.uleb128 0x8
 2122 0d1e DF050000 		.4byte	.LASF130
 2123 0d22 11       		.byte	0x11
 2124 0d23 AE       		.byte	0xae
 2125 0d24 8A0D0000 		.4byte	0xd8a
 2126 0d28 02       		.byte	0x2
 2127 0d29 23       		.byte	0x23
 2128 0d2a 05       		.uleb128 0x5
 2129 0d2b 08       		.uleb128 0x8
 2130 0d2c 990A0000 		.4byte	.LASF154
 2131 0d30 11       		.byte	0x11
 2132 0d31 AF       		.byte	0xaf
 2133 0d32 F9020000 		.4byte	0x2f9
 2134 0d36 02       		.byte	0x2
 2135 0d37 23       		.byte	0x23
 2136 0d38 09       		.uleb128 0x9
 2137 0d39 23       		.uleb128 0x23
 2138 0d3a B20C0000 		.4byte	0xcb2
 2139 0d3e 02       		.byte	0x2
 2140 0d3f 23       		.byte	0x23
 2141 0d40 0D       		.uleb128 0xd
 2142 0d41 09       		.uleb128 0x9
 2143 0d42 696400   		.ascii	"id\000"
 2144 0d45 11       		.byte	0x11
 2145 0d46 B9       		.byte	0xb9
 2146 0d47 62000000 		.4byte	0x62
 2147 0d4b 02       		.byte	0x2
 2148 0d4c 23       		.byte	0x23
 2149 0d4d 11       		.uleb128 0x11
 2150 0d4e 08       		.uleb128 0x8
 2151 0d4f 75050000 		.4byte	.LASF81
 2152 0d53 11       		.byte	0x11
 2153 0d54 BA       		.byte	0xba
 2154 0d55 62000000 		.4byte	0x62
 2155 0d59 02       		.byte	0x2
 2156 0d5a 23       		.byte	0x23
 2157 0d5b 13       		.uleb128 0x13
 2158 0d5c 08       		.uleb128 0x8
 2159 0d5d 70050000 		.4byte	.LASF155
 2160 0d61 11       		.byte	0x11
ARM GAS  /tmp/ccPXEhp1.s 			page 39


 2161 0d62 BB       		.byte	0xbb
 2162 0d63 B1040000 		.4byte	0x4b1
 2163 0d67 02       		.byte	0x2
 2164 0d68 23       		.byte	0x23
 2165 0d69 15       		.uleb128 0x15
 2166 0d6a 09       		.uleb128 0x9
 2167 0d6b 70747200 		.ascii	"ptr\000"
 2168 0d6f 11       		.byte	0x11
 2169 0d70 BC       		.byte	0xbc
 2170 0d71 B1040000 		.4byte	0x4b1
 2171 0d75 02       		.byte	0x2
 2172 0d76 23       		.byte	0x23
 2173 0d77 19       		.uleb128 0x19
 2174 0d78 24       		.uleb128 0x24
 2175 0d79 61090000 		.4byte	.LASF196
 2176 0d7d 11       		.byte	0x11
 2177 0d7e BD       		.byte	0xbd
 2178 0d7f 49000000 		.4byte	0x49
 2179 0d83 01       		.byte	0x1
 2180 0d84 07       		.byte	0x7
 2181 0d85 01       		.byte	0x1
 2182 0d86 02       		.byte	0x2
 2183 0d87 23       		.byte	0x23
 2184 0d88 1D       		.uleb128 0x1d
 2185 0d89 00       		.byte	0
 2186 0d8a 03       		.uleb128 0x3
 2187 0d8b B7070000 		.4byte	.LASF156
 2188 0d8f 11       		.byte	0x11
 2189 0d90 5A       		.byte	0x5a
 2190 0d91 950D0000 		.4byte	0xd95
 2191 0d95 0B       		.uleb128 0xb
 2192 0d96 04       		.byte	0x4
 2193 0d97 9B0D0000 		.4byte	0xd9b
 2194 0d9b 25       		.uleb128 0x25
 2195 0d9c A60D0000 		.4byte	0xda6
 2196 0da0 11       		.uleb128 0x11
 2197 0da1 A60D0000 		.4byte	0xda6
 2198 0da5 00       		.byte	0
 2199 0da6 0B       		.uleb128 0xb
 2200 0da7 04       		.byte	0x4
 2201 0da8 9B0C0000 		.4byte	0xc9b
 2202 0dac 26       		.uleb128 0x26
 2203 0dad 01       		.byte	0x1
 2204 0dae 11       		.byte	0x11
 2205 0daf 6C       		.byte	0x6c
 2206 0db0 F5030000 		.4byte	.LASF197
 2207 0db4 E30D0000 		.4byte	0xde3
 2208 0db8 27       		.uleb128 0x27
 2209 0db9 3A040000 		.4byte	.LASF157
 2210 0dbd 00       		.sleb128 0
 2211 0dbe 27       		.uleb128 0x27
 2212 0dbf ED0A0000 		.4byte	.LASF158
 2213 0dc3 01       		.sleb128 1
 2214 0dc4 27       		.uleb128 0x27
 2215 0dc5 BC090000 		.4byte	.LASF159
 2216 0dc9 02       		.sleb128 2
 2217 0dca 27       		.uleb128 0x27
ARM GAS  /tmp/ccPXEhp1.s 			page 40


 2218 0dcb 0F0D0000 		.4byte	.LASF160
 2219 0dcf 03       		.sleb128 3
 2220 0dd0 27       		.uleb128 0x27
 2221 0dd1 02010000 		.4byte	.LASF161
 2222 0dd5 04       		.sleb128 4
 2223 0dd6 27       		.uleb128 0x27
 2224 0dd7 59080000 		.4byte	.LASF162
 2225 0ddb 05       		.sleb128 5
 2226 0ddc 27       		.uleb128 0x27
 2227 0ddd 35060000 		.4byte	.LASF163
 2228 0de1 06       		.sleb128 6
 2229 0de2 00       		.byte	0
 2230 0de3 03       		.uleb128 0x3
 2231 0de4 45060000 		.4byte	.LASF164
 2232 0de8 11       		.byte	0x11
 2233 0de9 74       		.byte	0x74
 2234 0dea AC0D0000 		.4byte	0xdac
 2235 0dee 0B       		.uleb128 0xb
 2236 0def 04       		.byte	0x4
 2237 0df0 A60C0000 		.4byte	0xca6
 2238 0df4 03       		.uleb128 0x3
 2239 0df5 D5040000 		.4byte	.LASF165
 2240 0df9 12       		.byte	0x12
 2241 0dfa 09       		.byte	0x9
 2242 0dfb FF0D0000 		.4byte	0xdff
 2243 0dff 0B       		.uleb128 0xb
 2244 0e00 04       		.byte	0x4
 2245 0e01 050E0000 		.4byte	0xe05
 2246 0e05 25       		.uleb128 0x25
 2247 0e06 100E0000 		.4byte	0xe10
 2248 0e0a 11       		.uleb128 0x11
 2249 0e0b 4A050000 		.4byte	0x54a
 2250 0e0f 00       		.byte	0
 2251 0e10 14       		.uleb128 0x14
 2252 0e11 2F050000 		.4byte	.LASF166
 2253 0e15 28       		.byte	0x28
 2254 0e16 12       		.byte	0x12
 2255 0e17 0B       		.byte	0xb
 2256 0e18 8A0F0000 		.4byte	0xf8a
 2257 0e1c 15       		.uleb128 0x15
 2258 0e1d 95020000 		.4byte	.LASF94
 2259 0e21 12       		.byte	0x12
 2260 0e22 0D       		.byte	0xd
 2261 0e23 93040000 		.4byte	0x493
 2262 0e27 02       		.byte	0x2
 2263 0e28 23       		.byte	0x23
 2264 0e29 00       		.uleb128 0
 2265 0e2a 02       		.byte	0x2
 2266 0e2b 15       		.uleb128 0x15
 2267 0e2c 9A040000 		.4byte	.LASF167
 2268 0e30 12       		.byte	0x12
 2269 0e31 0E       		.byte	0xe
 2270 0e32 86000000 		.4byte	0x86
 2271 0e36 02       		.byte	0x2
 2272 0e37 23       		.byte	0x23
 2273 0e38 04       		.uleb128 0x4
 2274 0e39 02       		.byte	0x2
ARM GAS  /tmp/ccPXEhp1.s 			page 41


 2275 0e3a 15       		.uleb128 0x15
 2276 0e3b 650C0000 		.4byte	.LASF168
 2277 0e3f 12       		.byte	0x12
 2278 0e40 0F       		.byte	0xf
 2279 0e41 710B0000 		.4byte	0xb71
 2280 0e45 02       		.byte	0x2
 2281 0e46 23       		.byte	0x23
 2282 0e47 08       		.uleb128 0x8
 2283 0e48 02       		.byte	0x2
 2284 0e49 15       		.uleb128 0x15
 2285 0e4a 22030000 		.4byte	.LASF169
 2286 0e4e 12       		.byte	0x12
 2287 0e4f 10       		.byte	0x10
 2288 0e50 50050000 		.4byte	0x550
 2289 0e54 02       		.byte	0x2
 2290 0e55 23       		.byte	0x23
 2291 0e56 0C       		.uleb128 0xc
 2292 0e57 02       		.byte	0x2
 2293 0e58 15       		.uleb128 0x15
 2294 0e59 29030000 		.4byte	.LASF75
 2295 0e5d 12       		.byte	0x12
 2296 0e5e 12       		.byte	0x12
 2297 0e5f B1040000 		.4byte	0x4b1
 2298 0e63 02       		.byte	0x2
 2299 0e64 23       		.byte	0x23
 2300 0e65 20       		.uleb128 0x20
 2301 0e66 02       		.byte	0x2
 2302 0e67 15       		.uleb128 0x15
 2303 0e68 ED050000 		.4byte	.LASF170
 2304 0e6c 12       		.byte	0x12
 2305 0e6d 13       		.byte	0x13
 2306 0e6e 86000000 		.4byte	0x86
 2307 0e72 02       		.byte	0x2
 2308 0e73 23       		.byte	0x23
 2309 0e74 24       		.uleb128 0x24
 2310 0e75 02       		.byte	0x2
 2311 0e76 16       		.uleb128 0x16
 2312 0e77 01       		.byte	0x1
 2313 0e78 2F050000 		.4byte	.LASF166
 2314 0e7c 12       		.byte	0x12
 2315 0e7d 15       		.byte	0x15
 2316 0e7e 8A0F0000 		.4byte	0xf8a
 2317 0e82 01       		.byte	0x1
 2318 0e83 8B0E0000 		.4byte	0xe8b
 2319 0e87 AB0E0000 		.4byte	0xeab
 2320 0e8b 17       		.uleb128 0x17
 2321 0e8c 8A0F0000 		.4byte	0xf8a
 2322 0e90 01       		.byte	0x1
 2323 0e91 11       		.uleb128 0x11
 2324 0e92 93040000 		.4byte	0x493
 2325 0e96 11       		.uleb128 0x11
 2326 0e97 30000000 		.4byte	0x30
 2327 0e9b 11       		.uleb128 0x11
 2328 0e9c B1040000 		.4byte	0x4b1
 2329 0ea0 11       		.uleb128 0x11
 2330 0ea1 94060000 		.4byte	0x694
 2331 0ea5 11       		.uleb128 0x11
ARM GAS  /tmp/ccPXEhp1.s 			page 42


 2332 0ea6 86000000 		.4byte	0x86
 2333 0eaa 00       		.byte	0
 2334 0eab 19       		.uleb128 0x19
 2335 0eac 01       		.byte	0x1
 2336 0ead F1020000 		.4byte	.LASF98
 2337 0eb1 12       		.byte	0x12
 2338 0eb2 17       		.byte	0x17
 2339 0eb3 99010000 		.4byte	.LASF171
 2340 0eb7 93040000 		.4byte	0x493
 2341 0ebb 01       		.byte	0x1
 2342 0ebc C40E0000 		.4byte	0xec4
 2343 0ec0 CB0E0000 		.4byte	0xecb
 2344 0ec4 17       		.uleb128 0x17
 2345 0ec5 8A0F0000 		.4byte	0xf8a
 2346 0ec9 01       		.byte	0x1
 2347 0eca 00       		.byte	0
 2348 0ecb 19       		.uleb128 0x19
 2349 0ecc 01       		.byte	0x1
 2350 0ecd 75060000 		.4byte	.LASF172
 2351 0ed1 12       		.byte	0x12
 2352 0ed2 18       		.byte	0x18
 2353 0ed3 1A070000 		.4byte	.LASF173
 2354 0ed7 710B0000 		.4byte	0xb71
 2355 0edb 01       		.byte	0x1
 2356 0edc E40E0000 		.4byte	0xee4
 2357 0ee0 EB0E0000 		.4byte	0xeeb
 2358 0ee4 17       		.uleb128 0x17
 2359 0ee5 8A0F0000 		.4byte	0xf8a
 2360 0ee9 01       		.byte	0x1
 2361 0eea 00       		.byte	0
 2362 0eeb 19       		.uleb128 0x19
 2363 0eec 01       		.byte	0x1
 2364 0eed AC050000 		.4byte	.LASF174
 2365 0ef1 12       		.byte	0x12
 2366 0ef2 19       		.byte	0x19
 2367 0ef3 6D0C0000 		.4byte	.LASF175
 2368 0ef7 900F0000 		.4byte	0xf90
 2369 0efb 01       		.byte	0x1
 2370 0efc 040F0000 		.4byte	0xf04
 2371 0f00 0B0F0000 		.4byte	0xf0b
 2372 0f04 17       		.uleb128 0x17
 2373 0f05 8A0F0000 		.4byte	0xf8a
 2374 0f09 01       		.byte	0x1
 2375 0f0a 00       		.byte	0
 2376 0f0b 1B       		.uleb128 0x1b
 2377 0f0c 01       		.byte	0x1
 2378 0f0d 67657400 		.ascii	"get\000"
 2379 0f11 12       		.byte	0x12
 2380 0f12 1A       		.byte	0x1a
 2381 0f13 BA030000 		.4byte	.LASF176
 2382 0f17 4A050000 		.4byte	0x54a
 2383 0f1b 01       		.byte	0x1
 2384 0f1c 240F0000 		.4byte	0xf24
 2385 0f20 2B0F0000 		.4byte	0xf2b
 2386 0f24 17       		.uleb128 0x17
 2387 0f25 8A0F0000 		.4byte	0xf8a
 2388 0f29 01       		.byte	0x1
ARM GAS  /tmp/ccPXEhp1.s 			page 43


 2389 0f2a 00       		.byte	0
 2390 0f2b 18       		.uleb128 0x18
 2391 0f2c 01       		.byte	0x1
 2392 0f2d D9010000 		.4byte	.LASF104
 2393 0f31 12       		.byte	0x12
 2394 0f32 1B       		.byte	0x1b
 2395 0f33 44070000 		.4byte	.LASF177
 2396 0f37 01       		.byte	0x1
 2397 0f38 400F0000 		.4byte	0xf40
 2398 0f3c 4C0F0000 		.4byte	0xf4c
 2399 0f40 17       		.uleb128 0x17
 2400 0f41 8A0F0000 		.4byte	0xf8a
 2401 0f45 01       		.byte	0x1
 2402 0f46 11       		.uleb128 0x11
 2403 0f47 4A050000 		.4byte	0x54a
 2404 0f4b 00       		.byte	0
 2405 0f4c 18       		.uleb128 0x18
 2406 0f4d 01       		.byte	0x1
 2407 0f4e 15040000 		.4byte	.LASF106
 2408 0f52 12       		.byte	0x12
 2409 0f53 1C       		.byte	0x1c
 2410 0f54 5C000000 		.4byte	.LASF178
 2411 0f58 01       		.byte	0x1
 2412 0f59 610F0000 		.4byte	0xf61
 2413 0f5d 6D0F0000 		.4byte	0xf6d
 2414 0f61 17       		.uleb128 0x17
 2415 0f62 8A0F0000 		.4byte	0xf8a
 2416 0f66 01       		.byte	0x1
 2417 0f67 11       		.uleb128 0x11
 2418 0f68 4A050000 		.4byte	0x54a
 2419 0f6c 00       		.byte	0
 2420 0f6d 1C       		.uleb128 0x1c
 2421 0f6e 01       		.byte	0x1
 2422 0f6f 75050000 		.4byte	.LASF81
 2423 0f73 12       		.byte	0x12
 2424 0f74 1D       		.byte	0x1d
 2425 0f75 14050000 		.4byte	.LASF179
 2426 0f79 62000000 		.4byte	0x62
 2427 0f7d 01       		.byte	0x1
 2428 0f7e 820F0000 		.4byte	0xf82
 2429 0f82 17       		.uleb128 0x17
 2430 0f83 8A0F0000 		.4byte	0xf8a
 2431 0f87 01       		.byte	0x1
 2432 0f88 00       		.byte	0
 2433 0f89 00       		.byte	0
 2434 0f8a 0B       		.uleb128 0xb
 2435 0f8b 04       		.byte	0x4
 2436 0f8c 100E0000 		.4byte	0xe10
 2437 0f90 0B       		.uleb128 0xb
 2438 0f91 04       		.byte	0x4
 2439 0f92 100E0000 		.4byte	0xe10
 2440 0f96 14       		.uleb128 0x14
 2441 0f97 51090000 		.4byte	.LASF180
 2442 0f9b 3C       		.byte	0x3c
 2443 0f9c 13       		.byte	0x13
 2444 0f9d 0A       		.byte	0xa
 2445 0f9e C1100000 		.4byte	0x10c1
ARM GAS  /tmp/ccPXEhp1.s 			page 44


 2446 0fa2 1D       		.uleb128 0x1d
 2447 0fa3 A0060000 		.4byte	0x6a0
 2448 0fa7 02       		.byte	0x2
 2449 0fa8 23       		.byte	0x23
 2450 0fa9 00       		.uleb128 0
 2451 0faa 01       		.byte	0x1
 2452 0fab 15       		.uleb128 0x15
 2453 0fac D30A0000 		.4byte	.LASF114
 2454 0fb0 13       		.byte	0x13
 2455 0fb1 0C       		.byte	0xc
 2456 0fb2 C1100000 		.4byte	0x10c1
 2457 0fb6 02       		.byte	0x2
 2458 0fb7 23       		.byte	0x23
 2459 0fb8 18       		.uleb128 0x18
 2460 0fb9 03       		.byte	0x3
 2461 0fba 15       		.uleb128 0x15
 2462 0fbb 6F070000 		.4byte	.LASF181
 2463 0fbf 13       		.byte	0x13
 2464 0fc0 0D       		.byte	0xd
 2465 0fc1 9B0C0000 		.4byte	0xc9b
 2466 0fc5 02       		.byte	0x2
 2467 0fc6 23       		.byte	0x23
 2468 0fc7 1C       		.uleb128 0x1c
 2469 0fc8 03       		.byte	0x3
 2470 0fc9 16       		.uleb128 0x16
 2471 0fca 01       		.byte	0x1
 2472 0fcb 51090000 		.4byte	.LASF180
 2473 0fcf 13       		.byte	0x13
 2474 0fd0 0F       		.byte	0xf
 2475 0fd1 C7100000 		.4byte	0x10c7
 2476 0fd5 01       		.byte	0x1
 2477 0fd6 DE0F0000 		.4byte	0xfde
 2478 0fda EF0F0000 		.4byte	0xfef
 2479 0fde 17       		.uleb128 0x17
 2480 0fdf C7100000 		.4byte	0x10c7
 2481 0fe3 01       		.byte	0x1
 2482 0fe4 11       		.uleb128 0x11
 2483 0fe5 93040000 		.4byte	0x493
 2484 0fe9 11       		.uleb128 0x11
 2485 0fea 30000000 		.4byte	0x30
 2486 0fee 00       		.byte	0
 2487 0fef 19       		.uleb128 0x19
 2488 0ff0 01       		.byte	0x1
 2489 0ff1 87010000 		.4byte	.LASF118
 2490 0ff5 13       		.byte	0x13
 2491 0ff6 10       		.byte	0x10
 2492 0ff7 1E040000 		.4byte	.LASF182
 2493 0ffb C1100000 		.4byte	0x10c1
 2494 0fff 01       		.byte	0x1
 2495 1000 08100000 		.4byte	0x1008
 2496 1004 0F100000 		.4byte	0x100f
 2497 1008 17       		.uleb128 0x17
 2498 1009 C7100000 		.4byte	0x10c7
 2499 100d 01       		.byte	0x1
 2500 100e 00       		.byte	0
 2501 100f 18       		.uleb128 0x18
 2502 1010 01       		.byte	0x1
ARM GAS  /tmp/ccPXEhp1.s 			page 45


 2503 1011 87010000 		.4byte	.LASF118
 2504 1015 13       		.byte	0x13
 2505 1016 11       		.byte	0x11
 2506 1017 840B0000 		.4byte	.LASF183
 2507 101b 01       		.byte	0x1
 2508 101c 24100000 		.4byte	0x1024
 2509 1020 30100000 		.4byte	0x1030
 2510 1024 17       		.uleb128 0x17
 2511 1025 C7100000 		.4byte	0x10c7
 2512 1029 01       		.byte	0x1
 2513 102a 11       		.uleb128 0x11
 2514 102b C1100000 		.4byte	0x10c1
 2515 102f 00       		.byte	0
 2516 1030 19       		.uleb128 0x19
 2517 1031 01       		.byte	0x1
 2518 1032 D4030000 		.4byte	.LASF184
 2519 1036 13       		.byte	0x13
 2520 1037 12       		.byte	0x12
 2521 1038 7A070000 		.4byte	.LASF185
 2522 103c 29000000 		.4byte	0x29
 2523 1040 01       		.byte	0x1
 2524 1041 49100000 		.4byte	0x1049
 2525 1045 55100000 		.4byte	0x1055
 2526 1049 17       		.uleb128 0x17
 2527 104a C7100000 		.4byte	0x10c7
 2528 104e 01       		.byte	0x1
 2529 104f 11       		.uleb128 0x11
 2530 1050 4A050000 		.4byte	0x54a
 2531 1054 00       		.byte	0
 2532 1055 18       		.uleb128 0x18
 2533 1056 01       		.byte	0x1
 2534 1057 CF010000 		.4byte	.LASF126
 2535 105b 13       		.byte	0x13
 2536 105c 13       		.byte	0x13
 2537 105d 380D0000 		.4byte	.LASF186
 2538 1061 01       		.byte	0x1
 2539 1062 6A100000 		.4byte	0x106a
 2540 1066 85100000 		.4byte	0x1085
 2541 106a 17       		.uleb128 0x17
 2542 106b C7100000 		.4byte	0x10c7
 2543 106f 01       		.byte	0x1
 2544 1070 11       		.uleb128 0x11
 2545 1071 E0090000 		.4byte	0x9e0
 2546 1075 11       		.uleb128 0x11
 2547 1076 F9020000 		.4byte	0x2f9
 2548 107a 11       		.uleb128 0x11
 2549 107b 30000000 		.4byte	0x30
 2550 107f 11       		.uleb128 0x11
 2551 1080 900C0000 		.4byte	0xc90
 2552 1084 00       		.byte	0
 2553 1085 1F       		.uleb128 0x1f
 2554 1086 01       		.byte	0x1
 2555 1087 696400   		.ascii	"id\000"
 2556 108a 13       		.byte	0x13
 2557 108b 14       		.byte	0x14
 2558 108c 72080000 		.4byte	.LASF187
 2559 1090 01       		.byte	0x1
ARM GAS  /tmp/ccPXEhp1.s 			page 46


 2560 1091 99100000 		.4byte	0x1099
 2561 1095 A5100000 		.4byte	0x10a5
 2562 1099 17       		.uleb128 0x17
 2563 109a C7100000 		.4byte	0x10c7
 2564 109e 01       		.byte	0x1
 2565 109f 11       		.uleb128 0x11
 2566 10a0 62000000 		.4byte	0x62
 2567 10a4 00       		.byte	0
 2568 10a5 20       		.uleb128 0x20
 2569 10a6 01       		.byte	0x1
 2570 10a7 696400   		.ascii	"id\000"
 2571 10aa 13       		.byte	0x13
 2572 10ab 15       		.byte	0x15
 2573 10ac DF0B0000 		.4byte	.LASF188
 2574 10b0 62000000 		.4byte	0x62
 2575 10b4 01       		.byte	0x1
 2576 10b5 B9100000 		.4byte	0x10b9
 2577 10b9 17       		.uleb128 0x17
 2578 10ba C7100000 		.4byte	0x10c7
 2579 10be 01       		.byte	0x1
 2580 10bf 00       		.byte	0
 2581 10c0 00       		.byte	0
 2582 10c1 0B       		.uleb128 0xb
 2583 10c2 04       		.byte	0x4
 2584 10c3 960F0000 		.4byte	0xf96
 2585 10c7 0B       		.uleb128 0xb
 2586 10c8 04       		.byte	0x4
 2587 10c9 960F0000 		.4byte	0xf96
 2588 10cd 0B       		.uleb128 0xb
 2589 10ce 04       		.byte	0x4
 2590 10cf EF070000 		.4byte	0x7ef
 2591 10d3 28       		.uleb128 0x28
 2592 10d4 04       		.byte	0x4
 2593 10d5 29000000 		.4byte	0x29
 2594 10d9 0B       		.uleb128 0xb
 2595 10da 04       		.byte	0x4
 2596 10db E6090000 		.4byte	0x9e6
 2597 10df 29       		.uleb128 0x29
 2598 10e0 E8060000 		.4byte	0x6e8
 2599 10e4 01       		.byte	0x1
 2600 10e5 0B       		.byte	0xb
 2601 10e6 00       		.byte	0
 2602 10e7 EF100000 		.4byte	0x10ef
 2603 10eb 0E110000 		.4byte	0x110e
 2604 10ef 2A       		.uleb128 0x2a
 2605 10f0 83030000 		.4byte	.LASF190
 2606 10f4 0E110000 		.4byte	0x110e
 2607 10f8 01       		.byte	0x1
 2608 10f9 2B       		.uleb128 0x2b
 2609 10fa 7400     		.ascii	"t\000"
 2610 10fc 01       		.byte	0x1
 2611 10fd 0B       		.byte	0xb
 2612 10fe 93040000 		.4byte	0x493
 2613 1102 2C       		.uleb128 0x2c
 2614 1103 D00B0000 		.4byte	.LASF189
 2615 1107 01       		.byte	0x1
 2616 1108 0B       		.byte	0xb
ARM GAS  /tmp/ccPXEhp1.s 			page 47


 2617 1109 30000000 		.4byte	0x30
 2618 110d 00       		.byte	0
 2619 110e 12       		.uleb128 0x12
 2620 110f 710B0000 		.4byte	0xb71
 2621 1113 2D       		.uleb128 0x2d
 2622 1114 DF100000 		.4byte	0x10df
 2623 1118 00000000 		.4byte	.LFB81
 2624 111c 1C000000 		.4byte	.LFE81
 2625 1120 00000000 		.4byte	.LLST0
 2626 1124 2C110000 		.4byte	0x112c
 2627 1128 48110000 		.4byte	0x1148
 2628 112c 2E       		.uleb128 0x2e
 2629 112d EF100000 		.4byte	0x10ef
 2630 1131 20000000 		.4byte	.LLST1
 2631 1135 2E       		.uleb128 0x2e
 2632 1136 F9100000 		.4byte	0x10f9
 2633 113a 3E000000 		.4byte	.LLST2
 2634 113e 2E       		.uleb128 0x2e
 2635 113f 02110000 		.4byte	0x1102
 2636 1143 5D000000 		.4byte	.LLST3
 2637 1147 00       		.byte	0
 2638 1148 2F       		.uleb128 0x2f
 2639 1149 0E070000 		.4byte	0x70e
 2640 114d 01       		.byte	0x1
 2641 114e 00000000 		.4byte	.LFB83
 2642 1152 04000000 		.4byte	.LFE83
 2643 1156 02       		.byte	0x2
 2644 1157 7D       		.byte	0x7d
 2645 1158 00       		.sleb128 0
 2646 1159 61110000 		.4byte	0x1161
 2647 115d 70110000 		.4byte	0x1170
 2648 1161 30       		.uleb128 0x30
 2649 1162 83030000 		.4byte	.LASF190
 2650 1166 0E110000 		.4byte	0x110e
 2651 116a 01       		.byte	0x1
 2652 116b 7B000000 		.4byte	.LLST4
 2653 116f 00       		.byte	0
 2654 1170 29       		.uleb128 0x29
 2655 1171 4E070000 		.4byte	0x74e
 2656 1175 01       		.byte	0x1
 2657 1176 20       		.byte	0x20
 2658 1177 01       		.byte	0x1
 2659 1178 80110000 		.4byte	0x1180
 2660 117c 98110000 		.4byte	0x1198
 2661 1180 2A       		.uleb128 0x2a
 2662 1181 83030000 		.4byte	.LASF190
 2663 1185 0E110000 		.4byte	0x110e
 2664 1189 01       		.byte	0x1
 2665 118a 31       		.uleb128 0x31
 2666 118b 32       		.uleb128 0x32
 2667 118c 6D736700 		.ascii	"msg\000"
 2668 1190 01       		.byte	0x1
 2669 1191 21       		.byte	0x21
 2670 1192 4A050000 		.4byte	0x54a
 2671 1196 00       		.byte	0
 2672 1197 00       		.byte	0
 2673 1198 33       		.uleb128 0x33
ARM GAS  /tmp/ccPXEhp1.s 			page 48


 2674 1199 2E070000 		.4byte	0x72e
 2675 119d 01       		.byte	0x1
 2676 119e 16       		.byte	0x16
 2677 119f 00000000 		.4byte	.LFB84
 2678 11a3 2C000000 		.4byte	.LFE84
 2679 11a7 8E000000 		.4byte	.LLST5
 2680 11ab B3110000 		.4byte	0x11b3
 2681 11af 37120000 		.4byte	0x1237
 2682 11b3 30       		.uleb128 0x30
 2683 11b4 83030000 		.4byte	.LASF190
 2684 11b8 0E110000 		.4byte	0x110e
 2685 11bc 01       		.byte	0x1
 2686 11bd AE000000 		.4byte	.LLST6
 2687 11c1 34       		.uleb128 0x34
 2688 11c2 00000000 		.4byte	.Ldebug_ranges0+0
 2689 11c6 35       		.uleb128 0x35
 2690 11c7 6D736700 		.ascii	"msg\000"
 2691 11cb 01       		.byte	0x1
 2692 11cc 17       		.byte	0x17
 2693 11cd 4A050000 		.4byte	0x54a
 2694 11d1 01       		.byte	0x1
 2695 11d2 54       		.byte	0x54
 2696 11d3 36       		.uleb128 0x36
 2697 11d4 18000000 		.4byte	.Ldebug_ranges0+0x18
 2698 11d8 EC110000 		.4byte	0x11ec
 2699 11dc 37       		.uleb128 0x37
 2700 11dd 746D7000 		.ascii	"tmp\000"
 2701 11e1 01       		.byte	0x1
 2702 11e2 19       		.byte	0x19
 2703 11e3 86000000 		.4byte	0x86
 2704 11e7 CC000000 		.4byte	.LLST7
 2705 11eb 00       		.byte	0
 2706 11ec 38       		.uleb128 0x38
 2707 11ed 70110000 		.4byte	0x1170
 2708 11f1 0E000000 		.4byte	.LBB17
 2709 11f5 1E000000 		.4byte	.LBE17
 2710 11f9 01       		.byte	0x1
 2711 11fa 1A       		.byte	0x1a
 2712 11fb 1C120000 		.4byte	0x121c
 2713 11ff 2E       		.uleb128 0x2e
 2714 1200 80110000 		.4byte	0x1180
 2715 1204 DF000000 		.4byte	.LLST8
 2716 1208 39       		.uleb128 0x39
 2717 1209 0E000000 		.4byte	.LBB18
 2718 120d 1E000000 		.4byte	.LBE18
 2719 1211 3A       		.uleb128 0x3a
 2720 1212 8B110000 		.4byte	0x118b
 2721 1216 F2000000 		.4byte	.LLST9
 2722 121a 00       		.byte	0
 2723 121b 00       		.byte	0
 2724 121c 39       		.uleb128 0x39
 2725 121d 22000000 		.4byte	.LBB20
 2726 1221 28000000 		.4byte	.LBE20
 2727 1225 37       		.uleb128 0x37
 2728 1226 746D7000 		.ascii	"tmp\000"
 2729 122a 01       		.byte	0x1
 2730 122b 1B       		.byte	0x1b
ARM GAS  /tmp/ccPXEhp1.s 			page 49


 2731 122c 86000000 		.4byte	0x86
 2732 1230 10010000 		.4byte	.LLST10
 2733 1234 00       		.byte	0
 2734 1235 00       		.byte	0
 2735 1236 00       		.byte	0
 2736 1237 2D       		.uleb128 0x2d
 2737 1238 70110000 		.4byte	0x1170
 2738 123c 00000000 		.4byte	.LFB85
 2739 1240 14000000 		.4byte	.LFE85
 2740 1244 23010000 		.4byte	.LLST11
 2741 1248 50120000 		.4byte	0x1250
 2742 124c 6D120000 		.4byte	0x126d
 2743 1250 2E       		.uleb128 0x2e
 2744 1251 80110000 		.4byte	0x1180
 2745 1255 43010000 		.4byte	.LLST12
 2746 1259 39       		.uleb128 0x39
 2747 125a 02000000 		.4byte	.LBB22
 2748 125e 10000000 		.4byte	.LBE22
 2749 1262 3A       		.uleb128 0x3a
 2750 1263 8B110000 		.4byte	0x118b
 2751 1267 63010000 		.4byte	.LLST13
 2752 126b 00       		.byte	0
 2753 126c 00       		.byte	0
 2754 126d 29       		.uleb128 0x29
 2755 126e 8F070000 		.4byte	0x78f
 2756 1272 01       		.byte	0x1
 2757 1273 33       		.byte	0x33
 2758 1274 01       		.byte	0x1
 2759 1275 7D120000 		.4byte	0x127d
 2760 1279 93120000 		.4byte	0x1293
 2761 127d 2A       		.uleb128 0x2a
 2762 127e 83030000 		.4byte	.LASF190
 2763 1282 0E110000 		.4byte	0x110e
 2764 1286 01       		.byte	0x1
 2765 1287 2B       		.uleb128 0x2b
 2766 1288 6D736700 		.ascii	"msg\000"
 2767 128c 01       		.byte	0x1
 2768 128d 33       		.byte	0x33
 2769 128e 4A050000 		.4byte	0x54a
 2770 1292 00       		.byte	0
 2771 1293 33       		.uleb128 0x33
 2772 1294 6E070000 		.4byte	0x76e
 2773 1298 01       		.byte	0x1
 2774 1299 2C       		.byte	0x2c
 2775 129a 00000000 		.4byte	.LFB86
 2776 129e 2E000000 		.4byte	.LFE86
 2777 12a2 81010000 		.4byte	.LLST14
 2778 12a6 AE120000 		.4byte	0x12ae
 2779 12aa 24130000 		.4byte	0x1324
 2780 12ae 30       		.uleb128 0x30
 2781 12af 83030000 		.4byte	.LASF190
 2782 12b3 0E110000 		.4byte	0x110e
 2783 12b7 01       		.byte	0x1
 2784 12b8 A1010000 		.4byte	.LLST15
 2785 12bc 3B       		.uleb128 0x3b
 2786 12bd 6D736700 		.ascii	"msg\000"
 2787 12c1 01       		.byte	0x1
ARM GAS  /tmp/ccPXEhp1.s 			page 50


 2788 12c2 2C       		.byte	0x2c
 2789 12c3 4A050000 		.4byte	0x54a
 2790 12c7 BF010000 		.4byte	.LLST16
 2791 12cb 3C       		.uleb128 0x3c
 2792 12cc 06000000 		.4byte	.LBB31
 2793 12d0 0C000000 		.4byte	.LBE31
 2794 12d4 E8120000 		.4byte	0x12e8
 2795 12d8 37       		.uleb128 0x37
 2796 12d9 746D7000 		.ascii	"tmp\000"
 2797 12dd 01       		.byte	0x1
 2798 12de 2D       		.byte	0x2d
 2799 12df 86000000 		.4byte	0x86
 2800 12e3 DD010000 		.4byte	.LLST17
 2801 12e7 00       		.byte	0
 2802 12e8 38       		.uleb128 0x38
 2803 12e9 6D120000 		.4byte	0x126d
 2804 12ed 10000000 		.4byte	.LBB32
 2805 12f1 22000000 		.4byte	.LBE32
 2806 12f5 01       		.byte	0x1
 2807 12f6 2E       		.byte	0x2e
 2808 12f7 0A130000 		.4byte	0x130a
 2809 12fb 3D       		.uleb128 0x3d
 2810 12fc 87120000 		.4byte	0x1287
 2811 1300 01       		.byte	0x1
 2812 1301 55       		.byte	0x55
 2813 1302 3D       		.uleb128 0x3d
 2814 1303 7D120000 		.4byte	0x127d
 2815 1307 01       		.byte	0x1
 2816 1308 54       		.byte	0x54
 2817 1309 00       		.byte	0
 2818 130a 39       		.uleb128 0x39
 2819 130b 26000000 		.4byte	.LBB35
 2820 130f 2C000000 		.4byte	.LBE35
 2821 1313 37       		.uleb128 0x37
 2822 1314 746D7000 		.ascii	"tmp\000"
 2823 1318 01       		.byte	0x1
 2824 1319 2F       		.byte	0x2f
 2825 131a 86000000 		.4byte	0x86
 2826 131e F0010000 		.4byte	.LLST18
 2827 1322 00       		.byte	0
 2828 1323 00       		.byte	0
 2829 1324 2D       		.uleb128 0x2d
 2830 1325 6D120000 		.4byte	0x126d
 2831 1329 00000000 		.4byte	.LFB87
 2832 132d 1E000000 		.4byte	.LFE87
 2833 1331 03020000 		.4byte	.LLST19
 2834 1335 3D130000 		.4byte	0x133d
 2835 1339 50130000 		.4byte	0x1350
 2836 133d 2E       		.uleb128 0x2e
 2837 133e 7D120000 		.4byte	0x127d
 2838 1342 23020000 		.4byte	.LLST20
 2839 1346 2E       		.uleb128 0x2e
 2840 1347 87120000 		.4byte	0x1287
 2841 134b 41020000 		.4byte	.LLST21
 2842 134f 00       		.byte	0
 2843 1350 33       		.uleb128 0x33
 2844 1351 B0070000 		.4byte	0x7b0
ARM GAS  /tmp/ccPXEhp1.s 			page 51


 2845 1355 01       		.byte	0x1
 2846 1356 3B       		.byte	0x3b
 2847 1357 00000000 		.4byte	.LFB88
 2848 135b 1A000000 		.4byte	.LFE88
 2849 135f 5F020000 		.4byte	.LLST22
 2850 1363 6B130000 		.4byte	0x136b
 2851 1367 AD130000 		.4byte	0x13ad
 2852 136b 30       		.uleb128 0x30
 2853 136c 83030000 		.4byte	.LASF190
 2854 1370 0E110000 		.4byte	0x110e
 2855 1374 01       		.byte	0x1
 2856 1375 7F020000 		.4byte	.LLST23
 2857 1379 3B       		.uleb128 0x3b
 2858 137a 73756200 		.ascii	"sub\000"
 2859 137e 01       		.byte	0x1
 2860 137f 3B       		.byte	0x3b
 2861 1380 6B0B0000 		.4byte	0xb6b
 2862 1384 92020000 		.4byte	.LLST24
 2863 1388 34       		.uleb128 0x34
 2864 1389 30000000 		.4byte	.Ldebug_ranges0+0x30
 2865 138d 3E       		.uleb128 0x3e
 2866 138e 87010000 		.4byte	.LASF118
 2867 1392 01       		.byte	0x1
 2868 1393 3C       		.byte	0x3c
 2869 1394 6B0B0000 		.4byte	0xb6b
 2870 1398 B0020000 		.4byte	.LLST25
 2871 139c 3E       		.uleb128 0x3e
 2872 139d 20000000 		.4byte	.LASF191
 2873 13a1 01       		.byte	0x1
 2874 13a2 3D       		.byte	0x3d
 2875 13a3 6B0B0000 		.4byte	0xb6b
 2876 13a7 CE020000 		.4byte	.LLST26
 2877 13ab 00       		.byte	0
 2878 13ac 00       		.byte	0
 2879 13ad 33       		.uleb128 0x33
 2880 13ae D1070000 		.4byte	0x7d1
 2881 13b2 01       		.byte	0x1
 2882 13b3 4A       		.byte	0x4a
 2883 13b4 00000000 		.4byte	.LFB89
 2884 13b8 1A000000 		.4byte	.LFE89
 2885 13bc E1020000 		.4byte	.LLST27
 2886 13c0 C8130000 		.4byte	0x13c8
 2887 13c4 0A140000 		.4byte	0x140a
 2888 13c8 30       		.uleb128 0x30
 2889 13c9 83030000 		.4byte	.LASF190
 2890 13cd 0E110000 		.4byte	0x110e
 2891 13d1 01       		.byte	0x1
 2892 13d2 01030000 		.4byte	.LLST28
 2893 13d6 3B       		.uleb128 0x3b
 2894 13d7 73756200 		.ascii	"sub\000"
 2895 13db 01       		.byte	0x1
 2896 13dc 4A       		.byte	0x4a
 2897 13dd E0090000 		.4byte	0x9e0
 2898 13e1 14030000 		.4byte	.LLST29
 2899 13e5 34       		.uleb128 0x34
 2900 13e6 58000000 		.4byte	.Ldebug_ranges0+0x58
 2901 13ea 3E       		.uleb128 0x3e
ARM GAS  /tmp/ccPXEhp1.s 			page 52


 2902 13eb 87010000 		.4byte	.LASF118
 2903 13ef 01       		.byte	0x1
 2904 13f0 4B       		.byte	0x4b
 2905 13f1 E0090000 		.4byte	0x9e0
 2906 13f5 32030000 		.4byte	.LLST30
 2907 13f9 3E       		.uleb128 0x3e
 2908 13fa 20000000 		.4byte	.LASF191
 2909 13fe 01       		.byte	0x1
 2910 13ff 4C       		.byte	0x4c
 2911 1400 E0090000 		.4byte	0x9e0
 2912 1404 50030000 		.4byte	.LLST31
 2913 1408 00       		.byte	0
 2914 1409 00       		.byte	0
 2915 140a 3F       		.uleb128 0x3f
 2916 140b 62010000 		.4byte	.LASF198
 2917 140f 15       		.byte	0x15
 2918 1410 0706     		.2byte	0x607
 2919 1412 960C0000 		.4byte	0xc96
 2920 1416 01       		.byte	0x1
 2921 1417 01       		.byte	0x1
 2922 1418 00       		.byte	0
 2923              		.section	.debug_abbrev,"",%progbits
 2924              	.Ldebug_abbrev0:
 2925 0000 01       		.uleb128 0x1
 2926 0001 11       		.uleb128 0x11
 2927 0002 01       		.byte	0x1
 2928 0003 25       		.uleb128 0x25
 2929 0004 0E       		.uleb128 0xe
 2930 0005 13       		.uleb128 0x13
 2931 0006 0B       		.uleb128 0xb
 2932 0007 03       		.uleb128 0x3
 2933 0008 0E       		.uleb128 0xe
 2934 0009 1B       		.uleb128 0x1b
 2935 000a 0E       		.uleb128 0xe
 2936 000b 11       		.uleb128 0x11
 2937 000c 01       		.uleb128 0x1
 2938 000d 52       		.uleb128 0x52
 2939 000e 01       		.uleb128 0x1
 2940 000f 55       		.uleb128 0x55
 2941 0010 06       		.uleb128 0x6
 2942 0011 10       		.uleb128 0x10
 2943 0012 06       		.uleb128 0x6
 2944 0013 00       		.byte	0
 2945 0014 00       		.byte	0
 2946 0015 02       		.uleb128 0x2
 2947 0016 24       		.uleb128 0x24
 2948 0017 00       		.byte	0
 2949 0018 0B       		.uleb128 0xb
 2950 0019 0B       		.uleb128 0xb
 2951 001a 3E       		.uleb128 0x3e
 2952 001b 0B       		.uleb128 0xb
 2953 001c 03       		.uleb128 0x3
 2954 001d 08       		.uleb128 0x8
 2955 001e 00       		.byte	0
 2956 001f 00       		.byte	0
 2957 0020 03       		.uleb128 0x3
 2958 0021 16       		.uleb128 0x16
ARM GAS  /tmp/ccPXEhp1.s 			page 53


 2959 0022 00       		.byte	0
 2960 0023 03       		.uleb128 0x3
 2961 0024 0E       		.uleb128 0xe
 2962 0025 3A       		.uleb128 0x3a
 2963 0026 0B       		.uleb128 0xb
 2964 0027 3B       		.uleb128 0x3b
 2965 0028 0B       		.uleb128 0xb
 2966 0029 49       		.uleb128 0x49
 2967 002a 13       		.uleb128 0x13
 2968 002b 00       		.byte	0
 2969 002c 00       		.byte	0
 2970 002d 04       		.uleb128 0x4
 2971 002e 24       		.uleb128 0x24
 2972 002f 00       		.byte	0
 2973 0030 0B       		.uleb128 0xb
 2974 0031 0B       		.uleb128 0xb
 2975 0032 3E       		.uleb128 0x3e
 2976 0033 0B       		.uleb128 0xb
 2977 0034 03       		.uleb128 0x3
 2978 0035 0E       		.uleb128 0xe
 2979 0036 00       		.byte	0
 2980 0037 00       		.byte	0
 2981 0038 05       		.uleb128 0x5
 2982 0039 13       		.uleb128 0x13
 2983 003a 01       		.byte	0x1
 2984 003b 03       		.uleb128 0x3
 2985 003c 0E       		.uleb128 0xe
 2986 003d 0B       		.uleb128 0xb
 2987 003e 0B       		.uleb128 0xb
 2988 003f 3A       		.uleb128 0x3a
 2989 0040 0B       		.uleb128 0xb
 2990 0041 3B       		.uleb128 0x3b
 2991 0042 0B       		.uleb128 0xb
 2992 0043 01       		.uleb128 0x1
 2993 0044 13       		.uleb128 0x13
 2994 0045 00       		.byte	0
 2995 0046 00       		.byte	0
 2996 0047 06       		.uleb128 0x6
 2997 0048 17       		.uleb128 0x17
 2998 0049 01       		.byte	0x1
 2999 004a 0B       		.uleb128 0xb
 3000 004b 0B       		.uleb128 0xb
 3001 004c 3A       		.uleb128 0x3a
 3002 004d 0B       		.uleb128 0xb
 3003 004e 3B       		.uleb128 0x3b
 3004 004f 0B       		.uleb128 0xb
 3005 0050 01       		.uleb128 0x1
 3006 0051 13       		.uleb128 0x13
 3007 0052 00       		.byte	0
 3008 0053 00       		.byte	0
 3009 0054 07       		.uleb128 0x7
 3010 0055 0D       		.uleb128 0xd
 3011 0056 00       		.byte	0
 3012 0057 03       		.uleb128 0x3
 3013 0058 0E       		.uleb128 0xe
 3014 0059 3A       		.uleb128 0x3a
 3015 005a 0B       		.uleb128 0xb
ARM GAS  /tmp/ccPXEhp1.s 			page 54


 3016 005b 3B       		.uleb128 0x3b
 3017 005c 0B       		.uleb128 0xb
 3018 005d 49       		.uleb128 0x49
 3019 005e 13       		.uleb128 0x13
 3020 005f 00       		.byte	0
 3021 0060 00       		.byte	0
 3022 0061 08       		.uleb128 0x8
 3023 0062 0D       		.uleb128 0xd
 3024 0063 00       		.byte	0
 3025 0064 03       		.uleb128 0x3
 3026 0065 0E       		.uleb128 0xe
 3027 0066 3A       		.uleb128 0x3a
 3028 0067 0B       		.uleb128 0xb
 3029 0068 3B       		.uleb128 0x3b
 3030 0069 0B       		.uleb128 0xb
 3031 006a 49       		.uleb128 0x49
 3032 006b 13       		.uleb128 0x13
 3033 006c 38       		.uleb128 0x38
 3034 006d 0A       		.uleb128 0xa
 3035 006e 00       		.byte	0
 3036 006f 00       		.byte	0
 3037 0070 09       		.uleb128 0x9
 3038 0071 0D       		.uleb128 0xd
 3039 0072 00       		.byte	0
 3040 0073 03       		.uleb128 0x3
 3041 0074 08       		.uleb128 0x8
 3042 0075 3A       		.uleb128 0x3a
 3043 0076 0B       		.uleb128 0xb
 3044 0077 3B       		.uleb128 0x3b
 3045 0078 0B       		.uleb128 0xb
 3046 0079 49       		.uleb128 0x49
 3047 007a 13       		.uleb128 0x13
 3048 007b 38       		.uleb128 0x38
 3049 007c 0A       		.uleb128 0xa
 3050 007d 00       		.byte	0
 3051 007e 00       		.byte	0
 3052 007f 0A       		.uleb128 0xa
 3053 0080 13       		.uleb128 0x13
 3054 0081 01       		.byte	0x1
 3055 0082 0B       		.uleb128 0xb
 3056 0083 0B       		.uleb128 0xb
 3057 0084 3A       		.uleb128 0x3a
 3058 0085 0B       		.uleb128 0xb
 3059 0086 3B       		.uleb128 0x3b
 3060 0087 0B       		.uleb128 0xb
 3061 0088 8740     		.uleb128 0x2007
 3062 008a 0E       		.uleb128 0xe
 3063 008b 01       		.uleb128 0x1
 3064 008c 13       		.uleb128 0x13
 3065 008d 00       		.byte	0
 3066 008e 00       		.byte	0
 3067 008f 0B       		.uleb128 0xb
 3068 0090 0F       		.uleb128 0xf
 3069 0091 00       		.byte	0
 3070 0092 0B       		.uleb128 0xb
 3071 0093 0B       		.uleb128 0xb
 3072 0094 49       		.uleb128 0x49
ARM GAS  /tmp/ccPXEhp1.s 			page 55


 3073 0095 13       		.uleb128 0x13
 3074 0096 00       		.byte	0
 3075 0097 00       		.byte	0
 3076 0098 0C       		.uleb128 0xc
 3077 0099 0F       		.uleb128 0xf
 3078 009a 00       		.byte	0
 3079 009b 0B       		.uleb128 0xb
 3080 009c 0B       		.uleb128 0xb
 3081 009d 00       		.byte	0
 3082 009e 00       		.byte	0
 3083 009f 0D       		.uleb128 0xd
 3084 00a0 13       		.uleb128 0x13
 3085 00a1 01       		.byte	0x1
 3086 00a2 03       		.uleb128 0x3
 3087 00a3 0E       		.uleb128 0xe
 3088 00a4 0B       		.uleb128 0xb
 3089 00a5 0B       		.uleb128 0xb
 3090 00a6 3A       		.uleb128 0x3a
 3091 00a7 0B       		.uleb128 0xb
 3092 00a8 3B       		.uleb128 0x3b
 3093 00a9 05       		.uleb128 0x5
 3094 00aa 01       		.uleb128 0x1
 3095 00ab 13       		.uleb128 0x13
 3096 00ac 00       		.byte	0
 3097 00ad 00       		.byte	0
 3098 00ae 0E       		.uleb128 0xe
 3099 00af 0D       		.uleb128 0xd
 3100 00b0 00       		.byte	0
 3101 00b1 03       		.uleb128 0x3
 3102 00b2 08       		.uleb128 0x8
 3103 00b3 3A       		.uleb128 0x3a
 3104 00b4 0B       		.uleb128 0xb
 3105 00b5 3B       		.uleb128 0x3b
 3106 00b6 05       		.uleb128 0x5
 3107 00b7 49       		.uleb128 0x49
 3108 00b8 13       		.uleb128 0x13
 3109 00b9 38       		.uleb128 0x38
 3110 00ba 0A       		.uleb128 0xa
 3111 00bb 00       		.byte	0
 3112 00bc 00       		.byte	0
 3113 00bd 0F       		.uleb128 0xf
 3114 00be 35       		.uleb128 0x35
 3115 00bf 00       		.byte	0
 3116 00c0 49       		.uleb128 0x49
 3117 00c1 13       		.uleb128 0x13
 3118 00c2 00       		.byte	0
 3119 00c3 00       		.byte	0
 3120 00c4 10       		.uleb128 0x10
 3121 00c5 15       		.uleb128 0x15
 3122 00c6 01       		.byte	0x1
 3123 00c7 49       		.uleb128 0x49
 3124 00c8 13       		.uleb128 0x13
 3125 00c9 01       		.uleb128 0x1
 3126 00ca 13       		.uleb128 0x13
 3127 00cb 00       		.byte	0
 3128 00cc 00       		.byte	0
 3129 00cd 11       		.uleb128 0x11
ARM GAS  /tmp/ccPXEhp1.s 			page 56


 3130 00ce 05       		.uleb128 0x5
 3131 00cf 00       		.byte	0
 3132 00d0 49       		.uleb128 0x49
 3133 00d1 13       		.uleb128 0x13
 3134 00d2 00       		.byte	0
 3135 00d3 00       		.byte	0
 3136 00d4 12       		.uleb128 0x12
 3137 00d5 26       		.uleb128 0x26
 3138 00d6 00       		.byte	0
 3139 00d7 49       		.uleb128 0x49
 3140 00d8 13       		.uleb128 0x13
 3141 00d9 00       		.byte	0
 3142 00da 00       		.byte	0
 3143 00db 13       		.uleb128 0x13
 3144 00dc 39       		.uleb128 0x39
 3145 00dd 00       		.byte	0
 3146 00de 03       		.uleb128 0x3
 3147 00df 0E       		.uleb128 0xe
 3148 00e0 3A       		.uleb128 0x3a
 3149 00e1 0B       		.uleb128 0xb
 3150 00e2 3B       		.uleb128 0x3b
 3151 00e3 0B       		.uleb128 0xb
 3152 00e4 00       		.byte	0
 3153 00e5 00       		.byte	0
 3154 00e6 14       		.uleb128 0x14
 3155 00e7 02       		.uleb128 0x2
 3156 00e8 01       		.byte	0x1
 3157 00e9 03       		.uleb128 0x3
 3158 00ea 0E       		.uleb128 0xe
 3159 00eb 0B       		.uleb128 0xb
 3160 00ec 0B       		.uleb128 0xb
 3161 00ed 3A       		.uleb128 0x3a
 3162 00ee 0B       		.uleb128 0xb
 3163 00ef 3B       		.uleb128 0x3b
 3164 00f0 0B       		.uleb128 0xb
 3165 00f1 01       		.uleb128 0x1
 3166 00f2 13       		.uleb128 0x13
 3167 00f3 00       		.byte	0
 3168 00f4 00       		.byte	0
 3169 00f5 15       		.uleb128 0x15
 3170 00f6 0D       		.uleb128 0xd
 3171 00f7 00       		.byte	0
 3172 00f8 03       		.uleb128 0x3
 3173 00f9 0E       		.uleb128 0xe
 3174 00fa 3A       		.uleb128 0x3a
 3175 00fb 0B       		.uleb128 0xb
 3176 00fc 3B       		.uleb128 0x3b
 3177 00fd 0B       		.uleb128 0xb
 3178 00fe 49       		.uleb128 0x49
 3179 00ff 13       		.uleb128 0x13
 3180 0100 38       		.uleb128 0x38
 3181 0101 0A       		.uleb128 0xa
 3182 0102 32       		.uleb128 0x32
 3183 0103 0B       		.uleb128 0xb
 3184 0104 00       		.byte	0
 3185 0105 00       		.byte	0
 3186 0106 16       		.uleb128 0x16
ARM GAS  /tmp/ccPXEhp1.s 			page 57


 3187 0107 2E       		.uleb128 0x2e
 3188 0108 01       		.byte	0x1
 3189 0109 3F       		.uleb128 0x3f
 3190 010a 0C       		.uleb128 0xc
 3191 010b 03       		.uleb128 0x3
 3192 010c 0E       		.uleb128 0xe
 3193 010d 3A       		.uleb128 0x3a
 3194 010e 0B       		.uleb128 0xb
 3195 010f 3B       		.uleb128 0x3b
 3196 0110 0B       		.uleb128 0xb
 3197 0111 49       		.uleb128 0x49
 3198 0112 13       		.uleb128 0x13
 3199 0113 3C       		.uleb128 0x3c
 3200 0114 0C       		.uleb128 0xc
 3201 0115 64       		.uleb128 0x64
 3202 0116 13       		.uleb128 0x13
 3203 0117 01       		.uleb128 0x1
 3204 0118 13       		.uleb128 0x13
 3205 0119 00       		.byte	0
 3206 011a 00       		.byte	0
 3207 011b 17       		.uleb128 0x17
 3208 011c 05       		.uleb128 0x5
 3209 011d 00       		.byte	0
 3210 011e 49       		.uleb128 0x49
 3211 011f 13       		.uleb128 0x13
 3212 0120 34       		.uleb128 0x34
 3213 0121 0C       		.uleb128 0xc
 3214 0122 00       		.byte	0
 3215 0123 00       		.byte	0
 3216 0124 18       		.uleb128 0x18
 3217 0125 2E       		.uleb128 0x2e
 3218 0126 01       		.byte	0x1
 3219 0127 3F       		.uleb128 0x3f
 3220 0128 0C       		.uleb128 0xc
 3221 0129 03       		.uleb128 0x3
 3222 012a 0E       		.uleb128 0xe
 3223 012b 3A       		.uleb128 0x3a
 3224 012c 0B       		.uleb128 0xb
 3225 012d 3B       		.uleb128 0x3b
 3226 012e 0B       		.uleb128 0xb
 3227 012f 8740     		.uleb128 0x2007
 3228 0131 0E       		.uleb128 0xe
 3229 0132 3C       		.uleb128 0x3c
 3230 0133 0C       		.uleb128 0xc
 3231 0134 64       		.uleb128 0x64
 3232 0135 13       		.uleb128 0x13
 3233 0136 01       		.uleb128 0x1
 3234 0137 13       		.uleb128 0x13
 3235 0138 00       		.byte	0
 3236 0139 00       		.byte	0
 3237 013a 19       		.uleb128 0x19
 3238 013b 2E       		.uleb128 0x2e
 3239 013c 01       		.byte	0x1
 3240 013d 3F       		.uleb128 0x3f
 3241 013e 0C       		.uleb128 0xc
 3242 013f 03       		.uleb128 0x3
 3243 0140 0E       		.uleb128 0xe
ARM GAS  /tmp/ccPXEhp1.s 			page 58


 3244 0141 3A       		.uleb128 0x3a
 3245 0142 0B       		.uleb128 0xb
 3246 0143 3B       		.uleb128 0x3b
 3247 0144 0B       		.uleb128 0xb
 3248 0145 8740     		.uleb128 0x2007
 3249 0147 0E       		.uleb128 0xe
 3250 0148 49       		.uleb128 0x49
 3251 0149 13       		.uleb128 0x13
 3252 014a 3C       		.uleb128 0x3c
 3253 014b 0C       		.uleb128 0xc
 3254 014c 64       		.uleb128 0x64
 3255 014d 13       		.uleb128 0x13
 3256 014e 01       		.uleb128 0x1
 3257 014f 13       		.uleb128 0x13
 3258 0150 00       		.byte	0
 3259 0151 00       		.byte	0
 3260 0152 1A       		.uleb128 0x1a
 3261 0153 2E       		.uleb128 0x2e
 3262 0154 01       		.byte	0x1
 3263 0155 3F       		.uleb128 0x3f
 3264 0156 0C       		.uleb128 0xc
 3265 0157 03       		.uleb128 0x3
 3266 0158 0E       		.uleb128 0xe
 3267 0159 3A       		.uleb128 0x3a
 3268 015a 0B       		.uleb128 0xb
 3269 015b 3B       		.uleb128 0x3b
 3270 015c 0B       		.uleb128 0xb
 3271 015d 8740     		.uleb128 0x2007
 3272 015f 0E       		.uleb128 0xe
 3273 0160 3C       		.uleb128 0x3c
 3274 0161 0C       		.uleb128 0xc
 3275 0162 64       		.uleb128 0x64
 3276 0163 13       		.uleb128 0x13
 3277 0164 00       		.byte	0
 3278 0165 00       		.byte	0
 3279 0166 1B       		.uleb128 0x1b
 3280 0167 2E       		.uleb128 0x2e
 3281 0168 01       		.byte	0x1
 3282 0169 3F       		.uleb128 0x3f
 3283 016a 0C       		.uleb128 0xc
 3284 016b 03       		.uleb128 0x3
 3285 016c 08       		.uleb128 0x8
 3286 016d 3A       		.uleb128 0x3a
 3287 016e 0B       		.uleb128 0xb
 3288 016f 3B       		.uleb128 0x3b
 3289 0170 0B       		.uleb128 0xb
 3290 0171 8740     		.uleb128 0x2007
 3291 0173 0E       		.uleb128 0xe
 3292 0174 49       		.uleb128 0x49
 3293 0175 13       		.uleb128 0x13
 3294 0176 3C       		.uleb128 0x3c
 3295 0177 0C       		.uleb128 0xc
 3296 0178 64       		.uleb128 0x64
 3297 0179 13       		.uleb128 0x13
 3298 017a 01       		.uleb128 0x1
 3299 017b 13       		.uleb128 0x13
 3300 017c 00       		.byte	0
ARM GAS  /tmp/ccPXEhp1.s 			page 59


 3301 017d 00       		.byte	0
 3302 017e 1C       		.uleb128 0x1c
 3303 017f 2E       		.uleb128 0x2e
 3304 0180 01       		.byte	0x1
 3305 0181 3F       		.uleb128 0x3f
 3306 0182 0C       		.uleb128 0xc
 3307 0183 03       		.uleb128 0x3
 3308 0184 0E       		.uleb128 0xe
 3309 0185 3A       		.uleb128 0x3a
 3310 0186 0B       		.uleb128 0xb
 3311 0187 3B       		.uleb128 0x3b
 3312 0188 0B       		.uleb128 0xb
 3313 0189 8740     		.uleb128 0x2007
 3314 018b 0E       		.uleb128 0xe
 3315 018c 49       		.uleb128 0x49
 3316 018d 13       		.uleb128 0x13
 3317 018e 3C       		.uleb128 0x3c
 3318 018f 0C       		.uleb128 0xc
 3319 0190 64       		.uleb128 0x64
 3320 0191 13       		.uleb128 0x13
 3321 0192 00       		.byte	0
 3322 0193 00       		.byte	0
 3323 0194 1D       		.uleb128 0x1d
 3324 0195 1C       		.uleb128 0x1c
 3325 0196 00       		.byte	0
 3326 0197 49       		.uleb128 0x49
 3327 0198 13       		.uleb128 0x13
 3328 0199 38       		.uleb128 0x38
 3329 019a 0A       		.uleb128 0xa
 3330 019b 32       		.uleb128 0x32
 3331 019c 0B       		.uleb128 0xb
 3332 019d 00       		.byte	0
 3333 019e 00       		.byte	0
 3334 019f 1E       		.uleb128 0x1e
 3335 01a0 0D       		.uleb128 0xd
 3336 01a1 00       		.byte	0
 3337 01a2 03       		.uleb128 0x3
 3338 01a3 08       		.uleb128 0x8
 3339 01a4 3A       		.uleb128 0x3a
 3340 01a5 0B       		.uleb128 0xb
 3341 01a6 3B       		.uleb128 0x3b
 3342 01a7 0B       		.uleb128 0xb
 3343 01a8 49       		.uleb128 0x49
 3344 01a9 13       		.uleb128 0x13
 3345 01aa 38       		.uleb128 0x38
 3346 01ab 0A       		.uleb128 0xa
 3347 01ac 32       		.uleb128 0x32
 3348 01ad 0B       		.uleb128 0xb
 3349 01ae 00       		.byte	0
 3350 01af 00       		.byte	0
 3351 01b0 1F       		.uleb128 0x1f
 3352 01b1 2E       		.uleb128 0x2e
 3353 01b2 01       		.byte	0x1
 3354 01b3 3F       		.uleb128 0x3f
 3355 01b4 0C       		.uleb128 0xc
 3356 01b5 03       		.uleb128 0x3
 3357 01b6 08       		.uleb128 0x8
ARM GAS  /tmp/ccPXEhp1.s 			page 60


 3358 01b7 3A       		.uleb128 0x3a
 3359 01b8 0B       		.uleb128 0xb
 3360 01b9 3B       		.uleb128 0x3b
 3361 01ba 0B       		.uleb128 0xb
 3362 01bb 8740     		.uleb128 0x2007
 3363 01bd 0E       		.uleb128 0xe
 3364 01be 3C       		.uleb128 0x3c
 3365 01bf 0C       		.uleb128 0xc
 3366 01c0 64       		.uleb128 0x64
 3367 01c1 13       		.uleb128 0x13
 3368 01c2 01       		.uleb128 0x1
 3369 01c3 13       		.uleb128 0x13
 3370 01c4 00       		.byte	0
 3371 01c5 00       		.byte	0
 3372 01c6 20       		.uleb128 0x20
 3373 01c7 2E       		.uleb128 0x2e
 3374 01c8 01       		.byte	0x1
 3375 01c9 3F       		.uleb128 0x3f
 3376 01ca 0C       		.uleb128 0xc
 3377 01cb 03       		.uleb128 0x3
 3378 01cc 08       		.uleb128 0x8
 3379 01cd 3A       		.uleb128 0x3a
 3380 01ce 0B       		.uleb128 0xb
 3381 01cf 3B       		.uleb128 0x3b
 3382 01d0 0B       		.uleb128 0xb
 3383 01d1 8740     		.uleb128 0x2007
 3384 01d3 0E       		.uleb128 0xe
 3385 01d4 49       		.uleb128 0x49
 3386 01d5 13       		.uleb128 0x13
 3387 01d6 3C       		.uleb128 0x3c
 3388 01d7 0C       		.uleb128 0xc
 3389 01d8 64       		.uleb128 0x64
 3390 01d9 13       		.uleb128 0x13
 3391 01da 00       		.byte	0
 3392 01db 00       		.byte	0
 3393 01dc 21       		.uleb128 0x21
 3394 01dd 13       		.uleb128 0x13
 3395 01de 01       		.byte	0x1
 3396 01df 0B       		.uleb128 0xb
 3397 01e0 0B       		.uleb128 0xb
 3398 01e1 3A       		.uleb128 0x3a
 3399 01e2 0B       		.uleb128 0xb
 3400 01e3 3B       		.uleb128 0x3b
 3401 01e4 0B       		.uleb128 0xb
 3402 01e5 01       		.uleb128 0x1
 3403 01e6 13       		.uleb128 0x13
 3404 01e7 00       		.byte	0
 3405 01e8 00       		.byte	0
 3406 01e9 22       		.uleb128 0x22
 3407 01ea 0D       		.uleb128 0xd
 3408 01eb 00       		.byte	0
 3409 01ec 49       		.uleb128 0x49
 3410 01ed 13       		.uleb128 0x13
 3411 01ee 00       		.byte	0
 3412 01ef 00       		.byte	0
 3413 01f0 23       		.uleb128 0x23
 3414 01f1 0D       		.uleb128 0xd
ARM GAS  /tmp/ccPXEhp1.s 			page 61


 3415 01f2 00       		.byte	0
 3416 01f3 49       		.uleb128 0x49
 3417 01f4 13       		.uleb128 0x13
 3418 01f5 38       		.uleb128 0x38
 3419 01f6 0A       		.uleb128 0xa
 3420 01f7 00       		.byte	0
 3421 01f8 00       		.byte	0
 3422 01f9 24       		.uleb128 0x24
 3423 01fa 0D       		.uleb128 0xd
 3424 01fb 00       		.byte	0
 3425 01fc 03       		.uleb128 0x3
 3426 01fd 0E       		.uleb128 0xe
 3427 01fe 3A       		.uleb128 0x3a
 3428 01ff 0B       		.uleb128 0xb
 3429 0200 3B       		.uleb128 0x3b
 3430 0201 0B       		.uleb128 0xb
 3431 0202 49       		.uleb128 0x49
 3432 0203 13       		.uleb128 0x13
 3433 0204 0B       		.uleb128 0xb
 3434 0205 0B       		.uleb128 0xb
 3435 0206 0D       		.uleb128 0xd
 3436 0207 0B       		.uleb128 0xb
 3437 0208 0C       		.uleb128 0xc
 3438 0209 0B       		.uleb128 0xb
 3439 020a 38       		.uleb128 0x38
 3440 020b 0A       		.uleb128 0xa
 3441 020c 00       		.byte	0
 3442 020d 00       		.byte	0
 3443 020e 25       		.uleb128 0x25
 3444 020f 15       		.uleb128 0x15
 3445 0210 01       		.byte	0x1
 3446 0211 01       		.uleb128 0x1
 3447 0212 13       		.uleb128 0x13
 3448 0213 00       		.byte	0
 3449 0214 00       		.byte	0
 3450 0215 26       		.uleb128 0x26
 3451 0216 04       		.uleb128 0x4
 3452 0217 01       		.byte	0x1
 3453 0218 0B       		.uleb128 0xb
 3454 0219 0B       		.uleb128 0xb
 3455 021a 3A       		.uleb128 0x3a
 3456 021b 0B       		.uleb128 0xb
 3457 021c 3B       		.uleb128 0x3b
 3458 021d 0B       		.uleb128 0xb
 3459 021e 8740     		.uleb128 0x2007
 3460 0220 0E       		.uleb128 0xe
 3461 0221 01       		.uleb128 0x1
 3462 0222 13       		.uleb128 0x13
 3463 0223 00       		.byte	0
 3464 0224 00       		.byte	0
 3465 0225 27       		.uleb128 0x27
 3466 0226 28       		.uleb128 0x28
 3467 0227 00       		.byte	0
 3468 0228 03       		.uleb128 0x3
 3469 0229 0E       		.uleb128 0xe
 3470 022a 1C       		.uleb128 0x1c
 3471 022b 0D       		.uleb128 0xd
ARM GAS  /tmp/ccPXEhp1.s 			page 62


 3472 022c 00       		.byte	0
 3473 022d 00       		.byte	0
 3474 022e 28       		.uleb128 0x28
 3475 022f 10       		.uleb128 0x10
 3476 0230 00       		.byte	0
 3477 0231 0B       		.uleb128 0xb
 3478 0232 0B       		.uleb128 0xb
 3479 0233 49       		.uleb128 0x49
 3480 0234 13       		.uleb128 0x13
 3481 0235 00       		.byte	0
 3482 0236 00       		.byte	0
 3483 0237 29       		.uleb128 0x29
 3484 0238 2E       		.uleb128 0x2e
 3485 0239 01       		.byte	0x1
 3486 023a 47       		.uleb128 0x47
 3487 023b 13       		.uleb128 0x13
 3488 023c 3A       		.uleb128 0x3a
 3489 023d 0B       		.uleb128 0xb
 3490 023e 3B       		.uleb128 0x3b
 3491 023f 0B       		.uleb128 0xb
 3492 0240 20       		.uleb128 0x20
 3493 0241 0B       		.uleb128 0xb
 3494 0242 64       		.uleb128 0x64
 3495 0243 13       		.uleb128 0x13
 3496 0244 01       		.uleb128 0x1
 3497 0245 13       		.uleb128 0x13
 3498 0246 00       		.byte	0
 3499 0247 00       		.byte	0
 3500 0248 2A       		.uleb128 0x2a
 3501 0249 05       		.uleb128 0x5
 3502 024a 00       		.byte	0
 3503 024b 03       		.uleb128 0x3
 3504 024c 0E       		.uleb128 0xe
 3505 024d 49       		.uleb128 0x49
 3506 024e 13       		.uleb128 0x13
 3507 024f 34       		.uleb128 0x34
 3508 0250 0C       		.uleb128 0xc
 3509 0251 00       		.byte	0
 3510 0252 00       		.byte	0
 3511 0253 2B       		.uleb128 0x2b
 3512 0254 05       		.uleb128 0x5
 3513 0255 00       		.byte	0
 3514 0256 03       		.uleb128 0x3
 3515 0257 08       		.uleb128 0x8
 3516 0258 3A       		.uleb128 0x3a
 3517 0259 0B       		.uleb128 0xb
 3518 025a 3B       		.uleb128 0x3b
 3519 025b 0B       		.uleb128 0xb
 3520 025c 49       		.uleb128 0x49
 3521 025d 13       		.uleb128 0x13
 3522 025e 00       		.byte	0
 3523 025f 00       		.byte	0
 3524 0260 2C       		.uleb128 0x2c
 3525 0261 05       		.uleb128 0x5
 3526 0262 00       		.byte	0
 3527 0263 03       		.uleb128 0x3
 3528 0264 0E       		.uleb128 0xe
ARM GAS  /tmp/ccPXEhp1.s 			page 63


 3529 0265 3A       		.uleb128 0x3a
 3530 0266 0B       		.uleb128 0xb
 3531 0267 3B       		.uleb128 0x3b
 3532 0268 0B       		.uleb128 0xb
 3533 0269 49       		.uleb128 0x49
 3534 026a 13       		.uleb128 0x13
 3535 026b 00       		.byte	0
 3536 026c 00       		.byte	0
 3537 026d 2D       		.uleb128 0x2d
 3538 026e 2E       		.uleb128 0x2e
 3539 026f 01       		.byte	0x1
 3540 0270 31       		.uleb128 0x31
 3541 0271 13       		.uleb128 0x13
 3542 0272 11       		.uleb128 0x11
 3543 0273 01       		.uleb128 0x1
 3544 0274 12       		.uleb128 0x12
 3545 0275 01       		.uleb128 0x1
 3546 0276 40       		.uleb128 0x40
 3547 0277 06       		.uleb128 0x6
 3548 0278 64       		.uleb128 0x64
 3549 0279 13       		.uleb128 0x13
 3550 027a 01       		.uleb128 0x1
 3551 027b 13       		.uleb128 0x13
 3552 027c 00       		.byte	0
 3553 027d 00       		.byte	0
 3554 027e 2E       		.uleb128 0x2e
 3555 027f 05       		.uleb128 0x5
 3556 0280 00       		.byte	0
 3557 0281 31       		.uleb128 0x31
 3558 0282 13       		.uleb128 0x13
 3559 0283 02       		.uleb128 0x2
 3560 0284 06       		.uleb128 0x6
 3561 0285 00       		.byte	0
 3562 0286 00       		.byte	0
 3563 0287 2F       		.uleb128 0x2f
 3564 0288 2E       		.uleb128 0x2e
 3565 0289 01       		.byte	0x1
 3566 028a 47       		.uleb128 0x47
 3567 028b 13       		.uleb128 0x13
 3568 028c 3A       		.uleb128 0x3a
 3569 028d 0B       		.uleb128 0xb
 3570 028e 11       		.uleb128 0x11
 3571 028f 01       		.uleb128 0x1
 3572 0290 12       		.uleb128 0x12
 3573 0291 01       		.uleb128 0x1
 3574 0292 40       		.uleb128 0x40
 3575 0293 0A       		.uleb128 0xa
 3576 0294 64       		.uleb128 0x64
 3577 0295 13       		.uleb128 0x13
 3578 0296 01       		.uleb128 0x1
 3579 0297 13       		.uleb128 0x13
 3580 0298 00       		.byte	0
 3581 0299 00       		.byte	0
 3582 029a 30       		.uleb128 0x30
 3583 029b 05       		.uleb128 0x5
 3584 029c 00       		.byte	0
 3585 029d 03       		.uleb128 0x3
ARM GAS  /tmp/ccPXEhp1.s 			page 64


 3586 029e 0E       		.uleb128 0xe
 3587 029f 49       		.uleb128 0x49
 3588 02a0 13       		.uleb128 0x13
 3589 02a1 34       		.uleb128 0x34
 3590 02a2 0C       		.uleb128 0xc
 3591 02a3 02       		.uleb128 0x2
 3592 02a4 06       		.uleb128 0x6
 3593 02a5 00       		.byte	0
 3594 02a6 00       		.byte	0
 3595 02a7 31       		.uleb128 0x31
 3596 02a8 0B       		.uleb128 0xb
 3597 02a9 01       		.byte	0x1
 3598 02aa 00       		.byte	0
 3599 02ab 00       		.byte	0
 3600 02ac 32       		.uleb128 0x32
 3601 02ad 34       		.uleb128 0x34
 3602 02ae 00       		.byte	0
 3603 02af 03       		.uleb128 0x3
 3604 02b0 08       		.uleb128 0x8
 3605 02b1 3A       		.uleb128 0x3a
 3606 02b2 0B       		.uleb128 0xb
 3607 02b3 3B       		.uleb128 0x3b
 3608 02b4 0B       		.uleb128 0xb
 3609 02b5 49       		.uleb128 0x49
 3610 02b6 13       		.uleb128 0x13
 3611 02b7 00       		.byte	0
 3612 02b8 00       		.byte	0
 3613 02b9 33       		.uleb128 0x33
 3614 02ba 2E       		.uleb128 0x2e
 3615 02bb 01       		.byte	0x1
 3616 02bc 47       		.uleb128 0x47
 3617 02bd 13       		.uleb128 0x13
 3618 02be 3A       		.uleb128 0x3a
 3619 02bf 0B       		.uleb128 0xb
 3620 02c0 3B       		.uleb128 0x3b
 3621 02c1 0B       		.uleb128 0xb
 3622 02c2 11       		.uleb128 0x11
 3623 02c3 01       		.uleb128 0x1
 3624 02c4 12       		.uleb128 0x12
 3625 02c5 01       		.uleb128 0x1
 3626 02c6 40       		.uleb128 0x40
 3627 02c7 06       		.uleb128 0x6
 3628 02c8 64       		.uleb128 0x64
 3629 02c9 13       		.uleb128 0x13
 3630 02ca 01       		.uleb128 0x1
 3631 02cb 13       		.uleb128 0x13
 3632 02cc 00       		.byte	0
 3633 02cd 00       		.byte	0
 3634 02ce 34       		.uleb128 0x34
 3635 02cf 0B       		.uleb128 0xb
 3636 02d0 01       		.byte	0x1
 3637 02d1 55       		.uleb128 0x55
 3638 02d2 06       		.uleb128 0x6
 3639 02d3 00       		.byte	0
 3640 02d4 00       		.byte	0
 3641 02d5 35       		.uleb128 0x35
 3642 02d6 34       		.uleb128 0x34
ARM GAS  /tmp/ccPXEhp1.s 			page 65


 3643 02d7 00       		.byte	0
 3644 02d8 03       		.uleb128 0x3
 3645 02d9 08       		.uleb128 0x8
 3646 02da 3A       		.uleb128 0x3a
 3647 02db 0B       		.uleb128 0xb
 3648 02dc 3B       		.uleb128 0x3b
 3649 02dd 0B       		.uleb128 0xb
 3650 02de 49       		.uleb128 0x49
 3651 02df 13       		.uleb128 0x13
 3652 02e0 02       		.uleb128 0x2
 3653 02e1 0A       		.uleb128 0xa
 3654 02e2 00       		.byte	0
 3655 02e3 00       		.byte	0
 3656 02e4 36       		.uleb128 0x36
 3657 02e5 0B       		.uleb128 0xb
 3658 02e6 01       		.byte	0x1
 3659 02e7 55       		.uleb128 0x55
 3660 02e8 06       		.uleb128 0x6
 3661 02e9 01       		.uleb128 0x1
 3662 02ea 13       		.uleb128 0x13
 3663 02eb 00       		.byte	0
 3664 02ec 00       		.byte	0
 3665 02ed 37       		.uleb128 0x37
 3666 02ee 34       		.uleb128 0x34
 3667 02ef 00       		.byte	0
 3668 02f0 03       		.uleb128 0x3
 3669 02f1 08       		.uleb128 0x8
 3670 02f2 3A       		.uleb128 0x3a
 3671 02f3 0B       		.uleb128 0xb
 3672 02f4 3B       		.uleb128 0x3b
 3673 02f5 0B       		.uleb128 0xb
 3674 02f6 49       		.uleb128 0x49
 3675 02f7 13       		.uleb128 0x13
 3676 02f8 02       		.uleb128 0x2
 3677 02f9 06       		.uleb128 0x6
 3678 02fa 00       		.byte	0
 3679 02fb 00       		.byte	0
 3680 02fc 38       		.uleb128 0x38
 3681 02fd 1D       		.uleb128 0x1d
 3682 02fe 01       		.byte	0x1
 3683 02ff 31       		.uleb128 0x31
 3684 0300 13       		.uleb128 0x13
 3685 0301 11       		.uleb128 0x11
 3686 0302 01       		.uleb128 0x1
 3687 0303 12       		.uleb128 0x12
 3688 0304 01       		.uleb128 0x1
 3689 0305 58       		.uleb128 0x58
 3690 0306 0B       		.uleb128 0xb
 3691 0307 59       		.uleb128 0x59
 3692 0308 0B       		.uleb128 0xb
 3693 0309 01       		.uleb128 0x1
 3694 030a 13       		.uleb128 0x13
 3695 030b 00       		.byte	0
 3696 030c 00       		.byte	0
 3697 030d 39       		.uleb128 0x39
 3698 030e 0B       		.uleb128 0xb
 3699 030f 01       		.byte	0x1
ARM GAS  /tmp/ccPXEhp1.s 			page 66


 3700 0310 11       		.uleb128 0x11
 3701 0311 01       		.uleb128 0x1
 3702 0312 12       		.uleb128 0x12
 3703 0313 01       		.uleb128 0x1
 3704 0314 00       		.byte	0
 3705 0315 00       		.byte	0
 3706 0316 3A       		.uleb128 0x3a
 3707 0317 34       		.uleb128 0x34
 3708 0318 00       		.byte	0
 3709 0319 31       		.uleb128 0x31
 3710 031a 13       		.uleb128 0x13
 3711 031b 02       		.uleb128 0x2
 3712 031c 06       		.uleb128 0x6
 3713 031d 00       		.byte	0
 3714 031e 00       		.byte	0
 3715 031f 3B       		.uleb128 0x3b
 3716 0320 05       		.uleb128 0x5
 3717 0321 00       		.byte	0
 3718 0322 03       		.uleb128 0x3
 3719 0323 08       		.uleb128 0x8
 3720 0324 3A       		.uleb128 0x3a
 3721 0325 0B       		.uleb128 0xb
 3722 0326 3B       		.uleb128 0x3b
 3723 0327 0B       		.uleb128 0xb
 3724 0328 49       		.uleb128 0x49
 3725 0329 13       		.uleb128 0x13
 3726 032a 02       		.uleb128 0x2
 3727 032b 06       		.uleb128 0x6
 3728 032c 00       		.byte	0
 3729 032d 00       		.byte	0
 3730 032e 3C       		.uleb128 0x3c
 3731 032f 0B       		.uleb128 0xb
 3732 0330 01       		.byte	0x1
 3733 0331 11       		.uleb128 0x11
 3734 0332 01       		.uleb128 0x1
 3735 0333 12       		.uleb128 0x12
 3736 0334 01       		.uleb128 0x1
 3737 0335 01       		.uleb128 0x1
 3738 0336 13       		.uleb128 0x13
 3739 0337 00       		.byte	0
 3740 0338 00       		.byte	0
 3741 0339 3D       		.uleb128 0x3d
 3742 033a 05       		.uleb128 0x5
 3743 033b 00       		.byte	0
 3744 033c 31       		.uleb128 0x31
 3745 033d 13       		.uleb128 0x13
 3746 033e 02       		.uleb128 0x2
 3747 033f 0A       		.uleb128 0xa
 3748 0340 00       		.byte	0
 3749 0341 00       		.byte	0
 3750 0342 3E       		.uleb128 0x3e
 3751 0343 34       		.uleb128 0x34
 3752 0344 00       		.byte	0
 3753 0345 03       		.uleb128 0x3
 3754 0346 0E       		.uleb128 0xe
 3755 0347 3A       		.uleb128 0x3a
 3756 0348 0B       		.uleb128 0xb
ARM GAS  /tmp/ccPXEhp1.s 			page 67


 3757 0349 3B       		.uleb128 0x3b
 3758 034a 0B       		.uleb128 0xb
 3759 034b 49       		.uleb128 0x49
 3760 034c 13       		.uleb128 0x13
 3761 034d 02       		.uleb128 0x2
 3762 034e 06       		.uleb128 0x6
 3763 034f 00       		.byte	0
 3764 0350 00       		.byte	0
 3765 0351 3F       		.uleb128 0x3f
 3766 0352 34       		.uleb128 0x34
 3767 0353 00       		.byte	0
 3768 0354 03       		.uleb128 0x3
 3769 0355 0E       		.uleb128 0xe
 3770 0356 3A       		.uleb128 0x3a
 3771 0357 0B       		.uleb128 0xb
 3772 0358 3B       		.uleb128 0x3b
 3773 0359 05       		.uleb128 0x5
 3774 035a 49       		.uleb128 0x49
 3775 035b 13       		.uleb128 0x13
 3776 035c 3F       		.uleb128 0x3f
 3777 035d 0C       		.uleb128 0xc
 3778 035e 3C       		.uleb128 0x3c
 3779 035f 0C       		.uleb128 0xc
 3780 0360 00       		.byte	0
 3781 0361 00       		.byte	0
 3782 0362 00       		.byte	0
 3783              		.section	.debug_loc,"",%progbits
 3784              	.Ldebug_loc0:
 3785              	.LLST0:
 3786 0000 00000000 		.4byte	.LFB81
 3787 0004 02000000 		.4byte	.LCFI0
 3788 0008 0200     		.2byte	0x2
 3789 000a 7D       		.byte	0x7d
 3790 000b 00       		.sleb128 0
 3791 000c 02000000 		.4byte	.LCFI0
 3792 0010 1C000000 		.4byte	.LFE81
 3793 0014 0200     		.2byte	0x2
 3794 0016 7D       		.byte	0x7d
 3795 0017 08       		.sleb128 8
 3796 0018 00000000 		.4byte	0
 3797 001c 00000000 		.4byte	0
 3798              	.LLST1:
 3799 0020 00000000 		.4byte	.LVL0
 3800 0024 0E000000 		.4byte	.LVL1
 3801 0028 0100     		.2byte	0x1
 3802 002a 50       		.byte	0x50
 3803 002b 0E000000 		.4byte	.LVL1
 3804 002f 1C000000 		.4byte	.LFE81
 3805 0033 0100     		.2byte	0x1
 3806 0035 54       		.byte	0x54
 3807 0036 00000000 		.4byte	0
 3808 003a 00000000 		.4byte	0
 3809              	.LLST2:
 3810 003e 00000000 		.4byte	.LVL0
 3811 0042 10000000 		.4byte	.LVL2
 3812 0046 0100     		.2byte	0x1
 3813 0048 51       		.byte	0x51
ARM GAS  /tmp/ccPXEhp1.s 			page 68


 3814 0049 10000000 		.4byte	.LVL2
 3815 004d 17000000 		.4byte	.LVL4-1
 3816 0051 0200     		.2byte	0x2
 3817 0053 74       		.byte	0x74
 3818 0054 00       		.sleb128 0
 3819 0055 00000000 		.4byte	0
 3820 0059 00000000 		.4byte	0
 3821              	.LLST3:
 3822 005d 00000000 		.4byte	.LVL0
 3823 0061 14000000 		.4byte	.LVL3
 3824 0065 0100     		.2byte	0x1
 3825 0067 52       		.byte	0x52
 3826 0068 14000000 		.4byte	.LVL3
 3827 006c 17000000 		.4byte	.LVL4-1
 3828 0070 0100     		.2byte	0x1
 3829 0072 51       		.byte	0x51
 3830 0073 00000000 		.4byte	0
 3831 0077 00000000 		.4byte	0
 3832              	.LLST4:
 3833 007b 00000000 		.4byte	.LVL5
 3834 007f 02000000 		.4byte	.LVL6
 3835 0083 0100     		.2byte	0x1
 3836 0085 50       		.byte	0x50
 3837 0086 00000000 		.4byte	0
 3838 008a 00000000 		.4byte	0
 3839              	.LLST5:
 3840 008e 00000000 		.4byte	.LFB84
 3841 0092 02000000 		.4byte	.LCFI1
 3842 0096 0200     		.2byte	0x2
 3843 0098 7D       		.byte	0x7d
 3844 0099 00       		.sleb128 0
 3845 009a 02000000 		.4byte	.LCFI1
 3846 009e 2C000000 		.4byte	.LFE84
 3847 00a2 0200     		.2byte	0x2
 3848 00a4 7D       		.byte	0x7d
 3849 00a5 08       		.sleb128 8
 3850 00a6 00000000 		.4byte	0
 3851 00aa 00000000 		.4byte	0
 3852              	.LLST6:
 3853 00ae 00000000 		.4byte	.LVL7
 3854 00b2 0D000000 		.4byte	.LVL10-1
 3855 00b6 0100     		.2byte	0x1
 3856 00b8 50       		.byte	0x50
 3857 00b9 0D000000 		.4byte	.LVL10-1
 3858 00bd 18000000 		.4byte	.LVL11
 3859 00c1 0100     		.2byte	0x1
 3860 00c3 54       		.byte	0x54
 3861 00c4 00000000 		.4byte	0
 3862 00c8 00000000 		.4byte	0
 3863              	.LLST7:
 3864 00cc 0A000000 		.4byte	.LVL9
 3865 00d0 0D000000 		.4byte	.LVL10-1
 3866 00d4 0100     		.2byte	0x1
 3867 00d6 53       		.byte	0x53
 3868 00d7 00000000 		.4byte	0
 3869 00db 00000000 		.4byte	0
 3870              	.LLST8:
ARM GAS  /tmp/ccPXEhp1.s 			page 69


 3871 00df 0E000000 		.4byte	.LVL10
 3872 00e3 18000000 		.4byte	.LVL11
 3873 00e7 0100     		.2byte	0x1
 3874 00e9 54       		.byte	0x54
 3875 00ea 00000000 		.4byte	0
 3876 00ee 00000000 		.4byte	0
 3877              	.LLST9:
 3878 00f2 18000000 		.4byte	.LVL11
 3879 00f6 1D000000 		.4byte	.LVL12-1
 3880 00fa 0100     		.2byte	0x1
 3881 00fc 50       		.byte	0x50
 3882 00fd 1D000000 		.4byte	.LVL12-1
 3883 0101 2C000000 		.4byte	.LFE84
 3884 0105 0100     		.2byte	0x1
 3885 0107 54       		.byte	0x54
 3886 0108 00000000 		.4byte	0
 3887 010c 00000000 		.4byte	0
 3888              	.LLST10:
 3889 0110 28000000 		.4byte	.LVL14
 3890 0114 2C000000 		.4byte	.LFE84
 3891 0118 0100     		.2byte	0x1
 3892 011a 53       		.byte	0x53
 3893 011b 00000000 		.4byte	0
 3894 011f 00000000 		.4byte	0
 3895              	.LLST11:
 3896 0123 00000000 		.4byte	.LFB85
 3897 0127 02000000 		.4byte	.LCFI2
 3898 012b 0200     		.2byte	0x2
 3899 012d 7D       		.byte	0x7d
 3900 012e 00       		.sleb128 0
 3901 012f 02000000 		.4byte	.LCFI2
 3902 0133 14000000 		.4byte	.LFE85
 3903 0137 0200     		.2byte	0x2
 3904 0139 7D       		.byte	0x7d
 3905 013a 08       		.sleb128 8
 3906 013b 00000000 		.4byte	0
 3907 013f 00000000 		.4byte	0
 3908              	.LLST12:
 3909 0143 00000000 		.4byte	.LVL15
 3910 0147 04000000 		.4byte	.LVL16
 3911 014b 0100     		.2byte	0x1
 3912 014d 50       		.byte	0x50
 3913 014e 04000000 		.4byte	.LVL16
 3914 0152 07000000 		.4byte	.LVL17-1
 3915 0156 0300     		.2byte	0x3
 3916 0158 70       		.byte	0x70
 3917 0159 74       		.sleb128 -12
 3918 015a 9F       		.byte	0x9f
 3919 015b 00000000 		.4byte	0
 3920 015f 00000000 		.4byte	0
 3921              	.LLST13:
 3922 0163 0A000000 		.4byte	.LVL18
 3923 0167 0F000000 		.4byte	.LVL19-1
 3924 016b 0100     		.2byte	0x1
 3925 016d 50       		.byte	0x50
 3926 016e 0F000000 		.4byte	.LVL19-1
 3927 0172 14000000 		.4byte	.LFE85
ARM GAS  /tmp/ccPXEhp1.s 			page 70


 3928 0176 0100     		.2byte	0x1
 3929 0178 54       		.byte	0x54
 3930 0179 00000000 		.4byte	0
 3931 017d 00000000 		.4byte	0
 3932              	.LLST14:
 3933 0181 00000000 		.4byte	.LFB86
 3934 0185 02000000 		.4byte	.LCFI3
 3935 0189 0200     		.2byte	0x2
 3936 018b 7D       		.byte	0x7d
 3937 018c 00       		.sleb128 0
 3938 018d 02000000 		.4byte	.LCFI3
 3939 0191 2E000000 		.4byte	.LFE86
 3940 0195 0200     		.2byte	0x2
 3941 0197 7D       		.byte	0x7d
 3942 0198 10       		.sleb128 16
 3943 0199 00000000 		.4byte	0
 3944 019d 00000000 		.4byte	0
 3945              	.LLST15:
 3946 01a1 00000000 		.4byte	.LVL20
 3947 01a5 0F000000 		.4byte	.LVL23-1
 3948 01a9 0100     		.2byte	0x1
 3949 01ab 50       		.byte	0x50
 3950 01ac 0F000000 		.4byte	.LVL23-1
 3951 01b0 2E000000 		.4byte	.LFE86
 3952 01b4 0100     		.2byte	0x1
 3953 01b6 54       		.byte	0x54
 3954 01b7 00000000 		.4byte	0
 3955 01bb 00000000 		.4byte	0
 3956              	.LLST16:
 3957 01bf 00000000 		.4byte	.LVL20
 3958 01c3 0F000000 		.4byte	.LVL23-1
 3959 01c7 0100     		.2byte	0x1
 3960 01c9 51       		.byte	0x51
 3961 01ca 0F000000 		.4byte	.LVL23-1
 3962 01ce 2E000000 		.4byte	.LFE86
 3963 01d2 0100     		.2byte	0x1
 3964 01d4 55       		.byte	0x55
 3965 01d5 00000000 		.4byte	0
 3966 01d9 00000000 		.4byte	0
 3967              	.LLST17:
 3968 01dd 0C000000 		.4byte	.LVL22
 3969 01e1 0F000000 		.4byte	.LVL23-1
 3970 01e5 0100     		.2byte	0x1
 3971 01e7 53       		.byte	0x53
 3972 01e8 00000000 		.4byte	0
 3973 01ec 00000000 		.4byte	0
 3974              	.LLST18:
 3975 01f0 2C000000 		.4byte	.LVL25
 3976 01f4 2E000000 		.4byte	.LFE86
 3977 01f8 0100     		.2byte	0x1
 3978 01fa 53       		.byte	0x53
 3979 01fb 00000000 		.4byte	0
 3980 01ff 00000000 		.4byte	0
 3981              	.LLST19:
 3982 0203 00000000 		.4byte	.LFB87
 3983 0207 02000000 		.4byte	.LCFI4
 3984 020b 0200     		.2byte	0x2
ARM GAS  /tmp/ccPXEhp1.s 			page 71


 3985 020d 7D       		.byte	0x7d
 3986 020e 00       		.sleb128 0
 3987 020f 02000000 		.4byte	.LCFI4
 3988 0213 1E000000 		.4byte	.LFE87
 3989 0217 0200     		.2byte	0x2
 3990 0219 7D       		.byte	0x7d
 3991 021a 10       		.sleb128 16
 3992 021b 00000000 		.4byte	0
 3993 021f 00000000 		.4byte	0
 3994              	.LLST20:
 3995 0223 00000000 		.4byte	.LVL26
 3996 0227 06000000 		.4byte	.LVL27
 3997 022b 0100     		.2byte	0x1
 3998 022d 50       		.byte	0x50
 3999 022e 06000000 		.4byte	.LVL27
 4000 0232 1E000000 		.4byte	.LFE87
 4001 0236 0100     		.2byte	0x1
 4002 0238 55       		.byte	0x55
 4003 0239 00000000 		.4byte	0
 4004 023d 00000000 		.4byte	0
 4005              	.LLST21:
 4006 0241 00000000 		.4byte	.LVL26
 4007 0245 0B000000 		.4byte	.LVL28-1
 4008 0249 0100     		.2byte	0x1
 4009 024b 51       		.byte	0x51
 4010 024c 0B000000 		.4byte	.LVL28-1
 4011 0250 1E000000 		.4byte	.LFE87
 4012 0254 0100     		.2byte	0x1
 4013 0256 54       		.byte	0x54
 4014 0257 00000000 		.4byte	0
 4015 025b 00000000 		.4byte	0
 4016              	.LLST22:
 4017 025f 00000000 		.4byte	.LFB88
 4018 0263 04000000 		.4byte	.LCFI5
 4019 0267 0200     		.2byte	0x2
 4020 0269 7D       		.byte	0x7d
 4021 026a 00       		.sleb128 0
 4022 026b 04000000 		.4byte	.LCFI5
 4023 026f 1A000000 		.4byte	.LFE88
 4024 0273 0200     		.2byte	0x2
 4025 0275 7D       		.byte	0x7d
 4026 0276 08       		.sleb128 8
 4027 0277 00000000 		.4byte	0
 4028 027b 00000000 		.4byte	0
 4029              	.LLST23:
 4030 027f 00000000 		.4byte	.LVL29
 4031 0283 02000000 		.4byte	.LVL30
 4032 0287 0100     		.2byte	0x1
 4033 0289 50       		.byte	0x50
 4034 028a 00000000 		.4byte	0
 4035 028e 00000000 		.4byte	0
 4036              	.LLST24:
 4037 0292 00000000 		.4byte	.LVL29
 4038 0296 0A000000 		.4byte	.LVL31
 4039 029a 0100     		.2byte	0x1
 4040 029c 51       		.byte	0x51
 4041 029d 0A000000 		.4byte	.LVL31
ARM GAS  /tmp/ccPXEhp1.s 			page 72


 4042 02a1 1A000000 		.4byte	.LFE88
 4043 02a5 0100     		.2byte	0x1
 4044 02a7 54       		.byte	0x54
 4045 02a8 00000000 		.4byte	0
 4046 02ac 00000000 		.4byte	0
 4047              	.LLST25:
 4048 02b0 02000000 		.4byte	.LVL30
 4049 02b4 0D000000 		.4byte	.LVL32-1
 4050 02b8 0100     		.2byte	0x1
 4051 02ba 50       		.byte	0x50
 4052 02bb 0E000000 		.4byte	.LVL32
 4053 02bf 19000000 		.4byte	.LVL33-1
 4054 02c3 0100     		.2byte	0x1
 4055 02c5 50       		.byte	0x50
 4056 02c6 00000000 		.4byte	0
 4057 02ca 00000000 		.4byte	0
 4058              	.LLST26:
 4059 02ce 02000000 		.4byte	.LVL30
 4060 02d2 0D000000 		.4byte	.LVL32-1
 4061 02d6 0100     		.2byte	0x1
 4062 02d8 50       		.byte	0x50
 4063 02d9 00000000 		.4byte	0
 4064 02dd 00000000 		.4byte	0
 4065              	.LLST27:
 4066 02e1 00000000 		.4byte	.LFB89
 4067 02e5 04000000 		.4byte	.LCFI6
 4068 02e9 0200     		.2byte	0x2
 4069 02eb 7D       		.byte	0x7d
 4070 02ec 00       		.sleb128 0
 4071 02ed 04000000 		.4byte	.LCFI6
 4072 02f1 1A000000 		.4byte	.LFE89
 4073 02f5 0200     		.2byte	0x2
 4074 02f7 7D       		.byte	0x7d
 4075 02f8 08       		.sleb128 8
 4076 02f9 00000000 		.4byte	0
 4077 02fd 00000000 		.4byte	0
 4078              	.LLST28:
 4079 0301 00000000 		.4byte	.LVL34
 4080 0305 02000000 		.4byte	.LVL35
 4081 0309 0100     		.2byte	0x1
 4082 030b 50       		.byte	0x50
 4083 030c 00000000 		.4byte	0
 4084 0310 00000000 		.4byte	0
 4085              	.LLST29:
 4086 0314 00000000 		.4byte	.LVL34
 4087 0318 0A000000 		.4byte	.LVL36
 4088 031c 0100     		.2byte	0x1
 4089 031e 51       		.byte	0x51
 4090 031f 0A000000 		.4byte	.LVL36
 4091 0323 1A000000 		.4byte	.LFE89
 4092 0327 0100     		.2byte	0x1
 4093 0329 54       		.byte	0x54
 4094 032a 00000000 		.4byte	0
 4095 032e 00000000 		.4byte	0
 4096              	.LLST30:
 4097 0332 02000000 		.4byte	.LVL35
 4098 0336 0D000000 		.4byte	.LVL37-1
ARM GAS  /tmp/ccPXEhp1.s 			page 73


 4099 033a 0100     		.2byte	0x1
 4100 033c 50       		.byte	0x50
 4101 033d 0E000000 		.4byte	.LVL37
 4102 0341 19000000 		.4byte	.LVL38-1
 4103 0345 0100     		.2byte	0x1
 4104 0347 50       		.byte	0x50
 4105 0348 00000000 		.4byte	0
 4106 034c 00000000 		.4byte	0
 4107              	.LLST31:
 4108 0350 02000000 		.4byte	.LVL35
 4109 0354 0D000000 		.4byte	.LVL37-1
 4110 0358 0100     		.2byte	0x1
 4111 035a 50       		.byte	0x50
 4112 035b 00000000 		.4byte	0
 4113 035f 00000000 		.4byte	0
 4114              		.section	.debug_aranges,"",%progbits
 4115 0000 54000000 		.4byte	0x54
 4116 0004 0200     		.2byte	0x2
 4117 0006 00000000 		.4byte	.Ldebug_info0
 4118 000a 04       		.byte	0x4
 4119 000b 00       		.byte	0
 4120 000c 0000     		.2byte	0
 4121 000e 0000     		.2byte	0
 4122 0010 00000000 		.4byte	.LFB81
 4123 0014 1C000000 		.4byte	.LFE81-.LFB81
 4124 0018 00000000 		.4byte	.LFB83
 4125 001c 04000000 		.4byte	.LFE83-.LFB83
 4126 0020 00000000 		.4byte	.LFB84
 4127 0024 2C000000 		.4byte	.LFE84-.LFB84
 4128 0028 00000000 		.4byte	.LFB85
 4129 002c 14000000 		.4byte	.LFE85-.LFB85
 4130 0030 00000000 		.4byte	.LFB86
 4131 0034 2E000000 		.4byte	.LFE86-.LFB86
 4132 0038 00000000 		.4byte	.LFB87
 4133 003c 1E000000 		.4byte	.LFE87-.LFB87
 4134 0040 00000000 		.4byte	.LFB88
 4135 0044 1A000000 		.4byte	.LFE88-.LFB88
 4136 0048 00000000 		.4byte	.LFB89
 4137 004c 1A000000 		.4byte	.LFE89-.LFB89
 4138 0050 00000000 		.4byte	0
 4139 0054 00000000 		.4byte	0
 4140              		.section	.debug_ranges,"",%progbits
 4141              	.Ldebug_ranges0:
 4142 0000 02000000 		.4byte	.LBB12
 4143 0004 04000000 		.4byte	.LBE12
 4144 0008 06000000 		.4byte	.LBB21
 4145 000c 28000000 		.4byte	.LBE21
 4146 0010 00000000 		.4byte	0
 4147 0014 00000000 		.4byte	0
 4148 0018 02000000 		.4byte	.LBB14
 4149 001c 04000000 		.4byte	.LBE14
 4150 0020 06000000 		.4byte	.LBB15
 4151 0024 0A000000 		.4byte	.LBE15
 4152 0028 00000000 		.4byte	0
 4153 002c 00000000 		.4byte	0
 4154 0030 00000000 		.4byte	.LBB36
 4155 0034 02000000 		.4byte	.LBE36
ARM GAS  /tmp/ccPXEhp1.s 			page 74


 4156 0038 04000000 		.4byte	.LBB37
 4157 003c 06000000 		.4byte	.LBE37
 4158 0040 08000000 		.4byte	.LBB38
 4159 0044 12000000 		.4byte	.LBE38
 4160 0048 16000000 		.4byte	.LBB39
 4161 004c 1A000000 		.4byte	.LBE39
 4162 0050 00000000 		.4byte	0
 4163 0054 00000000 		.4byte	0
 4164 0058 00000000 		.4byte	.LBB40
 4165 005c 02000000 		.4byte	.LBE40
 4166 0060 04000000 		.4byte	.LBB41
 4167 0064 06000000 		.4byte	.LBE41
 4168 0068 08000000 		.4byte	.LBB42
 4169 006c 12000000 		.4byte	.LBE42
 4170 0070 16000000 		.4byte	.LBB43
 4171 0074 1A000000 		.4byte	.LBE43
 4172 0078 00000000 		.4byte	0
 4173 007c 00000000 		.4byte	0
 4174 0080 00000000 		.4byte	.LFB81
 4175 0084 1C000000 		.4byte	.LFE81
 4176 0088 00000000 		.4byte	.LFB83
 4177 008c 04000000 		.4byte	.LFE83
 4178 0090 00000000 		.4byte	.LFB84
 4179 0094 2C000000 		.4byte	.LFE84
 4180 0098 00000000 		.4byte	.LFB85
 4181 009c 14000000 		.4byte	.LFE85
 4182 00a0 00000000 		.4byte	.LFB86
 4183 00a4 2E000000 		.4byte	.LFE86
 4184 00a8 00000000 		.4byte	.LFB87
 4185 00ac 1E000000 		.4byte	.LFE87
 4186 00b0 00000000 		.4byte	.LFB88
 4187 00b4 1A000000 		.4byte	.LFE88
 4188 00b8 00000000 		.4byte	.LFB89
 4189 00bc 1A000000 		.4byte	.LFE89
 4190 00c0 00000000 		.4byte	0
 4191 00c4 00000000 		.4byte	0
 4192              		.section	.debug_line,"",%progbits
 4193              	.Ldebug_line0:
 4194 0000 DF030000 		.section	.debug_str,"MS",%progbits,1
 4194      02002203 
 4194      00000201 
 4194      FB0E0D00 
 4194      01010101 
 4195              	.LASF82:
 4196 0000 5F5A4E31 		.ascii	"_ZN11BaseMessage11dereferenceEv\000"
 4196      31426173 
 4196      654D6573 
 4196      73616765 
 4196      31316465 
 4197              	.LASF191:
 4198 0020 70726576 		.ascii	"prev\000"
 4198      00
 4199              	.LASF148:
 4200 0025 5F5A4E31 		.ascii	"_ZN14LocalPublisher9subscribeEP16RemoteSubscriberPv"
 4200      344C6F63 
 4200      616C5075 
 4200      626C6973 
ARM GAS  /tmp/ccPXEhp1.s 			page 75


 4200      68657239 
 4201 0058 6A506D00 		.ascii	"jPm\000"
 4202              	.LASF178:
 4203 005c 5F5A4E31 		.ascii	"_ZN14BaseSubscriber8releaseIEP11BaseMessage\000"
 4203      34426173 
 4203      65537562 
 4203      73637269 
 4203      62657238 
 4204              	.LASF2:
 4205 0088 73697A65 		.ascii	"size_t\000"
 4205      5F7400
 4206              	.LASF86:
 4207 008f 67657449 		.ascii	"getI\000"
 4207      00
 4208              	.LASF26:
 4209 0094 7264796D 		.ascii	"rdymsg\000"
 4209      736700
 4210              	.LASF74:
 4211 009b 5F726566 		.ascii	"_ref_count\000"
 4211      5F636F75 
 4211      6E7400
 4212              	.LASF71:
 4213 00a6 42617365 		.ascii	"BaseMessage\000"
 4213      4D657373 
 4213      61676500 
 4214              	.LASF133:
 4215 00b2 52656D6F 		.ascii	"RemoteSubscriber\000"
 4215      74655375 
 4215      62736372 
 4215      69626572 
 4215      00
 4216              	.LASF65:
 4217 00c3 31304D65 		.ascii	"10MemoryPool\000"
 4217      6D6F7279 
 4217      506F6F6C 
 4217      00
 4218              	.LASF152:
 4219 00d0 70657269 		.ascii	"period\000"
 4219      6F6400
 4220              	.LASF62:
 4221 00d7 6D656D67 		.ascii	"memgetfunc_t\000"
 4221      65746675 
 4221      6E635F74 
 4221      00
 4222              	.LASF102:
 4223 00e4 616C6C6F 		.ascii	"allocI\000"
 4223      634900
 4224              	.LASF14:
 4225 00eb 6C6F6E67 		.ascii	"long long unsigned int\000"
 4225      206C6F6E 
 4225      6720756E 
 4225      7369676E 
 4225      65642069 
 4226              	.LASF161:
 4227 0102 52544341 		.ascii	"RTCAN_MSG_ONAIR\000"
 4227      4E5F4D53 
 4227      475F4F4E 
ARM GAS  /tmp/ccPXEhp1.s 			page 76


 4227      41495200 
 4228              	.LASF27:
 4229 0112 65786974 		.ascii	"exitcode\000"
 4229      636F6465 
 4229      00
 4230              	.LASF195:
 4231 011b 63686962 		.ascii	"chibios_rt\000"
 4231      696F735F 
 4231      727400
 4232              	.LASF142:
 4233 0126 4C6F6361 		.ascii	"LocalPublisher\000"
 4233      6C507562 
 4233      6C697368 
 4233      657200
 4234              	.LASF146:
 4235 0135 5F5A4E31 		.ascii	"_ZN14LocalPublisher9broadcastEP11BaseMessage\000"
 4235      344C6F63 
 4235      616C5075 
 4235      626C6973 
 4235      68657239 
 4236              	.LASF198:
 4237 0162 49544D5F 		.ascii	"ITM_RxBuffer\000"
 4237      52784275 
 4237      66666572 
 4237      00
 4238              	.LASF88:
 4239 016f 5F5A4E31 		.ascii	"_ZN12MessageQueue3getEv\000"
 4239      324D6573 
 4239      73616765 
 4239      51756575 
 4239      65336765 
 4240              	.LASF118:
 4241 0187 6E657874 		.ascii	"next\000"
 4241      00
 4242              	.LASF97:
 4243 018c 5F706F6F 		.ascii	"_pool\000"
 4243      6C00
 4244              	.LASF32:
 4245 0192 705F7072 		.ascii	"p_prio\000"
 4245      696F00
 4246              	.LASF171:
 4247 0199 5F5A4E31 		.ascii	"_ZN14BaseSubscriber5topicEv\000"
 4247      34426173 
 4247      65537562 
 4247      73637269 
 4247      62657235 
 4248              	.LASF12:
 4249 01b5 6C6F6E67 		.ascii	"long long int\000"
 4249      206C6F6E 
 4249      6720696E 
 4249      7400
 4250              	.LASF1:
 4251 01c3 7369676E 		.ascii	"signed char\000"
 4251      65642063 
 4251      68617200 
 4252              	.LASF126:
 4253 01cf 73756273 		.ascii	"subscribe\000"
ARM GAS  /tmp/ccPXEhp1.s 			page 77


 4253      63726962 
 4253      6500
 4254              	.LASF104:
 4255 01d9 72656C65 		.ascii	"release\000"
 4255      61736500 
 4256              	.LASF68:
 4257 01e1 6D705F70 		.ascii	"mp_provider\000"
 4257      726F7669 
 4257      64657200 
 4258              	.LASF111:
 4259 01ed 5F5A4E31 		.ascii	"_ZN11BaseMessage5resetEv\000"
 4259      31426173 
 4259      654D6573 
 4259      73616765 
 4259      35726573 
 4260              	.LASF15:
 4261 0206 626F6F6C 		.ascii	"bool_t\000"
 4261      5F7400
 4262              	.LASF59:
 4263 020d 6D5F7175 		.ascii	"m_queue\000"
 4263      65756500 
 4264              	.LASF140:
 4265 0215 5F5A4E31 		.ascii	"_ZN16RemoteSubscriber2idEt\000"
 4265      3652656D 
 4265      6F746553 
 4265      75627363 
 4265      72696265 
 4266              	.LASF141:
 4267 0230 5F5A4E31 		.ascii	"_ZN16RemoteSubscriber2idEv\000"
 4267      3652656D 
 4267      6F746553 
 4267      75627363 
 4267      72696265 
 4268              	.LASF20:
 4269 024b 74736C69 		.ascii	"tslices_t\000"
 4269      6365735F 
 4269      7400
 4270              	.LASF52:
 4271 0255 31315468 		.ascii	"11ThreadsList\000"
 4271      72656164 
 4271      734C6973 
 4271      7400
 4272              	.LASF145:
 4273 0263 62726F61 		.ascii	"broadcast\000"
 4273      64636173 
 4273      7400
 4274              	.LASF9:
 4275 026d 6C6F6E67 		.ascii	"long int\000"
 4275      20696E74 
 4275      00
 4276              	.LASF135:
 4277 0276 5F5A4E31 		.ascii	"_ZN16RemoteSubscriber4nextEPS_\000"
 4277      3652656D 
 4277      6F746553 
 4277      75627363 
 4277      72696265 
 4278              	.LASF94:
ARM GAS  /tmp/ccPXEhp1.s 			page 78


 4279 0295 5F746F70 		.ascii	"_topic\000"
 4279      696300
 4280              	.LASF129:
 4281 029c 5F5A4E31 		.ascii	"_ZN15LocalSubscriber11unsubscribeEv\000"
 4281      354C6F63 
 4281      616C5375 
 4281      62736372 
 4281      69626572 
 4282              	.LASF194:
 4283 02c0 2F686F6D 		.ascii	"/home/tino/workspace/openrobots/R2P_IR_module/fw\000"
 4283      652F7469 
 4283      6E6F2F77 
 4283      6F726B73 
 4283      70616365 
 4284              	.LASF98:
 4285 02f1 746F7069 		.ascii	"topic\000"
 4285      6300
 4286              	.LASF124:
 4287 02f7 5F5A4E31 		.ascii	"_ZN15LocalSubscriber6notifyEP11BaseMessage\000"
 4287      354C6F63 
 4287      616C5375 
 4287      62736372 
 4287      69626572 
 4288              	.LASF169:
 4289 0322 5F717565 		.ascii	"_queue\000"
 4289      756500
 4290              	.LASF75:
 4291 0329 5F627566 		.ascii	"_buffer\000"
 4291      66657200 
 4292              	.LASF137:
 4293 0331 5F5A4E31 		.ascii	"_ZN16RemoteSubscriber6notifyEP11BaseMessage\000"
 4293      3652656D 
 4293      6F746553 
 4293      75627363 
 4293      72696265 
 4294              	.LASF6:
 4295 035d 75696E74 		.ascii	"uint16_t\000"
 4295      31365F74 
 4295      00
 4296              	.LASF42:
 4297 0366 705F7469 		.ascii	"p_time\000"
 4297      6D6500
 4298              	.LASF95:
 4299 036d 5F737562 		.ascii	"_subscribers\000"
 4299      73637269 
 4299      62657273 
 4299      00
 4300              	.LASF18:
 4301 037a 74737461 		.ascii	"tstate_t\000"
 4301      74655F74 
 4301      00
 4302              	.LASF190:
 4303 0383 74686973 		.ascii	"this\000"
 4303      00
 4304              	.LASF34:
 4305 0388 705F6E65 		.ascii	"p_newer\000"
 4305      77657200 
ARM GAS  /tmp/ccPXEhp1.s 			page 79


 4306              	.LASF105:
 4307 0390 5F5A4E31 		.ascii	"_ZN13BasePublisher7releaseEP11BaseMessage\000"
 4307      33426173 
 4307      65507562 
 4307      6C697368 
 4307      65723772 
 4308              	.LASF176:
 4309 03ba 5F5A4E31 		.ascii	"_ZN14BaseSubscriber3getEv\000"
 4309      34426173 
 4309      65537562 
 4309      73637269 
 4309      62657233 
 4310              	.LASF184:
 4311 03d4 62726F61 		.ascii	"broadcastI\000"
 4311      64636173 
 4311      744900
 4312              	.LASF49:
 4313 03df 705F6D70 		.ascii	"p_mpool\000"
 4313      6F6F6C00 
 4314              	.LASF54:
 4315 03e7 72656761 		.ascii	"regarm_t\000"
 4315      726D5F74 
 4315      00
 4316              	.LASF121:
 4317 03f0 6C696E6B 		.ascii	"link\000"
 4317      00
 4318              	.LASF197:
 4319 03f5 31377274 		.ascii	"17rtcan_msgstatus_t\000"
 4319      63616E5F 
 4319      6D736773 
 4319      74617475 
 4319      735F7400 
 4320              	.LASF110:
 4321 0409 72657365 		.ascii	"reset\000"
 4321      7400
 4322              	.LASF78:
 4323 040f 5F726561 		.ascii	"_read\000"
 4323      6400
 4324              	.LASF106:
 4325 0415 72656C65 		.ascii	"releaseI\000"
 4325      61736549 
 4325      00
 4326              	.LASF182:
 4327 041e 5F5A4E31 		.ascii	"_ZN15RemotePublisher4nextEv\000"
 4327      3552656D 
 4327      6F746550 
 4327      75626C69 
 4327      73686572 
 4328              	.LASF157:
 4329 043a 52544341 		.ascii	"RTCAN_MSG_UNINIT\000"
 4329      4E5F4D53 
 4329      475F554E 
 4329      494E4954 
 4329      00
 4330              	.LASF101:
 4331 044b 5F5A4E31 		.ascii	"_ZN13BasePublisher5allocEv\000"
 4331      33426173 
ARM GAS  /tmp/ccPXEhp1.s 			page 80


 4331      65507562 
 4331      6C697368 
 4331      65723561 
 4332              	.LASF37:
 4333 0466 705F7374 		.ascii	"p_stklimit\000"
 4333      6B6C696D 
 4333      697400
 4334              	.LASF0:
 4335 0471 756E7369 		.ascii	"unsigned int\000"
 4335      676E6564 
 4335      20696E74 
 4335      00
 4336              	.LASF119:
 4337 047e 5F5A4E31 		.ascii	"_ZN15LocalSubscriber4nextEv\000"
 4337      354C6F63 
 4337      616C5375 
 4337      62736372 
 4337      69626572 
 4338              	.LASF167:
 4339 049a 5F6D7367 		.ascii	"_msg_size\000"
 4339      5F73697A 
 4339      6500
 4340              	.LASF92:
 4341 04a4 5F5A4E31 		.ascii	"_ZN12MessageQueue4putIEP11BaseMessage\000"
 4341      324D6573 
 4341      73616765 
 4341      51756575 
 4341      65347075 
 4342              	.LASF44:
 4343 04ca 705F6D73 		.ascii	"p_msgqueue\000"
 4343      67717565 
 4343      756500
 4344              	.LASF165:
 4345 04d5 63616C6C 		.ascii	"callback_t\000"
 4345      6261636B 
 4345      5F7400
 4346              	.LASF109:
 4347 04e0 5F5A4E31 		.ascii	"_ZN13BasePublisher11unsubscribeEP16RemoteSubscriber"
 4347      33426173 
 4347      65507562 
 4347      6C697368 
 4347      65723131 
 4348 0513 00       		.ascii	"\000"
 4349              	.LASF179:
 4350 0514 5F5A4E31 		.ascii	"_ZN14BaseSubscriber4sizeEv\000"
 4350      34426173 
 4350      65537562 
 4350      73637269 
 4350      62657234 
 4351              	.LASF166:
 4352 052f 42617365 		.ascii	"BaseSubscriber\000"
 4352      53756273 
 4352      63726962 
 4352      657200
 4353              	.LASF127:
 4354 053e 5F5A4E31 		.ascii	"_ZN15LocalSubscriber9subscribeEP14LocalPublisherm\000"
 4354      354C6F63 
ARM GAS  /tmp/ccPXEhp1.s 			page 81


 4354      616C5375 
 4354      62736372 
 4354      69626572 
 4355              	.LASF155:
 4356 0570 64617461 		.ascii	"data\000"
 4356      00
 4357              	.LASF81:
 4358 0575 73697A65 		.ascii	"size\000"
 4358      00
 4359              	.LASF7:
 4360 057a 73686F72 		.ascii	"short unsigned int\000"
 4360      7420756E 
 4360      7369676E 
 4360      65642069 
 4360      6E7400
 4361              	.LASF83:
 4362 058d 5F5A4E31 		.ascii	"_ZN12MessageQueue4sizeEv\000"
 4362      324D6573 
 4362      73616765 
 4362      51756575 
 4362      65347369 
 4363              	.LASF22:
 4364 05a6 6D73675F 		.ascii	"msg_t\000"
 4364      7400
 4365              	.LASF174:
 4366 05ac 6C617374 		.ascii	"last\000"
 4366      00
 4367              	.LASF138:
 4368 05b1 5F5A4E31 		.ascii	"_ZN16RemoteSubscriber6notifyEP11BaseMessageRi\000"
 4368      3652656D 
 4368      6F746553 
 4368      75627363 
 4368      72696265 
 4369              	.LASF130:
 4370 05df 63616C6C 		.ascii	"callback\000"
 4370      6261636B 
 4370      00
 4371              	.LASF151:
 4372 05e8 736C6F74 		.ascii	"slot\000"
 4372      00
 4373              	.LASF170:
 4374 05ed 616C6C6F 		.ascii	"alloc_flag\000"
 4374      635F666C 
 4374      616700
 4375              	.LASF16:
 4376 05f8 626F6F6C 		.ascii	"bool\000"
 4376      00
 4377              	.LASF53:
 4378 05fd 54687265 		.ascii	"ThreadsList\000"
 4378      6164734C 
 4378      69737400 
 4379              	.LASF23:
 4380 0609 6576656E 		.ascii	"eventmask_t\000"
 4380      746D6173 
 4380      6B5F7400 
 4381              	.LASF93:
 4382 0615 42617365 		.ascii	"BasePublisher\000"
ARM GAS  /tmp/ccPXEhp1.s 			page 82


 4382      5075626C 
 4382      69736865 
 4382      7200
 4383              	.LASF55:
 4384 0623 73746B61 		.ascii	"stkalign_t\000"
 4384      6C69676E 
 4384      5F7400
 4385              	.LASF77:
 4386 062e 5F777269 		.ascii	"_write\000"
 4386      746500
 4387              	.LASF163:
 4388 0635 52544341 		.ascii	"RTCAN_MSG_ERROR\000"
 4388      4E5F4D53 
 4388      475F4552 
 4388      524F5200 
 4389              	.LASF164:
 4390 0645 72746361 		.ascii	"rtcan_msgstatus_t\000"
 4390      6E5F6D73 
 4390      67737461 
 4390      7475735F 
 4390      7400
 4391              	.LASF122:
 4392 0657 5F5A4E31 		.ascii	"_ZN15LocalSubscriber4linkEPS_\000"
 4392      354C6F63 
 4392      616C5375 
 4392      62736372 
 4392      69626572 
 4393              	.LASF172:
 4394 0675 736F7572 		.ascii	"source\000"
 4394      636500
 4395              	.LASF144:
 4396 067c 5F5A4E31 		.ascii	"_ZN14LocalPublisher4nextEPS_\000"
 4396      344C6F63 
 4396      616C5075 
 4396      626C6973 
 4396      68657234 
 4397              	.LASF136:
 4398 0699 5F5A4E31 		.ascii	"_ZN16RemoteSubscriber4linkEPS_\000"
 4398      3652656D 
 4398      6F746553 
 4398      75627363 
 4398      72696265 
 4399              	.LASF72:
 4400 06b8 72656665 		.ascii	"reference\000"
 4400      72656E63 
 4400      6500
 4401              	.LASF147:
 4402 06c2 5F5A4E31 		.ascii	"_ZN14LocalPublisher9subscribeEP15LocalSubscriberPvj"
 4402      344C6F63 
 4402      616C5075 
 4402      626C6973 
 4402      68657239 
 4403 06f5 506D00   		.ascii	"Pm\000"
 4404              	.LASF58:
 4405 06f8 4D757465 		.ascii	"Mutex\000"
 4405      7800
 4406              	.LASF46:
ARM GAS  /tmp/ccPXEhp1.s 			page 83


 4407 06fe 705F6570 		.ascii	"p_epending\000"
 4407      656E6469 
 4407      6E6700
 4408              	.LASF13:
 4409 0709 75696E74 		.ascii	"uint64_t\000"
 4409      36345F74 
 4409      00
 4410              	.LASF35:
 4411 0712 705F6F6C 		.ascii	"p_older\000"
 4411      64657200 
 4412              	.LASF173:
 4413 071a 5F5A4E31 		.ascii	"_ZN14BaseSubscriber6sourceEv\000"
 4413      34426173 
 4413      65537562 
 4413      73637269 
 4413      62657236 
 4414              	.LASF50:
 4415 0737 54687265 		.ascii	"ThreadsQueue\000"
 4415      61647351 
 4415      75657565 
 4415      00
 4416              	.LASF177:
 4417 0744 5F5A4E31 		.ascii	"_ZN14BaseSubscriber7releaseEP11BaseMessage\000"
 4417      34426173 
 4417      65537562 
 4417      73637269 
 4417      62657237 
 4418              	.LASF181:
 4419 076f 5F727463 		.ascii	"_rtcan_msg\000"
 4419      616E5F6D 
 4419      736700
 4420              	.LASF185:
 4421 077a 5F5A4E31 		.ascii	"_ZN15RemotePublisher10broadcastIEP11BaseMessage\000"
 4421      3552656D 
 4421      6F746550 
 4421      75626C69 
 4421      73686572 
 4422              	.LASF115:
 4423 07aa 5F6E6578 		.ascii	"_next_notify\000"
 4423      745F6E6F 
 4423      74696679 
 4423      00
 4424              	.LASF156:
 4425 07b7 72746361 		.ascii	"rtcan_msgcallback_t\000"
 4425      6E5F6D73 
 4425      6763616C 
 4425      6C626163 
 4425      6B5F7400 
 4426              	.LASF51:
 4427 07cb 31325468 		.ascii	"12ThreadsQueue\000"
 4427      72656164 
 4427      73517565 
 4427      756500
 4428              	.LASF131:
 4429 07da 5F5A4E31 		.ascii	"_ZN15LocalSubscriber8callbackEv\000"
 4429      354C6F63 
 4429      616C5375 
ARM GAS  /tmp/ccPXEhp1.s 			page 84


 4429      62736372 
 4429      69626572 
 4430              	.LASF64:
 4431 07fa 70685F6E 		.ascii	"ph_next\000"
 4431      65787400 
 4432              	.LASF134:
 4433 0802 5F5A4E31 		.ascii	"_ZN16RemoteSubscriber4nextEv\000"
 4433      3652656D 
 4433      6F746553 
 4433      75627363 
 4433      72696265 
 4434              	.LASF120:
 4435 081f 5F5A4E31 		.ascii	"_ZN15LocalSubscriber4nextEPS_\000"
 4435      354C6F63 
 4435      616C5375 
 4435      62736372 
 4435      69626572 
 4436              	.LASF19:
 4437 083d 74726566 		.ascii	"trefs_t\000"
 4437      735F7400 
 4438              	.LASF96:
 4439 0845 5F72656D 		.ascii	"_remote_subscribers\000"
 4439      6F74655F 
 4439      73756273 
 4439      63726962 
 4439      65727300 
 4440              	.LASF162:
 4441 0859 52544341 		.ascii	"RTCAN_MSG_TIMEOUT\000"
 4441      4E5F4D53 
 4441      475F5449 
 4441      4D454F55 
 4441      5400
 4442              	.LASF31:
 4443 086b 705F7072 		.ascii	"p_prev\000"
 4443      657600
 4444              	.LASF187:
 4445 0872 5F5A4E31 		.ascii	"_ZN15RemotePublisher2idEt\000"
 4445      3552656D 
 4445      6F746550 
 4445      75626C69 
 4445      73686572 
 4446              	.LASF21:
 4447 088c 74707269 		.ascii	"tprio_t\000"
 4447      6F5F7400 
 4448              	.LASF108:
 4449 0894 756E7375 		.ascii	"unsubscribe\000"
 4449      62736372 
 4449      69626500 
 4450              	.LASF8:
 4451 08a0 696E7433 		.ascii	"int32_t\000"
 4451      325F7400 
 4452              	.LASF4:
 4453 08a8 756E7369 		.ascii	"unsigned char\000"
 4453      676E6564 
 4453      20636861 
 4453      7200
 4454              	.LASF112:
ARM GAS  /tmp/ccPXEhp1.s 			page 85


 4455 08b6 5F5A4E31 		.ascii	"_ZN13BasePublisher11unsubscribeEP15LocalSubscriber\000"
 4455      33426173 
 4455      65507562 
 4455      6C697368 
 4455      65723131 
 4456              	.LASF47:
 4457 08e9 705F6D74 		.ascii	"p_mtxlist\000"
 4457      786C6973 
 4457      7400
 4458              	.LASF5:
 4459 08f3 73686F72 		.ascii	"short int\000"
 4459      7420696E 
 4459      7400
 4460              	.LASF38:
 4461 08fd 705F7374 		.ascii	"p_state\000"
 4461      61746500 
 4462              	.LASF41:
 4463 0905 705F7072 		.ascii	"p_preempt\000"
 4463      65656D70 
 4463      7400
 4464              	.LASF29:
 4465 090f 65776D61 		.ascii	"ewmask\000"
 4465      736B00
 4466              	.LASF30:
 4467 0916 705F6E65 		.ascii	"p_next\000"
 4467      787400
 4468              	.LASF17:
 4469 091d 746D6F64 		.ascii	"tmode_t\000"
 4469      655F7400 
 4470              	.LASF113:
 4471 0925 4C6F6361 		.ascii	"LocalSubscriber\000"
 4471      6C537562 
 4471      73637269 
 4471      62657200 
 4472              	.LASF103:
 4473 0935 5F5A4E31 		.ascii	"_ZN13BasePublisher6allocIEv\000"
 4473      33426173 
 4473      65507562 
 4473      6C697368 
 4473      65723661 
 4474              	.LASF180:
 4475 0951 52656D6F 		.ascii	"RemotePublisher\000"
 4475      74655075 
 4475      626C6973 
 4475      68657200 
 4476              	.LASF196:
 4477 0961 66726167 		.ascii	"fragment\000"
 4477      6D656E74 
 4477      00
 4478              	.LASF25:
 4479 096a 54687265 		.ascii	"Thread\000"
 4479      616400
 4480              	.LASF192:
 4481 0971 474E5520 		.ascii	"GNU C++ 4.6.2 20120613 (release) [ARM/embedded-4_6-"
 4481      432B2B20 
 4481      342E362E 
 4481      32203230 
ARM GAS  /tmp/ccPXEhp1.s 			page 86


 4481      31323036 
 4482 09a4 6272616E 		.ascii	"branch revision 188521]\000"
 4482      63682072 
 4482      65766973 
 4482      696F6E20 
 4482      31383835 
 4483              	.LASF159:
 4484 09bc 52544341 		.ascii	"RTCAN_MSG_READY\000"
 4484      4E5F4D53 
 4484      475F5245 
 4484      41445900 
 4485              	.LASF128:
 4486 09cc 5F5A4E31 		.ascii	"_ZN15LocalSubscriber9subscribeEP15RemotePublisherm\000"
 4486      354C6F63 
 4486      616C5375 
 4486      62736372 
 4486      69626572 
 4487              	.LASF69:
 4488 09ff 4D656D6F 		.ascii	"MemoryPool\000"
 4488      7279506F 
 4488      6F6C00
 4489              	.LASF89:
 4490 0a0a 5F5A4E31 		.ascii	"_ZN12MessageQueue3putEP11BaseMessage\000"
 4490      324D6573 
 4490      73616765 
 4490      51756575 
 4490      65337075 
 4491              	.LASF117:
 4492 0a2f 5F63616C 		.ascii	"_callback\000"
 4492      6C626163 
 4492      6B00
 4493              	.LASF87:
 4494 0a39 5F5A4E31 		.ascii	"_ZN12MessageQueue4getIEv\000"
 4494      324D6573 
 4494      73616765 
 4494      51756575 
 4494      65346765 
 4495              	.LASF11:
 4496 0a52 6C6F6E67 		.ascii	"long unsigned int\000"
 4496      20756E73 
 4496      69676E65 
 4496      6420696E 
 4496      7400
 4497              	.LASF123:
 4498 0a64 6E6F7469 		.ascii	"notify\000"
 4498      667900
 4499              	.LASF70:
 4500 0a6b 63686172 		.ascii	"char\000"
 4500      00
 4501              	.LASF149:
 4502 0a70 72746361 		.ascii	"rtcan_msg_t\000"
 4502      6E5F6D73 
 4502      675F7400 
 4503              	.LASF91:
 4504 0a7c 5F5A4E31 		.ascii	"_ZN11BaseMessage9referenceEv\000"
 4504      31426173 
 4504      654D6573 
ARM GAS  /tmp/ccPXEhp1.s 			page 87


 4504      73616765 
 4504      39726566 
 4505              	.LASF154:
 4506 0a99 70617261 		.ascii	"params\000"
 4506      6D7300
 4507              	.LASF80:
 4508 0aa0 64657265 		.ascii	"dereference\000"
 4508      66657265 
 4508      6E636500 
 4509              	.LASF61:
 4510 0aac 6D5F6E65 		.ascii	"m_next\000"
 4510      787400
 4511              	.LASF24:
 4512 0ab3 73797374 		.ascii	"systime_t\000"
 4512      696D655F 
 4512      7400
 4513              	.LASF48:
 4514 0abd 705F7265 		.ascii	"p_realprio\000"
 4514      616C7072 
 4514      696F00
 4515              	.LASF100:
 4516 0ac8 616C6C6F 		.ascii	"alloc\000"
 4516      6300
 4517              	.LASF90:
 4518 0ace 70757449 		.ascii	"putI\000"
 4518      00
 4519              	.LASF114:
 4520 0ad3 5F6E6578 		.ascii	"_next\000"
 4520      7400
 4521              	.LASF36:
 4522 0ad9 705F6E61 		.ascii	"p_name\000"
 4522      6D6500
 4523              	.LASF79:
 4524 0ae0 5F636E74 		.ascii	"_cnt\000"
 4524      00
 4525              	.LASF66:
 4526 0ae5 6D705F6E 		.ascii	"mp_next\000"
 4526      65787400 
 4527              	.LASF158:
 4528 0aed 52544341 		.ascii	"RTCAN_MSG_BUSY\000"
 4528      4E5F4D53 
 4528      475F4255 
 4528      535900
 4529              	.LASF57:
 4530 0afc 636F6E74 		.ascii	"context\000"
 4530      65787400 
 4531              	.LASF139:
 4532 0b04 5F5A4E31 		.ascii	"_ZN16RemoteSubscriber9subscribeEP14LocalPublisher\000"
 4532      3652656D 
 4532      6F746553 
 4532      75627363 
 4532      72696265 
 4533              	.LASF85:
 4534 0b36 5F5A4E31 		.ascii	"_ZN12MessageQueue5sizeIEv\000"
 4534      324D6573 
 4534      73616765 
 4534      51756575 
ARM GAS  /tmp/ccPXEhp1.s 			page 88


 4534      65357369 
 4535              	.LASF132:
 4536 0b50 5F5A4E31 		.ascii	"_ZN15LocalSubscriber8callbackEP11BaseMessage\000"
 4536      354C6F63 
 4536      616C5375 
 4536      62736372 
 4536      69626572 
 4537              	.LASF56:
 4538 0b7d 696E7463 		.ascii	"intctx\000"
 4538      747800
 4539              	.LASF183:
 4540 0b84 5F5A4E31 		.ascii	"_ZN15RemotePublisher4nextEPS_\000"
 4540      3552656D 
 4540      6F746550 
 4540      75626C69 
 4540      73686572 
 4541              	.LASF84:
 4542 0ba2 73697A65 		.ascii	"sizeI\000"
 4542      4900
 4543              	.LASF10:
 4544 0ba8 75696E74 		.ascii	"uint32_t\000"
 4544      33325F74 
 4544      00
 4545              	.LASF76:
 4546 0bb1 5F746F70 		.ascii	"_top\000"
 4546      00
 4547              	.LASF63:
 4548 0bb6 706F6F6C 		.ascii	"pool_header\000"
 4548      5F686561 
 4548      64657200 
 4549              	.LASF40:
 4550 0bc2 705F7265 		.ascii	"p_refs\000"
 4550      667300
 4551              	.LASF153:
 4552 0bc9 73746174 		.ascii	"status\000"
 4552      757300
 4553              	.LASF189:
 4554 0bd0 6D73675F 		.ascii	"msg_size\000"
 4554      73697A65 
 4554      00
 4555              	.LASF45:
 4556 0bd9 705F6D73 		.ascii	"p_msg\000"
 4556      6700
 4557              	.LASF188:
 4558 0bdf 5F5A4E31 		.ascii	"_ZN15RemotePublisher2idEv\000"
 4558      3552656D 
 4558      6F746550 
 4558      75626C69 
 4558      73686572 
 4559              	.LASF3:
 4560 0bf9 75696E74 		.ascii	"uint8_t\000"
 4560      385F7400 
 4561              	.LASF73:
 4562 0c01 4D657373 		.ascii	"MessageQueue\000"
 4562      61676551 
 4562      75657565 
 4562      00
ARM GAS  /tmp/ccPXEhp1.s 			page 89


 4563              	.LASF193:
 4564 0c0e 2E2E2F2E 		.ascii	"../../Middleware/BasePublisher.cpp\000"
 4564      2E2F4D69 
 4564      64646C65 
 4564      77617265 
 4564      2F426173 
 4565              	.LASF125:
 4566 0c31 5F5A4E31 		.ascii	"_ZN15LocalSubscriber6notifyEP11BaseMessageRi\000"
 4566      354C6F63 
 4566      616C5375 
 4566      62736372 
 4566      69626572 
 4567              	.LASF28:
 4568 0c5e 77746F62 		.ascii	"wtobjp\000"
 4568      6A7000
 4569              	.LASF168:
 4570 0c65 5F736F75 		.ascii	"_source\000"
 4570      72636500 
 4571              	.LASF175:
 4572 0c6d 5F5A4E31 		.ascii	"_ZN14BaseSubscriber4lastEv\000"
 4572      34426173 
 4572      65537562 
 4572      73637269 
 4572      62657234 
 4573              	.LASF143:
 4574 0c88 5F5A4E31 		.ascii	"_ZN14LocalPublisher4nextEv\000"
 4574      344C6F63 
 4574      616C5075 
 4574      626C6973 
 4574      68657234 
 4575              	.LASF99:
 4576 0ca3 5F5A4E31 		.ascii	"_ZN13BasePublisher5topicEv\000"
 4576      33426173 
 4576      65507562 
 4576      6C697368 
 4576      65723574 
 4577              	.LASF39:
 4578 0cbe 705F666C 		.ascii	"p_flags\000"
 4578      61677300 
 4579              	.LASF67:
 4580 0cc6 6D705F6F 		.ascii	"mp_object_size\000"
 4580      626A6563 
 4580      745F7369 
 4580      7A6500
 4581              	.LASF150:
 4582 0cd5 64656164 		.ascii	"deadline\000"
 4582      6C696E65 
 4582      00
 4583              	.LASF116:
 4584 0cde 5F6D6173 		.ascii	"_mask\000"
 4584      6B00
 4585              	.LASF107:
 4586 0ce4 5F5A4E31 		.ascii	"_ZN13BasePublisher8releaseIEP11BaseMessage\000"
 4586      33426173 
 4586      65507562 
 4586      6C697368 
 4586      65723872 
ARM GAS  /tmp/ccPXEhp1.s 			page 90


 4587              	.LASF160:
 4588 0d0f 52544341 		.ascii	"RTCAN_MSG_QUEUED\000"
 4588      4E5F4D53 
 4588      475F5155 
 4588      45554544 
 4588      00
 4589              	.LASF60:
 4590 0d20 6D5F6F77 		.ascii	"m_owner\000"
 4590      6E657200 
 4591              	.LASF33:
 4592 0d28 705F6374 		.ascii	"p_ctx\000"
 4592      7800
 4593              	.LASF43:
 4594 0d2e 705F7761 		.ascii	"p_waiting\000"
 4594      6974696E 
 4594      6700
 4595              	.LASF186:
 4596 0d38 5F5A4E31 		.ascii	"_ZN15RemotePublisher9subscribeEP15LocalSubscriberPv"
 4596      3552656D 
 4596      6F746550 
 4596      75626C69 
 4596      73686572 
 4597 0d6b 6A506D00 		.ascii	"jPm\000"
 4598              		.ident	"GCC: (GNU Tools for ARM Embedded Processors) 4.6.2 20120613 (release) [ARM/embedded-4_6-br
ARM GAS  /tmp/ccPXEhp1.s 			page 91


DEFINED SYMBOLS
                            *ABS*:00000000 BasePublisher.cpp
     /tmp/ccPXEhp1.s:19     .text._ZN13BasePublisherC2EPKcj:00000000 $t
     /tmp/ccPXEhp1.s:25     .text._ZN13BasePublisherC2EPKcj:00000000 _ZN13BasePublisherC2EPKcj
     /tmp/ccPXEhp1.s:67     .text._ZN13BasePublisher5topicEv:00000000 $t
     /tmp/ccPXEhp1.s:73     .text._ZN13BasePublisher5topicEv:00000000 _ZN13BasePublisher5topicEv
     /tmp/ccPXEhp1.s:90     .text._ZN13BasePublisher5allocEv:00000000 $t
     /tmp/ccPXEhp1.s:96     .text._ZN13BasePublisher5allocEv:00000000 _ZN13BasePublisher5allocEv
     /tmp/ccPXEhp1.s:168    .text._ZN13BasePublisher6allocIEv:00000000 $t
     /tmp/ccPXEhp1.s:174    .text._ZN13BasePublisher6allocIEv:00000000 _ZN13BasePublisher6allocIEv
     /tmp/ccPXEhp1.s:208    .text._ZN13BasePublisher7releaseEP11BaseMessage:00000000 $t
     /tmp/ccPXEhp1.s:214    .text._ZN13BasePublisher7releaseEP11BaseMessage:00000000 _ZN13BasePublisher7releaseEP11BaseMessage
     /tmp/ccPXEhp1.s:277    .text._ZN13BasePublisher8releaseIEP11BaseMessage:00000000 $t
     /tmp/ccPXEhp1.s:283    .text._ZN13BasePublisher8releaseIEP11BaseMessage:00000000 _ZN13BasePublisher8releaseIEP11BaseMessage
     /tmp/ccPXEhp1.s:321    .text._ZN13BasePublisher11unsubscribeEP16RemoteSubscriber:00000000 $t
     /tmp/ccPXEhp1.s:327    .text._ZN13BasePublisher11unsubscribeEP16RemoteSubscriber:00000000 _ZN13BasePublisher11unsubscribeEP16RemoteSubscriber
     /tmp/ccPXEhp1.s:375    .text._ZN13BasePublisher11unsubscribeEP15LocalSubscriber:00000000 $t
     /tmp/ccPXEhp1.s:381    .text._ZN13BasePublisher11unsubscribeEP15LocalSubscriber:00000000 _ZN13BasePublisher11unsubscribeEP15LocalSubscriber
     /tmp/ccPXEhp1.s:25     .text._ZN13BasePublisherC2EPKcj:00000000 _ZN13BasePublisherC1EPKcj
                     .debug_frame:00000010 $d

UNDEFINED SYMBOLS
chPoolInit
dbg_check_lock
chPoolAllocI
_ZN11BaseMessage5resetEv
dbg_check_unlock
_ZN11BaseMessage11dereferenceEv
chPoolFreeI
_ZN16RemoteSubscriber4nextEv
_ZN15LocalSubscriber4nextEv
