ARM GAS  /tmp/ccq01laD.s 			page 1


   1              		.syntax unified
   2              		.cpu cortex-m3
   3              		.fpu softvfp
   4              		.eabi_attribute 20, 1
   5              		.eabi_attribute 21, 1
   6              		.eabi_attribute 23, 3
   7              		.eabi_attribute 24, 1
   8              		.eabi_attribute 25, 1
   9              		.eabi_attribute 26, 1
  10              		.eabi_attribute 30, 2
  11              		.eabi_attribute 34, 1
  12              		.eabi_attribute 18, 4
  13              		.thumb
  14              		.file	"ch.cpp"
  15              		.text
  16              	.Ltext0:
  17              		.cfi_sections	.debug_frame
  18              		.section	.text.startup._ZN10chibios_rt10BaseThread4mainEv,"ax",%progbits
  19              		.align	2
  20              		.p2align 4,,15
  21              		.global	_ZN10chibios_rt10BaseThread4mainEv
  22              		.thumb
  23              		.thumb_func
  24              		.type	_ZN10chibios_rt10BaseThread4mainEv, %function
  25              	_ZN10chibios_rt10BaseThread4mainEv:
  26              	.LFB45:
  27              		.file 1 "../../ChibiOS/os/various/cpp_wrappers/ch.cpp"
  28              		.loc 1 261 0
  29              		.cfi_startproc
  30              		@ args = 0, pretend = 0, frame = 0
  31              		@ frame_needed = 0, uses_anonymous_args = 0
  32              		@ link register save eliminated.
  33              	.LVL0:
  34              		.loc 1 264 0
  35 0000 0020     		movs	r0, #0
  36              	.LVL1:
  37 0002 7047     		bx	lr
  38              		.cfi_endproc
  39              	.LFE45:
  40              		.size	_ZN10chibios_rt10BaseThread4mainEv, .-_ZN10chibios_rt10BaseThread4mainEv
  41 0004 AFF30080 		.section	.text._ZN10chibios_rt10BaseThread5startEm,"ax",%progbits
  41      AFF30080 
  41      AFF30080 
  42              		.align	2
  43              		.p2align 4,,15
  44              		.global	_ZN10chibios_rt10BaseThread5startEm
  45              		.thumb
  46              		.thumb_func
  47              		.type	_ZN10chibios_rt10BaseThread5startEm, %function
  48              	_ZN10chibios_rt10BaseThread5startEm:
  49              	.LFB46:
  50              		.loc 1 266 0
  51              		.cfi_startproc
  52              		@ args = 0, pretend = 0, frame = 0
  53              		@ frame_needed = 0, uses_anonymous_args = 0
  54              		@ link register save eliminated.
  55              	.LVL2:
ARM GAS  /tmp/ccq01laD.s 			page 2


  56              	.LBB13:
  57              	.LBB14:
  58              	.LBB15:
  59              		.file 2 "../../ChibiOS/os/various/cpp_wrappers/ch.hpp"
  60              		.loc 2 234 0
  61 0000 4B68     		ldr	r3, [r1, #4]
  62              	.LVL3:
  63 0002 024A     		ldr	r2, .L4
  64              	.LVL4:
  65 0004 80E80C00 		stmia	r0, {r2, r3}
  66              	.LBE15:
  67              	.LBE14:
  68              	.LBE13:
  69              		.loc 1 271 0
  70 0008 7047     		bx	lr
  71              	.L5:
  72 000a 00BF     		.align	2
  73              	.L4:
  74 000c 08000000 		.word	.LANCHOR0+8
  75              		.cfi_endproc
  76              	.LFE46:
  77              		.size	_ZN10chibios_rt10BaseThread5startEm, .-_ZN10chibios_rt10BaseThread5startEm
  78              		.section	.text._ZN10chibios_rt15ThreadReference4stopEv,"ax",%progbits
  79              		.align	2
  80              		.p2align 4,,15
  81              		.global	_ZN10chibios_rt15ThreadReference4stopEv
  82              		.thumb
  83              		.thumb_func
  84              		.type	_ZN10chibios_rt15ThreadReference4stopEv, %function
  85              	_ZN10chibios_rt15ThreadReference4stopEv:
  86              	.LFB29:
  87              		.loc 1 107 0
  88              		.cfi_startproc
  89              		@ args = 0, pretend = 0, frame = 0
  90              		@ frame_needed = 0, uses_anonymous_args = 0
  91              		@ link register save eliminated.
  92              	.LVL5:
  93              		.loc 1 109 0
  94 0000 40F20000 		movw	r0, #:lower16:.LC0
  95              	.LVL6:
  96 0004 C0F20000 		movt	r0, #:upper16:.LC0
  97              		.loc 1 110 0
  98              		.loc 1 109 0
  99 0008 FFF7FEBF 		b	chDbgPanic
 100              		.cfi_endproc
 101              	.LFE29:
 102              		.size	_ZN10chibios_rt15ThreadReference4stopEv, .-_ZN10chibios_rt15ThreadReference4stopEv
 103 000c AFF30080 		.section	.text._ZN10chibios_rt6System4initEv,"ax",%progbits
 104              		.align	2
 105              		.p2align 4,,15
 106              		.global	_ZN10chibios_rt6System4initEv
 107              		.thumb
 108              		.thumb_func
 109              		.type	_ZN10chibios_rt6System4initEv, %function
 110              	_ZN10chibios_rt6System4initEv:
 111              	.LFB16:
 112              		.loc 1 31 0
ARM GAS  /tmp/ccq01laD.s 			page 3


 113              		.cfi_startproc
 114              		@ args = 0, pretend = 0, frame = 0
 115              		@ frame_needed = 0, uses_anonymous_args = 0
 116              		@ link register save eliminated.
 117              		.loc 1 34 0
 118              		.loc 1 33 0
 119 0000 FFF7FEBF 		b	chSysInit
 120              		.cfi_endproc
 121              	.LFE16:
 122              		.size	_ZN10chibios_rt6System4initEv, .-_ZN10chibios_rt6System4initEv
 123 0004 AFF30080 		.section	.text._ZN10chibios_rt6System4lockEv,"ax",%progbits
 123      AFF30080 
 123      AFF30080 
 124              		.align	2
 125              		.p2align 4,,15
 126              		.global	_ZN10chibios_rt6System4lockEv
 127              		.thumb
 128              		.thumb_func
 129              		.type	_ZN10chibios_rt6System4lockEv, %function
 130              	_ZN10chibios_rt6System4lockEv:
 131              	.LFB17:
 132              		.loc 1 36 0
 133              		.cfi_startproc
 134              		@ args = 0, pretend = 0, frame = 0
 135              		@ frame_needed = 0, uses_anonymous_args = 0
 136              		@ link register save eliminated.
 137              	.LBB16:
 138              	.LBB17:
 139              		.loc 1 38 0
 140 0000 2023     		movs	r3, #32
 141              	.LVL7:
 142              	@ 38 "../../ChibiOS/os/various/cpp_wrappers/ch.cpp" 1
 143 0002 83F31188 		msr     BASEPRI, r3
 144              	@ 0 "" 2
 145              	.LVL8:
 146              		.thumb
 147              	.LBE17:
 148              	.LBE16:
 149              		.loc 1 39 0
 150              	.LBB18:
 151              		.loc 1 38 0
 152 0006 FFF7FEBF 		b	dbg_check_lock
 153              	.LVL9:
 154              	.LBE18:
 155              		.cfi_endproc
 156              	.LFE17:
 157              		.size	_ZN10chibios_rt6System4lockEv, .-_ZN10chibios_rt6System4lockEv
 158 000a 00BFAFF3 		.section	.text._ZN10chibios_rt6System6unlockEv,"ax",%progbits
 158      0080
 159              		.align	2
 160              		.p2align 4,,15
 161              		.global	_ZN10chibios_rt6System6unlockEv
 162              		.thumb
 163              		.thumb_func
 164              		.type	_ZN10chibios_rt6System6unlockEv, %function
 165              	_ZN10chibios_rt6System6unlockEv:
 166              	.LFB18:
ARM GAS  /tmp/ccq01laD.s 			page 4


 167              		.loc 1 41 0
 168              		.cfi_startproc
 169              		@ args = 0, pretend = 0, frame = 0
 170              		@ frame_needed = 0, uses_anonymous_args = 0
 171 0000 08B5     		push	{r3, lr}
 172              	.LCFI0:
 173              		.cfi_def_cfa_offset 8
 174              		.cfi_offset 14, -4
 175              		.cfi_offset 3, -8
 176              	.LBB19:
 177              		.loc 1 43 0
 178 0002 FFF7FEFF 		bl	dbg_check_unlock
 179              	.LBB20:
 180 0006 0023     		movs	r3, #0
 181              	.LVL10:
 182              	@ 43 "../../ChibiOS/os/various/cpp_wrappers/ch.cpp" 1
 183 0008 83F31188 		msr     BASEPRI, r3
 184              	@ 0 "" 2
 185              	.LVL11:
 186              		.thumb
 187              	.LBE20:
 188              	.LBE19:
 189              		.loc 1 44 0
 190 000c 08BD     		pop	{r3, pc}
 191              		.cfi_endproc
 192              	.LFE18:
 193              		.size	_ZN10chibios_rt6System6unlockEv, .-_ZN10chibios_rt6System6unlockEv
 194 000e 00BF     		.section	.text._ZN10chibios_rt6System11lockFromIsrEv,"ax",%progbits
 195              		.align	2
 196              		.p2align 4,,15
 197              		.global	_ZN10chibios_rt6System11lockFromIsrEv
 198              		.thumb
 199              		.thumb_func
 200              		.type	_ZN10chibios_rt6System11lockFromIsrEv, %function
 201              	_ZN10chibios_rt6System11lockFromIsrEv:
 202              	.LFB19:
 203              		.loc 1 46 0
 204              		.cfi_startproc
 205              		@ args = 0, pretend = 0, frame = 0
 206              		@ frame_needed = 0, uses_anonymous_args = 0
 207              		@ link register save eliminated.
 208              	.LBB21:
 209              	.LBB22:
 210              		.loc 1 48 0
 211 0000 2023     		movs	r3, #32
 212              	.LVL12:
 213              	@ 48 "../../ChibiOS/os/various/cpp_wrappers/ch.cpp" 1
 214 0002 83F31188 		msr     BASEPRI, r3
 215              	@ 0 "" 2
 216              	.LVL13:
 217              		.thumb
 218              	.LBE22:
 219              	.LBE21:
 220              		.loc 1 49 0
 221              	.LBB23:
 222              		.loc 1 48 0
 223 0006 FFF7FEBF 		b	dbg_check_lock_from_isr
ARM GAS  /tmp/ccq01laD.s 			page 5


 224              	.LVL14:
 225              	.LBE23:
 226              		.cfi_endproc
 227              	.LFE19:
 228              		.size	_ZN10chibios_rt6System11lockFromIsrEv, .-_ZN10chibios_rt6System11lockFromIsrEv
 229 000a 00BFAFF3 		.section	.text._ZN10chibios_rt6System13unlockFromIsrEv,"ax",%progbits
 229      0080
 230              		.align	2
 231              		.p2align 4,,15
 232              		.global	_ZN10chibios_rt6System13unlockFromIsrEv
 233              		.thumb
 234              		.thumb_func
 235              		.type	_ZN10chibios_rt6System13unlockFromIsrEv, %function
 236              	_ZN10chibios_rt6System13unlockFromIsrEv:
 237              	.LFB20:
 238              		.loc 1 51 0
 239              		.cfi_startproc
 240              		@ args = 0, pretend = 0, frame = 0
 241              		@ frame_needed = 0, uses_anonymous_args = 0
 242 0000 08B5     		push	{r3, lr}
 243              	.LCFI1:
 244              		.cfi_def_cfa_offset 8
 245              		.cfi_offset 14, -4
 246              		.cfi_offset 3, -8
 247              	.LBB24:
 248              		.loc 1 53 0
 249 0002 FFF7FEFF 		bl	dbg_check_unlock_from_isr
 250              	.LBB25:
 251 0006 0023     		movs	r3, #0
 252              	.LVL15:
 253              	@ 53 "../../ChibiOS/os/various/cpp_wrappers/ch.cpp" 1
 254 0008 83F31188 		msr     BASEPRI, r3
 255              	@ 0 "" 2
 256              	.LVL16:
 257              		.thumb
 258              	.LBE25:
 259              	.LBE24:
 260              		.loc 1 54 0
 261 000c 08BD     		pop	{r3, pc}
 262              		.cfi_endproc
 263              	.LFE20:
 264              		.size	_ZN10chibios_rt6System13unlockFromIsrEv, .-_ZN10chibios_rt6System13unlockFromIsrEv
 265 000e 00BF     		.section	.text._ZN10chibios_rt6System7getTimeEv,"ax",%progbits
 266              		.align	2
 267              		.p2align 4,,15
 268              		.global	_ZN10chibios_rt6System7getTimeEv
 269              		.thumb
 270              		.thumb_func
 271              		.type	_ZN10chibios_rt6System7getTimeEv, %function
 272              	_ZN10chibios_rt6System7getTimeEv:
 273              	.LFB21:
 274              		.loc 1 56 0
 275              		.cfi_startproc
 276              		@ args = 0, pretend = 0, frame = 0
 277              		@ frame_needed = 0, uses_anonymous_args = 0
 278              		@ link register save eliminated.
 279              		.loc 1 58 0
ARM GAS  /tmp/ccq01laD.s 			page 6


 280 0000 40F20003 		movw	r3, #:lower16:vtlist
 281 0004 C0F20003 		movt	r3, #:upper16:vtlist
 282 0008 D868     		ldr	r0, [r3, #12]
 283              		.loc 1 59 0
 284 000a 7047     		bx	lr
 285              		.cfi_endproc
 286              	.LFE21:
 287              		.size	_ZN10chibios_rt6System7getTimeEv, .-_ZN10chibios_rt6System7getTimeEv
 288 000c AFF30080 		.section	.text._ZN10chibios_rt6System12isTimeWithinEmm,"ax",%progbits
 289              		.align	2
 290              		.p2align 4,,15
 291              		.global	_ZN10chibios_rt6System12isTimeWithinEmm
 292              		.thumb
 293              		.thumb_func
 294              		.type	_ZN10chibios_rt6System12isTimeWithinEmm, %function
 295              	_ZN10chibios_rt6System12isTimeWithinEmm:
 296              	.LFB22:
 297              		.loc 1 61 0
 298              		.cfi_startproc
 299              		@ args = 0, pretend = 0, frame = 0
 300              		@ frame_needed = 0, uses_anonymous_args = 0
 301              		@ link register save eliminated.
 302              	.LVL17:
 303              		.loc 1 64 0
 304              		.loc 1 63 0
 305 0000 FFF7FEBF 		b	chTimeIsWithin
 306              	.LVL18:
 307              	.LVL19:
 308              		.cfi_endproc
 309              	.LFE22:
 310              		.size	_ZN10chibios_rt6System12isTimeWithinEmm, .-_ZN10chibios_rt6System12isTimeWithinEmm
 311 0004 AFF30080 		.section	.text._ZN10chibios_rt4Core5allocEj,"ax",%progbits
 311      AFF30080 
 311      AFF30080 
 312              		.align	2
 313              		.p2align 4,,15
 314              		.global	_ZN10chibios_rt4Core5allocEj
 315              		.thumb
 316              		.thumb_func
 317              		.type	_ZN10chibios_rt4Core5allocEj, %function
 318              	_ZN10chibios_rt4Core5allocEj:
 319              	.LFB23:
 320              		.loc 1 69 0
 321              		.cfi_startproc
 322              		@ args = 0, pretend = 0, frame = 0
 323              		@ frame_needed = 0, uses_anonymous_args = 0
 324              		@ link register save eliminated.
 325              	.LVL20:
 326              		.loc 1 72 0
 327              		.loc 1 71 0
 328 0000 FFF7FEBF 		b	chCoreAlloc
 329              	.LVL21:
 330              		.cfi_endproc
 331              	.LFE23:
 332              		.size	_ZN10chibios_rt4Core5allocEj, .-_ZN10chibios_rt4Core5allocEj
 333 0004 AFF30080 		.section	.text._ZN10chibios_rt4Core6allocIEj,"ax",%progbits
 333      AFF30080 
ARM GAS  /tmp/ccq01laD.s 			page 7


 333      AFF30080 
 334              		.align	2
 335              		.p2align 4,,15
 336              		.global	_ZN10chibios_rt4Core6allocIEj
 337              		.thumb
 338              		.thumb_func
 339              		.type	_ZN10chibios_rt4Core6allocIEj, %function
 340              	_ZN10chibios_rt4Core6allocIEj:
 341              	.LFB24:
 342              		.loc 1 74 0
 343              		.cfi_startproc
 344              		@ args = 0, pretend = 0, frame = 0
 345              		@ frame_needed = 0, uses_anonymous_args = 0
 346              		@ link register save eliminated.
 347              	.LVL22:
 348              		.loc 1 77 0
 349              		.loc 1 76 0
 350 0000 FFF7FEBF 		b	chCoreAllocI
 351              	.LVL23:
 352              		.cfi_endproc
 353              	.LFE24:
 354              		.size	_ZN10chibios_rt4Core6allocIEj, .-_ZN10chibios_rt4Core6allocIEj
 355 0004 AFF30080 		.section	.text._ZN10chibios_rt4Core9getStatusEv,"ax",%progbits
 355      AFF30080 
 355      AFF30080 
 356              		.align	2
 357              		.p2align 4,,15
 358              		.global	_ZN10chibios_rt4Core9getStatusEv
 359              		.thumb
 360              		.thumb_func
 361              		.type	_ZN10chibios_rt4Core9getStatusEv, %function
 362              	_ZN10chibios_rt4Core9getStatusEv:
 363              	.LFB25:
 364              		.loc 1 79 0
 365              		.cfi_startproc
 366              		@ args = 0, pretend = 0, frame = 0
 367              		@ frame_needed = 0, uses_anonymous_args = 0
 368              		@ link register save eliminated.
 369              		.loc 1 82 0
 370              		.loc 1 81 0
 371 0000 FFF7FEBF 		b	chCoreStatus
 372              		.cfi_endproc
 373              	.LFE25:
 374              		.size	_ZN10chibios_rt4Core9getStatusEv, .-_ZN10chibios_rt4Core9getStatusEv
 375 0004 AFF30080 		.section	.text._ZN10chibios_rt5Timer4setIEmPFvPvES1_,"ax",%progbits
 375      AFF30080 
 375      AFF30080 
 376              		.align	2
 377              		.p2align 4,,15
 378              		.global	_ZN10chibios_rt5Timer4setIEmPFvPvES1_
 379              		.thumb
 380              		.thumb_func
 381              		.type	_ZN10chibios_rt5Timer4setIEmPFvPvES1_, %function
 382              	_ZN10chibios_rt5Timer4setIEmPFvPvES1_:
 383              	.LFB26:
 384              		.loc 1 87 0
 385              		.cfi_startproc
ARM GAS  /tmp/ccq01laD.s 			page 8


 386              		@ args = 0, pretend = 0, frame = 0
 387              		@ frame_needed = 0, uses_anonymous_args = 0
 388              		@ link register save eliminated.
 389              	.LVL24:
 390              		.loc 1 90 0
 391              		.loc 1 89 0
 392 0000 FFF7FEBF 		b	chVTSetI
 393              	.LVL25:
 394              	.LVL26:
 395              	.LVL27:
 396              	.LVL28:
 397              		.cfi_endproc
 398              	.LFE26:
 399              		.size	_ZN10chibios_rt5Timer4setIEmPFvPvES1_, .-_ZN10chibios_rt5Timer4setIEmPFvPvES1_
 400 0004 AFF30080 		.section	.text._ZN10chibios_rt5Timer6resetIEv,"ax",%progbits
 400      AFF30080 
 400      AFF30080 
 401              		.align	2
 402              		.p2align 4,,15
 403              		.global	_ZN10chibios_rt5Timer6resetIEv
 404              		.thumb
 405              		.thumb_func
 406              		.type	_ZN10chibios_rt5Timer6resetIEv, %function
 407              	_ZN10chibios_rt5Timer6resetIEv:
 408              	.LFB27:
 409              		.loc 1 92 0
 410              		.cfi_startproc
 411              		@ args = 0, pretend = 0, frame = 0
 412              		@ frame_needed = 0, uses_anonymous_args = 0
 413              		@ link register save eliminated.
 414              	.LVL29:
 415              		.loc 1 94 0
 416 0000 C368     		ldr	r3, [r0, #12]
 417 0002 0BB1     		cbz	r3, .L18
 418              		.loc 1 96 0
 419              		.loc 1 95 0
 420 0004 FFF7FEBF 		b	chVTResetI
 421              	.LVL30:
 422              	.L18:
 423 0008 7047     		bx	lr
 424              		.cfi_endproc
 425              	.LFE27:
 426              		.size	_ZN10chibios_rt5Timer6resetIEv, .-_ZN10chibios_rt5Timer6resetIEv
 427 000a 00BFAFF3 		.section	.text._ZN10chibios_rt5Timer8isArmedIEv,"ax",%progbits
 427      0080
 428              		.align	2
 429              		.p2align 4,,15
 430              		.global	_ZN10chibios_rt5Timer8isArmedIEv
 431              		.thumb
 432              		.thumb_func
 433              		.type	_ZN10chibios_rt5Timer8isArmedIEv, %function
 434              	_ZN10chibios_rt5Timer8isArmedIEv:
 435              	.LFB28:
 436              		.loc 1 98 0
 437              		.cfi_startproc
 438              		@ args = 0, pretend = 0, frame = 0
 439              		@ frame_needed = 0, uses_anonymous_args = 0
ARM GAS  /tmp/ccq01laD.s 			page 9


 440              		@ link register save eliminated.
 441              	.LVL31:
 442              		.loc 1 100 0
 443 0000 C068     		ldr	r0, [r0, #12]
 444              	.LVL32:
 445 0002 0030     		adds	r0, r0, #0
 446 0004 18BF     		it	ne
 447 0006 0120     		movne	r0, #1
 448              		.loc 1 101 0
 449 0008 7047     		bx	lr
 450              		.cfi_endproc
 451              	.LFE28:
 452              		.size	_ZN10chibios_rt5Timer8isArmedIEv, .-_ZN10chibios_rt5Timer8isArmedIEv
 453 000a 00BFAFF3 		.section	.text._ZN10chibios_rt15ThreadReference7suspendEv,"ax",%progbits
 453      0080
 454              		.align	2
 455              		.p2align 4,,15
 456              		.global	_ZN10chibios_rt15ThreadReference7suspendEv
 457              		.thumb
 458              		.thumb_func
 459              		.type	_ZN10chibios_rt15ThreadReference7suspendEv, %function
 460              	_ZN10chibios_rt15ThreadReference7suspendEv:
 461              	.LFB30:
 462              		.loc 1 112 0
 463              		.cfi_startproc
 464              		@ args = 0, pretend = 0, frame = 0
 465              		@ frame_needed = 0, uses_anonymous_args = 0
 466              	.LVL33:
 467 0000 10B5     		push	{r4, lr}
 468              	.LCFI2:
 469              		.cfi_def_cfa_offset 8
 470              		.cfi_offset 14, -4
 471              		.cfi_offset 4, -8
 472              	.LBB26:
 473              	.LBB27:
 474              	.LBB28:
 475              		.loc 1 115 0
 476 0002 2023     		movs	r3, #32
 477              	.LVL34:
 478              	.LBE28:
 479              	.LBE27:
 480              	.LBE26:
 481              		.loc 1 112 0
 482 0004 0446     		mov	r4, r0
 483              	.LBB33:
 484              	.LBB30:
 485              	.LBB29:
 486              		.loc 1 115 0
 487              	@ 115 "../../ChibiOS/os/various/cpp_wrappers/ch.cpp" 1
 488 0006 83F31188 		msr     BASEPRI, r3
 489              	@ 0 "" 2
 490              	.LVL35:
 491              		.thumb
 492              	.LBE29:
 493 000a FFF7FEFF 		bl	dbg_check_lock
 494              	.LVL36:
 495              	.LBE30:
ARM GAS  /tmp/ccq01laD.s 			page 10


 496              		.loc 1 117 0
 497 000e 6368     		ldr	r3, [r4, #4]
 498 0010 73B1     		cbz	r3, .L24
 499              	.L23:
 500              		.loc 1 121 0
 501 0012 094A     		ldr	r2, .L25
 502              		.loc 1 122 0
 503 0014 0220     		movs	r0, #2
 504              		.loc 1 121 0
 505 0016 9169     		ldr	r1, [r2, #24]
 506 0018 6160     		str	r1, [r4, #4]
 507              		.loc 1 122 0
 508 001a FFF7FEFF 		bl	chSchGoSleepS
 509              		.loc 1 123 0
 510 001e 6068     		ldr	r0, [r4, #4]
 511 0020 846A     		ldr	r4, [r0, #40]
 512              	.LVL37:
 513              	.LBB31:
 514              		.loc 1 125 0
 515 0022 FFF7FEFF 		bl	dbg_check_unlock
 516              	.LVL38:
 517              	.LBB32:
 518 0026 0023     		movs	r3, #0
 519              	.LVL39:
 520              	@ 125 "../../ChibiOS/os/various/cpp_wrappers/ch.cpp" 1
 521 0028 83F31188 		msr     BASEPRI, r3
 522              	@ 0 "" 2
 523              	.LVL40:
 524              		.thumb
 525              	.LBE32:
 526              	.LBE31:
 527              	.LBE33:
 528              		.loc 1 127 0
 529 002c 2046     		mov	r0, r4
 530 002e 10BD     		pop	{r4, pc}
 531              	.LVL41:
 532              	.L24:
 533              	.LBB34:
 534              		.loc 1 117 0 discriminator 1
 535 0030 0248     		ldr	r0, .L25+4
 536 0032 FFF7FEFF 		bl	chDbgPanic
 537 0036 ECE7     		b	.L23
 538              	.L26:
 539              		.align	2
 540              	.L25:
 541 0038 00000000 		.word	rlist
 542 003c 24000000 		.word	.LC1
 543              	.LBE34:
 544              		.cfi_endproc
 545              	.LFE30:
 546              		.size	_ZN10chibios_rt15ThreadReference7suspendEv, .-_ZN10chibios_rt15ThreadReference7suspendEv
 547              		.section	.text._ZN10chibios_rt15ThreadReference8suspendSEv,"ax",%progbits
 548              		.align	2
 549              		.p2align 4,,15
 550              		.global	_ZN10chibios_rt15ThreadReference8suspendSEv
 551              		.thumb
 552              		.thumb_func
ARM GAS  /tmp/ccq01laD.s 			page 11


 553              		.type	_ZN10chibios_rt15ThreadReference8suspendSEv, %function
 554              	_ZN10chibios_rt15ThreadReference8suspendSEv:
 555              	.LFB31:
 556              		.loc 1 129 0
 557              		.cfi_startproc
 558              		@ args = 0, pretend = 0, frame = 0
 559              		@ frame_needed = 0, uses_anonymous_args = 0
 560              	.LVL42:
 561              		.loc 1 131 0
 562 0000 4368     		ldr	r3, [r0, #4]
 563              		.loc 1 129 0
 564 0002 10B5     		push	{r4, lr}
 565              	.LCFI3:
 566              		.cfi_def_cfa_offset 8
 567              		.cfi_offset 14, -4
 568              		.cfi_offset 4, -8
 569              		.loc 1 129 0
 570 0004 0446     		mov	r4, r0
 571              		.loc 1 131 0
 572 0006 13B1     		cbz	r3, .L28
 573              		.loc 1 131 0 is_stmt 0 discriminator 1
 574 0008 0548     		ldr	r0, .L29
 575              	.LVL43:
 576 000a FFF7FEFF 		bl	chDbgPanic
 577              	.L28:
 578              		.loc 1 135 0 is_stmt 1
 579 000e 054A     		ldr	r2, .L29+4
 580              		.loc 1 136 0
 581 0010 0220     		movs	r0, #2
 582              		.loc 1 135 0
 583 0012 9169     		ldr	r1, [r2, #24]
 584 0014 6160     		str	r1, [r4, #4]
 585              		.loc 1 136 0
 586 0016 FFF7FEFF 		bl	chSchGoSleepS
 587              		.loc 1 137 0
 588 001a 6068     		ldr	r0, [r4, #4]
 589 001c 806A     		ldr	r0, [r0, #40]
 590              		.loc 1 138 0
 591 001e 10BD     		pop	{r4, pc}
 592              	.L30:
 593              		.align	2
 594              	.L29:
 595 0020 38000000 		.word	.LC2
 596 0024 00000000 		.word	rlist
 597              		.cfi_endproc
 598              	.LFE31:
 599              		.size	_ZN10chibios_rt15ThreadReference8suspendSEv, .-_ZN10chibios_rt15ThreadReference8suspendSEv
 600 0028 AFF30080 		.section	.text._ZN10chibios_rt15ThreadReference6resumeEl,"ax",%progbits
 600      AFF30080 
 601              		.align	2
 602              		.p2align 4,,15
 603              		.global	_ZN10chibios_rt15ThreadReference6resumeEl
 604              		.thumb
 605              		.thumb_func
 606              		.type	_ZN10chibios_rt15ThreadReference6resumeEl, %function
 607              	_ZN10chibios_rt15ThreadReference6resumeEl:
 608              	.LFB32:
ARM GAS  /tmp/ccq01laD.s 			page 12


 609              		.loc 1 140 0
 610              		.cfi_startproc
 611              		@ args = 0, pretend = 0, frame = 0
 612              		@ frame_needed = 0, uses_anonymous_args = 0
 613              	.LVL44:
 614 0000 38B5     		push	{r3, r4, r5, lr}
 615              	.LCFI4:
 616              		.cfi_def_cfa_offset 16
 617              		.cfi_offset 14, -4
 618              		.cfi_offset 5, -8
 619              		.cfi_offset 4, -12
 620              		.cfi_offset 3, -16
 621              		.loc 1 140 0
 622 0002 0446     		mov	r4, r0
 623 0004 0D46     		mov	r5, r1
 624              	.LBB35:
 625              	.LBB36:
 626              	.LBB37:
 627              		.loc 1 142 0
 628 0006 2023     		movs	r3, #32
 629              	.LVL45:
 630              	@ 142 "../../ChibiOS/os/various/cpp_wrappers/ch.cpp" 1
 631 0008 83F31188 		msr     BASEPRI, r3
 632              	@ 0 "" 2
 633              	.LVL46:
 634              		.thumb
 635              	.LBE37:
 636 000c FFF7FEFF 		bl	dbg_check_lock
 637              	.LVL47:
 638              	.LBE36:
 639              		.loc 1 144 0
 640 0010 6068     		ldr	r0, [r4, #4]
 641 0012 50B1     		cbz	r0, .L34
 642              	.L32:
 643              	.LVL48:
 644              	.LBB38:
 645              	.LBB39:
 646              		.loc 1 150 0
 647 0014 0023     		movs	r3, #0
 648 0016 6360     		str	r3, [r4, #4]
 649              		.loc 1 151 0
 650 0018 2946     		mov	r1, r5
 651 001a FFF7FEFF 		bl	chSchWakeupS
 652              	.LVL49:
 653              	.L33:
 654              	.LBE39:
 655              	.LBE38:
 656              	.LBB40:
 657              		.loc 1 154 0
 658 001e FFF7FEFF 		bl	dbg_check_unlock
 659              	.LBB41:
 660 0022 0023     		movs	r3, #0
 661              	.LVL50:
 662              	@ 154 "../../ChibiOS/os/various/cpp_wrappers/ch.cpp" 1
 663 0024 83F31188 		msr     BASEPRI, r3
 664              	@ 0 "" 2
 665              	.LVL51:
ARM GAS  /tmp/ccq01laD.s 			page 13


 666              		.thumb
 667              	.LBE41:
 668              	.LBE40:
 669              	.LBE35:
 670              		.loc 1 155 0
 671 0028 38BD     		pop	{r3, r4, r5, pc}
 672              	.LVL52:
 673              	.L34:
 674              	.LBB43:
 675              		.loc 1 144 0 discriminator 1
 676 002a 0348     		ldr	r0, .L35
 677 002c FFF7FEFF 		bl	chDbgPanic
 678              	.LBB42:
 679              		.loc 1 148 0 discriminator 1
 680 0030 6068     		ldr	r0, [r4, #4]
 681 0032 0028     		cmp	r0, #0
 682 0034 F3D0     		beq	.L33
 683 0036 EDE7     		b	.L32
 684              	.L36:
 685              		.align	2
 686              	.L35:
 687 0038 4C000000 		.word	.LC3
 688              	.LBE42:
 689              	.LBE43:
 690              		.cfi_endproc
 691              	.LFE32:
 692              		.size	_ZN10chibios_rt15ThreadReference6resumeEl, .-_ZN10chibios_rt15ThreadReference6resumeEl
 693 003c AFF30080 		.section	.text._ZN10chibios_rt15ThreadReference7resumeIEl,"ax",%progbits
 694              		.align	2
 695              		.p2align 4,,15
 696              		.global	_ZN10chibios_rt15ThreadReference7resumeIEl
 697              		.thumb
 698              		.thumb_func
 699              		.type	_ZN10chibios_rt15ThreadReference7resumeIEl, %function
 700              	_ZN10chibios_rt15ThreadReference7resumeIEl:
 701              	.LFB33:
 702              		.loc 1 157 0
 703              		.cfi_startproc
 704              		@ args = 0, pretend = 0, frame = 8
 705              		@ frame_needed = 0, uses_anonymous_args = 0
 706              	.LVL53:
 707 0000 10B5     		push	{r4, lr}
 708              	.LCFI5:
 709              		.cfi_def_cfa_offset 8
 710              		.cfi_offset 14, -4
 711              		.cfi_offset 4, -8
 712 0002 0446     		mov	r4, r0
 713              	.LBB44:
 714              		.loc 1 159 0
 715 0004 4068     		ldr	r0, [r0, #4]
 716              	.LVL54:
 717              	.LBE44:
 718              		.loc 1 157 0
 719 0006 82B0     		sub	sp, sp, #8
 720              	.LCFI6:
 721              		.cfi_def_cfa_offset 16
 722              	.LBB50:
ARM GAS  /tmp/ccq01laD.s 			page 14


 723              		.loc 1 159 0
 724 0008 38B1     		cbz	r0, .L40
 725              	.LVL55:
 726              	.L38:
 727              	.LBB45:
 728              	.LBB46:
 729              		.loc 1 165 0
 730 000a 0023     		movs	r3, #0
 731 000c 6360     		str	r3, [r4, #4]
 732              		.loc 1 166 0
 733 000e 8163     		str	r1, [r0, #56]
 734              	.LBE46:
 735              	.LBE45:
 736              	.LBE50:
 737              		.loc 1 169 0
 738 0010 02B0     		add	sp, sp, #8
 739 0012 BDE81040 		pop	{r4, lr}
 740              	.LBB51:
 741              	.LBB48:
 742              	.LBB47:
 743              		.loc 1 167 0
 744 0016 FFF7FEBF 		b	chSchReadyI
 745              	.LVL56:
 746              	.L40:
 747              	.LBE47:
 748              	.LBE48:
 749              		.loc 1 159 0 discriminator 1
 750 001a 0548     		ldr	r0, .L41
 751 001c 0191     		str	r1, [sp, #4]
 752 001e FFF7FEFF 		bl	chDbgPanic
 753              	.LVL57:
 754              	.LBB49:
 755              		.loc 1 163 0 discriminator 1
 756 0022 6068     		ldr	r0, [r4, #4]
 757 0024 0199     		ldr	r1, [sp, #4]
 758 0026 0028     		cmp	r0, #0
 759 0028 EFD1     		bne	.L38
 760              	.LBE49:
 761              	.LBE51:
 762              		.loc 1 169 0
 763 002a 02B0     		add	sp, sp, #8
 764 002c 10BD     		pop	{r4, pc}
 765              	.L42:
 766 002e 00BF     		.align	2
 767              	.L41:
 768 0030 60000000 		.word	.LC4
 769              		.cfi_endproc
 770              	.LFE33:
 771              		.size	_ZN10chibios_rt15ThreadReference7resumeIEl, .-_ZN10chibios_rt15ThreadReference7resumeIEl
 772 0034 AFF30080 		.section	.text._ZN10chibios_rt15ThreadReference16requestTerminateEv,"ax",%progbits
 772      AFF30080 
 772      AFF30080 
 773              		.align	2
 774              		.p2align 4,,15
 775              		.global	_ZN10chibios_rt15ThreadReference16requestTerminateEv
 776              		.thumb
 777              		.thumb_func
ARM GAS  /tmp/ccq01laD.s 			page 15


 778              		.type	_ZN10chibios_rt15ThreadReference16requestTerminateEv, %function
 779              	_ZN10chibios_rt15ThreadReference16requestTerminateEv:
 780              	.LFB34:
 781              		.loc 1 171 0
 782              		.cfi_startproc
 783              		@ args = 0, pretend = 0, frame = 0
 784              		@ frame_needed = 0, uses_anonymous_args = 0
 785              	.LVL58:
 786 0000 10B5     		push	{r4, lr}
 787              	.LCFI7:
 788              		.cfi_def_cfa_offset 8
 789              		.cfi_offset 14, -4
 790              		.cfi_offset 4, -8
 791              		.loc 1 171 0
 792 0002 0446     		mov	r4, r0
 793              		.loc 1 173 0
 794 0004 4068     		ldr	r0, [r0, #4]
 795              	.LVL59:
 796 0006 18B1     		cbz	r0, .L45
 797              	.L44:
 798              		.loc 1 178 0
 799 0008 BDE81040 		pop	{r4, lr}
 800              		.loc 1 177 0
 801 000c FFF7FEBF 		b	chThdTerminate
 802              	.L45:
 803              		.loc 1 173 0 discriminator 1
 804 0010 0248     		ldr	r0, .L46
 805 0012 FFF7FEFF 		bl	chDbgPanic
 806 0016 6068     		ldr	r0, [r4, #4]
 807 0018 F6E7     		b	.L44
 808              	.L47:
 809 001a 00BF     		.align	2
 810              	.L46:
 811 001c 74000000 		.word	.LC5
 812              		.cfi_endproc
 813              	.LFE34:
 814              		.size	_ZN10chibios_rt15ThreadReference16requestTerminateEv, .-_ZN10chibios_rt15ThreadReference16re
 815              		.section	.text._ZN10chibios_rt15ThreadReference4waitEv,"ax",%progbits
 816              		.align	2
 817              		.p2align 4,,15
 818              		.global	_ZN10chibios_rt15ThreadReference4waitEv
 819              		.thumb
 820              		.thumb_func
 821              		.type	_ZN10chibios_rt15ThreadReference4waitEv, %function
 822              	_ZN10chibios_rt15ThreadReference4waitEv:
 823              	.LFB35:
 824              		.loc 1 181 0
 825              		.cfi_startproc
 826              		@ args = 0, pretend = 0, frame = 0
 827              		@ frame_needed = 0, uses_anonymous_args = 0
 828              	.LVL60:
 829 0000 10B5     		push	{r4, lr}
 830              	.LCFI8:
 831              		.cfi_def_cfa_offset 8
 832              		.cfi_offset 14, -4
 833              		.cfi_offset 4, -8
 834              		.loc 1 181 0
ARM GAS  /tmp/ccq01laD.s 			page 16


 835 0002 0446     		mov	r4, r0
 836              	.LBB52:
 837              		.loc 1 183 0
 838 0004 4068     		ldr	r0, [r0, #4]
 839              	.LVL61:
 840 0006 20B1     		cbz	r0, .L50
 841              		.loc 1 187 0
 842 0008 FFF7FEFF 		bl	chThdWait
 843              	.LVL62:
 844              		.loc 1 188 0
 845 000c 0023     		movs	r3, #0
 846 000e 6360     		str	r3, [r4, #4]
 847              	.LBE52:
 848              		.loc 1 190 0
 849 0010 10BD     		pop	{r4, pc}
 850              	.LVL63:
 851              	.L50:
 852              	.LBB53:
 853              		.loc 1 183 0 discriminator 1
 854 0012 0448     		ldr	r0, .L51
 855 0014 FFF7FEFF 		bl	chDbgPanic
 856 0018 6068     		ldr	r0, [r4, #4]
 857              		.loc 1 187 0 discriminator 1
 858 001a FFF7FEFF 		bl	chThdWait
 859              	.LVL64:
 860              		.loc 1 188 0 discriminator 1
 861 001e 0023     		movs	r3, #0
 862 0020 6360     		str	r3, [r4, #4]
 863              	.LBE53:
 864              		.loc 1 190 0 discriminator 1
 865 0022 10BD     		pop	{r4, pc}
 866              	.L52:
 867              		.align	2
 868              	.L51:
 869 0024 88000000 		.word	.LC6
 870              		.cfi_endproc
 871              	.LFE35:
 872              		.size	_ZN10chibios_rt15ThreadReference4waitEv, .-_ZN10chibios_rt15ThreadReference4waitEv
 873 0028 AFF30080 		.section	.text._ZN10chibios_rt15ThreadReference11sendMessageEl,"ax",%progbits
 873      AFF30080 
 874              		.align	2
 875              		.p2align 4,,15
 876              		.global	_ZN10chibios_rt15ThreadReference11sendMessageEl
 877              		.thumb
 878              		.thumb_func
 879              		.type	_ZN10chibios_rt15ThreadReference11sendMessageEl, %function
 880              	_ZN10chibios_rt15ThreadReference11sendMessageEl:
 881              	.LFB36:
 882              		.loc 1 194 0
 883              		.cfi_startproc
 884              		@ args = 0, pretend = 0, frame = 8
 885              		@ frame_needed = 0, uses_anonymous_args = 0
 886              	.LVL65:
 887 0000 10B5     		push	{r4, lr}
 888              	.LCFI9:
 889              		.cfi_def_cfa_offset 8
 890              		.cfi_offset 14, -4
ARM GAS  /tmp/ccq01laD.s 			page 17


 891              		.cfi_offset 4, -8
 892 0002 0446     		mov	r4, r0
 893              		.loc 1 196 0
 894 0004 4068     		ldr	r0, [r0, #4]
 895              	.LVL66:
 896              		.loc 1 194 0
 897 0006 82B0     		sub	sp, sp, #8
 898              	.LCFI10:
 899              		.cfi_def_cfa_offset 16
 900              		.loc 1 196 0
 901 0008 20B1     		cbz	r0, .L55
 902              	.LVL67:
 903              	.L54:
 904              		.loc 1 201 0
 905 000a 02B0     		add	sp, sp, #8
 906 000c BDE81040 		pop	{r4, lr}
 907              		.loc 1 200 0
 908 0010 FFF7FEBF 		b	chMsgSend
 909              	.LVL68:
 910              	.L55:
 911              		.loc 1 196 0 discriminator 1
 912 0014 0348     		ldr	r0, .L56
 913 0016 0191     		str	r1, [sp, #4]
 914 0018 FFF7FEFF 		bl	chDbgPanic
 915              	.LVL69:
 916 001c 6068     		ldr	r0, [r4, #4]
 917 001e 0199     		ldr	r1, [sp, #4]
 918 0020 F3E7     		b	.L54
 919              	.L57:
 920 0022 00BF     		.align	2
 921              	.L56:
 922 0024 9C000000 		.word	.LC7
 923              		.cfi_endproc
 924              	.LFE36:
 925              		.size	_ZN10chibios_rt15ThreadReference11sendMessageEl, .-_ZN10chibios_rt15ThreadReference11sendMes
 926 0028 AFF30080 		.section	.text._ZN10chibios_rt15ThreadReference16isPendingMessageEv,"ax",%progbits
 926      AFF30080 
 927              		.align	2
 928              		.p2align 4,,15
 929              		.global	_ZN10chibios_rt15ThreadReference16isPendingMessageEv
 930              		.thumb
 931              		.thumb_func
 932              		.type	_ZN10chibios_rt15ThreadReference16isPendingMessageEv, %function
 933              	_ZN10chibios_rt15ThreadReference16isPendingMessageEv:
 934              	.LFB37:
 935              		.loc 1 203 0
 936              		.cfi_startproc
 937              		@ args = 0, pretend = 0, frame = 0
 938              		@ frame_needed = 0, uses_anonymous_args = 0
 939              	.LVL70:
 940              		.loc 1 205 0
 941 0000 4368     		ldr	r3, [r0, #4]
 942              		.loc 1 203 0
 943 0002 10B5     		push	{r4, lr}
 944              	.LCFI11:
 945              		.cfi_def_cfa_offset 8
 946              		.cfi_offset 14, -4
ARM GAS  /tmp/ccq01laD.s 			page 18


 947              		.cfi_offset 4, -8
 948              		.loc 1 203 0
 949 0004 0446     		mov	r4, r0
 950              		.loc 1 205 0
 951 0006 2BB1     		cbz	r3, .L60
 952              		.loc 1 209 0
 953 0008 186B     		ldr	r0, [r3, #48]
 954              	.LVL71:
 955 000a 3033     		adds	r3, r3, #48
 956 000c C01A     		subs	r0, r0, r3
 957 000e 18BF     		it	ne
 958 0010 0120     		movne	r0, #1
 959              		.loc 1 210 0
 960 0012 10BD     		pop	{r4, pc}
 961              	.L60:
 962              		.loc 1 205 0 discriminator 1
 963 0014 0448     		ldr	r0, .L61
 964 0016 FFF7FEFF 		bl	chDbgPanic
 965 001a 6368     		ldr	r3, [r4, #4]
 966              		.loc 1 209 0 discriminator 1
 967 001c 186B     		ldr	r0, [r3, #48]
 968 001e 3033     		adds	r3, r3, #48
 969 0020 C01A     		subs	r0, r0, r3
 970 0022 18BF     		it	ne
 971 0024 0120     		movne	r0, #1
 972              		.loc 1 210 0 discriminator 1
 973 0026 10BD     		pop	{r4, pc}
 974              	.L62:
 975              		.align	2
 976              	.L61:
 977 0028 9C000000 		.word	.LC7
 978              		.cfi_endproc
 979              	.LFE37:
 980              		.size	_ZN10chibios_rt15ThreadReference16isPendingMessageEv, .-_ZN10chibios_rt15ThreadReference16is
 981 002c AFF30080 		.section	.text._ZN10chibios_rt15ThreadReference10getMessageEv,"ax",%progbits
 982              		.align	2
 983              		.p2align 4,,15
 984              		.global	_ZN10chibios_rt15ThreadReference10getMessageEv
 985              		.thumb
 986              		.thumb_func
 987              		.type	_ZN10chibios_rt15ThreadReference10getMessageEv, %function
 988              	_ZN10chibios_rt15ThreadReference10getMessageEv:
 989              	.LFB38:
 990              		.loc 1 212 0
 991              		.cfi_startproc
 992              		@ args = 0, pretend = 0, frame = 0
 993              		@ frame_needed = 0, uses_anonymous_args = 0
 994              	.LVL72:
 995              		.loc 1 214 0
 996 0000 4368     		ldr	r3, [r0, #4]
 997              		.loc 1 212 0
 998 0002 10B5     		push	{r4, lr}
 999              	.LCFI12:
 1000              		.cfi_def_cfa_offset 8
 1001              		.cfi_offset 14, -4
 1002              		.cfi_offset 4, -8
 1003              		.loc 1 212 0
ARM GAS  /tmp/ccq01laD.s 			page 19


 1004 0004 0446     		mov	r4, r0
 1005              		.loc 1 214 0
 1006 0006 0BB1     		cbz	r3, .L65
 1007              		.loc 1 218 0
 1008 0008 986B     		ldr	r0, [r3, #56]
 1009              	.LVL73:
 1010              		.loc 1 219 0
 1011 000a 10BD     		pop	{r4, pc}
 1012              	.L65:
 1013              		.loc 1 214 0 discriminator 1
 1014 000c 0248     		ldr	r0, .L66
 1015 000e FFF7FEFF 		bl	chDbgPanic
 1016 0012 6368     		ldr	r3, [r4, #4]
 1017              		.loc 1 218 0 discriminator 1
 1018 0014 986B     		ldr	r0, [r3, #56]
 1019              		.loc 1 219 0 discriminator 1
 1020 0016 10BD     		pop	{r4, pc}
 1021              	.L67:
 1022              		.align	2
 1023              	.L66:
 1024 0018 B0000000 		.word	.LC8
 1025              		.cfi_endproc
 1026              	.LFE38:
 1027              		.size	_ZN10chibios_rt15ThreadReference10getMessageEv, .-_ZN10chibios_rt15ThreadReference10getMessa
 1028 001c AFF30080 		.section	.text._ZN10chibios_rt15ThreadReference14releaseMessageEl,"ax",%progbits
 1029              		.align	2
 1030              		.p2align 4,,15
 1031              		.global	_ZN10chibios_rt15ThreadReference14releaseMessageEl
 1032              		.thumb
 1033              		.thumb_func
 1034              		.type	_ZN10chibios_rt15ThreadReference14releaseMessageEl, %function
 1035              	_ZN10chibios_rt15ThreadReference14releaseMessageEl:
 1036              	.LFB39:
 1037              		.loc 1 221 0
 1038              		.cfi_startproc
 1039              		@ args = 0, pretend = 0, frame = 8
 1040              		@ frame_needed = 0, uses_anonymous_args = 0
 1041              	.LVL74:
 1042 0000 10B5     		push	{r4, lr}
 1043              	.LCFI13:
 1044              		.cfi_def_cfa_offset 8
 1045              		.cfi_offset 14, -4
 1046              		.cfi_offset 4, -8
 1047 0002 0446     		mov	r4, r0
 1048              		.loc 1 223 0
 1049 0004 4068     		ldr	r0, [r0, #4]
 1050              	.LVL75:
 1051              		.loc 1 221 0
 1052 0006 82B0     		sub	sp, sp, #8
 1053              	.LCFI14:
 1054              		.cfi_def_cfa_offset 16
 1055              		.loc 1 223 0
 1056 0008 20B1     		cbz	r0, .L70
 1057              	.LVL76:
 1058              	.L69:
 1059              		.loc 1 228 0
 1060 000a 02B0     		add	sp, sp, #8
ARM GAS  /tmp/ccq01laD.s 			page 20


 1061 000c BDE81040 		pop	{r4, lr}
 1062              		.loc 1 227 0
 1063 0010 FFF7FEBF 		b	chMsgRelease
 1064              	.LVL77:
 1065              	.L70:
 1066              		.loc 1 223 0 discriminator 1
 1067 0014 0348     		ldr	r0, .L71
 1068 0016 0191     		str	r1, [sp, #4]
 1069 0018 FFF7FEFF 		bl	chDbgPanic
 1070              	.LVL78:
 1071 001c 6068     		ldr	r0, [r4, #4]
 1072 001e 0199     		ldr	r1, [sp, #4]
 1073 0020 F3E7     		b	.L69
 1074              	.L72:
 1075 0022 00BF     		.align	2
 1076              	.L71:
 1077 0024 C4000000 		.word	.LC9
 1078              		.cfi_endproc
 1079              	.LFE39:
 1080              		.size	_ZN10chibios_rt15ThreadReference14releaseMessageEl, .-_ZN10chibios_rt15ThreadReference14rele
 1081 0028 AFF30080 		.section	.text._ZN10chibios_rt15ThreadReference12signalEventsEm,"ax",%progbits
 1081      AFF30080 
 1082              		.align	2
 1083              		.p2align 4,,15
 1084              		.global	_ZN10chibios_rt15ThreadReference12signalEventsEm
 1085              		.thumb
 1086              		.thumb_func
 1087              		.type	_ZN10chibios_rt15ThreadReference12signalEventsEm, %function
 1088              	_ZN10chibios_rt15ThreadReference12signalEventsEm:
 1089              	.LFB40:
 1090              		.loc 1 232 0
 1091              		.cfi_startproc
 1092              		@ args = 0, pretend = 0, frame = 8
 1093              		@ frame_needed = 0, uses_anonymous_args = 0
 1094              	.LVL79:
 1095 0000 10B5     		push	{r4, lr}
 1096              	.LCFI15:
 1097              		.cfi_def_cfa_offset 8
 1098              		.cfi_offset 14, -4
 1099              		.cfi_offset 4, -8
 1100 0002 0446     		mov	r4, r0
 1101              		.loc 1 234 0
 1102 0004 4068     		ldr	r0, [r0, #4]
 1103              	.LVL80:
 1104              		.loc 1 232 0
 1105 0006 82B0     		sub	sp, sp, #8
 1106              	.LCFI16:
 1107              		.cfi_def_cfa_offset 16
 1108              		.loc 1 234 0
 1109 0008 20B1     		cbz	r0, .L75
 1110              	.LVL81:
 1111              	.L74:
 1112              		.loc 1 239 0
 1113 000a 02B0     		add	sp, sp, #8
 1114 000c BDE81040 		pop	{r4, lr}
 1115              		.loc 1 238 0
 1116 0010 FFF7FEBF 		b	chEvtSignal
ARM GAS  /tmp/ccq01laD.s 			page 21


 1117              	.LVL82:
 1118              	.L75:
 1119              		.loc 1 234 0 discriminator 1
 1120 0014 0348     		ldr	r0, .L76
 1121 0016 0191     		str	r1, [sp, #4]
 1122 0018 FFF7FEFF 		bl	chDbgPanic
 1123              	.LVL83:
 1124 001c 6068     		ldr	r0, [r4, #4]
 1125 001e 0199     		ldr	r1, [sp, #4]
 1126 0020 F3E7     		b	.L74
 1127              	.L77:
 1128 0022 00BF     		.align	2
 1129              	.L76:
 1130 0024 D8000000 		.word	.LC10
 1131              		.cfi_endproc
 1132              	.LFE40:
 1133              		.size	_ZN10chibios_rt15ThreadReference12signalEventsEm, .-_ZN10chibios_rt15ThreadReference12signal
 1134 0028 AFF30080 		.section	.text._ZN10chibios_rt15ThreadReference13signalEventsIEm,"ax",%progbits
 1134      AFF30080 
 1135              		.align	2
 1136              		.p2align 4,,15
 1137              		.global	_ZN10chibios_rt15ThreadReference13signalEventsIEm
 1138              		.thumb
 1139              		.thumb_func
 1140              		.type	_ZN10chibios_rt15ThreadReference13signalEventsIEm, %function
 1141              	_ZN10chibios_rt15ThreadReference13signalEventsIEm:
 1142              	.LFB41:
 1143              		.loc 1 241 0
 1144              		.cfi_startproc
 1145              		@ args = 0, pretend = 0, frame = 8
 1146              		@ frame_needed = 0, uses_anonymous_args = 0
 1147              	.LVL84:
 1148 0000 10B5     		push	{r4, lr}
 1149              	.LCFI17:
 1150              		.cfi_def_cfa_offset 8
 1151              		.cfi_offset 14, -4
 1152              		.cfi_offset 4, -8
 1153 0002 0446     		mov	r4, r0
 1154              		.loc 1 243 0
 1155 0004 4068     		ldr	r0, [r0, #4]
 1156              	.LVL85:
 1157              		.loc 1 241 0
 1158 0006 82B0     		sub	sp, sp, #8
 1159              	.LCFI18:
 1160              		.cfi_def_cfa_offset 16
 1161              		.loc 1 243 0
 1162 0008 20B1     		cbz	r0, .L80
 1163              	.LVL86:
 1164              	.L79:
 1165              		.loc 1 248 0
 1166 000a 02B0     		add	sp, sp, #8
 1167 000c BDE81040 		pop	{r4, lr}
 1168              		.loc 1 247 0
 1169 0010 FFF7FEBF 		b	chEvtSignalI
 1170              	.LVL87:
 1171              	.L80:
 1172              		.loc 1 243 0 discriminator 1
ARM GAS  /tmp/ccq01laD.s 			page 22


 1173 0014 0348     		ldr	r0, .L81
 1174 0016 0191     		str	r1, [sp, #4]
 1175 0018 FFF7FEFF 		bl	chDbgPanic
 1176              	.LVL88:
 1177 001c 6068     		ldr	r0, [r4, #4]
 1178 001e 0199     		ldr	r1, [sp, #4]
 1179 0020 F3E7     		b	.L79
 1180              	.L82:
 1181 0022 00BF     		.align	2
 1182              	.L81:
 1183 0024 F0000000 		.word	.LC11
 1184              		.cfi_endproc
 1185              	.LFE41:
 1186              		.size	_ZN10chibios_rt15ThreadReference13signalEventsIEm, .-_ZN10chibios_rt15ThreadReference13signa
 1187 0028 AFF30080 		.section	.text._ZN10chibios_rt10BaseThreadC2Ev,"ax",%progbits
 1187      AFF30080 
 1188              		.align	2
 1189              		.p2align 4,,15
 1190              		.global	_ZN10chibios_rt10BaseThreadC2Ev
 1191              		.thumb
 1192              		.thumb_func
 1193              		.type	_ZN10chibios_rt10BaseThreadC2Ev, %function
 1194              	_ZN10chibios_rt10BaseThreadC2Ev:
 1195              	.LFB43:
 1196              		.loc 1 257 0
 1197              		.cfi_startproc
 1198              		@ args = 0, pretend = 0, frame = 0
 1199              		@ frame_needed = 0, uses_anonymous_args = 0
 1200              		@ link register save eliminated.
 1201              	.LVL89:
 1202              	.LBB54:
 1203              		.loc 1 257 0
 1204 0000 024B     		ldr	r3, .L86
 1205              	.LBB55:
 1206              	.LBB56:
 1207              	.LBB57:
 1208              		.loc 2 250 0
 1209 0002 0021     		movs	r1, #0
 1210 0004 4160     		str	r1, [r0, #4]
 1211              	.LBE57:
 1212              	.LBE56:
 1213              	.LBE55:
 1214              		.loc 1 257 0
 1215 0006 0360     		str	r3, [r0, #0]
 1216              	.LBE54:
 1217              		.loc 1 259 0
 1218 0008 7047     		bx	lr
 1219              	.L87:
 1220 000a 00BF     		.align	2
 1221              	.L86:
 1222 000c 08000000 		.word	.LANCHOR1+8
 1223              		.cfi_endproc
 1224              	.LFE43:
 1225              		.size	_ZN10chibios_rt10BaseThreadC2Ev, .-_ZN10chibios_rt10BaseThreadC2Ev
 1226              		.section	.text._ZN10chibios_rt10_thd_startEPv,"ax",%progbits
 1227              		.align	2
 1228              		.p2align 4,,15
ARM GAS  /tmp/ccq01laD.s 			page 23


 1229              		.global	_ZN10chibios_rt10_thd_startEPv
 1230              		.thumb
 1231              		.thumb_func
 1232              		.type	_ZN10chibios_rt10_thd_startEPv, %function
 1233              	_ZN10chibios_rt10_thd_startEPv:
 1234              	.LFB50:
 1235              		.loc 1 273 0
 1236              		.cfi_startproc
 1237              		@ args = 0, pretend = 0, frame = 0
 1238              		@ frame_needed = 0, uses_anonymous_args = 0
 1239              	.LVL90:
 1240              		.loc 1 275 0
 1241 0000 0168     		ldr	r1, [r0, #0]
 1242              		.loc 1 273 0
 1243 0002 08B5     		push	{r3, lr}
 1244              	.LCFI19:
 1245              		.cfi_def_cfa_offset 8
 1246              		.cfi_offset 14, -4
 1247              		.cfi_offset 3, -8
 1248              		.loc 1 275 0
 1249 0004 4B68     		ldr	r3, [r1, #4]
 1250 0006 9847     		blx	r3
 1251              	.LVL91:
 1252              		.loc 1 276 0
 1253 0008 08BD     		pop	{r3, pc}
 1254              		.cfi_endproc
 1255              	.LFE50:
 1256              		.size	_ZN10chibios_rt10_thd_startEPv, .-_ZN10chibios_rt10_thd_startEPv
 1257 000a 00BFAFF3 		.section	.text._ZN10chibios_rt10BaseThread7setNameEPKc,"ax",%progbits
 1257      0080
 1258              		.align	2
 1259              		.p2align 4,,15
 1260              		.global	_ZN10chibios_rt10BaseThread7setNameEPKc
 1261              		.thumb
 1262              		.thumb_func
 1263              		.type	_ZN10chibios_rt10BaseThread7setNameEPKc, %function
 1264              	_ZN10chibios_rt10BaseThread7setNameEPKc:
 1265              	.LFB51:
 1266              		.loc 1 278 0
 1267              		.cfi_startproc
 1268              		@ args = 0, pretend = 0, frame = 0
 1269              		@ frame_needed = 0, uses_anonymous_args = 0
 1270              		@ link register save eliminated.
 1271              	.LVL92:
 1272              		.loc 1 280 0
 1273 0000 40F20001 		movw	r1, #:lower16:rlist
 1274 0004 C0F20001 		movt	r1, #:upper16:rlist
 1275 0008 8B69     		ldr	r3, [r1, #24]
 1276 000a 9861     		str	r0, [r3, #24]
 1277              		.loc 1 281 0
 1278 000c 7047     		bx	lr
 1279              		.cfi_endproc
 1280              	.LFE51:
 1281              		.size	_ZN10chibios_rt10BaseThread7setNameEPKc, .-_ZN10chibios_rt10BaseThread7setNameEPKc
 1282 000e 00BF     		.section	.text._ZN10chibios_rt10BaseThread11setPriorityEm,"ax",%progbits
 1283              		.align	2
 1284              		.p2align 4,,15
ARM GAS  /tmp/ccq01laD.s 			page 24


 1285              		.global	_ZN10chibios_rt10BaseThread11setPriorityEm
 1286              		.thumb
 1287              		.thumb_func
 1288              		.type	_ZN10chibios_rt10BaseThread11setPriorityEm, %function
 1289              	_ZN10chibios_rt10BaseThread11setPriorityEm:
 1290              	.LFB52:
 1291              		.loc 1 283 0
 1292              		.cfi_startproc
 1293              		@ args = 0, pretend = 0, frame = 0
 1294              		@ frame_needed = 0, uses_anonymous_args = 0
 1295              		@ link register save eliminated.
 1296              	.LVL93:
 1297              		.loc 1 286 0
 1298              		.loc 1 285 0
 1299 0000 FFF7FEBF 		b	chThdSetPriority
 1300              	.LVL94:
 1301              		.cfi_endproc
 1302              	.LFE52:
 1303              		.size	_ZN10chibios_rt10BaseThread11setPriorityEm, .-_ZN10chibios_rt10BaseThread11setPriorityEm
 1304 0004 AFF30080 		.section	.text._ZN10chibios_rt10BaseThread4exitEl,"ax",%progbits
 1304      AFF30080 
 1304      AFF30080 
 1305              		.align	2
 1306              		.p2align 4,,15
 1307              		.global	_ZN10chibios_rt10BaseThread4exitEl
 1308              		.thumb
 1309              		.thumb_func
 1310              		.type	_ZN10chibios_rt10BaseThread4exitEl, %function
 1311              	_ZN10chibios_rt10BaseThread4exitEl:
 1312              	.LFB53:
 1313              		.loc 1 288 0
 1314              		.cfi_startproc
 1315              		@ args = 0, pretend = 0, frame = 0
 1316              		@ frame_needed = 0, uses_anonymous_args = 0
 1317              		@ link register save eliminated.
 1318              	.LVL95:
 1319              		.loc 1 291 0
 1320              		.loc 1 290 0
 1321 0000 FFF7FEBF 		b	chThdExit
 1322              	.LVL96:
 1323              		.cfi_endproc
 1324              	.LFE53:
 1325              		.size	_ZN10chibios_rt10BaseThread4exitEl, .-_ZN10chibios_rt10BaseThread4exitEl
 1326 0004 AFF30080 		.section	.text._ZN10chibios_rt10BaseThread5exitSEl,"ax",%progbits
 1326      AFF30080 
 1326      AFF30080 
 1327              		.align	2
 1328              		.p2align 4,,15
 1329              		.global	_ZN10chibios_rt10BaseThread5exitSEl
 1330              		.thumb
 1331              		.thumb_func
 1332              		.type	_ZN10chibios_rt10BaseThread5exitSEl, %function
 1333              	_ZN10chibios_rt10BaseThread5exitSEl:
 1334              	.LFB54:
 1335              		.loc 1 293 0
 1336              		.cfi_startproc
 1337              		@ args = 0, pretend = 0, frame = 0
ARM GAS  /tmp/ccq01laD.s 			page 25


 1338              		@ frame_needed = 0, uses_anonymous_args = 0
 1339              		@ link register save eliminated.
 1340              	.LVL97:
 1341              		.loc 1 296 0
 1342              		.loc 1 295 0
 1343 0000 FFF7FEBF 		b	chThdExitS
 1344              	.LVL98:
 1345              		.cfi_endproc
 1346              	.LFE54:
 1347              		.size	_ZN10chibios_rt10BaseThread5exitSEl, .-_ZN10chibios_rt10BaseThread5exitSEl
 1348 0004 AFF30080 		.section	.text._ZN10chibios_rt10BaseThread15shouldTerminateEv,"ax",%progbits
 1348      AFF30080 
 1348      AFF30080 
 1349              		.align	2
 1350              		.p2align 4,,15
 1351              		.global	_ZN10chibios_rt10BaseThread15shouldTerminateEv
 1352              		.thumb
 1353              		.thumb_func
 1354              		.type	_ZN10chibios_rt10BaseThread15shouldTerminateEv, %function
 1355              	_ZN10chibios_rt10BaseThread15shouldTerminateEv:
 1356              	.LFB55:
 1357              		.loc 1 298 0
 1358              		.cfi_startproc
 1359              		@ args = 0, pretend = 0, frame = 0
 1360              		@ frame_needed = 0, uses_anonymous_args = 0
 1361              		@ link register save eliminated.
 1362              		.loc 1 300 0
 1363 0000 40F20001 		movw	r1, #:lower16:rlist
 1364 0004 C0F20001 		movt	r1, #:upper16:rlist
 1365 0008 8B69     		ldr	r3, [r1, #24]
 1366 000a 93F82100 		ldrb	r0, [r3, #33]	@ zero_extendqisi2
 1367 000e C0F38000 		ubfx	r0, r0, #2, #1
 1368              		.loc 1 301 0
 1369 0012 7047     		bx	lr
 1370              		.cfi_endproc
 1371              	.LFE55:
 1372              		.size	_ZN10chibios_rt10BaseThread15shouldTerminateEv, .-_ZN10chibios_rt10BaseThread15shouldTermina
 1373 0014 AFF30080 		.section	.text._ZN10chibios_rt10BaseThread5sleepEm,"ax",%progbits
 1373      AFF30080 
 1373      AFF30080 
 1374              		.align	2
 1375              		.p2align 4,,15
 1376              		.global	_ZN10chibios_rt10BaseThread5sleepEm
 1377              		.thumb
 1378              		.thumb_func
 1379              		.type	_ZN10chibios_rt10BaseThread5sleepEm, %function
 1380              	_ZN10chibios_rt10BaseThread5sleepEm:
 1381              	.LFB56:
 1382              		.loc 1 303 0
 1383              		.cfi_startproc
 1384              		@ args = 0, pretend = 0, frame = 0
 1385              		@ frame_needed = 0, uses_anonymous_args = 0
 1386              		@ link register save eliminated.
 1387              	.LVL99:
 1388              		.loc 1 306 0
 1389              		.loc 1 305 0
 1390 0000 FFF7FEBF 		b	chThdSleep
ARM GAS  /tmp/ccq01laD.s 			page 26


 1391              	.LVL100:
 1392              		.cfi_endproc
 1393              	.LFE56:
 1394              		.size	_ZN10chibios_rt10BaseThread5sleepEm, .-_ZN10chibios_rt10BaseThread5sleepEm
 1395 0004 AFF30080 		.section	.text._ZN10chibios_rt10BaseThread10sleepUntilEm,"ax",%progbits
 1395      AFF30080 
 1395      AFF30080 
 1396              		.align	2
 1397              		.p2align 4,,15
 1398              		.global	_ZN10chibios_rt10BaseThread10sleepUntilEm
 1399              		.thumb
 1400              		.thumb_func
 1401              		.type	_ZN10chibios_rt10BaseThread10sleepUntilEm, %function
 1402              	_ZN10chibios_rt10BaseThread10sleepUntilEm:
 1403              	.LFB57:
 1404              		.loc 1 308 0
 1405              		.cfi_startproc
 1406              		@ args = 0, pretend = 0, frame = 0
 1407              		@ frame_needed = 0, uses_anonymous_args = 0
 1408              		@ link register save eliminated.
 1409              	.LVL101:
 1410              		.loc 1 311 0
 1411              		.loc 1 310 0
 1412 0000 FFF7FEBF 		b	chThdSleepUntil
 1413              	.LVL102:
 1414              		.cfi_endproc
 1415              	.LFE57:
 1416              		.size	_ZN10chibios_rt10BaseThread10sleepUntilEm, .-_ZN10chibios_rt10BaseThread10sleepUntilEm
 1417 0004 AFF30080 		.section	.text._ZN10chibios_rt10BaseThread5yieldEv,"ax",%progbits
 1417      AFF30080 
 1417      AFF30080 
 1418              		.align	2
 1419              		.p2align 4,,15
 1420              		.global	_ZN10chibios_rt10BaseThread5yieldEv
 1421              		.thumb
 1422              		.thumb_func
 1423              		.type	_ZN10chibios_rt10BaseThread5yieldEv, %function
 1424              	_ZN10chibios_rt10BaseThread5yieldEv:
 1425              	.LFB58:
 1426              		.loc 1 313 0
 1427              		.cfi_startproc
 1428              		@ args = 0, pretend = 0, frame = 0
 1429              		@ frame_needed = 0, uses_anonymous_args = 0
 1430              		@ link register save eliminated.
 1431              		.loc 1 316 0
 1432              		.loc 1 315 0
 1433 0000 FFF7FEBF 		b	chThdYield
 1434              		.cfi_endproc
 1435              	.LFE58:
 1436              		.size	_ZN10chibios_rt10BaseThread5yieldEv, .-_ZN10chibios_rt10BaseThread5yieldEv
 1437 0004 AFF30080 		.section	.text._ZN10chibios_rt10BaseThread11waitMessageEv,"ax",%progbits
 1437      AFF30080 
 1437      AFF30080 
 1438              		.align	2
 1439              		.p2align 4,,15
 1440              		.global	_ZN10chibios_rt10BaseThread11waitMessageEv
 1441              		.thumb
ARM GAS  /tmp/ccq01laD.s 			page 27


 1442              		.thumb_func
 1443              		.type	_ZN10chibios_rt10BaseThread11waitMessageEv, %function
 1444              	_ZN10chibios_rt10BaseThread11waitMessageEv:
 1445              	.LFB59:
 1446              		.loc 1 319 0
 1447              		.cfi_startproc
 1448              		@ args = 0, pretend = 0, frame = 0
 1449              		@ frame_needed = 0, uses_anonymous_args = 0
 1450              	.LVL103:
 1451 0000 10B5     		push	{r4, lr}
 1452              	.LCFI20:
 1453              		.cfi_def_cfa_offset 8
 1454              		.cfi_offset 14, -4
 1455              		.cfi_offset 4, -8
 1456              		.loc 1 319 0
 1457 0002 0446     		mov	r4, r0
 1458              	.LBB58:
 1459              		.loc 1 321 0
 1460 0004 FFF7FEFF 		bl	chMsgWait
 1461              	.LVL104:
 1462              	.LBB59:
 1463              	.LBB60:
 1464              	.LBB61:
 1465              		.loc 2 250 0
 1466 0008 024B     		ldr	r3, .L99
 1467 000a 6060     		str	r0, [r4, #4]
 1468 000c 2360     		str	r3, [r4, #0]
 1469              	.LBE61:
 1470              	.LBE60:
 1471              	.LBE59:
 1472              	.LBE58:
 1473              		.loc 1 323 0
 1474 000e 2046     		mov	r0, r4
 1475              	.LVL105:
 1476 0010 10BD     		pop	{r4, pc}
 1477              	.L100:
 1478 0012 00BF     		.align	2
 1479              	.L99:
 1480 0014 08000000 		.word	.LANCHOR0+8
 1481              		.cfi_endproc
 1482              	.LFE59:
 1483              		.size	_ZN10chibios_rt10BaseThread11waitMessageEv, .-_ZN10chibios_rt10BaseThread11waitMessageEv
 1484 0018 AFF30080 		.section	.text._ZN10chibios_rt10BaseThread17getAndClearEventsEm,"ax",%progbits
 1484      AFF30080 
 1485              		.align	2
 1486              		.p2align 4,,15
 1487              		.global	_ZN10chibios_rt10BaseThread17getAndClearEventsEm
 1488              		.thumb
 1489              		.thumb_func
 1490              		.type	_ZN10chibios_rt10BaseThread17getAndClearEventsEm, %function
 1491              	_ZN10chibios_rt10BaseThread17getAndClearEventsEm:
 1492              	.LFB60:
 1493              		.loc 1 327 0
 1494              		.cfi_startproc
 1495              		@ args = 0, pretend = 0, frame = 0
 1496              		@ frame_needed = 0, uses_anonymous_args = 0
 1497              		@ link register save eliminated.
ARM GAS  /tmp/ccq01laD.s 			page 28


 1498              	.LVL106:
 1499              		.loc 1 330 0
 1500              		.loc 1 329 0
 1501 0000 FFF7FEBF 		b	chEvtGetAndClearEvents
 1502              	.LVL107:
 1503              		.cfi_endproc
 1504              	.LFE60:
 1505              		.size	_ZN10chibios_rt10BaseThread17getAndClearEventsEm, .-_ZN10chibios_rt10BaseThread17getAndClear
 1506 0004 AFF30080 		.section	.text._ZN10chibios_rt10BaseThread9addEventsEm,"ax",%progbits
 1506      AFF30080 
 1506      AFF30080 
 1507              		.align	2
 1508              		.p2align 4,,15
 1509              		.global	_ZN10chibios_rt10BaseThread9addEventsEm
 1510              		.thumb
 1511              		.thumb_func
 1512              		.type	_ZN10chibios_rt10BaseThread9addEventsEm, %function
 1513              	_ZN10chibios_rt10BaseThread9addEventsEm:
 1514              	.LFB61:
 1515              		.loc 1 332 0
 1516              		.cfi_startproc
 1517              		@ args = 0, pretend = 0, frame = 0
 1518              		@ frame_needed = 0, uses_anonymous_args = 0
 1519              		@ link register save eliminated.
 1520              	.LVL108:
 1521              		.loc 1 335 0
 1522              		.loc 1 334 0
 1523 0000 FFF7FEBF 		b	chEvtAddEvents
 1524              	.LVL109:
 1525              		.cfi_endproc
 1526              	.LFE61:
 1527              		.size	_ZN10chibios_rt10BaseThread9addEventsEm, .-_ZN10chibios_rt10BaseThread9addEventsEm
 1528 0004 AFF30080 		.section	.text._ZN10chibios_rt10BaseThread12waitOneEventEm,"ax",%progbits
 1528      AFF30080 
 1528      AFF30080 
 1529              		.align	2
 1530              		.p2align 4,,15
 1531              		.global	_ZN10chibios_rt10BaseThread12waitOneEventEm
 1532              		.thumb
 1533              		.thumb_func
 1534              		.type	_ZN10chibios_rt10BaseThread12waitOneEventEm, %function
 1535              	_ZN10chibios_rt10BaseThread12waitOneEventEm:
 1536              	.LFB62:
 1537              		.loc 1 337 0
 1538              		.cfi_startproc
 1539              		@ args = 0, pretend = 0, frame = 0
 1540              		@ frame_needed = 0, uses_anonymous_args = 0
 1541              		@ link register save eliminated.
 1542              	.LVL110:
 1543              		.loc 1 340 0
 1544              		.loc 1 339 0
 1545 0000 FFF7FEBF 		b	chEvtWaitOne
 1546              	.LVL111:
 1547              		.cfi_endproc
 1548              	.LFE62:
 1549              		.size	_ZN10chibios_rt10BaseThread12waitOneEventEm, .-_ZN10chibios_rt10BaseThread12waitOneEventEm
 1550 0004 AFF30080 		.section	.text._ZN10chibios_rt10BaseThread12waitAnyEventEm,"ax",%progbits
ARM GAS  /tmp/ccq01laD.s 			page 29


 1550      AFF30080 
 1550      AFF30080 
 1551              		.align	2
 1552              		.p2align 4,,15
 1553              		.global	_ZN10chibios_rt10BaseThread12waitAnyEventEm
 1554              		.thumb
 1555              		.thumb_func
 1556              		.type	_ZN10chibios_rt10BaseThread12waitAnyEventEm, %function
 1557              	_ZN10chibios_rt10BaseThread12waitAnyEventEm:
 1558              	.LFB63:
 1559              		.loc 1 342 0
 1560              		.cfi_startproc
 1561              		@ args = 0, pretend = 0, frame = 0
 1562              		@ frame_needed = 0, uses_anonymous_args = 0
 1563              		@ link register save eliminated.
 1564              	.LVL112:
 1565              		.loc 1 345 0
 1566              		.loc 1 344 0
 1567 0000 FFF7FEBF 		b	chEvtWaitAny
 1568              	.LVL113:
 1569              		.cfi_endproc
 1570              	.LFE63:
 1571              		.size	_ZN10chibios_rt10BaseThread12waitAnyEventEm, .-_ZN10chibios_rt10BaseThread12waitAnyEventEm
 1572 0004 AFF30080 		.section	.text._ZN10chibios_rt10BaseThread13waitAllEventsEm,"ax",%progbits
 1572      AFF30080 
 1572      AFF30080 
 1573              		.align	2
 1574              		.p2align 4,,15
 1575              		.global	_ZN10chibios_rt10BaseThread13waitAllEventsEm
 1576              		.thumb
 1577              		.thumb_func
 1578              		.type	_ZN10chibios_rt10BaseThread13waitAllEventsEm, %function
 1579              	_ZN10chibios_rt10BaseThread13waitAllEventsEm:
 1580              	.LFB64:
 1581              		.loc 1 347 0
 1582              		.cfi_startproc
 1583              		@ args = 0, pretend = 0, frame = 0
 1584              		@ frame_needed = 0, uses_anonymous_args = 0
 1585              		@ link register save eliminated.
 1586              	.LVL114:
 1587              		.loc 1 350 0
 1588              		.loc 1 349 0
 1589 0000 FFF7FEBF 		b	chEvtWaitAll
 1590              	.LVL115:
 1591              		.cfi_endproc
 1592              	.LFE64:
 1593              		.size	_ZN10chibios_rt10BaseThread13waitAllEventsEm, .-_ZN10chibios_rt10BaseThread13waitAllEventsEm
 1594 0004 AFF30080 		.section	.text._ZN10chibios_rt10BaseThread19waitOneEventTimeoutEmm,"ax",%progbits
 1594      AFF30080 
 1594      AFF30080 
 1595              		.align	2
 1596              		.p2align 4,,15
 1597              		.global	_ZN10chibios_rt10BaseThread19waitOneEventTimeoutEmm
 1598              		.thumb
 1599              		.thumb_func
 1600              		.type	_ZN10chibios_rt10BaseThread19waitOneEventTimeoutEmm, %function
 1601              	_ZN10chibios_rt10BaseThread19waitOneEventTimeoutEmm:
ARM GAS  /tmp/ccq01laD.s 			page 30


 1602              	.LFB65:
 1603              		.loc 1 354 0
 1604              		.cfi_startproc
 1605              		@ args = 0, pretend = 0, frame = 0
 1606              		@ frame_needed = 0, uses_anonymous_args = 0
 1607              		@ link register save eliminated.
 1608              	.LVL116:
 1609              		.loc 1 357 0
 1610              		.loc 1 356 0
 1611 0000 FFF7FEBF 		b	chEvtWaitOneTimeout
 1612              	.LVL117:
 1613              	.LVL118:
 1614              		.cfi_endproc
 1615              	.LFE65:
 1616              		.size	_ZN10chibios_rt10BaseThread19waitOneEventTimeoutEmm, .-_ZN10chibios_rt10BaseThread19waitOneE
 1617 0004 AFF30080 		.section	.text._ZN10chibios_rt10BaseThread19waitAnyEventTimeoutEmm,"ax",%progbits
 1617      AFF30080 
 1617      AFF30080 
 1618              		.align	2
 1619              		.p2align 4,,15
 1620              		.global	_ZN10chibios_rt10BaseThread19waitAnyEventTimeoutEmm
 1621              		.thumb
 1622              		.thumb_func
 1623              		.type	_ZN10chibios_rt10BaseThread19waitAnyEventTimeoutEmm, %function
 1624              	_ZN10chibios_rt10BaseThread19waitAnyEventTimeoutEmm:
 1625              	.LFB66:
 1626              		.loc 1 360 0
 1627              		.cfi_startproc
 1628              		@ args = 0, pretend = 0, frame = 0
 1629              		@ frame_needed = 0, uses_anonymous_args = 0
 1630              		@ link register save eliminated.
 1631              	.LVL119:
 1632              		.loc 1 363 0
 1633              		.loc 1 362 0
 1634 0000 FFF7FEBF 		b	chEvtWaitAnyTimeout
 1635              	.LVL120:
 1636              	.LVL121:
 1637              		.cfi_endproc
 1638              	.LFE66:
 1639              		.size	_ZN10chibios_rt10BaseThread19waitAnyEventTimeoutEmm, .-_ZN10chibios_rt10BaseThread19waitAnyE
 1640 0004 AFF30080 		.section	.text._ZN10chibios_rt10BaseThread20waitAllEventsTimeoutEmm,"ax",%progbits
 1640      AFF30080 
 1640      AFF30080 
 1641              		.align	2
 1642              		.p2align 4,,15
 1643              		.global	_ZN10chibios_rt10BaseThread20waitAllEventsTimeoutEmm
 1644              		.thumb
 1645              		.thumb_func
 1646              		.type	_ZN10chibios_rt10BaseThread20waitAllEventsTimeoutEmm, %function
 1647              	_ZN10chibios_rt10BaseThread20waitAllEventsTimeoutEmm:
 1648              	.LFB67:
 1649              		.loc 1 366 0
 1650              		.cfi_startproc
 1651              		@ args = 0, pretend = 0, frame = 0
 1652              		@ frame_needed = 0, uses_anonymous_args = 0
 1653              		@ link register save eliminated.
 1654              	.LVL122:
ARM GAS  /tmp/ccq01laD.s 			page 31


 1655              		.loc 1 369 0
 1656              		.loc 1 368 0
 1657 0000 FFF7FEBF 		b	chEvtWaitAllTimeout
 1658              	.LVL123:
 1659              	.LVL124:
 1660              		.cfi_endproc
 1661              	.LFE67:
 1662              		.size	_ZN10chibios_rt10BaseThread20waitAllEventsTimeoutEmm, .-_ZN10chibios_rt10BaseThread20waitAll
 1663 0004 AFF30080 		.section	.text._ZN10chibios_rt10BaseThread14dispatchEventsEPKPFvlEm,"ax",%progbits
 1663      AFF30080 
 1663      AFF30080 
 1664              		.align	2
 1665              		.p2align 4,,15
 1666              		.global	_ZN10chibios_rt10BaseThread14dispatchEventsEPKPFvlEm
 1667              		.thumb
 1668              		.thumb_func
 1669              		.type	_ZN10chibios_rt10BaseThread14dispatchEventsEPKPFvlEm, %function
 1670              	_ZN10chibios_rt10BaseThread14dispatchEventsEPKPFvlEm:
 1671              	.LFB68:
 1672              		.loc 1 373 0
 1673              		.cfi_startproc
 1674              		@ args = 0, pretend = 0, frame = 0
 1675              		@ frame_needed = 0, uses_anonymous_args = 0
 1676              		@ link register save eliminated.
 1677              	.LVL125:
 1678              		.loc 1 376 0
 1679              		.loc 1 375 0
 1680 0000 FFF7FEBF 		b	chEvtDispatch
 1681              	.LVL126:
 1682              	.LVL127:
 1683              		.cfi_endproc
 1684              	.LFE68:
 1685              		.size	_ZN10chibios_rt10BaseThread14dispatchEventsEPKPFvlEm, .-_ZN10chibios_rt10BaseThread14dispatc
 1686 0004 AFF30080 		.section	.text._ZN10chibios_rt10BaseThread11unlockMutexEv,"ax",%progbits
 1686      AFF30080 
 1686      AFF30080 
 1687              		.align	2
 1688              		.p2align 4,,15
 1689              		.global	_ZN10chibios_rt10BaseThread11unlockMutexEv
 1690              		.thumb
 1691              		.thumb_func
 1692              		.type	_ZN10chibios_rt10BaseThread11unlockMutexEv, %function
 1693              	_ZN10chibios_rt10BaseThread11unlockMutexEv:
 1694              	.LFB69:
 1695              		.loc 1 380 0
 1696              		.cfi_startproc
 1697              		@ args = 0, pretend = 0, frame = 0
 1698              		@ frame_needed = 0, uses_anonymous_args = 0
 1699              		@ link register save eliminated.
 1700              		.loc 1 383 0
 1701              		.loc 1 382 0
 1702 0000 FFF7FEBF 		b	chMtxUnlock
 1703              		.cfi_endproc
 1704              	.LFE69:
 1705              		.size	_ZN10chibios_rt10BaseThread11unlockMutexEv, .-_ZN10chibios_rt10BaseThread11unlockMutexEv
 1706 0004 AFF30080 		.section	.text._ZN10chibios_rt10BaseThread12unlockMutexSEv,"ax",%progbits
 1706      AFF30080 
ARM GAS  /tmp/ccq01laD.s 			page 32


 1706      AFF30080 
 1707              		.align	2
 1708              		.p2align 4,,15
 1709              		.global	_ZN10chibios_rt10BaseThread12unlockMutexSEv
 1710              		.thumb
 1711              		.thumb_func
 1712              		.type	_ZN10chibios_rt10BaseThread12unlockMutexSEv, %function
 1713              	_ZN10chibios_rt10BaseThread12unlockMutexSEv:
 1714              	.LFB70:
 1715              		.loc 1 385 0
 1716              		.cfi_startproc
 1717              		@ args = 0, pretend = 0, frame = 0
 1718              		@ frame_needed = 0, uses_anonymous_args = 0
 1719              		@ link register save eliminated.
 1720              		.loc 1 388 0
 1721              		.loc 1 387 0
 1722 0000 FFF7FEBF 		b	chMtxUnlockS
 1723              		.cfi_endproc
 1724              	.LFE70:
 1725              		.size	_ZN10chibios_rt10BaseThread12unlockMutexSEv, .-_ZN10chibios_rt10BaseThread12unlockMutexSEv
 1726 0004 AFF30080 		.section	.text._ZN10chibios_rt10BaseThread16unlockAllMutexesEv,"ax",%progbits
 1726      AFF30080 
 1726      AFF30080 
 1727              		.align	2
 1728              		.p2align 4,,15
 1729              		.global	_ZN10chibios_rt10BaseThread16unlockAllMutexesEv
 1730              		.thumb
 1731              		.thumb_func
 1732              		.type	_ZN10chibios_rt10BaseThread16unlockAllMutexesEv, %function
 1733              	_ZN10chibios_rt10BaseThread16unlockAllMutexesEv:
 1734              	.LFB71:
 1735              		.loc 1 390 0
 1736              		.cfi_startproc
 1737              		@ args = 0, pretend = 0, frame = 0
 1738              		@ frame_needed = 0, uses_anonymous_args = 0
 1739              		@ link register save eliminated.
 1740              		.loc 1 393 0
 1741              		.loc 1 392 0
 1742 0000 FFF7FEBF 		b	chMtxUnlockAll
 1743              		.cfi_endproc
 1744              	.LFE71:
 1745              		.size	_ZN10chibios_rt10BaseThread16unlockAllMutexesEv, .-_ZN10chibios_rt10BaseThread16unlockAllMut
 1746 0004 AFF30080 		.section	.text._ZN10chibios_rt16CounterSemaphoreC2El,"ax",%progbits
 1746      AFF30080 
 1746      AFF30080 
 1747              		.align	2
 1748              		.p2align 4,,15
 1749              		.global	_ZN10chibios_rt16CounterSemaphoreC2El
 1750              		.thumb
 1751              		.thumb_func
 1752              		.type	_ZN10chibios_rt16CounterSemaphoreC2El, %function
 1753              	_ZN10chibios_rt16CounterSemaphoreC2El:
 1754              	.LFB73:
 1755              		.loc 1 400 0
 1756              		.cfi_startproc
 1757              		@ args = 0, pretend = 0, frame = 0
 1758              		@ frame_needed = 0, uses_anonymous_args = 0
ARM GAS  /tmp/ccq01laD.s 			page 33


 1759              	.LVL128:
 1760 0000 10B5     		push	{r4, lr}
 1761              	.LCFI21:
 1762              		.cfi_def_cfa_offset 8
 1763              		.cfi_offset 14, -4
 1764              		.cfi_offset 4, -8
 1765              		.loc 1 400 0
 1766 0002 0446     		mov	r4, r0
 1767              	.LBB62:
 1768              		.loc 1 402 0
 1769 0004 FFF7FEFF 		bl	chSemInit
 1770              	.LVL129:
 1771              	.LBE62:
 1772              		.loc 1 403 0
 1773 0008 2046     		mov	r0, r4
 1774 000a 10BD     		pop	{r4, pc}
 1775              		.cfi_endproc
 1776              	.LFE73:
 1777              		.size	_ZN10chibios_rt16CounterSemaphoreC2El, .-_ZN10chibios_rt16CounterSemaphoreC2El
 1778 000c AFF30080 		.section	.text._ZN10chibios_rt16CounterSemaphore5resetEl,"ax",%progbits
 1779              		.align	2
 1780              		.p2align 4,,15
 1781              		.global	_ZN10chibios_rt16CounterSemaphore5resetEl
 1782              		.thumb
 1783              		.thumb_func
 1784              		.type	_ZN10chibios_rt16CounterSemaphore5resetEl, %function
 1785              	_ZN10chibios_rt16CounterSemaphore5resetEl:
 1786              	.LFB75:
 1787              		.loc 1 405 0
 1788              		.cfi_startproc
 1789              		@ args = 0, pretend = 0, frame = 0
 1790              		@ frame_needed = 0, uses_anonymous_args = 0
 1791              		@ link register save eliminated.
 1792              	.LVL130:
 1793              		.loc 1 408 0
 1794              		.loc 1 407 0
 1795 0000 FFF7FEBF 		b	chSemReset
 1796              	.LVL131:
 1797              	.LVL132:
 1798              		.cfi_endproc
 1799              	.LFE75:
 1800              		.size	_ZN10chibios_rt16CounterSemaphore5resetEl, .-_ZN10chibios_rt16CounterSemaphore5resetEl
 1801 0004 AFF30080 		.section	.text._ZN10chibios_rt16CounterSemaphore6resetIEl,"ax",%progbits
 1801      AFF30080 
 1801      AFF30080 
 1802              		.align	2
 1803              		.p2align 4,,15
 1804              		.global	_ZN10chibios_rt16CounterSemaphore6resetIEl
 1805              		.thumb
 1806              		.thumb_func
 1807              		.type	_ZN10chibios_rt16CounterSemaphore6resetIEl, %function
 1808              	_ZN10chibios_rt16CounterSemaphore6resetIEl:
 1809              	.LFB76:
 1810              		.loc 1 410 0
 1811              		.cfi_startproc
 1812              		@ args = 0, pretend = 0, frame = 0
 1813              		@ frame_needed = 0, uses_anonymous_args = 0
ARM GAS  /tmp/ccq01laD.s 			page 34


 1814              		@ link register save eliminated.
 1815              	.LVL133:
 1816              		.loc 1 413 0
 1817              		.loc 1 412 0
 1818 0000 FFF7FEBF 		b	chSemResetI
 1819              	.LVL134:
 1820              	.LVL135:
 1821              		.cfi_endproc
 1822              	.LFE76:
 1823              		.size	_ZN10chibios_rt16CounterSemaphore6resetIEl, .-_ZN10chibios_rt16CounterSemaphore6resetIEl
 1824 0004 AFF30080 		.section	.text._ZN10chibios_rt16CounterSemaphore4waitEv,"ax",%progbits
 1824      AFF30080 
 1824      AFF30080 
 1825              		.align	2
 1826              		.p2align 4,,15
 1827              		.global	_ZN10chibios_rt16CounterSemaphore4waitEv
 1828              		.thumb
 1829              		.thumb_func
 1830              		.type	_ZN10chibios_rt16CounterSemaphore4waitEv, %function
 1831              	_ZN10chibios_rt16CounterSemaphore4waitEv:
 1832              	.LFB77:
 1833              		.loc 1 415 0
 1834              		.cfi_startproc
 1835              		@ args = 0, pretend = 0, frame = 0
 1836              		@ frame_needed = 0, uses_anonymous_args = 0
 1837              		@ link register save eliminated.
 1838              	.LVL136:
 1839              		.loc 1 418 0
 1840              		.loc 1 417 0
 1841 0000 FFF7FEBF 		b	chSemWait
 1842              	.LVL137:
 1843              		.cfi_endproc
 1844              	.LFE77:
 1845              		.size	_ZN10chibios_rt16CounterSemaphore4waitEv, .-_ZN10chibios_rt16CounterSemaphore4waitEv
 1846 0004 AFF30080 		.section	.text._ZN10chibios_rt16CounterSemaphore5waitSEv,"ax",%progbits
 1846      AFF30080 
 1846      AFF30080 
 1847              		.align	2
 1848              		.p2align 4,,15
 1849              		.global	_ZN10chibios_rt16CounterSemaphore5waitSEv
 1850              		.thumb
 1851              		.thumb_func
 1852              		.type	_ZN10chibios_rt16CounterSemaphore5waitSEv, %function
 1853              	_ZN10chibios_rt16CounterSemaphore5waitSEv:
 1854              	.LFB78:
 1855              		.loc 1 420 0
 1856              		.cfi_startproc
 1857              		@ args = 0, pretend = 0, frame = 0
 1858              		@ frame_needed = 0, uses_anonymous_args = 0
 1859              		@ link register save eliminated.
 1860              	.LVL138:
 1861              		.loc 1 423 0
 1862              		.loc 1 422 0
 1863 0000 FFF7FEBF 		b	chSemWaitS
 1864              	.LVL139:
 1865              		.cfi_endproc
 1866              	.LFE78:
ARM GAS  /tmp/ccq01laD.s 			page 35


 1867              		.size	_ZN10chibios_rt16CounterSemaphore5waitSEv, .-_ZN10chibios_rt16CounterSemaphore5waitSEv
 1868 0004 AFF30080 		.section	.text._ZN10chibios_rt16CounterSemaphore11waitTimeoutEm,"ax",%progbits
 1868      AFF30080 
 1868      AFF30080 
 1869              		.align	2
 1870              		.p2align 4,,15
 1871              		.global	_ZN10chibios_rt16CounterSemaphore11waitTimeoutEm
 1872              		.thumb
 1873              		.thumb_func
 1874              		.type	_ZN10chibios_rt16CounterSemaphore11waitTimeoutEm, %function
 1875              	_ZN10chibios_rt16CounterSemaphore11waitTimeoutEm:
 1876              	.LFB79:
 1877              		.loc 1 425 0
 1878              		.cfi_startproc
 1879              		@ args = 0, pretend = 0, frame = 0
 1880              		@ frame_needed = 0, uses_anonymous_args = 0
 1881              		@ link register save eliminated.
 1882              	.LVL140:
 1883              		.loc 1 428 0
 1884              		.loc 1 427 0
 1885 0000 FFF7FEBF 		b	chSemWaitTimeout
 1886              	.LVL141:
 1887              	.LVL142:
 1888              		.cfi_endproc
 1889              	.LFE79:
 1890              		.size	_ZN10chibios_rt16CounterSemaphore11waitTimeoutEm, .-_ZN10chibios_rt16CounterSemaphore11waitT
 1891 0004 AFF30080 		.section	.text._ZN10chibios_rt16CounterSemaphore12waitTimeoutSEm,"ax",%progbits
 1891      AFF30080 
 1891      AFF30080 
 1892              		.align	2
 1893              		.p2align 4,,15
 1894              		.global	_ZN10chibios_rt16CounterSemaphore12waitTimeoutSEm
 1895              		.thumb
 1896              		.thumb_func
 1897              		.type	_ZN10chibios_rt16CounterSemaphore12waitTimeoutSEm, %function
 1898              	_ZN10chibios_rt16CounterSemaphore12waitTimeoutSEm:
 1899              	.LFB80:
 1900              		.loc 1 430 0
 1901              		.cfi_startproc
 1902              		@ args = 0, pretend = 0, frame = 0
 1903              		@ frame_needed = 0, uses_anonymous_args = 0
 1904              		@ link register save eliminated.
 1905              	.LVL143:
 1906              		.loc 1 433 0
 1907              		.loc 1 432 0
 1908 0000 FFF7FEBF 		b	chSemWaitTimeoutS
 1909              	.LVL144:
 1910              	.LVL145:
 1911              		.cfi_endproc
 1912              	.LFE80:
 1913              		.size	_ZN10chibios_rt16CounterSemaphore12waitTimeoutSEm, .-_ZN10chibios_rt16CounterSemaphore12wait
 1914 0004 AFF30080 		.section	.text._ZN10chibios_rt16CounterSemaphore6signalEv,"ax",%progbits
 1914      AFF30080 
 1914      AFF30080 
 1915              		.align	2
 1916              		.p2align 4,,15
 1917              		.global	_ZN10chibios_rt16CounterSemaphore6signalEv
ARM GAS  /tmp/ccq01laD.s 			page 36


 1918              		.thumb
 1919              		.thumb_func
 1920              		.type	_ZN10chibios_rt16CounterSemaphore6signalEv, %function
 1921              	_ZN10chibios_rt16CounterSemaphore6signalEv:
 1922              	.LFB81:
 1923              		.loc 1 435 0
 1924              		.cfi_startproc
 1925              		@ args = 0, pretend = 0, frame = 0
 1926              		@ frame_needed = 0, uses_anonymous_args = 0
 1927              		@ link register save eliminated.
 1928              	.LVL146:
 1929              		.loc 1 438 0
 1930              		.loc 1 437 0
 1931 0000 FFF7FEBF 		b	chSemSignal
 1932              	.LVL147:
 1933              		.cfi_endproc
 1934              	.LFE81:
 1935              		.size	_ZN10chibios_rt16CounterSemaphore6signalEv, .-_ZN10chibios_rt16CounterSemaphore6signalEv
 1936 0004 AFF30080 		.section	.text._ZN10chibios_rt16CounterSemaphore7signalIEv,"ax",%progbits
 1936      AFF30080 
 1936      AFF30080 
 1937              		.align	2
 1938              		.p2align 4,,15
 1939              		.global	_ZN10chibios_rt16CounterSemaphore7signalIEv
 1940              		.thumb
 1941              		.thumb_func
 1942              		.type	_ZN10chibios_rt16CounterSemaphore7signalIEv, %function
 1943              	_ZN10chibios_rt16CounterSemaphore7signalIEv:
 1944              	.LFB82:
 1945              		.loc 1 440 0
 1946              		.cfi_startproc
 1947              		@ args = 0, pretend = 0, frame = 0
 1948              		@ frame_needed = 0, uses_anonymous_args = 0
 1949              		@ link register save eliminated.
 1950              	.LVL148:
 1951              		.loc 1 443 0
 1952              		.loc 1 442 0
 1953 0000 FFF7FEBF 		b	chSemSignalI
 1954              	.LVL149:
 1955              		.cfi_endproc
 1956              	.LFE82:
 1957              		.size	_ZN10chibios_rt16CounterSemaphore7signalIEv, .-_ZN10chibios_rt16CounterSemaphore7signalIEv
 1958 0004 AFF30080 		.section	.text._ZN10chibios_rt16CounterSemaphore11addCounterIEl,"ax",%progbits
 1958      AFF30080 
 1958      AFF30080 
 1959              		.align	2
 1960              		.p2align 4,,15
 1961              		.global	_ZN10chibios_rt16CounterSemaphore11addCounterIEl
 1962              		.thumb
 1963              		.thumb_func
 1964              		.type	_ZN10chibios_rt16CounterSemaphore11addCounterIEl, %function
 1965              	_ZN10chibios_rt16CounterSemaphore11addCounterIEl:
 1966              	.LFB83:
 1967              		.loc 1 445 0
 1968              		.cfi_startproc
 1969              		@ args = 0, pretend = 0, frame = 0
 1970              		@ frame_needed = 0, uses_anonymous_args = 0
ARM GAS  /tmp/ccq01laD.s 			page 37


 1971              		@ link register save eliminated.
 1972              	.LVL150:
 1973              		.loc 1 448 0
 1974              		.loc 1 447 0
 1975 0000 FFF7FEBF 		b	chSemAddCounterI
 1976              	.LVL151:
 1977              	.LVL152:
 1978              		.cfi_endproc
 1979              	.LFE83:
 1980              		.size	_ZN10chibios_rt16CounterSemaphore11addCounterIEl, .-_ZN10chibios_rt16CounterSemaphore11addCo
 1981 0004 AFF30080 		.section	.text._ZN10chibios_rt16CounterSemaphore11getCounterIEv,"ax",%progbits
 1981      AFF30080 
 1981      AFF30080 
 1982              		.align	2
 1983              		.p2align 4,,15
 1984              		.global	_ZN10chibios_rt16CounterSemaphore11getCounterIEv
 1985              		.thumb
 1986              		.thumb_func
 1987              		.type	_ZN10chibios_rt16CounterSemaphore11getCounterIEv, %function
 1988              	_ZN10chibios_rt16CounterSemaphore11getCounterIEv:
 1989              	.LFB84:
 1990              		.loc 1 450 0
 1991              		.cfi_startproc
 1992              		@ args = 0, pretend = 0, frame = 0
 1993              		@ frame_needed = 0, uses_anonymous_args = 0
 1994              		@ link register save eliminated.
 1995              	.LVL153:
 1996              		.loc 1 452 0
 1997 0000 8068     		ldr	r0, [r0, #8]
 1998              	.LVL154:
 1999              		.loc 1 453 0
 2000 0002 7047     		bx	lr
 2001              		.cfi_endproc
 2002              	.LFE84:
 2003              		.size	_ZN10chibios_rt16CounterSemaphore11getCounterIEv, .-_ZN10chibios_rt16CounterSemaphore11getCo
 2004 0004 AFF30080 		.section	.text._ZN10chibios_rt16CounterSemaphore10signalWaitEPS0_S1_,"ax",%progbits
 2004      AFF30080 
 2004      AFF30080 
 2005              		.align	2
 2006              		.p2align 4,,15
 2007              		.global	_ZN10chibios_rt16CounterSemaphore10signalWaitEPS0_S1_
 2008              		.thumb
 2009              		.thumb_func
 2010              		.type	_ZN10chibios_rt16CounterSemaphore10signalWaitEPS0_S1_, %function
 2011              	_ZN10chibios_rt16CounterSemaphore10signalWaitEPS0_S1_:
 2012              	.LFB85:
 2013              		.loc 1 457 0
 2014              		.cfi_startproc
 2015              		@ args = 0, pretend = 0, frame = 0
 2016              		@ frame_needed = 0, uses_anonymous_args = 0
 2017              		@ link register save eliminated.
 2018              	.LVL155:
 2019              		.loc 1 460 0
 2020              		.loc 1 459 0
 2021 0000 FFF7FEBF 		b	chSemSignalWait
 2022              	.LVL156:
 2023              	.LVL157:
ARM GAS  /tmp/ccq01laD.s 			page 38


 2024              		.cfi_endproc
 2025              	.LFE85:
 2026              		.size	_ZN10chibios_rt16CounterSemaphore10signalWaitEPS0_S1_, .-_ZN10chibios_rt16CounterSemaphore10
 2027 0004 AFF30080 		.section	.text._ZN10chibios_rt15BinarySemaphoreC2Eb,"ax",%progbits
 2027      AFF30080 
 2027      AFF30080 
 2028              		.align	2
 2029              		.p2align 4,,15
 2030              		.global	_ZN10chibios_rt15BinarySemaphoreC2Eb
 2031              		.thumb
 2032              		.thumb_func
 2033              		.type	_ZN10chibios_rt15BinarySemaphoreC2Eb, %function
 2034              	_ZN10chibios_rt15BinarySemaphoreC2Eb:
 2035              	.LFB87:
 2036              		.loc 1 466 0
 2037              		.cfi_startproc
 2038              		@ args = 0, pretend = 0, frame = 0
 2039              		@ frame_needed = 0, uses_anonymous_args = 0
 2040              	.LVL158:
 2041 0000 10B5     		push	{r4, lr}
 2042              	.LCFI22:
 2043              		.cfi_def_cfa_offset 8
 2044              		.cfi_offset 14, -4
 2045              		.cfi_offset 4, -8
 2046              	.LBB63:
 2047              		.loc 1 468 0
 2048 0002 81F00101 		eor	r1, r1, #1
 2049              	.LVL159:
 2050              	.LBE63:
 2051              		.loc 1 466 0
 2052 0006 0446     		mov	r4, r0
 2053              	.LBB64:
 2054              		.loc 1 468 0
 2055 0008 FFF7FEFF 		bl	chSemInit
 2056              	.LVL160:
 2057              	.LBE64:
 2058              		.loc 1 469 0
 2059 000c 2046     		mov	r0, r4
 2060 000e 10BD     		pop	{r4, pc}
 2061              		.cfi_endproc
 2062              	.LFE87:
 2063              		.size	_ZN10chibios_rt15BinarySemaphoreC2Eb, .-_ZN10chibios_rt15BinarySemaphoreC2Eb
 2064              		.section	.text._ZN10chibios_rt15BinarySemaphore4waitEv,"ax",%progbits
 2065              		.align	2
 2066              		.p2align 4,,15
 2067              		.global	_ZN10chibios_rt15BinarySemaphore4waitEv
 2068              		.thumb
 2069              		.thumb_func
 2070              		.type	_ZN10chibios_rt15BinarySemaphore4waitEv, %function
 2071              	_ZN10chibios_rt15BinarySemaphore4waitEv:
 2072              	.LFB89:
 2073              		.loc 1 471 0
 2074              		.cfi_startproc
 2075              		@ args = 0, pretend = 0, frame = 0
 2076              		@ frame_needed = 0, uses_anonymous_args = 0
 2077              		@ link register save eliminated.
 2078              	.LVL161:
ARM GAS  /tmp/ccq01laD.s 			page 39


 2079              		.loc 1 474 0
 2080              		.loc 1 473 0
 2081 0000 FFF7FEBF 		b	chSemWait
 2082              	.LVL162:
 2083              		.cfi_endproc
 2084              	.LFE89:
 2085              		.size	_ZN10chibios_rt15BinarySemaphore4waitEv, .-_ZN10chibios_rt15BinarySemaphore4waitEv
 2086 0004 AFF30080 		.section	.text._ZN10chibios_rt15BinarySemaphore5waitSEv,"ax",%progbits
 2086      AFF30080 
 2086      AFF30080 
 2087              		.align	2
 2088              		.p2align 4,,15
 2089              		.global	_ZN10chibios_rt15BinarySemaphore5waitSEv
 2090              		.thumb
 2091              		.thumb_func
 2092              		.type	_ZN10chibios_rt15BinarySemaphore5waitSEv, %function
 2093              	_ZN10chibios_rt15BinarySemaphore5waitSEv:
 2094              	.LFB90:
 2095              		.loc 1 476 0
 2096              		.cfi_startproc
 2097              		@ args = 0, pretend = 0, frame = 0
 2098              		@ frame_needed = 0, uses_anonymous_args = 0
 2099              		@ link register save eliminated.
 2100              	.LVL163:
 2101              		.loc 1 479 0
 2102              		.loc 1 478 0
 2103 0000 FFF7FEBF 		b	chSemWaitS
 2104              	.LVL164:
 2105              		.cfi_endproc
 2106              	.LFE90:
 2107              		.size	_ZN10chibios_rt15BinarySemaphore5waitSEv, .-_ZN10chibios_rt15BinarySemaphore5waitSEv
 2108 0004 AFF30080 		.section	.text._ZN10chibios_rt15BinarySemaphore11waitTimeoutEm,"ax",%progbits
 2108      AFF30080 
 2108      AFF30080 
 2109              		.align	2
 2110              		.p2align 4,,15
 2111              		.global	_ZN10chibios_rt15BinarySemaphore11waitTimeoutEm
 2112              		.thumb
 2113              		.thumb_func
 2114              		.type	_ZN10chibios_rt15BinarySemaphore11waitTimeoutEm, %function
 2115              	_ZN10chibios_rt15BinarySemaphore11waitTimeoutEm:
 2116              	.LFB91:
 2117              		.loc 1 481 0
 2118              		.cfi_startproc
 2119              		@ args = 0, pretend = 0, frame = 0
 2120              		@ frame_needed = 0, uses_anonymous_args = 0
 2121              		@ link register save eliminated.
 2122              	.LVL165:
 2123              		.loc 1 484 0
 2124              		.loc 1 483 0
 2125 0000 FFF7FEBF 		b	chSemWaitTimeout
 2126              	.LVL166:
 2127              	.LVL167:
 2128              		.cfi_endproc
 2129              	.LFE91:
 2130              		.size	_ZN10chibios_rt15BinarySemaphore11waitTimeoutEm, .-_ZN10chibios_rt15BinarySemaphore11waitTim
 2131 0004 AFF30080 		.section	.text._ZN10chibios_rt15BinarySemaphore12waitTimeoutSEm,"ax",%progbits
ARM GAS  /tmp/ccq01laD.s 			page 40


 2131      AFF30080 
 2131      AFF30080 
 2132              		.align	2
 2133              		.p2align 4,,15
 2134              		.global	_ZN10chibios_rt15BinarySemaphore12waitTimeoutSEm
 2135              		.thumb
 2136              		.thumb_func
 2137              		.type	_ZN10chibios_rt15BinarySemaphore12waitTimeoutSEm, %function
 2138              	_ZN10chibios_rt15BinarySemaphore12waitTimeoutSEm:
 2139              	.LFB92:
 2140              		.loc 1 486 0
 2141              		.cfi_startproc
 2142              		@ args = 0, pretend = 0, frame = 0
 2143              		@ frame_needed = 0, uses_anonymous_args = 0
 2144              		@ link register save eliminated.
 2145              	.LVL168:
 2146              		.loc 1 489 0
 2147              		.loc 1 488 0
 2148 0000 FFF7FEBF 		b	chSemWaitTimeoutS
 2149              	.LVL169:
 2150              	.LVL170:
 2151              		.cfi_endproc
 2152              	.LFE92:
 2153              		.size	_ZN10chibios_rt15BinarySemaphore12waitTimeoutSEm, .-_ZN10chibios_rt15BinarySemaphore12waitTi
 2154 0004 AFF30080 		.section	.text._ZN10chibios_rt15BinarySemaphore5resetEb,"ax",%progbits
 2154      AFF30080 
 2154      AFF30080 
 2155              		.align	2
 2156              		.p2align 4,,15
 2157              		.global	_ZN10chibios_rt15BinarySemaphore5resetEb
 2158              		.thumb
 2159              		.thumb_func
 2160              		.type	_ZN10chibios_rt15BinarySemaphore5resetEb, %function
 2161              	_ZN10chibios_rt15BinarySemaphore5resetEb:
 2162              	.LFB93:
 2163              		.loc 1 491 0
 2164              		.cfi_startproc
 2165              		@ args = 0, pretend = 0, frame = 0
 2166              		@ frame_needed = 0, uses_anonymous_args = 0
 2167              		@ link register save eliminated.
 2168              	.LVL171:
 2169              		.loc 1 493 0
 2170 0000 81F00101 		eor	r1, r1, #1
 2171              	.LVL172:
 2172              		.loc 1 494 0
 2173              		.loc 1 493 0
 2174 0004 FFF7FEBF 		b	chSemReset
 2175              	.LVL173:
 2176              		.cfi_endproc
 2177              	.LFE93:
 2178              		.size	_ZN10chibios_rt15BinarySemaphore5resetEb, .-_ZN10chibios_rt15BinarySemaphore5resetEb
 2179 0008 AFF30080 		.section	.text._ZN10chibios_rt15BinarySemaphore6resetIEb,"ax",%progbits
 2179      AFF30080 
 2180              		.align	2
 2181              		.p2align 4,,15
 2182              		.global	_ZN10chibios_rt15BinarySemaphore6resetIEb
 2183              		.thumb
ARM GAS  /tmp/ccq01laD.s 			page 41


 2184              		.thumb_func
 2185              		.type	_ZN10chibios_rt15BinarySemaphore6resetIEb, %function
 2186              	_ZN10chibios_rt15BinarySemaphore6resetIEb:
 2187              	.LFB94:
 2188              		.loc 1 496 0
 2189              		.cfi_startproc
 2190              		@ args = 0, pretend = 0, frame = 0
 2191              		@ frame_needed = 0, uses_anonymous_args = 0
 2192              		@ link register save eliminated.
 2193              	.LVL174:
 2194              		.loc 1 498 0
 2195 0000 81F00101 		eor	r1, r1, #1
 2196              	.LVL175:
 2197              		.loc 1 499 0
 2198              		.loc 1 498 0
 2199 0004 FFF7FEBF 		b	chSemResetI
 2200              	.LVL176:
 2201              		.cfi_endproc
 2202              	.LFE94:
 2203              		.size	_ZN10chibios_rt15BinarySemaphore6resetIEb, .-_ZN10chibios_rt15BinarySemaphore6resetIEb
 2204 0008 AFF30080 		.section	.text._ZN10chibios_rt15BinarySemaphore6signalEv,"ax",%progbits
 2204      AFF30080 
 2205              		.align	2
 2206              		.p2align 4,,15
 2207              		.global	_ZN10chibios_rt15BinarySemaphore6signalEv
 2208              		.thumb
 2209              		.thumb_func
 2210              		.type	_ZN10chibios_rt15BinarySemaphore6signalEv, %function
 2211              	_ZN10chibios_rt15BinarySemaphore6signalEv:
 2212              	.LFB95:
 2213              		.loc 1 501 0
 2214              		.cfi_startproc
 2215              		@ args = 0, pretend = 0, frame = 0
 2216              		@ frame_needed = 0, uses_anonymous_args = 0
 2217              	.LVL177:
 2218 0000 10B5     		push	{r4, lr}
 2219              	.LCFI23:
 2220              		.cfi_def_cfa_offset 8
 2221              		.cfi_offset 14, -4
 2222              		.cfi_offset 4, -8
 2223              	.LBB65:
 2224              	.LBB66:
 2225              	.LBB67:
 2226              		.loc 1 503 0
 2227 0002 2023     		movs	r3, #32
 2228              	.LVL178:
 2229              	.LBE67:
 2230              	.LBE66:
 2231              	.LBE65:
 2232              		.loc 1 501 0
 2233 0004 0446     		mov	r4, r0
 2234              	.LBB74:
 2235              	.LBB69:
 2236              	.LBB68:
 2237              		.loc 1 503 0
 2238              	@ 503 "../../ChibiOS/os/various/cpp_wrappers/ch.cpp" 1
 2239 0006 83F31188 		msr     BASEPRI, r3
ARM GAS  /tmp/ccq01laD.s 			page 42


 2240              	@ 0 "" 2
 2241              	.LVL179:
 2242              		.thumb
 2243              	.LBE68:
 2244 000a FFF7FEFF 		bl	dbg_check_lock
 2245              	.LVL180:
 2246              	.LBE69:
 2247 000e A368     		ldr	r3, [r4, #8]
 2248 0010 002B     		cmp	r3, #0
 2249 0012 07DD     		ble	.L136
 2250              		.loc 1 503 0 is_stmt 0 discriminator 2
 2251 0014 FFF7FEFF 		bl	chSchRescheduleS
 2252              	.LBB70:
 2253 0018 FFF7FEFF 		bl	dbg_check_unlock
 2254              	.LBB71:
 2255 001c 0023     		movs	r3, #0
 2256              	.LVL181:
 2257              	@ 503 "../../ChibiOS/os/various/cpp_wrappers/ch.cpp" 1
 2258 001e 83F31188 		msr     BASEPRI, r3
 2259              	@ 0 "" 2
 2260              	.LVL182:
 2261              		.thumb
 2262              	.LBE71:
 2263              	.LBE70:
 2264              	.LBE74:
 2265              		.loc 1 504 0 is_stmt 1 discriminator 2
 2266 0022 10BD     		pop	{r4, pc}
 2267              	.LVL183:
 2268              	.L136:
 2269              	.LBB75:
 2270              		.loc 1 503 0 discriminator 1
 2271 0024 2046     		mov	r0, r4
 2272 0026 FFF7FEFF 		bl	chSemSignalI
 2273 002a FFF7FEFF 		bl	chSchRescheduleS
 2274              	.LBB73:
 2275 002e FFF7FEFF 		bl	dbg_check_unlock
 2276              	.LBB72:
 2277 0032 0023     		movs	r3, #0
 2278              	@ 503 "../../ChibiOS/os/various/cpp_wrappers/ch.cpp" 1
 2279 0034 83F31188 		msr     BASEPRI, r3
 2280              	@ 0 "" 2
 2281              	.LVL184:
 2282              		.thumb
 2283              	.LBE72:
 2284              	.LBE73:
 2285              	.LBE75:
 2286              		.loc 1 504 0 discriminator 1
 2287 0038 10BD     		pop	{r4, pc}
 2288              		.cfi_endproc
 2289              	.LFE95:
 2290              		.size	_ZN10chibios_rt15BinarySemaphore6signalEv, .-_ZN10chibios_rt15BinarySemaphore6signalEv
 2291 003a 00BFAFF3 		.section	.text._ZN10chibios_rt15BinarySemaphore7signalIEv,"ax",%progbits
 2291      0080
 2292              		.align	2
 2293              		.p2align 4,,15
 2294              		.global	_ZN10chibios_rt15BinarySemaphore7signalIEv
 2295              		.thumb
ARM GAS  /tmp/ccq01laD.s 			page 43


 2296              		.thumb_func
 2297              		.type	_ZN10chibios_rt15BinarySemaphore7signalIEv, %function
 2298              	_ZN10chibios_rt15BinarySemaphore7signalIEv:
 2299              	.LFB96:
 2300              		.loc 1 506 0
 2301              		.cfi_startproc
 2302              		@ args = 0, pretend = 0, frame = 0
 2303              		@ frame_needed = 0, uses_anonymous_args = 0
 2304              		@ link register save eliminated.
 2305              	.LVL185:
 2306              		.loc 1 508 0
 2307 0000 8368     		ldr	r3, [r0, #8]
 2308 0002 002B     		cmp	r3, #0
 2309 0004 00DD     		ble	.L139
 2310 0006 7047     		bx	lr
 2311              	.L139:
 2312              		.loc 1 509 0 discriminator 1
 2313              		.loc 1 508 0 discriminator 1
 2314 0008 FFF7FEBF 		b	chSemSignalI
 2315              	.LVL186:
 2316              		.cfi_endproc
 2317              	.LFE96:
 2318              		.size	_ZN10chibios_rt15BinarySemaphore7signalIEv, .-_ZN10chibios_rt15BinarySemaphore7signalIEv
 2319 000c AFF30080 		.section	.text._ZN10chibios_rt15BinarySemaphore9getStateIEv,"ax",%progbits
 2320              		.align	2
 2321              		.p2align 4,,15
 2322              		.global	_ZN10chibios_rt15BinarySemaphore9getStateIEv
 2323              		.thumb
 2324              		.thumb_func
 2325              		.type	_ZN10chibios_rt15BinarySemaphore9getStateIEv, %function
 2326              	_ZN10chibios_rt15BinarySemaphore9getStateIEv:
 2327              	.LFB97:
 2328              		.loc 1 511 0
 2329              		.cfi_startproc
 2330              		@ args = 0, pretend = 0, frame = 0
 2331              		@ frame_needed = 0, uses_anonymous_args = 0
 2332              		@ link register save eliminated.
 2333              	.LVL187:
 2334              		.loc 1 513 0
 2335 0000 8068     		ldr	r0, [r0, #8]
 2336              	.LVL188:
 2337 0002 0028     		cmp	r0, #0
 2338 0004 CCBF     		ite	gt
 2339 0006 0020     		movgt	r0, #0
 2340 0008 0120     		movle	r0, #1
 2341              		.loc 1 514 0
 2342 000a 7047     		bx	lr
 2343              		.cfi_endproc
 2344              	.LFE97:
 2345              		.size	_ZN10chibios_rt15BinarySemaphore9getStateIEv, .-_ZN10chibios_rt15BinarySemaphore9getStateIEv
 2346 000c AFF30080 		.section	.text._ZN10chibios_rt5MutexC2Ev,"ax",%progbits
 2347              		.align	2
 2348              		.p2align 4,,15
 2349              		.global	_ZN10chibios_rt5MutexC2Ev
 2350              		.thumb
 2351              		.thumb_func
 2352              		.type	_ZN10chibios_rt5MutexC2Ev, %function
ARM GAS  /tmp/ccq01laD.s 			page 44


 2353              	_ZN10chibios_rt5MutexC2Ev:
 2354              	.LFB99:
 2355              		.loc 1 521 0
 2356              		.cfi_startproc
 2357              		@ args = 0, pretend = 0, frame = 0
 2358              		@ frame_needed = 0, uses_anonymous_args = 0
 2359              	.LVL189:
 2360 0000 10B5     		push	{r4, lr}
 2361              	.LCFI24:
 2362              		.cfi_def_cfa_offset 8
 2363              		.cfi_offset 14, -4
 2364              		.cfi_offset 4, -8
 2365              		.loc 1 521 0
 2366 0002 0446     		mov	r4, r0
 2367              	.LBB76:
 2368              		.loc 1 523 0
 2369 0004 FFF7FEFF 		bl	chMtxInit
 2370              	.LVL190:
 2371              	.LBE76:
 2372              		.loc 1 524 0
 2373 0008 2046     		mov	r0, r4
 2374 000a 10BD     		pop	{r4, pc}
 2375              		.cfi_endproc
 2376              	.LFE99:
 2377              		.size	_ZN10chibios_rt5MutexC2Ev, .-_ZN10chibios_rt5MutexC2Ev
 2378 000c AFF30080 		.section	.text._ZN10chibios_rt5Mutex7tryLockEv,"ax",%progbits
 2379              		.align	2
 2380              		.p2align 4,,15
 2381              		.global	_ZN10chibios_rt5Mutex7tryLockEv
 2382              		.thumb
 2383              		.thumb_func
 2384              		.type	_ZN10chibios_rt5Mutex7tryLockEv, %function
 2385              	_ZN10chibios_rt5Mutex7tryLockEv:
 2386              	.LFB101:
 2387              		.loc 1 526 0
 2388              		.cfi_startproc
 2389              		@ args = 0, pretend = 0, frame = 0
 2390              		@ frame_needed = 0, uses_anonymous_args = 0
 2391              		@ link register save eliminated.
 2392              	.LVL191:
 2393              		.loc 1 529 0
 2394              		.loc 1 528 0
 2395 0000 FFF7FEBF 		b	chMtxTryLock
 2396              	.LVL192:
 2397              		.cfi_endproc
 2398              	.LFE101:
 2399              		.size	_ZN10chibios_rt5Mutex7tryLockEv, .-_ZN10chibios_rt5Mutex7tryLockEv
 2400 0004 AFF30080 		.section	.text._ZN10chibios_rt5Mutex8tryLockSEv,"ax",%progbits
 2400      AFF30080 
 2400      AFF30080 
 2401              		.align	2
 2402              		.p2align 4,,15
 2403              		.global	_ZN10chibios_rt5Mutex8tryLockSEv
 2404              		.thumb
 2405              		.thumb_func
 2406              		.type	_ZN10chibios_rt5Mutex8tryLockSEv, %function
 2407              	_ZN10chibios_rt5Mutex8tryLockSEv:
ARM GAS  /tmp/ccq01laD.s 			page 45


 2408              	.LFB102:
 2409              		.loc 1 531 0
 2410              		.cfi_startproc
 2411              		@ args = 0, pretend = 0, frame = 0
 2412              		@ frame_needed = 0, uses_anonymous_args = 0
 2413              		@ link register save eliminated.
 2414              	.LVL193:
 2415              		.loc 1 534 0
 2416              		.loc 1 533 0
 2417 0000 FFF7FEBF 		b	chMtxTryLockS
 2418              	.LVL194:
 2419              		.cfi_endproc
 2420              	.LFE102:
 2421              		.size	_ZN10chibios_rt5Mutex8tryLockSEv, .-_ZN10chibios_rt5Mutex8tryLockSEv
 2422 0004 AFF30080 		.section	.text._ZN10chibios_rt5Mutex4lockEv,"ax",%progbits
 2422      AFF30080 
 2422      AFF30080 
 2423              		.align	2
 2424              		.p2align 4,,15
 2425              		.global	_ZN10chibios_rt5Mutex4lockEv
 2426              		.thumb
 2427              		.thumb_func
 2428              		.type	_ZN10chibios_rt5Mutex4lockEv, %function
 2429              	_ZN10chibios_rt5Mutex4lockEv:
 2430              	.LFB103:
 2431              		.loc 1 536 0
 2432              		.cfi_startproc
 2433              		@ args = 0, pretend = 0, frame = 0
 2434              		@ frame_needed = 0, uses_anonymous_args = 0
 2435              		@ link register save eliminated.
 2436              	.LVL195:
 2437              		.loc 1 539 0
 2438              		.loc 1 538 0
 2439 0000 FFF7FEBF 		b	chMtxLock
 2440              	.LVL196:
 2441              		.cfi_endproc
 2442              	.LFE103:
 2443              		.size	_ZN10chibios_rt5Mutex4lockEv, .-_ZN10chibios_rt5Mutex4lockEv
 2444 0004 AFF30080 		.section	.text._ZN10chibios_rt5Mutex5lockSEv,"ax",%progbits
 2444      AFF30080 
 2444      AFF30080 
 2445              		.align	2
 2446              		.p2align 4,,15
 2447              		.global	_ZN10chibios_rt5Mutex5lockSEv
 2448              		.thumb
 2449              		.thumb_func
 2450              		.type	_ZN10chibios_rt5Mutex5lockSEv, %function
 2451              	_ZN10chibios_rt5Mutex5lockSEv:
 2452              	.LFB104:
 2453              		.loc 1 541 0
 2454              		.cfi_startproc
 2455              		@ args = 0, pretend = 0, frame = 0
 2456              		@ frame_needed = 0, uses_anonymous_args = 0
 2457              		@ link register save eliminated.
 2458              	.LVL197:
 2459              		.loc 1 544 0
 2460              		.loc 1 543 0
ARM GAS  /tmp/ccq01laD.s 			page 46


 2461 0000 FFF7FEBF 		b	chMtxLockS
 2462              	.LVL198:
 2463              		.cfi_endproc
 2464              	.LFE104:
 2465              		.size	_ZN10chibios_rt5Mutex5lockSEv, .-_ZN10chibios_rt5Mutex5lockSEv
 2466 0004 AFF30080 		.section	.text._ZN10chibios_rt7CondVarC2Ev,"ax",%progbits
 2466      AFF30080 
 2466      AFF30080 
 2467              		.align	2
 2468              		.p2align 4,,15
 2469              		.global	_ZN10chibios_rt7CondVarC2Ev
 2470              		.thumb
 2471              		.thumb_func
 2472              		.type	_ZN10chibios_rt7CondVarC2Ev, %function
 2473              	_ZN10chibios_rt7CondVarC2Ev:
 2474              	.LFB106:
 2475              		.loc 1 550 0
 2476              		.cfi_startproc
 2477              		@ args = 0, pretend = 0, frame = 0
 2478              		@ frame_needed = 0, uses_anonymous_args = 0
 2479              	.LVL199:
 2480 0000 10B5     		push	{r4, lr}
 2481              	.LCFI25:
 2482              		.cfi_def_cfa_offset 8
 2483              		.cfi_offset 14, -4
 2484              		.cfi_offset 4, -8
 2485              		.loc 1 550 0
 2486 0002 0446     		mov	r4, r0
 2487              	.LBB77:
 2488              		.loc 1 552 0
 2489 0004 FFF7FEFF 		bl	chCondInit
 2490              	.LVL200:
 2491              	.LBE77:
 2492              		.loc 1 553 0
 2493 0008 2046     		mov	r0, r4
 2494 000a 10BD     		pop	{r4, pc}
 2495              		.cfi_endproc
 2496              	.LFE106:
 2497              		.size	_ZN10chibios_rt7CondVarC2Ev, .-_ZN10chibios_rt7CondVarC2Ev
 2498 000c AFF30080 		.section	.text._ZN10chibios_rt7CondVar6signalEv,"ax",%progbits
 2499              		.align	2
 2500              		.p2align 4,,15
 2501              		.global	_ZN10chibios_rt7CondVar6signalEv
 2502              		.thumb
 2503              		.thumb_func
 2504              		.type	_ZN10chibios_rt7CondVar6signalEv, %function
 2505              	_ZN10chibios_rt7CondVar6signalEv:
 2506              	.LFB108:
 2507              		.loc 1 555 0
 2508              		.cfi_startproc
 2509              		@ args = 0, pretend = 0, frame = 0
 2510              		@ frame_needed = 0, uses_anonymous_args = 0
 2511              		@ link register save eliminated.
 2512              	.LVL201:
 2513              		.loc 1 558 0
 2514              		.loc 1 557 0
 2515 0000 FFF7FEBF 		b	chCondSignal
ARM GAS  /tmp/ccq01laD.s 			page 47


 2516              	.LVL202:
 2517              		.cfi_endproc
 2518              	.LFE108:
 2519              		.size	_ZN10chibios_rt7CondVar6signalEv, .-_ZN10chibios_rt7CondVar6signalEv
 2520 0004 AFF30080 		.section	.text._ZN10chibios_rt7CondVar7signalIEv,"ax",%progbits
 2520      AFF30080 
 2520      AFF30080 
 2521              		.align	2
 2522              		.p2align 4,,15
 2523              		.global	_ZN10chibios_rt7CondVar7signalIEv
 2524              		.thumb
 2525              		.thumb_func
 2526              		.type	_ZN10chibios_rt7CondVar7signalIEv, %function
 2527              	_ZN10chibios_rt7CondVar7signalIEv:
 2528              	.LFB109:
 2529              		.loc 1 560 0
 2530              		.cfi_startproc
 2531              		@ args = 0, pretend = 0, frame = 0
 2532              		@ frame_needed = 0, uses_anonymous_args = 0
 2533              		@ link register save eliminated.
 2534              	.LVL203:
 2535              		.loc 1 563 0
 2536              		.loc 1 562 0
 2537 0000 FFF7FEBF 		b	chCondSignalI
 2538              	.LVL204:
 2539              		.cfi_endproc
 2540              	.LFE109:
 2541              		.size	_ZN10chibios_rt7CondVar7signalIEv, .-_ZN10chibios_rt7CondVar7signalIEv
 2542 0004 AFF30080 		.section	.text._ZN10chibios_rt7CondVar9broadcastEv,"ax",%progbits
 2542      AFF30080 
 2542      AFF30080 
 2543              		.align	2
 2544              		.p2align 4,,15
 2545              		.global	_ZN10chibios_rt7CondVar9broadcastEv
 2546              		.thumb
 2547              		.thumb_func
 2548              		.type	_ZN10chibios_rt7CondVar9broadcastEv, %function
 2549              	_ZN10chibios_rt7CondVar9broadcastEv:
 2550              	.LFB110:
 2551              		.loc 1 565 0
 2552              		.cfi_startproc
 2553              		@ args = 0, pretend = 0, frame = 0
 2554              		@ frame_needed = 0, uses_anonymous_args = 0
 2555              		@ link register save eliminated.
 2556              	.LVL205:
 2557              		.loc 1 568 0
 2558              		.loc 1 567 0
 2559 0000 FFF7FEBF 		b	chCondBroadcast
 2560              	.LVL206:
 2561              		.cfi_endproc
 2562              	.LFE110:
 2563              		.size	_ZN10chibios_rt7CondVar9broadcastEv, .-_ZN10chibios_rt7CondVar9broadcastEv
 2564 0004 AFF30080 		.section	.text._ZN10chibios_rt7CondVar10broadcastIEv,"ax",%progbits
 2564      AFF30080 
 2564      AFF30080 
 2565              		.align	2
 2566              		.p2align 4,,15
ARM GAS  /tmp/ccq01laD.s 			page 48


 2567              		.global	_ZN10chibios_rt7CondVar10broadcastIEv
 2568              		.thumb
 2569              		.thumb_func
 2570              		.type	_ZN10chibios_rt7CondVar10broadcastIEv, %function
 2571              	_ZN10chibios_rt7CondVar10broadcastIEv:
 2572              	.LFB111:
 2573              		.loc 1 570 0
 2574              		.cfi_startproc
 2575              		@ args = 0, pretend = 0, frame = 0
 2576              		@ frame_needed = 0, uses_anonymous_args = 0
 2577              		@ link register save eliminated.
 2578              	.LVL207:
 2579              		.loc 1 573 0
 2580              		.loc 1 572 0
 2581 0000 FFF7FEBF 		b	chCondBroadcastI
 2582              	.LVL208:
 2583              		.cfi_endproc
 2584              	.LFE111:
 2585              		.size	_ZN10chibios_rt7CondVar10broadcastIEv, .-_ZN10chibios_rt7CondVar10broadcastIEv
 2586 0004 AFF30080 		.section	.text._ZN10chibios_rt7CondVar4waitEv,"ax",%progbits
 2586      AFF30080 
 2586      AFF30080 
 2587              		.align	2
 2588              		.p2align 4,,15
 2589              		.global	_ZN10chibios_rt7CondVar4waitEv
 2590              		.thumb
 2591              		.thumb_func
 2592              		.type	_ZN10chibios_rt7CondVar4waitEv, %function
 2593              	_ZN10chibios_rt7CondVar4waitEv:
 2594              	.LFB112:
 2595              		.loc 1 575 0
 2596              		.cfi_startproc
 2597              		@ args = 0, pretend = 0, frame = 0
 2598              		@ frame_needed = 0, uses_anonymous_args = 0
 2599              		@ link register save eliminated.
 2600              	.LVL209:
 2601              		.loc 1 578 0
 2602              		.loc 1 577 0
 2603 0000 FFF7FEBF 		b	chCondWait
 2604              	.LVL210:
 2605              		.cfi_endproc
 2606              	.LFE112:
 2607              		.size	_ZN10chibios_rt7CondVar4waitEv, .-_ZN10chibios_rt7CondVar4waitEv
 2608 0004 AFF30080 		.section	.text._ZN10chibios_rt7CondVar5waitSEv,"ax",%progbits
 2608      AFF30080 
 2608      AFF30080 
 2609              		.align	2
 2610              		.p2align 4,,15
 2611              		.global	_ZN10chibios_rt7CondVar5waitSEv
 2612              		.thumb
 2613              		.thumb_func
 2614              		.type	_ZN10chibios_rt7CondVar5waitSEv, %function
 2615              	_ZN10chibios_rt7CondVar5waitSEv:
 2616              	.LFB113:
 2617              		.loc 1 580 0
 2618              		.cfi_startproc
 2619              		@ args = 0, pretend = 0, frame = 0
ARM GAS  /tmp/ccq01laD.s 			page 49


 2620              		@ frame_needed = 0, uses_anonymous_args = 0
 2621              		@ link register save eliminated.
 2622              	.LVL211:
 2623              		.loc 1 583 0
 2624              		.loc 1 582 0
 2625 0000 FFF7FEBF 		b	chCondWaitS
 2626              	.LVL212:
 2627              		.cfi_endproc
 2628              	.LFE113:
 2629              		.size	_ZN10chibios_rt7CondVar5waitSEv, .-_ZN10chibios_rt7CondVar5waitSEv
 2630 0004 AFF30080 		.section	.text._ZN10chibios_rt7CondVar11waitTimeoutEm,"ax",%progbits
 2630      AFF30080 
 2630      AFF30080 
 2631              		.align	2
 2632              		.p2align 4,,15
 2633              		.global	_ZN10chibios_rt7CondVar11waitTimeoutEm
 2634              		.thumb
 2635              		.thumb_func
 2636              		.type	_ZN10chibios_rt7CondVar11waitTimeoutEm, %function
 2637              	_ZN10chibios_rt7CondVar11waitTimeoutEm:
 2638              	.LFB114:
 2639              		.loc 1 586 0
 2640              		.cfi_startproc
 2641              		@ args = 0, pretend = 0, frame = 0
 2642              		@ frame_needed = 0, uses_anonymous_args = 0
 2643              		@ link register save eliminated.
 2644              	.LVL213:
 2645              		.loc 1 589 0
 2646              		.loc 1 588 0
 2647 0000 FFF7FEBF 		b	chCondWaitTimeout
 2648              	.LVL214:
 2649              	.LVL215:
 2650              		.cfi_endproc
 2651              	.LFE114:
 2652              		.size	_ZN10chibios_rt7CondVar11waitTimeoutEm, .-_ZN10chibios_rt7CondVar11waitTimeoutEm
 2653 0004 AFF30080 		.section	.text._ZN10chibios_rt11EvtListener16getAndClearFlagsEv,"ax",%progbits
 2653      AFF30080 
 2653      AFF30080 
 2654              		.align	2
 2655              		.p2align 4,,15
 2656              		.global	_ZN10chibios_rt11EvtListener16getAndClearFlagsEv
 2657              		.thumb
 2658              		.thumb_func
 2659              		.type	_ZN10chibios_rt11EvtListener16getAndClearFlagsEv, %function
 2660              	_ZN10chibios_rt11EvtListener16getAndClearFlagsEv:
 2661              	.LFB115:
 2662              		.loc 1 598 0
 2663              		.cfi_startproc
 2664              		@ args = 0, pretend = 0, frame = 0
 2665              		@ frame_needed = 0, uses_anonymous_args = 0
 2666              		@ link register save eliminated.
 2667              	.LVL216:
 2668              		.loc 1 601 0
 2669              		.loc 1 600 0
 2670 0000 FFF7FEBF 		b	chEvtGetAndClearFlags
 2671              	.LVL217:
 2672              		.cfi_endproc
ARM GAS  /tmp/ccq01laD.s 			page 50


 2673              	.LFE115:
 2674              		.size	_ZN10chibios_rt11EvtListener16getAndClearFlagsEv, .-_ZN10chibios_rt11EvtListener16getAndClea
 2675 0004 AFF30080 		.section	.text._ZN10chibios_rt11EvtListener17getAndClearFlagsIEv,"ax",%progbits
 2675      AFF30080 
 2675      AFF30080 
 2676              		.align	2
 2677              		.p2align 4,,15
 2678              		.global	_ZN10chibios_rt11EvtListener17getAndClearFlagsIEv
 2679              		.thumb
 2680              		.thumb_func
 2681              		.type	_ZN10chibios_rt11EvtListener17getAndClearFlagsIEv, %function
 2682              	_ZN10chibios_rt11EvtListener17getAndClearFlagsIEv:
 2683              	.LFB116:
 2684              		.loc 1 603 0
 2685              		.cfi_startproc
 2686              		@ args = 0, pretend = 0, frame = 0
 2687              		@ frame_needed = 0, uses_anonymous_args = 0
 2688              		@ link register save eliminated.
 2689              	.LVL218:
 2690              		.loc 1 606 0
 2691              		.loc 1 605 0
 2692 0000 FFF7FEBF 		b	chEvtGetAndClearFlagsI
 2693              	.LVL219:
 2694              		.cfi_endproc
 2695              	.LFE116:
 2696              		.size	_ZN10chibios_rt11EvtListener17getAndClearFlagsIEv, .-_ZN10chibios_rt11EvtListener17getAndCle
 2697 0004 AFF30080 		.section	.text._ZN10chibios_rt9EvtSourceC2Ev,"ax",%progbits
 2697      AFF30080 
 2697      AFF30080 
 2698              		.align	2
 2699              		.p2align 4,,15
 2700              		.global	_ZN10chibios_rt9EvtSourceC2Ev
 2701              		.thumb
 2702              		.thumb_func
 2703              		.type	_ZN10chibios_rt9EvtSourceC2Ev, %function
 2704              	_ZN10chibios_rt9EvtSourceC2Ev:
 2705              	.LFB118:
 2706              		.loc 1 611 0
 2707              		.cfi_startproc
 2708              		@ args = 0, pretend = 0, frame = 0
 2709              		@ frame_needed = 0, uses_anonymous_args = 0
 2710              		@ link register save eliminated.
 2711              	.LVL220:
 2712              	.LBB78:
 2713              		.loc 1 613 0
 2714 0000 0060     		str	r0, [r0, #0]
 2715              	.LBE78:
 2716              		.loc 1 614 0
 2717 0002 7047     		bx	lr
 2718              		.cfi_endproc
 2719              	.LFE118:
 2720              		.size	_ZN10chibios_rt9EvtSourceC2Ev, .-_ZN10chibios_rt9EvtSourceC2Ev
 2721 0004 AFF30080 		.section	.text._ZN10chibios_rt9EvtSource11registerOneEPNS_11EvtListenerEl,"ax",%progbits
 2721      AFF30080 
 2721      AFF30080 
 2722              		.align	2
 2723              		.p2align 4,,15
ARM GAS  /tmp/ccq01laD.s 			page 51


 2724              		.global	_ZN10chibios_rt9EvtSource11registerOneEPNS_11EvtListenerEl
 2725              		.thumb
 2726              		.thumb_func
 2727              		.type	_ZN10chibios_rt9EvtSource11registerOneEPNS_11EvtListenerEl, %function
 2728              	_ZN10chibios_rt9EvtSource11registerOneEPNS_11EvtListenerEl:
 2729              	.LFB120:
 2730              		.loc 1 617 0
 2731              		.cfi_startproc
 2732              		@ args = 0, pretend = 0, frame = 0
 2733              		@ frame_needed = 0, uses_anonymous_args = 0
 2734              		@ link register save eliminated.
 2735              	.LVL221:
 2736              		.loc 1 619 0
 2737 0000 0123     		movs	r3, #1
 2738 0002 03FA02F2 		lsl	r2, r3, r2
 2739              	.LVL222:
 2740              		.loc 1 620 0
 2741              		.loc 1 619 0
 2742 0006 FFF7FEBF 		b	chEvtRegisterMask
 2743              	.LVL223:
 2744              	.LVL224:
 2745              		.cfi_endproc
 2746              	.LFE120:
 2747              		.size	_ZN10chibios_rt9EvtSource11registerOneEPNS_11EvtListenerEl, .-_ZN10chibios_rt9EvtSource11reg
 2748 000a 00BFAFF3 		.section	.text._ZN10chibios_rt9EvtSource12registerMaskEPNS_11EvtListenerEm,"ax",%progbits
 2748      0080
 2749              		.align	2
 2750              		.p2align 4,,15
 2751              		.global	_ZN10chibios_rt9EvtSource12registerMaskEPNS_11EvtListenerEm
 2752              		.thumb
 2753              		.thumb_func
 2754              		.type	_ZN10chibios_rt9EvtSource12registerMaskEPNS_11EvtListenerEm, %function
 2755              	_ZN10chibios_rt9EvtSource12registerMaskEPNS_11EvtListenerEm:
 2756              	.LFB121:
 2757              		.loc 1 623 0
 2758              		.cfi_startproc
 2759              		@ args = 0, pretend = 0, frame = 0
 2760              		@ frame_needed = 0, uses_anonymous_args = 0
 2761              		@ link register save eliminated.
 2762              	.LVL225:
 2763              		.loc 1 626 0
 2764              		.loc 1 625 0
 2765 0000 FFF7FEBF 		b	chEvtRegisterMask
 2766              	.LVL226:
 2767              	.LVL227:
 2768              	.LVL228:
 2769              		.cfi_endproc
 2770              	.LFE121:
 2771              		.size	_ZN10chibios_rt9EvtSource12registerMaskEPNS_11EvtListenerEm, .-_ZN10chibios_rt9EvtSource12re
 2772 0004 AFF30080 		.section	.text._ZN10chibios_rt9EvtSource10unregisterEPNS_11EvtListenerE,"ax",%progbits
 2772      AFF30080 
 2772      AFF30080 
 2773              		.align	2
 2774              		.p2align 4,,15
 2775              		.global	_ZN10chibios_rt9EvtSource10unregisterEPNS_11EvtListenerE
 2776              		.thumb
 2777              		.thumb_func
ARM GAS  /tmp/ccq01laD.s 			page 52


 2778              		.type	_ZN10chibios_rt9EvtSource10unregisterEPNS_11EvtListenerE, %function
 2779              	_ZN10chibios_rt9EvtSource10unregisterEPNS_11EvtListenerE:
 2780              	.LFB122:
 2781              		.loc 1 628 0
 2782              		.cfi_startproc
 2783              		@ args = 0, pretend = 0, frame = 0
 2784              		@ frame_needed = 0, uses_anonymous_args = 0
 2785              		@ link register save eliminated.
 2786              	.LVL229:
 2787              		.loc 1 631 0
 2788              		.loc 1 630 0
 2789 0000 FFF7FEBF 		b	chEvtUnregister
 2790              	.LVL230:
 2791              	.LVL231:
 2792              		.cfi_endproc
 2793              	.LFE122:
 2794              		.size	_ZN10chibios_rt9EvtSource10unregisterEPNS_11EvtListenerE, .-_ZN10chibios_rt9EvtSource10unreg
 2795 0004 AFF30080 		.section	.text._ZN10chibios_rt9EvtSource14broadcastFlagsEm,"ax",%progbits
 2795      AFF30080 
 2795      AFF30080 
 2796              		.align	2
 2797              		.p2align 4,,15
 2798              		.global	_ZN10chibios_rt9EvtSource14broadcastFlagsEm
 2799              		.thumb
 2800              		.thumb_func
 2801              		.type	_ZN10chibios_rt9EvtSource14broadcastFlagsEm, %function
 2802              	_ZN10chibios_rt9EvtSource14broadcastFlagsEm:
 2803              	.LFB123:
 2804              		.loc 1 633 0
 2805              		.cfi_startproc
 2806              		@ args = 0, pretend = 0, frame = 0
 2807              		@ frame_needed = 0, uses_anonymous_args = 0
 2808              		@ link register save eliminated.
 2809              	.LVL232:
 2810              		.loc 1 636 0
 2811              		.loc 1 635 0
 2812 0000 FFF7FEBF 		b	chEvtBroadcastFlags
 2813              	.LVL233:
 2814              	.LVL234:
 2815              		.cfi_endproc
 2816              	.LFE123:
 2817              		.size	_ZN10chibios_rt9EvtSource14broadcastFlagsEm, .-_ZN10chibios_rt9EvtSource14broadcastFlagsEm
 2818 0004 AFF30080 		.section	.text._ZN10chibios_rt9EvtSource15broadcastFlagsIEm,"ax",%progbits
 2818      AFF30080 
 2818      AFF30080 
 2819              		.align	2
 2820              		.p2align 4,,15
 2821              		.global	_ZN10chibios_rt9EvtSource15broadcastFlagsIEm
 2822              		.thumb
 2823              		.thumb_func
 2824              		.type	_ZN10chibios_rt9EvtSource15broadcastFlagsIEm, %function
 2825              	_ZN10chibios_rt9EvtSource15broadcastFlagsIEm:
 2826              	.LFB124:
 2827              		.loc 1 638 0
 2828              		.cfi_startproc
 2829              		@ args = 0, pretend = 0, frame = 0
 2830              		@ frame_needed = 0, uses_anonymous_args = 0
ARM GAS  /tmp/ccq01laD.s 			page 53


 2831              		@ link register save eliminated.
 2832              	.LVL235:
 2833              		.loc 1 641 0
 2834              		.loc 1 640 0
 2835 0000 FFF7FEBF 		b	chEvtBroadcastFlagsI
 2836              	.LVL236:
 2837              	.LVL237:
 2838              		.cfi_endproc
 2839              	.LFE124:
 2840              		.size	_ZN10chibios_rt9EvtSource15broadcastFlagsIEm, .-_ZN10chibios_rt9EvtSource15broadcastFlagsIEm
 2841 0004 AFF30080 		.section	.text._ZN10chibios_rt7InQueueC2EPhjPFvP12GenericQueueEPv,"ax",%progbits
 2841      AFF30080 
 2841      AFF30080 
 2842              		.align	2
 2843              		.p2align 4,,15
 2844              		.global	_ZN10chibios_rt7InQueueC2EPhjPFvP12GenericQueueEPv
 2845              		.thumb
 2846              		.thumb_func
 2847              		.type	_ZN10chibios_rt7InQueueC2EPhjPFvP12GenericQueueEPv, %function
 2848              	_ZN10chibios_rt7InQueueC2EPhjPFvP12GenericQueueEPv:
 2849              	.LFB126:
 2850              		.loc 1 648 0
 2851              		.cfi_startproc
 2852              		@ args = 4, pretend = 0, frame = 0
 2853              		@ frame_needed = 0, uses_anonymous_args = 0
 2854              	.LVL238:
 2855 0000 10B5     		push	{r4, lr}
 2856              	.LCFI26:
 2857              		.cfi_def_cfa_offset 8
 2858              		.cfi_offset 14, -4
 2859              		.cfi_offset 4, -8
 2860 0002 82B0     		sub	sp, sp, #8
 2861              	.LCFI27:
 2862              		.cfi_def_cfa_offset 16
 2863              		.loc 1 648 0
 2864 0004 0446     		mov	r4, r0
 2865              	.LBB79:
 2866              		.loc 1 650 0
 2867 0006 0498     		ldr	r0, [sp, #16]
 2868              	.LVL239:
 2869 0008 0090     		str	r0, [sp, #0]
 2870 000a 2046     		mov	r0, r4
 2871 000c FFF7FEFF 		bl	chIQInit
 2872              	.LVL240:
 2873              	.LBE79:
 2874              		.loc 1 651 0
 2875 0010 2046     		mov	r0, r4
 2876 0012 02B0     		add	sp, sp, #8
 2877 0014 10BD     		pop	{r4, pc}
 2878              		.cfi_endproc
 2879              	.LFE126:
 2880              		.size	_ZN10chibios_rt7InQueueC2EPhjPFvP12GenericQueueEPv, .-_ZN10chibios_rt7InQueueC2EPhjPFvP12Gen
 2881 0016 00BFAFF3 		.section	.text._ZN10chibios_rt7InQueue8getFullIEv,"ax",%progbits
 2881      0080AFF3 
 2881      0080
 2882              		.align	2
 2883              		.p2align 4,,15
ARM GAS  /tmp/ccq01laD.s 			page 54


 2884              		.global	_ZN10chibios_rt7InQueue8getFullIEv
 2885              		.thumb
 2886              		.thumb_func
 2887              		.type	_ZN10chibios_rt7InQueue8getFullIEv, %function
 2888              	_ZN10chibios_rt7InQueue8getFullIEv:
 2889              	.LFB128:
 2890              		.loc 1 653 0
 2891              		.cfi_startproc
 2892              		@ args = 0, pretend = 0, frame = 0
 2893              		@ frame_needed = 0, uses_anonymous_args = 0
 2894              		@ link register save eliminated.
 2895              	.LVL241:
 2896              		.loc 1 655 0
 2897 0000 8068     		ldr	r0, [r0, #8]
 2898              	.LVL242:
 2899              		.loc 1 656 0
 2900 0002 7047     		bx	lr
 2901              		.cfi_endproc
 2902              	.LFE128:
 2903              		.size	_ZN10chibios_rt7InQueue8getFullIEv, .-_ZN10chibios_rt7InQueue8getFullIEv
 2904 0004 AFF30080 		.section	.text._ZN10chibios_rt7InQueue9getEmptyIEv,"ax",%progbits
 2904      AFF30080 
 2904      AFF30080 
 2905              		.align	2
 2906              		.p2align 4,,15
 2907              		.global	_ZN10chibios_rt7InQueue9getEmptyIEv
 2908              		.thumb
 2909              		.thumb_func
 2910              		.type	_ZN10chibios_rt7InQueue9getEmptyIEv, %function
 2911              	_ZN10chibios_rt7InQueue9getEmptyIEv:
 2912              	.LFB129:
 2913              		.loc 1 658 0
 2914              		.cfi_startproc
 2915              		@ args = 0, pretend = 0, frame = 0
 2916              		@ frame_needed = 0, uses_anonymous_args = 0
 2917              		@ link register save eliminated.
 2918              	.LVL243:
 2919              		.loc 1 660 0
 2920 0000 0169     		ldr	r1, [r0, #16]
 2921 0002 C268     		ldr	r2, [r0, #12]
 2922 0004 8368     		ldr	r3, [r0, #8]
 2923 0006 881A     		subs	r0, r1, r2
 2924              	.LVL244:
 2925 0008 C01A     		subs	r0, r0, r3
 2926              		.loc 1 661 0
 2927 000a 7047     		bx	lr
 2928              		.cfi_endproc
 2929              	.LFE129:
 2930              		.size	_ZN10chibios_rt7InQueue9getEmptyIEv, .-_ZN10chibios_rt7InQueue9getEmptyIEv
 2931 000c AFF30080 		.section	.text._ZN10chibios_rt7InQueue8isEmptyIEv,"ax",%progbits
 2932              		.align	2
 2933              		.p2align 4,,15
 2934              		.global	_ZN10chibios_rt7InQueue8isEmptyIEv
 2935              		.thumb
 2936              		.thumb_func
 2937              		.type	_ZN10chibios_rt7InQueue8isEmptyIEv, %function
 2938              	_ZN10chibios_rt7InQueue8isEmptyIEv:
ARM GAS  /tmp/ccq01laD.s 			page 55


 2939              	.LFB130:
 2940              		.loc 1 663 0
 2941              		.cfi_startproc
 2942              		@ args = 0, pretend = 0, frame = 0
 2943              		@ frame_needed = 0, uses_anonymous_args = 0
 2944              		@ link register save eliminated.
 2945              	.LVL245:
 2946              		.loc 1 665 0
 2947 0000 8068     		ldr	r0, [r0, #8]
 2948              	.LVL246:
 2949 0002 D0F10100 		rsbs	r0, r0, #1
 2950 0006 38BF     		it	cc
 2951 0008 0020     		movcc	r0, #0
 2952              		.loc 1 666 0
 2953 000a 7047     		bx	lr
 2954              		.cfi_endproc
 2955              	.LFE130:
 2956              		.size	_ZN10chibios_rt7InQueue8isEmptyIEv, .-_ZN10chibios_rt7InQueue8isEmptyIEv
 2957 000c AFF30080 		.section	.text._ZN10chibios_rt7InQueue7isFullIEv,"ax",%progbits
 2958              		.align	2
 2959              		.p2align 4,,15
 2960              		.global	_ZN10chibios_rt7InQueue7isFullIEv
 2961              		.thumb
 2962              		.thumb_func
 2963              		.type	_ZN10chibios_rt7InQueue7isFullIEv, %function
 2964              	_ZN10chibios_rt7InQueue7isFullIEv:
 2965              	.LFB131:
 2966              		.loc 1 668 0
 2967              		.cfi_startproc
 2968              		@ args = 0, pretend = 0, frame = 0
 2969              		@ frame_needed = 0, uses_anonymous_args = 0
 2970              		@ link register save eliminated.
 2971              	.LVL247:
 2972              		.loc 1 670 0
 2973 0000 4269     		ldr	r2, [r0, #20]
 2974 0002 8369     		ldr	r3, [r0, #24]
 2975 0004 9A42     		cmp	r2, r3
 2976 0006 01D0     		beq	.L173
 2977 0008 0020     		movs	r0, #0
 2978              	.LVL248:
 2979              		.loc 1 671 0
 2980 000a 7047     		bx	lr
 2981              	.LVL249:
 2982              	.L173:
 2983              		.loc 1 668 0 discriminator 1
 2984 000c 8068     		ldr	r0, [r0, #8]
 2985              	.LVL250:
 2986 000e 0030     		adds	r0, r0, #0
 2987 0010 18BF     		it	ne
 2988 0012 0120     		movne	r0, #1
 2989 0014 7047     		bx	lr
 2990              		.cfi_endproc
 2991              	.LFE131:
 2992              		.size	_ZN10chibios_rt7InQueue7isFullIEv, .-_ZN10chibios_rt7InQueue7isFullIEv
 2993 0016 00BFAFF3 		.section	.text._ZN10chibios_rt7InQueue6resetIEv,"ax",%progbits
 2993      0080AFF3 
 2993      0080
ARM GAS  /tmp/ccq01laD.s 			page 56


 2994              		.align	2
 2995              		.p2align 4,,15
 2996              		.global	_ZN10chibios_rt7InQueue6resetIEv
 2997              		.thumb
 2998              		.thumb_func
 2999              		.type	_ZN10chibios_rt7InQueue6resetIEv, %function
 3000              	_ZN10chibios_rt7InQueue6resetIEv:
 3001              	.LFB132:
 3002              		.loc 1 673 0
 3003              		.cfi_startproc
 3004              		@ args = 0, pretend = 0, frame = 0
 3005              		@ frame_needed = 0, uses_anonymous_args = 0
 3006              		@ link register save eliminated.
 3007              	.LVL251:
 3008              		.loc 1 676 0
 3009              		.loc 1 675 0
 3010 0000 FFF7FEBF 		b	chIQResetI
 3011              	.LVL252:
 3012              		.cfi_endproc
 3013              	.LFE132:
 3014              		.size	_ZN10chibios_rt7InQueue6resetIEv, .-_ZN10chibios_rt7InQueue6resetIEv
 3015 0004 AFF30080 		.section	.text._ZN10chibios_rt7InQueue4putIEh,"ax",%progbits
 3015      AFF30080 
 3015      AFF30080 
 3016              		.align	2
 3017              		.p2align 4,,15
 3018              		.global	_ZN10chibios_rt7InQueue4putIEh
 3019              		.thumb
 3020              		.thumb_func
 3021              		.type	_ZN10chibios_rt7InQueue4putIEh, %function
 3022              	_ZN10chibios_rt7InQueue4putIEh:
 3023              	.LFB133:
 3024              		.loc 1 678 0
 3025              		.cfi_startproc
 3026              		@ args = 0, pretend = 0, frame = 0
 3027              		@ frame_needed = 0, uses_anonymous_args = 0
 3028              		@ link register save eliminated.
 3029              	.LVL253:
 3030              		.loc 1 681 0
 3031              		.loc 1 680 0
 3032 0000 FFF7FEBF 		b	chIQPutI
 3033              	.LVL254:
 3034              	.LVL255:
 3035              		.cfi_endproc
 3036              	.LFE133:
 3037              		.size	_ZN10chibios_rt7InQueue4putIEh, .-_ZN10chibios_rt7InQueue4putIEh
 3038 0004 AFF30080 		.section	.text._ZN10chibios_rt7InQueue3getEv,"ax",%progbits
 3038      AFF30080 
 3038      AFF30080 
 3039              		.align	2
 3040              		.p2align 4,,15
 3041              		.global	_ZN10chibios_rt7InQueue3getEv
 3042              		.thumb
 3043              		.thumb_func
 3044              		.type	_ZN10chibios_rt7InQueue3getEv, %function
 3045              	_ZN10chibios_rt7InQueue3getEv:
 3046              	.LFB134:
ARM GAS  /tmp/ccq01laD.s 			page 57


 3047              		.loc 1 683 0
 3048              		.cfi_startproc
 3049              		@ args = 0, pretend = 0, frame = 0
 3050              		@ frame_needed = 0, uses_anonymous_args = 0
 3051              		@ link register save eliminated.
 3052              	.LVL256:
 3053              		.loc 1 685 0
 3054 0000 4FF0FF31 		mov	r1, #-1
 3055              		.loc 1 686 0
 3056              		.loc 1 685 0
 3057 0004 FFF7FEBF 		b	chIQGetTimeout
 3058              	.LVL257:
 3059              		.cfi_endproc
 3060              	.LFE134:
 3061              		.size	_ZN10chibios_rt7InQueue3getEv, .-_ZN10chibios_rt7InQueue3getEv
 3062 0008 AFF30080 		.section	.text._ZN10chibios_rt7InQueue10getTimeoutEm,"ax",%progbits
 3062      AFF30080 
 3063              		.align	2
 3064              		.p2align 4,,15
 3065              		.global	_ZN10chibios_rt7InQueue10getTimeoutEm
 3066              		.thumb
 3067              		.thumb_func
 3068              		.type	_ZN10chibios_rt7InQueue10getTimeoutEm, %function
 3069              	_ZN10chibios_rt7InQueue10getTimeoutEm:
 3070              	.LFB135:
 3071              		.loc 1 688 0
 3072              		.cfi_startproc
 3073              		@ args = 0, pretend = 0, frame = 0
 3074              		@ frame_needed = 0, uses_anonymous_args = 0
 3075              		@ link register save eliminated.
 3076              	.LVL258:
 3077              		.loc 1 691 0
 3078              		.loc 1 690 0
 3079 0000 FFF7FEBF 		b	chIQGetTimeout
 3080              	.LVL259:
 3081              	.LVL260:
 3082              		.cfi_endproc
 3083              	.LFE135:
 3084              		.size	_ZN10chibios_rt7InQueue10getTimeoutEm, .-_ZN10chibios_rt7InQueue10getTimeoutEm
 3085 0004 AFF30080 		.section	.text._ZN10chibios_rt7InQueue11readTimeoutEPhjm,"ax",%progbits
 3085      AFF30080 
 3085      AFF30080 
 3086              		.align	2
 3087              		.p2align 4,,15
 3088              		.global	_ZN10chibios_rt7InQueue11readTimeoutEPhjm
 3089              		.thumb
 3090              		.thumb_func
 3091              		.type	_ZN10chibios_rt7InQueue11readTimeoutEPhjm, %function
 3092              	_ZN10chibios_rt7InQueue11readTimeoutEPhjm:
 3093              	.LFB136:
 3094              		.loc 1 693 0
 3095              		.cfi_startproc
 3096              		@ args = 0, pretend = 0, frame = 0
 3097              		@ frame_needed = 0, uses_anonymous_args = 0
 3098              		@ link register save eliminated.
 3099              	.LVL261:
 3100              		.loc 1 696 0
ARM GAS  /tmp/ccq01laD.s 			page 58


 3101              		.loc 1 695 0
 3102 0000 FFF7FEBF 		b	chIQReadTimeout
 3103              	.LVL262:
 3104              	.LVL263:
 3105              	.LVL264:
 3106              	.LVL265:
 3107              		.cfi_endproc
 3108              	.LFE136:
 3109              		.size	_ZN10chibios_rt7InQueue11readTimeoutEPhjm, .-_ZN10chibios_rt7InQueue11readTimeoutEPhjm
 3110 0004 AFF30080 		.section	.text._ZN10chibios_rt8OutQueueC2EPhjPFvP12GenericQueueEPv,"ax",%progbits
 3110      AFF30080 
 3110      AFF30080 
 3111              		.align	2
 3112              		.p2align 4,,15
 3113              		.global	_ZN10chibios_rt8OutQueueC2EPhjPFvP12GenericQueueEPv
 3114              		.thumb
 3115              		.thumb_func
 3116              		.type	_ZN10chibios_rt8OutQueueC2EPhjPFvP12GenericQueueEPv, %function
 3117              	_ZN10chibios_rt8OutQueueC2EPhjPFvP12GenericQueueEPv:
 3118              	.LFB138:
 3119              		.loc 1 701 0
 3120              		.cfi_startproc
 3121              		@ args = 4, pretend = 0, frame = 0
 3122              		@ frame_needed = 0, uses_anonymous_args = 0
 3123              	.LVL266:
 3124 0000 10B5     		push	{r4, lr}
 3125              	.LCFI28:
 3126              		.cfi_def_cfa_offset 8
 3127              		.cfi_offset 14, -4
 3128              		.cfi_offset 4, -8
 3129 0002 82B0     		sub	sp, sp, #8
 3130              	.LCFI29:
 3131              		.cfi_def_cfa_offset 16
 3132              		.loc 1 701 0
 3133 0004 0446     		mov	r4, r0
 3134              	.LBB80:
 3135              		.loc 1 703 0
 3136 0006 0498     		ldr	r0, [sp, #16]
 3137              	.LVL267:
 3138 0008 0090     		str	r0, [sp, #0]
 3139 000a 2046     		mov	r0, r4
 3140 000c FFF7FEFF 		bl	chOQInit
 3141              	.LVL268:
 3142              	.LBE80:
 3143              		.loc 1 704 0
 3144 0010 2046     		mov	r0, r4
 3145 0012 02B0     		add	sp, sp, #8
 3146 0014 10BD     		pop	{r4, pc}
 3147              		.cfi_endproc
 3148              	.LFE138:
 3149              		.size	_ZN10chibios_rt8OutQueueC2EPhjPFvP12GenericQueueEPv, .-_ZN10chibios_rt8OutQueueC2EPhjPFvP12G
 3150 0016 00BFAFF3 		.section	.text._ZN10chibios_rt8OutQueue8getFullIEv,"ax",%progbits
 3150      0080AFF3 
 3150      0080
 3151              		.align	2
 3152              		.p2align 4,,15
 3153              		.global	_ZN10chibios_rt8OutQueue8getFullIEv
ARM GAS  /tmp/ccq01laD.s 			page 59


 3154              		.thumb
 3155              		.thumb_func
 3156              		.type	_ZN10chibios_rt8OutQueue8getFullIEv, %function
 3157              	_ZN10chibios_rt8OutQueue8getFullIEv:
 3158              	.LFB140:
 3159              		.loc 1 706 0
 3160              		.cfi_startproc
 3161              		@ args = 0, pretend = 0, frame = 0
 3162              		@ frame_needed = 0, uses_anonymous_args = 0
 3163              		@ link register save eliminated.
 3164              	.LVL269:
 3165              		.loc 1 708 0
 3166 0000 0169     		ldr	r1, [r0, #16]
 3167 0002 C268     		ldr	r2, [r0, #12]
 3168 0004 8368     		ldr	r3, [r0, #8]
 3169 0006 881A     		subs	r0, r1, r2
 3170              	.LVL270:
 3171 0008 C01A     		subs	r0, r0, r3
 3172              		.loc 1 709 0
 3173 000a 7047     		bx	lr
 3174              		.cfi_endproc
 3175              	.LFE140:
 3176              		.size	_ZN10chibios_rt8OutQueue8getFullIEv, .-_ZN10chibios_rt8OutQueue8getFullIEv
 3177 000c AFF30080 		.section	.text._ZN10chibios_rt8OutQueue9getEmptyIEv,"ax",%progbits
 3178              		.align	2
 3179              		.p2align 4,,15
 3180              		.global	_ZN10chibios_rt8OutQueue9getEmptyIEv
 3181              		.thumb
 3182              		.thumb_func
 3183              		.type	_ZN10chibios_rt8OutQueue9getEmptyIEv, %function
 3184              	_ZN10chibios_rt8OutQueue9getEmptyIEv:
 3185              	.LFB141:
 3186              		.loc 1 711 0
 3187              		.cfi_startproc
 3188              		@ args = 0, pretend = 0, frame = 0
 3189              		@ frame_needed = 0, uses_anonymous_args = 0
 3190              		@ link register save eliminated.
 3191              	.LVL271:
 3192              		.loc 1 713 0
 3193 0000 8068     		ldr	r0, [r0, #8]
 3194              	.LVL272:
 3195              		.loc 1 714 0
 3196 0002 7047     		bx	lr
 3197              		.cfi_endproc
 3198              	.LFE141:
 3199              		.size	_ZN10chibios_rt8OutQueue9getEmptyIEv, .-_ZN10chibios_rt8OutQueue9getEmptyIEv
 3200 0004 AFF30080 		.section	.text._ZN10chibios_rt8OutQueue8isEmptyIEv,"ax",%progbits
 3200      AFF30080 
 3200      AFF30080 
 3201              		.align	2
 3202              		.p2align 4,,15
 3203              		.global	_ZN10chibios_rt8OutQueue8isEmptyIEv
 3204              		.thumb
 3205              		.thumb_func
 3206              		.type	_ZN10chibios_rt8OutQueue8isEmptyIEv, %function
 3207              	_ZN10chibios_rt8OutQueue8isEmptyIEv:
 3208              	.LFB142:
ARM GAS  /tmp/ccq01laD.s 			page 60


 3209              		.loc 1 716 0
 3210              		.cfi_startproc
 3211              		@ args = 0, pretend = 0, frame = 0
 3212              		@ frame_needed = 0, uses_anonymous_args = 0
 3213              		@ link register save eliminated.
 3214              	.LVL273:
 3215              		.loc 1 718 0
 3216 0000 4269     		ldr	r2, [r0, #20]
 3217 0002 8369     		ldr	r3, [r0, #24]
 3218 0004 9A42     		cmp	r2, r3
 3219 0006 01D0     		beq	.L186
 3220 0008 0020     		movs	r0, #0
 3221              	.LVL274:
 3222              		.loc 1 719 0
 3223 000a 7047     		bx	lr
 3224              	.LVL275:
 3225              	.L186:
 3226              		.loc 1 716 0 discriminator 1
 3227 000c 8068     		ldr	r0, [r0, #8]
 3228              	.LVL276:
 3229 000e 0030     		adds	r0, r0, #0
 3230 0010 18BF     		it	ne
 3231 0012 0120     		movne	r0, #1
 3232 0014 7047     		bx	lr
 3233              		.cfi_endproc
 3234              	.LFE142:
 3235              		.size	_ZN10chibios_rt8OutQueue8isEmptyIEv, .-_ZN10chibios_rt8OutQueue8isEmptyIEv
 3236 0016 00BFAFF3 		.section	.text._ZN10chibios_rt8OutQueue7isFullIEv,"ax",%progbits
 3236      0080AFF3 
 3236      0080
 3237              		.align	2
 3238              		.p2align 4,,15
 3239              		.global	_ZN10chibios_rt8OutQueue7isFullIEv
 3240              		.thumb
 3241              		.thumb_func
 3242              		.type	_ZN10chibios_rt8OutQueue7isFullIEv, %function
 3243              	_ZN10chibios_rt8OutQueue7isFullIEv:
 3244              	.LFB143:
 3245              		.loc 1 721 0
 3246              		.cfi_startproc
 3247              		@ args = 0, pretend = 0, frame = 0
 3248              		@ frame_needed = 0, uses_anonymous_args = 0
 3249              		@ link register save eliminated.
 3250              	.LVL277:
 3251              		.loc 1 723 0
 3252 0000 8068     		ldr	r0, [r0, #8]
 3253              	.LVL278:
 3254 0002 D0F10100 		rsbs	r0, r0, #1
 3255 0006 38BF     		it	cc
 3256 0008 0020     		movcc	r0, #0
 3257              		.loc 1 724 0
 3258 000a 7047     		bx	lr
 3259              		.cfi_endproc
 3260              	.LFE143:
 3261              		.size	_ZN10chibios_rt8OutQueue7isFullIEv, .-_ZN10chibios_rt8OutQueue7isFullIEv
 3262 000c AFF30080 		.section	.text._ZN10chibios_rt8OutQueue6resetIEv,"ax",%progbits
 3263              		.align	2
ARM GAS  /tmp/ccq01laD.s 			page 61


 3264              		.p2align 4,,15
 3265              		.global	_ZN10chibios_rt8OutQueue6resetIEv
 3266              		.thumb
 3267              		.thumb_func
 3268              		.type	_ZN10chibios_rt8OutQueue6resetIEv, %function
 3269              	_ZN10chibios_rt8OutQueue6resetIEv:
 3270              	.LFB144:
 3271              		.loc 1 726 0
 3272              		.cfi_startproc
 3273              		@ args = 0, pretend = 0, frame = 0
 3274              		@ frame_needed = 0, uses_anonymous_args = 0
 3275              		@ link register save eliminated.
 3276              	.LVL279:
 3277              		.loc 1 729 0
 3278              		.loc 1 728 0
 3279 0000 FFF7FEBF 		b	chOQResetI
 3280              	.LVL280:
 3281              		.cfi_endproc
 3282              	.LFE144:
 3283              		.size	_ZN10chibios_rt8OutQueue6resetIEv, .-_ZN10chibios_rt8OutQueue6resetIEv
 3284 0004 AFF30080 		.section	.text._ZN10chibios_rt8OutQueue3putEh,"ax",%progbits
 3284      AFF30080 
 3284      AFF30080 
 3285              		.align	2
 3286              		.p2align 4,,15
 3287              		.global	_ZN10chibios_rt8OutQueue3putEh
 3288              		.thumb
 3289              		.thumb_func
 3290              		.type	_ZN10chibios_rt8OutQueue3putEh, %function
 3291              	_ZN10chibios_rt8OutQueue3putEh:
 3292              	.LFB145:
 3293              		.loc 1 731 0
 3294              		.cfi_startproc
 3295              		@ args = 0, pretend = 0, frame = 0
 3296              		@ frame_needed = 0, uses_anonymous_args = 0
 3297              		@ link register save eliminated.
 3298              	.LVL281:
 3299              		.loc 1 733 0
 3300 0000 4FF0FF32 		mov	r2, #-1
 3301              		.loc 1 734 0
 3302              		.loc 1 733 0
 3303 0004 FFF7FEBF 		b	chOQPutTimeout
 3304              	.LVL282:
 3305              	.LVL283:
 3306              		.cfi_endproc
 3307              	.LFE145:
 3308              		.size	_ZN10chibios_rt8OutQueue3putEh, .-_ZN10chibios_rt8OutQueue3putEh
 3309 0008 AFF30080 		.section	.text._ZN10chibios_rt8OutQueue10putTimeoutEhm,"ax",%progbits
 3309      AFF30080 
 3310              		.align	2
 3311              		.p2align 4,,15
 3312              		.global	_ZN10chibios_rt8OutQueue10putTimeoutEhm
 3313              		.thumb
 3314              		.thumb_func
 3315              		.type	_ZN10chibios_rt8OutQueue10putTimeoutEhm, %function
 3316              	_ZN10chibios_rt8OutQueue10putTimeoutEhm:
 3317              	.LFB146:
ARM GAS  /tmp/ccq01laD.s 			page 62


 3318              		.loc 1 736 0
 3319              		.cfi_startproc
 3320              		@ args = 0, pretend = 0, frame = 0
 3321              		@ frame_needed = 0, uses_anonymous_args = 0
 3322              		@ link register save eliminated.
 3323              	.LVL284:
 3324              		.loc 1 739 0
 3325              		.loc 1 738 0
 3326 0000 FFF7FEBF 		b	chOQPutTimeout
 3327              	.LVL285:
 3328              	.LVL286:
 3329              	.LVL287:
 3330              		.cfi_endproc
 3331              	.LFE146:
 3332              		.size	_ZN10chibios_rt8OutQueue10putTimeoutEhm, .-_ZN10chibios_rt8OutQueue10putTimeoutEhm
 3333 0004 AFF30080 		.section	.text._ZN10chibios_rt8OutQueue4getIEv,"ax",%progbits
 3333      AFF30080 
 3333      AFF30080 
 3334              		.align	2
 3335              		.p2align 4,,15
 3336              		.global	_ZN10chibios_rt8OutQueue4getIEv
 3337              		.thumb
 3338              		.thumb_func
 3339              		.type	_ZN10chibios_rt8OutQueue4getIEv, %function
 3340              	_ZN10chibios_rt8OutQueue4getIEv:
 3341              	.LFB147:
 3342              		.loc 1 741 0
 3343              		.cfi_startproc
 3344              		@ args = 0, pretend = 0, frame = 0
 3345              		@ frame_needed = 0, uses_anonymous_args = 0
 3346              		@ link register save eliminated.
 3347              	.LVL288:
 3348              		.loc 1 744 0
 3349              		.loc 1 743 0
 3350 0000 FFF7FEBF 		b	chOQGetI
 3351              	.LVL289:
 3352              		.cfi_endproc
 3353              	.LFE147:
 3354              		.size	_ZN10chibios_rt8OutQueue4getIEv, .-_ZN10chibios_rt8OutQueue4getIEv
 3355 0004 AFF30080 		.section	.text._ZN10chibios_rt8OutQueue12writeTimeoutEPKhjm,"ax",%progbits
 3355      AFF30080 
 3355      AFF30080 
 3356              		.align	2
 3357              		.p2align 4,,15
 3358              		.global	_ZN10chibios_rt8OutQueue12writeTimeoutEPKhjm
 3359              		.thumb
 3360              		.thumb_func
 3361              		.type	_ZN10chibios_rt8OutQueue12writeTimeoutEPKhjm, %function
 3362              	_ZN10chibios_rt8OutQueue12writeTimeoutEPKhjm:
 3363              	.LFB148:
 3364              		.loc 1 747 0
 3365              		.cfi_startproc
 3366              		@ args = 0, pretend = 0, frame = 0
 3367              		@ frame_needed = 0, uses_anonymous_args = 0
 3368              		@ link register save eliminated.
 3369              	.LVL290:
 3370              		.loc 1 750 0
ARM GAS  /tmp/ccq01laD.s 			page 63


 3371              		.loc 1 749 0
 3372 0000 FFF7FEBF 		b	chOQWriteTimeout
 3373              	.LVL291:
 3374              	.LVL292:
 3375              	.LVL293:
 3376              	.LVL294:
 3377              		.cfi_endproc
 3378              	.LFE148:
 3379              		.size	_ZN10chibios_rt8OutQueue12writeTimeoutEPKhjm, .-_ZN10chibios_rt8OutQueue12writeTimeoutEPKhjm
 3380 0004 AFF30080 		.section	.text._ZN10chibios_rt7MailboxC2EPll,"ax",%progbits
 3380      AFF30080 
 3380      AFF30080 
 3381              		.align	2
 3382              		.p2align 4,,15
 3383              		.global	_ZN10chibios_rt7MailboxC2EPll
 3384              		.thumb
 3385              		.thumb_func
 3386              		.type	_ZN10chibios_rt7MailboxC2EPll, %function
 3387              	_ZN10chibios_rt7MailboxC2EPll:
 3388              	.LFB150:
 3389              		.loc 1 757 0
 3390              		.cfi_startproc
 3391              		@ args = 0, pretend = 0, frame = 0
 3392              		@ frame_needed = 0, uses_anonymous_args = 0
 3393              	.LVL295:
 3394 0000 10B5     		push	{r4, lr}
 3395              	.LCFI30:
 3396              		.cfi_def_cfa_offset 8
 3397              		.cfi_offset 14, -4
 3398              		.cfi_offset 4, -8
 3399              		.loc 1 757 0
 3400 0002 0446     		mov	r4, r0
 3401              	.LBB81:
 3402              		.loc 1 759 0
 3403 0004 FFF7FEFF 		bl	chMBInit
 3404              	.LVL296:
 3405              	.LBE81:
 3406              		.loc 1 760 0
 3407 0008 2046     		mov	r0, r4
 3408 000a 10BD     		pop	{r4, pc}
 3409              		.cfi_endproc
 3410              	.LFE150:
 3411              		.size	_ZN10chibios_rt7MailboxC2EPll, .-_ZN10chibios_rt7MailboxC2EPll
 3412 000c AFF30080 		.section	.text._ZN10chibios_rt7Mailbox5resetEv,"ax",%progbits
 3413              		.align	2
 3414              		.p2align 4,,15
 3415              		.global	_ZN10chibios_rt7Mailbox5resetEv
 3416              		.thumb
 3417              		.thumb_func
 3418              		.type	_ZN10chibios_rt7Mailbox5resetEv, %function
 3419              	_ZN10chibios_rt7Mailbox5resetEv:
 3420              	.LFB152:
 3421              		.loc 1 762 0
 3422              		.cfi_startproc
 3423              		@ args = 0, pretend = 0, frame = 0
 3424              		@ frame_needed = 0, uses_anonymous_args = 0
 3425              		@ link register save eliminated.
ARM GAS  /tmp/ccq01laD.s 			page 64


 3426              	.LVL297:
 3427              		.loc 1 765 0
 3428              		.loc 1 764 0
 3429 0000 FFF7FEBF 		b	chMBReset
 3430              	.LVL298:
 3431              		.cfi_endproc
 3432              	.LFE152:
 3433              		.size	_ZN10chibios_rt7Mailbox5resetEv, .-_ZN10chibios_rt7Mailbox5resetEv
 3434 0004 AFF30080 		.section	.text._ZN10chibios_rt7Mailbox4postElm,"ax",%progbits
 3434      AFF30080 
 3434      AFF30080 
 3435              		.align	2
 3436              		.p2align 4,,15
 3437              		.global	_ZN10chibios_rt7Mailbox4postElm
 3438              		.thumb
 3439              		.thumb_func
 3440              		.type	_ZN10chibios_rt7Mailbox4postElm, %function
 3441              	_ZN10chibios_rt7Mailbox4postElm:
 3442              	.LFB153:
 3443              		.loc 1 767 0
 3444              		.cfi_startproc
 3445              		@ args = 0, pretend = 0, frame = 0
 3446              		@ frame_needed = 0, uses_anonymous_args = 0
 3447              		@ link register save eliminated.
 3448              	.LVL299:
 3449              		.loc 1 770 0
 3450              		.loc 1 769 0
 3451 0000 FFF7FEBF 		b	chMBPost
 3452              	.LVL300:
 3453              	.LVL301:
 3454              	.LVL302:
 3455              		.cfi_endproc
 3456              	.LFE153:
 3457              		.size	_ZN10chibios_rt7Mailbox4postElm, .-_ZN10chibios_rt7Mailbox4postElm
 3458 0004 AFF30080 		.section	.text._ZN10chibios_rt7Mailbox5postSElm,"ax",%progbits
 3458      AFF30080 
 3458      AFF30080 
 3459              		.align	2
 3460              		.p2align 4,,15
 3461              		.global	_ZN10chibios_rt7Mailbox5postSElm
 3462              		.thumb
 3463              		.thumb_func
 3464              		.type	_ZN10chibios_rt7Mailbox5postSElm, %function
 3465              	_ZN10chibios_rt7Mailbox5postSElm:
 3466              	.LFB154:
 3467              		.loc 1 772 0
 3468              		.cfi_startproc
 3469              		@ args = 0, pretend = 0, frame = 0
 3470              		@ frame_needed = 0, uses_anonymous_args = 0
 3471              		@ link register save eliminated.
 3472              	.LVL303:
 3473              		.loc 1 775 0
 3474              		.loc 1 774 0
 3475 0000 FFF7FEBF 		b	chMBPostS
 3476              	.LVL304:
 3477              	.LVL305:
 3478              	.LVL306:
ARM GAS  /tmp/ccq01laD.s 			page 65


 3479              		.cfi_endproc
 3480              	.LFE154:
 3481              		.size	_ZN10chibios_rt7Mailbox5postSElm, .-_ZN10chibios_rt7Mailbox5postSElm
 3482 0004 AFF30080 		.section	.text._ZN10chibios_rt7Mailbox5postIEl,"ax",%progbits
 3482      AFF30080 
 3482      AFF30080 
 3483              		.align	2
 3484              		.p2align 4,,15
 3485              		.global	_ZN10chibios_rt7Mailbox5postIEl
 3486              		.thumb
 3487              		.thumb_func
 3488              		.type	_ZN10chibios_rt7Mailbox5postIEl, %function
 3489              	_ZN10chibios_rt7Mailbox5postIEl:
 3490              	.LFB155:
 3491              		.loc 1 777 0
 3492              		.cfi_startproc
 3493              		@ args = 0, pretend = 0, frame = 0
 3494              		@ frame_needed = 0, uses_anonymous_args = 0
 3495              		@ link register save eliminated.
 3496              	.LVL307:
 3497              		.loc 1 780 0
 3498              		.loc 1 779 0
 3499 0000 FFF7FEBF 		b	chMBPostI
 3500              	.LVL308:
 3501              	.LVL309:
 3502              		.cfi_endproc
 3503              	.LFE155:
 3504              		.size	_ZN10chibios_rt7Mailbox5postIEl, .-_ZN10chibios_rt7Mailbox5postIEl
 3505 0004 AFF30080 		.section	.text._ZN10chibios_rt7Mailbox9postAheadElm,"ax",%progbits
 3505      AFF30080 
 3505      AFF30080 
 3506              		.align	2
 3507              		.p2align 4,,15
 3508              		.global	_ZN10chibios_rt7Mailbox9postAheadElm
 3509              		.thumb
 3510              		.thumb_func
 3511              		.type	_ZN10chibios_rt7Mailbox9postAheadElm, %function
 3512              	_ZN10chibios_rt7Mailbox9postAheadElm:
 3513              	.LFB156:
 3514              		.loc 1 782 0
 3515              		.cfi_startproc
 3516              		@ args = 0, pretend = 0, frame = 0
 3517              		@ frame_needed = 0, uses_anonymous_args = 0
 3518              		@ link register save eliminated.
 3519              	.LVL310:
 3520              		.loc 1 785 0
 3521              		.loc 1 784 0
 3522 0000 FFF7FEBF 		b	chMBPostAhead
 3523              	.LVL311:
 3524              	.LVL312:
 3525              	.LVL313:
 3526              		.cfi_endproc
 3527              	.LFE156:
 3528              		.size	_ZN10chibios_rt7Mailbox9postAheadElm, .-_ZN10chibios_rt7Mailbox9postAheadElm
 3529 0004 AFF30080 		.section	.text._ZN10chibios_rt7Mailbox10postAheadSElm,"ax",%progbits
 3529      AFF30080 
 3529      AFF30080 
ARM GAS  /tmp/ccq01laD.s 			page 66


 3530              		.align	2
 3531              		.p2align 4,,15
 3532              		.global	_ZN10chibios_rt7Mailbox10postAheadSElm
 3533              		.thumb
 3534              		.thumb_func
 3535              		.type	_ZN10chibios_rt7Mailbox10postAheadSElm, %function
 3536              	_ZN10chibios_rt7Mailbox10postAheadSElm:
 3537              	.LFB157:
 3538              		.loc 1 787 0
 3539              		.cfi_startproc
 3540              		@ args = 0, pretend = 0, frame = 0
 3541              		@ frame_needed = 0, uses_anonymous_args = 0
 3542              		@ link register save eliminated.
 3543              	.LVL314:
 3544              		.loc 1 790 0
 3545              		.loc 1 789 0
 3546 0000 FFF7FEBF 		b	chMBPostAheadS
 3547              	.LVL315:
 3548              	.LVL316:
 3549              	.LVL317:
 3550              		.cfi_endproc
 3551              	.LFE157:
 3552              		.size	_ZN10chibios_rt7Mailbox10postAheadSElm, .-_ZN10chibios_rt7Mailbox10postAheadSElm
 3553 0004 AFF30080 		.section	.text._ZN10chibios_rt7Mailbox10postAheadIEl,"ax",%progbits
 3553      AFF30080 
 3553      AFF30080 
 3554              		.align	2
 3555              		.p2align 4,,15
 3556              		.global	_ZN10chibios_rt7Mailbox10postAheadIEl
 3557              		.thumb
 3558              		.thumb_func
 3559              		.type	_ZN10chibios_rt7Mailbox10postAheadIEl, %function
 3560              	_ZN10chibios_rt7Mailbox10postAheadIEl:
 3561              	.LFB158:
 3562              		.loc 1 792 0
 3563              		.cfi_startproc
 3564              		@ args = 0, pretend = 0, frame = 0
 3565              		@ frame_needed = 0, uses_anonymous_args = 0
 3566              		@ link register save eliminated.
 3567              	.LVL318:
 3568              		.loc 1 795 0
 3569              		.loc 1 794 0
 3570 0000 FFF7FEBF 		b	chMBPostAheadI
 3571              	.LVL319:
 3572              	.LVL320:
 3573              		.cfi_endproc
 3574              	.LFE158:
 3575              		.size	_ZN10chibios_rt7Mailbox10postAheadIEl, .-_ZN10chibios_rt7Mailbox10postAheadIEl
 3576 0004 AFF30080 		.section	.text._ZN10chibios_rt7Mailbox5fetchEPlm,"ax",%progbits
 3576      AFF30080 
 3576      AFF30080 
 3577              		.align	2
 3578              		.p2align 4,,15
 3579              		.global	_ZN10chibios_rt7Mailbox5fetchEPlm
 3580              		.thumb
 3581              		.thumb_func
 3582              		.type	_ZN10chibios_rt7Mailbox5fetchEPlm, %function
ARM GAS  /tmp/ccq01laD.s 			page 67


 3583              	_ZN10chibios_rt7Mailbox5fetchEPlm:
 3584              	.LFB159:
 3585              		.loc 1 797 0
 3586              		.cfi_startproc
 3587              		@ args = 0, pretend = 0, frame = 0
 3588              		@ frame_needed = 0, uses_anonymous_args = 0
 3589              		@ link register save eliminated.
 3590              	.LVL321:
 3591              		.loc 1 800 0
 3592              		.loc 1 799 0
 3593 0000 FFF7FEBF 		b	chMBFetch
 3594              	.LVL322:
 3595              	.LVL323:
 3596              	.LVL324:
 3597              		.cfi_endproc
 3598              	.LFE159:
 3599              		.size	_ZN10chibios_rt7Mailbox5fetchEPlm, .-_ZN10chibios_rt7Mailbox5fetchEPlm
 3600 0004 AFF30080 		.section	.text._ZN10chibios_rt7Mailbox6fetchSEPlm,"ax",%progbits
 3600      AFF30080 
 3600      AFF30080 
 3601              		.align	2
 3602              		.p2align 4,,15
 3603              		.global	_ZN10chibios_rt7Mailbox6fetchSEPlm
 3604              		.thumb
 3605              		.thumb_func
 3606              		.type	_ZN10chibios_rt7Mailbox6fetchSEPlm, %function
 3607              	_ZN10chibios_rt7Mailbox6fetchSEPlm:
 3608              	.LFB160:
 3609              		.loc 1 802 0
 3610              		.cfi_startproc
 3611              		@ args = 0, pretend = 0, frame = 0
 3612              		@ frame_needed = 0, uses_anonymous_args = 0
 3613              		@ link register save eliminated.
 3614              	.LVL325:
 3615              		.loc 1 805 0
 3616              		.loc 1 804 0
 3617 0000 FFF7FEBF 		b	chMBFetchS
 3618              	.LVL326:
 3619              	.LVL327:
 3620              	.LVL328:
 3621              		.cfi_endproc
 3622              	.LFE160:
 3623              		.size	_ZN10chibios_rt7Mailbox6fetchSEPlm, .-_ZN10chibios_rt7Mailbox6fetchSEPlm
 3624 0004 AFF30080 		.section	.text._ZN10chibios_rt7Mailbox6fetchIEPl,"ax",%progbits
 3624      AFF30080 
 3624      AFF30080 
 3625              		.align	2
 3626              		.p2align 4,,15
 3627              		.global	_ZN10chibios_rt7Mailbox6fetchIEPl
 3628              		.thumb
 3629              		.thumb_func
 3630              		.type	_ZN10chibios_rt7Mailbox6fetchIEPl, %function
 3631              	_ZN10chibios_rt7Mailbox6fetchIEPl:
 3632              	.LFB161:
 3633              		.loc 1 807 0
 3634              		.cfi_startproc
 3635              		@ args = 0, pretend = 0, frame = 0
ARM GAS  /tmp/ccq01laD.s 			page 68


 3636              		@ frame_needed = 0, uses_anonymous_args = 0
 3637              		@ link register save eliminated.
 3638              	.LVL329:
 3639              		.loc 1 810 0
 3640              		.loc 1 809 0
 3641 0000 FFF7FEBF 		b	chMBFetchI
 3642              	.LVL330:
 3643              	.LVL331:
 3644              		.cfi_endproc
 3645              	.LFE161:
 3646              		.size	_ZN10chibios_rt7Mailbox6fetchIEPl, .-_ZN10chibios_rt7Mailbox6fetchIEPl
 3647 0004 AFF30080 		.section	.text._ZN10chibios_rt7Mailbox13getFreeCountIEv,"ax",%progbits
 3647      AFF30080 
 3647      AFF30080 
 3648              		.align	2
 3649              		.p2align 4,,15
 3650              		.global	_ZN10chibios_rt7Mailbox13getFreeCountIEv
 3651              		.thumb
 3652              		.thumb_func
 3653              		.type	_ZN10chibios_rt7Mailbox13getFreeCountIEv, %function
 3654              	_ZN10chibios_rt7Mailbox13getFreeCountIEv:
 3655              	.LFB162:
 3656              		.loc 1 812 0
 3657              		.cfi_startproc
 3658              		@ args = 0, pretend = 0, frame = 0
 3659              		@ frame_needed = 0, uses_anonymous_args = 0
 3660              		@ link register save eliminated.
 3661              	.LVL332:
 3662              		.loc 1 814 0
 3663 0000 406A     		ldr	r0, [r0, #36]
 3664              	.LVL333:
 3665              		.loc 1 815 0
 3666 0002 7047     		bx	lr
 3667              		.cfi_endproc
 3668              	.LFE162:
 3669              		.size	_ZN10chibios_rt7Mailbox13getFreeCountIEv, .-_ZN10chibios_rt7Mailbox13getFreeCountIEv
 3670 0004 AFF30080 		.section	.text._ZN10chibios_rt7Mailbox13getUsedCountIEv,"ax",%progbits
 3670      AFF30080 
 3670      AFF30080 
 3671              		.align	2
 3672              		.p2align 4,,15
 3673              		.global	_ZN10chibios_rt7Mailbox13getUsedCountIEv
 3674              		.thumb
 3675              		.thumb_func
 3676              		.type	_ZN10chibios_rt7Mailbox13getUsedCountIEv, %function
 3677              	_ZN10chibios_rt7Mailbox13getUsedCountIEv:
 3678              	.LFB163:
 3679              		.loc 1 817 0
 3680              		.cfi_startproc
 3681              		@ args = 0, pretend = 0, frame = 0
 3682              		@ frame_needed = 0, uses_anonymous_args = 0
 3683              		@ link register save eliminated.
 3684              	.LVL334:
 3685              		.loc 1 819 0
 3686 0000 8069     		ldr	r0, [r0, #24]
 3687              	.LVL335:
 3688              		.loc 1 820 0
ARM GAS  /tmp/ccq01laD.s 			page 69


 3689 0002 7047     		bx	lr
 3690              		.cfi_endproc
 3691              	.LFE163:
 3692              		.size	_ZN10chibios_rt7Mailbox13getUsedCountIEv, .-_ZN10chibios_rt7Mailbox13getUsedCountIEv
 3693 0004 AFF30080 		.section	.text._ZN10chibios_rt10MemoryPoolC2EjPFPvjE,"ax",%progbits
 3693      AFF30080 
 3693      AFF30080 
 3694              		.align	2
 3695              		.p2align 4,,15
 3696              		.global	_ZN10chibios_rt10MemoryPoolC2EjPFPvjE
 3697              		.thumb
 3698              		.thumb_func
 3699              		.type	_ZN10chibios_rt10MemoryPoolC2EjPFPvjE, %function
 3700              	_ZN10chibios_rt10MemoryPoolC2EjPFPvjE:
 3701              	.LFB165:
 3702              		.loc 1 827 0
 3703              		.cfi_startproc
 3704              		@ args = 0, pretend = 0, frame = 0
 3705              		@ frame_needed = 0, uses_anonymous_args = 0
 3706              	.LVL336:
 3707 0000 10B5     		push	{r4, lr}
 3708              	.LCFI31:
 3709              		.cfi_def_cfa_offset 8
 3710              		.cfi_offset 14, -4
 3711              		.cfi_offset 4, -8
 3712              		.loc 1 827 0
 3713 0002 0446     		mov	r4, r0
 3714              	.LBB82:
 3715              		.loc 1 829 0
 3716 0004 FFF7FEFF 		bl	chPoolInit
 3717              	.LVL337:
 3718              	.LBE82:
 3719              		.loc 1 830 0
 3720 0008 2046     		mov	r0, r4
 3721 000a 10BD     		pop	{r4, pc}
 3722              		.cfi_endproc
 3723              	.LFE165:
 3724              		.size	_ZN10chibios_rt10MemoryPoolC2EjPFPvjE, .-_ZN10chibios_rt10MemoryPoolC2EjPFPvjE
 3725 000c AFF30080 		.section	.text._ZN10chibios_rt10MemoryPoolC2EjPFPvjES1_j,"ax",%progbits
 3726              		.align	2
 3727              		.p2align 4,,15
 3728              		.global	_ZN10chibios_rt10MemoryPoolC2EjPFPvjES1_j
 3729              		.thumb
 3730              		.thumb_func
 3731              		.type	_ZN10chibios_rt10MemoryPoolC2EjPFPvjES1_j, %function
 3732              	_ZN10chibios_rt10MemoryPoolC2EjPFPvjES1_j:
 3733              	.LFB168:
 3734              		.loc 1 832 0
 3735              		.cfi_startproc
 3736              		@ args = 4, pretend = 0, frame = 0
 3737              		@ frame_needed = 0, uses_anonymous_args = 0
 3738              	.LVL338:
 3739 0000 38B5     		push	{r3, r4, r5, lr}
 3740              	.LCFI32:
 3741              		.cfi_def_cfa_offset 16
 3742              		.cfi_offset 14, -4
 3743              		.cfi_offset 5, -8
ARM GAS  /tmp/ccq01laD.s 			page 70


 3744              		.cfi_offset 4, -12
 3745              		.cfi_offset 3, -16
 3746              		.loc 1 832 0
 3747 0002 0446     		mov	r4, r0
 3748 0004 1D46     		mov	r5, r3
 3749              	.LBB83:
 3750              		.loc 1 834 0
 3751 0006 FFF7FEFF 		bl	chPoolInit
 3752              	.LVL339:
 3753              		.loc 1 835 0
 3754 000a 2046     		mov	r0, r4
 3755 000c 2946     		mov	r1, r5
 3756 000e 049A     		ldr	r2, [sp, #16]
 3757 0010 FFF7FEFF 		bl	chPoolLoadArray
 3758              	.LBE83:
 3759              		.loc 1 836 0
 3760 0014 2046     		mov	r0, r4
 3761 0016 38BD     		pop	{r3, r4, r5, pc}
 3762              		.cfi_endproc
 3763              	.LFE168:
 3764              		.size	_ZN10chibios_rt10MemoryPoolC2EjPFPvjES1_j, .-_ZN10chibios_rt10MemoryPoolC2EjPFPvjES1_j
 3765 0018 AFF30080 		.section	.text._ZN10chibios_rt10MemoryPool9loadArrayEPvj,"ax",%progbits
 3765      AFF30080 
 3766              		.align	2
 3767              		.p2align 4,,15
 3768              		.global	_ZN10chibios_rt10MemoryPool9loadArrayEPvj
 3769              		.thumb
 3770              		.thumb_func
 3771              		.type	_ZN10chibios_rt10MemoryPool9loadArrayEPvj, %function
 3772              	_ZN10chibios_rt10MemoryPool9loadArrayEPvj:
 3773              	.LFB170:
 3774              		.loc 1 839 0
 3775              		.cfi_startproc
 3776              		@ args = 0, pretend = 0, frame = 0
 3777              		@ frame_needed = 0, uses_anonymous_args = 0
 3778              		@ link register save eliminated.
 3779              	.LVL340:
 3780              		.loc 1 842 0
 3781              		.loc 1 841 0
 3782 0000 FFF7FEBF 		b	chPoolLoadArray
 3783              	.LVL341:
 3784              	.LVL342:
 3785              	.LVL343:
 3786              		.cfi_endproc
 3787              	.LFE170:
 3788              		.size	_ZN10chibios_rt10MemoryPool9loadArrayEPvj, .-_ZN10chibios_rt10MemoryPool9loadArrayEPvj
 3789 0004 AFF30080 		.section	.text._ZN10chibios_rt10MemoryPool6allocIEv,"ax",%progbits
 3789      AFF30080 
 3789      AFF30080 
 3790              		.align	2
 3791              		.p2align 4,,15
 3792              		.global	_ZN10chibios_rt10MemoryPool6allocIEv
 3793              		.thumb
 3794              		.thumb_func
 3795              		.type	_ZN10chibios_rt10MemoryPool6allocIEv, %function
 3796              	_ZN10chibios_rt10MemoryPool6allocIEv:
 3797              	.LFB171:
ARM GAS  /tmp/ccq01laD.s 			page 71


 3798              		.loc 1 844 0
 3799              		.cfi_startproc
 3800              		@ args = 0, pretend = 0, frame = 0
 3801              		@ frame_needed = 0, uses_anonymous_args = 0
 3802              		@ link register save eliminated.
 3803              	.LVL344:
 3804              		.loc 1 847 0
 3805              		.loc 1 846 0
 3806 0000 FFF7FEBF 		b	chPoolAllocI
 3807              	.LVL345:
 3808              		.cfi_endproc
 3809              	.LFE171:
 3810              		.size	_ZN10chibios_rt10MemoryPool6allocIEv, .-_ZN10chibios_rt10MemoryPool6allocIEv
 3811 0004 AFF30080 		.section	.text._ZN10chibios_rt10MemoryPool5allocEv,"ax",%progbits
 3811      AFF30080 
 3811      AFF30080 
 3812              		.align	2
 3813              		.p2align 4,,15
 3814              		.global	_ZN10chibios_rt10MemoryPool5allocEv
 3815              		.thumb
 3816              		.thumb_func
 3817              		.type	_ZN10chibios_rt10MemoryPool5allocEv, %function
 3818              	_ZN10chibios_rt10MemoryPool5allocEv:
 3819              	.LFB172:
 3820              		.loc 1 849 0
 3821              		.cfi_startproc
 3822              		@ args = 0, pretend = 0, frame = 0
 3823              		@ frame_needed = 0, uses_anonymous_args = 0
 3824              		@ link register save eliminated.
 3825              	.LVL346:
 3826              		.loc 1 852 0
 3827              		.loc 1 851 0
 3828 0000 FFF7FEBF 		b	chPoolAlloc
 3829              	.LVL347:
 3830              		.cfi_endproc
 3831              	.LFE172:
 3832              		.size	_ZN10chibios_rt10MemoryPool5allocEv, .-_ZN10chibios_rt10MemoryPool5allocEv
 3833 0004 AFF30080 		.section	.text._ZN10chibios_rt10MemoryPool4freeEPv,"ax",%progbits
 3833      AFF30080 
 3833      AFF30080 
 3834              		.align	2
 3835              		.p2align 4,,15
 3836              		.global	_ZN10chibios_rt10MemoryPool4freeEPv
 3837              		.thumb
 3838              		.thumb_func
 3839              		.type	_ZN10chibios_rt10MemoryPool4freeEPv, %function
 3840              	_ZN10chibios_rt10MemoryPool4freeEPv:
 3841              	.LFB173:
 3842              		.loc 1 854 0
 3843              		.cfi_startproc
 3844              		@ args = 0, pretend = 0, frame = 0
 3845              		@ frame_needed = 0, uses_anonymous_args = 0
 3846              		@ link register save eliminated.
 3847              	.LVL348:
 3848              		.loc 1 857 0
 3849              		.loc 1 856 0
 3850 0000 FFF7FEBF 		b	chPoolFree
ARM GAS  /tmp/ccq01laD.s 			page 72


 3851              	.LVL349:
 3852              	.LVL350:
 3853              		.cfi_endproc
 3854              	.LFE173:
 3855              		.size	_ZN10chibios_rt10MemoryPool4freeEPv, .-_ZN10chibios_rt10MemoryPool4freeEPv
 3856 0004 AFF30080 		.section	.text._ZN10chibios_rt10MemoryPool5freeIEPv,"ax",%progbits
 3856      AFF30080 
 3856      AFF30080 
 3857              		.align	2
 3858              		.p2align 4,,15
 3859              		.global	_ZN10chibios_rt10MemoryPool5freeIEPv
 3860              		.thumb
 3861              		.thumb_func
 3862              		.type	_ZN10chibios_rt10MemoryPool5freeIEPv, %function
 3863              	_ZN10chibios_rt10MemoryPool5freeIEPv:
 3864              	.LFB174:
 3865              		.loc 1 859 0
 3866              		.cfi_startproc
 3867              		@ args = 0, pretend = 0, frame = 0
 3868              		@ frame_needed = 0, uses_anonymous_args = 0
 3869              		@ link register save eliminated.
 3870              	.LVL351:
 3871              		.loc 1 862 0
 3872              		.loc 1 861 0
 3873 0000 FFF7FEBF 		b	chPoolFreeI
 3874              	.LVL352:
 3875              	.LVL353:
 3876              		.cfi_endproc
 3877              	.LFE174:
 3878              		.size	_ZN10chibios_rt10MemoryPool5freeIEPv, .-_ZN10chibios_rt10MemoryPool5freeIEPv
 3879              		.global	_ZTVN10chibios_rt15ThreadReferenceE
 3880              		.global	_ZTVN10chibios_rt10BaseThreadE
 3881              		.global	_ZN10chibios_rt10BaseThreadC1Ev
 3882              		.thumb_set _ZN10chibios_rt10BaseThreadC1Ev,_ZN10chibios_rt10BaseThreadC2Ev
 3883              		.global	_ZN10chibios_rt16CounterSemaphoreC1El
 3884              		.thumb_set _ZN10chibios_rt16CounterSemaphoreC1El,_ZN10chibios_rt16CounterSemaphoreC2El
 3885              		.global	_ZN10chibios_rt15BinarySemaphoreC1Eb
 3886              		.thumb_set _ZN10chibios_rt15BinarySemaphoreC1Eb,_ZN10chibios_rt15BinarySemaphoreC2Eb
 3887              		.global	_ZN10chibios_rt5MutexC1Ev
 3888              		.thumb_set _ZN10chibios_rt5MutexC1Ev,_ZN10chibios_rt5MutexC2Ev
 3889              		.global	_ZN10chibios_rt7CondVarC1Ev
 3890              		.thumb_set _ZN10chibios_rt7CondVarC1Ev,_ZN10chibios_rt7CondVarC2Ev
 3891              		.global	_ZN10chibios_rt9EvtSourceC1Ev
 3892              		.thumb_set _ZN10chibios_rt9EvtSourceC1Ev,_ZN10chibios_rt9EvtSourceC2Ev
 3893              		.global	_ZN10chibios_rt7InQueueC1EPhjPFvP12GenericQueueEPv
 3894              		.thumb_set _ZN10chibios_rt7InQueueC1EPhjPFvP12GenericQueueEPv,_ZN10chibios_rt7InQueueC2EPhjPFvP12G
 3895              		.global	_ZN10chibios_rt8OutQueueC1EPhjPFvP12GenericQueueEPv
 3896              		.thumb_set _ZN10chibios_rt8OutQueueC1EPhjPFvP12GenericQueueEPv,_ZN10chibios_rt8OutQueueC2EPhjPFvP1
 3897              		.global	_ZN10chibios_rt7MailboxC1EPll
 3898              		.thumb_set _ZN10chibios_rt7MailboxC1EPll,_ZN10chibios_rt7MailboxC2EPll
 3899              		.global	_ZN10chibios_rt10MemoryPoolC1EjPFPvjE
 3900              		.thumb_set _ZN10chibios_rt10MemoryPoolC1EjPFPvjE,_ZN10chibios_rt10MemoryPoolC2EjPFPvjE
 3901              		.global	_ZN10chibios_rt10MemoryPoolC1EjPFPvjES1_j
 3902              		.thumb_set _ZN10chibios_rt10MemoryPoolC1EjPFPvjES1_j,_ZN10chibios_rt10MemoryPoolC2EjPFPvjES1_j
 3903 0004 AFF30080 		.section	.rodata._ZTVN10chibios_rt10BaseThreadE,"a",%progbits
 3903      AFF30080 
 3903      AFF30080 
ARM GAS  /tmp/ccq01laD.s 			page 73


 3904              		.align	3
 3905              		.set	.LANCHOR1,. + 0
 3906              		.type	_ZTVN10chibios_rt10BaseThreadE, %object
 3907              		.size	_ZTVN10chibios_rt10BaseThreadE, 20
 3908              	_ZTVN10chibios_rt10BaseThreadE:
 3909 0000 00000000 		.word	0
 3910 0004 00000000 		.word	0
 3911 0008 00000000 		.word	_ZN10chibios_rt15ThreadReference4stopEv
 3912 000c 00000000 		.word	_ZN10chibios_rt10BaseThread4mainEv
 3913 0010 00000000 		.word	_ZN10chibios_rt10BaseThread5startEm
 3914 0014 00000000 		.section	.rodata.str1.4,"aMS",%progbits,1
 3915              		.align	2
 3916              	.LC0:
 3917 0000 696E766F 		.ascii	"invoked unimplemented method stop()\000"
 3917      6B656420 
 3917      756E696D 
 3917      706C656D 
 3917      656E7465 
 3918              	.LC1:
 3919 0024 54687265 		.ascii	"ThreadReference, #1\000"
 3919      61645265 
 3919      66657265 
 3919      6E63652C 
 3919      20233100 
 3920              	.LC2:
 3921 0038 54687265 		.ascii	"ThreadReference, #2\000"
 3921      61645265 
 3921      66657265 
 3921      6E63652C 
 3921      20233200 
 3922              	.LC3:
 3923 004c 54687265 		.ascii	"ThreadReference, #3\000"
 3923      61645265 
 3923      66657265 
 3923      6E63652C 
 3923      20233300 
 3924              	.LC4:
 3925 0060 54687265 		.ascii	"ThreadReference, #4\000"
 3925      61645265 
 3925      66657265 
 3925      6E63652C 
 3925      20233400 
 3926              	.LC5:
 3927 0074 54687265 		.ascii	"ThreadReference, #5\000"
 3927      61645265 
 3927      66657265 
 3927      6E63652C 
 3927      20233500 
 3928              	.LC6:
 3929 0088 54687265 		.ascii	"ThreadReference, #6\000"
 3929      61645265 
 3929      66657265 
 3929      6E63652C 
 3929      20233600 
 3930              	.LC7:
 3931 009c 54687265 		.ascii	"ThreadReference, #7\000"
 3931      61645265 
ARM GAS  /tmp/ccq01laD.s 			page 74


 3931      66657265 
 3931      6E63652C 
 3931      20233700 
 3932              	.LC8:
 3933 00b0 54687265 		.ascii	"ThreadReference, #8\000"
 3933      61645265 
 3933      66657265 
 3933      6E63652C 
 3933      20233800 
 3934              	.LC9:
 3935 00c4 54687265 		.ascii	"ThreadReference, #9\000"
 3935      61645265 
 3935      66657265 
 3935      6E63652C 
 3935      20233900 
 3936              	.LC10:
 3937 00d8 54687265 		.ascii	"ThreadReference, #10\000"
 3937      61645265 
 3937      66657265 
 3937      6E63652C 
 3937      20233130 
 3938 00ed 000000   		.space	3
 3939              	.LC11:
 3940 00f0 54687265 		.ascii	"ThreadReference, #11\000"
 3940      61645265 
 3940      66657265 
 3940      6E63652C 
 3940      20233131 
 3941 0105 000000   		.section	.rodata._ZTVN10chibios_rt15ThreadReferenceE,"a",%progbits
 3942              		.align	3
 3943              		.set	.LANCHOR0,. + 0
 3944              		.type	_ZTVN10chibios_rt15ThreadReferenceE, %object
 3945              		.size	_ZTVN10chibios_rt15ThreadReferenceE, 12
 3946              	_ZTVN10chibios_rt15ThreadReferenceE:
 3947 0000 00000000 		.word	0
 3948 0004 00000000 		.word	0
 3949 0008 00000000 		.word	_ZN10chibios_rt15ThreadReference4stopEv
 3950 000c 00000000 		.text
 3951              	.Letext0:
 3952              		.file 3 "/home/tino/ChibiStudio/tools/GNU Tools ARM Embedded/4.6 2012q2/bin/../lib/gcc/arm-none-ea
 3953              		.file 4 "/home/tino/ChibiStudio/tools/GNU Tools ARM Embedded/4.6 2012q2/bin/../lib/gcc/arm-none-ea
 3954              		.file 5 "../../ChibiOS/os/ports/GCC/ARMCMx/chtypes.h"
 3955              		.file 6 "../../ChibiOS/os/kernel/include/chlists.h"
 3956              		.file 7 "../../ChibiOS/os/kernel/include/chthreads.h"
 3957              		.file 8 "../../ChibiOS/os/ports/GCC/ARMCMx/chcore_v7m.h"
 3958              		.file 9 "../../ChibiOS/os/kernel/include/chvt.h"
 3959              		.file 10 "../../ChibiOS/os/kernel/include/chschd.h"
 3960              		.file 11 "../../ChibiOS/os/kernel/include/chsem.h"
 3961              		.file 12 "../../ChibiOS/os/kernel/include/chbsem.h"
 3962              		.file 13 "../../ChibiOS/os/kernel/include/chmtx.h"
 3963              		.file 14 "../../ChibiOS/os/kernel/include/chcond.h"
 3964              		.file 15 "../../ChibiOS/os/kernel/include/chevents.h"
 3965              		.file 16 "../../ChibiOS/os/kernel/include/chmboxes.h"
 3966              		.file 17 "../../ChibiOS/os/kernel/include/chmemcore.h"
 3967              		.file 18 "../../ChibiOS/os/kernel/include/chmempools.h"
 3968              		.file 19 "../../ChibiOS/os/kernel/include/chqueues.h"
 3969              		.section	.debug_info,"",%progbits
ARM GAS  /tmp/ccq01laD.s 			page 75


 3970              	.Ldebug_info0:
 3971 0000 B1380000 		.4byte	0x38b1
 3972 0004 0200     		.2byte	0x2
 3973 0006 00000000 		.4byte	.Ldebug_abbrev0
 3974 000a 04       		.byte	0x4
 3975 000b 01       		.uleb128 0x1
 3976 000c 99080000 		.4byte	.LASF386
 3977 0010 04       		.byte	0x4
 3978 0011 90180000 		.4byte	.LASF387
 3979 0015 80010000 		.4byte	.LASF388
 3980 0019 00000000 		.4byte	0
 3981 001d 00000000 		.4byte	0
 3982 0021 98000000 		.4byte	.Ldebug_ranges0+0x98
 3983 0025 00000000 		.4byte	.Ldebug_line0
 3984 0029 02       		.uleb128 0x2
 3985 002a 04       		.byte	0x4
 3986 002b 05       		.byte	0x5
 3987 002c 696E7400 		.ascii	"int\000"
 3988 0030 03       		.uleb128 0x3
 3989 0031 CD0A0000 		.4byte	.LASF2
 3990 0035 03       		.byte	0x3
 3991 0036 D4       		.byte	0xd4
 3992 0037 3B000000 		.4byte	0x3b
 3993 003b 04       		.uleb128 0x4
 3994 003c 04       		.byte	0x4
 3995 003d 07       		.byte	0x7
 3996 003e F4020000 		.4byte	.LASF0
 3997 0042 04       		.uleb128 0x4
 3998 0043 01       		.byte	0x1
 3999 0044 06       		.byte	0x6
 4000 0045 431B0000 		.4byte	.LASF1
 4001 0049 03       		.uleb128 0x3
 4002 004a 3B0E0000 		.4byte	.LASF3
 4003 004e 04       		.byte	0x4
 4004 004f 2A       		.byte	0x2a
 4005 0050 54000000 		.4byte	0x54
 4006 0054 04       		.uleb128 0x4
 4007 0055 01       		.byte	0x1
 4008 0056 08       		.byte	0x8
 4009 0057 82180000 		.4byte	.LASF4
 4010 005b 04       		.uleb128 0x4
 4011 005c 02       		.byte	0x2
 4012 005d 05       		.byte	0x5
 4013 005e 70140000 		.4byte	.LASF5
 4014 0062 04       		.uleb128 0x4
 4015 0063 02       		.byte	0x2
 4016 0064 07       		.byte	0x7
 4017 0065 A31B0000 		.4byte	.LASF6
 4018 0069 03       		.uleb128 0x3
 4019 006a B0170000 		.4byte	.LASF7
 4020 006e 04       		.byte	0x4
 4021 006f 4F       		.byte	0x4f
 4022 0070 74000000 		.4byte	0x74
 4023 0074 04       		.uleb128 0x4
 4024 0075 04       		.byte	0x4
 4025 0076 05       		.byte	0x5
 4026 0077 B4140000 		.4byte	.LASF8
ARM GAS  /tmp/ccq01laD.s 			page 76


 4027 007b 03       		.uleb128 0x3
 4028 007c EC060000 		.4byte	.LASF9
 4029 0080 04       		.byte	0x4
 4030 0081 50       		.byte	0x50
 4031 0082 86000000 		.4byte	0x86
 4032 0086 04       		.uleb128 0x4
 4033 0087 04       		.byte	0x4
 4034 0088 07       		.byte	0x7
 4035 0089 4C170000 		.4byte	.LASF10
 4036 008d 04       		.uleb128 0x4
 4037 008e 08       		.byte	0x8
 4038 008f 05       		.byte	0x5
 4039 0090 2D0F0000 		.4byte	.LASF11
 4040 0094 03       		.uleb128 0x3
 4041 0095 9F150000 		.4byte	.LASF12
 4042 0099 04       		.byte	0x4
 4043 009a 78       		.byte	0x78
 4044 009b 9F000000 		.4byte	0x9f
 4045 009f 04       		.uleb128 0x4
 4046 00a0 08       		.byte	0x8
 4047 00a1 07       		.byte	0x7
 4048 00a2 1F080000 		.4byte	.LASF13
 4049 00a6 03       		.uleb128 0x3
 4050 00a7 170B0000 		.4byte	.LASF14
 4051 00ab 05       		.byte	0x5
 4052 00ac 24       		.byte	0x24
 4053 00ad B1000000 		.4byte	0xb1
 4054 00b1 04       		.uleb128 0x4
 4055 00b2 01       		.byte	0x1
 4056 00b3 02       		.byte	0x2
 4057 00b4 EC0F0000 		.4byte	.LASF15
 4058 00b8 03       		.uleb128 0x3
 4059 00b9 AD120000 		.4byte	.LASF16
 4060 00bd 05       		.byte	0x5
 4061 00be 25       		.byte	0x25
 4062 00bf 49000000 		.4byte	0x49
 4063 00c3 03       		.uleb128 0x3
 4064 00c4 DC0D0000 		.4byte	.LASF17
 4065 00c8 05       		.byte	0x5
 4066 00c9 26       		.byte	0x26
 4067 00ca 49000000 		.4byte	0x49
 4068 00ce 03       		.uleb128 0x3
 4069 00cf 36170000 		.4byte	.LASF18
 4070 00d3 05       		.byte	0x5
 4071 00d4 27       		.byte	0x27
 4072 00d5 49000000 		.4byte	0x49
 4073 00d9 03       		.uleb128 0x3
 4074 00da 1B110000 		.4byte	.LASF19
 4075 00de 05       		.byte	0x5
 4076 00df 28       		.byte	0x28
 4077 00e0 49000000 		.4byte	0x49
 4078 00e4 03       		.uleb128 0x3
 4079 00e5 77070000 		.4byte	.LASF20
 4080 00e9 05       		.byte	0x5
 4081 00ea 29       		.byte	0x29
 4082 00eb 7B000000 		.4byte	0x7b
 4083 00ef 03       		.uleb128 0x3
ARM GAS  /tmp/ccq01laD.s 			page 77


 4084 00f0 6B0F0000 		.4byte	.LASF21
 4085 00f4 05       		.byte	0x5
 4086 00f5 2A       		.byte	0x2a
 4087 00f6 69000000 		.4byte	0x69
 4088 00fa 03       		.uleb128 0x3
 4089 00fb F21C0000 		.4byte	.LASF22
 4090 00ff 05       		.byte	0x5
 4091 0100 2B       		.byte	0x2b
 4092 0101 69000000 		.4byte	0x69
 4093 0105 03       		.uleb128 0x3
 4094 0106 F5060000 		.4byte	.LASF23
 4095 010a 05       		.byte	0x5
 4096 010b 2C       		.byte	0x2c
 4097 010c 7B000000 		.4byte	0x7b
 4098 0110 03       		.uleb128 0x3
 4099 0111 480E0000 		.4byte	.LASF24
 4100 0115 05       		.byte	0x5
 4101 0116 2D       		.byte	0x2d
 4102 0117 7B000000 		.4byte	0x7b
 4103 011b 03       		.uleb128 0x3
 4104 011c 75020000 		.4byte	.LASF25
 4105 0120 05       		.byte	0x5
 4106 0121 2E       		.byte	0x2e
 4107 0122 7B000000 		.4byte	0x7b
 4108 0126 03       		.uleb128 0x3
 4109 0127 0B090000 		.4byte	.LASF26
 4110 012b 05       		.byte	0x5
 4111 012c 2F       		.byte	0x2f
 4112 012d 69000000 		.4byte	0x69
 4113 0131 03       		.uleb128 0x3
 4114 0132 D50D0000 		.4byte	.LASF27
 4115 0136 06       		.byte	0x6
 4116 0137 23       		.byte	0x23
 4117 0138 3C010000 		.4byte	0x13c
 4118 013c 05       		.uleb128 0x5
 4119 013d D50D0000 		.4byte	.LASF27
 4120 0141 4C       		.byte	0x4c
 4121 0142 07       		.byte	0x7
 4122 0143 57       		.byte	0x57
 4123 0144 A4020000 		.4byte	0x2a4
 4124 0148 06       		.uleb128 0x6
 4125 0149 04       		.byte	0x4
 4126 014a 07       		.byte	0x7
 4127 014b 8F       		.byte	0x8f
 4128 014c 7D010000 		.4byte	0x17d
 4129 0150 07       		.uleb128 0x7
 4130 0151 D40A0000 		.4byte	.LASF28
 4131 0155 07       		.byte	0x7
 4132 0156 96       		.byte	0x96
 4133 0157 EF000000 		.4byte	0xef
 4134 015b 07       		.uleb128 0x7
 4135 015c 9B1D0000 		.4byte	.LASF29
 4136 0160 07       		.byte	0x7
 4137 0161 9D       		.byte	0x9d
 4138 0162 EF000000 		.4byte	0xef
 4139 0166 07       		.uleb128 0x7
 4140 0167 54040000 		.4byte	.LASF30
ARM GAS  /tmp/ccq01laD.s 			page 78


 4141 016b 07       		.byte	0x7
 4142 016c A4       		.byte	0xa4
 4143 016d 0F030000 		.4byte	0x30f
 4144 0171 07       		.uleb128 0x7
 4145 0172 FB040000 		.4byte	.LASF31
 4146 0176 07       		.byte	0x7
 4147 0177 AB       		.byte	0xab
 4148 0178 05010000 		.4byte	0x105
 4149 017c 00       		.byte	0
 4150 017d 08       		.uleb128 0x8
 4151 017e 7E150000 		.4byte	.LASF32
 4152 0182 07       		.byte	0x7
 4153 0183 58       		.byte	0x58
 4154 0184 6A070000 		.4byte	0x76a
 4155 0188 02       		.byte	0x2
 4156 0189 23       		.byte	0x23
 4157 018a 00       		.uleb128 0
 4158 018b 08       		.uleb128 0x8
 4159 018c 2F170000 		.4byte	.LASF33
 4160 0190 07       		.byte	0x7
 4161 0191 5A       		.byte	0x5a
 4162 0192 6A070000 		.4byte	0x76a
 4163 0196 02       		.byte	0x2
 4164 0197 23       		.byte	0x23
 4165 0198 04       		.uleb128 0x4
 4166 0199 08       		.uleb128 0x8
 4167 019a C2010000 		.4byte	.LASF34
 4168 019e 07       		.byte	0x7
 4169 019f 5C       		.byte	0x5c
 4170 01a0 E4000000 		.4byte	0xe4
 4171 01a4 02       		.byte	0x2
 4172 01a5 23       		.byte	0x23
 4173 01a6 08       		.uleb128 0x8
 4174 01a7 08       		.uleb128 0x8
 4175 01a8 A8150000 		.4byte	.LASF35
 4176 01ac 07       		.byte	0x7
 4177 01ad 5D       		.byte	0x5d
 4178 01ae AA030000 		.4byte	0x3aa
 4179 01b2 02       		.byte	0x2
 4180 01b3 23       		.byte	0x23
 4181 01b4 0C       		.uleb128 0xc
 4182 01b5 08       		.uleb128 0x8
 4183 01b6 0F0A0000 		.4byte	.LASF36
 4184 01ba 07       		.byte	0x7
 4185 01bb 5F       		.byte	0x5f
 4186 01bc 6A070000 		.4byte	0x76a
 4187 01c0 02       		.byte	0x2
 4188 01c1 23       		.byte	0x23
 4189 01c2 10       		.uleb128 0x10
 4190 01c3 08       		.uleb128 0x8
 4191 01c4 140E0000 		.4byte	.LASF37
 4192 01c8 07       		.byte	0x7
 4193 01c9 60       		.byte	0x60
 4194 01ca 6A070000 		.4byte	0x76a
 4195 01ce 02       		.byte	0x2
 4196 01cf 23       		.byte	0x23
 4197 01d0 14       		.uleb128 0x14
ARM GAS  /tmp/ccq01laD.s 			page 79


 4198 01d1 08       		.uleb128 0x8
 4199 01d2 F40C0000 		.4byte	.LASF38
 4200 01d6 07       		.byte	0x7
 4201 01d7 67       		.byte	0x67
 4202 01d8 70070000 		.4byte	0x770
 4203 01dc 02       		.byte	0x2
 4204 01dd 23       		.byte	0x23
 4205 01de 18       		.uleb128 0x18
 4206 01df 08       		.uleb128 0x8
 4207 01e0 240E0000 		.4byte	.LASF39
 4208 01e4 07       		.byte	0x7
 4209 01e5 6D       		.byte	0x6d
 4210 01e6 82070000 		.4byte	0x782
 4211 01ea 02       		.byte	0x2
 4212 01eb 23       		.byte	0x23
 4213 01ec 1C       		.uleb128 0x1c
 4214 01ed 08       		.uleb128 0x8
 4215 01ee 1C0E0000 		.4byte	.LASF40
 4216 01f2 07       		.byte	0x7
 4217 01f3 72       		.byte	0x72
 4218 01f4 C3000000 		.4byte	0xc3
 4219 01f8 02       		.byte	0x2
 4220 01f9 23       		.byte	0x23
 4221 01fa 20       		.uleb128 0x20
 4222 01fb 08       		.uleb128 0x8
 4223 01fc F80F0000 		.4byte	.LASF41
 4224 0200 07       		.byte	0x7
 4225 0201 76       		.byte	0x76
 4226 0202 B8000000 		.4byte	0xb8
 4227 0206 02       		.byte	0x2
 4228 0207 23       		.byte	0x23
 4229 0208 21       		.uleb128 0x21
 4230 0209 08       		.uleb128 0x8
 4231 020a DD180000 		.4byte	.LASF42
 4232 020e 07       		.byte	0x7
 4233 020f 7B       		.byte	0x7b
 4234 0210 CE000000 		.4byte	0xce
 4235 0214 02       		.byte	0x2
 4236 0215 23       		.byte	0x23
 4237 0216 22       		.uleb128 0x22
 4238 0217 08       		.uleb128 0x8
 4239 0218 77190000 		.4byte	.LASF43
 4240 021c 07       		.byte	0x7
 4241 021d 81       		.byte	0x81
 4242 021e D9000000 		.4byte	0xd9
 4243 0222 02       		.byte	0x2
 4244 0223 23       		.byte	0x23
 4245 0224 23       		.uleb128 0x23
 4246 0225 08       		.uleb128 0x8
 4247 0226 79010000 		.4byte	.LASF44
 4248 022a 07       		.byte	0x7
 4249 022b 88       		.byte	0x88
 4250 022c 98040000 		.4byte	0x498
 4251 0230 02       		.byte	0x2
 4252 0231 23       		.byte	0x23
 4253 0232 24       		.uleb128 0x24
 4254 0233 09       		.uleb128 0x9
ARM GAS  /tmp/ccq01laD.s 			page 80


 4255 0234 705F7500 		.ascii	"p_u\000"
 4256 0238 07       		.byte	0x7
 4257 0239 AD       		.byte	0xad
 4258 023a 48010000 		.4byte	0x148
 4259 023e 02       		.byte	0x2
 4260 023f 23       		.byte	0x23
 4261 0240 28       		.uleb128 0x28
 4262 0241 08       		.uleb128 0x8
 4263 0242 71000000 		.4byte	.LASF45
 4264 0246 07       		.byte	0x7
 4265 0247 B2       		.byte	0xb2
 4266 0248 F9020000 		.4byte	0x2f9
 4267 024c 02       		.byte	0x2
 4268 024d 23       		.byte	0x23
 4269 024e 2C       		.uleb128 0x2c
 4270 024f 08       		.uleb128 0x8
 4271 0250 E2020000 		.4byte	.LASF46
 4272 0254 07       		.byte	0x7
 4273 0255 B8       		.byte	0xb8
 4274 0256 D3020000 		.4byte	0x2d3
 4275 025a 02       		.byte	0x2
 4276 025b 23       		.byte	0x23
 4277 025c 30       		.uleb128 0x30
 4278 025d 08       		.uleb128 0x8
 4279 025e A7120000 		.4byte	.LASF47
 4280 0262 07       		.byte	0x7
 4281 0263 BC       		.byte	0xbc
 4282 0264 EF000000 		.4byte	0xef
 4283 0268 02       		.byte	0x2
 4284 0269 23       		.byte	0x23
 4285 026a 38       		.uleb128 0x38
 4286 026b 08       		.uleb128 0x8
 4287 026c A1140000 		.4byte	.LASF48
 4288 0270 07       		.byte	0x7
 4289 0271 C2       		.byte	0xc2
 4290 0272 05010000 		.4byte	0x105
 4291 0276 02       		.byte	0x2
 4292 0277 23       		.byte	0x23
 4293 0278 3C       		.uleb128 0x3c
 4294 0279 08       		.uleb128 0x8
 4295 027a 940E0000 		.4byte	.LASF49
 4296 027e 07       		.byte	0x7
 4297 027f C9       		.byte	0xc9
 4298 0280 88070000 		.4byte	0x788
 4299 0284 02       		.byte	0x2
 4300 0285 23       		.byte	0x23
 4301 0286 40       		.uleb128 0x40
 4302 0287 08       		.uleb128 0x8
 4303 0288 41140000 		.4byte	.LASF50
 4304 028c 07       		.byte	0x7
 4305 028d CD       		.byte	0xcd
 4306 028e E4000000 		.4byte	0xe4
 4307 0292 02       		.byte	0x2
 4308 0293 23       		.byte	0x23
 4309 0294 44       		.uleb128 0x44
 4310 0295 08       		.uleb128 0x8
 4311 0296 800E0000 		.4byte	.LASF51
ARM GAS  /tmp/ccq01laD.s 			page 81


 4312 029a 07       		.byte	0x7
 4313 029b D3       		.byte	0xd3
 4314 029c 0F030000 		.4byte	0x30f
 4315 02a0 02       		.byte	0x2
 4316 02a1 23       		.byte	0x23
 4317 02a2 48       		.uleb128 0x48
 4318 02a3 00       		.byte	0
 4319 02a4 0A       		.uleb128 0xa
 4320 02a5 08       		.byte	0x8
 4321 02a6 06       		.byte	0x6
 4322 02a7 5A       		.byte	0x5a
 4323 02a8 8C0B0000 		.4byte	.LASF53
 4324 02ac CD020000 		.4byte	0x2cd
 4325 02b0 08       		.uleb128 0x8
 4326 02b1 7E150000 		.4byte	.LASF32
 4327 02b5 06       		.byte	0x6
 4328 02b6 5B       		.byte	0x5b
 4329 02b7 CD020000 		.4byte	0x2cd
 4330 02bb 02       		.byte	0x2
 4331 02bc 23       		.byte	0x23
 4332 02bd 00       		.uleb128 0
 4333 02be 08       		.uleb128 0x8
 4334 02bf 2F170000 		.4byte	.LASF33
 4335 02c3 06       		.byte	0x6
 4336 02c4 5D       		.byte	0x5d
 4337 02c5 CD020000 		.4byte	0x2cd
 4338 02c9 02       		.byte	0x2
 4339 02ca 23       		.byte	0x23
 4340 02cb 04       		.uleb128 0x4
 4341 02cc 00       		.byte	0
 4342 02cd 0B       		.uleb128 0xb
 4343 02ce 04       		.byte	0x4
 4344 02cf 31010000 		.4byte	0x131
 4345 02d3 03       		.uleb128 0x3
 4346 02d4 470D0000 		.4byte	.LASF52
 4347 02d8 06       		.byte	0x6
 4348 02d9 5F       		.byte	0x5f
 4349 02da A4020000 		.4byte	0x2a4
 4350 02de 0A       		.uleb128 0xa
 4351 02df 04       		.byte	0x4
 4352 02e0 06       		.byte	0x6
 4353 02e1 64       		.byte	0x64
 4354 02e2 B9030000 		.4byte	.LASF54
 4355 02e6 F9020000 		.4byte	0x2f9
 4356 02ea 08       		.uleb128 0x8
 4357 02eb 7E150000 		.4byte	.LASF32
 4358 02ef 06       		.byte	0x6
 4359 02f0 66       		.byte	0x66
 4360 02f1 CD020000 		.4byte	0x2cd
 4361 02f5 02       		.byte	0x2
 4362 02f6 23       		.byte	0x23
 4363 02f7 00       		.uleb128 0
 4364 02f8 00       		.byte	0
 4365 02f9 03       		.uleb128 0x3
 4366 02fa 65000000 		.4byte	.LASF55
 4367 02fe 06       		.byte	0x6
 4368 02ff 69       		.byte	0x69
ARM GAS  /tmp/ccq01laD.s 			page 82


 4369 0300 DE020000 		.4byte	0x2de
 4370 0304 03       		.uleb128 0x3
 4371 0305 B9010000 		.4byte	.LASF56
 4372 0309 08       		.byte	0x8
 4373 030a DE       		.byte	0xde
 4374 030b 0F030000 		.4byte	0x30f
 4375 030f 0C       		.uleb128 0xc
 4376 0310 04       		.byte	0x4
 4377 0311 03       		.uleb128 0x3
 4378 0312 E71B0000 		.4byte	.LASF57
 4379 0316 08       		.byte	0x8
 4380 0317 E4       		.byte	0xe4
 4381 0318 94000000 		.4byte	0x94
 4382 031c 0D       		.uleb128 0xd
 4383 031d 3B130000 		.4byte	.LASF58
 4384 0321 24       		.byte	0x24
 4385 0322 08       		.byte	0x8
 4386 0323 0501     		.2byte	0x105
 4387 0325 AA030000 		.4byte	0x3aa
 4388 0329 0E       		.uleb128 0xe
 4389 032a 723400   		.ascii	"r4\000"
 4390 032d 08       		.byte	0x8
 4391 032e 1801     		.2byte	0x118
 4392 0330 04030000 		.4byte	0x304
 4393 0334 02       		.byte	0x2
 4394 0335 23       		.byte	0x23
 4395 0336 00       		.uleb128 0
 4396 0337 0E       		.uleb128 0xe
 4397 0338 723500   		.ascii	"r5\000"
 4398 033b 08       		.byte	0x8
 4399 033c 1901     		.2byte	0x119
 4400 033e 04030000 		.4byte	0x304
 4401 0342 02       		.byte	0x2
 4402 0343 23       		.byte	0x23
 4403 0344 04       		.uleb128 0x4
 4404 0345 0E       		.uleb128 0xe
 4405 0346 723600   		.ascii	"r6\000"
 4406 0349 08       		.byte	0x8
 4407 034a 1A01     		.2byte	0x11a
 4408 034c 04030000 		.4byte	0x304
 4409 0350 02       		.byte	0x2
 4410 0351 23       		.byte	0x23
 4411 0352 08       		.uleb128 0x8
 4412 0353 0E       		.uleb128 0xe
 4413 0354 723700   		.ascii	"r7\000"
 4414 0357 08       		.byte	0x8
 4415 0358 1B01     		.2byte	0x11b
 4416 035a 04030000 		.4byte	0x304
 4417 035e 02       		.byte	0x2
 4418 035f 23       		.byte	0x23
 4419 0360 0C       		.uleb128 0xc
 4420 0361 0E       		.uleb128 0xe
 4421 0362 723800   		.ascii	"r8\000"
 4422 0365 08       		.byte	0x8
 4423 0366 1C01     		.2byte	0x11c
 4424 0368 04030000 		.4byte	0x304
 4425 036c 02       		.byte	0x2
ARM GAS  /tmp/ccq01laD.s 			page 83


 4426 036d 23       		.byte	0x23
 4427 036e 10       		.uleb128 0x10
 4428 036f 0E       		.uleb128 0xe
 4429 0370 723900   		.ascii	"r9\000"
 4430 0373 08       		.byte	0x8
 4431 0374 1D01     		.2byte	0x11d
 4432 0376 04030000 		.4byte	0x304
 4433 037a 02       		.byte	0x2
 4434 037b 23       		.byte	0x23
 4435 037c 14       		.uleb128 0x14
 4436 037d 0E       		.uleb128 0xe
 4437 037e 72313000 		.ascii	"r10\000"
 4438 0382 08       		.byte	0x8
 4439 0383 1E01     		.2byte	0x11e
 4440 0385 04030000 		.4byte	0x304
 4441 0389 02       		.byte	0x2
 4442 038a 23       		.byte	0x23
 4443 038b 18       		.uleb128 0x18
 4444 038c 0E       		.uleb128 0xe
 4445 038d 72313100 		.ascii	"r11\000"
 4446 0391 08       		.byte	0x8
 4447 0392 1F01     		.2byte	0x11f
 4448 0394 04030000 		.4byte	0x304
 4449 0398 02       		.byte	0x2
 4450 0399 23       		.byte	0x23
 4451 039a 1C       		.uleb128 0x1c
 4452 039b 0E       		.uleb128 0xe
 4453 039c 6C7200   		.ascii	"lr\000"
 4454 039f 08       		.byte	0x8
 4455 03a0 2001     		.2byte	0x120
 4456 03a2 04030000 		.4byte	0x304
 4457 03a6 02       		.byte	0x2
 4458 03a7 23       		.byte	0x23
 4459 03a8 20       		.uleb128 0x20
 4460 03a9 00       		.byte	0
 4461 03aa 0D       		.uleb128 0xd
 4462 03ab 980F0000 		.4byte	.LASF59
 4463 03af 04       		.byte	0x4
 4464 03b0 08       		.byte	0x8
 4465 03b1 2A01     		.2byte	0x12a
 4466 03b3 C7030000 		.4byte	0x3c7
 4467 03b7 0E       		.uleb128 0xe
 4468 03b8 72313300 		.ascii	"r13\000"
 4469 03bc 08       		.byte	0x8
 4470 03bd 2B01     		.2byte	0x12b
 4471 03bf C7030000 		.4byte	0x3c7
 4472 03c3 02       		.byte	0x2
 4473 03c4 23       		.byte	0x23
 4474 03c5 00       		.uleb128 0
 4475 03c6 00       		.byte	0
 4476 03c7 0B       		.uleb128 0xb
 4477 03c8 04       		.byte	0x4
 4478 03c9 1C030000 		.4byte	0x31c
 4479 03cd 03       		.uleb128 0x3
 4480 03ce 2B000000 		.4byte	.LASF60
 4481 03d2 09       		.byte	0x9
 4482 03d3 4E       		.byte	0x4e
ARM GAS  /tmp/ccq01laD.s 			page 84


 4483 03d4 D8030000 		.4byte	0x3d8
 4484 03d8 0B       		.uleb128 0xb
 4485 03d9 04       		.byte	0x4
 4486 03da DE030000 		.4byte	0x3de
 4487 03de 0F       		.uleb128 0xf
 4488 03df E9030000 		.4byte	0x3e9
 4489 03e3 10       		.uleb128 0x10
 4490 03e4 0F030000 		.4byte	0x30f
 4491 03e8 00       		.byte	0
 4492 03e9 03       		.uleb128 0x3
 4493 03ea 29160000 		.4byte	.LASF61
 4494 03ee 09       		.byte	0x9
 4495 03ef 53       		.byte	0x53
 4496 03f0 F4030000 		.4byte	0x3f4
 4497 03f4 05       		.uleb128 0x5
 4498 03f5 29160000 		.4byte	.LASF61
 4499 03f9 14       		.byte	0x14
 4500 03fa 09       		.byte	0x9
 4501 03fb 5A       		.byte	0x5a
 4502 03fc 47040000 		.4byte	0x447
 4503 0400 08       		.uleb128 0x8
 4504 0401 151A0000 		.4byte	.LASF62
 4505 0405 09       		.byte	0x9
 4506 0406 5B       		.byte	0x5b
 4507 0407 47040000 		.4byte	0x447
 4508 040b 02       		.byte	0x2
 4509 040c 23       		.byte	0x23
 4510 040d 00       		.uleb128 0
 4511 040e 08       		.uleb128 0x8
 4512 040f 951C0000 		.4byte	.LASF63
 4513 0413 09       		.byte	0x9
 4514 0414 5D       		.byte	0x5d
 4515 0415 47040000 		.4byte	0x447
 4516 0419 02       		.byte	0x2
 4517 041a 23       		.byte	0x23
 4518 041b 04       		.uleb128 0x4
 4519 041c 08       		.uleb128 0x8
 4520 041d B2060000 		.4byte	.LASF64
 4521 0421 09       		.byte	0x9
 4522 0422 5F       		.byte	0x5f
 4523 0423 1B010000 		.4byte	0x11b
 4524 0427 02       		.byte	0x2
 4525 0428 23       		.byte	0x23
 4526 0429 08       		.uleb128 0x8
 4527 042a 08       		.uleb128 0x8
 4528 042b 491C0000 		.4byte	.LASF65
 4529 042f 09       		.byte	0x9
 4530 0430 60       		.byte	0x60
 4531 0431 CD030000 		.4byte	0x3cd
 4532 0435 02       		.byte	0x2
 4533 0436 23       		.byte	0x23
 4534 0437 0C       		.uleb128 0xc
 4535 0438 08       		.uleb128 0x8
 4536 0439 10070000 		.4byte	.LASF66
 4537 043d 09       		.byte	0x9
 4538 043e 62       		.byte	0x62
 4539 043f 0F030000 		.4byte	0x30f
ARM GAS  /tmp/ccq01laD.s 			page 85


 4540 0443 02       		.byte	0x2
 4541 0444 23       		.byte	0x23
 4542 0445 10       		.uleb128 0x10
 4543 0446 00       		.byte	0
 4544 0447 0B       		.uleb128 0xb
 4545 0448 04       		.byte	0x4
 4546 0449 F4030000 		.4byte	0x3f4
 4547 044d 0A       		.uleb128 0xa
 4548 044e 10       		.byte	0x10
 4549 044f 09       		.byte	0x9
 4550 0450 6C       		.byte	0x6c
 4551 0451 2D110000 		.4byte	.LASF67
 4552 0455 92040000 		.4byte	0x492
 4553 0459 08       		.uleb128 0x8
 4554 045a 151A0000 		.4byte	.LASF62
 4555 045e 09       		.byte	0x9
 4556 045f 6D       		.byte	0x6d
 4557 0460 92040000 		.4byte	0x492
 4558 0464 02       		.byte	0x2
 4559 0465 23       		.byte	0x23
 4560 0466 00       		.uleb128 0
 4561 0467 08       		.uleb128 0x8
 4562 0468 951C0000 		.4byte	.LASF63
 4563 046c 09       		.byte	0x9
 4564 046d 6F       		.byte	0x6f
 4565 046e 92040000 		.4byte	0x492
 4566 0472 02       		.byte	0x2
 4567 0473 23       		.byte	0x23
 4568 0474 04       		.uleb128 0x4
 4569 0475 08       		.uleb128 0x8
 4570 0476 B2060000 		.4byte	.LASF64
 4571 047a 09       		.byte	0x9
 4572 047b 71       		.byte	0x71
 4573 047c 1B010000 		.4byte	0x11b
 4574 0480 02       		.byte	0x2
 4575 0481 23       		.byte	0x23
 4576 0482 08       		.uleb128 0x8
 4577 0483 08       		.uleb128 0x8
 4578 0484 B4020000 		.4byte	.LASF68
 4579 0488 09       		.byte	0x9
 4580 0489 72       		.byte	0x72
 4581 048a 98040000 		.4byte	0x498
 4582 048e 02       		.byte	0x2
 4583 048f 23       		.byte	0x23
 4584 0490 0C       		.uleb128 0xc
 4585 0491 00       		.byte	0
 4586 0492 0B       		.uleb128 0xb
 4587 0493 04       		.byte	0x4
 4588 0494 E9030000 		.4byte	0x3e9
 4589 0498 11       		.uleb128 0x11
 4590 0499 1B010000 		.4byte	0x11b
 4591 049d 03       		.uleb128 0x3
 4592 049e E50D0000 		.4byte	.LASF69
 4593 04a2 09       		.byte	0x9
 4594 04a3 73       		.byte	0x73
 4595 04a4 4D040000 		.4byte	0x44d
 4596 04a8 0A       		.uleb128 0xa
ARM GAS  /tmp/ccq01laD.s 			page 86


 4597 04a9 1C       		.byte	0x1c
 4598 04aa 0A       		.byte	0xa
 4599 04ab 57       		.byte	0x57
 4600 04ac A4110000 		.4byte	.LASF70
 4601 04b0 09050000 		.4byte	0x509
 4602 04b4 08       		.uleb128 0x8
 4603 04b5 540F0000 		.4byte	.LASF71
 4604 04b9 0A       		.byte	0xa
 4605 04ba 58       		.byte	0x58
 4606 04bb D3020000 		.4byte	0x2d3
 4607 04bf 02       		.byte	0x2
 4608 04c0 23       		.byte	0x23
 4609 04c1 00       		.uleb128 0
 4610 04c2 08       		.uleb128 0x8
 4611 04c3 01070000 		.4byte	.LASF72
 4612 04c7 0A       		.byte	0xa
 4613 04c8 59       		.byte	0x59
 4614 04c9 E4000000 		.4byte	0xe4
 4615 04cd 02       		.byte	0x2
 4616 04ce 23       		.byte	0x23
 4617 04cf 08       		.uleb128 0x8
 4618 04d0 08       		.uleb128 0x8
 4619 04d1 B61B0000 		.4byte	.LASF73
 4620 04d5 0A       		.byte	0xa
 4621 04d6 5B       		.byte	0x5b
 4622 04d7 AA030000 		.4byte	0x3aa
 4623 04db 02       		.byte	0x2
 4624 04dc 23       		.byte	0x23
 4625 04dd 0C       		.uleb128 0xc
 4626 04de 08       		.uleb128 0x8
 4627 04df C50D0000 		.4byte	.LASF74
 4628 04e3 0A       		.byte	0xa
 4629 04e4 5E       		.byte	0x5e
 4630 04e5 CD020000 		.4byte	0x2cd
 4631 04e9 02       		.byte	0x2
 4632 04ea 23       		.byte	0x23
 4633 04eb 10       		.uleb128 0x10
 4634 04ec 08       		.uleb128 0x8
 4635 04ed 25110000 		.4byte	.LASF75
 4636 04f1 0A       		.byte	0xa
 4637 04f2 5F       		.byte	0x5f
 4638 04f3 CD020000 		.4byte	0x2cd
 4639 04f7 02       		.byte	0x2
 4640 04f8 23       		.byte	0x23
 4641 04f9 14       		.uleb128 0x14
 4642 04fa 08       		.uleb128 0x8
 4643 04fb 83140000 		.4byte	.LASF76
 4644 04ff 0A       		.byte	0xa
 4645 0500 62       		.byte	0x62
 4646 0501 CD020000 		.4byte	0x2cd
 4647 0505 02       		.byte	0x2
 4648 0506 23       		.byte	0x23
 4649 0507 18       		.uleb128 0x18
 4650 0508 00       		.byte	0
 4651 0509 03       		.uleb128 0x3
 4652 050a E4180000 		.4byte	.LASF77
 4653 050e 0A       		.byte	0xa
ARM GAS  /tmp/ccq01laD.s 			page 87


 4654 050f 64       		.byte	0x64
 4655 0510 A8040000 		.4byte	0x4a8
 4656 0514 05       		.uleb128 0x5
 4657 0515 C2160000 		.4byte	.LASF78
 4658 0519 0C       		.byte	0xc
 4659 051a 0B       		.byte	0xb
 4660 051b 25       		.byte	0x25
 4661 051c 3D050000 		.4byte	0x53d
 4662 0520 08       		.uleb128 0x8
 4663 0521 AC020000 		.4byte	.LASF79
 4664 0525 0B       		.byte	0xb
 4665 0526 26       		.byte	0x26
 4666 0527 D3020000 		.4byte	0x2d3
 4667 052b 02       		.byte	0x2
 4668 052c 23       		.byte	0x23
 4669 052d 00       		.uleb128 0
 4670 052e 08       		.uleb128 0x8
 4671 052f 97050000 		.4byte	.LASF80
 4672 0533 0B       		.byte	0xb
 4673 0534 28       		.byte	0x28
 4674 0535 26010000 		.4byte	0x126
 4675 0539 02       		.byte	0x2
 4676 053a 23       		.byte	0x23
 4677 053b 08       		.uleb128 0x8
 4678 053c 00       		.byte	0
 4679 053d 03       		.uleb128 0x3
 4680 053e C2160000 		.4byte	.LASF78
 4681 0542 0B       		.byte	0xb
 4682 0543 29       		.byte	0x29
 4683 0544 14050000 		.4byte	0x514
 4684 0548 0A       		.uleb128 0xa
 4685 0549 0C       		.byte	0xc
 4686 054a 0C       		.byte	0xc
 4687 054b 3D       		.byte	0x3d
 4688 054c 2A0C0000 		.4byte	.LASF81
 4689 0550 63050000 		.4byte	0x563
 4690 0554 08       		.uleb128 0x8
 4691 0555 EA190000 		.4byte	.LASF82
 4692 0559 0C       		.byte	0xc
 4693 055a 3E       		.byte	0x3e
 4694 055b 3D050000 		.4byte	0x53d
 4695 055f 02       		.byte	0x2
 4696 0560 23       		.byte	0x23
 4697 0561 00       		.uleb128 0
 4698 0562 00       		.byte	0
 4699 0563 03       		.uleb128 0x3
 4700 0564 AC1D0000 		.4byte	.LASF83
 4701 0568 0C       		.byte	0xc
 4702 0569 3F       		.byte	0x3f
 4703 056a 48050000 		.4byte	0x548
 4704 056e 05       		.uleb128 0x5
 4705 056f 4E0C0000 		.4byte	.LASF84
 4706 0573 10       		.byte	0x10
 4707 0574 0D       		.byte	0xd
 4708 0575 25       		.byte	0x25
 4709 0576 A5050000 		.4byte	0x5a5
 4710 057a 08       		.uleb128 0x8
ARM GAS  /tmp/ccq01laD.s 			page 88


 4711 057b AC140000 		.4byte	.LASF85
 4712 057f 0D       		.byte	0xd
 4713 0580 26       		.byte	0x26
 4714 0581 D3020000 		.4byte	0x2d3
 4715 0585 02       		.byte	0x2
 4716 0586 23       		.byte	0x23
 4717 0587 00       		.uleb128 0
 4718 0588 08       		.uleb128 0x8
 4719 0589 A4020000 		.4byte	.LASF86
 4720 058d 0D       		.byte	0xd
 4721 058e 28       		.byte	0x28
 4722 058f CD020000 		.4byte	0x2cd
 4723 0593 02       		.byte	0x2
 4724 0594 23       		.byte	0x23
 4725 0595 08       		.uleb128 0x8
 4726 0596 08       		.uleb128 0x8
 4727 0597 F51A0000 		.4byte	.LASF87
 4728 059b 0D       		.byte	0xd
 4729 059c 2A       		.byte	0x2a
 4730 059d A5050000 		.4byte	0x5a5
 4731 05a1 02       		.byte	0x2
 4732 05a2 23       		.byte	0x23
 4733 05a3 0C       		.uleb128 0xc
 4734 05a4 00       		.byte	0
 4735 05a5 0B       		.uleb128 0xb
 4736 05a6 04       		.byte	0x4
 4737 05a7 6E050000 		.4byte	0x56e
 4738 05ab 03       		.uleb128 0x3
 4739 05ac 4E0C0000 		.4byte	.LASF84
 4740 05b0 0D       		.byte	0xd
 4741 05b1 2C       		.byte	0x2c
 4742 05b2 6E050000 		.4byte	0x56e
 4743 05b6 05       		.uleb128 0x5
 4744 05b7 A41D0000 		.4byte	.LASF88
 4745 05bb 08       		.byte	0x8
 4746 05bc 0E       		.byte	0xe
 4747 05bd 2F       		.byte	0x2f
 4748 05be D1050000 		.4byte	0x5d1
 4749 05c2 08       		.uleb128 0x8
 4750 05c3 35050000 		.4byte	.LASF89
 4751 05c7 0E       		.byte	0xe
 4752 05c8 30       		.byte	0x30
 4753 05c9 D3020000 		.4byte	0x2d3
 4754 05cd 02       		.byte	0x2
 4755 05ce 23       		.byte	0x23
 4756 05cf 00       		.uleb128 0
 4757 05d0 00       		.byte	0
 4758 05d1 03       		.uleb128 0x3
 4759 05d2 A41D0000 		.4byte	.LASF88
 4760 05d6 0E       		.byte	0xe
 4761 05d7 31       		.byte	0x31
 4762 05d8 B6050000 		.4byte	0x5b6
 4763 05dc 03       		.uleb128 0x3
 4764 05dd 3E170000 		.4byte	.LASF90
 4765 05e1 0F       		.byte	0xf
 4766 05e2 25       		.byte	0x25
 4767 05e3 E7050000 		.4byte	0x5e7
ARM GAS  /tmp/ccq01laD.s 			page 89


 4768 05e7 05       		.uleb128 0x5
 4769 05e8 3E170000 		.4byte	.LASF90
 4770 05ec 10       		.byte	0x10
 4771 05ed 0F       		.byte	0xf
 4772 05ee 2A       		.byte	0x2a
 4773 05ef 2C060000 		.4byte	0x62c
 4774 05f3 08       		.uleb128 0x8
 4775 05f4 6D120000 		.4byte	.LASF91
 4776 05f8 0F       		.byte	0xf
 4777 05f9 2B       		.byte	0x2b
 4778 05fa 2C060000 		.4byte	0x62c
 4779 05fe 02       		.byte	0x2
 4780 05ff 23       		.byte	0x23
 4781 0600 00       		.uleb128 0
 4782 0601 08       		.uleb128 0x8
 4783 0602 DF160000 		.4byte	.LASF92
 4784 0606 0F       		.byte	0xf
 4785 0607 2E       		.byte	0x2e
 4786 0608 CD020000 		.4byte	0x2cd
 4787 060c 02       		.byte	0x2
 4788 060d 23       		.byte	0x23
 4789 060e 04       		.uleb128 0x4
 4790 060f 08       		.uleb128 0x8
 4791 0610 FD030000 		.4byte	.LASF93
 4792 0614 0F       		.byte	0xf
 4793 0615 30       		.byte	0x30
 4794 0616 05010000 		.4byte	0x105
 4795 061a 02       		.byte	0x2
 4796 061b 23       		.byte	0x23
 4797 061c 08       		.uleb128 0x8
 4798 061d 08       		.uleb128 0x8
 4799 061e 921D0000 		.4byte	.LASF94
 4800 0622 0F       		.byte	0xf
 4801 0623 33       		.byte	0x33
 4802 0624 10010000 		.4byte	0x110
 4803 0628 02       		.byte	0x2
 4804 0629 23       		.byte	0x23
 4805 062a 0C       		.uleb128 0xc
 4806 062b 00       		.byte	0
 4807 062c 0B       		.uleb128 0xb
 4808 062d 04       		.byte	0x4
 4809 062e E7050000 		.4byte	0x5e7
 4810 0632 05       		.uleb128 0x5
 4811 0633 C10A0000 		.4byte	.LASF95
 4812 0637 04       		.byte	0x4
 4813 0638 0F       		.byte	0xf
 4814 0639 3A       		.byte	0x3a
 4815 063a 4D060000 		.4byte	0x64d
 4816 063e 08       		.uleb128 0x8
 4817 063f B2190000 		.4byte	.LASF96
 4818 0643 0F       		.byte	0xf
 4819 0644 3B       		.byte	0x3b
 4820 0645 4D060000 		.4byte	0x64d
 4821 0649 02       		.byte	0x2
 4822 064a 23       		.byte	0x23
 4823 064b 00       		.uleb128 0
 4824 064c 00       		.byte	0
ARM GAS  /tmp/ccq01laD.s 			page 90


 4825 064d 0B       		.uleb128 0xb
 4826 064e 04       		.byte	0x4
 4827 064f DC050000 		.4byte	0x5dc
 4828 0653 03       		.uleb128 0x3
 4829 0654 2F0E0000 		.4byte	.LASF97
 4830 0658 0F       		.byte	0xf
 4831 0659 43       		.byte	0x43
 4832 065a 5E060000 		.4byte	0x65e
 4833 065e 0B       		.uleb128 0xb
 4834 065f 04       		.byte	0x4
 4835 0660 64060000 		.4byte	0x664
 4836 0664 0F       		.uleb128 0xf
 4837 0665 6F060000 		.4byte	0x66f
 4838 0669 10       		.uleb128 0x10
 4839 066a FA000000 		.4byte	0xfa
 4840 066e 00       		.byte	0
 4841 066f 0A       		.uleb128 0xa
 4842 0670 28       		.byte	0x28
 4843 0671 10       		.byte	0x10
 4844 0672 2C       		.byte	0x2c
 4845 0673 F1100000 		.4byte	.LASF98
 4846 0677 D0060000 		.4byte	0x6d0
 4847 067b 08       		.uleb128 0x8
 4848 067c 68170000 		.4byte	.LASF99
 4849 0680 10       		.byte	0x10
 4850 0681 2D       		.byte	0x2d
 4851 0682 D0060000 		.4byte	0x6d0
 4852 0686 02       		.byte	0x2
 4853 0687 23       		.byte	0x23
 4854 0688 00       		.uleb128 0
 4855 0689 08       		.uleb128 0x8
 4856 068a A1100000 		.4byte	.LASF100
 4857 068e 10       		.byte	0x10
 4858 068f 2F       		.byte	0x2f
 4859 0690 D0060000 		.4byte	0x6d0
 4860 0694 02       		.byte	0x2
 4861 0695 23       		.byte	0x23
 4862 0696 04       		.uleb128 0x4
 4863 0697 08       		.uleb128 0x8
 4864 0698 7A140000 		.4byte	.LASF101
 4865 069c 10       		.byte	0x10
 4866 069d 31       		.byte	0x31
 4867 069e D0060000 		.4byte	0x6d0
 4868 06a2 02       		.byte	0x2
 4869 06a3 23       		.byte	0x23
 4870 06a4 08       		.uleb128 0x8
 4871 06a5 08       		.uleb128 0x8
 4872 06a6 580B0000 		.4byte	.LASF102
 4873 06aa 10       		.byte	0x10
 4874 06ab 32       		.byte	0x32
 4875 06ac D0060000 		.4byte	0x6d0
 4876 06b0 02       		.byte	0x2
 4877 06b1 23       		.byte	0x23
 4878 06b2 0C       		.uleb128 0xc
 4879 06b3 08       		.uleb128 0x8
 4880 06b4 A8100000 		.4byte	.LASF103
 4881 06b8 10       		.byte	0x10
ARM GAS  /tmp/ccq01laD.s 			page 91


 4882 06b9 33       		.byte	0x33
 4883 06ba 3D050000 		.4byte	0x53d
 4884 06be 02       		.byte	0x2
 4885 06bf 23       		.byte	0x23
 4886 06c0 10       		.uleb128 0x10
 4887 06c1 08       		.uleb128 0x8
 4888 06c2 540C0000 		.4byte	.LASF104
 4889 06c6 10       		.byte	0x10
 4890 06c7 35       		.byte	0x35
 4891 06c8 3D050000 		.4byte	0x53d
 4892 06cc 02       		.byte	0x2
 4893 06cd 23       		.byte	0x23
 4894 06ce 1C       		.uleb128 0x1c
 4895 06cf 00       		.byte	0
 4896 06d0 0B       		.uleb128 0xb
 4897 06d1 04       		.byte	0x4
 4898 06d2 EF000000 		.4byte	0xef
 4899 06d6 03       		.uleb128 0x3
 4900 06d7 4D050000 		.4byte	.LASF105
 4901 06db 10       		.byte	0x10
 4902 06dc 37       		.byte	0x37
 4903 06dd 6F060000 		.4byte	0x66f
 4904 06e1 03       		.uleb128 0x3
 4905 06e2 CC160000 		.4byte	.LASF106
 4906 06e6 11       		.byte	0x11
 4907 06e7 25       		.byte	0x25
 4908 06e8 EC060000 		.4byte	0x6ec
 4909 06ec 0B       		.uleb128 0xb
 4910 06ed 04       		.byte	0x4
 4911 06ee F2060000 		.4byte	0x6f2
 4912 06f2 12       		.uleb128 0x12
 4913 06f3 0F030000 		.4byte	0x30f
 4914 06f7 01070000 		.4byte	0x701
 4915 06fb 10       		.uleb128 0x10
 4916 06fc 30000000 		.4byte	0x30
 4917 0700 00       		.byte	0
 4918 0701 05       		.uleb128 0x5
 4919 0702 FA190000 		.4byte	.LASF107
 4920 0706 04       		.byte	0x4
 4921 0707 12       		.byte	0x12
 4922 0708 25       		.byte	0x25
 4923 0709 1C070000 		.4byte	0x71c
 4924 070d 08       		.uleb128 0x8
 4925 070e E4080000 		.4byte	.LASF108
 4926 0712 12       		.byte	0x12
 4927 0713 26       		.byte	0x26
 4928 0714 1C070000 		.4byte	0x71c
 4929 0718 02       		.byte	0x2
 4930 0719 23       		.byte	0x23
 4931 071a 00       		.uleb128 0
 4932 071b 00       		.byte	0
 4933 071c 0B       		.uleb128 0xb
 4934 071d 04       		.byte	0x4
 4935 071e 01070000 		.4byte	0x701
 4936 0722 0A       		.uleb128 0xa
 4937 0723 0C       		.byte	0xc
 4938 0724 12       		.byte	0x12
ARM GAS  /tmp/ccq01laD.s 			page 92


 4939 0725 2D       		.byte	0x2d
 4940 0726 F2080000 		.4byte	.LASF109
 4941 072a 59070000 		.4byte	0x759
 4942 072e 08       		.uleb128 0x8
 4943 072f 540E0000 		.4byte	.LASF110
 4944 0733 12       		.byte	0x12
 4945 0734 2E       		.byte	0x2e
 4946 0735 59070000 		.4byte	0x759
 4947 0739 02       		.byte	0x2
 4948 073a 23       		.byte	0x23
 4949 073b 00       		.uleb128 0
 4950 073c 08       		.uleb128 0x8
 4951 073d DD110000 		.4byte	.LASF111
 4952 0741 12       		.byte	0x12
 4953 0742 2F       		.byte	0x2f
 4954 0743 30000000 		.4byte	0x30
 4955 0747 02       		.byte	0x2
 4956 0748 23       		.byte	0x23
 4957 0749 04       		.uleb128 0x4
 4958 074a 08       		.uleb128 0x8
 4959 074b E21D0000 		.4byte	.LASF112
 4960 074f 12       		.byte	0x12
 4961 0750 31       		.byte	0x31
 4962 0751 E1060000 		.4byte	0x6e1
 4963 0755 02       		.byte	0x2
 4964 0756 23       		.byte	0x23
 4965 0757 08       		.uleb128 0x8
 4966 0758 00       		.byte	0
 4967 0759 0B       		.uleb128 0xb
 4968 075a 04       		.byte	0x4
 4969 075b 01070000 		.4byte	0x701
 4970 075f 03       		.uleb128 0x3
 4971 0760 BA0D0000 		.4byte	.LASF113
 4972 0764 12       		.byte	0x12
 4973 0765 33       		.byte	0x33
 4974 0766 22070000 		.4byte	0x722
 4975 076a 0B       		.uleb128 0xb
 4976 076b 04       		.byte	0x4
 4977 076c 3C010000 		.4byte	0x13c
 4978 0770 0B       		.uleb128 0xb
 4979 0771 04       		.byte	0x4
 4980 0772 76070000 		.4byte	0x776
 4981 0776 13       		.uleb128 0x13
 4982 0777 7B070000 		.4byte	0x77b
 4983 077b 04       		.uleb128 0x4
 4984 077c 01       		.byte	0x1
 4985 077d 08       		.byte	0x8
 4986 077e 990D0000 		.4byte	.LASF114
 4987 0782 0B       		.uleb128 0xb
 4988 0783 04       		.byte	0x4
 4989 0784 11030000 		.4byte	0x311
 4990 0788 0B       		.uleb128 0xb
 4991 0789 04       		.byte	0x4
 4992 078a AB050000 		.4byte	0x5ab
 4993 078e 03       		.uleb128 0x3
 4994 078f F5120000 		.4byte	.LASF115
 4995 0793 13       		.byte	0x13
ARM GAS  /tmp/ccq01laD.s 			page 93


 4996 0794 30       		.byte	0x30
 4997 0795 99070000 		.4byte	0x799
 4998 0799 05       		.uleb128 0x5
 4999 079a F5120000 		.4byte	.LASF115
 5000 079e 24       		.byte	0x24
 5001 079f 13       		.byte	0x13
 5002 07a0 3E       		.byte	0x3e
 5003 07a1 16080000 		.4byte	0x816
 5004 07a5 08       		.uleb128 0x8
 5005 07a6 420A0000 		.4byte	.LASF116
 5006 07aa 13       		.byte	0x13
 5007 07ab 3F       		.byte	0x3f
 5008 07ac D3020000 		.4byte	0x2d3
 5009 07b0 02       		.byte	0x2
 5010 07b1 23       		.byte	0x23
 5011 07b2 00       		.uleb128 0
 5012 07b3 08       		.uleb128 0x8
 5013 07b4 1F170000 		.4byte	.LASF117
 5014 07b8 13       		.byte	0x13
 5015 07b9 40       		.byte	0x40
 5016 07ba 30000000 		.4byte	0x30
 5017 07be 02       		.byte	0x2
 5018 07bf 23       		.byte	0x23
 5019 07c0 08       		.uleb128 0x8
 5020 07c1 08       		.uleb128 0x8
 5021 07c2 4B0F0000 		.4byte	.LASF118
 5022 07c6 13       		.byte	0x13
 5023 07c7 41       		.byte	0x41
 5024 07c8 38080000 		.4byte	0x838
 5025 07cc 02       		.byte	0x2
 5026 07cd 23       		.byte	0x23
 5027 07ce 0C       		.uleb128 0xc
 5028 07cf 08       		.uleb128 0x8
 5029 07d0 29170000 		.4byte	.LASF119
 5030 07d4 13       		.byte	0x13
 5031 07d5 42       		.byte	0x42
 5032 07d6 38080000 		.4byte	0x838
 5033 07da 02       		.byte	0x2
 5034 07db 23       		.byte	0x23
 5035 07dc 10       		.uleb128 0x10
 5036 07dd 08       		.uleb128 0x8
 5037 07de CD0D0000 		.4byte	.LASF120
 5038 07e2 13       		.byte	0x13
 5039 07e3 44       		.byte	0x44
 5040 07e4 38080000 		.4byte	0x838
 5041 07e8 02       		.byte	0x2
 5042 07e9 23       		.byte	0x23
 5043 07ea 14       		.uleb128 0x14
 5044 07eb 08       		.uleb128 0x8
 5045 07ec C7030000 		.4byte	.LASF121
 5046 07f0 13       		.byte	0x13
 5047 07f1 45       		.byte	0x45
 5048 07f2 38080000 		.4byte	0x838
 5049 07f6 02       		.byte	0x2
 5050 07f7 23       		.byte	0x23
 5051 07f8 18       		.uleb128 0x18
 5052 07f9 08       		.uleb128 0x8
ARM GAS  /tmp/ccq01laD.s 			page 94


 5053 07fa 680C0000 		.4byte	.LASF122
 5054 07fe 13       		.byte	0x13
 5055 07ff 46       		.byte	0x46
 5056 0800 16080000 		.4byte	0x816
 5057 0804 02       		.byte	0x2
 5058 0805 23       		.byte	0x23
 5059 0806 1C       		.uleb128 0x1c
 5060 0807 08       		.uleb128 0x8
 5061 0808 6D040000 		.4byte	.LASF123
 5062 080c 13       		.byte	0x13
 5063 080d 47       		.byte	0x47
 5064 080e 0F030000 		.4byte	0x30f
 5065 0812 02       		.byte	0x2
 5066 0813 23       		.byte	0x23
 5067 0814 20       		.uleb128 0x20
 5068 0815 00       		.byte	0
 5069 0816 03       		.uleb128 0x3
 5070 0817 F3030000 		.4byte	.LASF124
 5071 081b 13       		.byte	0x13
 5072 081c 33       		.byte	0x33
 5073 081d 21080000 		.4byte	0x821
 5074 0821 0B       		.uleb128 0xb
 5075 0822 04       		.byte	0x4
 5076 0823 27080000 		.4byte	0x827
 5077 0827 0F       		.uleb128 0xf
 5078 0828 32080000 		.4byte	0x832
 5079 082c 10       		.uleb128 0x10
 5080 082d 32080000 		.4byte	0x832
 5081 0831 00       		.byte	0
 5082 0832 0B       		.uleb128 0xb
 5083 0833 04       		.byte	0x4
 5084 0834 8E070000 		.4byte	0x78e
 5085 0838 0B       		.uleb128 0xb
 5086 0839 04       		.byte	0x4
 5087 083a 49000000 		.4byte	0x49
 5088 083e 03       		.uleb128 0x3
 5089 083f 3C0D0000 		.4byte	.LASF125
 5090 0843 13       		.byte	0x13
 5091 0844 7B       		.byte	0x7b
 5092 0845 8E070000 		.4byte	0x78e
 5093 0849 03       		.uleb128 0x3
 5094 084a E61C0000 		.4byte	.LASF126
 5095 084e 13       		.byte	0x13
 5096 084f EE       		.byte	0xee
 5097 0850 8E070000 		.4byte	0x78e
 5098 0854 0B       		.uleb128 0xb
 5099 0855 04       		.byte	0x4
 5100 0856 5A080000 		.4byte	0x85a
 5101 085a 13       		.uleb128 0x13
 5102 085b 49000000 		.4byte	0x49
 5103 085f 14       		.uleb128 0x14
 5104 0860 CF190000 		.4byte	.LASF389
 5105 0864 02       		.byte	0x2
 5106 0865 21       		.byte	0x21
 5107 0866 DD080000 		.4byte	0x8dd
 5108 086a 15       		.uleb128 0x15
 5109 086b 3A140000 		.4byte	.LASF127
ARM GAS  /tmp/ccq01laD.s 			page 95


 5110 086f 01       		.byte	0x1
 5111 0870 15       		.uleb128 0x15
 5112 0871 7D180000 		.4byte	.LASF128
 5113 0875 01       		.byte	0x1
 5114 0876 15       		.uleb128 0x15
 5115 0877 AB070000 		.4byte	.LASF129
 5116 087b 01       		.byte	0x1
 5117 087c 15       		.uleb128 0x15
 5118 087d 610B0000 		.4byte	.LASF130
 5119 0881 01       		.byte	0x1
 5120 0882 15       		.uleb128 0x15
 5121 0883 AC1D0000 		.4byte	.LASF83
 5122 0887 01       		.byte	0x1
 5123 0888 15       		.uleb128 0x15
 5124 0889 4E0C0000 		.4byte	.LASF84
 5125 088d 01       		.byte	0x1
 5126 088e 15       		.uleb128 0x15
 5127 088f A41D0000 		.4byte	.LASF88
 5128 0893 01       		.byte	0x1
 5129 0894 15       		.uleb128 0x15
 5130 0895 55050000 		.4byte	.LASF131
 5131 0899 01       		.byte	0x1
 5132 089a 15       		.uleb128 0x15
 5133 089b 410F0000 		.4byte	.LASF132
 5134 089f 01       		.byte	0x1
 5135 08a0 15       		.uleb128 0x15
 5136 08a1 9F1A0000 		.4byte	.LASF133
 5137 08a5 01       		.byte	0x1
 5138 08a6 15       		.uleb128 0x15
 5139 08a7 A7170000 		.4byte	.LASF134
 5140 08ab 01       		.byte	0x1
 5141 08ac 15       		.uleb128 0x15
 5142 08ad 4D050000 		.4byte	.LASF105
 5143 08b1 01       		.byte	0x1
 5144 08b2 15       		.uleb128 0x15
 5145 08b3 BA0D0000 		.4byte	.LASF113
 5146 08b7 01       		.byte	0x1
 5147 08b8 15       		.uleb128 0x15
 5148 08b9 8E150000 		.4byte	.LASF135
 5149 08bd 01       		.byte	0x1
 5150 08be 15       		.uleb128 0x15
 5151 08bf 0A160000 		.4byte	.LASF136
 5152 08c3 01       		.byte	0x1
 5153 08c4 16       		.uleb128 0x16
 5154 08c5 01       		.byte	0x1
 5155 08c6 3F150000 		.4byte	.LASF147
 5156 08ca 01       		.byte	0x1
 5157 08cb 1101     		.2byte	0x111
 5158 08cd C8050000 		.4byte	.LASF184
 5159 08d1 EF000000 		.4byte	0xef
 5160 08d5 01       		.byte	0x1
 5161 08d6 10       		.uleb128 0x10
 5162 08d7 0F030000 		.4byte	0x30f
 5163 08db 00       		.byte	0
 5164 08dc 00       		.byte	0
 5165 08dd 17       		.uleb128 0x17
 5166 08de 6A080000 		.4byte	0x86a
ARM GAS  /tmp/ccq01laD.s 			page 96


 5167 08e2 01       		.byte	0x1
 5168 08e3 02       		.byte	0x2
 5169 08e4 29       		.byte	0x29
 5170 08e5 58090000 		.4byte	0x958
 5171 08e9 18       		.uleb128 0x18
 5172 08ea 01       		.byte	0x1
 5173 08eb 0A0A0000 		.4byte	.LASF137
 5174 08ef 02       		.byte	0x2
 5175 08f0 37       		.byte	0x37
 5176 08f1 5F180000 		.4byte	.LASF139
 5177 08f5 01       		.byte	0x1
 5178 08f6 18       		.uleb128 0x18
 5179 08f7 01       		.byte	0x1
 5180 08f8 5C0F0000 		.4byte	.LASF138
 5181 08fc 02       		.byte	0x2
 5182 08fd 3E       		.byte	0x3e
 5183 08fe 4F120000 		.4byte	.LASF140
 5184 0902 01       		.byte	0x1
 5185 0903 18       		.uleb128 0x18
 5186 0904 01       		.byte	0x1
 5187 0905 781A0000 		.4byte	.LASF141
 5188 0909 02       		.byte	0x2
 5189 090a 45       		.byte	0x45
 5190 090b 55020000 		.4byte	.LASF142
 5191 090f 01       		.byte	0x1
 5192 0910 18       		.uleb128 0x18
 5193 0911 01       		.byte	0x1
 5194 0912 19100000 		.4byte	.LASF143
 5195 0916 02       		.byte	0x2
 5196 0917 53       		.byte	0x53
 5197 0918 070F0000 		.4byte	.LASF144
 5198 091c 01       		.byte	0x1
 5199 091d 18       		.uleb128 0x18
 5200 091e 01       		.byte	0x1
 5201 091f 31150000 		.4byte	.LASF145
 5202 0923 02       		.byte	0x2
 5203 0924 62       		.byte	0x62
 5204 0925 020C0000 		.4byte	.LASF146
 5205 0929 01       		.byte	0x1
 5206 092a 19       		.uleb128 0x19
 5207 092b 01       		.byte	0x1
 5208 092c 23000000 		.4byte	.LASF153
 5209 0930 02       		.byte	0x2
 5210 0931 6D       		.byte	0x6d
 5211 0932 16090000 		.4byte	.LASF155
 5212 0936 1B010000 		.4byte	0x11b
 5213 093a 01       		.byte	0x1
 5214 093b 1A       		.uleb128 0x1a
 5215 093c 01       		.byte	0x1
 5216 093d 44090000 		.4byte	.LASF148
 5217 0941 02       		.byte	0x2
 5218 0942 7C       		.byte	0x7c
 5219 0943 84030000 		.4byte	.LASF361
 5220 0947 B1000000 		.4byte	0xb1
 5221 094b 01       		.byte	0x1
 5222 094c 10       		.uleb128 0x10
 5223 094d 1B010000 		.4byte	0x11b
ARM GAS  /tmp/ccq01laD.s 			page 97


 5224 0951 10       		.uleb128 0x10
 5225 0952 1B010000 		.4byte	0x11b
 5226 0956 00       		.byte	0
 5227 0957 00       		.byte	0
 5228 0958 17       		.uleb128 0x17
 5229 0959 70080000 		.4byte	0x870
 5230 095d 01       		.byte	0x1
 5231 095e 02       		.byte	0x2
 5232 095f 85       		.byte	0x85
 5233 0960 AC090000 		.4byte	0x9ac
 5234 0964 1B       		.uleb128 0x1b
 5235 0965 01       		.byte	0x1
 5236 0966 6A140000 		.4byte	.LASF149
 5237 096a 02       		.byte	0x2
 5238 096b 94       		.byte	0x94
 5239 096c C50B0000 		.4byte	.LASF151
 5240 0970 0F030000 		.4byte	0x30f
 5241 0974 01       		.byte	0x1
 5242 0975 7F090000 		.4byte	0x97f
 5243 0979 10       		.uleb128 0x10
 5244 097a 30000000 		.4byte	0x30
 5245 097e 00       		.byte	0
 5246 097f 1B       		.uleb128 0x1b
 5247 0980 01       		.byte	0x1
 5248 0981 F10F0000 		.4byte	.LASF150
 5249 0985 02       		.byte	0x2
 5250 0986 A2       		.byte	0xa2
 5251 0987 9F160000 		.4byte	.LASF152
 5252 098b 0F030000 		.4byte	0x30f
 5253 098f 01       		.byte	0x1
 5254 0990 9A090000 		.4byte	0x99a
 5255 0994 10       		.uleb128 0x10
 5256 0995 30000000 		.4byte	0x30
 5257 0999 00       		.byte	0
 5258 099a 19       		.uleb128 0x19
 5259 099b 01       		.byte	0x1
 5260 099c 610F0000 		.4byte	.LASF154
 5261 09a0 02       		.byte	0x2
 5262 09a1 AB       		.byte	0xab
 5263 09a2 74040000 		.4byte	.LASF156
 5264 09a6 30000000 		.4byte	0x30
 5265 09aa 01       		.byte	0x1
 5266 09ab 00       		.byte	0
 5267 09ac 17       		.uleb128 0x17
 5268 09ad 76080000 		.4byte	0x876
 5269 09b1 14       		.byte	0x14
 5270 09b2 02       		.byte	0x2
 5271 09b3 B4       		.byte	0xb4
 5272 09b4 2A0A0000 		.4byte	0xa2a
 5273 09b8 08       		.uleb128 0x8
 5274 09b9 260B0000 		.4byte	.LASF157
 5275 09bd 02       		.byte	0x2
 5276 09be B9       		.byte	0xb9
 5277 09bf E9030000 		.4byte	0x3e9
 5278 09c3 02       		.byte	0x2
 5279 09c4 23       		.byte	0x23
 5280 09c5 00       		.uleb128 0
ARM GAS  /tmp/ccq01laD.s 			page 98


 5281 09c6 1C       		.uleb128 0x1c
 5282 09c7 01       		.byte	0x1
 5283 09c8 83100000 		.4byte	.LASF158
 5284 09cc 02       		.byte	0x2
 5285 09cd CD       		.byte	0xcd
 5286 09ce 79160000 		.4byte	.LASF159
 5287 09d2 01       		.byte	0x1
 5288 09d3 DB090000 		.4byte	0x9db
 5289 09d7 F1090000 		.4byte	0x9f1
 5290 09db 1D       		.uleb128 0x1d
 5291 09dc 2A0A0000 		.4byte	0xa2a
 5292 09e0 01       		.byte	0x1
 5293 09e1 10       		.uleb128 0x10
 5294 09e2 1B010000 		.4byte	0x11b
 5295 09e6 10       		.uleb128 0x10
 5296 09e7 CD030000 		.4byte	0x3cd
 5297 09eb 10       		.uleb128 0x10
 5298 09ec 0F030000 		.4byte	0x30f
 5299 09f0 00       		.byte	0
 5300 09f1 1C       		.uleb128 0x1c
 5301 09f2 01       		.byte	0x1
 5302 09f3 470C0000 		.4byte	.LASF160
 5303 09f7 02       		.byte	0x2
 5304 09f8 D4       		.byte	0xd4
 5305 09f9 5C0E0000 		.4byte	.LASF161
 5306 09fd 01       		.byte	0x1
 5307 09fe 060A0000 		.4byte	0xa06
 5308 0a02 0D0A0000 		.4byte	0xa0d
 5309 0a06 1D       		.uleb128 0x1d
 5310 0a07 2A0A0000 		.4byte	0xa2a
 5311 0a0b 01       		.byte	0x1
 5312 0a0c 00       		.byte	0
 5313 0a0d 1E       		.uleb128 0x1e
 5314 0a0e 01       		.byte	0x1
 5315 0a0f F1190000 		.4byte	.LASF162
 5316 0a13 02       		.byte	0x2
 5317 0a14 DE       		.byte	0xde
 5318 0a15 1D1A0000 		.4byte	.LASF163
 5319 0a19 B1000000 		.4byte	0xb1
 5320 0a1d 01       		.byte	0x1
 5321 0a1e 220A0000 		.4byte	0xa22
 5322 0a22 1D       		.uleb128 0x1d
 5323 0a23 2A0A0000 		.4byte	0xa2a
 5324 0a27 01       		.byte	0x1
 5325 0a28 00       		.byte	0
 5326 0a29 00       		.byte	0
 5327 0a2a 0B       		.uleb128 0xb
 5328 0a2b 04       		.byte	0x4
 5329 0a2c AC090000 		.4byte	0x9ac
 5330 0a30 1F       		.uleb128 0x1f
 5331 0a31 7C080000 		.4byte	0x87c
 5332 0a35 0C       		.byte	0xc
 5333 0a36 02       		.byte	0x2
 5334 0a37 1F03     		.2byte	0x31f
 5335 0a39 DB0B0000 		.4byte	0xbdb
 5336 0a3d 0E       		.uleb128 0xe
 5337 0a3e 73656D00 		.ascii	"sem\000"
ARM GAS  /tmp/ccq01laD.s 			page 99


 5338 0a42 02       		.byte	0x2
 5339 0a43 2403     		.2byte	0x324
 5340 0a45 3D050000 		.4byte	0x53d
 5341 0a49 02       		.byte	0x2
 5342 0a4a 23       		.byte	0x23
 5343 0a4b 00       		.uleb128 0
 5344 0a4c 20       		.uleb128 0x20
 5345 0a4d 01       		.byte	0x1
 5346 0a4e 610B0000 		.4byte	.LASF130
 5347 0a52 02       		.byte	0x2
 5348 0a53 2F03     		.2byte	0x32f
 5349 0a55 DB0B0000 		.4byte	0xbdb
 5350 0a59 01       		.byte	0x1
 5351 0a5a 620A0000 		.4byte	0xa62
 5352 0a5e 6E0A0000 		.4byte	0xa6e
 5353 0a62 1D       		.uleb128 0x1d
 5354 0a63 DB0B0000 		.4byte	0xbdb
 5355 0a67 01       		.byte	0x1
 5356 0a68 10       		.uleb128 0x10
 5357 0a69 26010000 		.4byte	0x126
 5358 0a6d 00       		.byte	0
 5359 0a6e 21       		.uleb128 0x21
 5360 0a6f 01       		.byte	0x1
 5361 0a70 67160000 		.4byte	.LASF164
 5362 0a74 02       		.byte	0x2
 5363 0a75 3F03     		.2byte	0x33f
 5364 0a77 75110000 		.4byte	.LASF165
 5365 0a7b 01       		.byte	0x1
 5366 0a7c 840A0000 		.4byte	0xa84
 5367 0a80 900A0000 		.4byte	0xa90
 5368 0a84 1D       		.uleb128 0x1d
 5369 0a85 DB0B0000 		.4byte	0xbdb
 5370 0a89 01       		.byte	0x1
 5371 0a8a 10       		.uleb128 0x10
 5372 0a8b 26010000 		.4byte	0x126
 5373 0a8f 00       		.byte	0
 5374 0a90 21       		.uleb128 0x21
 5375 0a91 01       		.byte	0x1
 5376 0a92 470C0000 		.4byte	.LASF160
 5377 0a96 02       		.byte	0x2
 5378 0a97 5303     		.2byte	0x353
 5379 0a99 AE150000 		.4byte	.LASF166
 5380 0a9d 01       		.byte	0x1
 5381 0a9e A60A0000 		.4byte	0xaa6
 5382 0aa2 B20A0000 		.4byte	0xab2
 5383 0aa6 1D       		.uleb128 0x1d
 5384 0aa7 DB0B0000 		.4byte	0xbdb
 5385 0aab 01       		.byte	0x1
 5386 0aac 10       		.uleb128 0x10
 5387 0aad 26010000 		.4byte	0x126
 5388 0ab1 00       		.byte	0
 5389 0ab2 22       		.uleb128 0x22
 5390 0ab3 01       		.byte	0x1
 5391 0ab4 D8110000 		.4byte	.LASF167
 5392 0ab8 02       		.byte	0x2
 5393 0ab9 6103     		.2byte	0x361
 5394 0abb 7A1B0000 		.4byte	.LASF169
ARM GAS  /tmp/ccq01laD.s 			page 100


 5395 0abf EF000000 		.4byte	0xef
 5396 0ac3 01       		.byte	0x1
 5397 0ac4 CC0A0000 		.4byte	0xacc
 5398 0ac8 D30A0000 		.4byte	0xad3
 5399 0acc 1D       		.uleb128 0x1d
 5400 0acd DB0B0000 		.4byte	0xbdb
 5401 0ad1 01       		.byte	0x1
 5402 0ad2 00       		.byte	0
 5403 0ad3 22       		.uleb128 0x22
 5404 0ad4 01       		.byte	0x1
 5405 0ad5 71070000 		.4byte	.LASF168
 5406 0ad9 02       		.byte	0x2
 5407 0ada 6F03     		.2byte	0x36f
 5408 0adc 9B0B0000 		.4byte	.LASF170
 5409 0ae0 EF000000 		.4byte	0xef
 5410 0ae4 01       		.byte	0x1
 5411 0ae5 ED0A0000 		.4byte	0xaed
 5412 0ae9 F40A0000 		.4byte	0xaf4
 5413 0aed 1D       		.uleb128 0x1d
 5414 0aee DB0B0000 		.4byte	0xbdb
 5415 0af2 01       		.byte	0x1
 5416 0af3 00       		.byte	0
 5417 0af4 22       		.uleb128 0x22
 5418 0af5 01       		.byte	0x1
 5419 0af6 1B1C0000 		.4byte	.LASF171
 5420 0afa 02       		.byte	0x2
 5421 0afb 8503     		.2byte	0x385
 5422 0afd 87000000 		.4byte	.LASF172
 5423 0b01 EF000000 		.4byte	0xef
 5424 0b05 01       		.byte	0x1
 5425 0b06 0E0B0000 		.4byte	0xb0e
 5426 0b0a 1A0B0000 		.4byte	0xb1a
 5427 0b0e 1D       		.uleb128 0x1d
 5428 0b0f DB0B0000 		.4byte	0xbdb
 5429 0b13 01       		.byte	0x1
 5430 0b14 10       		.uleb128 0x10
 5431 0b15 1B010000 		.4byte	0x11b
 5432 0b19 00       		.byte	0
 5433 0b1a 22       		.uleb128 0x22
 5434 0b1b 01       		.byte	0x1
 5435 0b1c 37090000 		.4byte	.LASF173
 5436 0b20 02       		.byte	0x2
 5437 0b21 9B03     		.2byte	0x39b
 5438 0b23 01180000 		.4byte	.LASF174
 5439 0b27 EF000000 		.4byte	0xef
 5440 0b2b 01       		.byte	0x1
 5441 0b2c 340B0000 		.4byte	0xb34
 5442 0b30 400B0000 		.4byte	0xb40
 5443 0b34 1D       		.uleb128 0x1d
 5444 0b35 DB0B0000 		.4byte	0xbdb
 5445 0b39 01       		.byte	0x1
 5446 0b3a 10       		.uleb128 0x10
 5447 0b3b 1B010000 		.4byte	0x11b
 5448 0b3f 00       		.byte	0
 5449 0b40 21       		.uleb128 0x21
 5450 0b41 01       		.byte	0x1
 5451 0b42 19020000 		.4byte	.LASF175
ARM GAS  /tmp/ccq01laD.s 			page 101


 5452 0b46 02       		.byte	0x2
 5453 0b47 A203     		.2byte	0x3a2
 5454 0b49 4F1B0000 		.4byte	.LASF176
 5455 0b4d 01       		.byte	0x1
 5456 0b4e 560B0000 		.4byte	0xb56
 5457 0b52 5D0B0000 		.4byte	0xb5d
 5458 0b56 1D       		.uleb128 0x1d
 5459 0b57 DB0B0000 		.4byte	0xbdb
 5460 0b5b 01       		.byte	0x1
 5461 0b5c 00       		.byte	0
 5462 0b5d 21       		.uleb128 0x21
 5463 0b5e 01       		.byte	0x1
 5464 0b5f 600C0000 		.4byte	.LASF177
 5465 0b63 02       		.byte	0x2
 5466 0b64 AD03     		.2byte	0x3ad
 5467 0b66 57100000 		.4byte	.LASF178
 5468 0b6a 01       		.byte	0x1
 5469 0b6b 730B0000 		.4byte	0xb73
 5470 0b6f 7A0B0000 		.4byte	0xb7a
 5471 0b73 1D       		.uleb128 0x1d
 5472 0b74 DB0B0000 		.4byte	0xbdb
 5473 0b78 01       		.byte	0x1
 5474 0b79 00       		.byte	0
 5475 0b7a 21       		.uleb128 0x21
 5476 0b7b 01       		.byte	0x1
 5477 0b7c 880E0000 		.4byte	.LASF179
 5478 0b80 02       		.byte	0x2
 5479 0b81 BB03     		.2byte	0x3bb
 5480 0b83 34000000 		.4byte	.LASF180
 5481 0b87 01       		.byte	0x1
 5482 0b88 900B0000 		.4byte	0xb90
 5483 0b8c 9C0B0000 		.4byte	0xb9c
 5484 0b90 1D       		.uleb128 0x1d
 5485 0b91 DB0B0000 		.4byte	0xbdb
 5486 0b95 01       		.byte	0x1
 5487 0b96 10       		.uleb128 0x10
 5488 0b97 26010000 		.4byte	0x126
 5489 0b9b 00       		.byte	0
 5490 0b9c 22       		.uleb128 0x22
 5491 0b9d 01       		.byte	0x1
 5492 0b9e 7B000000 		.4byte	.LASF181
 5493 0ba2 02       		.byte	0x2
 5494 0ba3 C403     		.2byte	0x3c4
 5495 0ba5 81190000 		.4byte	.LASF182
 5496 0ba9 26010000 		.4byte	0x126
 5497 0bad 01       		.byte	0x1
 5498 0bae B60B0000 		.4byte	0xbb6
 5499 0bb2 BD0B0000 		.4byte	0xbbd
 5500 0bb6 1D       		.uleb128 0x1d
 5501 0bb7 DB0B0000 		.4byte	0xbdb
 5502 0bbb 01       		.byte	0x1
 5503 0bbc 00       		.byte	0
 5504 0bbd 16       		.uleb128 0x16
 5505 0bbe 01       		.byte	0x1
 5506 0bbf 49040000 		.4byte	.LASF183
 5507 0bc3 02       		.byte	0x2
 5508 0bc4 D503     		.2byte	0x3d5
ARM GAS  /tmp/ccq01laD.s 			page 102


 5509 0bc6 57090000 		.4byte	.LASF185
 5510 0bca EF000000 		.4byte	0xef
 5511 0bce 01       		.byte	0x1
 5512 0bcf 10       		.uleb128 0x10
 5513 0bd0 E10B0000 		.4byte	0xbe1
 5514 0bd4 10       		.uleb128 0x10
 5515 0bd5 E10B0000 		.4byte	0xbe1
 5516 0bd9 00       		.byte	0
 5517 0bda 00       		.byte	0
 5518 0bdb 0B       		.uleb128 0xb
 5519 0bdc 04       		.byte	0x4
 5520 0bdd 300A0000 		.4byte	0xa30
 5521 0be1 0B       		.uleb128 0xb
 5522 0be2 04       		.byte	0x4
 5523 0be3 300A0000 		.4byte	0xa30
 5524 0be7 1F       		.uleb128 0x1f
 5525 0be8 82080000 		.4byte	0x882
 5526 0bec 0C       		.byte	0xc
 5527 0bed 02       		.byte	0x2
 5528 0bee DF03     		.2byte	0x3df
 5529 0bf0 4F0D0000 		.4byte	0xd4f
 5530 0bf4 23       		.uleb128 0x23
 5531 0bf5 430E0000 		.4byte	.LASF186
 5532 0bf9 02       		.byte	0x2
 5533 0bfa E403     		.2byte	0x3e4
 5534 0bfc 63050000 		.4byte	0x563
 5535 0c00 02       		.byte	0x2
 5536 0c01 23       		.byte	0x23
 5537 0c02 00       		.uleb128 0
 5538 0c03 20       		.uleb128 0x20
 5539 0c04 01       		.byte	0x1
 5540 0c05 AC1D0000 		.4byte	.LASF83
 5541 0c09 02       		.byte	0x2
 5542 0c0a F103     		.2byte	0x3f1
 5543 0c0c 4F0D0000 		.4byte	0xd4f
 5544 0c10 01       		.byte	0x1
 5545 0c11 190C0000 		.4byte	0xc19
 5546 0c15 250C0000 		.4byte	0xc25
 5547 0c19 1D       		.uleb128 0x1d
 5548 0c1a 4F0D0000 		.4byte	0xd4f
 5549 0c1e 01       		.byte	0x1
 5550 0c1f 10       		.uleb128 0x10
 5551 0c20 B1000000 		.4byte	0xb1
 5552 0c24 00       		.byte	0
 5553 0c25 22       		.uleb128 0x22
 5554 0c26 01       		.byte	0x1
 5555 0c27 D8110000 		.4byte	.LASF167
 5556 0c2b 02       		.byte	0x2
 5557 0c2c FF03     		.2byte	0x3ff
 5558 0c2e 36080000 		.4byte	.LASF187
 5559 0c32 EF000000 		.4byte	0xef
 5560 0c36 01       		.byte	0x1
 5561 0c37 3F0C0000 		.4byte	0xc3f
 5562 0c3b 460C0000 		.4byte	0xc46
 5563 0c3f 1D       		.uleb128 0x1d
 5564 0c40 4F0D0000 		.4byte	0xd4f
 5565 0c44 01       		.byte	0x1
ARM GAS  /tmp/ccq01laD.s 			page 103


 5566 0c45 00       		.byte	0
 5567 0c46 22       		.uleb128 0x22
 5568 0c47 01       		.byte	0x1
 5569 0c48 71070000 		.4byte	.LASF168
 5570 0c4c 02       		.byte	0x2
 5571 0c4d 0D04     		.2byte	0x40d
 5572 0c4f 12130000 		.4byte	.LASF188
 5573 0c53 EF000000 		.4byte	0xef
 5574 0c57 01       		.byte	0x1
 5575 0c58 600C0000 		.4byte	0xc60
 5576 0c5c 670C0000 		.4byte	0xc67
 5577 0c60 1D       		.uleb128 0x1d
 5578 0c61 4F0D0000 		.4byte	0xd4f
 5579 0c65 01       		.byte	0x1
 5580 0c66 00       		.byte	0
 5581 0c67 22       		.uleb128 0x22
 5582 0c68 01       		.byte	0x1
 5583 0c69 1B1C0000 		.4byte	.LASF171
 5584 0c6d 02       		.byte	0x2
 5585 0c6e 2204     		.2byte	0x422
 5586 0c70 C4130000 		.4byte	.LASF189
 5587 0c74 EF000000 		.4byte	0xef
 5588 0c78 01       		.byte	0x1
 5589 0c79 810C0000 		.4byte	0xc81
 5590 0c7d 8D0C0000 		.4byte	0xc8d
 5591 0c81 1D       		.uleb128 0x1d
 5592 0c82 4F0D0000 		.4byte	0xd4f
 5593 0c86 01       		.byte	0x1
 5594 0c87 10       		.uleb128 0x10
 5595 0c88 1B010000 		.4byte	0x11b
 5596 0c8c 00       		.byte	0
 5597 0c8d 22       		.uleb128 0x22
 5598 0c8e 01       		.byte	0x1
 5599 0c8f 37090000 		.4byte	.LASF173
 5600 0c93 02       		.byte	0x2
 5601 0c94 3704     		.2byte	0x437
 5602 0c96 36160000 		.4byte	.LASF190
 5603 0c9a EF000000 		.4byte	0xef
 5604 0c9e 01       		.byte	0x1
 5605 0c9f A70C0000 		.4byte	0xca7
 5606 0ca3 B30C0000 		.4byte	0xcb3
 5607 0ca7 1D       		.uleb128 0x1d
 5608 0ca8 4F0D0000 		.4byte	0xd4f
 5609 0cac 01       		.byte	0x1
 5610 0cad 10       		.uleb128 0x10
 5611 0cae 1B010000 		.4byte	0x11b
 5612 0cb2 00       		.byte	0
 5613 0cb3 21       		.uleb128 0x21
 5614 0cb4 01       		.byte	0x1
 5615 0cb5 67160000 		.4byte	.LASF164
 5616 0cb9 02       		.byte	0x2
 5617 0cba 4604     		.2byte	0x446
 5618 0cbc 89060000 		.4byte	.LASF191
 5619 0cc0 01       		.byte	0x1
 5620 0cc1 C90C0000 		.4byte	0xcc9
 5621 0cc5 D50C0000 		.4byte	0xcd5
 5622 0cc9 1D       		.uleb128 0x1d
ARM GAS  /tmp/ccq01laD.s 			page 104


 5623 0cca 4F0D0000 		.4byte	0xd4f
 5624 0cce 01       		.byte	0x1
 5625 0ccf 10       		.uleb128 0x10
 5626 0cd0 B1000000 		.4byte	0xb1
 5627 0cd4 00       		.byte	0
 5628 0cd5 21       		.uleb128 0x21
 5629 0cd6 01       		.byte	0x1
 5630 0cd7 470C0000 		.4byte	.LASF160
 5631 0cdb 02       		.byte	0x2
 5632 0cdc 5604     		.2byte	0x456
 5633 0cde 17070000 		.4byte	.LASF192
 5634 0ce2 01       		.byte	0x1
 5635 0ce3 EB0C0000 		.4byte	0xceb
 5636 0ce7 F70C0000 		.4byte	0xcf7
 5637 0ceb 1D       		.uleb128 0x1d
 5638 0cec 4F0D0000 		.4byte	0xd4f
 5639 0cf0 01       		.byte	0x1
 5640 0cf1 10       		.uleb128 0x10
 5641 0cf2 B1000000 		.4byte	0xb1
 5642 0cf6 00       		.byte	0
 5643 0cf7 21       		.uleb128 0x21
 5644 0cf8 01       		.byte	0x1
 5645 0cf9 19020000 		.4byte	.LASF175
 5646 0cfd 02       		.byte	0x2
 5647 0cfe 5D04     		.2byte	0x45d
 5648 0d00 4C0A0000 		.4byte	.LASF193
 5649 0d04 01       		.byte	0x1
 5650 0d05 0D0D0000 		.4byte	0xd0d
 5651 0d09 140D0000 		.4byte	0xd14
 5652 0d0d 1D       		.uleb128 0x1d
 5653 0d0e 4F0D0000 		.4byte	0xd4f
 5654 0d12 01       		.byte	0x1
 5655 0d13 00       		.byte	0
 5656 0d14 21       		.uleb128 0x21
 5657 0d15 01       		.byte	0x1
 5658 0d16 600C0000 		.4byte	.LASF177
 5659 0d1a 02       		.byte	0x2
 5660 0d1b 6504     		.2byte	0x465
 5661 0d1d 170A0000 		.4byte	.LASF194
 5662 0d21 01       		.byte	0x1
 5663 0d22 2A0D0000 		.4byte	0xd2a
 5664 0d26 310D0000 		.4byte	0xd31
 5665 0d2a 1D       		.uleb128 0x1d
 5666 0d2b 4F0D0000 		.4byte	0xd4f
 5667 0d2f 01       		.byte	0x1
 5668 0d30 00       		.byte	0
 5669 0d31 24       		.uleb128 0x24
 5670 0d32 01       		.byte	0x1
 5671 0d33 9E0D0000 		.4byte	.LASF195
 5672 0d37 02       		.byte	0x2
 5673 0d38 7004     		.2byte	0x470
 5674 0d3a E7050000 		.4byte	.LASF196
 5675 0d3e B1000000 		.4byte	0xb1
 5676 0d42 01       		.byte	0x1
 5677 0d43 470D0000 		.4byte	0xd47
 5678 0d47 1D       		.uleb128 0x1d
 5679 0d48 4F0D0000 		.4byte	0xd4f
ARM GAS  /tmp/ccq01laD.s 			page 105


 5680 0d4c 01       		.byte	0x1
 5681 0d4d 00       		.byte	0
 5682 0d4e 00       		.byte	0
 5683 0d4f 0B       		.uleb128 0xb
 5684 0d50 04       		.byte	0x4
 5685 0d51 E70B0000 		.4byte	0xbe7
 5686 0d55 1F       		.uleb128 0x1f
 5687 0d56 88080000 		.4byte	0x888
 5688 0d5a 10       		.byte	0x10
 5689 0d5b 02       		.byte	0x2
 5690 0d5c 7B04     		.2byte	0x47b
 5691 0d5e 070E0000 		.4byte	0xe07
 5692 0d62 23       		.uleb128 0x23
 5693 0d63 41070000 		.4byte	.LASF197
 5694 0d67 02       		.byte	0x2
 5695 0d68 8004     		.2byte	0x480
 5696 0d6a AB050000 		.4byte	0x5ab
 5697 0d6e 02       		.byte	0x2
 5698 0d6f 23       		.byte	0x23
 5699 0d70 00       		.uleb128 0
 5700 0d71 20       		.uleb128 0x20
 5701 0d72 01       		.byte	0x1
 5702 0d73 4E0C0000 		.4byte	.LASF84
 5703 0d77 02       		.byte	0x2
 5704 0d78 8804     		.2byte	0x488
 5705 0d7a 070E0000 		.4byte	0xe07
 5706 0d7e 01       		.byte	0x1
 5707 0d7f 870D0000 		.4byte	0xd87
 5708 0d83 8E0D0000 		.4byte	0xd8e
 5709 0d87 1D       		.uleb128 0x1d
 5710 0d88 070E0000 		.4byte	0xe07
 5711 0d8c 01       		.byte	0x1
 5712 0d8d 00       		.byte	0
 5713 0d8e 22       		.uleb128 0x22
 5714 0d8f 01       		.byte	0x1
 5715 0d90 C80E0000 		.4byte	.LASF198
 5716 0d94 02       		.byte	0x2
 5717 0d95 9B04     		.2byte	0x49b
 5718 0d97 F7000000 		.4byte	.LASF199
 5719 0d9b B1000000 		.4byte	0xb1
 5720 0d9f 01       		.byte	0x1
 5721 0da0 A80D0000 		.4byte	0xda8
 5722 0da4 AF0D0000 		.4byte	0xdaf
 5723 0da8 1D       		.uleb128 0x1d
 5724 0da9 070E0000 		.4byte	0xe07
 5725 0dad 01       		.byte	0x1
 5726 0dae 00       		.byte	0
 5727 0daf 22       		.uleb128 0x22
 5728 0db0 01       		.byte	0x1
 5729 0db1 830B0000 		.4byte	.LASF200
 5730 0db5 02       		.byte	0x2
 5731 0db6 AE04     		.2byte	0x4ae
 5732 0db8 14050000 		.4byte	.LASF201
 5733 0dbc B1000000 		.4byte	0xb1
 5734 0dc0 01       		.byte	0x1
 5735 0dc1 C90D0000 		.4byte	0xdc9
 5736 0dc5 D00D0000 		.4byte	0xdd0
ARM GAS  /tmp/ccq01laD.s 			page 106


 5737 0dc9 1D       		.uleb128 0x1d
 5738 0dca 070E0000 		.4byte	0xe07
 5739 0dce 01       		.byte	0x1
 5740 0dcf 00       		.byte	0
 5741 0dd0 21       		.uleb128 0x21
 5742 0dd1 01       		.byte	0x1
 5743 0dd2 5C0F0000 		.4byte	.LASF138
 5744 0dd6 02       		.byte	0x2
 5745 0dd7 B704     		.2byte	0x4b7
 5746 0dd9 A40A0000 		.4byte	.LASF202
 5747 0ddd 01       		.byte	0x1
 5748 0dde E60D0000 		.4byte	0xde6
 5749 0de2 ED0D0000 		.4byte	0xded
 5750 0de6 1D       		.uleb128 0x1d
 5751 0de7 070E0000 		.4byte	0xe07
 5752 0deb 01       		.byte	0x1
 5753 0dec 00       		.byte	0
 5754 0ded 25       		.uleb128 0x25
 5755 0dee 01       		.byte	0x1
 5756 0def 99150000 		.4byte	.LASF203
 5757 0df3 02       		.byte	0x2
 5758 0df4 C004     		.2byte	0x4c0
 5759 0df6 C9010000 		.4byte	.LASF204
 5760 0dfa 01       		.byte	0x1
 5761 0dfb FF0D0000 		.4byte	0xdff
 5762 0dff 1D       		.uleb128 0x1d
 5763 0e00 070E0000 		.4byte	0xe07
 5764 0e04 01       		.byte	0x1
 5765 0e05 00       		.byte	0
 5766 0e06 00       		.byte	0
 5767 0e07 0B       		.uleb128 0xb
 5768 0e08 04       		.byte	0x4
 5769 0e09 550D0000 		.4byte	0xd55
 5770 0e0d 1F       		.uleb128 0x1f
 5771 0e0e 8E080000 		.4byte	0x88e
 5772 0e12 08       		.byte	0x8
 5773 0e13 02       		.byte	0x2
 5774 0e14 CA04     		.2byte	0x4ca
 5775 0e16 1F0F0000 		.4byte	0xf1f
 5776 0e1a 23       		.uleb128 0x23
 5777 0e1b A00F0000 		.4byte	.LASF205
 5778 0e1f 02       		.byte	0x2
 5779 0e20 CF04     		.2byte	0x4cf
 5780 0e22 D1050000 		.4byte	0x5d1
 5781 0e26 02       		.byte	0x2
 5782 0e27 23       		.byte	0x23
 5783 0e28 00       		.uleb128 0
 5784 0e29 20       		.uleb128 0x20
 5785 0e2a 01       		.byte	0x1
 5786 0e2b A41D0000 		.4byte	.LASF88
 5787 0e2f 02       		.byte	0x2
 5788 0e30 D704     		.2byte	0x4d7
 5789 0e32 1F0F0000 		.4byte	0xf1f
 5790 0e36 01       		.byte	0x1
 5791 0e37 3F0E0000 		.4byte	0xe3f
 5792 0e3b 460E0000 		.4byte	0xe46
 5793 0e3f 1D       		.uleb128 0x1d
ARM GAS  /tmp/ccq01laD.s 			page 107


 5794 0e40 1F0F0000 		.4byte	0xf1f
 5795 0e44 01       		.byte	0x1
 5796 0e45 00       		.byte	0
 5797 0e46 21       		.uleb128 0x21
 5798 0e47 01       		.byte	0x1
 5799 0e48 19020000 		.4byte	.LASF175
 5800 0e4c 02       		.byte	0x2
 5801 0e4d DE04     		.2byte	0x4de
 5802 0e4f 69130000 		.4byte	.LASF206
 5803 0e53 01       		.byte	0x1
 5804 0e54 5C0E0000 		.4byte	0xe5c
 5805 0e58 630E0000 		.4byte	0xe63
 5806 0e5c 1D       		.uleb128 0x1d
 5807 0e5d 1F0F0000 		.4byte	0xf1f
 5808 0e61 01       		.byte	0x1
 5809 0e62 00       		.byte	0
 5810 0e63 21       		.uleb128 0x21
 5811 0e64 01       		.byte	0x1
 5812 0e65 600C0000 		.4byte	.LASF177
 5813 0e69 02       		.byte	0x2
 5814 0e6a E904     		.2byte	0x4e9
 5815 0e6c F4130000 		.4byte	.LASF207
 5816 0e70 01       		.byte	0x1
 5817 0e71 790E0000 		.4byte	0xe79
 5818 0e75 800E0000 		.4byte	0xe80
 5819 0e79 1D       		.uleb128 0x1d
 5820 0e7a 1F0F0000 		.4byte	0xf1f
 5821 0e7e 01       		.byte	0x1
 5822 0e7f 00       		.byte	0
 5823 0e80 21       		.uleb128 0x21
 5824 0e81 01       		.byte	0x1
 5825 0e82 75120000 		.4byte	.LASF208
 5826 0e86 02       		.byte	0x2
 5827 0e87 F004     		.2byte	0x4f0
 5828 0e89 9E0E0000 		.4byte	.LASF209
 5829 0e8d 01       		.byte	0x1
 5830 0e8e 960E0000 		.4byte	0xe96
 5831 0e92 9D0E0000 		.4byte	0xe9d
 5832 0e96 1D       		.uleb128 0x1d
 5833 0e97 1F0F0000 		.4byte	0xf1f
 5834 0e9b 01       		.byte	0x1
 5835 0e9c 00       		.byte	0
 5836 0e9d 21       		.uleb128 0x21
 5837 0e9e 01       		.byte	0x1
 5838 0e9f 271C0000 		.4byte	.LASF210
 5839 0ea3 02       		.byte	0x2
 5840 0ea4 FB04     		.2byte	0x4fb
 5841 0ea6 B1070000 		.4byte	.LASF211
 5842 0eaa 01       		.byte	0x1
 5843 0eab B30E0000 		.4byte	0xeb3
 5844 0eaf BA0E0000 		.4byte	0xeba
 5845 0eb3 1D       		.uleb128 0x1d
 5846 0eb4 1F0F0000 		.4byte	0xf1f
 5847 0eb8 01       		.byte	0x1
 5848 0eb9 00       		.byte	0
 5849 0eba 22       		.uleb128 0x22
 5850 0ebb 01       		.byte	0x1
ARM GAS  /tmp/ccq01laD.s 			page 108


 5851 0ebc D8110000 		.4byte	.LASF167
 5852 0ec0 02       		.byte	0x2
 5853 0ec1 0D05     		.2byte	0x50d
 5854 0ec3 431D0000 		.4byte	.LASF212
 5855 0ec7 EF000000 		.4byte	0xef
 5856 0ecb 01       		.byte	0x1
 5857 0ecc D40E0000 		.4byte	0xed4
 5858 0ed0 DB0E0000 		.4byte	0xedb
 5859 0ed4 1D       		.uleb128 0x1d
 5860 0ed5 1F0F0000 		.4byte	0xf1f
 5861 0ed9 01       		.byte	0x1
 5862 0eda 00       		.byte	0
 5863 0edb 22       		.uleb128 0x22
 5864 0edc 01       		.byte	0x1
 5865 0edd 71070000 		.4byte	.LASF168
 5866 0ee1 02       		.byte	0x2
 5867 0ee2 1F05     		.2byte	0x51f
 5868 0ee4 BD180000 		.4byte	.LASF213
 5869 0ee8 EF000000 		.4byte	0xef
 5870 0eec 01       		.byte	0x1
 5871 0eed F50E0000 		.4byte	0xef5
 5872 0ef1 FC0E0000 		.4byte	0xefc
 5873 0ef5 1D       		.uleb128 0x1d
 5874 0ef6 1F0F0000 		.4byte	0xf1f
 5875 0efa 01       		.byte	0x1
 5876 0efb 00       		.byte	0
 5877 0efc 24       		.uleb128 0x24
 5878 0efd 01       		.byte	0x1
 5879 0efe 1B1C0000 		.4byte	.LASF171
 5880 0f02 02       		.byte	0x2
 5881 0f03 3005     		.2byte	0x530
 5882 0f05 E1140000 		.4byte	.LASF214
 5883 0f09 EF000000 		.4byte	0xef
 5884 0f0d 01       		.byte	0x1
 5885 0f0e 120F0000 		.4byte	0xf12
 5886 0f12 1D       		.uleb128 0x1d
 5887 0f13 1F0F0000 		.4byte	0xf1f
 5888 0f17 01       		.byte	0x1
 5889 0f18 10       		.uleb128 0x10
 5890 0f19 1B010000 		.4byte	0x11b
 5891 0f1d 00       		.byte	0
 5892 0f1e 00       		.byte	0
 5893 0f1f 0B       		.uleb128 0xb
 5894 0f20 04       		.byte	0x4
 5895 0f21 0D0E0000 		.4byte	0xe0d
 5896 0f25 1F       		.uleb128 0x1f
 5897 0f26 94080000 		.4byte	0x894
 5898 0f2a 10       		.byte	0x10
 5899 0f2b 02       		.byte	0x2
 5900 0f2c 3D05     		.2byte	0x53d
 5901 0f2e 800F0000 		.4byte	0xf80
 5902 0f32 23       		.uleb128 0x23
 5903 0f33 CB040000 		.4byte	.LASF215
 5904 0f37 02       		.byte	0x2
 5905 0f38 4205     		.2byte	0x542
 5906 0f3a E7050000 		.4byte	0x5e7
 5907 0f3e 02       		.byte	0x2
ARM GAS  /tmp/ccq01laD.s 			page 109


 5908 0f3f 23       		.byte	0x23
 5909 0f40 00       		.uleb128 0
 5910 0f41 22       		.uleb128 0x22
 5911 0f42 01       		.byte	0x1
 5912 0f43 841C0000 		.4byte	.LASF216
 5913 0f47 02       		.byte	0x2
 5914 0f48 4C05     		.2byte	0x54c
 5915 0f4a D9150000 		.4byte	.LASF217
 5916 0f4e 10010000 		.4byte	0x110
 5917 0f52 01       		.byte	0x1
 5918 0f53 5B0F0000 		.4byte	0xf5b
 5919 0f57 620F0000 		.4byte	0xf62
 5920 0f5b 1D       		.uleb128 0x1d
 5921 0f5c 800F0000 		.4byte	0xf80
 5922 0f60 01       		.byte	0x1
 5923 0f61 00       		.byte	0
 5924 0f62 24       		.uleb128 0x24
 5925 0f63 01       		.byte	0x1
 5926 0f64 371C0000 		.4byte	.LASF218
 5927 0f68 02       		.byte	0x2
 5928 0f69 5805     		.2byte	0x558
 5929 0f6b 25100000 		.4byte	.LASF219
 5930 0f6f 10010000 		.4byte	0x110
 5931 0f73 01       		.byte	0x1
 5932 0f74 780F0000 		.4byte	0xf78
 5933 0f78 1D       		.uleb128 0x1d
 5934 0f79 800F0000 		.4byte	0xf80
 5935 0f7d 01       		.byte	0x1
 5936 0f7e 00       		.byte	0
 5937 0f7f 00       		.byte	0
 5938 0f80 0B       		.uleb128 0xb
 5939 0f81 04       		.byte	0x4
 5940 0f82 250F0000 		.4byte	0xf25
 5941 0f86 1F       		.uleb128 0x1f
 5942 0f87 9A080000 		.4byte	0x89a
 5943 0f8b 04       		.byte	0x4
 5944 0f8c 02       		.byte	0x2
 5945 0f8d 6105     		.2byte	0x561
 5946 0f8f 70100000 		.4byte	0x1070
 5947 0f93 23       		.uleb128 0x23
 5948 0f94 6F010000 		.4byte	.LASF220
 5949 0f98 02       		.byte	0x2
 5950 0f99 6605     		.2byte	0x566
 5951 0f9b 32060000 		.4byte	0x632
 5952 0f9f 02       		.byte	0x2
 5953 0fa0 23       		.byte	0x23
 5954 0fa1 00       		.uleb128 0
 5955 0fa2 20       		.uleb128 0x20
 5956 0fa3 01       		.byte	0x1
 5957 0fa4 410F0000 		.4byte	.LASF132
 5958 0fa8 02       		.byte	0x2
 5959 0fa9 6E05     		.2byte	0x56e
 5960 0fab 70100000 		.4byte	0x1070
 5961 0faf 01       		.byte	0x1
 5962 0fb0 B80F0000 		.4byte	0xfb8
 5963 0fb4 BF0F0000 		.4byte	0xfbf
 5964 0fb8 1D       		.uleb128 0x1d
ARM GAS  /tmp/ccq01laD.s 			page 110


 5965 0fb9 70100000 		.4byte	0x1070
 5966 0fbd 01       		.byte	0x1
 5967 0fbe 00       		.byte	0
 5968 0fbf 21       		.uleb128 0x21
 5969 0fc0 01       		.byte	0x1
 5970 0fc1 FF080000 		.4byte	.LASF221
 5971 0fc5 02       		.byte	0x2
 5972 0fc6 7905     		.2byte	0x579
 5973 0fc8 14120000 		.4byte	.LASF222
 5974 0fcc 01       		.byte	0x1
 5975 0fcd D50F0000 		.4byte	0xfd5
 5976 0fd1 E60F0000 		.4byte	0xfe6
 5977 0fd5 1D       		.uleb128 0x1d
 5978 0fd6 70100000 		.4byte	0x1070
 5979 0fda 01       		.byte	0x1
 5980 0fdb 10       		.uleb128 0x10
 5981 0fdc 800F0000 		.4byte	0xf80
 5982 0fe0 10       		.uleb128 0x10
 5983 0fe1 FA000000 		.4byte	0xfa
 5984 0fe5 00       		.byte	0
 5985 0fe6 21       		.uleb128 0x21
 5986 0fe7 01       		.byte	0x1
 5987 0fe8 8E020000 		.4byte	.LASF223
 5988 0fec 02       		.byte	0x2
 5989 0fed 8505     		.2byte	0x585
 5990 0fef DB0A0000 		.4byte	.LASF224
 5991 0ff3 01       		.byte	0x1
 5992 0ff4 FC0F0000 		.4byte	0xffc
 5993 0ff8 0D100000 		.4byte	0x100d
 5994 0ffc 1D       		.uleb128 0x1d
 5995 0ffd 70100000 		.4byte	0x1070
 5996 1001 01       		.byte	0x1
 5997 1002 10       		.uleb128 0x10
 5998 1003 800F0000 		.4byte	0xf80
 5999 1007 10       		.uleb128 0x10
 6000 1008 05010000 		.4byte	0x105
 6001 100c 00       		.byte	0
 6002 100d 21       		.uleb128 0x21
 6003 100e 01       		.byte	0x1
 6004 100f 09050000 		.4byte	.LASF225
 6005 1013 02       		.byte	0x2
 6006 1014 9005     		.2byte	0x590
 6007 1016 50060000 		.4byte	.LASF226
 6008 101a 01       		.byte	0x1
 6009 101b 23100000 		.4byte	0x1023
 6010 101f 2F100000 		.4byte	0x102f
 6011 1023 1D       		.uleb128 0x1d
 6012 1024 70100000 		.4byte	0x1070
 6013 1028 01       		.byte	0x1
 6014 1029 10       		.uleb128 0x10
 6015 102a 800F0000 		.4byte	0xf80
 6016 102e 00       		.byte	0
 6017 102f 21       		.uleb128 0x21
 6018 1030 01       		.byte	0x1
 6019 1031 01030000 		.4byte	.LASF227
 6020 1035 02       		.byte	0x2
 6021 1036 9C05     		.2byte	0x59c
ARM GAS  /tmp/ccq01laD.s 			page 111


 6022 1038 7F070000 		.4byte	.LASF228
 6023 103c 01       		.byte	0x1
 6024 103d 45100000 		.4byte	0x1045
 6025 1041 51100000 		.4byte	0x1051
 6026 1045 1D       		.uleb128 0x1d
 6027 1046 70100000 		.4byte	0x1070
 6028 104a 01       		.byte	0x1
 6029 104b 10       		.uleb128 0x10
 6030 104c 10010000 		.4byte	0x110
 6031 1050 00       		.byte	0
 6032 1051 25       		.uleb128 0x25
 6033 1052 01       		.byte	0x1
 6034 1053 02130000 		.4byte	.LASF229
 6035 1057 02       		.byte	0x2
 6036 1058 A805     		.2byte	0x5a8
 6037 105a EC010000 		.4byte	.LASF230
 6038 105e 01       		.byte	0x1
 6039 105f 63100000 		.4byte	0x1063
 6040 1063 1D       		.uleb128 0x1d
 6041 1064 70100000 		.4byte	0x1070
 6042 1068 01       		.byte	0x1
 6043 1069 10       		.uleb128 0x10
 6044 106a 10010000 		.4byte	0x110
 6045 106e 00       		.byte	0
 6046 106f 00       		.byte	0
 6047 1070 0B       		.uleb128 0xb
 6048 1071 04       		.byte	0x4
 6049 1072 860F0000 		.4byte	0xf86
 6050 1076 1F       		.uleb128 0x1f
 6051 1077 A0080000 		.4byte	0x8a0
 6052 107b 24       		.byte	0x24
 6053 107c 02       		.byte	0x2
 6054 107d B305     		.2byte	0x5b3
 6055 107f FE110000 		.4byte	0x11fe
 6056 1083 26       		.uleb128 0x26
 6057 1084 697100   		.ascii	"iq\000"
 6058 1087 02       		.byte	0x2
 6059 1088 B805     		.2byte	0x5b8
 6060 108a 3E080000 		.4byte	0x83e
 6061 108e 02       		.byte	0x2
 6062 108f 23       		.byte	0x23
 6063 1090 00       		.uleb128 0
 6064 1091 03       		.byte	0x3
 6065 1092 20       		.uleb128 0x20
 6066 1093 01       		.byte	0x1
 6067 1094 9F1A0000 		.4byte	.LASF133
 6068 1098 02       		.byte	0x2
 6069 1099 C705     		.2byte	0x5c7
 6070 109b FE110000 		.4byte	0x11fe
 6071 109f 01       		.byte	0x1
 6072 10a0 A8100000 		.4byte	0x10a8
 6073 10a4 C3100000 		.4byte	0x10c3
 6074 10a8 1D       		.uleb128 0x1d
 6075 10a9 FE110000 		.4byte	0x11fe
 6076 10ad 01       		.byte	0x1
 6077 10ae 10       		.uleb128 0x10
 6078 10af 38080000 		.4byte	0x838
ARM GAS  /tmp/ccq01laD.s 			page 112


 6079 10b3 10       		.uleb128 0x10
 6080 10b4 30000000 		.4byte	0x30
 6081 10b8 10       		.uleb128 0x10
 6082 10b9 16080000 		.4byte	0x816
 6083 10bd 10       		.uleb128 0x10
 6084 10be 0F030000 		.4byte	0x30f
 6085 10c2 00       		.byte	0
 6086 10c3 22       		.uleb128 0x22
 6087 10c4 01       		.byte	0x1
 6088 10c5 93100000 		.4byte	.LASF231
 6089 10c9 02       		.byte	0x2
 6090 10ca D105     		.2byte	0x5d1
 6091 10cc 98130000 		.4byte	.LASF232
 6092 10d0 30000000 		.4byte	0x30
 6093 10d4 01       		.byte	0x1
 6094 10d5 DD100000 		.4byte	0x10dd
 6095 10d9 E4100000 		.4byte	0x10e4
 6096 10dd 1D       		.uleb128 0x1d
 6097 10de FE110000 		.4byte	0x11fe
 6098 10e2 01       		.byte	0x1
 6099 10e3 00       		.byte	0
 6100 10e4 22       		.uleb128 0x22
 6101 10e5 01       		.byte	0x1
 6102 10e6 8F0D0000 		.4byte	.LASF233
 6103 10ea 02       		.byte	0x2
 6104 10eb DB05     		.2byte	0x5db
 6105 10ed D7040000 		.4byte	.LASF234
 6106 10f1 30000000 		.4byte	0x30
 6107 10f5 01       		.byte	0x1
 6108 10f6 FE100000 		.4byte	0x10fe
 6109 10fa 05110000 		.4byte	0x1105
 6110 10fe 1D       		.uleb128 0x1d
 6111 10ff FE110000 		.4byte	0x11fe
 6112 1103 01       		.byte	0x1
 6113 1104 00       		.byte	0
 6114 1105 22       		.uleb128 0x22
 6115 1106 01       		.byte	0x1
 6116 1107 12040000 		.4byte	.LASF235
 6117 110b 02       		.byte	0x2
 6118 110c E605     		.2byte	0x5e6
 6119 110e EC110000 		.4byte	.LASF236
 6120 1112 B1000000 		.4byte	0xb1
 6121 1116 01       		.byte	0x1
 6122 1117 1F110000 		.4byte	0x111f
 6123 111b 26110000 		.4byte	0x1126
 6124 111f 1D       		.uleb128 0x1d
 6125 1120 FE110000 		.4byte	0x11fe
 6126 1124 01       		.byte	0x1
 6127 1125 00       		.byte	0
 6128 1126 22       		.uleb128 0x22
 6129 1127 01       		.byte	0x1
 6130 1128 33180000 		.4byte	.LASF237
 6131 112c 02       		.byte	0x2
 6132 112d F105     		.2byte	0x5f1
 6133 112f 47130000 		.4byte	.LASF238
 6134 1133 B1000000 		.4byte	0xb1
 6135 1137 01       		.byte	0x1
ARM GAS  /tmp/ccq01laD.s 			page 113


 6136 1138 40110000 		.4byte	0x1140
 6137 113c 47110000 		.4byte	0x1147
 6138 1140 1D       		.uleb128 0x1d
 6139 1141 FE110000 		.4byte	0x11fe
 6140 1145 01       		.byte	0x1
 6141 1146 00       		.byte	0
 6142 1147 21       		.uleb128 0x21
 6143 1148 01       		.byte	0x1
 6144 1149 470C0000 		.4byte	.LASF160
 6145 114d 02       		.byte	0x2
 6146 114e FB05     		.2byte	0x5fb
 6147 1150 FA100000 		.4byte	.LASF239
 6148 1154 01       		.byte	0x1
 6149 1155 5D110000 		.4byte	0x115d
 6150 1159 64110000 		.4byte	0x1164
 6151 115d 1D       		.uleb128 0x1d
 6152 115e FE110000 		.4byte	0x11fe
 6153 1162 01       		.byte	0x1
 6154 1163 00       		.byte	0
 6155 1164 22       		.uleb128 0x22
 6156 1165 01       		.byte	0x1
 6157 1166 11090000 		.4byte	.LASF240
 6158 116a 02       		.byte	0x2
 6159 116b 0906     		.2byte	0x609
 6160 116d C71C0000 		.4byte	.LASF241
 6161 1171 EF000000 		.4byte	0xef
 6162 1175 01       		.byte	0x1
 6163 1176 7E110000 		.4byte	0x117e
 6164 117a 8A110000 		.4byte	0x118a
 6165 117e 1D       		.uleb128 0x1d
 6166 117f FE110000 		.4byte	0x11fe
 6167 1183 01       		.byte	0x1
 6168 1184 10       		.uleb128 0x10
 6169 1185 49000000 		.4byte	0x49
 6170 1189 00       		.byte	0
 6171 118a 27       		.uleb128 0x27
 6172 118b 01       		.byte	0x1
 6173 118c 67657400 		.ascii	"get\000"
 6174 1190 02       		.byte	0x2
 6175 1191 1606     		.2byte	0x616
 6176 1193 4C140000 		.4byte	.LASF251
 6177 1197 EF000000 		.4byte	0xef
 6178 119b 01       		.byte	0x1
 6179 119c A4110000 		.4byte	0x11a4
 6180 11a0 AB110000 		.4byte	0x11ab
 6181 11a4 1D       		.uleb128 0x1d
 6182 11a5 FE110000 		.4byte	0x11fe
 6183 11a9 01       		.byte	0x1
 6184 11aa 00       		.byte	0
 6185 11ab 22       		.uleb128 0x22
 6186 11ac 01       		.byte	0x1
 6187 11ad 990A0000 		.4byte	.LASF242
 6188 11b1 02       		.byte	0x2
 6189 11b2 2B06     		.2byte	0x62b
 6190 11b4 BC1D0000 		.4byte	.LASF243
 6191 11b8 EF000000 		.4byte	0xef
 6192 11bc 01       		.byte	0x1
ARM GAS  /tmp/ccq01laD.s 			page 114


 6193 11bd C5110000 		.4byte	0x11c5
 6194 11c1 D1110000 		.4byte	0x11d1
 6195 11c5 1D       		.uleb128 0x1d
 6196 11c6 FE110000 		.4byte	0x11fe
 6197 11ca 01       		.byte	0x1
 6198 11cb 10       		.uleb128 0x10
 6199 11cc 1B010000 		.4byte	0x11b
 6200 11d0 00       		.byte	0
 6201 11d1 24       		.uleb128 0x24
 6202 11d2 01       		.byte	0x1
 6203 11d3 6D160000 		.4byte	.LASF244
 6204 11d7 02       		.byte	0x2
 6205 11d8 4406     		.2byte	0x644
 6206 11da 9D1C0000 		.4byte	.LASF245
 6207 11de 30000000 		.4byte	0x30
 6208 11e2 01       		.byte	0x1
 6209 11e3 E7110000 		.4byte	0x11e7
 6210 11e7 1D       		.uleb128 0x1d
 6211 11e8 FE110000 		.4byte	0x11fe
 6212 11ec 01       		.byte	0x1
 6213 11ed 10       		.uleb128 0x10
 6214 11ee 38080000 		.4byte	0x838
 6215 11f2 10       		.uleb128 0x10
 6216 11f3 30000000 		.4byte	0x30
 6217 11f7 10       		.uleb128 0x10
 6218 11f8 1B010000 		.4byte	0x11b
 6219 11fc 00       		.byte	0
 6220 11fd 00       		.byte	0
 6221 11fe 0B       		.uleb128 0xb
 6222 11ff 04       		.byte	0x4
 6223 1200 76100000 		.4byte	0x1076
 6224 1204 1F       		.uleb128 0x1f
 6225 1205 A6080000 		.4byte	0x8a6
 6226 1209 24       		.byte	0x24
 6227 120a 02       		.byte	0x2
 6228 120b 6806     		.2byte	0x668
 6229 120d 91130000 		.4byte	0x1391
 6230 1211 26       		.uleb128 0x26
 6231 1212 6F7100   		.ascii	"oq\000"
 6232 1215 02       		.byte	0x2
 6233 1216 6D06     		.2byte	0x66d
 6234 1218 49080000 		.4byte	0x849
 6235 121c 02       		.byte	0x2
 6236 121d 23       		.byte	0x23
 6237 121e 00       		.uleb128 0
 6238 121f 03       		.byte	0x3
 6239 1220 20       		.uleb128 0x20
 6240 1221 01       		.byte	0x1
 6241 1222 A7170000 		.4byte	.LASF134
 6242 1226 02       		.byte	0x2
 6243 1227 7C06     		.2byte	0x67c
 6244 1229 91130000 		.4byte	0x1391
 6245 122d 01       		.byte	0x1
 6246 122e 36120000 		.4byte	0x1236
 6247 1232 51120000 		.4byte	0x1251
 6248 1236 1D       		.uleb128 0x1d
 6249 1237 91130000 		.4byte	0x1391
ARM GAS  /tmp/ccq01laD.s 			page 115


 6250 123b 01       		.byte	0x1
 6251 123c 10       		.uleb128 0x10
 6252 123d 38080000 		.4byte	0x838
 6253 1241 10       		.uleb128 0x10
 6254 1242 30000000 		.4byte	0x30
 6255 1246 10       		.uleb128 0x10
 6256 1247 16080000 		.4byte	0x816
 6257 124b 10       		.uleb128 0x10
 6258 124c 0F030000 		.4byte	0x30f
 6259 1250 00       		.byte	0
 6260 1251 22       		.uleb128 0x22
 6261 1252 01       		.byte	0x1
 6262 1253 93100000 		.4byte	.LASF231
 6263 1257 02       		.byte	0x2
 6264 1258 8606     		.2byte	0x686
 6265 125a 1F1B0000 		.4byte	.LASF246
 6266 125e 30000000 		.4byte	0x30
 6267 1262 01       		.byte	0x1
 6268 1263 6B120000 		.4byte	0x126b
 6269 1267 72120000 		.4byte	0x1272
 6270 126b 1D       		.uleb128 0x1d
 6271 126c 91130000 		.4byte	0x1391
 6272 1270 01       		.byte	0x1
 6273 1271 00       		.byte	0
 6274 1272 22       		.uleb128 0x22
 6275 1273 01       		.byte	0x1
 6276 1274 8F0D0000 		.4byte	.LASF233
 6277 1278 02       		.byte	0x2
 6278 1279 9006     		.2byte	0x690
 6279 127b 1E1D0000 		.4byte	.LASF247
 6280 127f 30000000 		.4byte	0x30
 6281 1283 01       		.byte	0x1
 6282 1284 8C120000 		.4byte	0x128c
 6283 1288 93120000 		.4byte	0x1293
 6284 128c 1D       		.uleb128 0x1d
 6285 128d 91130000 		.4byte	0x1391
 6286 1291 01       		.byte	0x1
 6287 1292 00       		.byte	0
 6288 1293 22       		.uleb128 0x22
 6289 1294 01       		.byte	0x1
 6290 1295 12040000 		.4byte	.LASF235
 6291 1299 02       		.byte	0x2
 6292 129a 9B06     		.2byte	0x69b
 6293 129c F21B0000 		.4byte	.LASF248
 6294 12a0 B1000000 		.4byte	0xb1
 6295 12a4 01       		.byte	0x1
 6296 12a5 AD120000 		.4byte	0x12ad
 6297 12a9 B4120000 		.4byte	0x12b4
 6298 12ad 1D       		.uleb128 0x1d
 6299 12ae 91130000 		.4byte	0x1391
 6300 12b2 01       		.byte	0x1
 6301 12b3 00       		.byte	0
 6302 12b4 22       		.uleb128 0x22
 6303 12b5 01       		.byte	0x1
 6304 12b6 33180000 		.4byte	.LASF237
 6305 12ba 02       		.byte	0x2
 6306 12bb A606     		.2byte	0x6a6
ARM GAS  /tmp/ccq01laD.s 			page 116


 6307 12bd BF020000 		.4byte	.LASF249
 6308 12c1 B1000000 		.4byte	0xb1
 6309 12c5 01       		.byte	0x1
 6310 12c6 CE120000 		.4byte	0x12ce
 6311 12ca D5120000 		.4byte	0x12d5
 6312 12ce 1D       		.uleb128 0x1d
 6313 12cf 91130000 		.4byte	0x1391
 6314 12d3 01       		.byte	0x1
 6315 12d4 00       		.byte	0
 6316 12d5 21       		.uleb128 0x21
 6317 12d6 01       		.byte	0x1
 6318 12d7 470C0000 		.4byte	.LASF160
 6319 12db 02       		.byte	0x2
 6320 12dc B106     		.2byte	0x6b1
 6321 12de F1160000 		.4byte	.LASF250
 6322 12e2 01       		.byte	0x1
 6323 12e3 EB120000 		.4byte	0x12eb
 6324 12e7 F2120000 		.4byte	0x12f2
 6325 12eb 1D       		.uleb128 0x1d
 6326 12ec 91130000 		.4byte	0x1391
 6327 12f0 01       		.byte	0x1
 6328 12f1 00       		.byte	0
 6329 12f2 27       		.uleb128 0x27
 6330 12f3 01       		.byte	0x1
 6331 12f4 70757400 		.ascii	"put\000"
 6332 12f8 02       		.byte	0x2
 6333 12f9 C006     		.2byte	0x6c0
 6334 12fb CD0F0000 		.4byte	.LASF252
 6335 12ff EF000000 		.4byte	0xef
 6336 1303 01       		.byte	0x1
 6337 1304 0C130000 		.4byte	0x130c
 6338 1308 18130000 		.4byte	0x1318
 6339 130c 1D       		.uleb128 0x1d
 6340 130d 91130000 		.4byte	0x1391
 6341 1311 01       		.byte	0x1
 6342 1312 10       		.uleb128 0x10
 6343 1313 49000000 		.4byte	0x49
 6344 1317 00       		.byte	0
 6345 1318 22       		.uleb128 0x22
 6346 1319 01       		.byte	0x1
 6347 131a 3C0C0000 		.4byte	.LASF253
 6348 131e 02       		.byte	0x2
 6349 131f D706     		.2byte	0x6d7
 6350 1321 4F190000 		.4byte	.LASF254
 6351 1325 EF000000 		.4byte	0xef
 6352 1329 01       		.byte	0x1
 6353 132a 32130000 		.4byte	0x1332
 6354 132e 43130000 		.4byte	0x1343
 6355 1332 1D       		.uleb128 0x1d
 6356 1333 91130000 		.4byte	0x1391
 6357 1337 01       		.byte	0x1
 6358 1338 10       		.uleb128 0x10
 6359 1339 49000000 		.4byte	0x49
 6360 133d 10       		.uleb128 0x10
 6361 133e 1B010000 		.4byte	0x11b
 6362 1342 00       		.byte	0
 6363 1343 22       		.uleb128 0x22
ARM GAS  /tmp/ccq01laD.s 			page 117


 6364 1344 01       		.byte	0x1
 6365 1345 24160000 		.4byte	.LASF255
 6366 1349 02       		.byte	0x2
 6367 134a E206     		.2byte	0x6e2
 6368 134c 1B040000 		.4byte	.LASF256
 6369 1350 EF000000 		.4byte	0xef
 6370 1354 01       		.byte	0x1
 6371 1355 5D130000 		.4byte	0x135d
 6372 1359 64130000 		.4byte	0x1364
 6373 135d 1D       		.uleb128 0x1d
 6374 135e 91130000 		.4byte	0x1391
 6375 1362 01       		.byte	0x1
 6376 1363 00       		.byte	0
 6377 1364 24       		.uleb128 0x24
 6378 1365 01       		.byte	0x1
 6379 1366 FA0E0000 		.4byte	.LASF257
 6380 136a 02       		.byte	0x2
 6381 136b FB06     		.2byte	0x6fb
 6382 136d 9B0C0000 		.4byte	.LASF258
 6383 1371 30000000 		.4byte	0x30
 6384 1375 01       		.byte	0x1
 6385 1376 7A130000 		.4byte	0x137a
 6386 137a 1D       		.uleb128 0x1d
 6387 137b 91130000 		.4byte	0x1391
 6388 137f 01       		.byte	0x1
 6389 1380 10       		.uleb128 0x10
 6390 1381 54080000 		.4byte	0x854
 6391 1385 10       		.uleb128 0x10
 6392 1386 30000000 		.4byte	0x30
 6393 138a 10       		.uleb128 0x10
 6394 138b 1B010000 		.4byte	0x11b
 6395 138f 00       		.byte	0
 6396 1390 00       		.byte	0
 6397 1391 0B       		.uleb128 0xb
 6398 1392 04       		.byte	0x4
 6399 1393 04120000 		.4byte	0x1204
 6400 1397 1F       		.uleb128 0x1f
 6401 1398 AC080000 		.4byte	0x8ac
 6402 139c 28       		.byte	0x28
 6403 139d 02       		.byte	0x2
 6404 139e 2107     		.2byte	0x721
 6405 13a0 A9150000 		.4byte	0x15a9
 6406 13a4 0E       		.uleb128 0xe
 6407 13a5 6D6200   		.ascii	"mb\000"
 6408 13a8 02       		.byte	0x2
 6409 13a9 2607     		.2byte	0x726
 6410 13ab D6060000 		.4byte	0x6d6
 6411 13af 02       		.byte	0x2
 6412 13b0 23       		.byte	0x23
 6413 13b1 00       		.uleb128 0
 6414 13b2 20       		.uleb128 0x20
 6415 13b3 01       		.byte	0x1
 6416 13b4 4D050000 		.4byte	.LASF105
 6417 13b8 02       		.byte	0x2
 6418 13b9 3207     		.2byte	0x732
 6419 13bb A9150000 		.4byte	0x15a9
 6420 13bf 01       		.byte	0x1
ARM GAS  /tmp/ccq01laD.s 			page 118


 6421 13c0 C8130000 		.4byte	0x13c8
 6422 13c4 D9130000 		.4byte	0x13d9
 6423 13c8 1D       		.uleb128 0x1d
 6424 13c9 A9150000 		.4byte	0x15a9
 6425 13cd 01       		.byte	0x1
 6426 13ce 10       		.uleb128 0x10
 6427 13cf D0060000 		.4byte	0x6d0
 6428 13d3 10       		.uleb128 0x10
 6429 13d4 26010000 		.4byte	0x126
 6430 13d8 00       		.byte	0
 6431 13d9 21       		.uleb128 0x21
 6432 13da 01       		.byte	0x1
 6433 13db 67160000 		.4byte	.LASF164
 6434 13df 02       		.byte	0x2
 6435 13e0 3B07     		.2byte	0x73b
 6436 13e2 E20B0000 		.4byte	.LASF259
 6437 13e6 01       		.byte	0x1
 6438 13e7 EF130000 		.4byte	0x13ef
 6439 13eb F6130000 		.4byte	0x13f6
 6440 13ef 1D       		.uleb128 0x1d
 6441 13f0 A9150000 		.4byte	0x15a9
 6442 13f4 01       		.byte	0x1
 6443 13f5 00       		.byte	0
 6444 13f6 22       		.uleb128 0x22
 6445 13f7 01       		.byte	0x1
 6446 13f8 E5190000 		.4byte	.LASF260
 6447 13fc 02       		.byte	0x2
 6448 13fd 4F07     		.2byte	0x74f
 6449 13ff BE090000 		.4byte	.LASF261
 6450 1403 EF000000 		.4byte	0xef
 6451 1407 01       		.byte	0x1
 6452 1408 10140000 		.4byte	0x1410
 6453 140c 21140000 		.4byte	0x1421
 6454 1410 1D       		.uleb128 0x1d
 6455 1411 A9150000 		.4byte	0x15a9
 6456 1415 01       		.byte	0x1
 6457 1416 10       		.uleb128 0x10
 6458 1417 EF000000 		.4byte	0xef
 6459 141b 10       		.uleb128 0x10
 6460 141c 1B010000 		.4byte	0x11b
 6461 1420 00       		.byte	0
 6462 1421 22       		.uleb128 0x22
 6463 1422 01       		.byte	0x1
 6464 1423 EC080000 		.4byte	.LASF262
 6465 1427 02       		.byte	0x2
 6466 1428 6307     		.2byte	0x763
 6467 142a CB060000 		.4byte	.LASF263
 6468 142e EF000000 		.4byte	0xef
 6469 1432 01       		.byte	0x1
 6470 1433 3B140000 		.4byte	0x143b
 6471 1437 4C140000 		.4byte	0x144c
 6472 143b 1D       		.uleb128 0x1d
 6473 143c A9150000 		.4byte	0x15a9
 6474 1440 01       		.byte	0x1
 6475 1441 10       		.uleb128 0x10
 6476 1442 EF000000 		.4byte	0xef
 6477 1446 10       		.uleb128 0x10
ARM GAS  /tmp/ccq01laD.s 			page 119


 6478 1447 1B010000 		.4byte	0x11b
 6479 144b 00       		.byte	0
 6480 144c 22       		.uleb128 0x22
 6481 144d 01       		.byte	0x1
 6482 144e 93080000 		.4byte	.LASF264
 6483 1452 02       		.byte	0x2
 6484 1453 7207     		.2byte	0x772
 6485 1455 7F1A0000 		.4byte	.LASF265
 6486 1459 EF000000 		.4byte	0xef
 6487 145d 01       		.byte	0x1
 6488 145e 66140000 		.4byte	0x1466
 6489 1462 72140000 		.4byte	0x1472
 6490 1466 1D       		.uleb128 0x1d
 6491 1467 A9150000 		.4byte	0x15a9
 6492 146b 01       		.byte	0x1
 6493 146c 10       		.uleb128 0x10
 6494 146d EF000000 		.4byte	0xef
 6495 1471 00       		.byte	0
 6496 1472 22       		.uleb128 0x22
 6497 1473 01       		.byte	0x1
 6498 1474 1A160000 		.4byte	.LASF266
 6499 1478 02       		.byte	0x2
 6500 1479 8607     		.2byte	0x786
 6501 147b 760C0000 		.4byte	.LASF267
 6502 147f EF000000 		.4byte	0xef
 6503 1483 01       		.byte	0x1
 6504 1484 8C140000 		.4byte	0x148c
 6505 1488 9D140000 		.4byte	0x149d
 6506 148c 1D       		.uleb128 0x1d
 6507 148d A9150000 		.4byte	0x15a9
 6508 1491 01       		.byte	0x1
 6509 1492 10       		.uleb128 0x10
 6510 1493 EF000000 		.4byte	0xef
 6511 1497 10       		.uleb128 0x10
 6512 1498 1B010000 		.4byte	0x11b
 6513 149c 00       		.byte	0
 6514 149d 22       		.uleb128 0x22
 6515 149e 01       		.byte	0x1
 6516 149f 720B0000 		.4byte	.LASF268
 6517 14a3 02       		.byte	0x2
 6518 14a4 9A07     		.2byte	0x79a
 6519 14a6 710F0000 		.4byte	.LASF269
 6520 14aa EF000000 		.4byte	0xef
 6521 14ae 01       		.byte	0x1
 6522 14af B7140000 		.4byte	0x14b7
 6523 14b3 C8140000 		.4byte	0x14c8
 6524 14b7 1D       		.uleb128 0x1d
 6525 14b8 A9150000 		.4byte	0x15a9
 6526 14bc 01       		.byte	0x1
 6527 14bd 10       		.uleb128 0x10
 6528 14be EF000000 		.4byte	0xef
 6529 14c2 10       		.uleb128 0x10
 6530 14c3 1B010000 		.4byte	0x11b
 6531 14c7 00       		.byte	0
 6532 14c8 22       		.uleb128 0x22
 6533 14c9 01       		.byte	0x1
 6534 14ca 88100000 		.4byte	.LASF270
ARM GAS  /tmp/ccq01laD.s 			page 120


 6535 14ce 02       		.byte	0x2
 6536 14cf A907     		.2byte	0x7a9
 6537 14d1 160D0000 		.4byte	.LASF271
 6538 14d5 EF000000 		.4byte	0xef
 6539 14d9 01       		.byte	0x1
 6540 14da E2140000 		.4byte	0x14e2
 6541 14de EE140000 		.4byte	0x14ee
 6542 14e2 1D       		.uleb128 0x1d
 6543 14e3 A9150000 		.4byte	0x15a9
 6544 14e7 01       		.byte	0x1
 6545 14e8 10       		.uleb128 0x10
 6546 14e9 EF000000 		.4byte	0xef
 6547 14ed 00       		.byte	0
 6548 14ee 22       		.uleb128 0x22
 6549 14ef 01       		.byte	0x1
 6550 14f0 51090000 		.4byte	.LASF272
 6551 14f4 02       		.byte	0x2
 6552 14f5 BD07     		.2byte	0x7bd
 6553 14f7 FC1C0000 		.4byte	.LASF273
 6554 14fb EF000000 		.4byte	0xef
 6555 14ff 01       		.byte	0x1
 6556 1500 08150000 		.4byte	0x1508
 6557 1504 19150000 		.4byte	0x1519
 6558 1508 1D       		.uleb128 0x1d
 6559 1509 A9150000 		.4byte	0x15a9
 6560 150d 01       		.byte	0x1
 6561 150e 10       		.uleb128 0x10
 6562 150f D0060000 		.4byte	0x6d0
 6563 1513 10       		.uleb128 0x10
 6564 1514 1B010000 		.4byte	0x11b
 6565 1518 00       		.byte	0
 6566 1519 22       		.uleb128 0x22
 6567 151a 01       		.byte	0x1
 6568 151b 02050000 		.4byte	.LASF274
 6569 151f 02       		.byte	0x2
 6570 1520 D107     		.2byte	0x7d1
 6571 1522 00000000 		.4byte	.LASF275
 6572 1526 EF000000 		.4byte	0xef
 6573 152a 01       		.byte	0x1
 6574 152b 33150000 		.4byte	0x1533
 6575 152f 44150000 		.4byte	0x1544
 6576 1533 1D       		.uleb128 0x1d
 6577 1534 A9150000 		.4byte	0x15a9
 6578 1538 01       		.byte	0x1
 6579 1539 10       		.uleb128 0x10
 6580 153a D0060000 		.4byte	0x6d0
 6581 153e 10       		.uleb128 0x10
 6582 153f 1B010000 		.4byte	0x11b
 6583 1543 00       		.byte	0
 6584 1544 22       		.uleb128 0x22
 6585 1545 01       		.byte	0x1
 6586 1546 C4040000 		.4byte	.LASF276
 6587 154a 02       		.byte	0x2
 6588 154b E107     		.2byte	0x7e1
 6589 154d D31A0000 		.4byte	.LASF277
 6590 1551 EF000000 		.4byte	0xef
 6591 1555 01       		.byte	0x1
ARM GAS  /tmp/ccq01laD.s 			page 121


 6592 1556 5E150000 		.4byte	0x155e
 6593 155a 6A150000 		.4byte	0x156a
 6594 155e 1D       		.uleb128 0x1d
 6595 155f A9150000 		.4byte	0x15a9
 6596 1563 01       		.byte	0x1
 6597 1564 10       		.uleb128 0x10
 6598 1565 D0060000 		.4byte	0x6d0
 6599 1569 00       		.byte	0
 6600 156a 22       		.uleb128 0x22
 6601 156b 01       		.byte	0x1
 6602 156c 8A130000 		.4byte	.LASF278
 6603 1570 02       		.byte	0x2
 6604 1571 EE07     		.2byte	0x7ee
 6605 1573 AF110000 		.4byte	.LASF279
 6606 1577 26010000 		.4byte	0x126
 6607 157b 01       		.byte	0x1
 6608 157c 84150000 		.4byte	0x1584
 6609 1580 8B150000 		.4byte	0x158b
 6610 1584 1D       		.uleb128 0x1d
 6611 1585 A9150000 		.4byte	0x15a9
 6612 1589 01       		.byte	0x1
 6613 158a 00       		.byte	0
 6614 158b 24       		.uleb128 0x24
 6615 158c 01       		.byte	0x1
 6616 158d 6A1A0000 		.4byte	.LASF280
 6617 1591 02       		.byte	0x2
 6618 1592 FB07     		.2byte	0x7fb
 6619 1594 08150000 		.4byte	.LASF281
 6620 1598 26010000 		.4byte	0x126
 6621 159c 01       		.byte	0x1
 6622 159d A1150000 		.4byte	0x15a1
 6623 15a1 1D       		.uleb128 0x1d
 6624 15a2 A9150000 		.4byte	0x15a9
 6625 15a6 01       		.byte	0x1
 6626 15a7 00       		.byte	0
 6627 15a8 00       		.byte	0
 6628 15a9 0B       		.uleb128 0xb
 6629 15aa 04       		.byte	0x4
 6630 15ab 97130000 		.4byte	0x1397
 6631 15af 1F       		.uleb128 0x1f
 6632 15b0 B2080000 		.4byte	0x8b2
 6633 15b4 0C       		.byte	0xc
 6634 15b5 02       		.byte	0x2
 6635 15b6 1E08     		.2byte	0x81e
 6636 15b8 CD160000 		.4byte	0x16cd
 6637 15bc 23       		.uleb128 0x23
 6638 15bd 0F120000 		.4byte	.LASF282
 6639 15c1 02       		.byte	0x2
 6640 15c2 2308     		.2byte	0x823
 6641 15c4 5F070000 		.4byte	0x75f
 6642 15c8 02       		.byte	0x2
 6643 15c9 23       		.byte	0x23
 6644 15ca 00       		.uleb128 0
 6645 15cb 20       		.uleb128 0x20
 6646 15cc 01       		.byte	0x1
 6647 15cd BA0D0000 		.4byte	.LASF113
 6648 15d1 02       		.byte	0x2
ARM GAS  /tmp/ccq01laD.s 			page 122


 6649 15d2 3108     		.2byte	0x831
 6650 15d4 CD160000 		.4byte	0x16cd
 6651 15d8 01       		.byte	0x1
 6652 15d9 E1150000 		.4byte	0x15e1
 6653 15dd F2150000 		.4byte	0x15f2
 6654 15e1 1D       		.uleb128 0x1d
 6655 15e2 CD160000 		.4byte	0x16cd
 6656 15e6 01       		.byte	0x1
 6657 15e7 10       		.uleb128 0x10
 6658 15e8 30000000 		.4byte	0x30
 6659 15ec 10       		.uleb128 0x10
 6660 15ed E1060000 		.4byte	0x6e1
 6661 15f1 00       		.byte	0
 6662 15f2 20       		.uleb128 0x20
 6663 15f3 01       		.byte	0x1
 6664 15f4 BA0D0000 		.4byte	.LASF113
 6665 15f8 02       		.byte	0x2
 6666 15f9 4108     		.2byte	0x841
 6667 15fb CD160000 		.4byte	0x16cd
 6668 15ff 01       		.byte	0x1
 6669 1600 08160000 		.4byte	0x1608
 6670 1604 23160000 		.4byte	0x1623
 6671 1608 1D       		.uleb128 0x1d
 6672 1609 CD160000 		.4byte	0x16cd
 6673 160d 01       		.byte	0x1
 6674 160e 10       		.uleb128 0x10
 6675 160f 30000000 		.4byte	0x30
 6676 1613 10       		.uleb128 0x10
 6677 1614 E1060000 		.4byte	0x6e1
 6678 1618 10       		.uleb128 0x10
 6679 1619 0F030000 		.4byte	0x30f
 6680 161d 10       		.uleb128 0x10
 6681 161e 30000000 		.4byte	0x30
 6682 1622 00       		.byte	0
 6683 1623 21       		.uleb128 0x21
 6684 1624 01       		.byte	0x1
 6685 1625 5E170000 		.4byte	.LASF283
 6686 1629 02       		.byte	0x2
 6687 162a 4F08     		.2byte	0x84f
 6688 162c D00E0000 		.4byte	.LASF284
 6689 1630 01       		.byte	0x1
 6690 1631 39160000 		.4byte	0x1639
 6691 1635 4A160000 		.4byte	0x164a
 6692 1639 1D       		.uleb128 0x1d
 6693 163a CD160000 		.4byte	0x16cd
 6694 163e 01       		.byte	0x1
 6695 163f 10       		.uleb128 0x10
 6696 1640 0F030000 		.4byte	0x30f
 6697 1644 10       		.uleb128 0x10
 6698 1645 30000000 		.4byte	0x30
 6699 1649 00       		.byte	0
 6700 164a 22       		.uleb128 0x22
 6701 164b 01       		.byte	0x1
 6702 164c F10F0000 		.4byte	.LASF150
 6703 1650 02       		.byte	0x2
 6704 1651 5A08     		.2byte	0x85a
 6705 1653 DE090000 		.4byte	.LASF285
ARM GAS  /tmp/ccq01laD.s 			page 123


 6706 1657 0F030000 		.4byte	0x30f
 6707 165b 01       		.byte	0x1
 6708 165c 64160000 		.4byte	0x1664
 6709 1660 6B160000 		.4byte	0x166b
 6710 1664 1D       		.uleb128 0x1d
 6711 1665 CD160000 		.4byte	0x16cd
 6712 1669 01       		.byte	0x1
 6713 166a 00       		.byte	0
 6714 166b 22       		.uleb128 0x22
 6715 166c 01       		.byte	0x1
 6716 166d 6A140000 		.4byte	.LASF149
 6717 1671 02       		.byte	0x2
 6718 1672 6508     		.2byte	0x865
 6719 1674 16140000 		.4byte	.LASF286
 6720 1678 0F030000 		.4byte	0x30f
 6721 167c 01       		.byte	0x1
 6722 167d 85160000 		.4byte	0x1685
 6723 1681 8C160000 		.4byte	0x168c
 6724 1685 1D       		.uleb128 0x1d
 6725 1686 CD160000 		.4byte	0x16cd
 6726 168a 01       		.byte	0x1
 6727 168b 00       		.byte	0
 6728 168c 21       		.uleb128 0x21
 6729 168d 01       		.byte	0x1
 6730 168e BD160000 		.4byte	.LASF287
 6731 1692 02       		.byte	0x2
 6732 1693 7308     		.2byte	0x873
 6733 1695 4D070000 		.4byte	.LASF288
 6734 1699 01       		.byte	0x1
 6735 169a A2160000 		.4byte	0x16a2
 6736 169e AE160000 		.4byte	0x16ae
 6737 16a2 1D       		.uleb128 0x1d
 6738 16a3 CD160000 		.4byte	0x16cd
 6739 16a7 01       		.byte	0x1
 6740 16a8 10       		.uleb128 0x10
 6741 16a9 0F030000 		.4byte	0x30f
 6742 16ad 00       		.byte	0
 6743 16ae 25       		.uleb128 0x25
 6744 16af 01       		.byte	0x1
 6745 16b0 B5120000 		.4byte	.LASF289
 6746 16b4 02       		.byte	0x2
 6747 16b5 8308     		.2byte	0x883
 6748 16b7 A80F0000 		.4byte	.LASF290
 6749 16bb 01       		.byte	0x1
 6750 16bc C0160000 		.4byte	0x16c0
 6751 16c0 1D       		.uleb128 0x1d
 6752 16c1 CD160000 		.4byte	0x16cd
 6753 16c5 01       		.byte	0x1
 6754 16c6 10       		.uleb128 0x10
 6755 16c7 0F030000 		.4byte	0x30f
 6756 16cb 00       		.byte	0
 6757 16cc 00       		.byte	0
 6758 16cd 0B       		.uleb128 0xb
 6759 16ce 04       		.byte	0x4
 6760 16cf AF150000 		.4byte	0x15af
 6761 16d3 28       		.uleb128 0x28
 6762 16d4 B8080000 		.4byte	0x8b8
ARM GAS  /tmp/ccq01laD.s 			page 124


 6763 16d8 08       		.byte	0x8
 6764 16d9 02       		.byte	0x2
 6765 16da A601     		.2byte	0x1a6
 6766 16dc BE080000 		.4byte	0x8be
 6767 16e0 7E190000 		.4byte	0x197e
 6768 16e4 29       		.uleb128 0x29
 6769 16e5 BE080000 		.4byte	0x8be
 6770 16e9 02       		.byte	0x2
 6771 16ea 23       		.byte	0x23
 6772 16eb 00       		.uleb128 0
 6773 16ec 01       		.byte	0x1
 6774 16ed 2A       		.uleb128 0x2a
 6775 16ee 01       		.byte	0x1
 6776 16ef 8E150000 		.4byte	.LASF135
 6777 16f3 7E190000 		.4byte	0x197e
 6778 16f7 01       		.byte	0x1
 6779 16f8 01       		.byte	0x1
 6780 16f9 01170000 		.4byte	0x1701
 6781 16fd 0D170000 		.4byte	0x170d
 6782 1701 1D       		.uleb128 0x1d
 6783 1702 7E190000 		.4byte	0x197e
 6784 1706 01       		.byte	0x1
 6785 1707 10       		.uleb128 0x10
 6786 1708 84190000 		.4byte	0x1984
 6787 170c 00       		.byte	0
 6788 170d 20       		.uleb128 0x20
 6789 170e 01       		.byte	0x1
 6790 170f 8E150000 		.4byte	.LASF135
 6791 1713 01       		.byte	0x1
 6792 1714 0101     		.2byte	0x101
 6793 1716 7E190000 		.4byte	0x197e
 6794 171a 01       		.byte	0x1
 6795 171b 23170000 		.4byte	0x1723
 6796 171f 2A170000 		.4byte	0x172a
 6797 1723 1D       		.uleb128 0x1d
 6798 1724 7E190000 		.4byte	0x197e
 6799 1728 01       		.byte	0x1
 6800 1729 00       		.byte	0
 6801 172a 2B       		.uleb128 0x2b
 6802 172b 01       		.byte	0x1
 6803 172c 161C0000 		.4byte	.LASF291
 6804 1730 01       		.byte	0x1
 6805 1731 0501     		.2byte	0x105
 6806 1733 FC1A0000 		.4byte	.LASF293
 6807 1737 EF000000 		.4byte	0xef
 6808 173b 01       		.byte	0x1
 6809 173c 02       		.byte	0x2
 6810 173d 10       		.byte	0x10
 6811 173e 01       		.uleb128 0x1
 6812 173f D3160000 		.4byte	0x16d3
 6813 1743 01       		.byte	0x1
 6814 1744 4C170000 		.4byte	0x174c
 6815 1748 53170000 		.4byte	0x1753
 6816 174c 1D       		.uleb128 0x1d
 6817 174d 7E190000 		.4byte	0x197e
 6818 1751 01       		.byte	0x1
 6819 1752 00       		.byte	0
ARM GAS  /tmp/ccq01laD.s 			page 125


 6820 1753 2B       		.uleb128 0x2b
 6821 1754 01       		.byte	0x1
 6822 1755 D9160000 		.4byte	.LASF292
 6823 1759 01       		.byte	0x1
 6824 175a 0A01     		.2byte	0x10a
 6825 175c CF030000 		.4byte	.LASF294
 6826 1760 BE080000 		.4byte	0x8be
 6827 1764 01       		.byte	0x1
 6828 1765 02       		.byte	0x2
 6829 1766 10       		.byte	0x10
 6830 1767 02       		.uleb128 0x2
 6831 1768 D3160000 		.4byte	0x16d3
 6832 176c 01       		.byte	0x1
 6833 176d 75170000 		.4byte	0x1775
 6834 1771 81170000 		.4byte	0x1781
 6835 1775 1D       		.uleb128 0x1d
 6836 1776 7E190000 		.4byte	0x197e
 6837 177a 01       		.byte	0x1
 6838 177b 10       		.uleb128 0x10
 6839 177c E4000000 		.4byte	0xe4
 6840 1780 00       		.byte	0
 6841 1781 2C       		.uleb128 0x2c
 6842 1782 01       		.byte	0x1
 6843 1783 B1010000 		.4byte	.LASF295
 6844 1787 01       		.byte	0x1
 6845 1788 1601     		.2byte	0x116
 6846 178a 7F120000 		.4byte	.LASF296
 6847 178e 01       		.byte	0x1
 6848 178f 99170000 		.4byte	0x1799
 6849 1793 10       		.uleb128 0x10
 6850 1794 70070000 		.4byte	0x770
 6851 1798 00       		.byte	0
 6852 1799 2D       		.uleb128 0x2d
 6853 179a 01       		.byte	0x1
 6854 179b 13170000 		.4byte	.LASF297
 6855 179f 01       		.byte	0x1
 6856 17a0 1B01     		.2byte	0x11b
 6857 17a2 BC1B0000 		.4byte	.LASF298
 6858 17a6 E4000000 		.4byte	0xe4
 6859 17aa 01       		.byte	0x1
 6860 17ab B5170000 		.4byte	0x17b5
 6861 17af 10       		.uleb128 0x10
 6862 17b0 E4000000 		.4byte	0xe4
 6863 17b4 00       		.byte	0
 6864 17b5 2C       		.uleb128 0x2c
 6865 17b6 01       		.byte	0x1
 6866 17b7 710C0000 		.4byte	.LASF299
 6867 17bb 01       		.byte	0x1
 6868 17bc 2001     		.2byte	0x120
 6869 17be 760A0000 		.4byte	.LASF300
 6870 17c2 01       		.byte	0x1
 6871 17c3 CD170000 		.4byte	0x17cd
 6872 17c7 10       		.uleb128 0x10
 6873 17c8 EF000000 		.4byte	0xef
 6874 17cc 00       		.byte	0
 6875 17cd 2C       		.uleb128 0x2c
 6876 17ce 01       		.byte	0x1
ARM GAS  /tmp/ccq01laD.s 			page 126


 6877 17cf 91050000 		.4byte	.LASF301
 6878 17d3 01       		.byte	0x1
 6879 17d4 2501     		.2byte	0x125
 6880 17d6 4B010000 		.4byte	.LASF302
 6881 17da 01       		.byte	0x1
 6882 17db E5170000 		.4byte	0x17e5
 6883 17df 10       		.uleb128 0x10
 6884 17e0 EF000000 		.4byte	0xef
 6885 17e4 00       		.byte	0
 6886 17e5 2E       		.uleb128 0x2e
 6887 17e6 01       		.byte	0x1
 6888 17e7 BB120000 		.4byte	.LASF303
 6889 17eb 01       		.byte	0x1
 6890 17ec 2A01     		.2byte	0x12a
 6891 17ee 46110000 		.4byte	.LASF310
 6892 17f2 B1000000 		.4byte	0xb1
 6893 17f6 01       		.byte	0x1
 6894 17f7 2C       		.uleb128 0x2c
 6895 17f8 01       		.byte	0x1
 6896 17f9 47070000 		.4byte	.LASF304
 6897 17fd 01       		.byte	0x1
 6898 17fe 2F01     		.2byte	0x12f
 6899 1800 3B180000 		.4byte	.LASF305
 6900 1804 01       		.byte	0x1
 6901 1805 0F180000 		.4byte	0x180f
 6902 1809 10       		.uleb128 0x10
 6903 180a 1B010000 		.4byte	0x11b
 6904 180e 00       		.byte	0
 6905 180f 2C       		.uleb128 0x2c
 6906 1810 01       		.byte	0x1
 6907 1811 62040000 		.4byte	.LASF306
 6908 1815 01       		.byte	0x1
 6909 1816 3401     		.2byte	0x134
 6910 1818 9A040000 		.4byte	.LASF307
 6911 181c 01       		.byte	0x1
 6912 181d 27180000 		.4byte	0x1827
 6913 1821 10       		.uleb128 0x10
 6914 1822 1B010000 		.4byte	0x11b
 6915 1826 00       		.byte	0
 6916 1827 2F       		.uleb128 0x2f
 6917 1828 01       		.byte	0x1
 6918 1829 3B0F0000 		.4byte	.LASF308
 6919 182d 01       		.byte	0x1
 6920 182e 3901     		.2byte	0x139
 6921 1830 BD140000 		.4byte	.LASF331
 6922 1834 01       		.byte	0x1
 6923 1835 2E       		.uleb128 0x2e
 6924 1836 01       		.byte	0x1
 6925 1837 78030000 		.4byte	.LASF309
 6926 183b 01       		.byte	0x1
 6927 183c 3F01     		.2byte	0x13f
 6928 183e 20010000 		.4byte	.LASF311
 6929 1842 BE080000 		.4byte	0x8be
 6930 1846 01       		.byte	0x1
 6931 1847 2D       		.uleb128 0x2d
 6932 1848 01       		.byte	0x1
 6933 1849 A80D0000 		.4byte	.LASF312
ARM GAS  /tmp/ccq01laD.s 			page 127


 6934 184d 01       		.byte	0x1
 6935 184e 4701     		.2byte	0x147
 6936 1850 EE180000 		.4byte	.LASF313
 6937 1854 05010000 		.4byte	0x105
 6938 1858 01       		.byte	0x1
 6939 1859 63180000 		.4byte	0x1863
 6940 185d 10       		.uleb128 0x10
 6941 185e 05010000 		.4byte	0x105
 6942 1862 00       		.byte	0
 6943 1863 2D       		.uleb128 0x2d
 6944 1864 01       		.byte	0x1
 6945 1865 15080000 		.4byte	.LASF314
 6946 1869 01       		.byte	0x1
 6947 186a 4C01     		.2byte	0x14c
 6948 186c EC0D0000 		.4byte	.LASF315
 6949 1870 05010000 		.4byte	0x105
 6950 1874 01       		.byte	0x1
 6951 1875 7F180000 		.4byte	0x187f
 6952 1879 10       		.uleb128 0x10
 6953 187a 05010000 		.4byte	0x105
 6954 187e 00       		.byte	0
 6955 187f 2D       		.uleb128 0x2d
 6956 1880 01       		.byte	0x1
 6957 1881 AC030000 		.4byte	.LASF316
 6958 1885 01       		.byte	0x1
 6959 1886 5101     		.2byte	0x151
 6960 1888 DD070000 		.4byte	.LASF317
 6961 188c 05010000 		.4byte	0x105
 6962 1890 01       		.byte	0x1
 6963 1891 9B180000 		.4byte	0x189b
 6964 1895 10       		.uleb128 0x10
 6965 1896 05010000 		.4byte	0x105
 6966 189a 00       		.byte	0
 6967 189b 2D       		.uleb128 0x2d
 6968 189c 01       		.byte	0x1
 6969 189d EA000000 		.4byte	.LASF318
 6970 18a1 01       		.byte	0x1
 6971 18a2 5601     		.2byte	0x156
 6972 18a4 A71A0000 		.4byte	.LASF319
 6973 18a8 05010000 		.4byte	0x105
 6974 18ac 01       		.byte	0x1
 6975 18ad B7180000 		.4byte	0x18b7
 6976 18b1 10       		.uleb128 0x10
 6977 18b2 05010000 		.4byte	0x105
 6978 18b6 00       		.byte	0
 6979 18b7 2D       		.uleb128 0x2d
 6980 18b8 01       		.byte	0x1
 6981 18b9 0B100000 		.4byte	.LASF320
 6982 18bd 01       		.byte	0x1
 6983 18be 5B01     		.2byte	0x15b
 6984 18c0 B3100000 		.4byte	.LASF321
 6985 18c4 05010000 		.4byte	0x105
 6986 18c8 01       		.byte	0x1
 6987 18c9 D3180000 		.4byte	0x18d3
 6988 18cd 10       		.uleb128 0x10
 6989 18ce 05010000 		.4byte	0x105
 6990 18d2 00       		.byte	0
ARM GAS  /tmp/ccq01laD.s 			page 128


 6991 18d3 2D       		.uleb128 0x2d
 6992 18d4 01       		.byte	0x1
 6993 18d5 8D140000 		.4byte	.LASF322
 6994 18d9 01       		.byte	0x1
 6995 18da 6101     		.2byte	0x161
 6996 18dc 14060000 		.4byte	.LASF323
 6997 18e0 05010000 		.4byte	0x105
 6998 18e4 01       		.byte	0x1
 6999 18e5 F4180000 		.4byte	0x18f4
 7000 18e9 10       		.uleb128 0x10
 7001 18ea 05010000 		.4byte	0x105
 7002 18ee 10       		.uleb128 0x10
 7003 18ef 1B010000 		.4byte	0x11b
 7004 18f3 00       		.byte	0
 7005 18f4 2D       		.uleb128 0x2d
 7006 18f5 01       		.byte	0x1
 7007 18f6 B8170000 		.4byte	.LASF324
 7008 18fa 01       		.byte	0x1
 7009 18fb 6701     		.2byte	0x167
 7010 18fd 4A150000 		.4byte	.LASF325
 7011 1901 05010000 		.4byte	0x105
 7012 1905 01       		.byte	0x1
 7013 1906 15190000 		.4byte	0x1915
 7014 190a 10       		.uleb128 0x10
 7015 190b 05010000 		.4byte	0x105
 7016 190f 10       		.uleb128 0x10
 7017 1910 1B010000 		.4byte	0x11b
 7018 1914 00       		.byte	0
 7019 1915 2D       		.uleb128 0x2d
 7020 1916 01       		.byte	0x1
 7021 1917 BA190000 		.4byte	.LASF326
 7022 191b 01       		.byte	0x1
 7023 191c 6D01     		.2byte	0x16d
 7024 191e 20020000 		.4byte	.LASF327
 7025 1922 05010000 		.4byte	0x105
 7026 1926 01       		.byte	0x1
 7027 1927 36190000 		.4byte	0x1936
 7028 192b 10       		.uleb128 0x10
 7029 192c 05010000 		.4byte	0x105
 7030 1930 10       		.uleb128 0x10
 7031 1931 1B010000 		.4byte	0x11b
 7032 1935 00       		.byte	0
 7033 1936 2C       		.uleb128 0x2c
 7034 1937 01       		.byte	0x1
 7035 1938 061A0000 		.4byte	.LASF328
 7036 193c 01       		.byte	0x1
 7037 193d 7401     		.2byte	0x174
 7038 193f 72170000 		.4byte	.LASF329
 7039 1943 01       		.byte	0x1
 7040 1944 53190000 		.4byte	0x1953
 7041 1948 10       		.uleb128 0x10
 7042 1949 8F190000 		.4byte	0x198f
 7043 194d 10       		.uleb128 0x10
 7044 194e 05010000 		.4byte	0x105
 7045 1952 00       		.byte	0
 7046 1953 2F       		.uleb128 0x2f
 7047 1954 01       		.byte	0x1
ARM GAS  /tmp/ccq01laD.s 			page 129


 7048 1955 09080000 		.4byte	.LASF330
 7049 1959 01       		.byte	0x1
 7050 195a 7C01     		.2byte	0x17c
 7051 195c 66050000 		.4byte	.LASF332
 7052 1960 01       		.byte	0x1
 7053 1961 2F       		.uleb128 0x2f
 7054 1962 01       		.byte	0x1
 7055 1963 EE1D0000 		.4byte	.LASF333
 7056 1967 01       		.byte	0x1
 7057 1968 8101     		.2byte	0x181
 7058 196a 3E1A0000 		.4byte	.LASF334
 7059 196e 01       		.byte	0x1
 7060 196f 2F       		.uleb128 0x2f
 7061 1970 01       		.byte	0x1
 7062 1971 BA060000 		.4byte	.LASF335
 7063 1975 01       		.byte	0x1
 7064 1976 8601     		.2byte	0x186
 7065 1978 621D0000 		.4byte	.LASF336
 7066 197c 01       		.byte	0x1
 7067 197d 00       		.byte	0
 7068 197e 0B       		.uleb128 0xb
 7069 197f 04       		.byte	0x4
 7070 1980 D3160000 		.4byte	0x16d3
 7071 1984 30       		.uleb128 0x30
 7072 1985 04       		.byte	0x4
 7073 1986 8A190000 		.4byte	0x198a
 7074 198a 13       		.uleb128 0x13
 7075 198b D3160000 		.4byte	0x16d3
 7076 198f 0B       		.uleb128 0xb
 7077 1990 04       		.byte	0x4
 7078 1991 95190000 		.4byte	0x1995
 7079 1995 13       		.uleb128 0x13
 7080 1996 53060000 		.4byte	0x653
 7081 199a 31       		.uleb128 0x31
 7082 199b BE080000 		.4byte	0x8be
 7083 199f 08       		.byte	0x8
 7084 19a0 02       		.byte	0x2
 7085 19a1 EA       		.byte	0xea
 7086 19a2 9A190000 		.4byte	0x199a
 7087 19a6 AD1B0000 		.4byte	0x1bad
 7088 19aa 32       		.uleb128 0x32
 7089 19ab FB0C0000 		.4byte	.LASF337
 7090 19af B81B0000 		.4byte	0x1bb8
 7091 19b3 02       		.byte	0x2
 7092 19b4 23       		.byte	0x23
 7093 19b5 00       		.uleb128 0
 7094 19b6 01       		.byte	0x1
 7095 19b7 08       		.uleb128 0x8
 7096 19b8 DA190000 		.4byte	.LASF338
 7097 19bc 02       		.byte	0x2
 7098 19bd EF       		.byte	0xef
 7099 19be CD020000 		.4byte	0x2cd
 7100 19c2 02       		.byte	0x2
 7101 19c3 23       		.byte	0x23
 7102 19c4 04       		.uleb128 0x4
 7103 19c5 2A       		.uleb128 0x2a
 7104 19c6 01       		.byte	0x1
ARM GAS  /tmp/ccq01laD.s 			page 130


 7105 19c7 0A160000 		.4byte	.LASF136
 7106 19cb C81B0000 		.4byte	0x1bc8
 7107 19cf 01       		.byte	0x1
 7108 19d0 01       		.byte	0x1
 7109 19d1 D9190000 		.4byte	0x19d9
 7110 19d5 E5190000 		.4byte	0x19e5
 7111 19d9 1D       		.uleb128 0x1d
 7112 19da C81B0000 		.4byte	0x1bc8
 7113 19de 01       		.byte	0x1
 7114 19df 10       		.uleb128 0x10
 7115 19e0 CE1B0000 		.4byte	0x1bce
 7116 19e4 00       		.byte	0
 7117 19e5 33       		.uleb128 0x33
 7118 19e6 01       		.byte	0x1
 7119 19e7 0A160000 		.4byte	.LASF136
 7120 19eb 02       		.byte	0x2
 7121 19ec FA       		.byte	0xfa
 7122 19ed C81B0000 		.4byte	0x1bc8
 7123 19f1 01       		.byte	0x1
 7124 19f2 FA190000 		.4byte	0x19fa
 7125 19f6 061A0000 		.4byte	0x1a06
 7126 19fa 1D       		.uleb128 0x1d
 7127 19fb C81B0000 		.4byte	0x1bc8
 7128 19ff 01       		.byte	0x1
 7129 1a00 10       		.uleb128 0x10
 7130 1a01 CD020000 		.4byte	0x2cd
 7131 1a05 00       		.byte	0
 7132 1a06 34       		.uleb128 0x34
 7133 1a07 01       		.byte	0x1
 7134 1a08 FB1D0000 		.4byte	.LASF390
 7135 1a0c 01       		.byte	0x1
 7136 1a0d 6B       		.byte	0x6b
 7137 1a0e 300B0000 		.4byte	.LASF391
 7138 1a12 01       		.byte	0x1
 7139 1a13 02       		.byte	0x2
 7140 1a14 10       		.byte	0x10
 7141 1a15 00       		.uleb128 0
 7142 1a16 9A190000 		.4byte	0x199a
 7143 1a1a 01       		.byte	0x1
 7144 1a1b 231A0000 		.4byte	0x1a23
 7145 1a1f 2A1A0000 		.4byte	0x1a2a
 7146 1a23 1D       		.uleb128 0x1d
 7147 1a24 C81B0000 		.4byte	0x1bc8
 7148 1a28 01       		.byte	0x1
 7149 1a29 00       		.byte	0
 7150 1a2a 35       		.uleb128 0x35
 7151 1a2b 01       		.byte	0x1
 7152 1a2c 1E0B0000 		.4byte	.LASF339
 7153 1a30 01       		.byte	0x1
 7154 1a31 70       		.byte	0x70
 7155 1a32 24190000 		.4byte	.LASF341
 7156 1a36 EF000000 		.4byte	0xef
 7157 1a3a 01       		.byte	0x1
 7158 1a3b 431A0000 		.4byte	0x1a43
 7159 1a3f 4A1A0000 		.4byte	0x1a4a
 7160 1a43 1D       		.uleb128 0x1d
 7161 1a44 C81B0000 		.4byte	0x1bc8
ARM GAS  /tmp/ccq01laD.s 			page 131


 7162 1a48 01       		.byte	0x1
 7163 1a49 00       		.byte	0
 7164 1a4a 35       		.uleb128 0x35
 7165 1a4b 01       		.byte	0x1
 7166 1a4c BB130000 		.4byte	.LASF340
 7167 1a50 01       		.byte	0x1
 7168 1a51 81       		.byte	0x81
 7169 1a52 C80C0000 		.4byte	.LASF342
 7170 1a56 EF000000 		.4byte	0xef
 7171 1a5a 01       		.byte	0x1
 7172 1a5b 631A0000 		.4byte	0x1a63
 7173 1a5f 6A1A0000 		.4byte	0x1a6a
 7174 1a63 1D       		.uleb128 0x1d
 7175 1a64 C81B0000 		.4byte	0x1bc8
 7176 1a68 01       		.byte	0x1
 7177 1a69 00       		.byte	0
 7178 1a6a 1C       		.uleb128 0x1c
 7179 1a6b 01       		.byte	0x1
 7180 1a6c 030A0000 		.4byte	.LASF343
 7181 1a70 01       		.byte	0x1
 7182 1a71 8C       		.byte	0x8c
 7183 1a72 CB120000 		.4byte	.LASF344
 7184 1a76 01       		.byte	0x1
 7185 1a77 7F1A0000 		.4byte	0x1a7f
 7186 1a7b 8B1A0000 		.4byte	0x1a8b
 7187 1a7f 1D       		.uleb128 0x1d
 7188 1a80 C81B0000 		.4byte	0x1bc8
 7189 1a84 01       		.byte	0x1
 7190 1a85 10       		.uleb128 0x10
 7191 1a86 EF000000 		.4byte	0xef
 7192 1a8a 00       		.byte	0
 7193 1a8b 1C       		.uleb128 0x1c
 7194 1a8c 01       		.byte	0x1
 7195 1a8d 48060000 		.4byte	.LASF345
 7196 1a91 01       		.byte	0x1
 7197 1a92 9D       		.byte	0x9d
 7198 1a93 9D050000 		.4byte	.LASF346
 7199 1a97 01       		.byte	0x1
 7200 1a98 A01A0000 		.4byte	0x1aa0
 7201 1a9c AC1A0000 		.4byte	0x1aac
 7202 1aa0 1D       		.uleb128 0x1d
 7203 1aa1 C81B0000 		.4byte	0x1bc8
 7204 1aa5 01       		.byte	0x1
 7205 1aa6 10       		.uleb128 0x10
 7206 1aa7 EF000000 		.4byte	0xef
 7207 1aab 00       		.byte	0
 7208 1aac 1C       		.uleb128 0x1c
 7209 1aad 01       		.byte	0x1
 7210 1aae 3F030000 		.4byte	.LASF347
 7211 1ab2 01       		.byte	0x1
 7212 1ab3 AB       		.byte	0xab
 7213 1ab4 5E080000 		.4byte	.LASF348
 7214 1ab8 01       		.byte	0x1
 7215 1ab9 C11A0000 		.4byte	0x1ac1
 7216 1abd C81A0000 		.4byte	0x1ac8
 7217 1ac1 1D       		.uleb128 0x1d
 7218 1ac2 C81B0000 		.4byte	0x1bc8
ARM GAS  /tmp/ccq01laD.s 			page 132


 7219 1ac6 01       		.byte	0x1
 7220 1ac7 00       		.byte	0
 7221 1ac8 35       		.uleb128 0x35
 7222 1ac9 01       		.byte	0x1
 7223 1aca D8110000 		.4byte	.LASF167
 7224 1ace 01       		.byte	0x1
 7225 1acf B5       		.byte	0xb5
 7226 1ad0 50030000 		.4byte	.LASF349
 7227 1ad4 EF000000 		.4byte	0xef
 7228 1ad8 01       		.byte	0x1
 7229 1ad9 E11A0000 		.4byte	0x1ae1
 7230 1add E81A0000 		.4byte	0x1ae8
 7231 1ae1 1D       		.uleb128 0x1d
 7232 1ae2 C81B0000 		.4byte	0x1bc8
 7233 1ae6 01       		.byte	0x1
 7234 1ae7 00       		.byte	0
 7235 1ae8 35       		.uleb128 0x35
 7236 1ae9 01       		.byte	0x1
 7237 1aea 3A110000 		.4byte	.LASF350
 7238 1aee 01       		.byte	0x1
 7239 1aef C2       		.byte	0xc2
 7240 1af0 5F0D0000 		.4byte	.LASF351
 7241 1af4 EF000000 		.4byte	0xef
 7242 1af8 01       		.byte	0x1
 7243 1af9 011B0000 		.4byte	0x1b01
 7244 1afd 0D1B0000 		.4byte	0x1b0d
 7245 1b01 1D       		.uleb128 0x1d
 7246 1b02 C81B0000 		.4byte	0x1bc8
 7247 1b06 01       		.byte	0x1
 7248 1b07 10       		.uleb128 0x10
 7249 1b08 EF000000 		.4byte	0xef
 7250 1b0c 00       		.byte	0
 7251 1b0d 35       		.uleb128 0x35
 7252 1b0e 01       		.byte	0x1
 7253 1b0f E0100000 		.4byte	.LASF352
 7254 1b13 01       		.byte	0x1
 7255 1b14 CB       		.byte	0xcb
 7256 1b15 CC170000 		.4byte	.LASF353
 7257 1b19 B1000000 		.4byte	0xb1
 7258 1b1d 01       		.byte	0x1
 7259 1b1e 261B0000 		.4byte	0x1b26
 7260 1b22 2D1B0000 		.4byte	0x1b2d
 7261 1b26 1D       		.uleb128 0x1d
 7262 1b27 C81B0000 		.4byte	0x1bc8
 7263 1b2b 01       		.byte	0x1
 7264 1b2c 00       		.byte	0
 7265 1b2d 35       		.uleb128 0x35
 7266 1b2e 01       		.byte	0x1
 7267 1b2f 540D0000 		.4byte	.LASF354
 7268 1b33 01       		.byte	0x1
 7269 1b34 D4       		.byte	0xd4
 7270 1b35 10030000 		.4byte	.LASF355
 7271 1b39 EF000000 		.4byte	0xef
 7272 1b3d 01       		.byte	0x1
 7273 1b3e 461B0000 		.4byte	0x1b46
 7274 1b42 4D1B0000 		.4byte	0x1b4d
 7275 1b46 1D       		.uleb128 0x1d
ARM GAS  /tmp/ccq01laD.s 			page 133


 7276 1b47 C81B0000 		.4byte	0x1bc8
 7277 1b4b 01       		.byte	0x1
 7278 1b4c 00       		.byte	0
 7279 1b4d 1C       		.uleb128 0x1c
 7280 1b4e 01       		.byte	0x1
 7281 1b4f 7F020000 		.4byte	.LASF356
 7282 1b53 01       		.byte	0x1
 7283 1b54 DD       		.byte	0xdd
 7284 1b55 511C0000 		.4byte	.LASF357
 7285 1b59 01       		.byte	0x1
 7286 1b5a 621B0000 		.4byte	0x1b62
 7287 1b5e 6E1B0000 		.4byte	0x1b6e
 7288 1b62 1D       		.uleb128 0x1d
 7289 1b63 C81B0000 		.4byte	0x1bc8
 7290 1b67 01       		.byte	0x1
 7291 1b68 10       		.uleb128 0x10
 7292 1b69 EF000000 		.4byte	0xef
 7293 1b6d 00       		.byte	0
 7294 1b6e 1C       		.uleb128 0x1c
 7295 1b6f 01       		.byte	0x1
 7296 1b70 05040000 		.4byte	.LASF358
 7297 1b74 01       		.byte	0x1
 7298 1b75 E8       		.byte	0xe8
 7299 1b76 8D090000 		.4byte	.LASF359
 7300 1b7a 01       		.byte	0x1
 7301 1b7b 831B0000 		.4byte	0x1b83
 7302 1b7f 8F1B0000 		.4byte	0x1b8f
 7303 1b83 1D       		.uleb128 0x1d
 7304 1b84 C81B0000 		.4byte	0x1bc8
 7305 1b88 01       		.byte	0x1
 7306 1b89 10       		.uleb128 0x10
 7307 1b8a 05010000 		.4byte	0x105
 7308 1b8e 00       		.byte	0
 7309 1b8f 36       		.uleb128 0x36
 7310 1b90 01       		.byte	0x1
 7311 1b91 3B040000 		.4byte	.LASF360
 7312 1b95 01       		.byte	0x1
 7313 1b96 F1       		.byte	0xf1
 7314 1b97 B8000000 		.4byte	.LASF362
 7315 1b9b 01       		.byte	0x1
 7316 1b9c A01B0000 		.4byte	0x1ba0
 7317 1ba0 1D       		.uleb128 0x1d
 7318 1ba1 C81B0000 		.4byte	0x1bc8
 7319 1ba5 01       		.byte	0x1
 7320 1ba6 10       		.uleb128 0x10
 7321 1ba7 05010000 		.4byte	0x105
 7322 1bab 00       		.byte	0
 7323 1bac 00       		.byte	0
 7324 1bad 12       		.uleb128 0x12
 7325 1bae 29000000 		.4byte	0x29
 7326 1bb2 B81B0000 		.4byte	0x1bb8
 7327 1bb6 37       		.uleb128 0x37
 7328 1bb7 00       		.byte	0
 7329 1bb8 0B       		.uleb128 0xb
 7330 1bb9 04       		.byte	0x4
 7331 1bba BE1B0000 		.4byte	0x1bbe
 7332 1bbe 38       		.uleb128 0x38
ARM GAS  /tmp/ccq01laD.s 			page 134


 7333 1bbf 04       		.byte	0x4
 7334 1bc0 3D050000 		.4byte	.LASF392
 7335 1bc4 AD1B0000 		.4byte	0x1bad
 7336 1bc8 0B       		.uleb128 0xb
 7337 1bc9 04       		.byte	0x4
 7338 1bca 9A190000 		.4byte	0x199a
 7339 1bce 30       		.uleb128 0x30
 7340 1bcf 04       		.byte	0x4
 7341 1bd0 D41B0000 		.4byte	0x1bd4
 7342 1bd4 13       		.uleb128 0x13
 7343 1bd5 9A190000 		.4byte	0x199a
 7344 1bd9 39       		.uleb128 0x39
 7345 1bda E5190000 		.4byte	0x19e5
 7346 1bde 03       		.byte	0x3
 7347 1bdf E71B0000 		.4byte	0x1be7
 7348 1be3 FC1B0000 		.4byte	0x1bfc
 7349 1be7 3A       		.uleb128 0x3a
 7350 1be8 42130000 		.4byte	.LASF363
 7351 1bec FC1B0000 		.4byte	0x1bfc
 7352 1bf0 01       		.byte	0x1
 7353 1bf1 3B       		.uleb128 0x3b
 7354 1bf2 747000   		.ascii	"tp\000"
 7355 1bf5 02       		.byte	0x2
 7356 1bf6 FA       		.byte	0xfa
 7357 1bf7 CD020000 		.4byte	0x2cd
 7358 1bfb 00       		.byte	0
 7359 1bfc 13       		.uleb128 0x13
 7360 1bfd C81B0000 		.4byte	0x1bc8
 7361 1c01 3C       		.uleb128 0x3c
 7362 1c02 C5190000 		.4byte	0x19c5
 7363 1c06 02       		.byte	0x2
 7364 1c07 EA       		.byte	0xea
 7365 1c08 03       		.byte	0x3
 7366 1c09 111C0000 		.4byte	0x1c11
 7367 1c0d 211C0000 		.4byte	0x1c21
 7368 1c11 3A       		.uleb128 0x3a
 7369 1c12 42130000 		.4byte	.LASF363
 7370 1c16 FC1B0000 		.4byte	0x1bfc
 7371 1c1a 01       		.byte	0x1
 7372 1c1b 10       		.uleb128 0x10
 7373 1c1c 211C0000 		.4byte	0x1c21
 7374 1c20 00       		.byte	0
 7375 1c21 13       		.uleb128 0x13
 7376 1c22 CE1B0000 		.4byte	0x1bce
 7377 1c26 3D       		.uleb128 0x3d
 7378 1c27 2A170000 		.4byte	0x172a
 7379 1c2b 00000000 		.4byte	.LFB45
 7380 1c2f 04000000 		.4byte	.LFE45
 7381 1c33 02       		.byte	0x2
 7382 1c34 7D       		.byte	0x7d
 7383 1c35 00       		.sleb128 0
 7384 1c36 3E1C0000 		.4byte	0x1c3e
 7385 1c3a 4D1C0000 		.4byte	0x1c4d
 7386 1c3e 3E       		.uleb128 0x3e
 7387 1c3f 42130000 		.4byte	.LASF363
 7388 1c43 4D1C0000 		.4byte	0x1c4d
 7389 1c47 01       		.byte	0x1
ARM GAS  /tmp/ccq01laD.s 			page 135


 7390 1c48 00000000 		.4byte	.LLST0
 7391 1c4c 00       		.byte	0
 7392 1c4d 13       		.uleb128 0x13
 7393 1c4e 7E190000 		.4byte	0x197e
 7394 1c52 3D       		.uleb128 0x3d
 7395 1c53 53170000 		.4byte	0x1753
 7396 1c57 00000000 		.4byte	.LFB46
 7397 1c5b 10000000 		.4byte	.LFE46
 7398 1c5f 02       		.byte	0x2
 7399 1c60 7D       		.byte	0x7d
 7400 1c61 00       		.sleb128 0
 7401 1c62 6A1C0000 		.4byte	0x1c6a
 7402 1c66 A61C0000 		.4byte	0x1ca6
 7403 1c6a 3F       		.uleb128 0x3f
 7404 1c6b 42130000 		.4byte	.LASF363
 7405 1c6f 4D1C0000 		.4byte	0x1c4d
 7406 1c73 01       		.byte	0x1
 7407 1c74 01       		.byte	0x1
 7408 1c75 51       		.byte	0x51
 7409 1c76 40       		.uleb128 0x40
 7410 1c77 110D0000 		.4byte	.LASF364
 7411 1c7b 01       		.byte	0x1
 7412 1c7c 0A01     		.2byte	0x10a
 7413 1c7e E4000000 		.4byte	0xe4
 7414 1c82 13000000 		.4byte	.LLST1
 7415 1c86 41       		.uleb128 0x41
 7416 1c87 011C0000 		.4byte	0x1c01
 7417 1c8b 00000000 		.4byte	.LBB13
 7418 1c8f 08000000 		.4byte	.LBE13
 7419 1c93 01       		.byte	0x1
 7420 1c94 0E01     		.2byte	0x10e
 7421 1c96 42       		.uleb128 0x42
 7422 1c97 1B1C0000 		.4byte	0x1c1b
 7423 1c9b 01       		.byte	0x1
 7424 1c9c 51       		.byte	0x51
 7425 1c9d 42       		.uleb128 0x42
 7426 1c9e 111C0000 		.4byte	0x1c11
 7427 1ca2 01       		.byte	0x1
 7428 1ca3 50       		.byte	0x50
 7429 1ca4 00       		.byte	0
 7430 1ca5 00       		.byte	0
 7431 1ca6 3D       		.uleb128 0x3d
 7432 1ca7 061A0000 		.4byte	0x1a06
 7433 1cab 00000000 		.4byte	.LFB29
 7434 1caf 0C000000 		.4byte	.LFE29
 7435 1cb3 02       		.byte	0x2
 7436 1cb4 7D       		.byte	0x7d
 7437 1cb5 00       		.sleb128 0
 7438 1cb6 BE1C0000 		.4byte	0x1cbe
 7439 1cba CD1C0000 		.4byte	0x1ccd
 7440 1cbe 3E       		.uleb128 0x3e
 7441 1cbf 42130000 		.4byte	.LASF363
 7442 1cc3 FC1B0000 		.4byte	0x1bfc
 7443 1cc7 01       		.byte	0x1
 7444 1cc8 26000000 		.4byte	.LLST2
 7445 1ccc 00       		.byte	0
 7446 1ccd 43       		.uleb128 0x43
ARM GAS  /tmp/ccq01laD.s 			page 136


 7447 1cce E9080000 		.4byte	0x8e9
 7448 1cd2 01       		.byte	0x1
 7449 1cd3 1F       		.byte	0x1f
 7450 1cd4 00000000 		.4byte	.LFB16
 7451 1cd8 04000000 		.4byte	.LFE16
 7452 1cdc 02       		.byte	0x2
 7453 1cdd 7D       		.byte	0x7d
 7454 1cde 00       		.sleb128 0
 7455 1cdf 44       		.uleb128 0x44
 7456 1ce0 F6080000 		.4byte	0x8f6
 7457 1ce4 01       		.byte	0x1
 7458 1ce5 24       		.byte	0x24
 7459 1ce6 00000000 		.4byte	.LFB17
 7460 1cea 0A000000 		.4byte	.LFE17
 7461 1cee 02       		.byte	0x2
 7462 1cef 7D       		.byte	0x7d
 7463 1cf0 00       		.sleb128 0
 7464 1cf1 0F1D0000 		.4byte	0x1d0f
 7465 1cf5 45       		.uleb128 0x45
 7466 1cf6 00000000 		.4byte	.LBB17
 7467 1cfa 06000000 		.4byte	.LBE17
 7468 1cfe 46       		.uleb128 0x46
 7469 1cff 746D7000 		.ascii	"tmp\000"
 7470 1d03 01       		.byte	0x1
 7471 1d04 26       		.byte	0x26
 7472 1d05 7B000000 		.4byte	0x7b
 7473 1d09 39000000 		.4byte	.LLST3
 7474 1d0d 00       		.byte	0
 7475 1d0e 00       		.byte	0
 7476 1d0f 47       		.uleb128 0x47
 7477 1d10 03090000 		.4byte	0x903
 7478 1d14 01       		.byte	0x1
 7479 1d15 29       		.byte	0x29
 7480 1d16 00000000 		.4byte	.LFB18
 7481 1d1a 0E000000 		.4byte	.LFE18
 7482 1d1e 4C000000 		.4byte	.LLST4
 7483 1d22 401D0000 		.4byte	0x1d40
 7484 1d26 45       		.uleb128 0x45
 7485 1d27 06000000 		.4byte	.LBB20
 7486 1d2b 0C000000 		.4byte	.LBE20
 7487 1d2f 46       		.uleb128 0x46
 7488 1d30 746D7000 		.ascii	"tmp\000"
 7489 1d34 01       		.byte	0x1
 7490 1d35 2B       		.byte	0x2b
 7491 1d36 7B000000 		.4byte	0x7b
 7492 1d3a 6C000000 		.4byte	.LLST5
 7493 1d3e 00       		.byte	0
 7494 1d3f 00       		.byte	0
 7495 1d40 44       		.uleb128 0x44
 7496 1d41 10090000 		.4byte	0x910
 7497 1d45 01       		.byte	0x1
 7498 1d46 2E       		.byte	0x2e
 7499 1d47 00000000 		.4byte	.LFB19
 7500 1d4b 0A000000 		.4byte	.LFE19
 7501 1d4f 02       		.byte	0x2
 7502 1d50 7D       		.byte	0x7d
 7503 1d51 00       		.sleb128 0
ARM GAS  /tmp/ccq01laD.s 			page 137


 7504 1d52 701D0000 		.4byte	0x1d70
 7505 1d56 45       		.uleb128 0x45
 7506 1d57 00000000 		.4byte	.LBB22
 7507 1d5b 06000000 		.4byte	.LBE22
 7508 1d5f 46       		.uleb128 0x46
 7509 1d60 746D7000 		.ascii	"tmp\000"
 7510 1d64 01       		.byte	0x1
 7511 1d65 30       		.byte	0x30
 7512 1d66 7B000000 		.4byte	0x7b
 7513 1d6a 7F000000 		.4byte	.LLST6
 7514 1d6e 00       		.byte	0
 7515 1d6f 00       		.byte	0
 7516 1d70 47       		.uleb128 0x47
 7517 1d71 1D090000 		.4byte	0x91d
 7518 1d75 01       		.byte	0x1
 7519 1d76 33       		.byte	0x33
 7520 1d77 00000000 		.4byte	.LFB20
 7521 1d7b 0E000000 		.4byte	.LFE20
 7522 1d7f 92000000 		.4byte	.LLST7
 7523 1d83 A11D0000 		.4byte	0x1da1
 7524 1d87 45       		.uleb128 0x45
 7525 1d88 06000000 		.4byte	.LBB25
 7526 1d8c 0C000000 		.4byte	.LBE25
 7527 1d90 46       		.uleb128 0x46
 7528 1d91 746D7000 		.ascii	"tmp\000"
 7529 1d95 01       		.byte	0x1
 7530 1d96 35       		.byte	0x35
 7531 1d97 7B000000 		.4byte	0x7b
 7532 1d9b B2000000 		.4byte	.LLST8
 7533 1d9f 00       		.byte	0
 7534 1da0 00       		.byte	0
 7535 1da1 43       		.uleb128 0x43
 7536 1da2 2A090000 		.4byte	0x92a
 7537 1da6 01       		.byte	0x1
 7538 1da7 38       		.byte	0x38
 7539 1da8 00000000 		.4byte	.LFB21
 7540 1dac 0C000000 		.4byte	.LFE21
 7541 1db0 02       		.byte	0x2
 7542 1db1 7D       		.byte	0x7d
 7543 1db2 00       		.sleb128 0
 7544 1db3 44       		.uleb128 0x44
 7545 1db4 3B090000 		.4byte	0x93b
 7546 1db8 01       		.byte	0x1
 7547 1db9 3D       		.byte	0x3d
 7548 1dba 00000000 		.4byte	.LFB22
 7549 1dbe 04000000 		.4byte	.LFE22
 7550 1dc2 02       		.byte	0x2
 7551 1dc3 7D       		.byte	0x7d
 7552 1dc4 00       		.sleb128 0
 7553 1dc5 E81D0000 		.4byte	0x1de8
 7554 1dc9 48       		.uleb128 0x48
 7555 1dca D9160000 		.4byte	.LASF292
 7556 1dce 01       		.byte	0x1
 7557 1dcf 3D       		.byte	0x3d
 7558 1dd0 1B010000 		.4byte	0x11b
 7559 1dd4 C5000000 		.4byte	.LLST9
 7560 1dd8 49       		.uleb128 0x49
ARM GAS  /tmp/ccq01laD.s 			page 138


 7561 1dd9 656E6400 		.ascii	"end\000"
 7562 1ddd 01       		.byte	0x1
 7563 1dde 3D       		.byte	0x3d
 7564 1ddf 1B010000 		.4byte	0x11b
 7565 1de3 D8000000 		.4byte	.LLST10
 7566 1de7 00       		.byte	0
 7567 1de8 44       		.uleb128 0x44
 7568 1de9 64090000 		.4byte	0x964
 7569 1ded 01       		.byte	0x1
 7570 1dee 45       		.byte	0x45
 7571 1def 00000000 		.4byte	.LFB23
 7572 1df3 04000000 		.4byte	.LFE23
 7573 1df7 02       		.byte	0x2
 7574 1df8 7D       		.byte	0x7d
 7575 1df9 00       		.sleb128 0
 7576 1dfa 0E1E0000 		.4byte	0x1e0e
 7577 1dfe 48       		.uleb128 0x48
 7578 1dff 9C100000 		.4byte	.LASF365
 7579 1e03 01       		.byte	0x1
 7580 1e04 45       		.byte	0x45
 7581 1e05 30000000 		.4byte	0x30
 7582 1e09 EB000000 		.4byte	.LLST11
 7583 1e0d 00       		.byte	0
 7584 1e0e 44       		.uleb128 0x44
 7585 1e0f 7F090000 		.4byte	0x97f
 7586 1e13 01       		.byte	0x1
 7587 1e14 4A       		.byte	0x4a
 7588 1e15 00000000 		.4byte	.LFB24
 7589 1e19 04000000 		.4byte	.LFE24
 7590 1e1d 02       		.byte	0x2
 7591 1e1e 7D       		.byte	0x7d
 7592 1e1f 00       		.sleb128 0
 7593 1e20 341E0000 		.4byte	0x1e34
 7594 1e24 48       		.uleb128 0x48
 7595 1e25 9C100000 		.4byte	.LASF365
 7596 1e29 01       		.byte	0x1
 7597 1e2a 4A       		.byte	0x4a
 7598 1e2b 30000000 		.4byte	0x30
 7599 1e2f FE000000 		.4byte	.LLST12
 7600 1e33 00       		.byte	0
 7601 1e34 43       		.uleb128 0x43
 7602 1e35 9A090000 		.4byte	0x99a
 7603 1e39 01       		.byte	0x1
 7604 1e3a 4F       		.byte	0x4f
 7605 1e3b 00000000 		.4byte	.LFB25
 7606 1e3f 04000000 		.4byte	.LFE25
 7607 1e43 02       		.byte	0x2
 7608 1e44 7D       		.byte	0x7d
 7609 1e45 00       		.sleb128 0
 7610 1e46 4A       		.uleb128 0x4a
 7611 1e47 C6090000 		.4byte	0x9c6
 7612 1e4b 01       		.byte	0x1
 7613 1e4c 57       		.byte	0x57
 7614 1e4d 00000000 		.4byte	.LFB26
 7615 1e51 04000000 		.4byte	.LFE26
 7616 1e55 02       		.byte	0x2
 7617 1e56 7D       		.byte	0x7d
ARM GAS  /tmp/ccq01laD.s 			page 139


 7618 1e57 00       		.sleb128 0
 7619 1e58 601E0000 		.4byte	0x1e60
 7620 1e5c 9C1E0000 		.4byte	0x1e9c
 7621 1e60 3E       		.uleb128 0x3e
 7622 1e61 42130000 		.4byte	.LASF363
 7623 1e65 9C1E0000 		.4byte	0x1e9c
 7624 1e69 01       		.byte	0x1
 7625 1e6a 11010000 		.4byte	.LLST13
 7626 1e6e 48       		.uleb128 0x48
 7627 1e6f 95040000 		.4byte	.LASF366
 7628 1e73 01       		.byte	0x1
 7629 1e74 57       		.byte	0x57
 7630 1e75 1B010000 		.4byte	0x11b
 7631 1e79 24010000 		.4byte	.LLST14
 7632 1e7d 48       		.uleb128 0x48
 7633 1e7e ED020000 		.4byte	.LASF367
 7634 1e82 01       		.byte	0x1
 7635 1e83 57       		.byte	0x57
 7636 1e84 CD030000 		.4byte	0x3cd
 7637 1e88 37010000 		.4byte	.LLST15
 7638 1e8c 49       		.uleb128 0x49
 7639 1e8d 70617200 		.ascii	"par\000"
 7640 1e91 01       		.byte	0x1
 7641 1e92 57       		.byte	0x57
 7642 1e93 0F030000 		.4byte	0x30f
 7643 1e97 4A010000 		.4byte	.LLST16
 7644 1e9b 00       		.byte	0
 7645 1e9c 13       		.uleb128 0x13
 7646 1e9d 2A0A0000 		.4byte	0xa2a
 7647 1ea1 4A       		.uleb128 0x4a
 7648 1ea2 F1090000 		.4byte	0x9f1
 7649 1ea6 01       		.byte	0x1
 7650 1ea7 5C       		.byte	0x5c
 7651 1ea8 00000000 		.4byte	.LFB27
 7652 1eac 0A000000 		.4byte	.LFE27
 7653 1eb0 02       		.byte	0x2
 7654 1eb1 7D       		.byte	0x7d
 7655 1eb2 00       		.sleb128 0
 7656 1eb3 BB1E0000 		.4byte	0x1ebb
 7657 1eb7 CA1E0000 		.4byte	0x1eca
 7658 1ebb 3E       		.uleb128 0x3e
 7659 1ebc 42130000 		.4byte	.LASF363
 7660 1ec0 9C1E0000 		.4byte	0x1e9c
 7661 1ec4 01       		.byte	0x1
 7662 1ec5 5D010000 		.4byte	.LLST17
 7663 1ec9 00       		.byte	0
 7664 1eca 4A       		.uleb128 0x4a
 7665 1ecb 0D0A0000 		.4byte	0xa0d
 7666 1ecf 01       		.byte	0x1
 7667 1ed0 62       		.byte	0x62
 7668 1ed1 00000000 		.4byte	.LFB28
 7669 1ed5 0A000000 		.4byte	.LFE28
 7670 1ed9 02       		.byte	0x2
 7671 1eda 7D       		.byte	0x7d
 7672 1edb 00       		.sleb128 0
 7673 1edc E41E0000 		.4byte	0x1ee4
 7674 1ee0 F31E0000 		.4byte	0x1ef3
ARM GAS  /tmp/ccq01laD.s 			page 140


 7675 1ee4 3E       		.uleb128 0x3e
 7676 1ee5 42130000 		.4byte	.LASF363
 7677 1ee9 9C1E0000 		.4byte	0x1e9c
 7678 1eed 01       		.byte	0x1
 7679 1eee 7B010000 		.4byte	.LLST18
 7680 1ef2 00       		.byte	0
 7681 1ef3 4B       		.uleb128 0x4b
 7682 1ef4 2A1A0000 		.4byte	0x1a2a
 7683 1ef8 00000000 		.4byte	.LFB30
 7684 1efc 40000000 		.4byte	.LFE30
 7685 1f00 8E010000 		.4byte	.LLST19
 7686 1f04 0C1F0000 		.4byte	0x1f0c
 7687 1f08 621F0000 		.4byte	0x1f62
 7688 1f0c 3E       		.uleb128 0x3e
 7689 1f0d 42130000 		.4byte	.LASF363
 7690 1f11 FC1B0000 		.4byte	0x1bfc
 7691 1f15 01       		.byte	0x1
 7692 1f16 AE010000 		.4byte	.LLST20
 7693 1f1a 4C       		.uleb128 0x4c
 7694 1f1b 00000000 		.4byte	.Ldebug_ranges0+0
 7695 1f1f 46       		.uleb128 0x46
 7696 1f20 6D736700 		.ascii	"msg\000"
 7697 1f24 01       		.byte	0x1
 7698 1f25 71       		.byte	0x71
 7699 1f26 EF000000 		.4byte	0xef
 7700 1f2a D7010000 		.4byte	.LLST21
 7701 1f2e 4D       		.uleb128 0x4d
 7702 1f2f 20000000 		.4byte	.Ldebug_ranges0+0x20
 7703 1f33 471F0000 		.4byte	0x1f47
 7704 1f37 46       		.uleb128 0x46
 7705 1f38 746D7000 		.ascii	"tmp\000"
 7706 1f3c 01       		.byte	0x1
 7707 1f3d 73       		.byte	0x73
 7708 1f3e 7B000000 		.4byte	0x7b
 7709 1f42 F6010000 		.4byte	.LLST22
 7710 1f46 00       		.byte	0
 7711 1f47 45       		.uleb128 0x45
 7712 1f48 26000000 		.4byte	.LBB32
 7713 1f4c 2C000000 		.4byte	.LBE32
 7714 1f50 46       		.uleb128 0x46
 7715 1f51 746D7000 		.ascii	"tmp\000"
 7716 1f55 01       		.byte	0x1
 7717 1f56 7D       		.byte	0x7d
 7718 1f57 7B000000 		.4byte	0x7b
 7719 1f5b 09020000 		.4byte	.LLST23
 7720 1f5f 00       		.byte	0
 7721 1f60 00       		.byte	0
 7722 1f61 00       		.byte	0
 7723 1f62 4B       		.uleb128 0x4b
 7724 1f63 4A1A0000 		.4byte	0x1a4a
 7725 1f67 00000000 		.4byte	.LFB31
 7726 1f6b 28000000 		.4byte	.LFE31
 7727 1f6f 1C020000 		.4byte	.LLST24
 7728 1f73 7B1F0000 		.4byte	0x1f7b
 7729 1f77 8A1F0000 		.4byte	0x1f8a
 7730 1f7b 3E       		.uleb128 0x3e
 7731 1f7c 42130000 		.4byte	.LASF363
ARM GAS  /tmp/ccq01laD.s 			page 141


 7732 1f80 FC1B0000 		.4byte	0x1bfc
 7733 1f84 01       		.byte	0x1
 7734 1f85 3C020000 		.4byte	.LLST25
 7735 1f89 00       		.byte	0
 7736 1f8a 4B       		.uleb128 0x4b
 7737 1f8b 6A1A0000 		.4byte	0x1a6a
 7738 1f8f 00000000 		.4byte	.LFB32
 7739 1f93 3C000000 		.4byte	.LFE32
 7740 1f97 5A020000 		.4byte	.LLST26
 7741 1f9b A31F0000 		.4byte	0x1fa3
 7742 1f9f 13200000 		.4byte	0x2013
 7743 1fa3 3E       		.uleb128 0x3e
 7744 1fa4 42130000 		.4byte	.LASF363
 7745 1fa8 FC1B0000 		.4byte	0x1bfc
 7746 1fac 01       		.byte	0x1
 7747 1fad 7A020000 		.4byte	.LLST27
 7748 1fb1 49       		.uleb128 0x49
 7749 1fb2 6D736700 		.ascii	"msg\000"
 7750 1fb6 01       		.byte	0x1
 7751 1fb7 8C       		.byte	0x8c
 7752 1fb8 EF000000 		.4byte	0xef
 7753 1fbc 98020000 		.4byte	.LLST28
 7754 1fc0 4E       		.uleb128 0x4e
 7755 1fc1 06000000 		.4byte	.LBB37
 7756 1fc5 0C000000 		.4byte	.LBE37
 7757 1fc9 DD1F0000 		.4byte	0x1fdd
 7758 1fcd 46       		.uleb128 0x46
 7759 1fce 746D7000 		.ascii	"tmp\000"
 7760 1fd2 01       		.byte	0x1
 7761 1fd3 8E       		.byte	0x8e
 7762 1fd4 7B000000 		.4byte	0x7b
 7763 1fd8 B6020000 		.4byte	.LLST29
 7764 1fdc 00       		.byte	0
 7765 1fdd 4E       		.uleb128 0x4e
 7766 1fde 14000000 		.4byte	.LBB39
 7767 1fe2 1E000000 		.4byte	.LBE39
 7768 1fe6 F91F0000 		.4byte	0x1ff9
 7769 1fea 46       		.uleb128 0x46
 7770 1feb 747000   		.ascii	"tp\000"
 7771 1fee 01       		.byte	0x1
 7772 1fef 95       		.byte	0x95
 7773 1ff0 CD020000 		.4byte	0x2cd
 7774 1ff4 C9020000 		.4byte	.LLST30
 7775 1ff8 00       		.byte	0
 7776 1ff9 45       		.uleb128 0x45
 7777 1ffa 22000000 		.4byte	.LBB41
 7778 1ffe 28000000 		.4byte	.LBE41
 7779 2002 46       		.uleb128 0x46
 7780 2003 746D7000 		.ascii	"tmp\000"
 7781 2007 01       		.byte	0x1
 7782 2008 9A       		.byte	0x9a
 7783 2009 7B000000 		.4byte	0x7b
 7784 200d DC020000 		.4byte	.LLST31
 7785 2011 00       		.byte	0
 7786 2012 00       		.byte	0
 7787 2013 4B       		.uleb128 0x4b
 7788 2014 8B1A0000 		.4byte	0x1a8b
ARM GAS  /tmp/ccq01laD.s 			page 142


 7789 2018 00000000 		.4byte	.LFB33
 7790 201c 34000000 		.4byte	.LFE33
 7791 2020 EF020000 		.4byte	.LLST32
 7792 2024 2C200000 		.4byte	0x202c
 7793 2028 5E200000 		.4byte	0x205e
 7794 202c 3E       		.uleb128 0x3e
 7795 202d 42130000 		.4byte	.LASF363
 7796 2031 FC1B0000 		.4byte	0x1bfc
 7797 2035 01       		.byte	0x1
 7798 2036 1B030000 		.4byte	.LLST33
 7799 203a 49       		.uleb128 0x49
 7800 203b 6D736700 		.ascii	"msg\000"
 7801 203f 01       		.byte	0x1
 7802 2040 9D       		.byte	0x9d
 7803 2041 EF000000 		.4byte	0xef
 7804 2045 39030000 		.4byte	.LLST34
 7805 2049 4C       		.uleb128 0x4c
 7806 204a 38000000 		.4byte	.Ldebug_ranges0+0x38
 7807 204e 46       		.uleb128 0x46
 7808 204f 747000   		.ascii	"tp\000"
 7809 2052 01       		.byte	0x1
 7810 2053 A4       		.byte	0xa4
 7811 2054 CD020000 		.4byte	0x2cd
 7812 2058 57030000 		.4byte	.LLST35
 7813 205c 00       		.byte	0
 7814 205d 00       		.byte	0
 7815 205e 4B       		.uleb128 0x4b
 7816 205f AC1A0000 		.4byte	0x1aac
 7817 2063 00000000 		.4byte	.LFB34
 7818 2067 20000000 		.4byte	.LFE34
 7819 206b 6A030000 		.4byte	.LLST36
 7820 206f 77200000 		.4byte	0x2077
 7821 2073 86200000 		.4byte	0x2086
 7822 2077 3E       		.uleb128 0x3e
 7823 2078 42130000 		.4byte	.LASF363
 7824 207c FC1B0000 		.4byte	0x1bfc
 7825 2080 01       		.byte	0x1
 7826 2081 8A030000 		.4byte	.LLST37
 7827 2085 00       		.byte	0
 7828 2086 4B       		.uleb128 0x4b
 7829 2087 C81A0000 		.4byte	0x1ac8
 7830 208b 00000000 		.4byte	.LFB35
 7831 208f 28000000 		.4byte	.LFE35
 7832 2093 A8030000 		.4byte	.LLST38
 7833 2097 9F200000 		.4byte	0x209f
 7834 209b C3200000 		.4byte	0x20c3
 7835 209f 3E       		.uleb128 0x3e
 7836 20a0 42130000 		.4byte	.LASF363
 7837 20a4 FC1B0000 		.4byte	0x1bfc
 7838 20a8 01       		.byte	0x1
 7839 20a9 C8030000 		.4byte	.LLST39
 7840 20ad 4C       		.uleb128 0x4c
 7841 20ae 50000000 		.4byte	.Ldebug_ranges0+0x50
 7842 20b2 46       		.uleb128 0x46
 7843 20b3 6D736700 		.ascii	"msg\000"
 7844 20b7 01       		.byte	0x1
 7845 20b8 BB       		.byte	0xbb
ARM GAS  /tmp/ccq01laD.s 			page 143


 7846 20b9 EF000000 		.4byte	0xef
 7847 20bd E6030000 		.4byte	.LLST40
 7848 20c1 00       		.byte	0
 7849 20c2 00       		.byte	0
 7850 20c3 4B       		.uleb128 0x4b
 7851 20c4 E81A0000 		.4byte	0x1ae8
 7852 20c8 00000000 		.4byte	.LFB36
 7853 20cc 28000000 		.4byte	.LFE36
 7854 20d0 04040000 		.4byte	.LLST41
 7855 20d4 DC200000 		.4byte	0x20dc
 7856 20d8 FA200000 		.4byte	0x20fa
 7857 20dc 3E       		.uleb128 0x3e
 7858 20dd 42130000 		.4byte	.LASF363
 7859 20e1 FC1B0000 		.4byte	0x1bfc
 7860 20e5 01       		.byte	0x1
 7861 20e6 30040000 		.4byte	.LLST42
 7862 20ea 49       		.uleb128 0x49
 7863 20eb 6D736700 		.ascii	"msg\000"
 7864 20ef 01       		.byte	0x1
 7865 20f0 C2       		.byte	0xc2
 7866 20f1 EF000000 		.4byte	0xef
 7867 20f5 4E040000 		.4byte	.LLST43
 7868 20f9 00       		.byte	0
 7869 20fa 4B       		.uleb128 0x4b
 7870 20fb 0D1B0000 		.4byte	0x1b0d
 7871 20ff 00000000 		.4byte	.LFB37
 7872 2103 2C000000 		.4byte	.LFE37
 7873 2107 6C040000 		.4byte	.LLST44
 7874 210b 13210000 		.4byte	0x2113
 7875 210f 22210000 		.4byte	0x2122
 7876 2113 3E       		.uleb128 0x3e
 7877 2114 42130000 		.4byte	.LASF363
 7878 2118 FC1B0000 		.4byte	0x1bfc
 7879 211c 01       		.byte	0x1
 7880 211d 8C040000 		.4byte	.LLST45
 7881 2121 00       		.byte	0
 7882 2122 4B       		.uleb128 0x4b
 7883 2123 2D1B0000 		.4byte	0x1b2d
 7884 2127 00000000 		.4byte	.LFB38
 7885 212b 1C000000 		.4byte	.LFE38
 7886 212f AA040000 		.4byte	.LLST46
 7887 2133 3B210000 		.4byte	0x213b
 7888 2137 4A210000 		.4byte	0x214a
 7889 213b 3E       		.uleb128 0x3e
 7890 213c 42130000 		.4byte	.LASF363
 7891 2140 FC1B0000 		.4byte	0x1bfc
 7892 2144 01       		.byte	0x1
 7893 2145 CA040000 		.4byte	.LLST47
 7894 2149 00       		.byte	0
 7895 214a 4B       		.uleb128 0x4b
 7896 214b 4D1B0000 		.4byte	0x1b4d
 7897 214f 00000000 		.4byte	.LFB39
 7898 2153 28000000 		.4byte	.LFE39
 7899 2157 E8040000 		.4byte	.LLST48
 7900 215b 63210000 		.4byte	0x2163
 7901 215f 81210000 		.4byte	0x2181
 7902 2163 3E       		.uleb128 0x3e
ARM GAS  /tmp/ccq01laD.s 			page 144


 7903 2164 42130000 		.4byte	.LASF363
 7904 2168 FC1B0000 		.4byte	0x1bfc
 7905 216c 01       		.byte	0x1
 7906 216d 14050000 		.4byte	.LLST49
 7907 2171 49       		.uleb128 0x49
 7908 2172 6D736700 		.ascii	"msg\000"
 7909 2176 01       		.byte	0x1
 7910 2177 DD       		.byte	0xdd
 7911 2178 EF000000 		.4byte	0xef
 7912 217c 32050000 		.4byte	.LLST50
 7913 2180 00       		.byte	0
 7914 2181 4B       		.uleb128 0x4b
 7915 2182 6E1B0000 		.4byte	0x1b6e
 7916 2186 00000000 		.4byte	.LFB40
 7917 218a 28000000 		.4byte	.LFE40
 7918 218e 50050000 		.4byte	.LLST51
 7919 2192 9A210000 		.4byte	0x219a
 7920 2196 B8210000 		.4byte	0x21b8
 7921 219a 3E       		.uleb128 0x3e
 7922 219b 42130000 		.4byte	.LASF363
 7923 219f FC1B0000 		.4byte	0x1bfc
 7924 21a3 01       		.byte	0x1
 7925 21a4 7C050000 		.4byte	.LLST52
 7926 21a8 48       		.uleb128 0x48
 7927 21a9 35110000 		.4byte	.LASF368
 7928 21ad 01       		.byte	0x1
 7929 21ae E8       		.byte	0xe8
 7930 21af 05010000 		.4byte	0x105
 7931 21b3 9A050000 		.4byte	.LLST53
 7932 21b7 00       		.byte	0
 7933 21b8 4B       		.uleb128 0x4b
 7934 21b9 8F1B0000 		.4byte	0x1b8f
 7935 21bd 00000000 		.4byte	.LFB41
 7936 21c1 28000000 		.4byte	.LFE41
 7937 21c5 B8050000 		.4byte	.LLST54
 7938 21c9 D1210000 		.4byte	0x21d1
 7939 21cd EF210000 		.4byte	0x21ef
 7940 21d1 3E       		.uleb128 0x3e
 7941 21d2 42130000 		.4byte	.LASF363
 7942 21d6 FC1B0000 		.4byte	0x1bfc
 7943 21da 01       		.byte	0x1
 7944 21db E4050000 		.4byte	.LLST55
 7945 21df 48       		.uleb128 0x48
 7946 21e0 35110000 		.4byte	.LASF368
 7947 21e4 01       		.byte	0x1
 7948 21e5 F1       		.byte	0xf1
 7949 21e6 05010000 		.4byte	0x105
 7950 21ea 02060000 		.4byte	.LLST56
 7951 21ee 00       		.byte	0
 7952 21ef 39       		.uleb128 0x39
 7953 21f0 0D170000 		.4byte	0x170d
 7954 21f4 00       		.byte	0
 7955 21f5 FD210000 		.4byte	0x21fd
 7956 21f9 08220000 		.4byte	0x2208
 7957 21fd 3A       		.uleb128 0x3a
 7958 21fe 42130000 		.4byte	.LASF363
 7959 2202 4D1C0000 		.4byte	0x1c4d
ARM GAS  /tmp/ccq01laD.s 			page 145


 7960 2206 01       		.byte	0x1
 7961 2207 00       		.byte	0
 7962 2208 4F       		.uleb128 0x4f
 7963 2209 EF210000 		.4byte	0x21ef
 7964 220d 00000000 		.4byte	.LFB43
 7965 2211 10000000 		.4byte	.LFE43
 7966 2215 02       		.byte	0x2
 7967 2216 7D       		.byte	0x7d
 7968 2217 00       		.sleb128 0
 7969 2218 20220000 		.4byte	0x2220
 7970 221c 46220000 		.4byte	0x2246
 7971 2220 42       		.uleb128 0x42
 7972 2221 FD210000 		.4byte	0x21fd
 7973 2225 01       		.byte	0x1
 7974 2226 50       		.byte	0x50
 7975 2227 41       		.uleb128 0x41
 7976 2228 D91B0000 		.4byte	0x1bd9
 7977 222c 02000000 		.4byte	.LBB55
 7978 2230 06000000 		.4byte	.LBE55
 7979 2234 01       		.byte	0x1
 7980 2235 0101     		.2byte	0x101
 7981 2237 50       		.uleb128 0x50
 7982 2238 F11B0000 		.4byte	0x1bf1
 7983 223c 00       		.byte	0
 7984 223d 42       		.uleb128 0x42
 7985 223e E71B0000 		.4byte	0x1be7
 7986 2242 01       		.byte	0x1
 7987 2243 50       		.byte	0x50
 7988 2244 00       		.byte	0
 7989 2245 00       		.byte	0
 7990 2246 51       		.uleb128 0x51
 7991 2247 C4080000 		.4byte	0x8c4
 7992 224b 00000000 		.4byte	.LFB50
 7993 224f 0A000000 		.4byte	.LFE50
 7994 2253 20060000 		.4byte	.LLST57
 7995 2257 6C220000 		.4byte	0x226c
 7996 225b 52       		.uleb128 0x52
 7997 225c 61726700 		.ascii	"arg\000"
 7998 2260 01       		.byte	0x1
 7999 2261 1101     		.2byte	0x111
 8000 2263 0F030000 		.4byte	0x30f
 8001 2267 40060000 		.4byte	.LLST58
 8002 226b 00       		.byte	0
 8003 226c 53       		.uleb128 0x53
 8004 226d 81170000 		.4byte	0x1781
 8005 2271 00000000 		.4byte	.LFB51
 8006 2275 0E000000 		.4byte	.LFE51
 8007 2279 02       		.byte	0x2
 8008 227a 7D       		.byte	0x7d
 8009 227b 00       		.sleb128 0
 8010 227c 8F220000 		.4byte	0x228f
 8011 2280 54       		.uleb128 0x54
 8012 2281 05100000 		.4byte	.LASF369
 8013 2285 01       		.byte	0x1
 8014 2286 1601     		.2byte	0x116
 8015 2288 70070000 		.4byte	0x770
 8016 228c 01       		.byte	0x1
ARM GAS  /tmp/ccq01laD.s 			page 146


 8017 228d 50       		.byte	0x50
 8018 228e 00       		.byte	0
 8019 228f 53       		.uleb128 0x53
 8020 2290 99170000 		.4byte	0x1799
 8021 2294 00000000 		.4byte	.LFB52
 8022 2298 04000000 		.4byte	.LFE52
 8023 229c 02       		.byte	0x2
 8024 229d 7D       		.byte	0x7d
 8025 229e 00       		.sleb128 0
 8026 229f B4220000 		.4byte	0x22b4
 8027 22a3 40       		.uleb128 0x40
 8028 22a4 08070000 		.4byte	.LASF370
 8029 22a8 01       		.byte	0x1
 8030 22a9 1B01     		.2byte	0x11b
 8031 22ab E4000000 		.4byte	0xe4
 8032 22af 53060000 		.4byte	.LLST59
 8033 22b3 00       		.byte	0
 8034 22b4 53       		.uleb128 0x53
 8035 22b5 B5170000 		.4byte	0x17b5
 8036 22b9 00000000 		.4byte	.LFB53
 8037 22bd 04000000 		.4byte	.LFE53
 8038 22c1 02       		.byte	0x2
 8039 22c2 7D       		.byte	0x7d
 8040 22c3 00       		.sleb128 0
 8041 22c4 D9220000 		.4byte	0x22d9
 8042 22c8 52       		.uleb128 0x52
 8043 22c9 6D736700 		.ascii	"msg\000"
 8044 22cd 01       		.byte	0x1
 8045 22ce 2001     		.2byte	0x120
 8046 22d0 EF000000 		.4byte	0xef
 8047 22d4 66060000 		.4byte	.LLST60
 8048 22d8 00       		.byte	0
 8049 22d9 53       		.uleb128 0x53
 8050 22da CD170000 		.4byte	0x17cd
 8051 22de 00000000 		.4byte	.LFB54
 8052 22e2 04000000 		.4byte	.LFE54
 8053 22e6 02       		.byte	0x2
 8054 22e7 7D       		.byte	0x7d
 8055 22e8 00       		.sleb128 0
 8056 22e9 FE220000 		.4byte	0x22fe
 8057 22ed 52       		.uleb128 0x52
 8058 22ee 6D736700 		.ascii	"msg\000"
 8059 22f2 01       		.byte	0x1
 8060 22f3 2501     		.2byte	0x125
 8061 22f5 EF000000 		.4byte	0xef
 8062 22f9 79060000 		.4byte	.LLST61
 8063 22fd 00       		.byte	0
 8064 22fe 55       		.uleb128 0x55
 8065 22ff E5170000 		.4byte	0x17e5
 8066 2303 00000000 		.4byte	.LFB55
 8067 2307 14000000 		.4byte	.LFE55
 8068 230b 02       		.byte	0x2
 8069 230c 7D       		.byte	0x7d
 8070 230d 00       		.sleb128 0
 8071 230e 53       		.uleb128 0x53
 8072 230f F7170000 		.4byte	0x17f7
 8073 2313 00000000 		.4byte	.LFB56
ARM GAS  /tmp/ccq01laD.s 			page 147


 8074 2317 04000000 		.4byte	.LFE56
 8075 231b 02       		.byte	0x2
 8076 231c 7D       		.byte	0x7d
 8077 231d 00       		.sleb128 0
 8078 231e 33230000 		.4byte	0x2333
 8079 2322 40       		.uleb128 0x40
 8080 2323 17010000 		.4byte	.LASF371
 8081 2327 01       		.byte	0x1
 8082 2328 2F01     		.2byte	0x12f
 8083 232a 1B010000 		.4byte	0x11b
 8084 232e 8C060000 		.4byte	.LLST62
 8085 2332 00       		.byte	0
 8086 2333 53       		.uleb128 0x53
 8087 2334 0F180000 		.4byte	0x180f
 8088 2338 00000000 		.4byte	.LFB57
 8089 233c 04000000 		.4byte	.LFE57
 8090 2340 02       		.byte	0x2
 8091 2341 7D       		.byte	0x7d
 8092 2342 00       		.sleb128 0
 8093 2343 58230000 		.4byte	0x2358
 8094 2347 40       		.uleb128 0x40
 8095 2348 95040000 		.4byte	.LASF366
 8096 234c 01       		.byte	0x1
 8097 234d 3401     		.2byte	0x134
 8098 234f 1B010000 		.4byte	0x11b
 8099 2353 9F060000 		.4byte	.LLST63
 8100 2357 00       		.byte	0
 8101 2358 55       		.uleb128 0x55
 8102 2359 27180000 		.4byte	0x1827
 8103 235d 00000000 		.4byte	.LFB58
 8104 2361 04000000 		.4byte	.LFE58
 8105 2365 02       		.byte	0x2
 8106 2366 7D       		.byte	0x7d
 8107 2367 00       		.sleb128 0
 8108 2368 51       		.uleb128 0x51
 8109 2369 35180000 		.4byte	0x1835
 8110 236d 00000000 		.4byte	.LFB59
 8111 2371 18000000 		.4byte	.LFE59
 8112 2375 B2060000 		.4byte	.LLST64
 8113 2379 B8230000 		.4byte	0x23b8
 8114 237d 45       		.uleb128 0x45
 8115 237e 04000000 		.4byte	.LBB58
 8116 2382 0E000000 		.4byte	.LBE58
 8117 2386 56       		.uleb128 0x56
 8118 2387 747200   		.ascii	"tr\000"
 8119 238a 01       		.byte	0x1
 8120 238b 4101     		.2byte	0x141
 8121 238d 9A190000 		.4byte	0x199a
 8122 2391 D2060000 		.4byte	.LLST65
 8123 2395 41       		.uleb128 0x41
 8124 2396 D91B0000 		.4byte	0x1bd9
 8125 239a 08000000 		.4byte	.LBB59
 8126 239e 0E000000 		.4byte	.LBE59
 8127 23a2 01       		.byte	0x1
 8128 23a3 4101     		.2byte	0x141
 8129 23a5 57       		.uleb128 0x57
 8130 23a6 F11B0000 		.4byte	0x1bf1
ARM GAS  /tmp/ccq01laD.s 			page 148


 8131 23aa F2060000 		.4byte	.LLST66
 8132 23ae 42       		.uleb128 0x42
 8133 23af E71B0000 		.4byte	0x1be7
 8134 23b3 01       		.byte	0x1
 8135 23b4 54       		.byte	0x54
 8136 23b5 00       		.byte	0
 8137 23b6 00       		.byte	0
 8138 23b7 00       		.byte	0
 8139 23b8 53       		.uleb128 0x53
 8140 23b9 47180000 		.4byte	0x1847
 8141 23bd 00000000 		.4byte	.LFB60
 8142 23c1 04000000 		.4byte	.LFE60
 8143 23c5 02       		.byte	0x2
 8144 23c6 7D       		.byte	0x7d
 8145 23c7 00       		.sleb128 0
 8146 23c8 DD230000 		.4byte	0x23dd
 8147 23cc 40       		.uleb128 0x40
 8148 23cd 35110000 		.4byte	.LASF368
 8149 23d1 01       		.byte	0x1
 8150 23d2 4701     		.2byte	0x147
 8151 23d4 05010000 		.4byte	0x105
 8152 23d8 11070000 		.4byte	.LLST67
 8153 23dc 00       		.byte	0
 8154 23dd 53       		.uleb128 0x53
 8155 23de 63180000 		.4byte	0x1863
 8156 23e2 00000000 		.4byte	.LFB61
 8157 23e6 04000000 		.4byte	.LFE61
 8158 23ea 02       		.byte	0x2
 8159 23eb 7D       		.byte	0x7d
 8160 23ec 00       		.sleb128 0
 8161 23ed 02240000 		.4byte	0x2402
 8162 23f1 40       		.uleb128 0x40
 8163 23f2 35110000 		.4byte	.LASF368
 8164 23f6 01       		.byte	0x1
 8165 23f7 4C01     		.2byte	0x14c
 8166 23f9 05010000 		.4byte	0x105
 8167 23fd 24070000 		.4byte	.LLST68
 8168 2401 00       		.byte	0
 8169 2402 53       		.uleb128 0x53
 8170 2403 7F180000 		.4byte	0x187f
 8171 2407 00000000 		.4byte	.LFB62
 8172 240b 04000000 		.4byte	.LFE62
 8173 240f 02       		.byte	0x2
 8174 2410 7D       		.byte	0x7d
 8175 2411 00       		.sleb128 0
 8176 2412 27240000 		.4byte	0x2427
 8177 2416 40       		.uleb128 0x40
 8178 2417 FB040000 		.4byte	.LASF31
 8179 241b 01       		.byte	0x1
 8180 241c 5101     		.2byte	0x151
 8181 241e 05010000 		.4byte	0x105
 8182 2422 37070000 		.4byte	.LLST69
 8183 2426 00       		.byte	0
 8184 2427 53       		.uleb128 0x53
 8185 2428 9B180000 		.4byte	0x189b
 8186 242c 00000000 		.4byte	.LFB63
 8187 2430 04000000 		.4byte	.LFE63
ARM GAS  /tmp/ccq01laD.s 			page 149


 8188 2434 02       		.byte	0x2
 8189 2435 7D       		.byte	0x7d
 8190 2436 00       		.sleb128 0
 8191 2437 4C240000 		.4byte	0x244c
 8192 243b 40       		.uleb128 0x40
 8193 243c FB040000 		.4byte	.LASF31
 8194 2440 01       		.byte	0x1
 8195 2441 5601     		.2byte	0x156
 8196 2443 05010000 		.4byte	0x105
 8197 2447 4A070000 		.4byte	.LLST70
 8198 244b 00       		.byte	0
 8199 244c 53       		.uleb128 0x53
 8200 244d B7180000 		.4byte	0x18b7
 8201 2451 00000000 		.4byte	.LFB64
 8202 2455 04000000 		.4byte	.LFE64
 8203 2459 02       		.byte	0x2
 8204 245a 7D       		.byte	0x7d
 8205 245b 00       		.sleb128 0
 8206 245c 71240000 		.4byte	0x2471
 8207 2460 40       		.uleb128 0x40
 8208 2461 FB040000 		.4byte	.LASF31
 8209 2465 01       		.byte	0x1
 8210 2466 5B01     		.2byte	0x15b
 8211 2468 05010000 		.4byte	0x105
 8212 246c 5D070000 		.4byte	.LLST71
 8213 2470 00       		.byte	0
 8214 2471 53       		.uleb128 0x53
 8215 2472 D3180000 		.4byte	0x18d3
 8216 2476 00000000 		.4byte	.LFB65
 8217 247a 04000000 		.4byte	.LFE65
 8218 247e 02       		.byte	0x2
 8219 247f 7D       		.byte	0x7d
 8220 2480 00       		.sleb128 0
 8221 2481 A6240000 		.4byte	0x24a6
 8222 2485 40       		.uleb128 0x40
 8223 2486 FB040000 		.4byte	.LASF31
 8224 248a 01       		.byte	0x1
 8225 248b 6101     		.2byte	0x161
 8226 248d 05010000 		.4byte	0x105
 8227 2491 70070000 		.4byte	.LLST72
 8228 2495 40       		.uleb128 0x40
 8229 2496 95040000 		.4byte	.LASF366
 8230 249a 01       		.byte	0x1
 8231 249b 6201     		.2byte	0x162
 8232 249d 1B010000 		.4byte	0x11b
 8233 24a1 83070000 		.4byte	.LLST73
 8234 24a5 00       		.byte	0
 8235 24a6 53       		.uleb128 0x53
 8236 24a7 F4180000 		.4byte	0x18f4
 8237 24ab 00000000 		.4byte	.LFB66
 8238 24af 04000000 		.4byte	.LFE66
 8239 24b3 02       		.byte	0x2
 8240 24b4 7D       		.byte	0x7d
 8241 24b5 00       		.sleb128 0
 8242 24b6 DB240000 		.4byte	0x24db
 8243 24ba 40       		.uleb128 0x40
 8244 24bb FB040000 		.4byte	.LASF31
ARM GAS  /tmp/ccq01laD.s 			page 150


 8245 24bf 01       		.byte	0x1
 8246 24c0 6701     		.2byte	0x167
 8247 24c2 05010000 		.4byte	0x105
 8248 24c6 96070000 		.4byte	.LLST74
 8249 24ca 40       		.uleb128 0x40
 8250 24cb 95040000 		.4byte	.LASF366
 8251 24cf 01       		.byte	0x1
 8252 24d0 6801     		.2byte	0x168
 8253 24d2 1B010000 		.4byte	0x11b
 8254 24d6 A9070000 		.4byte	.LLST75
 8255 24da 00       		.byte	0
 8256 24db 53       		.uleb128 0x53
 8257 24dc 15190000 		.4byte	0x1915
 8258 24e0 00000000 		.4byte	.LFB67
 8259 24e4 04000000 		.4byte	.LFE67
 8260 24e8 02       		.byte	0x2
 8261 24e9 7D       		.byte	0x7d
 8262 24ea 00       		.sleb128 0
 8263 24eb 10250000 		.4byte	0x2510
 8264 24ef 40       		.uleb128 0x40
 8265 24f0 FB040000 		.4byte	.LASF31
 8266 24f4 01       		.byte	0x1
 8267 24f5 6D01     		.2byte	0x16d
 8268 24f7 05010000 		.4byte	0x105
 8269 24fb BC070000 		.4byte	.LLST76
 8270 24ff 40       		.uleb128 0x40
 8271 2500 95040000 		.4byte	.LASF366
 8272 2504 01       		.byte	0x1
 8273 2505 6E01     		.2byte	0x16e
 8274 2507 1B010000 		.4byte	0x11b
 8275 250b CF070000 		.4byte	.LLST77
 8276 250f 00       		.byte	0
 8277 2510 53       		.uleb128 0x53
 8278 2511 36190000 		.4byte	0x1936
 8279 2515 00000000 		.4byte	.LFB68
 8280 2519 04000000 		.4byte	.LFE68
 8281 251d 02       		.byte	0x2
 8282 251e 7D       		.byte	0x7d
 8283 251f 00       		.sleb128 0
 8284 2520 45250000 		.4byte	0x2545
 8285 2524 40       		.uleb128 0x40
 8286 2525 9B020000 		.4byte	.LASF372
 8287 2529 01       		.byte	0x1
 8288 252a 7401     		.2byte	0x174
 8289 252c 8F190000 		.4byte	0x198f
 8290 2530 E2070000 		.4byte	.LLST78
 8291 2534 40       		.uleb128 0x40
 8292 2535 35110000 		.4byte	.LASF368
 8293 2539 01       		.byte	0x1
 8294 253a 7501     		.2byte	0x175
 8295 253c 05010000 		.4byte	0x105
 8296 2540 F5070000 		.4byte	.LLST79
 8297 2544 00       		.byte	0
 8298 2545 55       		.uleb128 0x55
 8299 2546 53190000 		.4byte	0x1953
 8300 254a 00000000 		.4byte	.LFB69
 8301 254e 04000000 		.4byte	.LFE69
ARM GAS  /tmp/ccq01laD.s 			page 151


 8302 2552 02       		.byte	0x2
 8303 2553 7D       		.byte	0x7d
 8304 2554 00       		.sleb128 0
 8305 2555 55       		.uleb128 0x55
 8306 2556 61190000 		.4byte	0x1961
 8307 255a 00000000 		.4byte	.LFB70
 8308 255e 04000000 		.4byte	.LFE70
 8309 2562 02       		.byte	0x2
 8310 2563 7D       		.byte	0x7d
 8311 2564 00       		.sleb128 0
 8312 2565 55       		.uleb128 0x55
 8313 2566 6F190000 		.4byte	0x196f
 8314 256a 00000000 		.4byte	.LFB71
 8315 256e 04000000 		.4byte	.LFE71
 8316 2572 02       		.byte	0x2
 8317 2573 7D       		.byte	0x7d
 8318 2574 00       		.sleb128 0
 8319 2575 58       		.uleb128 0x58
 8320 2576 4C0A0000 		.4byte	0xa4c
 8321 257a 01       		.byte	0x1
 8322 257b 9001     		.2byte	0x190
 8323 257d 00       		.byte	0
 8324 257e 86250000 		.4byte	0x2586
 8325 2582 9B250000 		.4byte	0x259b
 8326 2586 3A       		.uleb128 0x3a
 8327 2587 42130000 		.4byte	.LASF363
 8328 258b 9B250000 		.4byte	0x259b
 8329 258f 01       		.byte	0x1
 8330 2590 59       		.uleb128 0x59
 8331 2591 6E00     		.ascii	"n\000"
 8332 2593 01       		.byte	0x1
 8333 2594 9001     		.2byte	0x190
 8334 2596 26010000 		.4byte	0x126
 8335 259a 00       		.byte	0
 8336 259b 13       		.uleb128 0x13
 8337 259c DB0B0000 		.4byte	0xbdb
 8338 25a0 5A       		.uleb128 0x5a
 8339 25a1 75250000 		.4byte	0x2575
 8340 25a5 00000000 		.4byte	.LFB73
 8341 25a9 0C000000 		.4byte	.LFE73
 8342 25ad 08080000 		.4byte	.LLST80
 8343 25b1 B9250000 		.4byte	0x25b9
 8344 25b5 CC250000 		.4byte	0x25cc
 8345 25b9 57       		.uleb128 0x57
 8346 25ba 86250000 		.4byte	0x2586
 8347 25be 28080000 		.4byte	.LLST81
 8348 25c2 57       		.uleb128 0x57
 8349 25c3 90250000 		.4byte	0x2590
 8350 25c7 46080000 		.4byte	.LLST82
 8351 25cb 00       		.byte	0
 8352 25cc 5B       		.uleb128 0x5b
 8353 25cd 6E0A0000 		.4byte	0xa6e
 8354 25d1 01       		.byte	0x1
 8355 25d2 9501     		.2byte	0x195
 8356 25d4 00000000 		.4byte	.LFB75
 8357 25d8 04000000 		.4byte	.LFE75
 8358 25dc 02       		.byte	0x2
ARM GAS  /tmp/ccq01laD.s 			page 152


 8359 25dd 7D       		.byte	0x7d
 8360 25de 00       		.sleb128 0
 8361 25df E7250000 		.4byte	0x25e7
 8362 25e3 04260000 		.4byte	0x2604
 8363 25e7 3E       		.uleb128 0x3e
 8364 25e8 42130000 		.4byte	.LASF363
 8365 25ec 9B250000 		.4byte	0x259b
 8366 25f0 01       		.byte	0x1
 8367 25f1 59080000 		.4byte	.LLST83
 8368 25f5 52       		.uleb128 0x52
 8369 25f6 6E00     		.ascii	"n\000"
 8370 25f8 01       		.byte	0x1
 8371 25f9 9501     		.2byte	0x195
 8372 25fb 26010000 		.4byte	0x126
 8373 25ff 6C080000 		.4byte	.LLST84
 8374 2603 00       		.byte	0
 8375 2604 5B       		.uleb128 0x5b
 8376 2605 900A0000 		.4byte	0xa90
 8377 2609 01       		.byte	0x1
 8378 260a 9A01     		.2byte	0x19a
 8379 260c 00000000 		.4byte	.LFB76
 8380 2610 04000000 		.4byte	.LFE76
 8381 2614 02       		.byte	0x2
 8382 2615 7D       		.byte	0x7d
 8383 2616 00       		.sleb128 0
 8384 2617 1F260000 		.4byte	0x261f
 8385 261b 3C260000 		.4byte	0x263c
 8386 261f 3E       		.uleb128 0x3e
 8387 2620 42130000 		.4byte	.LASF363
 8388 2624 9B250000 		.4byte	0x259b
 8389 2628 01       		.byte	0x1
 8390 2629 7F080000 		.4byte	.LLST85
 8391 262d 52       		.uleb128 0x52
 8392 262e 6E00     		.ascii	"n\000"
 8393 2630 01       		.byte	0x1
 8394 2631 9A01     		.2byte	0x19a
 8395 2633 26010000 		.4byte	0x126
 8396 2637 92080000 		.4byte	.LLST86
 8397 263b 00       		.byte	0
 8398 263c 5B       		.uleb128 0x5b
 8399 263d B20A0000 		.4byte	0xab2
 8400 2641 01       		.byte	0x1
 8401 2642 9F01     		.2byte	0x19f
 8402 2644 00000000 		.4byte	.LFB77
 8403 2648 04000000 		.4byte	.LFE77
 8404 264c 02       		.byte	0x2
 8405 264d 7D       		.byte	0x7d
 8406 264e 00       		.sleb128 0
 8407 264f 57260000 		.4byte	0x2657
 8408 2653 66260000 		.4byte	0x2666
 8409 2657 3E       		.uleb128 0x3e
 8410 2658 42130000 		.4byte	.LASF363
 8411 265c 9B250000 		.4byte	0x259b
 8412 2660 01       		.byte	0x1
 8413 2661 A5080000 		.4byte	.LLST87
 8414 2665 00       		.byte	0
 8415 2666 5B       		.uleb128 0x5b
ARM GAS  /tmp/ccq01laD.s 			page 153


 8416 2667 D30A0000 		.4byte	0xad3
 8417 266b 01       		.byte	0x1
 8418 266c A401     		.2byte	0x1a4
 8419 266e 00000000 		.4byte	.LFB78
 8420 2672 04000000 		.4byte	.LFE78
 8421 2676 02       		.byte	0x2
 8422 2677 7D       		.byte	0x7d
 8423 2678 00       		.sleb128 0
 8424 2679 81260000 		.4byte	0x2681
 8425 267d 90260000 		.4byte	0x2690
 8426 2681 3E       		.uleb128 0x3e
 8427 2682 42130000 		.4byte	.LASF363
 8428 2686 9B250000 		.4byte	0x259b
 8429 268a 01       		.byte	0x1
 8430 268b B8080000 		.4byte	.LLST88
 8431 268f 00       		.byte	0
 8432 2690 5B       		.uleb128 0x5b
 8433 2691 F40A0000 		.4byte	0xaf4
 8434 2695 01       		.byte	0x1
 8435 2696 A901     		.2byte	0x1a9
 8436 2698 00000000 		.4byte	.LFB79
 8437 269c 04000000 		.4byte	.LFE79
 8438 26a0 02       		.byte	0x2
 8439 26a1 7D       		.byte	0x7d
 8440 26a2 00       		.sleb128 0
 8441 26a3 AB260000 		.4byte	0x26ab
 8442 26a7 CA260000 		.4byte	0x26ca
 8443 26ab 3E       		.uleb128 0x3e
 8444 26ac 42130000 		.4byte	.LASF363
 8445 26b0 9B250000 		.4byte	0x259b
 8446 26b4 01       		.byte	0x1
 8447 26b5 CB080000 		.4byte	.LLST89
 8448 26b9 40       		.uleb128 0x40
 8449 26ba 95040000 		.4byte	.LASF366
 8450 26be 01       		.byte	0x1
 8451 26bf A901     		.2byte	0x1a9
 8452 26c1 1B010000 		.4byte	0x11b
 8453 26c5 DE080000 		.4byte	.LLST90
 8454 26c9 00       		.byte	0
 8455 26ca 5B       		.uleb128 0x5b
 8456 26cb 1A0B0000 		.4byte	0xb1a
 8457 26cf 01       		.byte	0x1
 8458 26d0 AE01     		.2byte	0x1ae
 8459 26d2 00000000 		.4byte	.LFB80
 8460 26d6 04000000 		.4byte	.LFE80
 8461 26da 02       		.byte	0x2
 8462 26db 7D       		.byte	0x7d
 8463 26dc 00       		.sleb128 0
 8464 26dd E5260000 		.4byte	0x26e5
 8465 26e1 04270000 		.4byte	0x2704
 8466 26e5 3E       		.uleb128 0x3e
 8467 26e6 42130000 		.4byte	.LASF363
 8468 26ea 9B250000 		.4byte	0x259b
 8469 26ee 01       		.byte	0x1
 8470 26ef F1080000 		.4byte	.LLST91
 8471 26f3 40       		.uleb128 0x40
 8472 26f4 95040000 		.4byte	.LASF366
ARM GAS  /tmp/ccq01laD.s 			page 154


 8473 26f8 01       		.byte	0x1
 8474 26f9 AE01     		.2byte	0x1ae
 8475 26fb 1B010000 		.4byte	0x11b
 8476 26ff 04090000 		.4byte	.LLST92
 8477 2703 00       		.byte	0
 8478 2704 5B       		.uleb128 0x5b
 8479 2705 400B0000 		.4byte	0xb40
 8480 2709 01       		.byte	0x1
 8481 270a B301     		.2byte	0x1b3
 8482 270c 00000000 		.4byte	.LFB81
 8483 2710 04000000 		.4byte	.LFE81
 8484 2714 02       		.byte	0x2
 8485 2715 7D       		.byte	0x7d
 8486 2716 00       		.sleb128 0
 8487 2717 1F270000 		.4byte	0x271f
 8488 271b 2E270000 		.4byte	0x272e
 8489 271f 3E       		.uleb128 0x3e
 8490 2720 42130000 		.4byte	.LASF363
 8491 2724 9B250000 		.4byte	0x259b
 8492 2728 01       		.byte	0x1
 8493 2729 17090000 		.4byte	.LLST93
 8494 272d 00       		.byte	0
 8495 272e 5B       		.uleb128 0x5b
 8496 272f 5D0B0000 		.4byte	0xb5d
 8497 2733 01       		.byte	0x1
 8498 2734 B801     		.2byte	0x1b8
 8499 2736 00000000 		.4byte	.LFB82
 8500 273a 04000000 		.4byte	.LFE82
 8501 273e 02       		.byte	0x2
 8502 273f 7D       		.byte	0x7d
 8503 2740 00       		.sleb128 0
 8504 2741 49270000 		.4byte	0x2749
 8505 2745 58270000 		.4byte	0x2758
 8506 2749 3E       		.uleb128 0x3e
 8507 274a 42130000 		.4byte	.LASF363
 8508 274e 9B250000 		.4byte	0x259b
 8509 2752 01       		.byte	0x1
 8510 2753 2A090000 		.4byte	.LLST94
 8511 2757 00       		.byte	0
 8512 2758 5B       		.uleb128 0x5b
 8513 2759 7A0B0000 		.4byte	0xb7a
 8514 275d 01       		.byte	0x1
 8515 275e BD01     		.2byte	0x1bd
 8516 2760 00000000 		.4byte	.LFB83
 8517 2764 04000000 		.4byte	.LFE83
 8518 2768 02       		.byte	0x2
 8519 2769 7D       		.byte	0x7d
 8520 276a 00       		.sleb128 0
 8521 276b 73270000 		.4byte	0x2773
 8522 276f 90270000 		.4byte	0x2790
 8523 2773 3E       		.uleb128 0x3e
 8524 2774 42130000 		.4byte	.LASF363
 8525 2778 9B250000 		.4byte	0x259b
 8526 277c 01       		.byte	0x1
 8527 277d 3D090000 		.4byte	.LLST95
 8528 2781 52       		.uleb128 0x52
 8529 2782 6E00     		.ascii	"n\000"
ARM GAS  /tmp/ccq01laD.s 			page 155


 8530 2784 01       		.byte	0x1
 8531 2785 BD01     		.2byte	0x1bd
 8532 2787 26010000 		.4byte	0x126
 8533 278b 50090000 		.4byte	.LLST96
 8534 278f 00       		.byte	0
 8535 2790 5B       		.uleb128 0x5b
 8536 2791 9C0B0000 		.4byte	0xb9c
 8537 2795 01       		.byte	0x1
 8538 2796 C201     		.2byte	0x1c2
 8539 2798 00000000 		.4byte	.LFB84
 8540 279c 04000000 		.4byte	.LFE84
 8541 27a0 02       		.byte	0x2
 8542 27a1 7D       		.byte	0x7d
 8543 27a2 00       		.sleb128 0
 8544 27a3 AB270000 		.4byte	0x27ab
 8545 27a7 BA270000 		.4byte	0x27ba
 8546 27ab 3E       		.uleb128 0x3e
 8547 27ac 42130000 		.4byte	.LASF363
 8548 27b0 9B250000 		.4byte	0x259b
 8549 27b4 01       		.byte	0x1
 8550 27b5 63090000 		.4byte	.LLST97
 8551 27b9 00       		.byte	0
 8552 27ba 5C       		.uleb128 0x5c
 8553 27bb BD0B0000 		.4byte	0xbbd
 8554 27bf 01       		.byte	0x1
 8555 27c0 C801     		.2byte	0x1c8
 8556 27c2 00000000 		.4byte	.LFB85
 8557 27c6 04000000 		.4byte	.LFE85
 8558 27ca 02       		.byte	0x2
 8559 27cb 7D       		.byte	0x7d
 8560 27cc 00       		.sleb128 0
 8561 27cd F2270000 		.4byte	0x27f2
 8562 27d1 40       		.uleb128 0x40
 8563 27d2 61050000 		.4byte	.LASF373
 8564 27d6 01       		.byte	0x1
 8565 27d7 C801     		.2byte	0x1c8
 8566 27d9 E10B0000 		.4byte	0xbe1
 8567 27dd 76090000 		.4byte	.LLST98
 8568 27e1 40       		.uleb128 0x40
 8569 27e2 7B0E0000 		.4byte	.LASF374
 8570 27e6 01       		.byte	0x1
 8571 27e7 C901     		.2byte	0x1c9
 8572 27e9 E10B0000 		.4byte	0xbe1
 8573 27ed 89090000 		.4byte	.LLST99
 8574 27f1 00       		.byte	0
 8575 27f2 58       		.uleb128 0x58
 8576 27f3 030C0000 		.4byte	0xc03
 8577 27f7 01       		.byte	0x1
 8578 27f8 D201     		.2byte	0x1d2
 8579 27fa 00       		.byte	0
 8580 27fb 03280000 		.4byte	0x2803
 8581 27ff 1A280000 		.4byte	0x281a
 8582 2803 3A       		.uleb128 0x3a
 8583 2804 42130000 		.4byte	.LASF363
 8584 2808 1A280000 		.4byte	0x281a
 8585 280c 01       		.byte	0x1
 8586 280d 5D       		.uleb128 0x5d
ARM GAS  /tmp/ccq01laD.s 			page 156


 8587 280e C20E0000 		.4byte	.LASF375
 8588 2812 01       		.byte	0x1
 8589 2813 D201     		.2byte	0x1d2
 8590 2815 B1000000 		.4byte	0xb1
 8591 2819 00       		.byte	0
 8592 281a 13       		.uleb128 0x13
 8593 281b 4F0D0000 		.4byte	0xd4f
 8594 281f 5A       		.uleb128 0x5a
 8595 2820 F2270000 		.4byte	0x27f2
 8596 2824 00000000 		.4byte	.LFB87
 8597 2828 10000000 		.4byte	.LFE87
 8598 282c 9C090000 		.4byte	.LLST100
 8599 2830 38280000 		.4byte	0x2838
 8600 2834 4B280000 		.4byte	0x284b
 8601 2838 57       		.uleb128 0x57
 8602 2839 03280000 		.4byte	0x2803
 8603 283d BC090000 		.4byte	.LLST101
 8604 2841 57       		.uleb128 0x57
 8605 2842 0D280000 		.4byte	0x280d
 8606 2846 DA090000 		.4byte	.LLST102
 8607 284a 00       		.byte	0
 8608 284b 5B       		.uleb128 0x5b
 8609 284c 250C0000 		.4byte	0xc25
 8610 2850 01       		.byte	0x1
 8611 2851 D701     		.2byte	0x1d7
 8612 2853 00000000 		.4byte	.LFB89
 8613 2857 04000000 		.4byte	.LFE89
 8614 285b 02       		.byte	0x2
 8615 285c 7D       		.byte	0x7d
 8616 285d 00       		.sleb128 0
 8617 285e 66280000 		.4byte	0x2866
 8618 2862 75280000 		.4byte	0x2875
 8619 2866 3E       		.uleb128 0x3e
 8620 2867 42130000 		.4byte	.LASF363
 8621 286b 1A280000 		.4byte	0x281a
 8622 286f 01       		.byte	0x1
 8623 2870 ED090000 		.4byte	.LLST103
 8624 2874 00       		.byte	0
 8625 2875 5B       		.uleb128 0x5b
 8626 2876 460C0000 		.4byte	0xc46
 8627 287a 01       		.byte	0x1
 8628 287b DC01     		.2byte	0x1dc
 8629 287d 00000000 		.4byte	.LFB90
 8630 2881 04000000 		.4byte	.LFE90
 8631 2885 02       		.byte	0x2
 8632 2886 7D       		.byte	0x7d
 8633 2887 00       		.sleb128 0
 8634 2888 90280000 		.4byte	0x2890
 8635 288c 9F280000 		.4byte	0x289f
 8636 2890 3E       		.uleb128 0x3e
 8637 2891 42130000 		.4byte	.LASF363
 8638 2895 1A280000 		.4byte	0x281a
 8639 2899 01       		.byte	0x1
 8640 289a 000A0000 		.4byte	.LLST104
 8641 289e 00       		.byte	0
 8642 289f 5B       		.uleb128 0x5b
 8643 28a0 670C0000 		.4byte	0xc67
ARM GAS  /tmp/ccq01laD.s 			page 157


 8644 28a4 01       		.byte	0x1
 8645 28a5 E101     		.2byte	0x1e1
 8646 28a7 00000000 		.4byte	.LFB91
 8647 28ab 04000000 		.4byte	.LFE91
 8648 28af 02       		.byte	0x2
 8649 28b0 7D       		.byte	0x7d
 8650 28b1 00       		.sleb128 0
 8651 28b2 BA280000 		.4byte	0x28ba
 8652 28b6 D9280000 		.4byte	0x28d9
 8653 28ba 3E       		.uleb128 0x3e
 8654 28bb 42130000 		.4byte	.LASF363
 8655 28bf 1A280000 		.4byte	0x281a
 8656 28c3 01       		.byte	0x1
 8657 28c4 130A0000 		.4byte	.LLST105
 8658 28c8 40       		.uleb128 0x40
 8659 28c9 95040000 		.4byte	.LASF366
 8660 28cd 01       		.byte	0x1
 8661 28ce E101     		.2byte	0x1e1
 8662 28d0 1B010000 		.4byte	0x11b
 8663 28d4 260A0000 		.4byte	.LLST106
 8664 28d8 00       		.byte	0
 8665 28d9 5B       		.uleb128 0x5b
 8666 28da 8D0C0000 		.4byte	0xc8d
 8667 28de 01       		.byte	0x1
 8668 28df E601     		.2byte	0x1e6
 8669 28e1 00000000 		.4byte	.LFB92
 8670 28e5 04000000 		.4byte	.LFE92
 8671 28e9 02       		.byte	0x2
 8672 28ea 7D       		.byte	0x7d
 8673 28eb 00       		.sleb128 0
 8674 28ec F4280000 		.4byte	0x28f4
 8675 28f0 13290000 		.4byte	0x2913
 8676 28f4 3E       		.uleb128 0x3e
 8677 28f5 42130000 		.4byte	.LASF363
 8678 28f9 1A280000 		.4byte	0x281a
 8679 28fd 01       		.byte	0x1
 8680 28fe 390A0000 		.4byte	.LLST107
 8681 2902 40       		.uleb128 0x40
 8682 2903 95040000 		.4byte	.LASF366
 8683 2907 01       		.byte	0x1
 8684 2908 E601     		.2byte	0x1e6
 8685 290a 1B010000 		.4byte	0x11b
 8686 290e 4C0A0000 		.4byte	.LLST108
 8687 2912 00       		.byte	0
 8688 2913 5B       		.uleb128 0x5b
 8689 2914 B30C0000 		.4byte	0xcb3
 8690 2918 01       		.byte	0x1
 8691 2919 EB01     		.2byte	0x1eb
 8692 291b 00000000 		.4byte	.LFB93
 8693 291f 08000000 		.4byte	.LFE93
 8694 2923 02       		.byte	0x2
 8695 2924 7D       		.byte	0x7d
 8696 2925 00       		.sleb128 0
 8697 2926 2E290000 		.4byte	0x292e
 8698 292a 4D290000 		.4byte	0x294d
 8699 292e 3E       		.uleb128 0x3e
 8700 292f 42130000 		.4byte	.LASF363
ARM GAS  /tmp/ccq01laD.s 			page 158


 8701 2933 1A280000 		.4byte	0x281a
 8702 2937 01       		.byte	0x1
 8703 2938 5F0A0000 		.4byte	.LLST109
 8704 293c 40       		.uleb128 0x40
 8705 293d C20E0000 		.4byte	.LASF375
 8706 2941 01       		.byte	0x1
 8707 2942 EB01     		.2byte	0x1eb
 8708 2944 B1000000 		.4byte	0xb1
 8709 2948 720A0000 		.4byte	.LLST110
 8710 294c 00       		.byte	0
 8711 294d 5B       		.uleb128 0x5b
 8712 294e D50C0000 		.4byte	0xcd5
 8713 2952 01       		.byte	0x1
 8714 2953 F001     		.2byte	0x1f0
 8715 2955 00000000 		.4byte	.LFB94
 8716 2959 08000000 		.4byte	.LFE94
 8717 295d 02       		.byte	0x2
 8718 295e 7D       		.byte	0x7d
 8719 295f 00       		.sleb128 0
 8720 2960 68290000 		.4byte	0x2968
 8721 2964 87290000 		.4byte	0x2987
 8722 2968 3E       		.uleb128 0x3e
 8723 2969 42130000 		.4byte	.LASF363
 8724 296d 1A280000 		.4byte	0x281a
 8725 2971 01       		.byte	0x1
 8726 2972 850A0000 		.4byte	.LLST111
 8727 2976 40       		.uleb128 0x40
 8728 2977 C20E0000 		.4byte	.LASF375
 8729 297b 01       		.byte	0x1
 8730 297c F001     		.2byte	0x1f0
 8731 297e B1000000 		.4byte	0xb1
 8732 2982 980A0000 		.4byte	.LLST112
 8733 2986 00       		.byte	0
 8734 2987 5E       		.uleb128 0x5e
 8735 2988 F70C0000 		.4byte	0xcf7
 8736 298c 01       		.byte	0x1
 8737 298d F501     		.2byte	0x1f5
 8738 298f 00000000 		.4byte	.LFB95
 8739 2993 3A000000 		.4byte	.LFE95
 8740 2997 AB0A0000 		.4byte	.LLST113
 8741 299b A3290000 		.4byte	0x29a3
 8742 299f E2290000 		.4byte	0x29e2
 8743 29a3 3E       		.uleb128 0x3e
 8744 29a4 42130000 		.4byte	.LASF363
 8745 29a8 1A280000 		.4byte	0x281a
 8746 29ac 01       		.byte	0x1
 8747 29ad CB0A0000 		.4byte	.LLST114
 8748 29b1 4D       		.uleb128 0x4d
 8749 29b2 68000000 		.4byte	.Ldebug_ranges0+0x68
 8750 29b6 CB290000 		.4byte	0x29cb
 8751 29ba 56       		.uleb128 0x56
 8752 29bb 746D7000 		.ascii	"tmp\000"
 8753 29bf 01       		.byte	0x1
 8754 29c0 F701     		.2byte	0x1f7
 8755 29c2 7B000000 		.4byte	0x7b
 8756 29c6 E90A0000 		.4byte	.LLST115
 8757 29ca 00       		.byte	0
ARM GAS  /tmp/ccq01laD.s 			page 159


 8758 29cb 4C       		.uleb128 0x4c
 8759 29cc 80000000 		.4byte	.Ldebug_ranges0+0x80
 8760 29d0 56       		.uleb128 0x56
 8761 29d1 746D7000 		.ascii	"tmp\000"
 8762 29d5 01       		.byte	0x1
 8763 29d6 F701     		.2byte	0x1f7
 8764 29d8 7B000000 		.4byte	0x7b
 8765 29dc FC0A0000 		.4byte	.LLST116
 8766 29e0 00       		.byte	0
 8767 29e1 00       		.byte	0
 8768 29e2 5B       		.uleb128 0x5b
 8769 29e3 140D0000 		.4byte	0xd14
 8770 29e7 01       		.byte	0x1
 8771 29e8 FA01     		.2byte	0x1fa
 8772 29ea 00000000 		.4byte	.LFB96
 8773 29ee 0C000000 		.4byte	.LFE96
 8774 29f2 02       		.byte	0x2
 8775 29f3 7D       		.byte	0x7d
 8776 29f4 00       		.sleb128 0
 8777 29f5 FD290000 		.4byte	0x29fd
 8778 29f9 0C2A0000 		.4byte	0x2a0c
 8779 29fd 3E       		.uleb128 0x3e
 8780 29fe 42130000 		.4byte	.LASF363
 8781 2a02 1A280000 		.4byte	0x281a
 8782 2a06 01       		.byte	0x1
 8783 2a07 1A0B0000 		.4byte	.LLST117
 8784 2a0b 00       		.byte	0
 8785 2a0c 5B       		.uleb128 0x5b
 8786 2a0d 310D0000 		.4byte	0xd31
 8787 2a11 01       		.byte	0x1
 8788 2a12 FF01     		.2byte	0x1ff
 8789 2a14 00000000 		.4byte	.LFB97
 8790 2a18 0C000000 		.4byte	.LFE97
 8791 2a1c 02       		.byte	0x2
 8792 2a1d 7D       		.byte	0x7d
 8793 2a1e 00       		.sleb128 0
 8794 2a1f 272A0000 		.4byte	0x2a27
 8795 2a23 362A0000 		.4byte	0x2a36
 8796 2a27 3E       		.uleb128 0x3e
 8797 2a28 42130000 		.4byte	.LASF363
 8798 2a2c 1A280000 		.4byte	0x281a
 8799 2a30 01       		.byte	0x1
 8800 2a31 2D0B0000 		.4byte	.LLST118
 8801 2a35 00       		.byte	0
 8802 2a36 58       		.uleb128 0x58
 8803 2a37 710D0000 		.4byte	0xd71
 8804 2a3b 01       		.byte	0x1
 8805 2a3c 0902     		.2byte	0x209
 8806 2a3e 00       		.byte	0
 8807 2a3f 472A0000 		.4byte	0x2a47
 8808 2a43 522A0000 		.4byte	0x2a52
 8809 2a47 3A       		.uleb128 0x3a
 8810 2a48 42130000 		.4byte	.LASF363
 8811 2a4c 522A0000 		.4byte	0x2a52
 8812 2a50 01       		.byte	0x1
 8813 2a51 00       		.byte	0
 8814 2a52 13       		.uleb128 0x13
ARM GAS  /tmp/ccq01laD.s 			page 160


 8815 2a53 070E0000 		.4byte	0xe07
 8816 2a57 5A       		.uleb128 0x5a
 8817 2a58 362A0000 		.4byte	0x2a36
 8818 2a5c 00000000 		.4byte	.LFB99
 8819 2a60 0C000000 		.4byte	.LFE99
 8820 2a64 400B0000 		.4byte	.LLST119
 8821 2a68 702A0000 		.4byte	0x2a70
 8822 2a6c 7A2A0000 		.4byte	0x2a7a
 8823 2a70 57       		.uleb128 0x57
 8824 2a71 472A0000 		.4byte	0x2a47
 8825 2a75 600B0000 		.4byte	.LLST120
 8826 2a79 00       		.byte	0
 8827 2a7a 5B       		.uleb128 0x5b
 8828 2a7b 8E0D0000 		.4byte	0xd8e
 8829 2a7f 01       		.byte	0x1
 8830 2a80 0E02     		.2byte	0x20e
 8831 2a82 00000000 		.4byte	.LFB101
 8832 2a86 04000000 		.4byte	.LFE101
 8833 2a8a 02       		.byte	0x2
 8834 2a8b 7D       		.byte	0x7d
 8835 2a8c 00       		.sleb128 0
 8836 2a8d 952A0000 		.4byte	0x2a95
 8837 2a91 A42A0000 		.4byte	0x2aa4
 8838 2a95 3E       		.uleb128 0x3e
 8839 2a96 42130000 		.4byte	.LASF363
 8840 2a9a 522A0000 		.4byte	0x2a52
 8841 2a9e 01       		.byte	0x1
 8842 2a9f 7E0B0000 		.4byte	.LLST121
 8843 2aa3 00       		.byte	0
 8844 2aa4 5B       		.uleb128 0x5b
 8845 2aa5 AF0D0000 		.4byte	0xdaf
 8846 2aa9 01       		.byte	0x1
 8847 2aaa 1302     		.2byte	0x213
 8848 2aac 00000000 		.4byte	.LFB102
 8849 2ab0 04000000 		.4byte	.LFE102
 8850 2ab4 02       		.byte	0x2
 8851 2ab5 7D       		.byte	0x7d
 8852 2ab6 00       		.sleb128 0
 8853 2ab7 BF2A0000 		.4byte	0x2abf
 8854 2abb CE2A0000 		.4byte	0x2ace
 8855 2abf 3E       		.uleb128 0x3e
 8856 2ac0 42130000 		.4byte	.LASF363
 8857 2ac4 522A0000 		.4byte	0x2a52
 8858 2ac8 01       		.byte	0x1
 8859 2ac9 910B0000 		.4byte	.LLST122
 8860 2acd 00       		.byte	0
 8861 2ace 5B       		.uleb128 0x5b
 8862 2acf D00D0000 		.4byte	0xdd0
 8863 2ad3 01       		.byte	0x1
 8864 2ad4 1802     		.2byte	0x218
 8865 2ad6 00000000 		.4byte	.LFB103
 8866 2ada 04000000 		.4byte	.LFE103
 8867 2ade 02       		.byte	0x2
 8868 2adf 7D       		.byte	0x7d
 8869 2ae0 00       		.sleb128 0
 8870 2ae1 E92A0000 		.4byte	0x2ae9
 8871 2ae5 F82A0000 		.4byte	0x2af8
ARM GAS  /tmp/ccq01laD.s 			page 161


 8872 2ae9 3E       		.uleb128 0x3e
 8873 2aea 42130000 		.4byte	.LASF363
 8874 2aee 522A0000 		.4byte	0x2a52
 8875 2af2 01       		.byte	0x1
 8876 2af3 A40B0000 		.4byte	.LLST123
 8877 2af7 00       		.byte	0
 8878 2af8 5B       		.uleb128 0x5b
 8879 2af9 ED0D0000 		.4byte	0xded
 8880 2afd 01       		.byte	0x1
 8881 2afe 1D02     		.2byte	0x21d
 8882 2b00 00000000 		.4byte	.LFB104
 8883 2b04 04000000 		.4byte	.LFE104
 8884 2b08 02       		.byte	0x2
 8885 2b09 7D       		.byte	0x7d
 8886 2b0a 00       		.sleb128 0
 8887 2b0b 132B0000 		.4byte	0x2b13
 8888 2b0f 222B0000 		.4byte	0x2b22
 8889 2b13 3E       		.uleb128 0x3e
 8890 2b14 42130000 		.4byte	.LASF363
 8891 2b18 522A0000 		.4byte	0x2a52
 8892 2b1c 01       		.byte	0x1
 8893 2b1d B70B0000 		.4byte	.LLST124
 8894 2b21 00       		.byte	0
 8895 2b22 58       		.uleb128 0x58
 8896 2b23 290E0000 		.4byte	0xe29
 8897 2b27 01       		.byte	0x1
 8898 2b28 2602     		.2byte	0x226
 8899 2b2a 00       		.byte	0
 8900 2b2b 332B0000 		.4byte	0x2b33
 8901 2b2f 3E2B0000 		.4byte	0x2b3e
 8902 2b33 3A       		.uleb128 0x3a
 8903 2b34 42130000 		.4byte	.LASF363
 8904 2b38 3E2B0000 		.4byte	0x2b3e
 8905 2b3c 01       		.byte	0x1
 8906 2b3d 00       		.byte	0
 8907 2b3e 13       		.uleb128 0x13
 8908 2b3f 1F0F0000 		.4byte	0xf1f
 8909 2b43 5A       		.uleb128 0x5a
 8910 2b44 222B0000 		.4byte	0x2b22
 8911 2b48 00000000 		.4byte	.LFB106
 8912 2b4c 0C000000 		.4byte	.LFE106
 8913 2b50 CA0B0000 		.4byte	.LLST125
 8914 2b54 5C2B0000 		.4byte	0x2b5c
 8915 2b58 662B0000 		.4byte	0x2b66
 8916 2b5c 57       		.uleb128 0x57
 8917 2b5d 332B0000 		.4byte	0x2b33
 8918 2b61 EA0B0000 		.4byte	.LLST126
 8919 2b65 00       		.byte	0
 8920 2b66 5B       		.uleb128 0x5b
 8921 2b67 460E0000 		.4byte	0xe46
 8922 2b6b 01       		.byte	0x1
 8923 2b6c 2B02     		.2byte	0x22b
 8924 2b6e 00000000 		.4byte	.LFB108
 8925 2b72 04000000 		.4byte	.LFE108
 8926 2b76 02       		.byte	0x2
 8927 2b77 7D       		.byte	0x7d
 8928 2b78 00       		.sleb128 0
ARM GAS  /tmp/ccq01laD.s 			page 162


 8929 2b79 812B0000 		.4byte	0x2b81
 8930 2b7d 902B0000 		.4byte	0x2b90
 8931 2b81 3E       		.uleb128 0x3e
 8932 2b82 42130000 		.4byte	.LASF363
 8933 2b86 3E2B0000 		.4byte	0x2b3e
 8934 2b8a 01       		.byte	0x1
 8935 2b8b 080C0000 		.4byte	.LLST127
 8936 2b8f 00       		.byte	0
 8937 2b90 5B       		.uleb128 0x5b
 8938 2b91 630E0000 		.4byte	0xe63
 8939 2b95 01       		.byte	0x1
 8940 2b96 3002     		.2byte	0x230
 8941 2b98 00000000 		.4byte	.LFB109
 8942 2b9c 04000000 		.4byte	.LFE109
 8943 2ba0 02       		.byte	0x2
 8944 2ba1 7D       		.byte	0x7d
 8945 2ba2 00       		.sleb128 0
 8946 2ba3 AB2B0000 		.4byte	0x2bab
 8947 2ba7 BA2B0000 		.4byte	0x2bba
 8948 2bab 3E       		.uleb128 0x3e
 8949 2bac 42130000 		.4byte	.LASF363
 8950 2bb0 3E2B0000 		.4byte	0x2b3e
 8951 2bb4 01       		.byte	0x1
 8952 2bb5 1B0C0000 		.4byte	.LLST128
 8953 2bb9 00       		.byte	0
 8954 2bba 5B       		.uleb128 0x5b
 8955 2bbb 800E0000 		.4byte	0xe80
 8956 2bbf 01       		.byte	0x1
 8957 2bc0 3502     		.2byte	0x235
 8958 2bc2 00000000 		.4byte	.LFB110
 8959 2bc6 04000000 		.4byte	.LFE110
 8960 2bca 02       		.byte	0x2
 8961 2bcb 7D       		.byte	0x7d
 8962 2bcc 00       		.sleb128 0
 8963 2bcd D52B0000 		.4byte	0x2bd5
 8964 2bd1 E42B0000 		.4byte	0x2be4
 8965 2bd5 3E       		.uleb128 0x3e
 8966 2bd6 42130000 		.4byte	.LASF363
 8967 2bda 3E2B0000 		.4byte	0x2b3e
 8968 2bde 01       		.byte	0x1
 8969 2bdf 2E0C0000 		.4byte	.LLST129
 8970 2be3 00       		.byte	0
 8971 2be4 5B       		.uleb128 0x5b
 8972 2be5 9D0E0000 		.4byte	0xe9d
 8973 2be9 01       		.byte	0x1
 8974 2bea 3A02     		.2byte	0x23a
 8975 2bec 00000000 		.4byte	.LFB111
 8976 2bf0 04000000 		.4byte	.LFE111
 8977 2bf4 02       		.byte	0x2
 8978 2bf5 7D       		.byte	0x7d
 8979 2bf6 00       		.sleb128 0
 8980 2bf7 FF2B0000 		.4byte	0x2bff
 8981 2bfb 0E2C0000 		.4byte	0x2c0e
 8982 2bff 3E       		.uleb128 0x3e
 8983 2c00 42130000 		.4byte	.LASF363
 8984 2c04 3E2B0000 		.4byte	0x2b3e
 8985 2c08 01       		.byte	0x1
ARM GAS  /tmp/ccq01laD.s 			page 163


 8986 2c09 410C0000 		.4byte	.LLST130
 8987 2c0d 00       		.byte	0
 8988 2c0e 5B       		.uleb128 0x5b
 8989 2c0f BA0E0000 		.4byte	0xeba
 8990 2c13 01       		.byte	0x1
 8991 2c14 3F02     		.2byte	0x23f
 8992 2c16 00000000 		.4byte	.LFB112
 8993 2c1a 04000000 		.4byte	.LFE112
 8994 2c1e 02       		.byte	0x2
 8995 2c1f 7D       		.byte	0x7d
 8996 2c20 00       		.sleb128 0
 8997 2c21 292C0000 		.4byte	0x2c29
 8998 2c25 382C0000 		.4byte	0x2c38
 8999 2c29 3E       		.uleb128 0x3e
 9000 2c2a 42130000 		.4byte	.LASF363
 9001 2c2e 3E2B0000 		.4byte	0x2b3e
 9002 2c32 01       		.byte	0x1
 9003 2c33 540C0000 		.4byte	.LLST131
 9004 2c37 00       		.byte	0
 9005 2c38 5B       		.uleb128 0x5b
 9006 2c39 DB0E0000 		.4byte	0xedb
 9007 2c3d 01       		.byte	0x1
 9008 2c3e 4402     		.2byte	0x244
 9009 2c40 00000000 		.4byte	.LFB113
 9010 2c44 04000000 		.4byte	.LFE113
 9011 2c48 02       		.byte	0x2
 9012 2c49 7D       		.byte	0x7d
 9013 2c4a 00       		.sleb128 0
 9014 2c4b 532C0000 		.4byte	0x2c53
 9015 2c4f 622C0000 		.4byte	0x2c62
 9016 2c53 3E       		.uleb128 0x3e
 9017 2c54 42130000 		.4byte	.LASF363
 9018 2c58 3E2B0000 		.4byte	0x2b3e
 9019 2c5c 01       		.byte	0x1
 9020 2c5d 670C0000 		.4byte	.LLST132
 9021 2c61 00       		.byte	0
 9022 2c62 5B       		.uleb128 0x5b
 9023 2c63 FC0E0000 		.4byte	0xefc
 9024 2c67 01       		.byte	0x1
 9025 2c68 4A02     		.2byte	0x24a
 9026 2c6a 00000000 		.4byte	.LFB114
 9027 2c6e 04000000 		.4byte	.LFE114
 9028 2c72 02       		.byte	0x2
 9029 2c73 7D       		.byte	0x7d
 9030 2c74 00       		.sleb128 0
 9031 2c75 7D2C0000 		.4byte	0x2c7d
 9032 2c79 9C2C0000 		.4byte	0x2c9c
 9033 2c7d 3E       		.uleb128 0x3e
 9034 2c7e 42130000 		.4byte	.LASF363
 9035 2c82 3E2B0000 		.4byte	0x2b3e
 9036 2c86 01       		.byte	0x1
 9037 2c87 7A0C0000 		.4byte	.LLST133
 9038 2c8b 40       		.uleb128 0x40
 9039 2c8c 95040000 		.4byte	.LASF366
 9040 2c90 01       		.byte	0x1
 9041 2c91 4A02     		.2byte	0x24a
 9042 2c93 1B010000 		.4byte	0x11b
ARM GAS  /tmp/ccq01laD.s 			page 164


 9043 2c97 8D0C0000 		.4byte	.LLST134
 9044 2c9b 00       		.byte	0
 9045 2c9c 5B       		.uleb128 0x5b
 9046 2c9d 410F0000 		.4byte	0xf41
 9047 2ca1 01       		.byte	0x1
 9048 2ca2 5602     		.2byte	0x256
 9049 2ca4 00000000 		.4byte	.LFB115
 9050 2ca8 04000000 		.4byte	.LFE115
 9051 2cac 02       		.byte	0x2
 9052 2cad 7D       		.byte	0x7d
 9053 2cae 00       		.sleb128 0
 9054 2caf B72C0000 		.4byte	0x2cb7
 9055 2cb3 C62C0000 		.4byte	0x2cc6
 9056 2cb7 3E       		.uleb128 0x3e
 9057 2cb8 42130000 		.4byte	.LASF363
 9058 2cbc C62C0000 		.4byte	0x2cc6
 9059 2cc0 01       		.byte	0x1
 9060 2cc1 A00C0000 		.4byte	.LLST135
 9061 2cc5 00       		.byte	0
 9062 2cc6 13       		.uleb128 0x13
 9063 2cc7 800F0000 		.4byte	0xf80
 9064 2ccb 5B       		.uleb128 0x5b
 9065 2ccc 620F0000 		.4byte	0xf62
 9066 2cd0 01       		.byte	0x1
 9067 2cd1 5B02     		.2byte	0x25b
 9068 2cd3 00000000 		.4byte	.LFB116
 9069 2cd7 04000000 		.4byte	.LFE116
 9070 2cdb 02       		.byte	0x2
 9071 2cdc 7D       		.byte	0x7d
 9072 2cdd 00       		.sleb128 0
 9073 2cde E62C0000 		.4byte	0x2ce6
 9074 2ce2 F52C0000 		.4byte	0x2cf5
 9075 2ce6 3E       		.uleb128 0x3e
 9076 2ce7 42130000 		.4byte	.LASF363
 9077 2ceb C62C0000 		.4byte	0x2cc6
 9078 2cef 01       		.byte	0x1
 9079 2cf0 B30C0000 		.4byte	.LLST136
 9080 2cf4 00       		.byte	0
 9081 2cf5 58       		.uleb128 0x58
 9082 2cf6 A20F0000 		.4byte	0xfa2
 9083 2cfa 01       		.byte	0x1
 9084 2cfb 6302     		.2byte	0x263
 9085 2cfd 00       		.byte	0
 9086 2cfe 062D0000 		.4byte	0x2d06
 9087 2d02 112D0000 		.4byte	0x2d11
 9088 2d06 3A       		.uleb128 0x3a
 9089 2d07 42130000 		.4byte	.LASF363
 9090 2d0b 112D0000 		.4byte	0x2d11
 9091 2d0f 01       		.byte	0x1
 9092 2d10 00       		.byte	0
 9093 2d11 13       		.uleb128 0x13
 9094 2d12 70100000 		.4byte	0x1070
 9095 2d16 4F       		.uleb128 0x4f
 9096 2d17 F52C0000 		.4byte	0x2cf5
 9097 2d1b 00000000 		.4byte	.LFB118
 9098 2d1f 04000000 		.4byte	.LFE118
 9099 2d23 02       		.byte	0x2
ARM GAS  /tmp/ccq01laD.s 			page 165


 9100 2d24 7D       		.byte	0x7d
 9101 2d25 00       		.sleb128 0
 9102 2d26 2E2D0000 		.4byte	0x2d2e
 9103 2d2a 362D0000 		.4byte	0x2d36
 9104 2d2e 42       		.uleb128 0x42
 9105 2d2f 062D0000 		.4byte	0x2d06
 9106 2d33 01       		.byte	0x1
 9107 2d34 50       		.byte	0x50
 9108 2d35 00       		.byte	0
 9109 2d36 5B       		.uleb128 0x5b
 9110 2d37 BF0F0000 		.4byte	0xfbf
 9111 2d3b 01       		.byte	0x1
 9112 2d3c 6802     		.2byte	0x268
 9113 2d3e 00000000 		.4byte	.LFB120
 9114 2d42 0A000000 		.4byte	.LFE120
 9115 2d46 02       		.byte	0x2
 9116 2d47 7D       		.byte	0x7d
 9117 2d48 00       		.sleb128 0
 9118 2d49 512D0000 		.4byte	0x2d51
 9119 2d4d 802D0000 		.4byte	0x2d80
 9120 2d51 3E       		.uleb128 0x3e
 9121 2d52 42130000 		.4byte	.LASF363
 9122 2d56 112D0000 		.4byte	0x2d11
 9123 2d5a 01       		.byte	0x1
 9124 2d5b C60C0000 		.4byte	.LLST137
 9125 2d5f 52       		.uleb128 0x52
 9126 2d60 656C7000 		.ascii	"elp\000"
 9127 2d64 01       		.byte	0x1
 9128 2d65 6802     		.2byte	0x268
 9129 2d67 800F0000 		.4byte	0xf80
 9130 2d6b D90C0000 		.4byte	.LLST138
 9131 2d6f 52       		.uleb128 0x52
 9132 2d70 65696400 		.ascii	"eid\000"
 9133 2d74 01       		.byte	0x1
 9134 2d75 6902     		.2byte	0x269
 9135 2d77 FA000000 		.4byte	0xfa
 9136 2d7b EC0C0000 		.4byte	.LLST139
 9137 2d7f 00       		.byte	0
 9138 2d80 5B       		.uleb128 0x5b
 9139 2d81 E60F0000 		.4byte	0xfe6
 9140 2d85 01       		.byte	0x1
 9141 2d86 6E02     		.2byte	0x26e
 9142 2d88 00000000 		.4byte	.LFB121
 9143 2d8c 04000000 		.4byte	.LFE121
 9144 2d90 02       		.byte	0x2
 9145 2d91 7D       		.byte	0x7d
 9146 2d92 00       		.sleb128 0
 9147 2d93 9B2D0000 		.4byte	0x2d9b
 9148 2d97 CA2D0000 		.4byte	0x2dca
 9149 2d9b 3E       		.uleb128 0x3e
 9150 2d9c 42130000 		.4byte	.LASF363
 9151 2da0 112D0000 		.4byte	0x2d11
 9152 2da4 01       		.byte	0x1
 9153 2da5 FF0C0000 		.4byte	.LLST140
 9154 2da9 52       		.uleb128 0x52
 9155 2daa 656C7000 		.ascii	"elp\000"
 9156 2dae 01       		.byte	0x1
ARM GAS  /tmp/ccq01laD.s 			page 166


 9157 2daf 6E02     		.2byte	0x26e
 9158 2db1 800F0000 		.4byte	0xf80
 9159 2db5 120D0000 		.4byte	.LLST141
 9160 2db9 40       		.uleb128 0x40
 9161 2dba EB160000 		.4byte	.LASF376
 9162 2dbe 01       		.byte	0x1
 9163 2dbf 6F02     		.2byte	0x26f
 9164 2dc1 05010000 		.4byte	0x105
 9165 2dc5 250D0000 		.4byte	.LLST142
 9166 2dc9 00       		.byte	0
 9167 2dca 5B       		.uleb128 0x5b
 9168 2dcb 0D100000 		.4byte	0x100d
 9169 2dcf 01       		.byte	0x1
 9170 2dd0 7402     		.2byte	0x274
 9171 2dd2 00000000 		.4byte	.LFB122
 9172 2dd6 04000000 		.4byte	.LFE122
 9173 2dda 02       		.byte	0x2
 9174 2ddb 7D       		.byte	0x7d
 9175 2ddc 00       		.sleb128 0
 9176 2ddd E52D0000 		.4byte	0x2de5
 9177 2de1 042E0000 		.4byte	0x2e04
 9178 2de5 3E       		.uleb128 0x3e
 9179 2de6 42130000 		.4byte	.LASF363
 9180 2dea 112D0000 		.4byte	0x2d11
 9181 2dee 01       		.byte	0x1
 9182 2def 380D0000 		.4byte	.LLST143
 9183 2df3 52       		.uleb128 0x52
 9184 2df4 656C7000 		.ascii	"elp\000"
 9185 2df8 01       		.byte	0x1
 9186 2df9 7402     		.2byte	0x274
 9187 2dfb 800F0000 		.4byte	0xf80
 9188 2dff 4B0D0000 		.4byte	.LLST144
 9189 2e03 00       		.byte	0
 9190 2e04 5B       		.uleb128 0x5b
 9191 2e05 2F100000 		.4byte	0x102f
 9192 2e09 01       		.byte	0x1
 9193 2e0a 7902     		.2byte	0x279
 9194 2e0c 00000000 		.4byte	.LFB123
 9195 2e10 04000000 		.4byte	.LFE123
 9196 2e14 02       		.byte	0x2
 9197 2e15 7D       		.byte	0x7d
 9198 2e16 00       		.sleb128 0
 9199 2e17 1F2E0000 		.4byte	0x2e1f
 9200 2e1b 3E2E0000 		.4byte	0x2e3e
 9201 2e1f 3E       		.uleb128 0x3e
 9202 2e20 42130000 		.4byte	.LASF363
 9203 2e24 112D0000 		.4byte	0x2d11
 9204 2e28 01       		.byte	0x1
 9205 2e29 5E0D0000 		.4byte	.LLST145
 9206 2e2d 40       		.uleb128 0x40
 9207 2e2e 7D0B0000 		.4byte	.LASF377
 9208 2e32 01       		.byte	0x1
 9209 2e33 7902     		.2byte	0x279
 9210 2e35 10010000 		.4byte	0x110
 9211 2e39 710D0000 		.4byte	.LLST146
 9212 2e3d 00       		.byte	0
 9213 2e3e 5B       		.uleb128 0x5b
ARM GAS  /tmp/ccq01laD.s 			page 167


 9214 2e3f 51100000 		.4byte	0x1051
 9215 2e43 01       		.byte	0x1
 9216 2e44 7E02     		.2byte	0x27e
 9217 2e46 00000000 		.4byte	.LFB124
 9218 2e4a 04000000 		.4byte	.LFE124
 9219 2e4e 02       		.byte	0x2
 9220 2e4f 7D       		.byte	0x7d
 9221 2e50 00       		.sleb128 0
 9222 2e51 592E0000 		.4byte	0x2e59
 9223 2e55 782E0000 		.4byte	0x2e78
 9224 2e59 3E       		.uleb128 0x3e
 9225 2e5a 42130000 		.4byte	.LASF363
 9226 2e5e 112D0000 		.4byte	0x2d11
 9227 2e62 01       		.byte	0x1
 9228 2e63 840D0000 		.4byte	.LLST147
 9229 2e67 40       		.uleb128 0x40
 9230 2e68 7D0B0000 		.4byte	.LASF377
 9231 2e6c 01       		.byte	0x1
 9232 2e6d 7E02     		.2byte	0x27e
 9233 2e6f 10010000 		.4byte	0x110
 9234 2e73 970D0000 		.4byte	.LLST148
 9235 2e77 00       		.byte	0
 9236 2e78 58       		.uleb128 0x58
 9237 2e79 92100000 		.4byte	0x1092
 9238 2e7d 01       		.byte	0x1
 9239 2e7e 8802     		.2byte	0x288
 9240 2e80 00       		.byte	0
 9241 2e81 892E0000 		.4byte	0x2e89
 9242 2e85 C32E0000 		.4byte	0x2ec3
 9243 2e89 3A       		.uleb128 0x3a
 9244 2e8a 42130000 		.4byte	.LASF363
 9245 2e8e C32E0000 		.4byte	0x2ec3
 9246 2e92 01       		.byte	0x1
 9247 2e93 59       		.uleb128 0x59
 9248 2e94 627000   		.ascii	"bp\000"
 9249 2e97 01       		.byte	0x1
 9250 2e98 8802     		.2byte	0x288
 9251 2e9a 38080000 		.4byte	0x838
 9252 2e9e 5D       		.uleb128 0x5d
 9253 2e9f 9C100000 		.4byte	.LASF365
 9254 2ea3 01       		.byte	0x1
 9255 2ea4 8802     		.2byte	0x288
 9256 2ea6 30000000 		.4byte	0x30
 9257 2eaa 5D       		.uleb128 0x5d
 9258 2eab 9F110000 		.4byte	.LASF378
 9259 2eaf 01       		.byte	0x1
 9260 2eb0 8802     		.2byte	0x288
 9261 2eb2 16080000 		.4byte	0x816
 9262 2eb6 5D       		.uleb128 0x5d
 9263 2eb7 1F190000 		.4byte	.LASF379
 9264 2ebb 01       		.byte	0x1
 9265 2ebc 8802     		.2byte	0x288
 9266 2ebe 0F030000 		.4byte	0x30f
 9267 2ec2 00       		.byte	0
 9268 2ec3 13       		.uleb128 0x13
 9269 2ec4 FE110000 		.4byte	0x11fe
 9270 2ec8 5A       		.uleb128 0x5a
ARM GAS  /tmp/ccq01laD.s 			page 168


 9271 2ec9 782E0000 		.4byte	0x2e78
 9272 2ecd 00000000 		.4byte	.LFB126
 9273 2ed1 16000000 		.4byte	.LFE126
 9274 2ed5 AA0D0000 		.4byte	.LLST149
 9275 2ed9 E12E0000 		.4byte	0x2ee1
 9276 2edd 0E2F0000 		.4byte	0x2f0e
 9277 2ee1 57       		.uleb128 0x57
 9278 2ee2 892E0000 		.4byte	0x2e89
 9279 2ee6 D60D0000 		.4byte	.LLST150
 9280 2eea 57       		.uleb128 0x57
 9281 2eeb 932E0000 		.4byte	0x2e93
 9282 2eef F40D0000 		.4byte	.LLST151
 9283 2ef3 57       		.uleb128 0x57
 9284 2ef4 9E2E0000 		.4byte	0x2e9e
 9285 2ef8 070E0000 		.4byte	.LLST152
 9286 2efc 57       		.uleb128 0x57
 9287 2efd AA2E0000 		.4byte	0x2eaa
 9288 2f01 1A0E0000 		.4byte	.LLST153
 9289 2f05 42       		.uleb128 0x42
 9290 2f06 B62E0000 		.4byte	0x2eb6
 9291 2f0a 02       		.byte	0x2
 9292 2f0b 91       		.byte	0x91
 9293 2f0c 00       		.sleb128 0
 9294 2f0d 00       		.byte	0
 9295 2f0e 5B       		.uleb128 0x5b
 9296 2f0f C3100000 		.4byte	0x10c3
 9297 2f13 01       		.byte	0x1
 9298 2f14 8D02     		.2byte	0x28d
 9299 2f16 00000000 		.4byte	.LFB128
 9300 2f1a 04000000 		.4byte	.LFE128
 9301 2f1e 02       		.byte	0x2
 9302 2f1f 7D       		.byte	0x7d
 9303 2f20 00       		.sleb128 0
 9304 2f21 292F0000 		.4byte	0x2f29
 9305 2f25 382F0000 		.4byte	0x2f38
 9306 2f29 3E       		.uleb128 0x3e
 9307 2f2a 42130000 		.4byte	.LASF363
 9308 2f2e C32E0000 		.4byte	0x2ec3
 9309 2f32 01       		.byte	0x1
 9310 2f33 2D0E0000 		.4byte	.LLST154
 9311 2f37 00       		.byte	0
 9312 2f38 5B       		.uleb128 0x5b
 9313 2f39 E4100000 		.4byte	0x10e4
 9314 2f3d 01       		.byte	0x1
 9315 2f3e 9202     		.2byte	0x292
 9316 2f40 00000000 		.4byte	.LFB129
 9317 2f44 0C000000 		.4byte	.LFE129
 9318 2f48 02       		.byte	0x2
 9319 2f49 7D       		.byte	0x7d
 9320 2f4a 00       		.sleb128 0
 9321 2f4b 532F0000 		.4byte	0x2f53
 9322 2f4f 622F0000 		.4byte	0x2f62
 9323 2f53 3E       		.uleb128 0x3e
 9324 2f54 42130000 		.4byte	.LASF363
 9325 2f58 C32E0000 		.4byte	0x2ec3
 9326 2f5c 01       		.byte	0x1
 9327 2f5d 400E0000 		.4byte	.LLST155
ARM GAS  /tmp/ccq01laD.s 			page 169


 9328 2f61 00       		.byte	0
 9329 2f62 5B       		.uleb128 0x5b
 9330 2f63 05110000 		.4byte	0x1105
 9331 2f67 01       		.byte	0x1
 9332 2f68 9702     		.2byte	0x297
 9333 2f6a 00000000 		.4byte	.LFB130
 9334 2f6e 0C000000 		.4byte	.LFE130
 9335 2f72 02       		.byte	0x2
 9336 2f73 7D       		.byte	0x7d
 9337 2f74 00       		.sleb128 0
 9338 2f75 7D2F0000 		.4byte	0x2f7d
 9339 2f79 8C2F0000 		.4byte	0x2f8c
 9340 2f7d 3E       		.uleb128 0x3e
 9341 2f7e 42130000 		.4byte	.LASF363
 9342 2f82 C32E0000 		.4byte	0x2ec3
 9343 2f86 01       		.byte	0x1
 9344 2f87 530E0000 		.4byte	.LLST156
 9345 2f8b 00       		.byte	0
 9346 2f8c 5B       		.uleb128 0x5b
 9347 2f8d 26110000 		.4byte	0x1126
 9348 2f91 01       		.byte	0x1
 9349 2f92 9C02     		.2byte	0x29c
 9350 2f94 00000000 		.4byte	.LFB131
 9351 2f98 16000000 		.4byte	.LFE131
 9352 2f9c 02       		.byte	0x2
 9353 2f9d 7D       		.byte	0x7d
 9354 2f9e 00       		.sleb128 0
 9355 2f9f A72F0000 		.4byte	0x2fa7
 9356 2fa3 B62F0000 		.4byte	0x2fb6
 9357 2fa7 3E       		.uleb128 0x3e
 9358 2fa8 42130000 		.4byte	.LASF363
 9359 2fac C32E0000 		.4byte	0x2ec3
 9360 2fb0 01       		.byte	0x1
 9361 2fb1 660E0000 		.4byte	.LLST157
 9362 2fb5 00       		.byte	0
 9363 2fb6 5B       		.uleb128 0x5b
 9364 2fb7 47110000 		.4byte	0x1147
 9365 2fbb 01       		.byte	0x1
 9366 2fbc A102     		.2byte	0x2a1
 9367 2fbe 00000000 		.4byte	.LFB132
 9368 2fc2 04000000 		.4byte	.LFE132
 9369 2fc6 02       		.byte	0x2
 9370 2fc7 7D       		.byte	0x7d
 9371 2fc8 00       		.sleb128 0
 9372 2fc9 D12F0000 		.4byte	0x2fd1
 9373 2fcd E02F0000 		.4byte	0x2fe0
 9374 2fd1 3E       		.uleb128 0x3e
 9375 2fd2 42130000 		.4byte	.LASF363
 9376 2fd6 C32E0000 		.4byte	0x2ec3
 9377 2fda 01       		.byte	0x1
 9378 2fdb 840E0000 		.4byte	.LLST158
 9379 2fdf 00       		.byte	0
 9380 2fe0 5B       		.uleb128 0x5b
 9381 2fe1 64110000 		.4byte	0x1164
 9382 2fe5 01       		.byte	0x1
 9383 2fe6 A602     		.2byte	0x2a6
 9384 2fe8 00000000 		.4byte	.LFB133
ARM GAS  /tmp/ccq01laD.s 			page 170


 9385 2fec 04000000 		.4byte	.LFE133
 9386 2ff0 02       		.byte	0x2
 9387 2ff1 7D       		.byte	0x7d
 9388 2ff2 00       		.sleb128 0
 9389 2ff3 FB2F0000 		.4byte	0x2ffb
 9390 2ff7 18300000 		.4byte	0x3018
 9391 2ffb 3E       		.uleb128 0x3e
 9392 2ffc 42130000 		.4byte	.LASF363
 9393 3000 C32E0000 		.4byte	0x2ec3
 9394 3004 01       		.byte	0x1
 9395 3005 970E0000 		.4byte	.LLST159
 9396 3009 52       		.uleb128 0x52
 9397 300a 6200     		.ascii	"b\000"
 9398 300c 01       		.byte	0x1
 9399 300d A602     		.2byte	0x2a6
 9400 300f 49000000 		.4byte	0x49
 9401 3013 AA0E0000 		.4byte	.LLST160
 9402 3017 00       		.byte	0
 9403 3018 5B       		.uleb128 0x5b
 9404 3019 8A110000 		.4byte	0x118a
 9405 301d 01       		.byte	0x1
 9406 301e AB02     		.2byte	0x2ab
 9407 3020 00000000 		.4byte	.LFB134
 9408 3024 08000000 		.4byte	.LFE134
 9409 3028 02       		.byte	0x2
 9410 3029 7D       		.byte	0x7d
 9411 302a 00       		.sleb128 0
 9412 302b 33300000 		.4byte	0x3033
 9413 302f 42300000 		.4byte	0x3042
 9414 3033 3E       		.uleb128 0x3e
 9415 3034 42130000 		.4byte	.LASF363
 9416 3038 C32E0000 		.4byte	0x2ec3
 9417 303c 01       		.byte	0x1
 9418 303d BD0E0000 		.4byte	.LLST161
 9419 3041 00       		.byte	0
 9420 3042 5B       		.uleb128 0x5b
 9421 3043 AB110000 		.4byte	0x11ab
 9422 3047 01       		.byte	0x1
 9423 3048 B002     		.2byte	0x2b0
 9424 304a 00000000 		.4byte	.LFB135
 9425 304e 04000000 		.4byte	.LFE135
 9426 3052 02       		.byte	0x2
 9427 3053 7D       		.byte	0x7d
 9428 3054 00       		.sleb128 0
 9429 3055 5D300000 		.4byte	0x305d
 9430 3059 7C300000 		.4byte	0x307c
 9431 305d 3E       		.uleb128 0x3e
 9432 305e 42130000 		.4byte	.LASF363
 9433 3062 C32E0000 		.4byte	0x2ec3
 9434 3066 01       		.byte	0x1
 9435 3067 D00E0000 		.4byte	.LLST162
 9436 306b 40       		.uleb128 0x40
 9437 306c 95040000 		.4byte	.LASF366
 9438 3070 01       		.byte	0x1
 9439 3071 B002     		.2byte	0x2b0
 9440 3073 1B010000 		.4byte	0x11b
 9441 3077 E30E0000 		.4byte	.LLST163
ARM GAS  /tmp/ccq01laD.s 			page 171


 9442 307b 00       		.byte	0
 9443 307c 5B       		.uleb128 0x5b
 9444 307d D1110000 		.4byte	0x11d1
 9445 3081 01       		.byte	0x1
 9446 3082 B502     		.2byte	0x2b5
 9447 3084 00000000 		.4byte	.LFB136
 9448 3088 04000000 		.4byte	.LFE136
 9449 308c 02       		.byte	0x2
 9450 308d 7D       		.byte	0x7d
 9451 308e 00       		.sleb128 0
 9452 308f 97300000 		.4byte	0x3097
 9453 3093 D3300000 		.4byte	0x30d3
 9454 3097 3E       		.uleb128 0x3e
 9455 3098 42130000 		.4byte	.LASF363
 9456 309c C32E0000 		.4byte	0x2ec3
 9457 30a0 01       		.byte	0x1
 9458 30a1 F60E0000 		.4byte	.LLST164
 9459 30a5 52       		.uleb128 0x52
 9460 30a6 627000   		.ascii	"bp\000"
 9461 30a9 01       		.byte	0x1
 9462 30aa B502     		.2byte	0x2b5
 9463 30ac 38080000 		.4byte	0x838
 9464 30b0 090F0000 		.4byte	.LLST165
 9465 30b4 52       		.uleb128 0x52
 9466 30b5 6E00     		.ascii	"n\000"
 9467 30b7 01       		.byte	0x1
 9468 30b8 B502     		.2byte	0x2b5
 9469 30ba 30000000 		.4byte	0x30
 9470 30be 1C0F0000 		.4byte	.LLST166
 9471 30c2 40       		.uleb128 0x40
 9472 30c3 95040000 		.4byte	.LASF366
 9473 30c7 01       		.byte	0x1
 9474 30c8 B502     		.2byte	0x2b5
 9475 30ca 1B010000 		.4byte	0x11b
 9476 30ce 2F0F0000 		.4byte	.LLST167
 9477 30d2 00       		.byte	0
 9478 30d3 58       		.uleb128 0x58
 9479 30d4 20120000 		.4byte	0x1220
 9480 30d8 01       		.byte	0x1
 9481 30d9 BD02     		.2byte	0x2bd
 9482 30db 00       		.byte	0
 9483 30dc E4300000 		.4byte	0x30e4
 9484 30e0 1E310000 		.4byte	0x311e
 9485 30e4 3A       		.uleb128 0x3a
 9486 30e5 42130000 		.4byte	.LASF363
 9487 30e9 1E310000 		.4byte	0x311e
 9488 30ed 01       		.byte	0x1
 9489 30ee 59       		.uleb128 0x59
 9490 30ef 627000   		.ascii	"bp\000"
 9491 30f2 01       		.byte	0x1
 9492 30f3 BD02     		.2byte	0x2bd
 9493 30f5 38080000 		.4byte	0x838
 9494 30f9 5D       		.uleb128 0x5d
 9495 30fa 9C100000 		.4byte	.LASF365
 9496 30fe 01       		.byte	0x1
 9497 30ff BD02     		.2byte	0x2bd
 9498 3101 30000000 		.4byte	0x30
ARM GAS  /tmp/ccq01laD.s 			page 172


 9499 3105 5D       		.uleb128 0x5d
 9500 3106 E7010000 		.4byte	.LASF380
 9501 310a 01       		.byte	0x1
 9502 310b BD02     		.2byte	0x2bd
 9503 310d 16080000 		.4byte	0x816
 9504 3111 5D       		.uleb128 0x5d
 9505 3112 1F190000 		.4byte	.LASF379
 9506 3116 01       		.byte	0x1
 9507 3117 BD02     		.2byte	0x2bd
 9508 3119 0F030000 		.4byte	0x30f
 9509 311d 00       		.byte	0
 9510 311e 13       		.uleb128 0x13
 9511 311f 91130000 		.4byte	0x1391
 9512 3123 5A       		.uleb128 0x5a
 9513 3124 D3300000 		.4byte	0x30d3
 9514 3128 00000000 		.4byte	.LFB138
 9515 312c 16000000 		.4byte	.LFE138
 9516 3130 420F0000 		.4byte	.LLST168
 9517 3134 3C310000 		.4byte	0x313c
 9518 3138 69310000 		.4byte	0x3169
 9519 313c 57       		.uleb128 0x57
 9520 313d E4300000 		.4byte	0x30e4
 9521 3141 6E0F0000 		.4byte	.LLST169
 9522 3145 57       		.uleb128 0x57
 9523 3146 EE300000 		.4byte	0x30ee
 9524 314a 8C0F0000 		.4byte	.LLST170
 9525 314e 57       		.uleb128 0x57
 9526 314f F9300000 		.4byte	0x30f9
 9527 3153 9F0F0000 		.4byte	.LLST171
 9528 3157 57       		.uleb128 0x57
 9529 3158 05310000 		.4byte	0x3105
 9530 315c B20F0000 		.4byte	.LLST172
 9531 3160 42       		.uleb128 0x42
 9532 3161 11310000 		.4byte	0x3111
 9533 3165 02       		.byte	0x2
 9534 3166 91       		.byte	0x91
 9535 3167 00       		.sleb128 0
 9536 3168 00       		.byte	0
 9537 3169 5B       		.uleb128 0x5b
 9538 316a 51120000 		.4byte	0x1251
 9539 316e 01       		.byte	0x1
 9540 316f C202     		.2byte	0x2c2
 9541 3171 00000000 		.4byte	.LFB140
 9542 3175 0C000000 		.4byte	.LFE140
 9543 3179 02       		.byte	0x2
 9544 317a 7D       		.byte	0x7d
 9545 317b 00       		.sleb128 0
 9546 317c 84310000 		.4byte	0x3184
 9547 3180 93310000 		.4byte	0x3193
 9548 3184 3E       		.uleb128 0x3e
 9549 3185 42130000 		.4byte	.LASF363
 9550 3189 1E310000 		.4byte	0x311e
 9551 318d 01       		.byte	0x1
 9552 318e C50F0000 		.4byte	.LLST173
 9553 3192 00       		.byte	0
 9554 3193 5B       		.uleb128 0x5b
 9555 3194 72120000 		.4byte	0x1272
ARM GAS  /tmp/ccq01laD.s 			page 173


 9556 3198 01       		.byte	0x1
 9557 3199 C702     		.2byte	0x2c7
 9558 319b 00000000 		.4byte	.LFB141
 9559 319f 04000000 		.4byte	.LFE141
 9560 31a3 02       		.byte	0x2
 9561 31a4 7D       		.byte	0x7d
 9562 31a5 00       		.sleb128 0
 9563 31a6 AE310000 		.4byte	0x31ae
 9564 31aa BD310000 		.4byte	0x31bd
 9565 31ae 3E       		.uleb128 0x3e
 9566 31af 42130000 		.4byte	.LASF363
 9567 31b3 1E310000 		.4byte	0x311e
 9568 31b7 01       		.byte	0x1
 9569 31b8 D80F0000 		.4byte	.LLST174
 9570 31bc 00       		.byte	0
 9571 31bd 5B       		.uleb128 0x5b
 9572 31be 93120000 		.4byte	0x1293
 9573 31c2 01       		.byte	0x1
 9574 31c3 CC02     		.2byte	0x2cc
 9575 31c5 00000000 		.4byte	.LFB142
 9576 31c9 16000000 		.4byte	.LFE142
 9577 31cd 02       		.byte	0x2
 9578 31ce 7D       		.byte	0x7d
 9579 31cf 00       		.sleb128 0
 9580 31d0 D8310000 		.4byte	0x31d8
 9581 31d4 E7310000 		.4byte	0x31e7
 9582 31d8 3E       		.uleb128 0x3e
 9583 31d9 42130000 		.4byte	.LASF363
 9584 31dd 1E310000 		.4byte	0x311e
 9585 31e1 01       		.byte	0x1
 9586 31e2 EB0F0000 		.4byte	.LLST175
 9587 31e6 00       		.byte	0
 9588 31e7 5B       		.uleb128 0x5b
 9589 31e8 B4120000 		.4byte	0x12b4
 9590 31ec 01       		.byte	0x1
 9591 31ed D102     		.2byte	0x2d1
 9592 31ef 00000000 		.4byte	.LFB143
 9593 31f3 0C000000 		.4byte	.LFE143
 9594 31f7 02       		.byte	0x2
 9595 31f8 7D       		.byte	0x7d
 9596 31f9 00       		.sleb128 0
 9597 31fa 02320000 		.4byte	0x3202
 9598 31fe 11320000 		.4byte	0x3211
 9599 3202 3E       		.uleb128 0x3e
 9600 3203 42130000 		.4byte	.LASF363
 9601 3207 1E310000 		.4byte	0x311e
 9602 320b 01       		.byte	0x1
 9603 320c 09100000 		.4byte	.LLST176
 9604 3210 00       		.byte	0
 9605 3211 5B       		.uleb128 0x5b
 9606 3212 D5120000 		.4byte	0x12d5
 9607 3216 01       		.byte	0x1
 9608 3217 D602     		.2byte	0x2d6
 9609 3219 00000000 		.4byte	.LFB144
 9610 321d 04000000 		.4byte	.LFE144
 9611 3221 02       		.byte	0x2
 9612 3222 7D       		.byte	0x7d
ARM GAS  /tmp/ccq01laD.s 			page 174


 9613 3223 00       		.sleb128 0
 9614 3224 2C320000 		.4byte	0x322c
 9615 3228 3B320000 		.4byte	0x323b
 9616 322c 3E       		.uleb128 0x3e
 9617 322d 42130000 		.4byte	.LASF363
 9618 3231 1E310000 		.4byte	0x311e
 9619 3235 01       		.byte	0x1
 9620 3236 1C100000 		.4byte	.LLST177
 9621 323a 00       		.byte	0
 9622 323b 5B       		.uleb128 0x5b
 9623 323c F2120000 		.4byte	0x12f2
 9624 3240 01       		.byte	0x1
 9625 3241 DB02     		.2byte	0x2db
 9626 3243 00000000 		.4byte	.LFB145
 9627 3247 08000000 		.4byte	.LFE145
 9628 324b 02       		.byte	0x2
 9629 324c 7D       		.byte	0x7d
 9630 324d 00       		.sleb128 0
 9631 324e 56320000 		.4byte	0x3256
 9632 3252 73320000 		.4byte	0x3273
 9633 3256 3E       		.uleb128 0x3e
 9634 3257 42130000 		.4byte	.LASF363
 9635 325b 1E310000 		.4byte	0x311e
 9636 325f 01       		.byte	0x1
 9637 3260 2F100000 		.4byte	.LLST178
 9638 3264 52       		.uleb128 0x52
 9639 3265 6200     		.ascii	"b\000"
 9640 3267 01       		.byte	0x1
 9641 3268 DB02     		.2byte	0x2db
 9642 326a 49000000 		.4byte	0x49
 9643 326e 42100000 		.4byte	.LLST179
 9644 3272 00       		.byte	0
 9645 3273 5B       		.uleb128 0x5b
 9646 3274 18130000 		.4byte	0x1318
 9647 3278 01       		.byte	0x1
 9648 3279 E002     		.2byte	0x2e0
 9649 327b 00000000 		.4byte	.LFB146
 9650 327f 04000000 		.4byte	.LFE146
 9651 3283 02       		.byte	0x2
 9652 3284 7D       		.byte	0x7d
 9653 3285 00       		.sleb128 0
 9654 3286 8E320000 		.4byte	0x328e
 9655 328a BB320000 		.4byte	0x32bb
 9656 328e 3E       		.uleb128 0x3e
 9657 328f 42130000 		.4byte	.LASF363
 9658 3293 1E310000 		.4byte	0x311e
 9659 3297 01       		.byte	0x1
 9660 3298 55100000 		.4byte	.LLST180
 9661 329c 52       		.uleb128 0x52
 9662 329d 6200     		.ascii	"b\000"
 9663 329f 01       		.byte	0x1
 9664 32a0 E002     		.2byte	0x2e0
 9665 32a2 49000000 		.4byte	0x49
 9666 32a6 68100000 		.4byte	.LLST181
 9667 32aa 40       		.uleb128 0x40
 9668 32ab 95040000 		.4byte	.LASF366
 9669 32af 01       		.byte	0x1
ARM GAS  /tmp/ccq01laD.s 			page 175


 9670 32b0 E002     		.2byte	0x2e0
 9671 32b2 1B010000 		.4byte	0x11b
 9672 32b6 7B100000 		.4byte	.LLST182
 9673 32ba 00       		.byte	0
 9674 32bb 5B       		.uleb128 0x5b
 9675 32bc 43130000 		.4byte	0x1343
 9676 32c0 01       		.byte	0x1
 9677 32c1 E502     		.2byte	0x2e5
 9678 32c3 00000000 		.4byte	.LFB147
 9679 32c7 04000000 		.4byte	.LFE147
 9680 32cb 02       		.byte	0x2
 9681 32cc 7D       		.byte	0x7d
 9682 32cd 00       		.sleb128 0
 9683 32ce D6320000 		.4byte	0x32d6
 9684 32d2 E5320000 		.4byte	0x32e5
 9685 32d6 3E       		.uleb128 0x3e
 9686 32d7 42130000 		.4byte	.LASF363
 9687 32db 1E310000 		.4byte	0x311e
 9688 32df 01       		.byte	0x1
 9689 32e0 8E100000 		.4byte	.LLST183
 9690 32e4 00       		.byte	0
 9691 32e5 5B       		.uleb128 0x5b
 9692 32e6 64130000 		.4byte	0x1364
 9693 32ea 01       		.byte	0x1
 9694 32eb EA02     		.2byte	0x2ea
 9695 32ed 00000000 		.4byte	.LFB148
 9696 32f1 04000000 		.4byte	.LFE148
 9697 32f5 02       		.byte	0x2
 9698 32f6 7D       		.byte	0x7d
 9699 32f7 00       		.sleb128 0
 9700 32f8 00330000 		.4byte	0x3300
 9701 32fc 3C330000 		.4byte	0x333c
 9702 3300 3E       		.uleb128 0x3e
 9703 3301 42130000 		.4byte	.LASF363
 9704 3305 1E310000 		.4byte	0x311e
 9705 3309 01       		.byte	0x1
 9706 330a A1100000 		.4byte	.LLST184
 9707 330e 52       		.uleb128 0x52
 9708 330f 627000   		.ascii	"bp\000"
 9709 3312 01       		.byte	0x1
 9710 3313 EA02     		.2byte	0x2ea
 9711 3315 54080000 		.4byte	0x854
 9712 3319 B4100000 		.4byte	.LLST185
 9713 331d 52       		.uleb128 0x52
 9714 331e 6E00     		.ascii	"n\000"
 9715 3320 01       		.byte	0x1
 9716 3321 EA02     		.2byte	0x2ea
 9717 3323 30000000 		.4byte	0x30
 9718 3327 C7100000 		.4byte	.LLST186
 9719 332b 40       		.uleb128 0x40
 9720 332c 95040000 		.4byte	.LASF366
 9721 3330 01       		.byte	0x1
 9722 3331 EB02     		.2byte	0x2eb
 9723 3333 1B010000 		.4byte	0x11b
 9724 3337 DA100000 		.4byte	.LLST187
 9725 333b 00       		.byte	0
 9726 333c 58       		.uleb128 0x58
ARM GAS  /tmp/ccq01laD.s 			page 176


 9727 333d B2130000 		.4byte	0x13b2
 9728 3341 01       		.byte	0x1
 9729 3342 F502     		.2byte	0x2f5
 9730 3344 00       		.byte	0
 9731 3345 4D330000 		.4byte	0x334d
 9732 3349 6E330000 		.4byte	0x336e
 9733 334d 3A       		.uleb128 0x3a
 9734 334e 42130000 		.4byte	.LASF363
 9735 3352 6E330000 		.4byte	0x336e
 9736 3356 01       		.byte	0x1
 9737 3357 59       		.uleb128 0x59
 9738 3358 62756600 		.ascii	"buf\000"
 9739 335c 01       		.byte	0x1
 9740 335d F502     		.2byte	0x2f5
 9741 335f D0060000 		.4byte	0x6d0
 9742 3363 59       		.uleb128 0x59
 9743 3364 6E00     		.ascii	"n\000"
 9744 3366 01       		.byte	0x1
 9745 3367 F502     		.2byte	0x2f5
 9746 3369 26010000 		.4byte	0x126
 9747 336d 00       		.byte	0
 9748 336e 13       		.uleb128 0x13
 9749 336f A9150000 		.4byte	0x15a9
 9750 3373 5A       		.uleb128 0x5a
 9751 3374 3C330000 		.4byte	0x333c
 9752 3378 00000000 		.4byte	.LFB150
 9753 337c 0C000000 		.4byte	.LFE150
 9754 3380 ED100000 		.4byte	.LLST188
 9755 3384 8C330000 		.4byte	0x338c
 9756 3388 A8330000 		.4byte	0x33a8
 9757 338c 57       		.uleb128 0x57
 9758 338d 4D330000 		.4byte	0x334d
 9759 3391 0D110000 		.4byte	.LLST189
 9760 3395 57       		.uleb128 0x57
 9761 3396 57330000 		.4byte	0x3357
 9762 339a 2B110000 		.4byte	.LLST190
 9763 339e 57       		.uleb128 0x57
 9764 339f 63330000 		.4byte	0x3363
 9765 33a3 3E110000 		.4byte	.LLST191
 9766 33a7 00       		.byte	0
 9767 33a8 5B       		.uleb128 0x5b
 9768 33a9 D9130000 		.4byte	0x13d9
 9769 33ad 01       		.byte	0x1
 9770 33ae FA02     		.2byte	0x2fa
 9771 33b0 00000000 		.4byte	.LFB152
 9772 33b4 04000000 		.4byte	.LFE152
 9773 33b8 02       		.byte	0x2
 9774 33b9 7D       		.byte	0x7d
 9775 33ba 00       		.sleb128 0
 9776 33bb C3330000 		.4byte	0x33c3
 9777 33bf D2330000 		.4byte	0x33d2
 9778 33c3 3E       		.uleb128 0x3e
 9779 33c4 42130000 		.4byte	.LASF363
 9780 33c8 6E330000 		.4byte	0x336e
 9781 33cc 01       		.byte	0x1
 9782 33cd 51110000 		.4byte	.LLST192
 9783 33d1 00       		.byte	0
ARM GAS  /tmp/ccq01laD.s 			page 177


 9784 33d2 5B       		.uleb128 0x5b
 9785 33d3 F6130000 		.4byte	0x13f6
 9786 33d7 01       		.byte	0x1
 9787 33d8 FF02     		.2byte	0x2ff
 9788 33da 00000000 		.4byte	.LFB153
 9789 33de 04000000 		.4byte	.LFE153
 9790 33e2 02       		.byte	0x2
 9791 33e3 7D       		.byte	0x7d
 9792 33e4 00       		.sleb128 0
 9793 33e5 ED330000 		.4byte	0x33ed
 9794 33e9 1C340000 		.4byte	0x341c
 9795 33ed 3E       		.uleb128 0x3e
 9796 33ee 42130000 		.4byte	.LASF363
 9797 33f2 6E330000 		.4byte	0x336e
 9798 33f6 01       		.byte	0x1
 9799 33f7 64110000 		.4byte	.LLST193
 9800 33fb 52       		.uleb128 0x52
 9801 33fc 6D736700 		.ascii	"msg\000"
 9802 3400 01       		.byte	0x1
 9803 3401 FF02     		.2byte	0x2ff
 9804 3403 EF000000 		.4byte	0xef
 9805 3407 77110000 		.4byte	.LLST194
 9806 340b 40       		.uleb128 0x40
 9807 340c 95040000 		.4byte	.LASF366
 9808 3410 01       		.byte	0x1
 9809 3411 FF02     		.2byte	0x2ff
 9810 3413 1B010000 		.4byte	0x11b
 9811 3417 8A110000 		.4byte	.LLST195
 9812 341b 00       		.byte	0
 9813 341c 5B       		.uleb128 0x5b
 9814 341d 21140000 		.4byte	0x1421
 9815 3421 01       		.byte	0x1
 9816 3422 0403     		.2byte	0x304
 9817 3424 00000000 		.4byte	.LFB154
 9818 3428 04000000 		.4byte	.LFE154
 9819 342c 02       		.byte	0x2
 9820 342d 7D       		.byte	0x7d
 9821 342e 00       		.sleb128 0
 9822 342f 37340000 		.4byte	0x3437
 9823 3433 66340000 		.4byte	0x3466
 9824 3437 3E       		.uleb128 0x3e
 9825 3438 42130000 		.4byte	.LASF363
 9826 343c 6E330000 		.4byte	0x336e
 9827 3440 01       		.byte	0x1
 9828 3441 9D110000 		.4byte	.LLST196
 9829 3445 52       		.uleb128 0x52
 9830 3446 6D736700 		.ascii	"msg\000"
 9831 344a 01       		.byte	0x1
 9832 344b 0403     		.2byte	0x304
 9833 344d EF000000 		.4byte	0xef
 9834 3451 B0110000 		.4byte	.LLST197
 9835 3455 40       		.uleb128 0x40
 9836 3456 95040000 		.4byte	.LASF366
 9837 345a 01       		.byte	0x1
 9838 345b 0403     		.2byte	0x304
 9839 345d 1B010000 		.4byte	0x11b
 9840 3461 C3110000 		.4byte	.LLST198
ARM GAS  /tmp/ccq01laD.s 			page 178


 9841 3465 00       		.byte	0
 9842 3466 5B       		.uleb128 0x5b
 9843 3467 4C140000 		.4byte	0x144c
 9844 346b 01       		.byte	0x1
 9845 346c 0903     		.2byte	0x309
 9846 346e 00000000 		.4byte	.LFB155
 9847 3472 04000000 		.4byte	.LFE155
 9848 3476 02       		.byte	0x2
 9849 3477 7D       		.byte	0x7d
 9850 3478 00       		.sleb128 0
 9851 3479 81340000 		.4byte	0x3481
 9852 347d A0340000 		.4byte	0x34a0
 9853 3481 3E       		.uleb128 0x3e
 9854 3482 42130000 		.4byte	.LASF363
 9855 3486 6E330000 		.4byte	0x336e
 9856 348a 01       		.byte	0x1
 9857 348b D6110000 		.4byte	.LLST199
 9858 348f 52       		.uleb128 0x52
 9859 3490 6D736700 		.ascii	"msg\000"
 9860 3494 01       		.byte	0x1
 9861 3495 0903     		.2byte	0x309
 9862 3497 EF000000 		.4byte	0xef
 9863 349b E9110000 		.4byte	.LLST200
 9864 349f 00       		.byte	0
 9865 34a0 5B       		.uleb128 0x5b
 9866 34a1 72140000 		.4byte	0x1472
 9867 34a5 01       		.byte	0x1
 9868 34a6 0E03     		.2byte	0x30e
 9869 34a8 00000000 		.4byte	.LFB156
 9870 34ac 04000000 		.4byte	.LFE156
 9871 34b0 02       		.byte	0x2
 9872 34b1 7D       		.byte	0x7d
 9873 34b2 00       		.sleb128 0
 9874 34b3 BB340000 		.4byte	0x34bb
 9875 34b7 EA340000 		.4byte	0x34ea
 9876 34bb 3E       		.uleb128 0x3e
 9877 34bc 42130000 		.4byte	.LASF363
 9878 34c0 6E330000 		.4byte	0x336e
 9879 34c4 01       		.byte	0x1
 9880 34c5 FC110000 		.4byte	.LLST201
 9881 34c9 52       		.uleb128 0x52
 9882 34ca 6D736700 		.ascii	"msg\000"
 9883 34ce 01       		.byte	0x1
 9884 34cf 0E03     		.2byte	0x30e
 9885 34d1 EF000000 		.4byte	0xef
 9886 34d5 0F120000 		.4byte	.LLST202
 9887 34d9 40       		.uleb128 0x40
 9888 34da 95040000 		.4byte	.LASF366
 9889 34de 01       		.byte	0x1
 9890 34df 0E03     		.2byte	0x30e
 9891 34e1 1B010000 		.4byte	0x11b
 9892 34e5 22120000 		.4byte	.LLST203
 9893 34e9 00       		.byte	0
 9894 34ea 5B       		.uleb128 0x5b
 9895 34eb 9D140000 		.4byte	0x149d
 9896 34ef 01       		.byte	0x1
 9897 34f0 1303     		.2byte	0x313
ARM GAS  /tmp/ccq01laD.s 			page 179


 9898 34f2 00000000 		.4byte	.LFB157
 9899 34f6 04000000 		.4byte	.LFE157
 9900 34fa 02       		.byte	0x2
 9901 34fb 7D       		.byte	0x7d
 9902 34fc 00       		.sleb128 0
 9903 34fd 05350000 		.4byte	0x3505
 9904 3501 34350000 		.4byte	0x3534
 9905 3505 3E       		.uleb128 0x3e
 9906 3506 42130000 		.4byte	.LASF363
 9907 350a 6E330000 		.4byte	0x336e
 9908 350e 01       		.byte	0x1
 9909 350f 35120000 		.4byte	.LLST204
 9910 3513 52       		.uleb128 0x52
 9911 3514 6D736700 		.ascii	"msg\000"
 9912 3518 01       		.byte	0x1
 9913 3519 1303     		.2byte	0x313
 9914 351b EF000000 		.4byte	0xef
 9915 351f 48120000 		.4byte	.LLST205
 9916 3523 40       		.uleb128 0x40
 9917 3524 95040000 		.4byte	.LASF366
 9918 3528 01       		.byte	0x1
 9919 3529 1303     		.2byte	0x313
 9920 352b 1B010000 		.4byte	0x11b
 9921 352f 5B120000 		.4byte	.LLST206
 9922 3533 00       		.byte	0
 9923 3534 5B       		.uleb128 0x5b
 9924 3535 C8140000 		.4byte	0x14c8
 9925 3539 01       		.byte	0x1
 9926 353a 1803     		.2byte	0x318
 9927 353c 00000000 		.4byte	.LFB158
 9928 3540 04000000 		.4byte	.LFE158
 9929 3544 02       		.byte	0x2
 9930 3545 7D       		.byte	0x7d
 9931 3546 00       		.sleb128 0
 9932 3547 4F350000 		.4byte	0x354f
 9933 354b 6E350000 		.4byte	0x356e
 9934 354f 3E       		.uleb128 0x3e
 9935 3550 42130000 		.4byte	.LASF363
 9936 3554 6E330000 		.4byte	0x336e
 9937 3558 01       		.byte	0x1
 9938 3559 6E120000 		.4byte	.LLST207
 9939 355d 52       		.uleb128 0x52
 9940 355e 6D736700 		.ascii	"msg\000"
 9941 3562 01       		.byte	0x1
 9942 3563 1803     		.2byte	0x318
 9943 3565 EF000000 		.4byte	0xef
 9944 3569 81120000 		.4byte	.LLST208
 9945 356d 00       		.byte	0
 9946 356e 5B       		.uleb128 0x5b
 9947 356f EE140000 		.4byte	0x14ee
 9948 3573 01       		.byte	0x1
 9949 3574 1D03     		.2byte	0x31d
 9950 3576 00000000 		.4byte	.LFB159
 9951 357a 04000000 		.4byte	.LFE159
 9952 357e 02       		.byte	0x2
 9953 357f 7D       		.byte	0x7d
 9954 3580 00       		.sleb128 0
ARM GAS  /tmp/ccq01laD.s 			page 180


 9955 3581 89350000 		.4byte	0x3589
 9956 3585 B8350000 		.4byte	0x35b8
 9957 3589 3E       		.uleb128 0x3e
 9958 358a 42130000 		.4byte	.LASF363
 9959 358e 6E330000 		.4byte	0x336e
 9960 3592 01       		.byte	0x1
 9961 3593 94120000 		.4byte	.LLST209
 9962 3597 40       		.uleb128 0x40
 9963 3598 321C0000 		.4byte	.LASF381
 9964 359c 01       		.byte	0x1
 9965 359d 1D03     		.2byte	0x31d
 9966 359f D0060000 		.4byte	0x6d0
 9967 35a3 A7120000 		.4byte	.LLST210
 9968 35a7 40       		.uleb128 0x40
 9969 35a8 95040000 		.4byte	.LASF366
 9970 35ac 01       		.byte	0x1
 9971 35ad 1D03     		.2byte	0x31d
 9972 35af 1B010000 		.4byte	0x11b
 9973 35b3 BA120000 		.4byte	.LLST211
 9974 35b7 00       		.byte	0
 9975 35b8 5B       		.uleb128 0x5b
 9976 35b9 19150000 		.4byte	0x1519
 9977 35bd 01       		.byte	0x1
 9978 35be 2203     		.2byte	0x322
 9979 35c0 00000000 		.4byte	.LFB160
 9980 35c4 04000000 		.4byte	.LFE160
 9981 35c8 02       		.byte	0x2
 9982 35c9 7D       		.byte	0x7d
 9983 35ca 00       		.sleb128 0
 9984 35cb D3350000 		.4byte	0x35d3
 9985 35cf 02360000 		.4byte	0x3602
 9986 35d3 3E       		.uleb128 0x3e
 9987 35d4 42130000 		.4byte	.LASF363
 9988 35d8 6E330000 		.4byte	0x336e
 9989 35dc 01       		.byte	0x1
 9990 35dd CD120000 		.4byte	.LLST212
 9991 35e1 40       		.uleb128 0x40
 9992 35e2 321C0000 		.4byte	.LASF381
 9993 35e6 01       		.byte	0x1
 9994 35e7 2203     		.2byte	0x322
 9995 35e9 D0060000 		.4byte	0x6d0
 9996 35ed E0120000 		.4byte	.LLST213
 9997 35f1 40       		.uleb128 0x40
 9998 35f2 95040000 		.4byte	.LASF366
 9999 35f6 01       		.byte	0x1
 10000 35f7 2203     		.2byte	0x322
 10001 35f9 1B010000 		.4byte	0x11b
 10002 35fd F3120000 		.4byte	.LLST214
 10003 3601 00       		.byte	0
 10004 3602 5B       		.uleb128 0x5b
 10005 3603 44150000 		.4byte	0x1544
 10006 3607 01       		.byte	0x1
 10007 3608 2703     		.2byte	0x327
 10008 360a 00000000 		.4byte	.LFB161
 10009 360e 04000000 		.4byte	.LFE161
 10010 3612 02       		.byte	0x2
 10011 3613 7D       		.byte	0x7d
ARM GAS  /tmp/ccq01laD.s 			page 181


 10012 3614 00       		.sleb128 0
 10013 3615 1D360000 		.4byte	0x361d
 10014 3619 3C360000 		.4byte	0x363c
 10015 361d 3E       		.uleb128 0x3e
 10016 361e 42130000 		.4byte	.LASF363
 10017 3622 6E330000 		.4byte	0x336e
 10018 3626 01       		.byte	0x1
 10019 3627 06130000 		.4byte	.LLST215
 10020 362b 40       		.uleb128 0x40
 10021 362c 321C0000 		.4byte	.LASF381
 10022 3630 01       		.byte	0x1
 10023 3631 2703     		.2byte	0x327
 10024 3633 D0060000 		.4byte	0x6d0
 10025 3637 19130000 		.4byte	.LLST216
 10026 363b 00       		.byte	0
 10027 363c 5B       		.uleb128 0x5b
 10028 363d 6A150000 		.4byte	0x156a
 10029 3641 01       		.byte	0x1
 10030 3642 2C03     		.2byte	0x32c
 10031 3644 00000000 		.4byte	.LFB162
 10032 3648 04000000 		.4byte	.LFE162
 10033 364c 02       		.byte	0x2
 10034 364d 7D       		.byte	0x7d
 10035 364e 00       		.sleb128 0
 10036 364f 57360000 		.4byte	0x3657
 10037 3653 66360000 		.4byte	0x3666
 10038 3657 3E       		.uleb128 0x3e
 10039 3658 42130000 		.4byte	.LASF363
 10040 365c 6E330000 		.4byte	0x336e
 10041 3660 01       		.byte	0x1
 10042 3661 2C130000 		.4byte	.LLST217
 10043 3665 00       		.byte	0
 10044 3666 5B       		.uleb128 0x5b
 10045 3667 8B150000 		.4byte	0x158b
 10046 366b 01       		.byte	0x1
 10047 366c 3103     		.2byte	0x331
 10048 366e 00000000 		.4byte	.LFB163
 10049 3672 04000000 		.4byte	.LFE163
 10050 3676 02       		.byte	0x2
 10051 3677 7D       		.byte	0x7d
 10052 3678 00       		.sleb128 0
 10053 3679 81360000 		.4byte	0x3681
 10054 367d 90360000 		.4byte	0x3690
 10055 3681 3E       		.uleb128 0x3e
 10056 3682 42130000 		.4byte	.LASF363
 10057 3686 6E330000 		.4byte	0x336e
 10058 368a 01       		.byte	0x1
 10059 368b 3F130000 		.4byte	.LLST218
 10060 368f 00       		.byte	0
 10061 3690 58       		.uleb128 0x58
 10062 3691 CB150000 		.4byte	0x15cb
 10063 3695 01       		.byte	0x1
 10064 3696 3B03     		.2byte	0x33b
 10065 3698 00       		.byte	0
 10066 3699 A1360000 		.4byte	0x36a1
 10067 369d C4360000 		.4byte	0x36c4
 10068 36a1 3A       		.uleb128 0x3a
ARM GAS  /tmp/ccq01laD.s 			page 182


 10069 36a2 42130000 		.4byte	.LASF363
 10070 36a6 C4360000 		.4byte	0x36c4
 10071 36aa 01       		.byte	0x1
 10072 36ab 5D       		.uleb128 0x5d
 10073 36ac 9C100000 		.4byte	.LASF365
 10074 36b0 01       		.byte	0x1
 10075 36b1 3B03     		.2byte	0x33b
 10076 36b3 30000000 		.4byte	0x30
 10077 36b7 5D       		.uleb128 0x5d
 10078 36b8 85150000 		.4byte	.LASF382
 10079 36bc 01       		.byte	0x1
 10080 36bd 3B03     		.2byte	0x33b
 10081 36bf E1060000 		.4byte	0x6e1
 10082 36c3 00       		.byte	0
 10083 36c4 13       		.uleb128 0x13
 10084 36c5 CD160000 		.4byte	0x16cd
 10085 36c9 5A       		.uleb128 0x5a
 10086 36ca 90360000 		.4byte	0x3690
 10087 36ce 00000000 		.4byte	.LFB165
 10088 36d2 0C000000 		.4byte	.LFE165
 10089 36d6 52130000 		.4byte	.LLST219
 10090 36da E2360000 		.4byte	0x36e2
 10091 36de FE360000 		.4byte	0x36fe
 10092 36e2 57       		.uleb128 0x57
 10093 36e3 A1360000 		.4byte	0x36a1
 10094 36e7 72130000 		.4byte	.LLST220
 10095 36eb 57       		.uleb128 0x57
 10096 36ec AB360000 		.4byte	0x36ab
 10097 36f0 90130000 		.4byte	.LLST221
 10098 36f4 57       		.uleb128 0x57
 10099 36f5 B7360000 		.4byte	0x36b7
 10100 36f9 A3130000 		.4byte	.LLST222
 10101 36fd 00       		.byte	0
 10102 36fe 58       		.uleb128 0x58
 10103 36ff F2150000 		.4byte	0x15f2
 10104 3703 01       		.byte	0x1
 10105 3704 4003     		.2byte	0x340
 10106 3706 00       		.byte	0
 10107 3707 0F370000 		.4byte	0x370f
 10108 370b 46370000 		.4byte	0x3746
 10109 370f 3A       		.uleb128 0x3a
 10110 3710 42130000 		.4byte	.LASF363
 10111 3714 C4360000 		.4byte	0x36c4
 10112 3718 01       		.byte	0x1
 10113 3719 5D       		.uleb128 0x5d
 10114 371a 9C100000 		.4byte	.LASF365
 10115 371e 01       		.byte	0x1
 10116 371f 4003     		.2byte	0x340
 10117 3721 30000000 		.4byte	0x30
 10118 3725 5D       		.uleb128 0x5d
 10119 3726 85150000 		.4byte	.LASF382
 10120 372a 01       		.byte	0x1
 10121 372b 4003     		.2byte	0x340
 10122 372d E1060000 		.4byte	0x6e1
 10123 3731 59       		.uleb128 0x59
 10124 3732 7000     		.ascii	"p\000"
 10125 3734 01       		.byte	0x1
ARM GAS  /tmp/ccq01laD.s 			page 183


 10126 3735 4003     		.2byte	0x340
 10127 3737 0F030000 		.4byte	0x30f
 10128 373b 59       		.uleb128 0x59
 10129 373c 6E00     		.ascii	"n\000"
 10130 373e 01       		.byte	0x1
 10131 373f 4003     		.2byte	0x340
 10132 3741 30000000 		.4byte	0x30
 10133 3745 00       		.byte	0
 10134 3746 5A       		.uleb128 0x5a
 10135 3747 FE360000 		.4byte	0x36fe
 10136 374b 00000000 		.4byte	.LFB168
 10137 374f 18000000 		.4byte	.LFE168
 10138 3753 B6130000 		.4byte	.LLST223
 10139 3757 5F370000 		.4byte	0x375f
 10140 375b 8C370000 		.4byte	0x378c
 10141 375f 57       		.uleb128 0x57
 10142 3760 0F370000 		.4byte	0x370f
 10143 3764 D6130000 		.4byte	.LLST224
 10144 3768 57       		.uleb128 0x57
 10145 3769 19370000 		.4byte	0x3719
 10146 376d F4130000 		.4byte	.LLST225
 10147 3771 57       		.uleb128 0x57
 10148 3772 25370000 		.4byte	0x3725
 10149 3776 07140000 		.4byte	.LLST226
 10150 377a 57       		.uleb128 0x57
 10151 377b 31370000 		.4byte	0x3731
 10152 377f 1A140000 		.4byte	.LLST227
 10153 3783 42       		.uleb128 0x42
 10154 3784 3B370000 		.4byte	0x373b
 10155 3788 02       		.byte	0x2
 10156 3789 91       		.byte	0x91
 10157 378a 00       		.sleb128 0
 10158 378b 00       		.byte	0
 10159 378c 5B       		.uleb128 0x5b
 10160 378d 23160000 		.4byte	0x1623
 10161 3791 01       		.byte	0x1
 10162 3792 4703     		.2byte	0x347
 10163 3794 00000000 		.4byte	.LFB170
 10164 3798 04000000 		.4byte	.LFE170
 10165 379c 02       		.byte	0x2
 10166 379d 7D       		.byte	0x7d
 10167 379e 00       		.sleb128 0
 10168 379f A7370000 		.4byte	0x37a7
 10169 37a3 D2370000 		.4byte	0x37d2
 10170 37a7 3E       		.uleb128 0x3e
 10171 37a8 42130000 		.4byte	.LASF363
 10172 37ac C4360000 		.4byte	0x36c4
 10173 37b0 01       		.byte	0x1
 10174 37b1 38140000 		.4byte	.LLST228
 10175 37b5 52       		.uleb128 0x52
 10176 37b6 7000     		.ascii	"p\000"
 10177 37b8 01       		.byte	0x1
 10178 37b9 4703     		.2byte	0x347
 10179 37bb 0F030000 		.4byte	0x30f
 10180 37bf 4B140000 		.4byte	.LLST229
 10181 37c3 52       		.uleb128 0x52
 10182 37c4 6E00     		.ascii	"n\000"
ARM GAS  /tmp/ccq01laD.s 			page 184


 10183 37c6 01       		.byte	0x1
 10184 37c7 4703     		.2byte	0x347
 10185 37c9 30000000 		.4byte	0x30
 10186 37cd 5E140000 		.4byte	.LLST230
 10187 37d1 00       		.byte	0
 10188 37d2 5B       		.uleb128 0x5b
 10189 37d3 4A160000 		.4byte	0x164a
 10190 37d7 01       		.byte	0x1
 10191 37d8 4C03     		.2byte	0x34c
 10192 37da 00000000 		.4byte	.LFB171
 10193 37de 04000000 		.4byte	.LFE171
 10194 37e2 02       		.byte	0x2
 10195 37e3 7D       		.byte	0x7d
 10196 37e4 00       		.sleb128 0
 10197 37e5 ED370000 		.4byte	0x37ed
 10198 37e9 FC370000 		.4byte	0x37fc
 10199 37ed 3E       		.uleb128 0x3e
 10200 37ee 42130000 		.4byte	.LASF363
 10201 37f2 C4360000 		.4byte	0x36c4
 10202 37f6 01       		.byte	0x1
 10203 37f7 71140000 		.4byte	.LLST231
 10204 37fb 00       		.byte	0
 10205 37fc 5B       		.uleb128 0x5b
 10206 37fd 6B160000 		.4byte	0x166b
 10207 3801 01       		.byte	0x1
 10208 3802 5103     		.2byte	0x351
 10209 3804 00000000 		.4byte	.LFB172
 10210 3808 04000000 		.4byte	.LFE172
 10211 380c 02       		.byte	0x2
 10212 380d 7D       		.byte	0x7d
 10213 380e 00       		.sleb128 0
 10214 380f 17380000 		.4byte	0x3817
 10215 3813 26380000 		.4byte	0x3826
 10216 3817 3E       		.uleb128 0x3e
 10217 3818 42130000 		.4byte	.LASF363
 10218 381c C4360000 		.4byte	0x36c4
 10219 3820 01       		.byte	0x1
 10220 3821 84140000 		.4byte	.LLST232
 10221 3825 00       		.byte	0
 10222 3826 5B       		.uleb128 0x5b
 10223 3827 8C160000 		.4byte	0x168c
 10224 382b 01       		.byte	0x1
 10225 382c 5603     		.2byte	0x356
 10226 382e 00000000 		.4byte	.LFB173
 10227 3832 04000000 		.4byte	.LFE173
 10228 3836 02       		.byte	0x2
 10229 3837 7D       		.byte	0x7d
 10230 3838 00       		.sleb128 0
 10231 3839 41380000 		.4byte	0x3841
 10232 383d 60380000 		.4byte	0x3860
 10233 3841 3E       		.uleb128 0x3e
 10234 3842 42130000 		.4byte	.LASF363
 10235 3846 C4360000 		.4byte	0x36c4
 10236 384a 01       		.byte	0x1
 10237 384b 97140000 		.4byte	.LLST233
 10238 384f 40       		.uleb128 0x40
 10239 3850 00100000 		.4byte	.LASF383
ARM GAS  /tmp/ccq01laD.s 			page 185


 10240 3854 01       		.byte	0x1
 10241 3855 5603     		.2byte	0x356
 10242 3857 0F030000 		.4byte	0x30f
 10243 385b AA140000 		.4byte	.LLST234
 10244 385f 00       		.byte	0
 10245 3860 5B       		.uleb128 0x5b
 10246 3861 AE160000 		.4byte	0x16ae
 10247 3865 01       		.byte	0x1
 10248 3866 5B03     		.2byte	0x35b
 10249 3868 00000000 		.4byte	.LFB174
 10250 386c 04000000 		.4byte	.LFE174
 10251 3870 02       		.byte	0x2
 10252 3871 7D       		.byte	0x7d
 10253 3872 00       		.sleb128 0
 10254 3873 7B380000 		.4byte	0x387b
 10255 3877 9A380000 		.4byte	0x389a
 10256 387b 3E       		.uleb128 0x3e
 10257 387c 42130000 		.4byte	.LASF363
 10258 3880 C4360000 		.4byte	0x36c4
 10259 3884 01       		.byte	0x1
 10260 3885 BD140000 		.4byte	.LLST235
 10261 3889 40       		.uleb128 0x40
 10262 388a 00100000 		.4byte	.LASF383
 10263 388e 01       		.byte	0x1
 10264 388f 5B03     		.2byte	0x35b
 10265 3891 0F030000 		.4byte	0x30f
 10266 3895 D0140000 		.4byte	.LLST236
 10267 3899 00       		.byte	0
 10268 389a 5F       		.uleb128 0x5f
 10269 389b 5B040000 		.4byte	.LASF384
 10270 389f 09       		.byte	0x9
 10271 38a0 D1       		.byte	0xd1
 10272 38a1 9D040000 		.4byte	0x49d
 10273 38a5 01       		.byte	0x1
 10274 38a6 01       		.byte	0x1
 10275 38a7 5F       		.uleb128 0x5f
 10276 38a8 D7070000 		.4byte	.LASF385
 10277 38ac 0A       		.byte	0xa
 10278 38ad 68       		.byte	0x68
 10279 38ae 09050000 		.4byte	0x509
 10280 38b2 01       		.byte	0x1
 10281 38b3 01       		.byte	0x1
 10282 38b4 00       		.byte	0
 10283              		.section	.debug_abbrev,"",%progbits
 10284              	.Ldebug_abbrev0:
 10285 0000 01       		.uleb128 0x1
 10286 0001 11       		.uleb128 0x11
 10287 0002 01       		.byte	0x1
 10288 0003 25       		.uleb128 0x25
 10289 0004 0E       		.uleb128 0xe
 10290 0005 13       		.uleb128 0x13
 10291 0006 0B       		.uleb128 0xb
 10292 0007 03       		.uleb128 0x3
 10293 0008 0E       		.uleb128 0xe
 10294 0009 1B       		.uleb128 0x1b
 10295 000a 0E       		.uleb128 0xe
 10296 000b 11       		.uleb128 0x11
ARM GAS  /tmp/ccq01laD.s 			page 186


 10297 000c 01       		.uleb128 0x1
 10298 000d 52       		.uleb128 0x52
 10299 000e 01       		.uleb128 0x1
 10300 000f 55       		.uleb128 0x55
 10301 0010 06       		.uleb128 0x6
 10302 0011 10       		.uleb128 0x10
 10303 0012 06       		.uleb128 0x6
 10304 0013 00       		.byte	0
 10305 0014 00       		.byte	0
 10306 0015 02       		.uleb128 0x2
 10307 0016 24       		.uleb128 0x24
 10308 0017 00       		.byte	0
 10309 0018 0B       		.uleb128 0xb
 10310 0019 0B       		.uleb128 0xb
 10311 001a 3E       		.uleb128 0x3e
 10312 001b 0B       		.uleb128 0xb
 10313 001c 03       		.uleb128 0x3
 10314 001d 08       		.uleb128 0x8
 10315 001e 00       		.byte	0
 10316 001f 00       		.byte	0
 10317 0020 03       		.uleb128 0x3
 10318 0021 16       		.uleb128 0x16
 10319 0022 00       		.byte	0
 10320 0023 03       		.uleb128 0x3
 10321 0024 0E       		.uleb128 0xe
 10322 0025 3A       		.uleb128 0x3a
 10323 0026 0B       		.uleb128 0xb
 10324 0027 3B       		.uleb128 0x3b
 10325 0028 0B       		.uleb128 0xb
 10326 0029 49       		.uleb128 0x49
 10327 002a 13       		.uleb128 0x13
 10328 002b 00       		.byte	0
 10329 002c 00       		.byte	0
 10330 002d 04       		.uleb128 0x4
 10331 002e 24       		.uleb128 0x24
 10332 002f 00       		.byte	0
 10333 0030 0B       		.uleb128 0xb
 10334 0031 0B       		.uleb128 0xb
 10335 0032 3E       		.uleb128 0x3e
 10336 0033 0B       		.uleb128 0xb
 10337 0034 03       		.uleb128 0x3
 10338 0035 0E       		.uleb128 0xe
 10339 0036 00       		.byte	0
 10340 0037 00       		.byte	0
 10341 0038 05       		.uleb128 0x5
 10342 0039 13       		.uleb128 0x13
 10343 003a 01       		.byte	0x1
 10344 003b 03       		.uleb128 0x3
 10345 003c 0E       		.uleb128 0xe
 10346 003d 0B       		.uleb128 0xb
 10347 003e 0B       		.uleb128 0xb
 10348 003f 3A       		.uleb128 0x3a
 10349 0040 0B       		.uleb128 0xb
 10350 0041 3B       		.uleb128 0x3b
 10351 0042 0B       		.uleb128 0xb
 10352 0043 01       		.uleb128 0x1
 10353 0044 13       		.uleb128 0x13
ARM GAS  /tmp/ccq01laD.s 			page 187


 10354 0045 00       		.byte	0
 10355 0046 00       		.byte	0
 10356 0047 06       		.uleb128 0x6
 10357 0048 17       		.uleb128 0x17
 10358 0049 01       		.byte	0x1
 10359 004a 0B       		.uleb128 0xb
 10360 004b 0B       		.uleb128 0xb
 10361 004c 3A       		.uleb128 0x3a
 10362 004d 0B       		.uleb128 0xb
 10363 004e 3B       		.uleb128 0x3b
 10364 004f 0B       		.uleb128 0xb
 10365 0050 01       		.uleb128 0x1
 10366 0051 13       		.uleb128 0x13
 10367 0052 00       		.byte	0
 10368 0053 00       		.byte	0
 10369 0054 07       		.uleb128 0x7
 10370 0055 0D       		.uleb128 0xd
 10371 0056 00       		.byte	0
 10372 0057 03       		.uleb128 0x3
 10373 0058 0E       		.uleb128 0xe
 10374 0059 3A       		.uleb128 0x3a
 10375 005a 0B       		.uleb128 0xb
 10376 005b 3B       		.uleb128 0x3b
 10377 005c 0B       		.uleb128 0xb
 10378 005d 49       		.uleb128 0x49
 10379 005e 13       		.uleb128 0x13
 10380 005f 00       		.byte	0
 10381 0060 00       		.byte	0
 10382 0061 08       		.uleb128 0x8
 10383 0062 0D       		.uleb128 0xd
 10384 0063 00       		.byte	0
 10385 0064 03       		.uleb128 0x3
 10386 0065 0E       		.uleb128 0xe
 10387 0066 3A       		.uleb128 0x3a
 10388 0067 0B       		.uleb128 0xb
 10389 0068 3B       		.uleb128 0x3b
 10390 0069 0B       		.uleb128 0xb
 10391 006a 49       		.uleb128 0x49
 10392 006b 13       		.uleb128 0x13
 10393 006c 38       		.uleb128 0x38
 10394 006d 0A       		.uleb128 0xa
 10395 006e 00       		.byte	0
 10396 006f 00       		.byte	0
 10397 0070 09       		.uleb128 0x9
 10398 0071 0D       		.uleb128 0xd
 10399 0072 00       		.byte	0
 10400 0073 03       		.uleb128 0x3
 10401 0074 08       		.uleb128 0x8
 10402 0075 3A       		.uleb128 0x3a
 10403 0076 0B       		.uleb128 0xb
 10404 0077 3B       		.uleb128 0x3b
 10405 0078 0B       		.uleb128 0xb
 10406 0079 49       		.uleb128 0x49
 10407 007a 13       		.uleb128 0x13
 10408 007b 38       		.uleb128 0x38
 10409 007c 0A       		.uleb128 0xa
 10410 007d 00       		.byte	0
ARM GAS  /tmp/ccq01laD.s 			page 188


 10411 007e 00       		.byte	0
 10412 007f 0A       		.uleb128 0xa
 10413 0080 13       		.uleb128 0x13
 10414 0081 01       		.byte	0x1
 10415 0082 0B       		.uleb128 0xb
 10416 0083 0B       		.uleb128 0xb
 10417 0084 3A       		.uleb128 0x3a
 10418 0085 0B       		.uleb128 0xb
 10419 0086 3B       		.uleb128 0x3b
 10420 0087 0B       		.uleb128 0xb
 10421 0088 8740     		.uleb128 0x2007
 10422 008a 0E       		.uleb128 0xe
 10423 008b 01       		.uleb128 0x1
 10424 008c 13       		.uleb128 0x13
 10425 008d 00       		.byte	0
 10426 008e 00       		.byte	0
 10427 008f 0B       		.uleb128 0xb
 10428 0090 0F       		.uleb128 0xf
 10429 0091 00       		.byte	0
 10430 0092 0B       		.uleb128 0xb
 10431 0093 0B       		.uleb128 0xb
 10432 0094 49       		.uleb128 0x49
 10433 0095 13       		.uleb128 0x13
 10434 0096 00       		.byte	0
 10435 0097 00       		.byte	0
 10436 0098 0C       		.uleb128 0xc
 10437 0099 0F       		.uleb128 0xf
 10438 009a 00       		.byte	0
 10439 009b 0B       		.uleb128 0xb
 10440 009c 0B       		.uleb128 0xb
 10441 009d 00       		.byte	0
 10442 009e 00       		.byte	0
 10443 009f 0D       		.uleb128 0xd
 10444 00a0 13       		.uleb128 0x13
 10445 00a1 01       		.byte	0x1
 10446 00a2 03       		.uleb128 0x3
 10447 00a3 0E       		.uleb128 0xe
 10448 00a4 0B       		.uleb128 0xb
 10449 00a5 0B       		.uleb128 0xb
 10450 00a6 3A       		.uleb128 0x3a
 10451 00a7 0B       		.uleb128 0xb
 10452 00a8 3B       		.uleb128 0x3b
 10453 00a9 05       		.uleb128 0x5
 10454 00aa 01       		.uleb128 0x1
 10455 00ab 13       		.uleb128 0x13
 10456 00ac 00       		.byte	0
 10457 00ad 00       		.byte	0
 10458 00ae 0E       		.uleb128 0xe
 10459 00af 0D       		.uleb128 0xd
 10460 00b0 00       		.byte	0
 10461 00b1 03       		.uleb128 0x3
 10462 00b2 08       		.uleb128 0x8
 10463 00b3 3A       		.uleb128 0x3a
 10464 00b4 0B       		.uleb128 0xb
 10465 00b5 3B       		.uleb128 0x3b
 10466 00b6 05       		.uleb128 0x5
 10467 00b7 49       		.uleb128 0x49
ARM GAS  /tmp/ccq01laD.s 			page 189


 10468 00b8 13       		.uleb128 0x13
 10469 00b9 38       		.uleb128 0x38
 10470 00ba 0A       		.uleb128 0xa
 10471 00bb 00       		.byte	0
 10472 00bc 00       		.byte	0
 10473 00bd 0F       		.uleb128 0xf
 10474 00be 15       		.uleb128 0x15
 10475 00bf 01       		.byte	0x1
 10476 00c0 01       		.uleb128 0x1
 10477 00c1 13       		.uleb128 0x13
 10478 00c2 00       		.byte	0
 10479 00c3 00       		.byte	0
 10480 00c4 10       		.uleb128 0x10
 10481 00c5 05       		.uleb128 0x5
 10482 00c6 00       		.byte	0
 10483 00c7 49       		.uleb128 0x49
 10484 00c8 13       		.uleb128 0x13
 10485 00c9 00       		.byte	0
 10486 00ca 00       		.byte	0
 10487 00cb 11       		.uleb128 0x11
 10488 00cc 35       		.uleb128 0x35
 10489 00cd 00       		.byte	0
 10490 00ce 49       		.uleb128 0x49
 10491 00cf 13       		.uleb128 0x13
 10492 00d0 00       		.byte	0
 10493 00d1 00       		.byte	0
 10494 00d2 12       		.uleb128 0x12
 10495 00d3 15       		.uleb128 0x15
 10496 00d4 01       		.byte	0x1
 10497 00d5 49       		.uleb128 0x49
 10498 00d6 13       		.uleb128 0x13
 10499 00d7 01       		.uleb128 0x1
 10500 00d8 13       		.uleb128 0x13
 10501 00d9 00       		.byte	0
 10502 00da 00       		.byte	0
 10503 00db 13       		.uleb128 0x13
 10504 00dc 26       		.uleb128 0x26
 10505 00dd 00       		.byte	0
 10506 00de 49       		.uleb128 0x49
 10507 00df 13       		.uleb128 0x13
 10508 00e0 00       		.byte	0
 10509 00e1 00       		.byte	0
 10510 00e2 14       		.uleb128 0x14
 10511 00e3 39       		.uleb128 0x39
 10512 00e4 01       		.byte	0x1
 10513 00e5 03       		.uleb128 0x3
 10514 00e6 0E       		.uleb128 0xe
 10515 00e7 3A       		.uleb128 0x3a
 10516 00e8 0B       		.uleb128 0xb
 10517 00e9 3B       		.uleb128 0x3b
 10518 00ea 0B       		.uleb128 0xb
 10519 00eb 01       		.uleb128 0x1
 10520 00ec 13       		.uleb128 0x13
 10521 00ed 00       		.byte	0
 10522 00ee 00       		.byte	0
 10523 00ef 15       		.uleb128 0x15
 10524 00f0 02       		.uleb128 0x2
ARM GAS  /tmp/ccq01laD.s 			page 190


 10525 00f1 00       		.byte	0
 10526 00f2 03       		.uleb128 0x3
 10527 00f3 0E       		.uleb128 0xe
 10528 00f4 3C       		.uleb128 0x3c
 10529 00f5 0C       		.uleb128 0xc
 10530 00f6 00       		.byte	0
 10531 00f7 00       		.byte	0
 10532 00f8 16       		.uleb128 0x16
 10533 00f9 2E       		.uleb128 0x2e
 10534 00fa 01       		.byte	0x1
 10535 00fb 3F       		.uleb128 0x3f
 10536 00fc 0C       		.uleb128 0xc
 10537 00fd 03       		.uleb128 0x3
 10538 00fe 0E       		.uleb128 0xe
 10539 00ff 3A       		.uleb128 0x3a
 10540 0100 0B       		.uleb128 0xb
 10541 0101 3B       		.uleb128 0x3b
 10542 0102 05       		.uleb128 0x5
 10543 0103 8740     		.uleb128 0x2007
 10544 0105 0E       		.uleb128 0xe
 10545 0106 49       		.uleb128 0x49
 10546 0107 13       		.uleb128 0x13
 10547 0108 3C       		.uleb128 0x3c
 10548 0109 0C       		.uleb128 0xc
 10549 010a 00       		.byte	0
 10550 010b 00       		.byte	0
 10551 010c 17       		.uleb128 0x17
 10552 010d 02       		.uleb128 0x2
 10553 010e 01       		.byte	0x1
 10554 010f 47       		.uleb128 0x47
 10555 0110 13       		.uleb128 0x13
 10556 0111 0B       		.uleb128 0xb
 10557 0112 0B       		.uleb128 0xb
 10558 0113 3A       		.uleb128 0x3a
 10559 0114 0B       		.uleb128 0xb
 10560 0115 3B       		.uleb128 0x3b
 10561 0116 0B       		.uleb128 0xb
 10562 0117 01       		.uleb128 0x1
 10563 0118 13       		.uleb128 0x13
 10564 0119 00       		.byte	0
 10565 011a 00       		.byte	0
 10566 011b 18       		.uleb128 0x18
 10567 011c 2E       		.uleb128 0x2e
 10568 011d 00       		.byte	0
 10569 011e 3F       		.uleb128 0x3f
 10570 011f 0C       		.uleb128 0xc
 10571 0120 03       		.uleb128 0x3
 10572 0121 0E       		.uleb128 0xe
 10573 0122 3A       		.uleb128 0x3a
 10574 0123 0B       		.uleb128 0xb
 10575 0124 3B       		.uleb128 0x3b
 10576 0125 0B       		.uleb128 0xb
 10577 0126 8740     		.uleb128 0x2007
 10578 0128 0E       		.uleb128 0xe
 10579 0129 3C       		.uleb128 0x3c
 10580 012a 0C       		.uleb128 0xc
 10581 012b 00       		.byte	0
ARM GAS  /tmp/ccq01laD.s 			page 191


 10582 012c 00       		.byte	0
 10583 012d 19       		.uleb128 0x19
 10584 012e 2E       		.uleb128 0x2e
 10585 012f 00       		.byte	0
 10586 0130 3F       		.uleb128 0x3f
 10587 0131 0C       		.uleb128 0xc
 10588 0132 03       		.uleb128 0x3
 10589 0133 0E       		.uleb128 0xe
 10590 0134 3A       		.uleb128 0x3a
 10591 0135 0B       		.uleb128 0xb
 10592 0136 3B       		.uleb128 0x3b
 10593 0137 0B       		.uleb128 0xb
 10594 0138 8740     		.uleb128 0x2007
 10595 013a 0E       		.uleb128 0xe
 10596 013b 49       		.uleb128 0x49
 10597 013c 13       		.uleb128 0x13
 10598 013d 3C       		.uleb128 0x3c
 10599 013e 0C       		.uleb128 0xc
 10600 013f 00       		.byte	0
 10601 0140 00       		.byte	0
 10602 0141 1A       		.uleb128 0x1a
 10603 0142 2E       		.uleb128 0x2e
 10604 0143 01       		.byte	0x1
 10605 0144 3F       		.uleb128 0x3f
 10606 0145 0C       		.uleb128 0xc
 10607 0146 03       		.uleb128 0x3
 10608 0147 0E       		.uleb128 0xe
 10609 0148 3A       		.uleb128 0x3a
 10610 0149 0B       		.uleb128 0xb
 10611 014a 3B       		.uleb128 0x3b
 10612 014b 0B       		.uleb128 0xb
 10613 014c 8740     		.uleb128 0x2007
 10614 014e 0E       		.uleb128 0xe
 10615 014f 49       		.uleb128 0x49
 10616 0150 13       		.uleb128 0x13
 10617 0151 3C       		.uleb128 0x3c
 10618 0152 0C       		.uleb128 0xc
 10619 0153 00       		.byte	0
 10620 0154 00       		.byte	0
 10621 0155 1B       		.uleb128 0x1b
 10622 0156 2E       		.uleb128 0x2e
 10623 0157 01       		.byte	0x1
 10624 0158 3F       		.uleb128 0x3f
 10625 0159 0C       		.uleb128 0xc
 10626 015a 03       		.uleb128 0x3
 10627 015b 0E       		.uleb128 0xe
 10628 015c 3A       		.uleb128 0x3a
 10629 015d 0B       		.uleb128 0xb
 10630 015e 3B       		.uleb128 0x3b
 10631 015f 0B       		.uleb128 0xb
 10632 0160 8740     		.uleb128 0x2007
 10633 0162 0E       		.uleb128 0xe
 10634 0163 49       		.uleb128 0x49
 10635 0164 13       		.uleb128 0x13
 10636 0165 3C       		.uleb128 0x3c
 10637 0166 0C       		.uleb128 0xc
 10638 0167 01       		.uleb128 0x1
ARM GAS  /tmp/ccq01laD.s 			page 192


 10639 0168 13       		.uleb128 0x13
 10640 0169 00       		.byte	0
 10641 016a 00       		.byte	0
 10642 016b 1C       		.uleb128 0x1c
 10643 016c 2E       		.uleb128 0x2e
 10644 016d 01       		.byte	0x1
 10645 016e 3F       		.uleb128 0x3f
 10646 016f 0C       		.uleb128 0xc
 10647 0170 03       		.uleb128 0x3
 10648 0171 0E       		.uleb128 0xe
 10649 0172 3A       		.uleb128 0x3a
 10650 0173 0B       		.uleb128 0xb
 10651 0174 3B       		.uleb128 0x3b
 10652 0175 0B       		.uleb128 0xb
 10653 0176 8740     		.uleb128 0x2007
 10654 0178 0E       		.uleb128 0xe
 10655 0179 3C       		.uleb128 0x3c
 10656 017a 0C       		.uleb128 0xc
 10657 017b 64       		.uleb128 0x64
 10658 017c 13       		.uleb128 0x13
 10659 017d 01       		.uleb128 0x1
 10660 017e 13       		.uleb128 0x13
 10661 017f 00       		.byte	0
 10662 0180 00       		.byte	0
 10663 0181 1D       		.uleb128 0x1d
 10664 0182 05       		.uleb128 0x5
 10665 0183 00       		.byte	0
 10666 0184 49       		.uleb128 0x49
 10667 0185 13       		.uleb128 0x13
 10668 0186 34       		.uleb128 0x34
 10669 0187 0C       		.uleb128 0xc
 10670 0188 00       		.byte	0
 10671 0189 00       		.byte	0
 10672 018a 1E       		.uleb128 0x1e
 10673 018b 2E       		.uleb128 0x2e
 10674 018c 01       		.byte	0x1
 10675 018d 3F       		.uleb128 0x3f
 10676 018e 0C       		.uleb128 0xc
 10677 018f 03       		.uleb128 0x3
 10678 0190 0E       		.uleb128 0xe
 10679 0191 3A       		.uleb128 0x3a
 10680 0192 0B       		.uleb128 0xb
 10681 0193 3B       		.uleb128 0x3b
 10682 0194 0B       		.uleb128 0xb
 10683 0195 8740     		.uleb128 0x2007
 10684 0197 0E       		.uleb128 0xe
 10685 0198 49       		.uleb128 0x49
 10686 0199 13       		.uleb128 0x13
 10687 019a 3C       		.uleb128 0x3c
 10688 019b 0C       		.uleb128 0xc
 10689 019c 64       		.uleb128 0x64
 10690 019d 13       		.uleb128 0x13
 10691 019e 00       		.byte	0
 10692 019f 00       		.byte	0
 10693 01a0 1F       		.uleb128 0x1f
 10694 01a1 02       		.uleb128 0x2
 10695 01a2 01       		.byte	0x1
ARM GAS  /tmp/ccq01laD.s 			page 193


 10696 01a3 47       		.uleb128 0x47
 10697 01a4 13       		.uleb128 0x13
 10698 01a5 0B       		.uleb128 0xb
 10699 01a6 0B       		.uleb128 0xb
 10700 01a7 3A       		.uleb128 0x3a
 10701 01a8 0B       		.uleb128 0xb
 10702 01a9 3B       		.uleb128 0x3b
 10703 01aa 05       		.uleb128 0x5
 10704 01ab 01       		.uleb128 0x1
 10705 01ac 13       		.uleb128 0x13
 10706 01ad 00       		.byte	0
 10707 01ae 00       		.byte	0
 10708 01af 20       		.uleb128 0x20
 10709 01b0 2E       		.uleb128 0x2e
 10710 01b1 01       		.byte	0x1
 10711 01b2 3F       		.uleb128 0x3f
 10712 01b3 0C       		.uleb128 0xc
 10713 01b4 03       		.uleb128 0x3
 10714 01b5 0E       		.uleb128 0xe
 10715 01b6 3A       		.uleb128 0x3a
 10716 01b7 0B       		.uleb128 0xb
 10717 01b8 3B       		.uleb128 0x3b
 10718 01b9 05       		.uleb128 0x5
 10719 01ba 49       		.uleb128 0x49
 10720 01bb 13       		.uleb128 0x13
 10721 01bc 3C       		.uleb128 0x3c
 10722 01bd 0C       		.uleb128 0xc
 10723 01be 64       		.uleb128 0x64
 10724 01bf 13       		.uleb128 0x13
 10725 01c0 01       		.uleb128 0x1
 10726 01c1 13       		.uleb128 0x13
 10727 01c2 00       		.byte	0
 10728 01c3 00       		.byte	0
 10729 01c4 21       		.uleb128 0x21
 10730 01c5 2E       		.uleb128 0x2e
 10731 01c6 01       		.byte	0x1
 10732 01c7 3F       		.uleb128 0x3f
 10733 01c8 0C       		.uleb128 0xc
 10734 01c9 03       		.uleb128 0x3
 10735 01ca 0E       		.uleb128 0xe
 10736 01cb 3A       		.uleb128 0x3a
 10737 01cc 0B       		.uleb128 0xb
 10738 01cd 3B       		.uleb128 0x3b
 10739 01ce 05       		.uleb128 0x5
 10740 01cf 8740     		.uleb128 0x2007
 10741 01d1 0E       		.uleb128 0xe
 10742 01d2 3C       		.uleb128 0x3c
 10743 01d3 0C       		.uleb128 0xc
 10744 01d4 64       		.uleb128 0x64
 10745 01d5 13       		.uleb128 0x13
 10746 01d6 01       		.uleb128 0x1
 10747 01d7 13       		.uleb128 0x13
 10748 01d8 00       		.byte	0
 10749 01d9 00       		.byte	0
 10750 01da 22       		.uleb128 0x22
 10751 01db 2E       		.uleb128 0x2e
 10752 01dc 01       		.byte	0x1
ARM GAS  /tmp/ccq01laD.s 			page 194


 10753 01dd 3F       		.uleb128 0x3f
 10754 01de 0C       		.uleb128 0xc
 10755 01df 03       		.uleb128 0x3
 10756 01e0 0E       		.uleb128 0xe
 10757 01e1 3A       		.uleb128 0x3a
 10758 01e2 0B       		.uleb128 0xb
 10759 01e3 3B       		.uleb128 0x3b
 10760 01e4 05       		.uleb128 0x5
 10761 01e5 8740     		.uleb128 0x2007
 10762 01e7 0E       		.uleb128 0xe
 10763 01e8 49       		.uleb128 0x49
 10764 01e9 13       		.uleb128 0x13
 10765 01ea 3C       		.uleb128 0x3c
 10766 01eb 0C       		.uleb128 0xc
 10767 01ec 64       		.uleb128 0x64
 10768 01ed 13       		.uleb128 0x13
 10769 01ee 01       		.uleb128 0x1
 10770 01ef 13       		.uleb128 0x13
 10771 01f0 00       		.byte	0
 10772 01f1 00       		.byte	0
 10773 01f2 23       		.uleb128 0x23
 10774 01f3 0D       		.uleb128 0xd
 10775 01f4 00       		.byte	0
 10776 01f5 03       		.uleb128 0x3
 10777 01f6 0E       		.uleb128 0xe
 10778 01f7 3A       		.uleb128 0x3a
 10779 01f8 0B       		.uleb128 0xb
 10780 01f9 3B       		.uleb128 0x3b
 10781 01fa 05       		.uleb128 0x5
 10782 01fb 49       		.uleb128 0x49
 10783 01fc 13       		.uleb128 0x13
 10784 01fd 38       		.uleb128 0x38
 10785 01fe 0A       		.uleb128 0xa
 10786 01ff 00       		.byte	0
 10787 0200 00       		.byte	0
 10788 0201 24       		.uleb128 0x24
 10789 0202 2E       		.uleb128 0x2e
 10790 0203 01       		.byte	0x1
 10791 0204 3F       		.uleb128 0x3f
 10792 0205 0C       		.uleb128 0xc
 10793 0206 03       		.uleb128 0x3
 10794 0207 0E       		.uleb128 0xe
 10795 0208 3A       		.uleb128 0x3a
 10796 0209 0B       		.uleb128 0xb
 10797 020a 3B       		.uleb128 0x3b
 10798 020b 05       		.uleb128 0x5
 10799 020c 8740     		.uleb128 0x2007
 10800 020e 0E       		.uleb128 0xe
 10801 020f 49       		.uleb128 0x49
 10802 0210 13       		.uleb128 0x13
 10803 0211 3C       		.uleb128 0x3c
 10804 0212 0C       		.uleb128 0xc
 10805 0213 64       		.uleb128 0x64
 10806 0214 13       		.uleb128 0x13
 10807 0215 00       		.byte	0
 10808 0216 00       		.byte	0
 10809 0217 25       		.uleb128 0x25
ARM GAS  /tmp/ccq01laD.s 			page 195


 10810 0218 2E       		.uleb128 0x2e
 10811 0219 01       		.byte	0x1
 10812 021a 3F       		.uleb128 0x3f
 10813 021b 0C       		.uleb128 0xc
 10814 021c 03       		.uleb128 0x3
 10815 021d 0E       		.uleb128 0xe
 10816 021e 3A       		.uleb128 0x3a
 10817 021f 0B       		.uleb128 0xb
 10818 0220 3B       		.uleb128 0x3b
 10819 0221 05       		.uleb128 0x5
 10820 0222 8740     		.uleb128 0x2007
 10821 0224 0E       		.uleb128 0xe
 10822 0225 3C       		.uleb128 0x3c
 10823 0226 0C       		.uleb128 0xc
 10824 0227 64       		.uleb128 0x64
 10825 0228 13       		.uleb128 0x13
 10826 0229 00       		.byte	0
 10827 022a 00       		.byte	0
 10828 022b 26       		.uleb128 0x26
 10829 022c 0D       		.uleb128 0xd
 10830 022d 00       		.byte	0
 10831 022e 03       		.uleb128 0x3
 10832 022f 08       		.uleb128 0x8
 10833 0230 3A       		.uleb128 0x3a
 10834 0231 0B       		.uleb128 0xb
 10835 0232 3B       		.uleb128 0x3b
 10836 0233 05       		.uleb128 0x5
 10837 0234 49       		.uleb128 0x49
 10838 0235 13       		.uleb128 0x13
 10839 0236 38       		.uleb128 0x38
 10840 0237 0A       		.uleb128 0xa
 10841 0238 32       		.uleb128 0x32
 10842 0239 0B       		.uleb128 0xb
 10843 023a 00       		.byte	0
 10844 023b 00       		.byte	0
 10845 023c 27       		.uleb128 0x27
 10846 023d 2E       		.uleb128 0x2e
 10847 023e 01       		.byte	0x1
 10848 023f 3F       		.uleb128 0x3f
 10849 0240 0C       		.uleb128 0xc
 10850 0241 03       		.uleb128 0x3
 10851 0242 08       		.uleb128 0x8
 10852 0243 3A       		.uleb128 0x3a
 10853 0244 0B       		.uleb128 0xb
 10854 0245 3B       		.uleb128 0x3b
 10855 0246 05       		.uleb128 0x5
 10856 0247 8740     		.uleb128 0x2007
 10857 0249 0E       		.uleb128 0xe
 10858 024a 49       		.uleb128 0x49
 10859 024b 13       		.uleb128 0x13
 10860 024c 3C       		.uleb128 0x3c
 10861 024d 0C       		.uleb128 0xc
 10862 024e 64       		.uleb128 0x64
 10863 024f 13       		.uleb128 0x13
 10864 0250 01       		.uleb128 0x1
 10865 0251 13       		.uleb128 0x13
 10866 0252 00       		.byte	0
ARM GAS  /tmp/ccq01laD.s 			page 196


 10867 0253 00       		.byte	0
 10868 0254 28       		.uleb128 0x28
 10869 0255 02       		.uleb128 0x2
 10870 0256 01       		.byte	0x1
 10871 0257 47       		.uleb128 0x47
 10872 0258 13       		.uleb128 0x13
 10873 0259 0B       		.uleb128 0xb
 10874 025a 0B       		.uleb128 0xb
 10875 025b 3A       		.uleb128 0x3a
 10876 025c 0B       		.uleb128 0xb
 10877 025d 3B       		.uleb128 0x3b
 10878 025e 05       		.uleb128 0x5
 10879 025f 1D       		.uleb128 0x1d
 10880 0260 13       		.uleb128 0x13
 10881 0261 01       		.uleb128 0x1
 10882 0262 13       		.uleb128 0x13
 10883 0263 00       		.byte	0
 10884 0264 00       		.byte	0
 10885 0265 29       		.uleb128 0x29
 10886 0266 1C       		.uleb128 0x1c
 10887 0267 00       		.byte	0
 10888 0268 49       		.uleb128 0x49
 10889 0269 13       		.uleb128 0x13
 10890 026a 38       		.uleb128 0x38
 10891 026b 0A       		.uleb128 0xa
 10892 026c 32       		.uleb128 0x32
 10893 026d 0B       		.uleb128 0xb
 10894 026e 00       		.byte	0
 10895 026f 00       		.byte	0
 10896 0270 2A       		.uleb128 0x2a
 10897 0271 2E       		.uleb128 0x2e
 10898 0272 01       		.byte	0x1
 10899 0273 3F       		.uleb128 0x3f
 10900 0274 0C       		.uleb128 0xc
 10901 0275 03       		.uleb128 0x3
 10902 0276 0E       		.uleb128 0xe
 10903 0277 49       		.uleb128 0x49
 10904 0278 13       		.uleb128 0x13
 10905 0279 34       		.uleb128 0x34
 10906 027a 0C       		.uleb128 0xc
 10907 027b 3C       		.uleb128 0x3c
 10908 027c 0C       		.uleb128 0xc
 10909 027d 64       		.uleb128 0x64
 10910 027e 13       		.uleb128 0x13
 10911 027f 01       		.uleb128 0x1
 10912 0280 13       		.uleb128 0x13
 10913 0281 00       		.byte	0
 10914 0282 00       		.byte	0
 10915 0283 2B       		.uleb128 0x2b
 10916 0284 2E       		.uleb128 0x2e
 10917 0285 01       		.byte	0x1
 10918 0286 3F       		.uleb128 0x3f
 10919 0287 0C       		.uleb128 0xc
 10920 0288 03       		.uleb128 0x3
 10921 0289 0E       		.uleb128 0xe
 10922 028a 3A       		.uleb128 0x3a
 10923 028b 0B       		.uleb128 0xb
ARM GAS  /tmp/ccq01laD.s 			page 197


 10924 028c 3B       		.uleb128 0x3b
 10925 028d 05       		.uleb128 0x5
 10926 028e 8740     		.uleb128 0x2007
 10927 0290 0E       		.uleb128 0xe
 10928 0291 49       		.uleb128 0x49
 10929 0292 13       		.uleb128 0x13
 10930 0293 4C       		.uleb128 0x4c
 10931 0294 0B       		.uleb128 0xb
 10932 0295 4D       		.uleb128 0x4d
 10933 0296 0A       		.uleb128 0xa
 10934 0297 1D       		.uleb128 0x1d
 10935 0298 13       		.uleb128 0x13
 10936 0299 3C       		.uleb128 0x3c
 10937 029a 0C       		.uleb128 0xc
 10938 029b 64       		.uleb128 0x64
 10939 029c 13       		.uleb128 0x13
 10940 029d 01       		.uleb128 0x1
 10941 029e 13       		.uleb128 0x13
 10942 029f 00       		.byte	0
 10943 02a0 00       		.byte	0
 10944 02a1 2C       		.uleb128 0x2c
 10945 02a2 2E       		.uleb128 0x2e
 10946 02a3 01       		.byte	0x1
 10947 02a4 3F       		.uleb128 0x3f
 10948 02a5 0C       		.uleb128 0xc
 10949 02a6 03       		.uleb128 0x3
 10950 02a7 0E       		.uleb128 0xe
 10951 02a8 3A       		.uleb128 0x3a
 10952 02a9 0B       		.uleb128 0xb
 10953 02aa 3B       		.uleb128 0x3b
 10954 02ab 05       		.uleb128 0x5
 10955 02ac 8740     		.uleb128 0x2007
 10956 02ae 0E       		.uleb128 0xe
 10957 02af 3C       		.uleb128 0x3c
 10958 02b0 0C       		.uleb128 0xc
 10959 02b1 01       		.uleb128 0x1
 10960 02b2 13       		.uleb128 0x13
 10961 02b3 00       		.byte	0
 10962 02b4 00       		.byte	0
 10963 02b5 2D       		.uleb128 0x2d
 10964 02b6 2E       		.uleb128 0x2e
 10965 02b7 01       		.byte	0x1
 10966 02b8 3F       		.uleb128 0x3f
 10967 02b9 0C       		.uleb128 0xc
 10968 02ba 03       		.uleb128 0x3
 10969 02bb 0E       		.uleb128 0xe
 10970 02bc 3A       		.uleb128 0x3a
 10971 02bd 0B       		.uleb128 0xb
 10972 02be 3B       		.uleb128 0x3b
 10973 02bf 05       		.uleb128 0x5
 10974 02c0 8740     		.uleb128 0x2007
 10975 02c2 0E       		.uleb128 0xe
 10976 02c3 49       		.uleb128 0x49
 10977 02c4 13       		.uleb128 0x13
 10978 02c5 3C       		.uleb128 0x3c
 10979 02c6 0C       		.uleb128 0xc
 10980 02c7 01       		.uleb128 0x1
ARM GAS  /tmp/ccq01laD.s 			page 198


 10981 02c8 13       		.uleb128 0x13
 10982 02c9 00       		.byte	0
 10983 02ca 00       		.byte	0
 10984 02cb 2E       		.uleb128 0x2e
 10985 02cc 2E       		.uleb128 0x2e
 10986 02cd 00       		.byte	0
 10987 02ce 3F       		.uleb128 0x3f
 10988 02cf 0C       		.uleb128 0xc
 10989 02d0 03       		.uleb128 0x3
 10990 02d1 0E       		.uleb128 0xe
 10991 02d2 3A       		.uleb128 0x3a
 10992 02d3 0B       		.uleb128 0xb
 10993 02d4 3B       		.uleb128 0x3b
 10994 02d5 05       		.uleb128 0x5
 10995 02d6 8740     		.uleb128 0x2007
 10996 02d8 0E       		.uleb128 0xe
 10997 02d9 49       		.uleb128 0x49
 10998 02da 13       		.uleb128 0x13
 10999 02db 3C       		.uleb128 0x3c
 11000 02dc 0C       		.uleb128 0xc
 11001 02dd 00       		.byte	0
 11002 02de 00       		.byte	0
 11003 02df 2F       		.uleb128 0x2f
 11004 02e0 2E       		.uleb128 0x2e
 11005 02e1 00       		.byte	0
 11006 02e2 3F       		.uleb128 0x3f
 11007 02e3 0C       		.uleb128 0xc
 11008 02e4 03       		.uleb128 0x3
 11009 02e5 0E       		.uleb128 0xe
 11010 02e6 3A       		.uleb128 0x3a
 11011 02e7 0B       		.uleb128 0xb
 11012 02e8 3B       		.uleb128 0x3b
 11013 02e9 05       		.uleb128 0x5
 11014 02ea 8740     		.uleb128 0x2007
 11015 02ec 0E       		.uleb128 0xe
 11016 02ed 3C       		.uleb128 0x3c
 11017 02ee 0C       		.uleb128 0xc
 11018 02ef 00       		.byte	0
 11019 02f0 00       		.byte	0
 11020 02f1 30       		.uleb128 0x30
 11021 02f2 10       		.uleb128 0x10
 11022 02f3 00       		.byte	0
 11023 02f4 0B       		.uleb128 0xb
 11024 02f5 0B       		.uleb128 0xb
 11025 02f6 49       		.uleb128 0x49
 11026 02f7 13       		.uleb128 0x13
 11027 02f8 00       		.byte	0
 11028 02f9 00       		.byte	0
 11029 02fa 31       		.uleb128 0x31
 11030 02fb 02       		.uleb128 0x2
 11031 02fc 01       		.byte	0x1
 11032 02fd 47       		.uleb128 0x47
 11033 02fe 13       		.uleb128 0x13
 11034 02ff 0B       		.uleb128 0xb
 11035 0300 0B       		.uleb128 0xb
 11036 0301 3A       		.uleb128 0x3a
 11037 0302 0B       		.uleb128 0xb
ARM GAS  /tmp/ccq01laD.s 			page 199


 11038 0303 3B       		.uleb128 0x3b
 11039 0304 0B       		.uleb128 0xb
 11040 0305 1D       		.uleb128 0x1d
 11041 0306 13       		.uleb128 0x13
 11042 0307 01       		.uleb128 0x1
 11043 0308 13       		.uleb128 0x13
 11044 0309 00       		.byte	0
 11045 030a 00       		.byte	0
 11046 030b 32       		.uleb128 0x32
 11047 030c 0D       		.uleb128 0xd
 11048 030d 00       		.byte	0
 11049 030e 03       		.uleb128 0x3
 11050 030f 0E       		.uleb128 0xe
 11051 0310 49       		.uleb128 0x49
 11052 0311 13       		.uleb128 0x13
 11053 0312 38       		.uleb128 0x38
 11054 0313 0A       		.uleb128 0xa
 11055 0314 34       		.uleb128 0x34
 11056 0315 0C       		.uleb128 0xc
 11057 0316 00       		.byte	0
 11058 0317 00       		.byte	0
 11059 0318 33       		.uleb128 0x33
 11060 0319 2E       		.uleb128 0x2e
 11061 031a 01       		.byte	0x1
 11062 031b 3F       		.uleb128 0x3f
 11063 031c 0C       		.uleb128 0xc
 11064 031d 03       		.uleb128 0x3
 11065 031e 0E       		.uleb128 0xe
 11066 031f 3A       		.uleb128 0x3a
 11067 0320 0B       		.uleb128 0xb
 11068 0321 3B       		.uleb128 0x3b
 11069 0322 0B       		.uleb128 0xb
 11070 0323 49       		.uleb128 0x49
 11071 0324 13       		.uleb128 0x13
 11072 0325 3C       		.uleb128 0x3c
 11073 0326 0C       		.uleb128 0xc
 11074 0327 64       		.uleb128 0x64
 11075 0328 13       		.uleb128 0x13
 11076 0329 01       		.uleb128 0x1
 11077 032a 13       		.uleb128 0x13
 11078 032b 00       		.byte	0
 11079 032c 00       		.byte	0
 11080 032d 34       		.uleb128 0x34
 11081 032e 2E       		.uleb128 0x2e
 11082 032f 01       		.byte	0x1
 11083 0330 3F       		.uleb128 0x3f
 11084 0331 0C       		.uleb128 0xc
 11085 0332 03       		.uleb128 0x3
 11086 0333 0E       		.uleb128 0xe
 11087 0334 3A       		.uleb128 0x3a
 11088 0335 0B       		.uleb128 0xb
 11089 0336 3B       		.uleb128 0x3b
 11090 0337 0B       		.uleb128 0xb
 11091 0338 8740     		.uleb128 0x2007
 11092 033a 0E       		.uleb128 0xe
 11093 033b 4C       		.uleb128 0x4c
 11094 033c 0B       		.uleb128 0xb
ARM GAS  /tmp/ccq01laD.s 			page 200


 11095 033d 4D       		.uleb128 0x4d
 11096 033e 0A       		.uleb128 0xa
 11097 033f 1D       		.uleb128 0x1d
 11098 0340 13       		.uleb128 0x13
 11099 0341 3C       		.uleb128 0x3c
 11100 0342 0C       		.uleb128 0xc
 11101 0343 64       		.uleb128 0x64
 11102 0344 13       		.uleb128 0x13
 11103 0345 01       		.uleb128 0x1
 11104 0346 13       		.uleb128 0x13
 11105 0347 00       		.byte	0
 11106 0348 00       		.byte	0
 11107 0349 35       		.uleb128 0x35
 11108 034a 2E       		.uleb128 0x2e
 11109 034b 01       		.byte	0x1
 11110 034c 3F       		.uleb128 0x3f
 11111 034d 0C       		.uleb128 0xc
 11112 034e 03       		.uleb128 0x3
 11113 034f 0E       		.uleb128 0xe
 11114 0350 3A       		.uleb128 0x3a
 11115 0351 0B       		.uleb128 0xb
 11116 0352 3B       		.uleb128 0x3b
 11117 0353 0B       		.uleb128 0xb
 11118 0354 8740     		.uleb128 0x2007
 11119 0356 0E       		.uleb128 0xe
 11120 0357 49       		.uleb128 0x49
 11121 0358 13       		.uleb128 0x13
 11122 0359 3C       		.uleb128 0x3c
 11123 035a 0C       		.uleb128 0xc
 11124 035b 64       		.uleb128 0x64
 11125 035c 13       		.uleb128 0x13
 11126 035d 01       		.uleb128 0x1
 11127 035e 13       		.uleb128 0x13
 11128 035f 00       		.byte	0
 11129 0360 00       		.byte	0
 11130 0361 36       		.uleb128 0x36
 11131 0362 2E       		.uleb128 0x2e
 11132 0363 01       		.byte	0x1
 11133 0364 3F       		.uleb128 0x3f
 11134 0365 0C       		.uleb128 0xc
 11135 0366 03       		.uleb128 0x3
 11136 0367 0E       		.uleb128 0xe
 11137 0368 3A       		.uleb128 0x3a
 11138 0369 0B       		.uleb128 0xb
 11139 036a 3B       		.uleb128 0x3b
 11140 036b 0B       		.uleb128 0xb
 11141 036c 8740     		.uleb128 0x2007
 11142 036e 0E       		.uleb128 0xe
 11143 036f 3C       		.uleb128 0x3c
 11144 0370 0C       		.uleb128 0xc
 11145 0371 64       		.uleb128 0x64
 11146 0372 13       		.uleb128 0x13
 11147 0373 00       		.byte	0
 11148 0374 00       		.byte	0
 11149 0375 37       		.uleb128 0x37
 11150 0376 18       		.uleb128 0x18
 11151 0377 00       		.byte	0
ARM GAS  /tmp/ccq01laD.s 			page 201


 11152 0378 00       		.byte	0
 11153 0379 00       		.byte	0
 11154 037a 38       		.uleb128 0x38
 11155 037b 0F       		.uleb128 0xf
 11156 037c 00       		.byte	0
 11157 037d 0B       		.uleb128 0xb
 11158 037e 0B       		.uleb128 0xb
 11159 037f 03       		.uleb128 0x3
 11160 0380 0E       		.uleb128 0xe
 11161 0381 49       		.uleb128 0x49
 11162 0382 13       		.uleb128 0x13
 11163 0383 00       		.byte	0
 11164 0384 00       		.byte	0
 11165 0385 39       		.uleb128 0x39
 11166 0386 2E       		.uleb128 0x2e
 11167 0387 01       		.byte	0x1
 11168 0388 47       		.uleb128 0x47
 11169 0389 13       		.uleb128 0x13
 11170 038a 20       		.uleb128 0x20
 11171 038b 0B       		.uleb128 0xb
 11172 038c 64       		.uleb128 0x64
 11173 038d 13       		.uleb128 0x13
 11174 038e 01       		.uleb128 0x1
 11175 038f 13       		.uleb128 0x13
 11176 0390 00       		.byte	0
 11177 0391 00       		.byte	0
 11178 0392 3A       		.uleb128 0x3a
 11179 0393 05       		.uleb128 0x5
 11180 0394 00       		.byte	0
 11181 0395 03       		.uleb128 0x3
 11182 0396 0E       		.uleb128 0xe
 11183 0397 49       		.uleb128 0x49
 11184 0398 13       		.uleb128 0x13
 11185 0399 34       		.uleb128 0x34
 11186 039a 0C       		.uleb128 0xc
 11187 039b 00       		.byte	0
 11188 039c 00       		.byte	0
 11189 039d 3B       		.uleb128 0x3b
 11190 039e 05       		.uleb128 0x5
 11191 039f 00       		.byte	0
 11192 03a0 03       		.uleb128 0x3
 11193 03a1 08       		.uleb128 0x8
 11194 03a2 3A       		.uleb128 0x3a
 11195 03a3 0B       		.uleb128 0xb
 11196 03a4 3B       		.uleb128 0x3b
 11197 03a5 0B       		.uleb128 0xb
 11198 03a6 49       		.uleb128 0x49
 11199 03a7 13       		.uleb128 0x13
 11200 03a8 00       		.byte	0
 11201 03a9 00       		.byte	0
 11202 03aa 3C       		.uleb128 0x3c
 11203 03ab 2E       		.uleb128 0x2e
 11204 03ac 01       		.byte	0x1
 11205 03ad 47       		.uleb128 0x47
 11206 03ae 13       		.uleb128 0x13
 11207 03af 3A       		.uleb128 0x3a
 11208 03b0 0B       		.uleb128 0xb
ARM GAS  /tmp/ccq01laD.s 			page 202


 11209 03b1 3B       		.uleb128 0x3b
 11210 03b2 0B       		.uleb128 0xb
 11211 03b3 20       		.uleb128 0x20
 11212 03b4 0B       		.uleb128 0xb
 11213 03b5 64       		.uleb128 0x64
 11214 03b6 13       		.uleb128 0x13
 11215 03b7 01       		.uleb128 0x1
 11216 03b8 13       		.uleb128 0x13
 11217 03b9 00       		.byte	0
 11218 03ba 00       		.byte	0
 11219 03bb 3D       		.uleb128 0x3d
 11220 03bc 2E       		.uleb128 0x2e
 11221 03bd 01       		.byte	0x1
 11222 03be 47       		.uleb128 0x47
 11223 03bf 13       		.uleb128 0x13
 11224 03c0 11       		.uleb128 0x11
 11225 03c1 01       		.uleb128 0x1
 11226 03c2 12       		.uleb128 0x12
 11227 03c3 01       		.uleb128 0x1
 11228 03c4 40       		.uleb128 0x40
 11229 03c5 0A       		.uleb128 0xa
 11230 03c6 64       		.uleb128 0x64
 11231 03c7 13       		.uleb128 0x13
 11232 03c8 01       		.uleb128 0x1
 11233 03c9 13       		.uleb128 0x13
 11234 03ca 00       		.byte	0
 11235 03cb 00       		.byte	0
 11236 03cc 3E       		.uleb128 0x3e
 11237 03cd 05       		.uleb128 0x5
 11238 03ce 00       		.byte	0
 11239 03cf 03       		.uleb128 0x3
 11240 03d0 0E       		.uleb128 0xe
 11241 03d1 49       		.uleb128 0x49
 11242 03d2 13       		.uleb128 0x13
 11243 03d3 34       		.uleb128 0x34
 11244 03d4 0C       		.uleb128 0xc
 11245 03d5 02       		.uleb128 0x2
 11246 03d6 06       		.uleb128 0x6
 11247 03d7 00       		.byte	0
 11248 03d8 00       		.byte	0
 11249 03d9 3F       		.uleb128 0x3f
 11250 03da 05       		.uleb128 0x5
 11251 03db 00       		.byte	0
 11252 03dc 03       		.uleb128 0x3
 11253 03dd 0E       		.uleb128 0xe
 11254 03de 49       		.uleb128 0x49
 11255 03df 13       		.uleb128 0x13
 11256 03e0 34       		.uleb128 0x34
 11257 03e1 0C       		.uleb128 0xc
 11258 03e2 02       		.uleb128 0x2
 11259 03e3 0A       		.uleb128 0xa
 11260 03e4 00       		.byte	0
 11261 03e5 00       		.byte	0
 11262 03e6 40       		.uleb128 0x40
 11263 03e7 05       		.uleb128 0x5
 11264 03e8 00       		.byte	0
 11265 03e9 03       		.uleb128 0x3
ARM GAS  /tmp/ccq01laD.s 			page 203


 11266 03ea 0E       		.uleb128 0xe
 11267 03eb 3A       		.uleb128 0x3a
 11268 03ec 0B       		.uleb128 0xb
 11269 03ed 3B       		.uleb128 0x3b
 11270 03ee 05       		.uleb128 0x5
 11271 03ef 49       		.uleb128 0x49
 11272 03f0 13       		.uleb128 0x13
 11273 03f1 02       		.uleb128 0x2
 11274 03f2 06       		.uleb128 0x6
 11275 03f3 00       		.byte	0
 11276 03f4 00       		.byte	0
 11277 03f5 41       		.uleb128 0x41
 11278 03f6 1D       		.uleb128 0x1d
 11279 03f7 01       		.byte	0x1
 11280 03f8 31       		.uleb128 0x31
 11281 03f9 13       		.uleb128 0x13
 11282 03fa 11       		.uleb128 0x11
 11283 03fb 01       		.uleb128 0x1
 11284 03fc 12       		.uleb128 0x12
 11285 03fd 01       		.uleb128 0x1
 11286 03fe 58       		.uleb128 0x58
 11287 03ff 0B       		.uleb128 0xb
 11288 0400 59       		.uleb128 0x59
 11289 0401 05       		.uleb128 0x5
 11290 0402 00       		.byte	0
 11291 0403 00       		.byte	0
 11292 0404 42       		.uleb128 0x42
 11293 0405 05       		.uleb128 0x5
 11294 0406 00       		.byte	0
 11295 0407 31       		.uleb128 0x31
 11296 0408 13       		.uleb128 0x13
 11297 0409 02       		.uleb128 0x2
 11298 040a 0A       		.uleb128 0xa
 11299 040b 00       		.byte	0
 11300 040c 00       		.byte	0
 11301 040d 43       		.uleb128 0x43
 11302 040e 2E       		.uleb128 0x2e
 11303 040f 00       		.byte	0
 11304 0410 47       		.uleb128 0x47
 11305 0411 13       		.uleb128 0x13
 11306 0412 3A       		.uleb128 0x3a
 11307 0413 0B       		.uleb128 0xb
 11308 0414 3B       		.uleb128 0x3b
 11309 0415 0B       		.uleb128 0xb
 11310 0416 11       		.uleb128 0x11
 11311 0417 01       		.uleb128 0x1
 11312 0418 12       		.uleb128 0x12
 11313 0419 01       		.uleb128 0x1
 11314 041a 40       		.uleb128 0x40
 11315 041b 0A       		.uleb128 0xa
 11316 041c 00       		.byte	0
 11317 041d 00       		.byte	0
 11318 041e 44       		.uleb128 0x44
 11319 041f 2E       		.uleb128 0x2e
 11320 0420 01       		.byte	0x1
 11321 0421 47       		.uleb128 0x47
 11322 0422 13       		.uleb128 0x13
ARM GAS  /tmp/ccq01laD.s 			page 204


 11323 0423 3A       		.uleb128 0x3a
 11324 0424 0B       		.uleb128 0xb
 11325 0425 3B       		.uleb128 0x3b
 11326 0426 0B       		.uleb128 0xb
 11327 0427 11       		.uleb128 0x11
 11328 0428 01       		.uleb128 0x1
 11329 0429 12       		.uleb128 0x12
 11330 042a 01       		.uleb128 0x1
 11331 042b 40       		.uleb128 0x40
 11332 042c 0A       		.uleb128 0xa
 11333 042d 01       		.uleb128 0x1
 11334 042e 13       		.uleb128 0x13
 11335 042f 00       		.byte	0
 11336 0430 00       		.byte	0
 11337 0431 45       		.uleb128 0x45
 11338 0432 0B       		.uleb128 0xb
 11339 0433 01       		.byte	0x1
 11340 0434 11       		.uleb128 0x11
 11341 0435 01       		.uleb128 0x1
 11342 0436 12       		.uleb128 0x12
 11343 0437 01       		.uleb128 0x1
 11344 0438 00       		.byte	0
 11345 0439 00       		.byte	0
 11346 043a 46       		.uleb128 0x46
 11347 043b 34       		.uleb128 0x34
 11348 043c 00       		.byte	0
 11349 043d 03       		.uleb128 0x3
 11350 043e 08       		.uleb128 0x8
 11351 043f 3A       		.uleb128 0x3a
 11352 0440 0B       		.uleb128 0xb
 11353 0441 3B       		.uleb128 0x3b
 11354 0442 0B       		.uleb128 0xb
 11355 0443 49       		.uleb128 0x49
 11356 0444 13       		.uleb128 0x13
 11357 0445 02       		.uleb128 0x2
 11358 0446 06       		.uleb128 0x6
 11359 0447 00       		.byte	0
 11360 0448 00       		.byte	0
 11361 0449 47       		.uleb128 0x47
 11362 044a 2E       		.uleb128 0x2e
 11363 044b 01       		.byte	0x1
 11364 044c 47       		.uleb128 0x47
 11365 044d 13       		.uleb128 0x13
 11366 044e 3A       		.uleb128 0x3a
 11367 044f 0B       		.uleb128 0xb
 11368 0450 3B       		.uleb128 0x3b
 11369 0451 0B       		.uleb128 0xb
 11370 0452 11       		.uleb128 0x11
 11371 0453 01       		.uleb128 0x1
 11372 0454 12       		.uleb128 0x12
 11373 0455 01       		.uleb128 0x1
 11374 0456 40       		.uleb128 0x40
 11375 0457 06       		.uleb128 0x6
 11376 0458 01       		.uleb128 0x1
 11377 0459 13       		.uleb128 0x13
 11378 045a 00       		.byte	0
 11379 045b 00       		.byte	0
ARM GAS  /tmp/ccq01laD.s 			page 205


 11380 045c 48       		.uleb128 0x48
 11381 045d 05       		.uleb128 0x5
 11382 045e 00       		.byte	0
 11383 045f 03       		.uleb128 0x3
 11384 0460 0E       		.uleb128 0xe
 11385 0461 3A       		.uleb128 0x3a
 11386 0462 0B       		.uleb128 0xb
 11387 0463 3B       		.uleb128 0x3b
 11388 0464 0B       		.uleb128 0xb
 11389 0465 49       		.uleb128 0x49
 11390 0466 13       		.uleb128 0x13
 11391 0467 02       		.uleb128 0x2
 11392 0468 06       		.uleb128 0x6
 11393 0469 00       		.byte	0
 11394 046a 00       		.byte	0
 11395 046b 49       		.uleb128 0x49
 11396 046c 05       		.uleb128 0x5
 11397 046d 00       		.byte	0
 11398 046e 03       		.uleb128 0x3
 11399 046f 08       		.uleb128 0x8
 11400 0470 3A       		.uleb128 0x3a
 11401 0471 0B       		.uleb128 0xb
 11402 0472 3B       		.uleb128 0x3b
 11403 0473 0B       		.uleb128 0xb
 11404 0474 49       		.uleb128 0x49
 11405 0475 13       		.uleb128 0x13
 11406 0476 02       		.uleb128 0x2
 11407 0477 06       		.uleb128 0x6
 11408 0478 00       		.byte	0
 11409 0479 00       		.byte	0
 11410 047a 4A       		.uleb128 0x4a
 11411 047b 2E       		.uleb128 0x2e
 11412 047c 01       		.byte	0x1
 11413 047d 47       		.uleb128 0x47
 11414 047e 13       		.uleb128 0x13
 11415 047f 3A       		.uleb128 0x3a
 11416 0480 0B       		.uleb128 0xb
 11417 0481 3B       		.uleb128 0x3b
 11418 0482 0B       		.uleb128 0xb
 11419 0483 11       		.uleb128 0x11
 11420 0484 01       		.uleb128 0x1
 11421 0485 12       		.uleb128 0x12
 11422 0486 01       		.uleb128 0x1
 11423 0487 40       		.uleb128 0x40
 11424 0488 0A       		.uleb128 0xa
 11425 0489 64       		.uleb128 0x64
 11426 048a 13       		.uleb128 0x13
 11427 048b 01       		.uleb128 0x1
 11428 048c 13       		.uleb128 0x13
 11429 048d 00       		.byte	0
 11430 048e 00       		.byte	0
 11431 048f 4B       		.uleb128 0x4b
 11432 0490 2E       		.uleb128 0x2e
 11433 0491 01       		.byte	0x1
 11434 0492 47       		.uleb128 0x47
 11435 0493 13       		.uleb128 0x13
 11436 0494 11       		.uleb128 0x11
ARM GAS  /tmp/ccq01laD.s 			page 206


 11437 0495 01       		.uleb128 0x1
 11438 0496 12       		.uleb128 0x12
 11439 0497 01       		.uleb128 0x1
 11440 0498 40       		.uleb128 0x40
 11441 0499 06       		.uleb128 0x6
 11442 049a 64       		.uleb128 0x64
 11443 049b 13       		.uleb128 0x13
 11444 049c 01       		.uleb128 0x1
 11445 049d 13       		.uleb128 0x13
 11446 049e 00       		.byte	0
 11447 049f 00       		.byte	0
 11448 04a0 4C       		.uleb128 0x4c
 11449 04a1 0B       		.uleb128 0xb
 11450 04a2 01       		.byte	0x1
 11451 04a3 55       		.uleb128 0x55
 11452 04a4 06       		.uleb128 0x6
 11453 04a5 00       		.byte	0
 11454 04a6 00       		.byte	0
 11455 04a7 4D       		.uleb128 0x4d
 11456 04a8 0B       		.uleb128 0xb
 11457 04a9 01       		.byte	0x1
 11458 04aa 55       		.uleb128 0x55
 11459 04ab 06       		.uleb128 0x6
 11460 04ac 01       		.uleb128 0x1
 11461 04ad 13       		.uleb128 0x13
 11462 04ae 00       		.byte	0
 11463 04af 00       		.byte	0
 11464 04b0 4E       		.uleb128 0x4e
 11465 04b1 0B       		.uleb128 0xb
 11466 04b2 01       		.byte	0x1
 11467 04b3 11       		.uleb128 0x11
 11468 04b4 01       		.uleb128 0x1
 11469 04b5 12       		.uleb128 0x12
 11470 04b6 01       		.uleb128 0x1
 11471 04b7 01       		.uleb128 0x1
 11472 04b8 13       		.uleb128 0x13
 11473 04b9 00       		.byte	0
 11474 04ba 00       		.byte	0
 11475 04bb 4F       		.uleb128 0x4f
 11476 04bc 2E       		.uleb128 0x2e
 11477 04bd 01       		.byte	0x1
 11478 04be 31       		.uleb128 0x31
 11479 04bf 13       		.uleb128 0x13
 11480 04c0 11       		.uleb128 0x11
 11481 04c1 01       		.uleb128 0x1
 11482 04c2 12       		.uleb128 0x12
 11483 04c3 01       		.uleb128 0x1
 11484 04c4 40       		.uleb128 0x40
 11485 04c5 0A       		.uleb128 0xa
 11486 04c6 64       		.uleb128 0x64
 11487 04c7 13       		.uleb128 0x13
 11488 04c8 01       		.uleb128 0x1
 11489 04c9 13       		.uleb128 0x13
 11490 04ca 00       		.byte	0
 11491 04cb 00       		.byte	0
 11492 04cc 50       		.uleb128 0x50
 11493 04cd 05       		.uleb128 0x5
ARM GAS  /tmp/ccq01laD.s 			page 207


 11494 04ce 00       		.byte	0
 11495 04cf 31       		.uleb128 0x31
 11496 04d0 13       		.uleb128 0x13
 11497 04d1 1C       		.uleb128 0x1c
 11498 04d2 0B       		.uleb128 0xb
 11499 04d3 00       		.byte	0
 11500 04d4 00       		.byte	0
 11501 04d5 51       		.uleb128 0x51
 11502 04d6 2E       		.uleb128 0x2e
 11503 04d7 01       		.byte	0x1
 11504 04d8 47       		.uleb128 0x47
 11505 04d9 13       		.uleb128 0x13
 11506 04da 11       		.uleb128 0x11
 11507 04db 01       		.uleb128 0x1
 11508 04dc 12       		.uleb128 0x12
 11509 04dd 01       		.uleb128 0x1
 11510 04de 40       		.uleb128 0x40
 11511 04df 06       		.uleb128 0x6
 11512 04e0 01       		.uleb128 0x1
 11513 04e1 13       		.uleb128 0x13
 11514 04e2 00       		.byte	0
 11515 04e3 00       		.byte	0
 11516 04e4 52       		.uleb128 0x52
 11517 04e5 05       		.uleb128 0x5
 11518 04e6 00       		.byte	0
 11519 04e7 03       		.uleb128 0x3
 11520 04e8 08       		.uleb128 0x8
 11521 04e9 3A       		.uleb128 0x3a
 11522 04ea 0B       		.uleb128 0xb
 11523 04eb 3B       		.uleb128 0x3b
 11524 04ec 05       		.uleb128 0x5
 11525 04ed 49       		.uleb128 0x49
 11526 04ee 13       		.uleb128 0x13
 11527 04ef 02       		.uleb128 0x2
 11528 04f0 06       		.uleb128 0x6
 11529 04f1 00       		.byte	0
 11530 04f2 00       		.byte	0
 11531 04f3 53       		.uleb128 0x53
 11532 04f4 2E       		.uleb128 0x2e
 11533 04f5 01       		.byte	0x1
 11534 04f6 47       		.uleb128 0x47
 11535 04f7 13       		.uleb128 0x13
 11536 04f8 11       		.uleb128 0x11
 11537 04f9 01       		.uleb128 0x1
 11538 04fa 12       		.uleb128 0x12
 11539 04fb 01       		.uleb128 0x1
 11540 04fc 40       		.uleb128 0x40
 11541 04fd 0A       		.uleb128 0xa
 11542 04fe 01       		.uleb128 0x1
 11543 04ff 13       		.uleb128 0x13
 11544 0500 00       		.byte	0
 11545 0501 00       		.byte	0
 11546 0502 54       		.uleb128 0x54
 11547 0503 05       		.uleb128 0x5
 11548 0504 00       		.byte	0
 11549 0505 03       		.uleb128 0x3
 11550 0506 0E       		.uleb128 0xe
ARM GAS  /tmp/ccq01laD.s 			page 208


 11551 0507 3A       		.uleb128 0x3a
 11552 0508 0B       		.uleb128 0xb
 11553 0509 3B       		.uleb128 0x3b
 11554 050a 05       		.uleb128 0x5
 11555 050b 49       		.uleb128 0x49
 11556 050c 13       		.uleb128 0x13
 11557 050d 02       		.uleb128 0x2
 11558 050e 0A       		.uleb128 0xa
 11559 050f 00       		.byte	0
 11560 0510 00       		.byte	0
 11561 0511 55       		.uleb128 0x55
 11562 0512 2E       		.uleb128 0x2e
 11563 0513 00       		.byte	0
 11564 0514 47       		.uleb128 0x47
 11565 0515 13       		.uleb128 0x13
 11566 0516 11       		.uleb128 0x11
 11567 0517 01       		.uleb128 0x1
 11568 0518 12       		.uleb128 0x12
 11569 0519 01       		.uleb128 0x1
 11570 051a 40       		.uleb128 0x40
 11571 051b 0A       		.uleb128 0xa
 11572 051c 00       		.byte	0
 11573 051d 00       		.byte	0
 11574 051e 56       		.uleb128 0x56
 11575 051f 34       		.uleb128 0x34
 11576 0520 00       		.byte	0
 11577 0521 03       		.uleb128 0x3
 11578 0522 08       		.uleb128 0x8
 11579 0523 3A       		.uleb128 0x3a
 11580 0524 0B       		.uleb128 0xb
 11581 0525 3B       		.uleb128 0x3b
 11582 0526 05       		.uleb128 0x5
 11583 0527 49       		.uleb128 0x49
 11584 0528 13       		.uleb128 0x13
 11585 0529 02       		.uleb128 0x2
 11586 052a 06       		.uleb128 0x6
 11587 052b 00       		.byte	0
 11588 052c 00       		.byte	0
 11589 052d 57       		.uleb128 0x57
 11590 052e 05       		.uleb128 0x5
 11591 052f 00       		.byte	0
 11592 0530 31       		.uleb128 0x31
 11593 0531 13       		.uleb128 0x13
 11594 0532 02       		.uleb128 0x2
 11595 0533 06       		.uleb128 0x6
 11596 0534 00       		.byte	0
 11597 0535 00       		.byte	0
 11598 0536 58       		.uleb128 0x58
 11599 0537 2E       		.uleb128 0x2e
 11600 0538 01       		.byte	0x1
 11601 0539 47       		.uleb128 0x47
 11602 053a 13       		.uleb128 0x13
 11603 053b 3A       		.uleb128 0x3a
 11604 053c 0B       		.uleb128 0xb
 11605 053d 3B       		.uleb128 0x3b
 11606 053e 05       		.uleb128 0x5
 11607 053f 20       		.uleb128 0x20
ARM GAS  /tmp/ccq01laD.s 			page 209


 11608 0540 0B       		.uleb128 0xb
 11609 0541 64       		.uleb128 0x64
 11610 0542 13       		.uleb128 0x13
 11611 0543 01       		.uleb128 0x1
 11612 0544 13       		.uleb128 0x13
 11613 0545 00       		.byte	0
 11614 0546 00       		.byte	0
 11615 0547 59       		.uleb128 0x59
 11616 0548 05       		.uleb128 0x5
 11617 0549 00       		.byte	0
 11618 054a 03       		.uleb128 0x3
 11619 054b 08       		.uleb128 0x8
 11620 054c 3A       		.uleb128 0x3a
 11621 054d 0B       		.uleb128 0xb
 11622 054e 3B       		.uleb128 0x3b
 11623 054f 05       		.uleb128 0x5
 11624 0550 49       		.uleb128 0x49
 11625 0551 13       		.uleb128 0x13
 11626 0552 00       		.byte	0
 11627 0553 00       		.byte	0
 11628 0554 5A       		.uleb128 0x5a
 11629 0555 2E       		.uleb128 0x2e
 11630 0556 01       		.byte	0x1
 11631 0557 31       		.uleb128 0x31
 11632 0558 13       		.uleb128 0x13
 11633 0559 11       		.uleb128 0x11
 11634 055a 01       		.uleb128 0x1
 11635 055b 12       		.uleb128 0x12
 11636 055c 01       		.uleb128 0x1
 11637 055d 40       		.uleb128 0x40
 11638 055e 06       		.uleb128 0x6
 11639 055f 64       		.uleb128 0x64
 11640 0560 13       		.uleb128 0x13
 11641 0561 01       		.uleb128 0x1
 11642 0562 13       		.uleb128 0x13
 11643 0563 00       		.byte	0
 11644 0564 00       		.byte	0
 11645 0565 5B       		.uleb128 0x5b
 11646 0566 2E       		.uleb128 0x2e
 11647 0567 01       		.byte	0x1
 11648 0568 47       		.uleb128 0x47
 11649 0569 13       		.uleb128 0x13
 11650 056a 3A       		.uleb128 0x3a
 11651 056b 0B       		.uleb128 0xb
 11652 056c 3B       		.uleb128 0x3b
 11653 056d 05       		.uleb128 0x5
 11654 056e 11       		.uleb128 0x11
 11655 056f 01       		.uleb128 0x1
 11656 0570 12       		.uleb128 0x12
 11657 0571 01       		.uleb128 0x1
 11658 0572 40       		.uleb128 0x40
 11659 0573 0A       		.uleb128 0xa
 11660 0574 64       		.uleb128 0x64
 11661 0575 13       		.uleb128 0x13
 11662 0576 01       		.uleb128 0x1
 11663 0577 13       		.uleb128 0x13
 11664 0578 00       		.byte	0
ARM GAS  /tmp/ccq01laD.s 			page 210


 11665 0579 00       		.byte	0
 11666 057a 5C       		.uleb128 0x5c
 11667 057b 2E       		.uleb128 0x2e
 11668 057c 01       		.byte	0x1
 11669 057d 47       		.uleb128 0x47
 11670 057e 13       		.uleb128 0x13
 11671 057f 3A       		.uleb128 0x3a
 11672 0580 0B       		.uleb128 0xb
 11673 0581 3B       		.uleb128 0x3b
 11674 0582 05       		.uleb128 0x5
 11675 0583 11       		.uleb128 0x11
 11676 0584 01       		.uleb128 0x1
 11677 0585 12       		.uleb128 0x12
 11678 0586 01       		.uleb128 0x1
 11679 0587 40       		.uleb128 0x40
 11680 0588 0A       		.uleb128 0xa
 11681 0589 01       		.uleb128 0x1
 11682 058a 13       		.uleb128 0x13
 11683 058b 00       		.byte	0
 11684 058c 00       		.byte	0
 11685 058d 5D       		.uleb128 0x5d
 11686 058e 05       		.uleb128 0x5
 11687 058f 00       		.byte	0
 11688 0590 03       		.uleb128 0x3
 11689 0591 0E       		.uleb128 0xe
 11690 0592 3A       		.uleb128 0x3a
 11691 0593 0B       		.uleb128 0xb
 11692 0594 3B       		.uleb128 0x3b
 11693 0595 05       		.uleb128 0x5
 11694 0596 49       		.uleb128 0x49
 11695 0597 13       		.uleb128 0x13
 11696 0598 00       		.byte	0
 11697 0599 00       		.byte	0
 11698 059a 5E       		.uleb128 0x5e
 11699 059b 2E       		.uleb128 0x2e
 11700 059c 01       		.byte	0x1
 11701 059d 47       		.uleb128 0x47
 11702 059e 13       		.uleb128 0x13
 11703 059f 3A       		.uleb128 0x3a
 11704 05a0 0B       		.uleb128 0xb
 11705 05a1 3B       		.uleb128 0x3b
 11706 05a2 05       		.uleb128 0x5
 11707 05a3 11       		.uleb128 0x11
 11708 05a4 01       		.uleb128 0x1
 11709 05a5 12       		.uleb128 0x12
 11710 05a6 01       		.uleb128 0x1
 11711 05a7 40       		.uleb128 0x40
 11712 05a8 06       		.uleb128 0x6
 11713 05a9 64       		.uleb128 0x64
 11714 05aa 13       		.uleb128 0x13
 11715 05ab 01       		.uleb128 0x1
 11716 05ac 13       		.uleb128 0x13
 11717 05ad 00       		.byte	0
 11718 05ae 00       		.byte	0
 11719 05af 5F       		.uleb128 0x5f
 11720 05b0 34       		.uleb128 0x34
 11721 05b1 00       		.byte	0
ARM GAS  /tmp/ccq01laD.s 			page 211


 11722 05b2 03       		.uleb128 0x3
 11723 05b3 0E       		.uleb128 0xe
 11724 05b4 3A       		.uleb128 0x3a
 11725 05b5 0B       		.uleb128 0xb
 11726 05b6 3B       		.uleb128 0x3b
 11727 05b7 0B       		.uleb128 0xb
 11728 05b8 49       		.uleb128 0x49
 11729 05b9 13       		.uleb128 0x13
 11730 05ba 3F       		.uleb128 0x3f
 11731 05bb 0C       		.uleb128 0xc
 11732 05bc 3C       		.uleb128 0x3c
 11733 05bd 0C       		.uleb128 0xc
 11734 05be 00       		.byte	0
 11735 05bf 00       		.byte	0
 11736 05c0 00       		.byte	0
 11737              		.section	.debug_loc,"",%progbits
 11738              	.Ldebug_loc0:
 11739              	.LLST0:
 11740 0000 00000000 		.4byte	.LVL0
 11741 0004 02000000 		.4byte	.LVL1
 11742 0008 0100     		.2byte	0x1
 11743 000a 50       		.byte	0x50
 11744 000b 00000000 		.4byte	0
 11745 000f 00000000 		.4byte	0
 11746              	.LLST1:
 11747 0013 00000000 		.4byte	.LVL2
 11748 0017 04000000 		.4byte	.LVL4
 11749 001b 0100     		.2byte	0x1
 11750 001d 52       		.byte	0x52
 11751 001e 00000000 		.4byte	0
 11752 0022 00000000 		.4byte	0
 11753              	.LLST2:
 11754 0026 00000000 		.4byte	.LVL5
 11755 002a 04000000 		.4byte	.LVL6
 11756 002e 0100     		.2byte	0x1
 11757 0030 50       		.byte	0x50
 11758 0031 00000000 		.4byte	0
 11759 0035 00000000 		.4byte	0
 11760              	.LLST3:
 11761 0039 06000000 		.4byte	.LVL8
 11762 003d 09000000 		.4byte	.LVL9-1
 11763 0041 0100     		.2byte	0x1
 11764 0043 53       		.byte	0x53
 11765 0044 00000000 		.4byte	0
 11766 0048 00000000 		.4byte	0
 11767              	.LLST4:
 11768 004c 00000000 		.4byte	.LFB18
 11769 0050 02000000 		.4byte	.LCFI0
 11770 0054 0200     		.2byte	0x2
 11771 0056 7D       		.byte	0x7d
 11772 0057 00       		.sleb128 0
 11773 0058 02000000 		.4byte	.LCFI0
 11774 005c 0E000000 		.4byte	.LFE18
 11775 0060 0200     		.2byte	0x2
 11776 0062 7D       		.byte	0x7d
 11777 0063 08       		.sleb128 8
 11778 0064 00000000 		.4byte	0
ARM GAS  /tmp/ccq01laD.s 			page 212


 11779 0068 00000000 		.4byte	0
 11780              	.LLST5:
 11781 006c 0C000000 		.4byte	.LVL11
 11782 0070 0E000000 		.4byte	.LFE18
 11783 0074 0100     		.2byte	0x1
 11784 0076 53       		.byte	0x53
 11785 0077 00000000 		.4byte	0
 11786 007b 00000000 		.4byte	0
 11787              	.LLST6:
 11788 007f 06000000 		.4byte	.LVL13
 11789 0083 09000000 		.4byte	.LVL14-1
 11790 0087 0100     		.2byte	0x1
 11791 0089 53       		.byte	0x53
 11792 008a 00000000 		.4byte	0
 11793 008e 00000000 		.4byte	0
 11794              	.LLST7:
 11795 0092 00000000 		.4byte	.LFB20
 11796 0096 02000000 		.4byte	.LCFI1
 11797 009a 0200     		.2byte	0x2
 11798 009c 7D       		.byte	0x7d
 11799 009d 00       		.sleb128 0
 11800 009e 02000000 		.4byte	.LCFI1
 11801 00a2 0E000000 		.4byte	.LFE20
 11802 00a6 0200     		.2byte	0x2
 11803 00a8 7D       		.byte	0x7d
 11804 00a9 08       		.sleb128 8
 11805 00aa 00000000 		.4byte	0
 11806 00ae 00000000 		.4byte	0
 11807              	.LLST8:
 11808 00b2 0C000000 		.4byte	.LVL16
 11809 00b6 0E000000 		.4byte	.LFE20
 11810 00ba 0100     		.2byte	0x1
 11811 00bc 53       		.byte	0x53
 11812 00bd 00000000 		.4byte	0
 11813 00c1 00000000 		.4byte	0
 11814              	.LLST9:
 11815 00c5 00000000 		.4byte	.LVL17
 11816 00c9 03000000 		.4byte	.LVL19-1
 11817 00cd 0100     		.2byte	0x1
 11818 00cf 50       		.byte	0x50
 11819 00d0 00000000 		.4byte	0
 11820 00d4 00000000 		.4byte	0
 11821              	.LLST10:
 11822 00d8 00000000 		.4byte	.LVL17
 11823 00dc 03000000 		.4byte	.LVL18-1
 11824 00e0 0100     		.2byte	0x1
 11825 00e2 51       		.byte	0x51
 11826 00e3 00000000 		.4byte	0
 11827 00e7 00000000 		.4byte	0
 11828              	.LLST11:
 11829 00eb 00000000 		.4byte	.LVL20
 11830 00ef 03000000 		.4byte	.LVL21-1
 11831 00f3 0100     		.2byte	0x1
 11832 00f5 50       		.byte	0x50
 11833 00f6 00000000 		.4byte	0
 11834 00fa 00000000 		.4byte	0
 11835              	.LLST12:
ARM GAS  /tmp/ccq01laD.s 			page 213


 11836 00fe 00000000 		.4byte	.LVL22
 11837 0102 03000000 		.4byte	.LVL23-1
 11838 0106 0100     		.2byte	0x1
 11839 0108 50       		.byte	0x50
 11840 0109 00000000 		.4byte	0
 11841 010d 00000000 		.4byte	0
 11842              	.LLST13:
 11843 0111 00000000 		.4byte	.LVL24
 11844 0115 03000000 		.4byte	.LVL28-1
 11845 0119 0100     		.2byte	0x1
 11846 011b 50       		.byte	0x50
 11847 011c 00000000 		.4byte	0
 11848 0120 00000000 		.4byte	0
 11849              	.LLST14:
 11850 0124 00000000 		.4byte	.LVL24
 11851 0128 03000000 		.4byte	.LVL27-1
 11852 012c 0100     		.2byte	0x1
 11853 012e 51       		.byte	0x51
 11854 012f 00000000 		.4byte	0
 11855 0133 00000000 		.4byte	0
 11856              	.LLST15:
 11857 0137 00000000 		.4byte	.LVL24
 11858 013b 03000000 		.4byte	.LVL26-1
 11859 013f 0100     		.2byte	0x1
 11860 0141 52       		.byte	0x52
 11861 0142 00000000 		.4byte	0
 11862 0146 00000000 		.4byte	0
 11863              	.LLST16:
 11864 014a 00000000 		.4byte	.LVL24
 11865 014e 03000000 		.4byte	.LVL25-1
 11866 0152 0100     		.2byte	0x1
 11867 0154 53       		.byte	0x53
 11868 0155 00000000 		.4byte	0
 11869 0159 00000000 		.4byte	0
 11870              	.LLST17:
 11871 015d 00000000 		.4byte	.LVL29
 11872 0161 07000000 		.4byte	.LVL30-1
 11873 0165 0100     		.2byte	0x1
 11874 0167 50       		.byte	0x50
 11875 0168 08000000 		.4byte	.LVL30
 11876 016c 0A000000 		.4byte	.LFE27
 11877 0170 0100     		.2byte	0x1
 11878 0172 50       		.byte	0x50
 11879 0173 00000000 		.4byte	0
 11880 0177 00000000 		.4byte	0
 11881              	.LLST18:
 11882 017b 00000000 		.4byte	.LVL31
 11883 017f 02000000 		.4byte	.LVL32
 11884 0183 0100     		.2byte	0x1
 11885 0185 50       		.byte	0x50
 11886 0186 00000000 		.4byte	0
 11887 018a 00000000 		.4byte	0
 11888              	.LLST19:
 11889 018e 00000000 		.4byte	.LFB30
 11890 0192 02000000 		.4byte	.LCFI2
 11891 0196 0200     		.2byte	0x2
 11892 0198 7D       		.byte	0x7d
ARM GAS  /tmp/ccq01laD.s 			page 214


 11893 0199 00       		.sleb128 0
 11894 019a 02000000 		.4byte	.LCFI2
 11895 019e 40000000 		.4byte	.LFE30
 11896 01a2 0200     		.2byte	0x2
 11897 01a4 7D       		.byte	0x7d
 11898 01a5 08       		.sleb128 8
 11899 01a6 00000000 		.4byte	0
 11900 01aa 00000000 		.4byte	0
 11901              	.LLST20:
 11902 01ae 00000000 		.4byte	.LVL33
 11903 01b2 0D000000 		.4byte	.LVL36-1
 11904 01b6 0100     		.2byte	0x1
 11905 01b8 50       		.byte	0x50
 11906 01b9 0D000000 		.4byte	.LVL36-1
 11907 01bd 22000000 		.4byte	.LVL37
 11908 01c1 0100     		.2byte	0x1
 11909 01c3 54       		.byte	0x54
 11910 01c4 30000000 		.4byte	.LVL41
 11911 01c8 40000000 		.4byte	.LFE30
 11912 01cc 0100     		.2byte	0x1
 11913 01ce 54       		.byte	0x54
 11914 01cf 00000000 		.4byte	0
 11915 01d3 00000000 		.4byte	0
 11916              	.LLST21:
 11917 01d7 22000000 		.4byte	.LVL37
 11918 01db 25000000 		.4byte	.LVL38-1
 11919 01df 0200     		.2byte	0x2
 11920 01e1 70       		.byte	0x70
 11921 01e2 28       		.sleb128 40
 11922 01e3 25000000 		.4byte	.LVL38-1
 11923 01e7 30000000 		.4byte	.LVL41
 11924 01eb 0100     		.2byte	0x1
 11925 01ed 54       		.byte	0x54
 11926 01ee 00000000 		.4byte	0
 11927 01f2 00000000 		.4byte	0
 11928              	.LLST22:
 11929 01f6 0A000000 		.4byte	.LVL35
 11930 01fa 0D000000 		.4byte	.LVL36-1
 11931 01fe 0100     		.2byte	0x1
 11932 0200 53       		.byte	0x53
 11933 0201 00000000 		.4byte	0
 11934 0205 00000000 		.4byte	0
 11935              	.LLST23:
 11936 0209 2C000000 		.4byte	.LVL40
 11937 020d 30000000 		.4byte	.LVL41
 11938 0211 0100     		.2byte	0x1
 11939 0213 53       		.byte	0x53
 11940 0214 00000000 		.4byte	0
 11941 0218 00000000 		.4byte	0
 11942              	.LLST24:
 11943 021c 00000000 		.4byte	.LFB31
 11944 0220 04000000 		.4byte	.LCFI3
 11945 0224 0200     		.2byte	0x2
 11946 0226 7D       		.byte	0x7d
 11947 0227 00       		.sleb128 0
 11948 0228 04000000 		.4byte	.LCFI3
 11949 022c 28000000 		.4byte	.LFE31
ARM GAS  /tmp/ccq01laD.s 			page 215


 11950 0230 0200     		.2byte	0x2
 11951 0232 7D       		.byte	0x7d
 11952 0233 08       		.sleb128 8
 11953 0234 00000000 		.4byte	0
 11954 0238 00000000 		.4byte	0
 11955              	.LLST25:
 11956 023c 00000000 		.4byte	.LVL42
 11957 0240 0A000000 		.4byte	.LVL43
 11958 0244 0100     		.2byte	0x1
 11959 0246 50       		.byte	0x50
 11960 0247 0A000000 		.4byte	.LVL43
 11961 024b 28000000 		.4byte	.LFE31
 11962 024f 0100     		.2byte	0x1
 11963 0251 54       		.byte	0x54
 11964 0252 00000000 		.4byte	0
 11965 0256 00000000 		.4byte	0
 11966              	.LLST26:
 11967 025a 00000000 		.4byte	.LFB32
 11968 025e 02000000 		.4byte	.LCFI4
 11969 0262 0200     		.2byte	0x2
 11970 0264 7D       		.byte	0x7d
 11971 0265 00       		.sleb128 0
 11972 0266 02000000 		.4byte	.LCFI4
 11973 026a 3C000000 		.4byte	.LFE32
 11974 026e 0200     		.2byte	0x2
 11975 0270 7D       		.byte	0x7d
 11976 0271 10       		.sleb128 16
 11977 0272 00000000 		.4byte	0
 11978 0276 00000000 		.4byte	0
 11979              	.LLST27:
 11980 027a 00000000 		.4byte	.LVL44
 11981 027e 0F000000 		.4byte	.LVL47-1
 11982 0282 0100     		.2byte	0x1
 11983 0284 50       		.byte	0x50
 11984 0285 0F000000 		.4byte	.LVL47-1
 11985 0289 3C000000 		.4byte	.LFE32
 11986 028d 0100     		.2byte	0x1
 11987 028f 54       		.byte	0x54
 11988 0290 00000000 		.4byte	0
 11989 0294 00000000 		.4byte	0
 11990              	.LLST28:
 11991 0298 00000000 		.4byte	.LVL44
 11992 029c 0F000000 		.4byte	.LVL47-1
 11993 02a0 0100     		.2byte	0x1
 11994 02a2 51       		.byte	0x51
 11995 02a3 0F000000 		.4byte	.LVL47-1
 11996 02a7 3C000000 		.4byte	.LFE32
 11997 02ab 0100     		.2byte	0x1
 11998 02ad 55       		.byte	0x55
 11999 02ae 00000000 		.4byte	0
 12000 02b2 00000000 		.4byte	0
 12001              	.LLST29:
 12002 02b6 0C000000 		.4byte	.LVL46
 12003 02ba 0F000000 		.4byte	.LVL47-1
 12004 02be 0100     		.2byte	0x1
 12005 02c0 53       		.byte	0x53
 12006 02c1 00000000 		.4byte	0
ARM GAS  /tmp/ccq01laD.s 			page 216


 12007 02c5 00000000 		.4byte	0
 12008              	.LLST30:
 12009 02c9 14000000 		.4byte	.LVL48
 12010 02cd 1D000000 		.4byte	.LVL49-1
 12011 02d1 0100     		.2byte	0x1
 12012 02d3 50       		.byte	0x50
 12013 02d4 00000000 		.4byte	0
 12014 02d8 00000000 		.4byte	0
 12015              	.LLST31:
 12016 02dc 28000000 		.4byte	.LVL51
 12017 02e0 2A000000 		.4byte	.LVL52
 12018 02e4 0100     		.2byte	0x1
 12019 02e6 53       		.byte	0x53
 12020 02e7 00000000 		.4byte	0
 12021 02eb 00000000 		.4byte	0
 12022              	.LLST32:
 12023 02ef 00000000 		.4byte	.LFB33
 12024 02f3 02000000 		.4byte	.LCFI5
 12025 02f7 0200     		.2byte	0x2
 12026 02f9 7D       		.byte	0x7d
 12027 02fa 00       		.sleb128 0
 12028 02fb 02000000 		.4byte	.LCFI5
 12029 02ff 08000000 		.4byte	.LCFI6
 12030 0303 0200     		.2byte	0x2
 12031 0305 7D       		.byte	0x7d
 12032 0306 08       		.sleb128 8
 12033 0307 08000000 		.4byte	.LCFI6
 12034 030b 34000000 		.4byte	.LFE33
 12035 030f 0200     		.2byte	0x2
 12036 0311 7D       		.byte	0x7d
 12037 0312 10       		.sleb128 16
 12038 0313 00000000 		.4byte	0
 12039 0317 00000000 		.4byte	0
 12040              	.LLST33:
 12041 031b 00000000 		.4byte	.LVL53
 12042 031f 06000000 		.4byte	.LVL54
 12043 0323 0100     		.2byte	0x1
 12044 0325 50       		.byte	0x50
 12045 0326 06000000 		.4byte	.LVL54
 12046 032a 34000000 		.4byte	.LFE33
 12047 032e 0100     		.2byte	0x1
 12048 0330 54       		.byte	0x54
 12049 0331 00000000 		.4byte	0
 12050 0335 00000000 		.4byte	0
 12051              	.LLST34:
 12052 0339 00000000 		.4byte	.LVL53
 12053 033d 0A000000 		.4byte	.LVL55
 12054 0341 0100     		.2byte	0x1
 12055 0343 51       		.byte	0x51
 12056 0344 1A000000 		.4byte	.LVL56
 12057 0348 21000000 		.4byte	.LVL57-1
 12058 034c 0100     		.2byte	0x1
 12059 034e 51       		.byte	0x51
 12060 034f 00000000 		.4byte	0
 12061 0353 00000000 		.4byte	0
 12062              	.LLST35:
 12063 0357 0A000000 		.4byte	.LVL55
ARM GAS  /tmp/ccq01laD.s 			page 217


 12064 035b 19000000 		.4byte	.LVL56-1
 12065 035f 0100     		.2byte	0x1
 12066 0361 50       		.byte	0x50
 12067 0362 00000000 		.4byte	0
 12068 0366 00000000 		.4byte	0
 12069              	.LLST36:
 12070 036a 00000000 		.4byte	.LFB34
 12071 036e 02000000 		.4byte	.LCFI7
 12072 0372 0200     		.2byte	0x2
 12073 0374 7D       		.byte	0x7d
 12074 0375 00       		.sleb128 0
 12075 0376 02000000 		.4byte	.LCFI7
 12076 037a 20000000 		.4byte	.LFE34
 12077 037e 0200     		.2byte	0x2
 12078 0380 7D       		.byte	0x7d
 12079 0381 08       		.sleb128 8
 12080 0382 00000000 		.4byte	0
 12081 0386 00000000 		.4byte	0
 12082              	.LLST37:
 12083 038a 00000000 		.4byte	.LVL58
 12084 038e 06000000 		.4byte	.LVL59
 12085 0392 0100     		.2byte	0x1
 12086 0394 50       		.byte	0x50
 12087 0395 06000000 		.4byte	.LVL59
 12088 0399 20000000 		.4byte	.LFE34
 12089 039d 0100     		.2byte	0x1
 12090 039f 54       		.byte	0x54
 12091 03a0 00000000 		.4byte	0
 12092 03a4 00000000 		.4byte	0
 12093              	.LLST38:
 12094 03a8 00000000 		.4byte	.LFB35
 12095 03ac 02000000 		.4byte	.LCFI8
 12096 03b0 0200     		.2byte	0x2
 12097 03b2 7D       		.byte	0x7d
 12098 03b3 00       		.sleb128 0
 12099 03b4 02000000 		.4byte	.LCFI8
 12100 03b8 28000000 		.4byte	.LFE35
 12101 03bc 0200     		.2byte	0x2
 12102 03be 7D       		.byte	0x7d
 12103 03bf 08       		.sleb128 8
 12104 03c0 00000000 		.4byte	0
 12105 03c4 00000000 		.4byte	0
 12106              	.LLST39:
 12107 03c8 00000000 		.4byte	.LVL60
 12108 03cc 06000000 		.4byte	.LVL61
 12109 03d0 0100     		.2byte	0x1
 12110 03d2 50       		.byte	0x50
 12111 03d3 06000000 		.4byte	.LVL61
 12112 03d7 28000000 		.4byte	.LFE35
 12113 03db 0100     		.2byte	0x1
 12114 03dd 54       		.byte	0x54
 12115 03de 00000000 		.4byte	0
 12116 03e2 00000000 		.4byte	0
 12117              	.LLST40:
 12118 03e6 0C000000 		.4byte	.LVL62
 12119 03ea 12000000 		.4byte	.LVL63
 12120 03ee 0100     		.2byte	0x1
ARM GAS  /tmp/ccq01laD.s 			page 218


 12121 03f0 50       		.byte	0x50
 12122 03f1 1E000000 		.4byte	.LVL64
 12123 03f5 28000000 		.4byte	.LFE35
 12124 03f9 0100     		.2byte	0x1
 12125 03fb 50       		.byte	0x50
 12126 03fc 00000000 		.4byte	0
 12127 0400 00000000 		.4byte	0
 12128              	.LLST41:
 12129 0404 00000000 		.4byte	.LFB36
 12130 0408 02000000 		.4byte	.LCFI9
 12131 040c 0200     		.2byte	0x2
 12132 040e 7D       		.byte	0x7d
 12133 040f 00       		.sleb128 0
 12134 0410 02000000 		.4byte	.LCFI9
 12135 0414 08000000 		.4byte	.LCFI10
 12136 0418 0200     		.2byte	0x2
 12137 041a 7D       		.byte	0x7d
 12138 041b 08       		.sleb128 8
 12139 041c 08000000 		.4byte	.LCFI10
 12140 0420 28000000 		.4byte	.LFE36
 12141 0424 0200     		.2byte	0x2
 12142 0426 7D       		.byte	0x7d
 12143 0427 10       		.sleb128 16
 12144 0428 00000000 		.4byte	0
 12145 042c 00000000 		.4byte	0
 12146              	.LLST42:
 12147 0430 00000000 		.4byte	.LVL65
 12148 0434 06000000 		.4byte	.LVL66
 12149 0438 0100     		.2byte	0x1
 12150 043a 50       		.byte	0x50
 12151 043b 06000000 		.4byte	.LVL66
 12152 043f 28000000 		.4byte	.LFE36
 12153 0443 0100     		.2byte	0x1
 12154 0445 54       		.byte	0x54
 12155 0446 00000000 		.4byte	0
 12156 044a 00000000 		.4byte	0
 12157              	.LLST43:
 12158 044e 00000000 		.4byte	.LVL65
 12159 0452 0A000000 		.4byte	.LVL67
 12160 0456 0100     		.2byte	0x1
 12161 0458 51       		.byte	0x51
 12162 0459 14000000 		.4byte	.LVL68
 12163 045d 1B000000 		.4byte	.LVL69-1
 12164 0461 0100     		.2byte	0x1
 12165 0463 51       		.byte	0x51
 12166 0464 00000000 		.4byte	0
 12167 0468 00000000 		.4byte	0
 12168              	.LLST44:
 12169 046c 00000000 		.4byte	.LFB37
 12170 0470 04000000 		.4byte	.LCFI11
 12171 0474 0200     		.2byte	0x2
 12172 0476 7D       		.byte	0x7d
 12173 0477 00       		.sleb128 0
 12174 0478 04000000 		.4byte	.LCFI11
 12175 047c 2C000000 		.4byte	.LFE37
 12176 0480 0200     		.2byte	0x2
 12177 0482 7D       		.byte	0x7d
ARM GAS  /tmp/ccq01laD.s 			page 219


 12178 0483 08       		.sleb128 8
 12179 0484 00000000 		.4byte	0
 12180 0488 00000000 		.4byte	0
 12181              	.LLST45:
 12182 048c 00000000 		.4byte	.LVL70
 12183 0490 0A000000 		.4byte	.LVL71
 12184 0494 0100     		.2byte	0x1
 12185 0496 50       		.byte	0x50
 12186 0497 0A000000 		.4byte	.LVL71
 12187 049b 2C000000 		.4byte	.LFE37
 12188 049f 0100     		.2byte	0x1
 12189 04a1 54       		.byte	0x54
 12190 04a2 00000000 		.4byte	0
 12191 04a6 00000000 		.4byte	0
 12192              	.LLST46:
 12193 04aa 00000000 		.4byte	.LFB38
 12194 04ae 04000000 		.4byte	.LCFI12
 12195 04b2 0200     		.2byte	0x2
 12196 04b4 7D       		.byte	0x7d
 12197 04b5 00       		.sleb128 0
 12198 04b6 04000000 		.4byte	.LCFI12
 12199 04ba 1C000000 		.4byte	.LFE38
 12200 04be 0200     		.2byte	0x2
 12201 04c0 7D       		.byte	0x7d
 12202 04c1 08       		.sleb128 8
 12203 04c2 00000000 		.4byte	0
 12204 04c6 00000000 		.4byte	0
 12205              	.LLST47:
 12206 04ca 00000000 		.4byte	.LVL72
 12207 04ce 0A000000 		.4byte	.LVL73
 12208 04d2 0100     		.2byte	0x1
 12209 04d4 50       		.byte	0x50
 12210 04d5 0A000000 		.4byte	.LVL73
 12211 04d9 1C000000 		.4byte	.LFE38
 12212 04dd 0100     		.2byte	0x1
 12213 04df 54       		.byte	0x54
 12214 04e0 00000000 		.4byte	0
 12215 04e4 00000000 		.4byte	0
 12216              	.LLST48:
 12217 04e8 00000000 		.4byte	.LFB39
 12218 04ec 02000000 		.4byte	.LCFI13
 12219 04f0 0200     		.2byte	0x2
 12220 04f2 7D       		.byte	0x7d
 12221 04f3 00       		.sleb128 0
 12222 04f4 02000000 		.4byte	.LCFI13
 12223 04f8 08000000 		.4byte	.LCFI14
 12224 04fc 0200     		.2byte	0x2
 12225 04fe 7D       		.byte	0x7d
 12226 04ff 08       		.sleb128 8
 12227 0500 08000000 		.4byte	.LCFI14
 12228 0504 28000000 		.4byte	.LFE39
 12229 0508 0200     		.2byte	0x2
 12230 050a 7D       		.byte	0x7d
 12231 050b 10       		.sleb128 16
 12232 050c 00000000 		.4byte	0
 12233 0510 00000000 		.4byte	0
 12234              	.LLST49:
ARM GAS  /tmp/ccq01laD.s 			page 220


 12235 0514 00000000 		.4byte	.LVL74
 12236 0518 06000000 		.4byte	.LVL75
 12237 051c 0100     		.2byte	0x1
 12238 051e 50       		.byte	0x50
 12239 051f 06000000 		.4byte	.LVL75
 12240 0523 28000000 		.4byte	.LFE39
 12241 0527 0100     		.2byte	0x1
 12242 0529 54       		.byte	0x54
 12243 052a 00000000 		.4byte	0
 12244 052e 00000000 		.4byte	0
 12245              	.LLST50:
 12246 0532 00000000 		.4byte	.LVL74
 12247 0536 0A000000 		.4byte	.LVL76
 12248 053a 0100     		.2byte	0x1
 12249 053c 51       		.byte	0x51
 12250 053d 14000000 		.4byte	.LVL77
 12251 0541 1B000000 		.4byte	.LVL78-1
 12252 0545 0100     		.2byte	0x1
 12253 0547 51       		.byte	0x51
 12254 0548 00000000 		.4byte	0
 12255 054c 00000000 		.4byte	0
 12256              	.LLST51:
 12257 0550 00000000 		.4byte	.LFB40
 12258 0554 02000000 		.4byte	.LCFI15
 12259 0558 0200     		.2byte	0x2
 12260 055a 7D       		.byte	0x7d
 12261 055b 00       		.sleb128 0
 12262 055c 02000000 		.4byte	.LCFI15
 12263 0560 08000000 		.4byte	.LCFI16
 12264 0564 0200     		.2byte	0x2
 12265 0566 7D       		.byte	0x7d
 12266 0567 08       		.sleb128 8
 12267 0568 08000000 		.4byte	.LCFI16
 12268 056c 28000000 		.4byte	.LFE40
 12269 0570 0200     		.2byte	0x2
 12270 0572 7D       		.byte	0x7d
 12271 0573 10       		.sleb128 16
 12272 0574 00000000 		.4byte	0
 12273 0578 00000000 		.4byte	0
 12274              	.LLST52:
 12275 057c 00000000 		.4byte	.LVL79
 12276 0580 06000000 		.4byte	.LVL80
 12277 0584 0100     		.2byte	0x1
 12278 0586 50       		.byte	0x50
 12279 0587 06000000 		.4byte	.LVL80
 12280 058b 28000000 		.4byte	.LFE40
 12281 058f 0100     		.2byte	0x1
 12282 0591 54       		.byte	0x54
 12283 0592 00000000 		.4byte	0
 12284 0596 00000000 		.4byte	0
 12285              	.LLST53:
 12286 059a 00000000 		.4byte	.LVL79
 12287 059e 0A000000 		.4byte	.LVL81
 12288 05a2 0100     		.2byte	0x1
 12289 05a4 51       		.byte	0x51
 12290 05a5 14000000 		.4byte	.LVL82
 12291 05a9 1B000000 		.4byte	.LVL83-1
ARM GAS  /tmp/ccq01laD.s 			page 221


 12292 05ad 0100     		.2byte	0x1
 12293 05af 51       		.byte	0x51
 12294 05b0 00000000 		.4byte	0
 12295 05b4 00000000 		.4byte	0
 12296              	.LLST54:
 12297 05b8 00000000 		.4byte	.LFB41
 12298 05bc 02000000 		.4byte	.LCFI17
 12299 05c0 0200     		.2byte	0x2
 12300 05c2 7D       		.byte	0x7d
 12301 05c3 00       		.sleb128 0
 12302 05c4 02000000 		.4byte	.LCFI17
 12303 05c8 08000000 		.4byte	.LCFI18
 12304 05cc 0200     		.2byte	0x2
 12305 05ce 7D       		.byte	0x7d
 12306 05cf 08       		.sleb128 8
 12307 05d0 08000000 		.4byte	.LCFI18
 12308 05d4 28000000 		.4byte	.LFE41
 12309 05d8 0200     		.2byte	0x2
 12310 05da 7D       		.byte	0x7d
 12311 05db 10       		.sleb128 16
 12312 05dc 00000000 		.4byte	0
 12313 05e0 00000000 		.4byte	0
 12314              	.LLST55:
 12315 05e4 00000000 		.4byte	.LVL84
 12316 05e8 06000000 		.4byte	.LVL85
 12317 05ec 0100     		.2byte	0x1
 12318 05ee 50       		.byte	0x50
 12319 05ef 06000000 		.4byte	.LVL85
 12320 05f3 28000000 		.4byte	.LFE41
 12321 05f7 0100     		.2byte	0x1
 12322 05f9 54       		.byte	0x54
 12323 05fa 00000000 		.4byte	0
 12324 05fe 00000000 		.4byte	0
 12325              	.LLST56:
 12326 0602 00000000 		.4byte	.LVL84
 12327 0606 0A000000 		.4byte	.LVL86
 12328 060a 0100     		.2byte	0x1
 12329 060c 51       		.byte	0x51
 12330 060d 14000000 		.4byte	.LVL87
 12331 0611 1B000000 		.4byte	.LVL88-1
 12332 0615 0100     		.2byte	0x1
 12333 0617 51       		.byte	0x51
 12334 0618 00000000 		.4byte	0
 12335 061c 00000000 		.4byte	0
 12336              	.LLST57:
 12337 0620 00000000 		.4byte	.LFB50
 12338 0624 04000000 		.4byte	.LCFI19
 12339 0628 0200     		.2byte	0x2
 12340 062a 7D       		.byte	0x7d
 12341 062b 00       		.sleb128 0
 12342 062c 04000000 		.4byte	.LCFI19
 12343 0630 0A000000 		.4byte	.LFE50
 12344 0634 0200     		.2byte	0x2
 12345 0636 7D       		.byte	0x7d
 12346 0637 08       		.sleb128 8
 12347 0638 00000000 		.4byte	0
 12348 063c 00000000 		.4byte	0
ARM GAS  /tmp/ccq01laD.s 			page 222


 12349              	.LLST58:
 12350 0640 00000000 		.4byte	.LVL90
 12351 0644 07000000 		.4byte	.LVL91-1
 12352 0648 0100     		.2byte	0x1
 12353 064a 50       		.byte	0x50
 12354 064b 00000000 		.4byte	0
 12355 064f 00000000 		.4byte	0
 12356              	.LLST59:
 12357 0653 00000000 		.4byte	.LVL93
 12358 0657 03000000 		.4byte	.LVL94-1
 12359 065b 0100     		.2byte	0x1
 12360 065d 50       		.byte	0x50
 12361 065e 00000000 		.4byte	0
 12362 0662 00000000 		.4byte	0
 12363              	.LLST60:
 12364 0666 00000000 		.4byte	.LVL95
 12365 066a 03000000 		.4byte	.LVL96-1
 12366 066e 0100     		.2byte	0x1
 12367 0670 50       		.byte	0x50
 12368 0671 00000000 		.4byte	0
 12369 0675 00000000 		.4byte	0
 12370              	.LLST61:
 12371 0679 00000000 		.4byte	.LVL97
 12372 067d 03000000 		.4byte	.LVL98-1
 12373 0681 0100     		.2byte	0x1
 12374 0683 50       		.byte	0x50
 12375 0684 00000000 		.4byte	0
 12376 0688 00000000 		.4byte	0
 12377              	.LLST62:
 12378 068c 00000000 		.4byte	.LVL99
 12379 0690 03000000 		.4byte	.LVL100-1
 12380 0694 0100     		.2byte	0x1
 12381 0696 50       		.byte	0x50
 12382 0697 00000000 		.4byte	0
 12383 069b 00000000 		.4byte	0
 12384              	.LLST63:
 12385 069f 00000000 		.4byte	.LVL101
 12386 06a3 03000000 		.4byte	.LVL102-1
 12387 06a7 0100     		.2byte	0x1
 12388 06a9 50       		.byte	0x50
 12389 06aa 00000000 		.4byte	0
 12390 06ae 00000000 		.4byte	0
 12391              	.LLST64:
 12392 06b2 00000000 		.4byte	.LFB59
 12393 06b6 02000000 		.4byte	.LCFI20
 12394 06ba 0200     		.2byte	0x2
 12395 06bc 7D       		.byte	0x7d
 12396 06bd 00       		.sleb128 0
 12397 06be 02000000 		.4byte	.LCFI20
 12398 06c2 18000000 		.4byte	.LFE59
 12399 06c6 0200     		.2byte	0x2
 12400 06c8 7D       		.byte	0x7d
 12401 06c9 08       		.sleb128 8
 12402 06ca 00000000 		.4byte	0
 12403 06ce 00000000 		.4byte	0
 12404              	.LLST65:
 12405 06d2 00000000 		.4byte	.LVL103
ARM GAS  /tmp/ccq01laD.s 			page 223


 12406 06d6 07000000 		.4byte	.LVL104-1
 12407 06da 0200     		.2byte	0x2
 12408 06dc 70       		.byte	0x70
 12409 06dd 00       		.sleb128 0
 12410 06de 07000000 		.4byte	.LVL104-1
 12411 06e2 18000000 		.4byte	.LFE59
 12412 06e6 0200     		.2byte	0x2
 12413 06e8 74       		.byte	0x74
 12414 06e9 00       		.sleb128 0
 12415 06ea 00000000 		.4byte	0
 12416 06ee 00000000 		.4byte	0
 12417              	.LLST66:
 12418 06f2 08000000 		.4byte	.LVL104
 12419 06f6 10000000 		.4byte	.LVL105
 12420 06fa 0100     		.2byte	0x1
 12421 06fc 50       		.byte	0x50
 12422 06fd 10000000 		.4byte	.LVL105
 12423 0701 18000000 		.4byte	.LFE59
 12424 0705 0200     		.2byte	0x2
 12425 0707 74       		.byte	0x74
 12426 0708 04       		.sleb128 4
 12427 0709 00000000 		.4byte	0
 12428 070d 00000000 		.4byte	0
 12429              	.LLST67:
 12430 0711 00000000 		.4byte	.LVL106
 12431 0715 03000000 		.4byte	.LVL107-1
 12432 0719 0100     		.2byte	0x1
 12433 071b 50       		.byte	0x50
 12434 071c 00000000 		.4byte	0
 12435 0720 00000000 		.4byte	0
 12436              	.LLST68:
 12437 0724 00000000 		.4byte	.LVL108
 12438 0728 03000000 		.4byte	.LVL109-1
 12439 072c 0100     		.2byte	0x1
 12440 072e 50       		.byte	0x50
 12441 072f 00000000 		.4byte	0
 12442 0733 00000000 		.4byte	0
 12443              	.LLST69:
 12444 0737 00000000 		.4byte	.LVL110
 12445 073b 03000000 		.4byte	.LVL111-1
 12446 073f 0100     		.2byte	0x1
 12447 0741 50       		.byte	0x50
 12448 0742 00000000 		.4byte	0
 12449 0746 00000000 		.4byte	0
 12450              	.LLST70:
 12451 074a 00000000 		.4byte	.LVL112
 12452 074e 03000000 		.4byte	.LVL113-1
 12453 0752 0100     		.2byte	0x1
 12454 0754 50       		.byte	0x50
 12455 0755 00000000 		.4byte	0
 12456 0759 00000000 		.4byte	0
 12457              	.LLST71:
 12458 075d 00000000 		.4byte	.LVL114
 12459 0761 03000000 		.4byte	.LVL115-1
 12460 0765 0100     		.2byte	0x1
 12461 0767 50       		.byte	0x50
 12462 0768 00000000 		.4byte	0
ARM GAS  /tmp/ccq01laD.s 			page 224


 12463 076c 00000000 		.4byte	0
 12464              	.LLST72:
 12465 0770 00000000 		.4byte	.LVL116
 12466 0774 03000000 		.4byte	.LVL118-1
 12467 0778 0100     		.2byte	0x1
 12468 077a 50       		.byte	0x50
 12469 077b 00000000 		.4byte	0
 12470 077f 00000000 		.4byte	0
 12471              	.LLST73:
 12472 0783 00000000 		.4byte	.LVL116
 12473 0787 03000000 		.4byte	.LVL117-1
 12474 078b 0100     		.2byte	0x1
 12475 078d 51       		.byte	0x51
 12476 078e 00000000 		.4byte	0
 12477 0792 00000000 		.4byte	0
 12478              	.LLST74:
 12479 0796 00000000 		.4byte	.LVL119
 12480 079a 03000000 		.4byte	.LVL121-1
 12481 079e 0100     		.2byte	0x1
 12482 07a0 50       		.byte	0x50
 12483 07a1 00000000 		.4byte	0
 12484 07a5 00000000 		.4byte	0
 12485              	.LLST75:
 12486 07a9 00000000 		.4byte	.LVL119
 12487 07ad 03000000 		.4byte	.LVL120-1
 12488 07b1 0100     		.2byte	0x1
 12489 07b3 51       		.byte	0x51
 12490 07b4 00000000 		.4byte	0
 12491 07b8 00000000 		.4byte	0
 12492              	.LLST76:
 12493 07bc 00000000 		.4byte	.LVL122
 12494 07c0 03000000 		.4byte	.LVL124-1
 12495 07c4 0100     		.2byte	0x1
 12496 07c6 50       		.byte	0x50
 12497 07c7 00000000 		.4byte	0
 12498 07cb 00000000 		.4byte	0
 12499              	.LLST77:
 12500 07cf 00000000 		.4byte	.LVL122
 12501 07d3 03000000 		.4byte	.LVL123-1
 12502 07d7 0100     		.2byte	0x1
 12503 07d9 51       		.byte	0x51
 12504 07da 00000000 		.4byte	0
 12505 07de 00000000 		.4byte	0
 12506              	.LLST78:
 12507 07e2 00000000 		.4byte	.LVL125
 12508 07e6 03000000 		.4byte	.LVL127-1
 12509 07ea 0100     		.2byte	0x1
 12510 07ec 50       		.byte	0x50
 12511 07ed 00000000 		.4byte	0
 12512 07f1 00000000 		.4byte	0
 12513              	.LLST79:
 12514 07f5 00000000 		.4byte	.LVL125
 12515 07f9 03000000 		.4byte	.LVL126-1
 12516 07fd 0100     		.2byte	0x1
 12517 07ff 51       		.byte	0x51
 12518 0800 00000000 		.4byte	0
 12519 0804 00000000 		.4byte	0
ARM GAS  /tmp/ccq01laD.s 			page 225


 12520              	.LLST80:
 12521 0808 00000000 		.4byte	.LFB73
 12522 080c 02000000 		.4byte	.LCFI21
 12523 0810 0200     		.2byte	0x2
 12524 0812 7D       		.byte	0x7d
 12525 0813 00       		.sleb128 0
 12526 0814 02000000 		.4byte	.LCFI21
 12527 0818 0C000000 		.4byte	.LFE73
 12528 081c 0200     		.2byte	0x2
 12529 081e 7D       		.byte	0x7d
 12530 081f 08       		.sleb128 8
 12531 0820 00000000 		.4byte	0
 12532 0824 00000000 		.4byte	0
 12533              	.LLST81:
 12534 0828 00000000 		.4byte	.LVL128
 12535 082c 07000000 		.4byte	.LVL129-1
 12536 0830 0100     		.2byte	0x1
 12537 0832 50       		.byte	0x50
 12538 0833 07000000 		.4byte	.LVL129-1
 12539 0837 0C000000 		.4byte	.LFE73
 12540 083b 0100     		.2byte	0x1
 12541 083d 54       		.byte	0x54
 12542 083e 00000000 		.4byte	0
 12543 0842 00000000 		.4byte	0
 12544              	.LLST82:
 12545 0846 00000000 		.4byte	.LVL128
 12546 084a 07000000 		.4byte	.LVL129-1
 12547 084e 0100     		.2byte	0x1
 12548 0850 51       		.byte	0x51
 12549 0851 00000000 		.4byte	0
 12550 0855 00000000 		.4byte	0
 12551              	.LLST83:
 12552 0859 00000000 		.4byte	.LVL130
 12553 085d 03000000 		.4byte	.LVL131-1
 12554 0861 0100     		.2byte	0x1
 12555 0863 50       		.byte	0x50
 12556 0864 00000000 		.4byte	0
 12557 0868 00000000 		.4byte	0
 12558              	.LLST84:
 12559 086c 00000000 		.4byte	.LVL130
 12560 0870 03000000 		.4byte	.LVL132-1
 12561 0874 0100     		.2byte	0x1
 12562 0876 51       		.byte	0x51
 12563 0877 00000000 		.4byte	0
 12564 087b 00000000 		.4byte	0
 12565              	.LLST85:
 12566 087f 00000000 		.4byte	.LVL133
 12567 0883 03000000 		.4byte	.LVL134-1
 12568 0887 0100     		.2byte	0x1
 12569 0889 50       		.byte	0x50
 12570 088a 00000000 		.4byte	0
 12571 088e 00000000 		.4byte	0
 12572              	.LLST86:
 12573 0892 00000000 		.4byte	.LVL133
 12574 0896 03000000 		.4byte	.LVL135-1
 12575 089a 0100     		.2byte	0x1
 12576 089c 51       		.byte	0x51
ARM GAS  /tmp/ccq01laD.s 			page 226


 12577 089d 00000000 		.4byte	0
 12578 08a1 00000000 		.4byte	0
 12579              	.LLST87:
 12580 08a5 00000000 		.4byte	.LVL136
 12581 08a9 03000000 		.4byte	.LVL137-1
 12582 08ad 0100     		.2byte	0x1
 12583 08af 50       		.byte	0x50
 12584 08b0 00000000 		.4byte	0
 12585 08b4 00000000 		.4byte	0
 12586              	.LLST88:
 12587 08b8 00000000 		.4byte	.LVL138
 12588 08bc 03000000 		.4byte	.LVL139-1
 12589 08c0 0100     		.2byte	0x1
 12590 08c2 50       		.byte	0x50
 12591 08c3 00000000 		.4byte	0
 12592 08c7 00000000 		.4byte	0
 12593              	.LLST89:
 12594 08cb 00000000 		.4byte	.LVL140
 12595 08cf 03000000 		.4byte	.LVL142-1
 12596 08d3 0100     		.2byte	0x1
 12597 08d5 50       		.byte	0x50
 12598 08d6 00000000 		.4byte	0
 12599 08da 00000000 		.4byte	0
 12600              	.LLST90:
 12601 08de 00000000 		.4byte	.LVL140
 12602 08e2 03000000 		.4byte	.LVL141-1
 12603 08e6 0100     		.2byte	0x1
 12604 08e8 51       		.byte	0x51
 12605 08e9 00000000 		.4byte	0
 12606 08ed 00000000 		.4byte	0
 12607              	.LLST91:
 12608 08f1 00000000 		.4byte	.LVL143
 12609 08f5 03000000 		.4byte	.LVL144-1
 12610 08f9 0100     		.2byte	0x1
 12611 08fb 50       		.byte	0x50
 12612 08fc 00000000 		.4byte	0
 12613 0900 00000000 		.4byte	0
 12614              	.LLST92:
 12615 0904 00000000 		.4byte	.LVL143
 12616 0908 03000000 		.4byte	.LVL145-1
 12617 090c 0100     		.2byte	0x1
 12618 090e 51       		.byte	0x51
 12619 090f 00000000 		.4byte	0
 12620 0913 00000000 		.4byte	0
 12621              	.LLST93:
 12622 0917 00000000 		.4byte	.LVL146
 12623 091b 03000000 		.4byte	.LVL147-1
 12624 091f 0100     		.2byte	0x1
 12625 0921 50       		.byte	0x50
 12626 0922 00000000 		.4byte	0
 12627 0926 00000000 		.4byte	0
 12628              	.LLST94:
 12629 092a 00000000 		.4byte	.LVL148
 12630 092e 03000000 		.4byte	.LVL149-1
 12631 0932 0100     		.2byte	0x1
 12632 0934 50       		.byte	0x50
 12633 0935 00000000 		.4byte	0
ARM GAS  /tmp/ccq01laD.s 			page 227


 12634 0939 00000000 		.4byte	0
 12635              	.LLST95:
 12636 093d 00000000 		.4byte	.LVL150
 12637 0941 03000000 		.4byte	.LVL152-1
 12638 0945 0100     		.2byte	0x1
 12639 0947 50       		.byte	0x50
 12640 0948 00000000 		.4byte	0
 12641 094c 00000000 		.4byte	0
 12642              	.LLST96:
 12643 0950 00000000 		.4byte	.LVL150
 12644 0954 03000000 		.4byte	.LVL151-1
 12645 0958 0100     		.2byte	0x1
 12646 095a 51       		.byte	0x51
 12647 095b 00000000 		.4byte	0
 12648 095f 00000000 		.4byte	0
 12649              	.LLST97:
 12650 0963 00000000 		.4byte	.LVL153
 12651 0967 02000000 		.4byte	.LVL154
 12652 096b 0100     		.2byte	0x1
 12653 096d 50       		.byte	0x50
 12654 096e 00000000 		.4byte	0
 12655 0972 00000000 		.4byte	0
 12656              	.LLST98:
 12657 0976 00000000 		.4byte	.LVL155
 12658 097a 03000000 		.4byte	.LVL157-1
 12659 097e 0100     		.2byte	0x1
 12660 0980 50       		.byte	0x50
 12661 0981 00000000 		.4byte	0
 12662 0985 00000000 		.4byte	0
 12663              	.LLST99:
 12664 0989 00000000 		.4byte	.LVL155
 12665 098d 03000000 		.4byte	.LVL156-1
 12666 0991 0100     		.2byte	0x1
 12667 0993 51       		.byte	0x51
 12668 0994 00000000 		.4byte	0
 12669 0998 00000000 		.4byte	0
 12670              	.LLST100:
 12671 099c 00000000 		.4byte	.LFB87
 12672 09a0 02000000 		.4byte	.LCFI22
 12673 09a4 0200     		.2byte	0x2
 12674 09a6 7D       		.byte	0x7d
 12675 09a7 00       		.sleb128 0
 12676 09a8 02000000 		.4byte	.LCFI22
 12677 09ac 10000000 		.4byte	.LFE87
 12678 09b0 0200     		.2byte	0x2
 12679 09b2 7D       		.byte	0x7d
 12680 09b3 08       		.sleb128 8
 12681 09b4 00000000 		.4byte	0
 12682 09b8 00000000 		.4byte	0
 12683              	.LLST101:
 12684 09bc 00000000 		.4byte	.LVL158
 12685 09c0 0B000000 		.4byte	.LVL160-1
 12686 09c4 0100     		.2byte	0x1
 12687 09c6 50       		.byte	0x50
 12688 09c7 0B000000 		.4byte	.LVL160-1
 12689 09cb 10000000 		.4byte	.LFE87
 12690 09cf 0100     		.2byte	0x1
ARM GAS  /tmp/ccq01laD.s 			page 228


 12691 09d1 54       		.byte	0x54
 12692 09d2 00000000 		.4byte	0
 12693 09d6 00000000 		.4byte	0
 12694              	.LLST102:
 12695 09da 00000000 		.4byte	.LVL158
 12696 09de 06000000 		.4byte	.LVL159
 12697 09e2 0100     		.2byte	0x1
 12698 09e4 51       		.byte	0x51
 12699 09e5 00000000 		.4byte	0
 12700 09e9 00000000 		.4byte	0
 12701              	.LLST103:
 12702 09ed 00000000 		.4byte	.LVL161
 12703 09f1 03000000 		.4byte	.LVL162-1
 12704 09f5 0100     		.2byte	0x1
 12705 09f7 50       		.byte	0x50
 12706 09f8 00000000 		.4byte	0
 12707 09fc 00000000 		.4byte	0
 12708              	.LLST104:
 12709 0a00 00000000 		.4byte	.LVL163
 12710 0a04 03000000 		.4byte	.LVL164-1
 12711 0a08 0100     		.2byte	0x1
 12712 0a0a 50       		.byte	0x50
 12713 0a0b 00000000 		.4byte	0
 12714 0a0f 00000000 		.4byte	0
 12715              	.LLST105:
 12716 0a13 00000000 		.4byte	.LVL165
 12717 0a17 03000000 		.4byte	.LVL166-1
 12718 0a1b 0100     		.2byte	0x1
 12719 0a1d 50       		.byte	0x50
 12720 0a1e 00000000 		.4byte	0
 12721 0a22 00000000 		.4byte	0
 12722              	.LLST106:
 12723 0a26 00000000 		.4byte	.LVL165
 12724 0a2a 03000000 		.4byte	.LVL167-1
 12725 0a2e 0100     		.2byte	0x1
 12726 0a30 51       		.byte	0x51
 12727 0a31 00000000 		.4byte	0
 12728 0a35 00000000 		.4byte	0
 12729              	.LLST107:
 12730 0a39 00000000 		.4byte	.LVL168
 12731 0a3d 03000000 		.4byte	.LVL169-1
 12732 0a41 0100     		.2byte	0x1
 12733 0a43 50       		.byte	0x50
 12734 0a44 00000000 		.4byte	0
 12735 0a48 00000000 		.4byte	0
 12736              	.LLST108:
 12737 0a4c 00000000 		.4byte	.LVL168
 12738 0a50 03000000 		.4byte	.LVL170-1
 12739 0a54 0100     		.2byte	0x1
 12740 0a56 51       		.byte	0x51
 12741 0a57 00000000 		.4byte	0
 12742 0a5b 00000000 		.4byte	0
 12743              	.LLST109:
 12744 0a5f 00000000 		.4byte	.LVL171
 12745 0a63 07000000 		.4byte	.LVL173-1
 12746 0a67 0100     		.2byte	0x1
 12747 0a69 50       		.byte	0x50
ARM GAS  /tmp/ccq01laD.s 			page 229


 12748 0a6a 00000000 		.4byte	0
 12749 0a6e 00000000 		.4byte	0
 12750              	.LLST110:
 12751 0a72 00000000 		.4byte	.LVL171
 12752 0a76 04000000 		.4byte	.LVL172
 12753 0a7a 0100     		.2byte	0x1
 12754 0a7c 51       		.byte	0x51
 12755 0a7d 00000000 		.4byte	0
 12756 0a81 00000000 		.4byte	0
 12757              	.LLST111:
 12758 0a85 00000000 		.4byte	.LVL174
 12759 0a89 07000000 		.4byte	.LVL176-1
 12760 0a8d 0100     		.2byte	0x1
 12761 0a8f 50       		.byte	0x50
 12762 0a90 00000000 		.4byte	0
 12763 0a94 00000000 		.4byte	0
 12764              	.LLST112:
 12765 0a98 00000000 		.4byte	.LVL174
 12766 0a9c 04000000 		.4byte	.LVL175
 12767 0aa0 0100     		.2byte	0x1
 12768 0aa2 51       		.byte	0x51
 12769 0aa3 00000000 		.4byte	0
 12770 0aa7 00000000 		.4byte	0
 12771              	.LLST113:
 12772 0aab 00000000 		.4byte	.LFB95
 12773 0aaf 02000000 		.4byte	.LCFI23
 12774 0ab3 0200     		.2byte	0x2
 12775 0ab5 7D       		.byte	0x7d
 12776 0ab6 00       		.sleb128 0
 12777 0ab7 02000000 		.4byte	.LCFI23
 12778 0abb 3A000000 		.4byte	.LFE95
 12779 0abf 0200     		.2byte	0x2
 12780 0ac1 7D       		.byte	0x7d
 12781 0ac2 08       		.sleb128 8
 12782 0ac3 00000000 		.4byte	0
 12783 0ac7 00000000 		.4byte	0
 12784              	.LLST114:
 12785 0acb 00000000 		.4byte	.LVL177
 12786 0acf 0D000000 		.4byte	.LVL180-1
 12787 0ad3 0100     		.2byte	0x1
 12788 0ad5 50       		.byte	0x50
 12789 0ad6 0D000000 		.4byte	.LVL180-1
 12790 0ada 3A000000 		.4byte	.LFE95
 12791 0ade 0100     		.2byte	0x1
 12792 0ae0 54       		.byte	0x54
 12793 0ae1 00000000 		.4byte	0
 12794 0ae5 00000000 		.4byte	0
 12795              	.LLST115:
 12796 0ae9 0A000000 		.4byte	.LVL179
 12797 0aed 0D000000 		.4byte	.LVL180-1
 12798 0af1 0100     		.2byte	0x1
 12799 0af3 53       		.byte	0x53
 12800 0af4 00000000 		.4byte	0
 12801 0af8 00000000 		.4byte	0
 12802              	.LLST116:
 12803 0afc 22000000 		.4byte	.LVL182
 12804 0b00 24000000 		.4byte	.LVL183
ARM GAS  /tmp/ccq01laD.s 			page 230


 12805 0b04 0100     		.2byte	0x1
 12806 0b06 53       		.byte	0x53
 12807 0b07 38000000 		.4byte	.LVL184
 12808 0b0b 3A000000 		.4byte	.LFE95
 12809 0b0f 0100     		.2byte	0x1
 12810 0b11 53       		.byte	0x53
 12811 0b12 00000000 		.4byte	0
 12812 0b16 00000000 		.4byte	0
 12813              	.LLST117:
 12814 0b1a 00000000 		.4byte	.LVL185
 12815 0b1e 0B000000 		.4byte	.LVL186-1
 12816 0b22 0100     		.2byte	0x1
 12817 0b24 50       		.byte	0x50
 12818 0b25 00000000 		.4byte	0
 12819 0b29 00000000 		.4byte	0
 12820              	.LLST118:
 12821 0b2d 00000000 		.4byte	.LVL187
 12822 0b31 02000000 		.4byte	.LVL188
 12823 0b35 0100     		.2byte	0x1
 12824 0b37 50       		.byte	0x50
 12825 0b38 00000000 		.4byte	0
 12826 0b3c 00000000 		.4byte	0
 12827              	.LLST119:
 12828 0b40 00000000 		.4byte	.LFB99
 12829 0b44 02000000 		.4byte	.LCFI24
 12830 0b48 0200     		.2byte	0x2
 12831 0b4a 7D       		.byte	0x7d
 12832 0b4b 00       		.sleb128 0
 12833 0b4c 02000000 		.4byte	.LCFI24
 12834 0b50 0C000000 		.4byte	.LFE99
 12835 0b54 0200     		.2byte	0x2
 12836 0b56 7D       		.byte	0x7d
 12837 0b57 08       		.sleb128 8
 12838 0b58 00000000 		.4byte	0
 12839 0b5c 00000000 		.4byte	0
 12840              	.LLST120:
 12841 0b60 00000000 		.4byte	.LVL189
 12842 0b64 07000000 		.4byte	.LVL190-1
 12843 0b68 0100     		.2byte	0x1
 12844 0b6a 50       		.byte	0x50
 12845 0b6b 07000000 		.4byte	.LVL190-1
 12846 0b6f 0C000000 		.4byte	.LFE99
 12847 0b73 0100     		.2byte	0x1
 12848 0b75 54       		.byte	0x54
 12849 0b76 00000000 		.4byte	0
 12850 0b7a 00000000 		.4byte	0
 12851              	.LLST121:
 12852 0b7e 00000000 		.4byte	.LVL191
 12853 0b82 03000000 		.4byte	.LVL192-1
 12854 0b86 0100     		.2byte	0x1
 12855 0b88 50       		.byte	0x50
 12856 0b89 00000000 		.4byte	0
 12857 0b8d 00000000 		.4byte	0
 12858              	.LLST122:
 12859 0b91 00000000 		.4byte	.LVL193
 12860 0b95 03000000 		.4byte	.LVL194-1
 12861 0b99 0100     		.2byte	0x1
ARM GAS  /tmp/ccq01laD.s 			page 231


 12862 0b9b 50       		.byte	0x50
 12863 0b9c 00000000 		.4byte	0
 12864 0ba0 00000000 		.4byte	0
 12865              	.LLST123:
 12866 0ba4 00000000 		.4byte	.LVL195
 12867 0ba8 03000000 		.4byte	.LVL196-1
 12868 0bac 0100     		.2byte	0x1
 12869 0bae 50       		.byte	0x50
 12870 0baf 00000000 		.4byte	0
 12871 0bb3 00000000 		.4byte	0
 12872              	.LLST124:
 12873 0bb7 00000000 		.4byte	.LVL197
 12874 0bbb 03000000 		.4byte	.LVL198-1
 12875 0bbf 0100     		.2byte	0x1
 12876 0bc1 50       		.byte	0x50
 12877 0bc2 00000000 		.4byte	0
 12878 0bc6 00000000 		.4byte	0
 12879              	.LLST125:
 12880 0bca 00000000 		.4byte	.LFB106
 12881 0bce 02000000 		.4byte	.LCFI25
 12882 0bd2 0200     		.2byte	0x2
 12883 0bd4 7D       		.byte	0x7d
 12884 0bd5 00       		.sleb128 0
 12885 0bd6 02000000 		.4byte	.LCFI25
 12886 0bda 0C000000 		.4byte	.LFE106
 12887 0bde 0200     		.2byte	0x2
 12888 0be0 7D       		.byte	0x7d
 12889 0be1 08       		.sleb128 8
 12890 0be2 00000000 		.4byte	0
 12891 0be6 00000000 		.4byte	0
 12892              	.LLST126:
 12893 0bea 00000000 		.4byte	.LVL199
 12894 0bee 07000000 		.4byte	.LVL200-1
 12895 0bf2 0100     		.2byte	0x1
 12896 0bf4 50       		.byte	0x50
 12897 0bf5 07000000 		.4byte	.LVL200-1
 12898 0bf9 0C000000 		.4byte	.LFE106
 12899 0bfd 0100     		.2byte	0x1
 12900 0bff 54       		.byte	0x54
 12901 0c00 00000000 		.4byte	0
 12902 0c04 00000000 		.4byte	0
 12903              	.LLST127:
 12904 0c08 00000000 		.4byte	.LVL201
 12905 0c0c 03000000 		.4byte	.LVL202-1
 12906 0c10 0100     		.2byte	0x1
 12907 0c12 50       		.byte	0x50
 12908 0c13 00000000 		.4byte	0
 12909 0c17 00000000 		.4byte	0
 12910              	.LLST128:
 12911 0c1b 00000000 		.4byte	.LVL203
 12912 0c1f 03000000 		.4byte	.LVL204-1
 12913 0c23 0100     		.2byte	0x1
 12914 0c25 50       		.byte	0x50
 12915 0c26 00000000 		.4byte	0
 12916 0c2a 00000000 		.4byte	0
 12917              	.LLST129:
 12918 0c2e 00000000 		.4byte	.LVL205
ARM GAS  /tmp/ccq01laD.s 			page 232


 12919 0c32 03000000 		.4byte	.LVL206-1
 12920 0c36 0100     		.2byte	0x1
 12921 0c38 50       		.byte	0x50
 12922 0c39 00000000 		.4byte	0
 12923 0c3d 00000000 		.4byte	0
 12924              	.LLST130:
 12925 0c41 00000000 		.4byte	.LVL207
 12926 0c45 03000000 		.4byte	.LVL208-1
 12927 0c49 0100     		.2byte	0x1
 12928 0c4b 50       		.byte	0x50
 12929 0c4c 00000000 		.4byte	0
 12930 0c50 00000000 		.4byte	0
 12931              	.LLST131:
 12932 0c54 00000000 		.4byte	.LVL209
 12933 0c58 03000000 		.4byte	.LVL210-1
 12934 0c5c 0100     		.2byte	0x1
 12935 0c5e 50       		.byte	0x50
 12936 0c5f 00000000 		.4byte	0
 12937 0c63 00000000 		.4byte	0
 12938              	.LLST132:
 12939 0c67 00000000 		.4byte	.LVL211
 12940 0c6b 03000000 		.4byte	.LVL212-1
 12941 0c6f 0100     		.2byte	0x1
 12942 0c71 50       		.byte	0x50
 12943 0c72 00000000 		.4byte	0
 12944 0c76 00000000 		.4byte	0
 12945              	.LLST133:
 12946 0c7a 00000000 		.4byte	.LVL213
 12947 0c7e 03000000 		.4byte	.LVL215-1
 12948 0c82 0100     		.2byte	0x1
 12949 0c84 50       		.byte	0x50
 12950 0c85 00000000 		.4byte	0
 12951 0c89 00000000 		.4byte	0
 12952              	.LLST134:
 12953 0c8d 00000000 		.4byte	.LVL213
 12954 0c91 03000000 		.4byte	.LVL214-1
 12955 0c95 0100     		.2byte	0x1
 12956 0c97 51       		.byte	0x51
 12957 0c98 00000000 		.4byte	0
 12958 0c9c 00000000 		.4byte	0
 12959              	.LLST135:
 12960 0ca0 00000000 		.4byte	.LVL216
 12961 0ca4 03000000 		.4byte	.LVL217-1
 12962 0ca8 0100     		.2byte	0x1
 12963 0caa 50       		.byte	0x50
 12964 0cab 00000000 		.4byte	0
 12965 0caf 00000000 		.4byte	0
 12966              	.LLST136:
 12967 0cb3 00000000 		.4byte	.LVL218
 12968 0cb7 03000000 		.4byte	.LVL219-1
 12969 0cbb 0100     		.2byte	0x1
 12970 0cbd 50       		.byte	0x50
 12971 0cbe 00000000 		.4byte	0
 12972 0cc2 00000000 		.4byte	0
 12973              	.LLST137:
 12974 0cc6 00000000 		.4byte	.LVL221
 12975 0cca 09000000 		.4byte	.LVL223-1
ARM GAS  /tmp/ccq01laD.s 			page 233


 12976 0cce 0100     		.2byte	0x1
 12977 0cd0 50       		.byte	0x50
 12978 0cd1 00000000 		.4byte	0
 12979 0cd5 00000000 		.4byte	0
 12980              	.LLST138:
 12981 0cd9 00000000 		.4byte	.LVL221
 12982 0cdd 09000000 		.4byte	.LVL224-1
 12983 0ce1 0100     		.2byte	0x1
 12984 0ce3 51       		.byte	0x51
 12985 0ce4 00000000 		.4byte	0
 12986 0ce8 00000000 		.4byte	0
 12987              	.LLST139:
 12988 0cec 00000000 		.4byte	.LVL221
 12989 0cf0 06000000 		.4byte	.LVL222
 12990 0cf4 0100     		.2byte	0x1
 12991 0cf6 52       		.byte	0x52
 12992 0cf7 00000000 		.4byte	0
 12993 0cfb 00000000 		.4byte	0
 12994              	.LLST140:
 12995 0cff 00000000 		.4byte	.LVL225
 12996 0d03 03000000 		.4byte	.LVL228-1
 12997 0d07 0100     		.2byte	0x1
 12998 0d09 50       		.byte	0x50
 12999 0d0a 00000000 		.4byte	0
 13000 0d0e 00000000 		.4byte	0
 13001              	.LLST141:
 13002 0d12 00000000 		.4byte	.LVL225
 13003 0d16 03000000 		.4byte	.LVL227-1
 13004 0d1a 0100     		.2byte	0x1
 13005 0d1c 51       		.byte	0x51
 13006 0d1d 00000000 		.4byte	0
 13007 0d21 00000000 		.4byte	0
 13008              	.LLST142:
 13009 0d25 00000000 		.4byte	.LVL225
 13010 0d29 03000000 		.4byte	.LVL226-1
 13011 0d2d 0100     		.2byte	0x1
 13012 0d2f 52       		.byte	0x52
 13013 0d30 00000000 		.4byte	0
 13014 0d34 00000000 		.4byte	0
 13015              	.LLST143:
 13016 0d38 00000000 		.4byte	.LVL229
 13017 0d3c 03000000 		.4byte	.LVL230-1
 13018 0d40 0100     		.2byte	0x1
 13019 0d42 50       		.byte	0x50
 13020 0d43 00000000 		.4byte	0
 13021 0d47 00000000 		.4byte	0
 13022              	.LLST144:
 13023 0d4b 00000000 		.4byte	.LVL229
 13024 0d4f 03000000 		.4byte	.LVL231-1
 13025 0d53 0100     		.2byte	0x1
 13026 0d55 51       		.byte	0x51
 13027 0d56 00000000 		.4byte	0
 13028 0d5a 00000000 		.4byte	0
 13029              	.LLST145:
 13030 0d5e 00000000 		.4byte	.LVL232
 13031 0d62 03000000 		.4byte	.LVL233-1
 13032 0d66 0100     		.2byte	0x1
ARM GAS  /tmp/ccq01laD.s 			page 234


 13033 0d68 50       		.byte	0x50
 13034 0d69 00000000 		.4byte	0
 13035 0d6d 00000000 		.4byte	0
 13036              	.LLST146:
 13037 0d71 00000000 		.4byte	.LVL232
 13038 0d75 03000000 		.4byte	.LVL234-1
 13039 0d79 0100     		.2byte	0x1
 13040 0d7b 51       		.byte	0x51
 13041 0d7c 00000000 		.4byte	0
 13042 0d80 00000000 		.4byte	0
 13043              	.LLST147:
 13044 0d84 00000000 		.4byte	.LVL235
 13045 0d88 03000000 		.4byte	.LVL236-1
 13046 0d8c 0100     		.2byte	0x1
 13047 0d8e 50       		.byte	0x50
 13048 0d8f 00000000 		.4byte	0
 13049 0d93 00000000 		.4byte	0
 13050              	.LLST148:
 13051 0d97 00000000 		.4byte	.LVL235
 13052 0d9b 03000000 		.4byte	.LVL237-1
 13053 0d9f 0100     		.2byte	0x1
 13054 0da1 51       		.byte	0x51
 13055 0da2 00000000 		.4byte	0
 13056 0da6 00000000 		.4byte	0
 13057              	.LLST149:
 13058 0daa 00000000 		.4byte	.LFB126
 13059 0dae 02000000 		.4byte	.LCFI26
 13060 0db2 0200     		.2byte	0x2
 13061 0db4 7D       		.byte	0x7d
 13062 0db5 00       		.sleb128 0
 13063 0db6 02000000 		.4byte	.LCFI26
 13064 0dba 04000000 		.4byte	.LCFI27
 13065 0dbe 0200     		.2byte	0x2
 13066 0dc0 7D       		.byte	0x7d
 13067 0dc1 08       		.sleb128 8
 13068 0dc2 04000000 		.4byte	.LCFI27
 13069 0dc6 16000000 		.4byte	.LFE126
 13070 0dca 0200     		.2byte	0x2
 13071 0dcc 7D       		.byte	0x7d
 13072 0dcd 10       		.sleb128 16
 13073 0dce 00000000 		.4byte	0
 13074 0dd2 00000000 		.4byte	0
 13075              	.LLST150:
 13076 0dd6 00000000 		.4byte	.LVL238
 13077 0dda 08000000 		.4byte	.LVL239
 13078 0dde 0100     		.2byte	0x1
 13079 0de0 50       		.byte	0x50
 13080 0de1 08000000 		.4byte	.LVL239
 13081 0de5 16000000 		.4byte	.LFE126
 13082 0de9 0100     		.2byte	0x1
 13083 0deb 54       		.byte	0x54
 13084 0dec 00000000 		.4byte	0
 13085 0df0 00000000 		.4byte	0
 13086              	.LLST151:
 13087 0df4 00000000 		.4byte	.LVL238
 13088 0df8 0F000000 		.4byte	.LVL240-1
 13089 0dfc 0100     		.2byte	0x1
ARM GAS  /tmp/ccq01laD.s 			page 235


 13090 0dfe 51       		.byte	0x51
 13091 0dff 00000000 		.4byte	0
 13092 0e03 00000000 		.4byte	0
 13093              	.LLST152:
 13094 0e07 00000000 		.4byte	.LVL238
 13095 0e0b 0F000000 		.4byte	.LVL240-1
 13096 0e0f 0100     		.2byte	0x1
 13097 0e11 52       		.byte	0x52
 13098 0e12 00000000 		.4byte	0
 13099 0e16 00000000 		.4byte	0
 13100              	.LLST153:
 13101 0e1a 00000000 		.4byte	.LVL238
 13102 0e1e 0F000000 		.4byte	.LVL240-1
 13103 0e22 0100     		.2byte	0x1
 13104 0e24 53       		.byte	0x53
 13105 0e25 00000000 		.4byte	0
 13106 0e29 00000000 		.4byte	0
 13107              	.LLST154:
 13108 0e2d 00000000 		.4byte	.LVL241
 13109 0e31 02000000 		.4byte	.LVL242
 13110 0e35 0100     		.2byte	0x1
 13111 0e37 50       		.byte	0x50
 13112 0e38 00000000 		.4byte	0
 13113 0e3c 00000000 		.4byte	0
 13114              	.LLST155:
 13115 0e40 00000000 		.4byte	.LVL243
 13116 0e44 08000000 		.4byte	.LVL244
 13117 0e48 0100     		.2byte	0x1
 13118 0e4a 50       		.byte	0x50
 13119 0e4b 00000000 		.4byte	0
 13120 0e4f 00000000 		.4byte	0
 13121              	.LLST156:
 13122 0e53 00000000 		.4byte	.LVL245
 13123 0e57 02000000 		.4byte	.LVL246
 13124 0e5b 0100     		.2byte	0x1
 13125 0e5d 50       		.byte	0x50
 13126 0e5e 00000000 		.4byte	0
 13127 0e62 00000000 		.4byte	0
 13128              	.LLST157:
 13129 0e66 00000000 		.4byte	.LVL247
 13130 0e6a 0A000000 		.4byte	.LVL248
 13131 0e6e 0100     		.2byte	0x1
 13132 0e70 50       		.byte	0x50
 13133 0e71 0C000000 		.4byte	.LVL249
 13134 0e75 0E000000 		.4byte	.LVL250
 13135 0e79 0100     		.2byte	0x1
 13136 0e7b 50       		.byte	0x50
 13137 0e7c 00000000 		.4byte	0
 13138 0e80 00000000 		.4byte	0
 13139              	.LLST158:
 13140 0e84 00000000 		.4byte	.LVL251
 13141 0e88 03000000 		.4byte	.LVL252-1
 13142 0e8c 0100     		.2byte	0x1
 13143 0e8e 50       		.byte	0x50
 13144 0e8f 00000000 		.4byte	0
 13145 0e93 00000000 		.4byte	0
 13146              	.LLST159:
ARM GAS  /tmp/ccq01laD.s 			page 236


 13147 0e97 00000000 		.4byte	.LVL253
 13148 0e9b 03000000 		.4byte	.LVL255-1
 13149 0e9f 0100     		.2byte	0x1
 13150 0ea1 50       		.byte	0x50
 13151 0ea2 00000000 		.4byte	0
 13152 0ea6 00000000 		.4byte	0
 13153              	.LLST160:
 13154 0eaa 00000000 		.4byte	.LVL253
 13155 0eae 03000000 		.4byte	.LVL254-1
 13156 0eb2 0100     		.2byte	0x1
 13157 0eb4 51       		.byte	0x51
 13158 0eb5 00000000 		.4byte	0
 13159 0eb9 00000000 		.4byte	0
 13160              	.LLST161:
 13161 0ebd 00000000 		.4byte	.LVL256
 13162 0ec1 07000000 		.4byte	.LVL257-1
 13163 0ec5 0100     		.2byte	0x1
 13164 0ec7 50       		.byte	0x50
 13165 0ec8 00000000 		.4byte	0
 13166 0ecc 00000000 		.4byte	0
 13167              	.LLST162:
 13168 0ed0 00000000 		.4byte	.LVL258
 13169 0ed4 03000000 		.4byte	.LVL259-1
 13170 0ed8 0100     		.2byte	0x1
 13171 0eda 50       		.byte	0x50
 13172 0edb 00000000 		.4byte	0
 13173 0edf 00000000 		.4byte	0
 13174              	.LLST163:
 13175 0ee3 00000000 		.4byte	.LVL258
 13176 0ee7 03000000 		.4byte	.LVL260-1
 13177 0eeb 0100     		.2byte	0x1
 13178 0eed 51       		.byte	0x51
 13179 0eee 00000000 		.4byte	0
 13180 0ef2 00000000 		.4byte	0
 13181              	.LLST164:
 13182 0ef6 00000000 		.4byte	.LVL261
 13183 0efa 03000000 		.4byte	.LVL265-1
 13184 0efe 0100     		.2byte	0x1
 13185 0f00 50       		.byte	0x50
 13186 0f01 00000000 		.4byte	0
 13187 0f05 00000000 		.4byte	0
 13188              	.LLST165:
 13189 0f09 00000000 		.4byte	.LVL261
 13190 0f0d 03000000 		.4byte	.LVL264-1
 13191 0f11 0100     		.2byte	0x1
 13192 0f13 51       		.byte	0x51
 13193 0f14 00000000 		.4byte	0
 13194 0f18 00000000 		.4byte	0
 13195              	.LLST166:
 13196 0f1c 00000000 		.4byte	.LVL261
 13197 0f20 03000000 		.4byte	.LVL263-1
 13198 0f24 0100     		.2byte	0x1
 13199 0f26 52       		.byte	0x52
 13200 0f27 00000000 		.4byte	0
 13201 0f2b 00000000 		.4byte	0
 13202              	.LLST167:
 13203 0f2f 00000000 		.4byte	.LVL261
ARM GAS  /tmp/ccq01laD.s 			page 237


 13204 0f33 03000000 		.4byte	.LVL262-1
 13205 0f37 0100     		.2byte	0x1
 13206 0f39 53       		.byte	0x53
 13207 0f3a 00000000 		.4byte	0
 13208 0f3e 00000000 		.4byte	0
 13209              	.LLST168:
 13210 0f42 00000000 		.4byte	.LFB138
 13211 0f46 02000000 		.4byte	.LCFI28
 13212 0f4a 0200     		.2byte	0x2
 13213 0f4c 7D       		.byte	0x7d
 13214 0f4d 00       		.sleb128 0
 13215 0f4e 02000000 		.4byte	.LCFI28
 13216 0f52 04000000 		.4byte	.LCFI29
 13217 0f56 0200     		.2byte	0x2
 13218 0f58 7D       		.byte	0x7d
 13219 0f59 08       		.sleb128 8
 13220 0f5a 04000000 		.4byte	.LCFI29
 13221 0f5e 16000000 		.4byte	.LFE138
 13222 0f62 0200     		.2byte	0x2
 13223 0f64 7D       		.byte	0x7d
 13224 0f65 10       		.sleb128 16
 13225 0f66 00000000 		.4byte	0
 13226 0f6a 00000000 		.4byte	0
 13227              	.LLST169:
 13228 0f6e 00000000 		.4byte	.LVL266
 13229 0f72 08000000 		.4byte	.LVL267
 13230 0f76 0100     		.2byte	0x1
 13231 0f78 50       		.byte	0x50
 13232 0f79 08000000 		.4byte	.LVL267
 13233 0f7d 16000000 		.4byte	.LFE138
 13234 0f81 0100     		.2byte	0x1
 13235 0f83 54       		.byte	0x54
 13236 0f84 00000000 		.4byte	0
 13237 0f88 00000000 		.4byte	0
 13238              	.LLST170:
 13239 0f8c 00000000 		.4byte	.LVL266
 13240 0f90 0F000000 		.4byte	.LVL268-1
 13241 0f94 0100     		.2byte	0x1
 13242 0f96 51       		.byte	0x51
 13243 0f97 00000000 		.4byte	0
 13244 0f9b 00000000 		.4byte	0
 13245              	.LLST171:
 13246 0f9f 00000000 		.4byte	.LVL266
 13247 0fa3 0F000000 		.4byte	.LVL268-1
 13248 0fa7 0100     		.2byte	0x1
 13249 0fa9 52       		.byte	0x52
 13250 0faa 00000000 		.4byte	0
 13251 0fae 00000000 		.4byte	0
 13252              	.LLST172:
 13253 0fb2 00000000 		.4byte	.LVL266
 13254 0fb6 0F000000 		.4byte	.LVL268-1
 13255 0fba 0100     		.2byte	0x1
 13256 0fbc 53       		.byte	0x53
 13257 0fbd 00000000 		.4byte	0
 13258 0fc1 00000000 		.4byte	0
 13259              	.LLST173:
 13260 0fc5 00000000 		.4byte	.LVL269
ARM GAS  /tmp/ccq01laD.s 			page 238


 13261 0fc9 08000000 		.4byte	.LVL270
 13262 0fcd 0100     		.2byte	0x1
 13263 0fcf 50       		.byte	0x50
 13264 0fd0 00000000 		.4byte	0
 13265 0fd4 00000000 		.4byte	0
 13266              	.LLST174:
 13267 0fd8 00000000 		.4byte	.LVL271
 13268 0fdc 02000000 		.4byte	.LVL272
 13269 0fe0 0100     		.2byte	0x1
 13270 0fe2 50       		.byte	0x50
 13271 0fe3 00000000 		.4byte	0
 13272 0fe7 00000000 		.4byte	0
 13273              	.LLST175:
 13274 0feb 00000000 		.4byte	.LVL273
 13275 0fef 0A000000 		.4byte	.LVL274
 13276 0ff3 0100     		.2byte	0x1
 13277 0ff5 50       		.byte	0x50
 13278 0ff6 0C000000 		.4byte	.LVL275
 13279 0ffa 0E000000 		.4byte	.LVL276
 13280 0ffe 0100     		.2byte	0x1
 13281 1000 50       		.byte	0x50
 13282 1001 00000000 		.4byte	0
 13283 1005 00000000 		.4byte	0
 13284              	.LLST176:
 13285 1009 00000000 		.4byte	.LVL277
 13286 100d 02000000 		.4byte	.LVL278
 13287 1011 0100     		.2byte	0x1
 13288 1013 50       		.byte	0x50
 13289 1014 00000000 		.4byte	0
 13290 1018 00000000 		.4byte	0
 13291              	.LLST177:
 13292 101c 00000000 		.4byte	.LVL279
 13293 1020 03000000 		.4byte	.LVL280-1
 13294 1024 0100     		.2byte	0x1
 13295 1026 50       		.byte	0x50
 13296 1027 00000000 		.4byte	0
 13297 102b 00000000 		.4byte	0
 13298              	.LLST178:
 13299 102f 00000000 		.4byte	.LVL281
 13300 1033 07000000 		.4byte	.LVL282-1
 13301 1037 0100     		.2byte	0x1
 13302 1039 50       		.byte	0x50
 13303 103a 00000000 		.4byte	0
 13304 103e 00000000 		.4byte	0
 13305              	.LLST179:
 13306 1042 00000000 		.4byte	.LVL281
 13307 1046 07000000 		.4byte	.LVL283-1
 13308 104a 0100     		.2byte	0x1
 13309 104c 51       		.byte	0x51
 13310 104d 00000000 		.4byte	0
 13311 1051 00000000 		.4byte	0
 13312              	.LLST180:
 13313 1055 00000000 		.4byte	.LVL284
 13314 1059 03000000 		.4byte	.LVL285-1
 13315 105d 0100     		.2byte	0x1
 13316 105f 50       		.byte	0x50
 13317 1060 00000000 		.4byte	0
ARM GAS  /tmp/ccq01laD.s 			page 239


 13318 1064 00000000 		.4byte	0
 13319              	.LLST181:
 13320 1068 00000000 		.4byte	.LVL284
 13321 106c 03000000 		.4byte	.LVL287-1
 13322 1070 0100     		.2byte	0x1
 13323 1072 51       		.byte	0x51
 13324 1073 00000000 		.4byte	0
 13325 1077 00000000 		.4byte	0
 13326              	.LLST182:
 13327 107b 00000000 		.4byte	.LVL284
 13328 107f 03000000 		.4byte	.LVL286-1
 13329 1083 0100     		.2byte	0x1
 13330 1085 52       		.byte	0x52
 13331 1086 00000000 		.4byte	0
 13332 108a 00000000 		.4byte	0
 13333              	.LLST183:
 13334 108e 00000000 		.4byte	.LVL288
 13335 1092 03000000 		.4byte	.LVL289-1
 13336 1096 0100     		.2byte	0x1
 13337 1098 50       		.byte	0x50
 13338 1099 00000000 		.4byte	0
 13339 109d 00000000 		.4byte	0
 13340              	.LLST184:
 13341 10a1 00000000 		.4byte	.LVL290
 13342 10a5 03000000 		.4byte	.LVL291-1
 13343 10a9 0100     		.2byte	0x1
 13344 10ab 50       		.byte	0x50
 13345 10ac 00000000 		.4byte	0
 13346 10b0 00000000 		.4byte	0
 13347              	.LLST185:
 13348 10b4 00000000 		.4byte	.LVL290
 13349 10b8 03000000 		.4byte	.LVL294-1
 13350 10bc 0100     		.2byte	0x1
 13351 10be 51       		.byte	0x51
 13352 10bf 00000000 		.4byte	0
 13353 10c3 00000000 		.4byte	0
 13354              	.LLST186:
 13355 10c7 00000000 		.4byte	.LVL290
 13356 10cb 03000000 		.4byte	.LVL293-1
 13357 10cf 0100     		.2byte	0x1
 13358 10d1 52       		.byte	0x52
 13359 10d2 00000000 		.4byte	0
 13360 10d6 00000000 		.4byte	0
 13361              	.LLST187:
 13362 10da 00000000 		.4byte	.LVL290
 13363 10de 03000000 		.4byte	.LVL292-1
 13364 10e2 0100     		.2byte	0x1
 13365 10e4 53       		.byte	0x53
 13366 10e5 00000000 		.4byte	0
 13367 10e9 00000000 		.4byte	0
 13368              	.LLST188:
 13369 10ed 00000000 		.4byte	.LFB150
 13370 10f1 02000000 		.4byte	.LCFI30
 13371 10f5 0200     		.2byte	0x2
 13372 10f7 7D       		.byte	0x7d
 13373 10f8 00       		.sleb128 0
 13374 10f9 02000000 		.4byte	.LCFI30
ARM GAS  /tmp/ccq01laD.s 			page 240


 13375 10fd 0C000000 		.4byte	.LFE150
 13376 1101 0200     		.2byte	0x2
 13377 1103 7D       		.byte	0x7d
 13378 1104 08       		.sleb128 8
 13379 1105 00000000 		.4byte	0
 13380 1109 00000000 		.4byte	0
 13381              	.LLST189:
 13382 110d 00000000 		.4byte	.LVL295
 13383 1111 07000000 		.4byte	.LVL296-1
 13384 1115 0100     		.2byte	0x1
 13385 1117 50       		.byte	0x50
 13386 1118 07000000 		.4byte	.LVL296-1
 13387 111c 0C000000 		.4byte	.LFE150
 13388 1120 0100     		.2byte	0x1
 13389 1122 54       		.byte	0x54
 13390 1123 00000000 		.4byte	0
 13391 1127 00000000 		.4byte	0
 13392              	.LLST190:
 13393 112b 00000000 		.4byte	.LVL295
 13394 112f 07000000 		.4byte	.LVL296-1
 13395 1133 0100     		.2byte	0x1
 13396 1135 51       		.byte	0x51
 13397 1136 00000000 		.4byte	0
 13398 113a 00000000 		.4byte	0
 13399              	.LLST191:
 13400 113e 00000000 		.4byte	.LVL295
 13401 1142 07000000 		.4byte	.LVL296-1
 13402 1146 0100     		.2byte	0x1
 13403 1148 52       		.byte	0x52
 13404 1149 00000000 		.4byte	0
 13405 114d 00000000 		.4byte	0
 13406              	.LLST192:
 13407 1151 00000000 		.4byte	.LVL297
 13408 1155 03000000 		.4byte	.LVL298-1
 13409 1159 0100     		.2byte	0x1
 13410 115b 50       		.byte	0x50
 13411 115c 00000000 		.4byte	0
 13412 1160 00000000 		.4byte	0
 13413              	.LLST193:
 13414 1164 00000000 		.4byte	.LVL299
 13415 1168 03000000 		.4byte	.LVL300-1
 13416 116c 0100     		.2byte	0x1
 13417 116e 50       		.byte	0x50
 13418 116f 00000000 		.4byte	0
 13419 1173 00000000 		.4byte	0
 13420              	.LLST194:
 13421 1177 00000000 		.4byte	.LVL299
 13422 117b 03000000 		.4byte	.LVL302-1
 13423 117f 0100     		.2byte	0x1
 13424 1181 51       		.byte	0x51
 13425 1182 00000000 		.4byte	0
 13426 1186 00000000 		.4byte	0
 13427              	.LLST195:
 13428 118a 00000000 		.4byte	.LVL299
 13429 118e 03000000 		.4byte	.LVL301-1
 13430 1192 0100     		.2byte	0x1
 13431 1194 52       		.byte	0x52
ARM GAS  /tmp/ccq01laD.s 			page 241


 13432 1195 00000000 		.4byte	0
 13433 1199 00000000 		.4byte	0
 13434              	.LLST196:
 13435 119d 00000000 		.4byte	.LVL303
 13436 11a1 03000000 		.4byte	.LVL304-1
 13437 11a5 0100     		.2byte	0x1
 13438 11a7 50       		.byte	0x50
 13439 11a8 00000000 		.4byte	0
 13440 11ac 00000000 		.4byte	0
 13441              	.LLST197:
 13442 11b0 00000000 		.4byte	.LVL303
 13443 11b4 03000000 		.4byte	.LVL306-1
 13444 11b8 0100     		.2byte	0x1
 13445 11ba 51       		.byte	0x51
 13446 11bb 00000000 		.4byte	0
 13447 11bf 00000000 		.4byte	0
 13448              	.LLST198:
 13449 11c3 00000000 		.4byte	.LVL303
 13450 11c7 03000000 		.4byte	.LVL305-1
 13451 11cb 0100     		.2byte	0x1
 13452 11cd 52       		.byte	0x52
 13453 11ce 00000000 		.4byte	0
 13454 11d2 00000000 		.4byte	0
 13455              	.LLST199:
 13456 11d6 00000000 		.4byte	.LVL307
 13457 11da 03000000 		.4byte	.LVL308-1
 13458 11de 0100     		.2byte	0x1
 13459 11e0 50       		.byte	0x50
 13460 11e1 00000000 		.4byte	0
 13461 11e5 00000000 		.4byte	0
 13462              	.LLST200:
 13463 11e9 00000000 		.4byte	.LVL307
 13464 11ed 03000000 		.4byte	.LVL309-1
 13465 11f1 0100     		.2byte	0x1
 13466 11f3 51       		.byte	0x51
 13467 11f4 00000000 		.4byte	0
 13468 11f8 00000000 		.4byte	0
 13469              	.LLST201:
 13470 11fc 00000000 		.4byte	.LVL310
 13471 1200 03000000 		.4byte	.LVL312-1
 13472 1204 0100     		.2byte	0x1
 13473 1206 50       		.byte	0x50
 13474 1207 00000000 		.4byte	0
 13475 120b 00000000 		.4byte	0
 13476              	.LLST202:
 13477 120f 00000000 		.4byte	.LVL310
 13478 1213 03000000 		.4byte	.LVL311-1
 13479 1217 0100     		.2byte	0x1
 13480 1219 51       		.byte	0x51
 13481 121a 00000000 		.4byte	0
 13482 121e 00000000 		.4byte	0
 13483              	.LLST203:
 13484 1222 00000000 		.4byte	.LVL310
 13485 1226 03000000 		.4byte	.LVL313-1
 13486 122a 0100     		.2byte	0x1
 13487 122c 52       		.byte	0x52
 13488 122d 00000000 		.4byte	0
ARM GAS  /tmp/ccq01laD.s 			page 242


 13489 1231 00000000 		.4byte	0
 13490              	.LLST204:
 13491 1235 00000000 		.4byte	.LVL314
 13492 1239 03000000 		.4byte	.LVL315-1
 13493 123d 0100     		.2byte	0x1
 13494 123f 50       		.byte	0x50
 13495 1240 00000000 		.4byte	0
 13496 1244 00000000 		.4byte	0
 13497              	.LLST205:
 13498 1248 00000000 		.4byte	.LVL314
 13499 124c 03000000 		.4byte	.LVL317-1
 13500 1250 0100     		.2byte	0x1
 13501 1252 51       		.byte	0x51
 13502 1253 00000000 		.4byte	0
 13503 1257 00000000 		.4byte	0
 13504              	.LLST206:
 13505 125b 00000000 		.4byte	.LVL314
 13506 125f 03000000 		.4byte	.LVL316-1
 13507 1263 0100     		.2byte	0x1
 13508 1265 52       		.byte	0x52
 13509 1266 00000000 		.4byte	0
 13510 126a 00000000 		.4byte	0
 13511              	.LLST207:
 13512 126e 00000000 		.4byte	.LVL318
 13513 1272 03000000 		.4byte	.LVL319-1
 13514 1276 0100     		.2byte	0x1
 13515 1278 50       		.byte	0x50
 13516 1279 00000000 		.4byte	0
 13517 127d 00000000 		.4byte	0
 13518              	.LLST208:
 13519 1281 00000000 		.4byte	.LVL318
 13520 1285 03000000 		.4byte	.LVL320-1
 13521 1289 0100     		.2byte	0x1
 13522 128b 51       		.byte	0x51
 13523 128c 00000000 		.4byte	0
 13524 1290 00000000 		.4byte	0
 13525              	.LLST209:
 13526 1294 00000000 		.4byte	.LVL321
 13527 1298 03000000 		.4byte	.LVL322-1
 13528 129c 0100     		.2byte	0x1
 13529 129e 50       		.byte	0x50
 13530 129f 00000000 		.4byte	0
 13531 12a3 00000000 		.4byte	0
 13532              	.LLST210:
 13533 12a7 00000000 		.4byte	.LVL321
 13534 12ab 03000000 		.4byte	.LVL324-1
 13535 12af 0100     		.2byte	0x1
 13536 12b1 51       		.byte	0x51
 13537 12b2 00000000 		.4byte	0
 13538 12b6 00000000 		.4byte	0
 13539              	.LLST211:
 13540 12ba 00000000 		.4byte	.LVL321
 13541 12be 03000000 		.4byte	.LVL323-1
 13542 12c2 0100     		.2byte	0x1
 13543 12c4 52       		.byte	0x52
 13544 12c5 00000000 		.4byte	0
 13545 12c9 00000000 		.4byte	0
ARM GAS  /tmp/ccq01laD.s 			page 243


 13546              	.LLST212:
 13547 12cd 00000000 		.4byte	.LVL325
 13548 12d1 03000000 		.4byte	.LVL328-1
 13549 12d5 0100     		.2byte	0x1
 13550 12d7 50       		.byte	0x50
 13551 12d8 00000000 		.4byte	0
 13552 12dc 00000000 		.4byte	0
 13553              	.LLST213:
 13554 12e0 00000000 		.4byte	.LVL325
 13555 12e4 03000000 		.4byte	.LVL327-1
 13556 12e8 0100     		.2byte	0x1
 13557 12ea 51       		.byte	0x51
 13558 12eb 00000000 		.4byte	0
 13559 12ef 00000000 		.4byte	0
 13560              	.LLST214:
 13561 12f3 00000000 		.4byte	.LVL325
 13562 12f7 03000000 		.4byte	.LVL326-1
 13563 12fb 0100     		.2byte	0x1
 13564 12fd 52       		.byte	0x52
 13565 12fe 00000000 		.4byte	0
 13566 1302 00000000 		.4byte	0
 13567              	.LLST215:
 13568 1306 00000000 		.4byte	.LVL329
 13569 130a 03000000 		.4byte	.LVL331-1
 13570 130e 0100     		.2byte	0x1
 13571 1310 50       		.byte	0x50
 13572 1311 00000000 		.4byte	0
 13573 1315 00000000 		.4byte	0
 13574              	.LLST216:
 13575 1319 00000000 		.4byte	.LVL329
 13576 131d 03000000 		.4byte	.LVL330-1
 13577 1321 0100     		.2byte	0x1
 13578 1323 51       		.byte	0x51
 13579 1324 00000000 		.4byte	0
 13580 1328 00000000 		.4byte	0
 13581              	.LLST217:
 13582 132c 00000000 		.4byte	.LVL332
 13583 1330 02000000 		.4byte	.LVL333
 13584 1334 0100     		.2byte	0x1
 13585 1336 50       		.byte	0x50
 13586 1337 00000000 		.4byte	0
 13587 133b 00000000 		.4byte	0
 13588              	.LLST218:
 13589 133f 00000000 		.4byte	.LVL334
 13590 1343 02000000 		.4byte	.LVL335
 13591 1347 0100     		.2byte	0x1
 13592 1349 50       		.byte	0x50
 13593 134a 00000000 		.4byte	0
 13594 134e 00000000 		.4byte	0
 13595              	.LLST219:
 13596 1352 00000000 		.4byte	.LFB165
 13597 1356 02000000 		.4byte	.LCFI31
 13598 135a 0200     		.2byte	0x2
 13599 135c 7D       		.byte	0x7d
 13600 135d 00       		.sleb128 0
 13601 135e 02000000 		.4byte	.LCFI31
 13602 1362 0C000000 		.4byte	.LFE165
ARM GAS  /tmp/ccq01laD.s 			page 244


 13603 1366 0200     		.2byte	0x2
 13604 1368 7D       		.byte	0x7d
 13605 1369 08       		.sleb128 8
 13606 136a 00000000 		.4byte	0
 13607 136e 00000000 		.4byte	0
 13608              	.LLST220:
 13609 1372 00000000 		.4byte	.LVL336
 13610 1376 07000000 		.4byte	.LVL337-1
 13611 137a 0100     		.2byte	0x1
 13612 137c 50       		.byte	0x50
 13613 137d 07000000 		.4byte	.LVL337-1
 13614 1381 0C000000 		.4byte	.LFE165
 13615 1385 0100     		.2byte	0x1
 13616 1387 54       		.byte	0x54
 13617 1388 00000000 		.4byte	0
 13618 138c 00000000 		.4byte	0
 13619              	.LLST221:
 13620 1390 00000000 		.4byte	.LVL336
 13621 1394 07000000 		.4byte	.LVL337-1
 13622 1398 0100     		.2byte	0x1
 13623 139a 51       		.byte	0x51
 13624 139b 00000000 		.4byte	0
 13625 139f 00000000 		.4byte	0
 13626              	.LLST222:
 13627 13a3 00000000 		.4byte	.LVL336
 13628 13a7 07000000 		.4byte	.LVL337-1
 13629 13ab 0100     		.2byte	0x1
 13630 13ad 52       		.byte	0x52
 13631 13ae 00000000 		.4byte	0
 13632 13b2 00000000 		.4byte	0
 13633              	.LLST223:
 13634 13b6 00000000 		.4byte	.LFB168
 13635 13ba 02000000 		.4byte	.LCFI32
 13636 13be 0200     		.2byte	0x2
 13637 13c0 7D       		.byte	0x7d
 13638 13c1 00       		.sleb128 0
 13639 13c2 02000000 		.4byte	.LCFI32
 13640 13c6 18000000 		.4byte	.LFE168
 13641 13ca 0200     		.2byte	0x2
 13642 13cc 7D       		.byte	0x7d
 13643 13cd 10       		.sleb128 16
 13644 13ce 00000000 		.4byte	0
 13645 13d2 00000000 		.4byte	0
 13646              	.LLST224:
 13647 13d6 00000000 		.4byte	.LVL338
 13648 13da 09000000 		.4byte	.LVL339-1
 13649 13de 0100     		.2byte	0x1
 13650 13e0 50       		.byte	0x50
 13651 13e1 09000000 		.4byte	.LVL339-1
 13652 13e5 18000000 		.4byte	.LFE168
 13653 13e9 0100     		.2byte	0x1
 13654 13eb 54       		.byte	0x54
 13655 13ec 00000000 		.4byte	0
 13656 13f0 00000000 		.4byte	0
 13657              	.LLST225:
 13658 13f4 00000000 		.4byte	.LVL338
 13659 13f8 09000000 		.4byte	.LVL339-1
ARM GAS  /tmp/ccq01laD.s 			page 245


 13660 13fc 0100     		.2byte	0x1
 13661 13fe 51       		.byte	0x51
 13662 13ff 00000000 		.4byte	0
 13663 1403 00000000 		.4byte	0
 13664              	.LLST226:
 13665 1407 00000000 		.4byte	.LVL338
 13666 140b 09000000 		.4byte	.LVL339-1
 13667 140f 0100     		.2byte	0x1
 13668 1411 52       		.byte	0x52
 13669 1412 00000000 		.4byte	0
 13670 1416 00000000 		.4byte	0
 13671              	.LLST227:
 13672 141a 00000000 		.4byte	.LVL338
 13673 141e 09000000 		.4byte	.LVL339-1
 13674 1422 0100     		.2byte	0x1
 13675 1424 53       		.byte	0x53
 13676 1425 09000000 		.4byte	.LVL339-1
 13677 1429 18000000 		.4byte	.LFE168
 13678 142d 0100     		.2byte	0x1
 13679 142f 55       		.byte	0x55
 13680 1430 00000000 		.4byte	0
 13681 1434 00000000 		.4byte	0
 13682              	.LLST228:
 13683 1438 00000000 		.4byte	.LVL340
 13684 143c 03000000 		.4byte	.LVL341-1
 13685 1440 0100     		.2byte	0x1
 13686 1442 50       		.byte	0x50
 13687 1443 00000000 		.4byte	0
 13688 1447 00000000 		.4byte	0
 13689              	.LLST229:
 13690 144b 00000000 		.4byte	.LVL340
 13691 144f 03000000 		.4byte	.LVL343-1
 13692 1453 0100     		.2byte	0x1
 13693 1455 51       		.byte	0x51
 13694 1456 00000000 		.4byte	0
 13695 145a 00000000 		.4byte	0
 13696              	.LLST230:
 13697 145e 00000000 		.4byte	.LVL340
 13698 1462 03000000 		.4byte	.LVL342-1
 13699 1466 0100     		.2byte	0x1
 13700 1468 52       		.byte	0x52
 13701 1469 00000000 		.4byte	0
 13702 146d 00000000 		.4byte	0
 13703              	.LLST231:
 13704 1471 00000000 		.4byte	.LVL344
 13705 1475 03000000 		.4byte	.LVL345-1
 13706 1479 0100     		.2byte	0x1
 13707 147b 50       		.byte	0x50
 13708 147c 00000000 		.4byte	0
 13709 1480 00000000 		.4byte	0
 13710              	.LLST232:
 13711 1484 00000000 		.4byte	.LVL346
 13712 1488 03000000 		.4byte	.LVL347-1
 13713 148c 0100     		.2byte	0x1
 13714 148e 50       		.byte	0x50
 13715 148f 00000000 		.4byte	0
 13716 1493 00000000 		.4byte	0
ARM GAS  /tmp/ccq01laD.s 			page 246


 13717              	.LLST233:
 13718 1497 00000000 		.4byte	.LVL348
 13719 149b 03000000 		.4byte	.LVL349-1
 13720 149f 0100     		.2byte	0x1
 13721 14a1 50       		.byte	0x50
 13722 14a2 00000000 		.4byte	0
 13723 14a6 00000000 		.4byte	0
 13724              	.LLST234:
 13725 14aa 00000000 		.4byte	.LVL348
 13726 14ae 03000000 		.4byte	.LVL350-1
 13727 14b2 0100     		.2byte	0x1
 13728 14b4 51       		.byte	0x51
 13729 14b5 00000000 		.4byte	0
 13730 14b9 00000000 		.4byte	0
 13731              	.LLST235:
 13732 14bd 00000000 		.4byte	.LVL351
 13733 14c1 03000000 		.4byte	.LVL352-1
 13734 14c5 0100     		.2byte	0x1
 13735 14c7 50       		.byte	0x50
 13736 14c8 00000000 		.4byte	0
 13737 14cc 00000000 		.4byte	0
 13738              	.LLST236:
 13739 14d0 00000000 		.4byte	.LVL351
 13740 14d4 03000000 		.4byte	.LVL353-1
 13741 14d8 0100     		.2byte	0x1
 13742 14da 51       		.byte	0x51
 13743 14db 00000000 		.4byte	0
 13744 14df 00000000 		.4byte	0
 13745              		.section	.debug_aranges,"",%progbits
 13746 0000 44040000 		.4byte	0x444
 13747 0004 0200     		.2byte	0x2
 13748 0006 00000000 		.4byte	.Ldebug_info0
 13749 000a 04       		.byte	0x4
 13750 000b 00       		.byte	0
 13751 000c 0000     		.2byte	0
 13752 000e 0000     		.2byte	0
 13753 0010 00000000 		.4byte	.LFB45
 13754 0014 04000000 		.4byte	.LFE45-.LFB45
 13755 0018 00000000 		.4byte	.LFB46
 13756 001c 10000000 		.4byte	.LFE46-.LFB46
 13757 0020 00000000 		.4byte	.LFB29
 13758 0024 0C000000 		.4byte	.LFE29-.LFB29
 13759 0028 00000000 		.4byte	.LFB16
 13760 002c 04000000 		.4byte	.LFE16-.LFB16
 13761 0030 00000000 		.4byte	.LFB17
 13762 0034 0A000000 		.4byte	.LFE17-.LFB17
 13763 0038 00000000 		.4byte	.LFB18
 13764 003c 0E000000 		.4byte	.LFE18-.LFB18
 13765 0040 00000000 		.4byte	.LFB19
 13766 0044 0A000000 		.4byte	.LFE19-.LFB19
 13767 0048 00000000 		.4byte	.LFB20
 13768 004c 0E000000 		.4byte	.LFE20-.LFB20
 13769 0050 00000000 		.4byte	.LFB21
 13770 0054 0C000000 		.4byte	.LFE21-.LFB21
 13771 0058 00000000 		.4byte	.LFB22
 13772 005c 04000000 		.4byte	.LFE22-.LFB22
 13773 0060 00000000 		.4byte	.LFB23
ARM GAS  /tmp/ccq01laD.s 			page 247


 13774 0064 04000000 		.4byte	.LFE23-.LFB23
 13775 0068 00000000 		.4byte	.LFB24
 13776 006c 04000000 		.4byte	.LFE24-.LFB24
 13777 0070 00000000 		.4byte	.LFB25
 13778 0074 04000000 		.4byte	.LFE25-.LFB25
 13779 0078 00000000 		.4byte	.LFB26
 13780 007c 04000000 		.4byte	.LFE26-.LFB26
 13781 0080 00000000 		.4byte	.LFB27
 13782 0084 0A000000 		.4byte	.LFE27-.LFB27
 13783 0088 00000000 		.4byte	.LFB28
 13784 008c 0A000000 		.4byte	.LFE28-.LFB28
 13785 0090 00000000 		.4byte	.LFB30
 13786 0094 40000000 		.4byte	.LFE30-.LFB30
 13787 0098 00000000 		.4byte	.LFB31
 13788 009c 28000000 		.4byte	.LFE31-.LFB31
 13789 00a0 00000000 		.4byte	.LFB32
 13790 00a4 3C000000 		.4byte	.LFE32-.LFB32
 13791 00a8 00000000 		.4byte	.LFB33
 13792 00ac 34000000 		.4byte	.LFE33-.LFB33
 13793 00b0 00000000 		.4byte	.LFB34
 13794 00b4 20000000 		.4byte	.LFE34-.LFB34
 13795 00b8 00000000 		.4byte	.LFB35
 13796 00bc 28000000 		.4byte	.LFE35-.LFB35
 13797 00c0 00000000 		.4byte	.LFB36
 13798 00c4 28000000 		.4byte	.LFE36-.LFB36
 13799 00c8 00000000 		.4byte	.LFB37
 13800 00cc 2C000000 		.4byte	.LFE37-.LFB37
 13801 00d0 00000000 		.4byte	.LFB38
 13802 00d4 1C000000 		.4byte	.LFE38-.LFB38
 13803 00d8 00000000 		.4byte	.LFB39
 13804 00dc 28000000 		.4byte	.LFE39-.LFB39
 13805 00e0 00000000 		.4byte	.LFB40
 13806 00e4 28000000 		.4byte	.LFE40-.LFB40
 13807 00e8 00000000 		.4byte	.LFB41
 13808 00ec 28000000 		.4byte	.LFE41-.LFB41
 13809 00f0 00000000 		.4byte	.LFB43
 13810 00f4 10000000 		.4byte	.LFE43-.LFB43
 13811 00f8 00000000 		.4byte	.LFB50
 13812 00fc 0A000000 		.4byte	.LFE50-.LFB50
 13813 0100 00000000 		.4byte	.LFB51
 13814 0104 0E000000 		.4byte	.LFE51-.LFB51
 13815 0108 00000000 		.4byte	.LFB52
 13816 010c 04000000 		.4byte	.LFE52-.LFB52
 13817 0110 00000000 		.4byte	.LFB53
 13818 0114 04000000 		.4byte	.LFE53-.LFB53
 13819 0118 00000000 		.4byte	.LFB54
 13820 011c 04000000 		.4byte	.LFE54-.LFB54
 13821 0120 00000000 		.4byte	.LFB55
 13822 0124 14000000 		.4byte	.LFE55-.LFB55
 13823 0128 00000000 		.4byte	.LFB56
 13824 012c 04000000 		.4byte	.LFE56-.LFB56
 13825 0130 00000000 		.4byte	.LFB57
 13826 0134 04000000 		.4byte	.LFE57-.LFB57
 13827 0138 00000000 		.4byte	.LFB58
 13828 013c 04000000 		.4byte	.LFE58-.LFB58
 13829 0140 00000000 		.4byte	.LFB59
 13830 0144 18000000 		.4byte	.LFE59-.LFB59
ARM GAS  /tmp/ccq01laD.s 			page 248


 13831 0148 00000000 		.4byte	.LFB60
 13832 014c 04000000 		.4byte	.LFE60-.LFB60
 13833 0150 00000000 		.4byte	.LFB61
 13834 0154 04000000 		.4byte	.LFE61-.LFB61
 13835 0158 00000000 		.4byte	.LFB62
 13836 015c 04000000 		.4byte	.LFE62-.LFB62
 13837 0160 00000000 		.4byte	.LFB63
 13838 0164 04000000 		.4byte	.LFE63-.LFB63
 13839 0168 00000000 		.4byte	.LFB64
 13840 016c 04000000 		.4byte	.LFE64-.LFB64
 13841 0170 00000000 		.4byte	.LFB65
 13842 0174 04000000 		.4byte	.LFE65-.LFB65
 13843 0178 00000000 		.4byte	.LFB66
 13844 017c 04000000 		.4byte	.LFE66-.LFB66
 13845 0180 00000000 		.4byte	.LFB67
 13846 0184 04000000 		.4byte	.LFE67-.LFB67
 13847 0188 00000000 		.4byte	.LFB68
 13848 018c 04000000 		.4byte	.LFE68-.LFB68
 13849 0190 00000000 		.4byte	.LFB69
 13850 0194 04000000 		.4byte	.LFE69-.LFB69
 13851 0198 00000000 		.4byte	.LFB70
 13852 019c 04000000 		.4byte	.LFE70-.LFB70
 13853 01a0 00000000 		.4byte	.LFB71
 13854 01a4 04000000 		.4byte	.LFE71-.LFB71
 13855 01a8 00000000 		.4byte	.LFB73
 13856 01ac 0C000000 		.4byte	.LFE73-.LFB73
 13857 01b0 00000000 		.4byte	.LFB75
 13858 01b4 04000000 		.4byte	.LFE75-.LFB75
 13859 01b8 00000000 		.4byte	.LFB76
 13860 01bc 04000000 		.4byte	.LFE76-.LFB76
 13861 01c0 00000000 		.4byte	.LFB77
 13862 01c4 04000000 		.4byte	.LFE77-.LFB77
 13863 01c8 00000000 		.4byte	.LFB78
 13864 01cc 04000000 		.4byte	.LFE78-.LFB78
 13865 01d0 00000000 		.4byte	.LFB79
 13866 01d4 04000000 		.4byte	.LFE79-.LFB79
 13867 01d8 00000000 		.4byte	.LFB80
 13868 01dc 04000000 		.4byte	.LFE80-.LFB80
 13869 01e0 00000000 		.4byte	.LFB81
 13870 01e4 04000000 		.4byte	.LFE81-.LFB81
 13871 01e8 00000000 		.4byte	.LFB82
 13872 01ec 04000000 		.4byte	.LFE82-.LFB82
 13873 01f0 00000000 		.4byte	.LFB83
 13874 01f4 04000000 		.4byte	.LFE83-.LFB83
 13875 01f8 00000000 		.4byte	.LFB84
 13876 01fc 04000000 		.4byte	.LFE84-.LFB84
 13877 0200 00000000 		.4byte	.LFB85
 13878 0204 04000000 		.4byte	.LFE85-.LFB85
 13879 0208 00000000 		.4byte	.LFB87
 13880 020c 10000000 		.4byte	.LFE87-.LFB87
 13881 0210 00000000 		.4byte	.LFB89
 13882 0214 04000000 		.4byte	.LFE89-.LFB89
 13883 0218 00000000 		.4byte	.LFB90
 13884 021c 04000000 		.4byte	.LFE90-.LFB90
 13885 0220 00000000 		.4byte	.LFB91
 13886 0224 04000000 		.4byte	.LFE91-.LFB91
 13887 0228 00000000 		.4byte	.LFB92
ARM GAS  /tmp/ccq01laD.s 			page 249


 13888 022c 04000000 		.4byte	.LFE92-.LFB92
 13889 0230 00000000 		.4byte	.LFB93
 13890 0234 08000000 		.4byte	.LFE93-.LFB93
 13891 0238 00000000 		.4byte	.LFB94
 13892 023c 08000000 		.4byte	.LFE94-.LFB94
 13893 0240 00000000 		.4byte	.LFB95
 13894 0244 3A000000 		.4byte	.LFE95-.LFB95
 13895 0248 00000000 		.4byte	.LFB96
 13896 024c 0C000000 		.4byte	.LFE96-.LFB96
 13897 0250 00000000 		.4byte	.LFB97
 13898 0254 0C000000 		.4byte	.LFE97-.LFB97
 13899 0258 00000000 		.4byte	.LFB99
 13900 025c 0C000000 		.4byte	.LFE99-.LFB99
 13901 0260 00000000 		.4byte	.LFB101
 13902 0264 04000000 		.4byte	.LFE101-.LFB101
 13903 0268 00000000 		.4byte	.LFB102
 13904 026c 04000000 		.4byte	.LFE102-.LFB102
 13905 0270 00000000 		.4byte	.LFB103
 13906 0274 04000000 		.4byte	.LFE103-.LFB103
 13907 0278 00000000 		.4byte	.LFB104
 13908 027c 04000000 		.4byte	.LFE104-.LFB104
 13909 0280 00000000 		.4byte	.LFB106
 13910 0284 0C000000 		.4byte	.LFE106-.LFB106
 13911 0288 00000000 		.4byte	.LFB108
 13912 028c 04000000 		.4byte	.LFE108-.LFB108
 13913 0290 00000000 		.4byte	.LFB109
 13914 0294 04000000 		.4byte	.LFE109-.LFB109
 13915 0298 00000000 		.4byte	.LFB110
 13916 029c 04000000 		.4byte	.LFE110-.LFB110
 13917 02a0 00000000 		.4byte	.LFB111
 13918 02a4 04000000 		.4byte	.LFE111-.LFB111
 13919 02a8 00000000 		.4byte	.LFB112
 13920 02ac 04000000 		.4byte	.LFE112-.LFB112
 13921 02b0 00000000 		.4byte	.LFB113
 13922 02b4 04000000 		.4byte	.LFE113-.LFB113
 13923 02b8 00000000 		.4byte	.LFB114
 13924 02bc 04000000 		.4byte	.LFE114-.LFB114
 13925 02c0 00000000 		.4byte	.LFB115
 13926 02c4 04000000 		.4byte	.LFE115-.LFB115
 13927 02c8 00000000 		.4byte	.LFB116
 13928 02cc 04000000 		.4byte	.LFE116-.LFB116
 13929 02d0 00000000 		.4byte	.LFB118
 13930 02d4 04000000 		.4byte	.LFE118-.LFB118
 13931 02d8 00000000 		.4byte	.LFB120
 13932 02dc 0A000000 		.4byte	.LFE120-.LFB120
 13933 02e0 00000000 		.4byte	.LFB121
 13934 02e4 04000000 		.4byte	.LFE121-.LFB121
 13935 02e8 00000000 		.4byte	.LFB122
 13936 02ec 04000000 		.4byte	.LFE122-.LFB122
 13937 02f0 00000000 		.4byte	.LFB123
 13938 02f4 04000000 		.4byte	.LFE123-.LFB123
 13939 02f8 00000000 		.4byte	.LFB124
 13940 02fc 04000000 		.4byte	.LFE124-.LFB124
 13941 0300 00000000 		.4byte	.LFB126
 13942 0304 16000000 		.4byte	.LFE126-.LFB126
 13943 0308 00000000 		.4byte	.LFB128
 13944 030c 04000000 		.4byte	.LFE128-.LFB128
ARM GAS  /tmp/ccq01laD.s 			page 250


 13945 0310 00000000 		.4byte	.LFB129
 13946 0314 0C000000 		.4byte	.LFE129-.LFB129
 13947 0318 00000000 		.4byte	.LFB130
 13948 031c 0C000000 		.4byte	.LFE130-.LFB130
 13949 0320 00000000 		.4byte	.LFB131
 13950 0324 16000000 		.4byte	.LFE131-.LFB131
 13951 0328 00000000 		.4byte	.LFB132
 13952 032c 04000000 		.4byte	.LFE132-.LFB132
 13953 0330 00000000 		.4byte	.LFB133
 13954 0334 04000000 		.4byte	.LFE133-.LFB133
 13955 0338 00000000 		.4byte	.LFB134
 13956 033c 08000000 		.4byte	.LFE134-.LFB134
 13957 0340 00000000 		.4byte	.LFB135
 13958 0344 04000000 		.4byte	.LFE135-.LFB135
 13959 0348 00000000 		.4byte	.LFB136
 13960 034c 04000000 		.4byte	.LFE136-.LFB136
 13961 0350 00000000 		.4byte	.LFB138
 13962 0354 16000000 		.4byte	.LFE138-.LFB138
 13963 0358 00000000 		.4byte	.LFB140
 13964 035c 0C000000 		.4byte	.LFE140-.LFB140
 13965 0360 00000000 		.4byte	.LFB141
 13966 0364 04000000 		.4byte	.LFE141-.LFB141
 13967 0368 00000000 		.4byte	.LFB142
 13968 036c 16000000 		.4byte	.LFE142-.LFB142
 13969 0370 00000000 		.4byte	.LFB143
 13970 0374 0C000000 		.4byte	.LFE143-.LFB143
 13971 0378 00000000 		.4byte	.LFB144
 13972 037c 04000000 		.4byte	.LFE144-.LFB144
 13973 0380 00000000 		.4byte	.LFB145
 13974 0384 08000000 		.4byte	.LFE145-.LFB145
 13975 0388 00000000 		.4byte	.LFB146
 13976 038c 04000000 		.4byte	.LFE146-.LFB146
 13977 0390 00000000 		.4byte	.LFB147
 13978 0394 04000000 		.4byte	.LFE147-.LFB147
 13979 0398 00000000 		.4byte	.LFB148
 13980 039c 04000000 		.4byte	.LFE148-.LFB148
 13981 03a0 00000000 		.4byte	.LFB150
 13982 03a4 0C000000 		.4byte	.LFE150-.LFB150
 13983 03a8 00000000 		.4byte	.LFB152
 13984 03ac 04000000 		.4byte	.LFE152-.LFB152
 13985 03b0 00000000 		.4byte	.LFB153
 13986 03b4 04000000 		.4byte	.LFE153-.LFB153
 13987 03b8 00000000 		.4byte	.LFB154
 13988 03bc 04000000 		.4byte	.LFE154-.LFB154
 13989 03c0 00000000 		.4byte	.LFB155
 13990 03c4 04000000 		.4byte	.LFE155-.LFB155
 13991 03c8 00000000 		.4byte	.LFB156
 13992 03cc 04000000 		.4byte	.LFE156-.LFB156
 13993 03d0 00000000 		.4byte	.LFB157
 13994 03d4 04000000 		.4byte	.LFE157-.LFB157
 13995 03d8 00000000 		.4byte	.LFB158
 13996 03dc 04000000 		.4byte	.LFE158-.LFB158
 13997 03e0 00000000 		.4byte	.LFB159
 13998 03e4 04000000 		.4byte	.LFE159-.LFB159
 13999 03e8 00000000 		.4byte	.LFB160
 14000 03ec 04000000 		.4byte	.LFE160-.LFB160
 14001 03f0 00000000 		.4byte	.LFB161
ARM GAS  /tmp/ccq01laD.s 			page 251


 14002 03f4 04000000 		.4byte	.LFE161-.LFB161
 14003 03f8 00000000 		.4byte	.LFB162
 14004 03fc 04000000 		.4byte	.LFE162-.LFB162
 14005 0400 00000000 		.4byte	.LFB163
 14006 0404 04000000 		.4byte	.LFE163-.LFB163
 14007 0408 00000000 		.4byte	.LFB165
 14008 040c 0C000000 		.4byte	.LFE165-.LFB165
 14009 0410 00000000 		.4byte	.LFB168
 14010 0414 18000000 		.4byte	.LFE168-.LFB168
 14011 0418 00000000 		.4byte	.LFB170
 14012 041c 04000000 		.4byte	.LFE170-.LFB170
 14013 0420 00000000 		.4byte	.LFB171
 14014 0424 04000000 		.4byte	.LFE171-.LFB171
 14015 0428 00000000 		.4byte	.LFB172
 14016 042c 04000000 		.4byte	.LFE172-.LFB172
 14017 0430 00000000 		.4byte	.LFB173
 14018 0434 04000000 		.4byte	.LFE173-.LFB173
 14019 0438 00000000 		.4byte	.LFB174
 14020 043c 04000000 		.4byte	.LFE174-.LFB174
 14021 0440 00000000 		.4byte	0
 14022 0444 00000000 		.4byte	0
 14023              		.section	.debug_ranges,"",%progbits
 14024              	.Ldebug_ranges0:
 14025 0000 02000000 		.4byte	.LBB26
 14026 0004 04000000 		.4byte	.LBE26
 14027 0008 06000000 		.4byte	.LBB33
 14028 000c 2C000000 		.4byte	.LBE33
 14029 0010 30000000 		.4byte	.LBB34
 14030 0014 40000000 		.4byte	.LBE34
 14031 0018 00000000 		.4byte	0
 14032 001c 00000000 		.4byte	0
 14033 0020 02000000 		.4byte	.LBB28
 14034 0024 04000000 		.4byte	.LBE28
 14035 0028 06000000 		.4byte	.LBB29
 14036 002c 0A000000 		.4byte	.LBE29
 14037 0030 00000000 		.4byte	0
 14038 0034 00000000 		.4byte	0
 14039 0038 0A000000 		.4byte	.LBB46
 14040 003c 10000000 		.4byte	.LBE46
 14041 0040 16000000 		.4byte	.LBB47
 14042 0044 1A000000 		.4byte	.LBE47
 14043 0048 00000000 		.4byte	0
 14044 004c 00000000 		.4byte	0
 14045 0050 04000000 		.4byte	.LBB52
 14046 0054 10000000 		.4byte	.LBE52
 14047 0058 12000000 		.4byte	.LBB53
 14048 005c 22000000 		.4byte	.LBE53
 14049 0060 00000000 		.4byte	0
 14050 0064 00000000 		.4byte	0
 14051 0068 02000000 		.4byte	.LBB67
 14052 006c 04000000 		.4byte	.LBE67
 14053 0070 06000000 		.4byte	.LBB68
 14054 0074 0A000000 		.4byte	.LBE68
 14055 0078 00000000 		.4byte	0
 14056 007c 00000000 		.4byte	0
 14057 0080 1C000000 		.4byte	.LBB71
 14058 0084 22000000 		.4byte	.LBE71
ARM GAS  /tmp/ccq01laD.s 			page 252


 14059 0088 32000000 		.4byte	.LBB72
 14060 008c 38000000 		.4byte	.LBE72
 14061 0090 00000000 		.4byte	0
 14062 0094 00000000 		.4byte	0
 14063 0098 00000000 		.4byte	.LFB45
 14064 009c 04000000 		.4byte	.LFE45
 14065 00a0 00000000 		.4byte	.LFB46
 14066 00a4 10000000 		.4byte	.LFE46
 14067 00a8 00000000 		.4byte	.LFB29
 14068 00ac 0C000000 		.4byte	.LFE29
 14069 00b0 00000000 		.4byte	.LFB16
 14070 00b4 04000000 		.4byte	.LFE16
 14071 00b8 00000000 		.4byte	.LFB17
 14072 00bc 0A000000 		.4byte	.LFE17
 14073 00c0 00000000 		.4byte	.LFB18
 14074 00c4 0E000000 		.4byte	.LFE18
 14075 00c8 00000000 		.4byte	.LFB19
 14076 00cc 0A000000 		.4byte	.LFE19
 14077 00d0 00000000 		.4byte	.LFB20
 14078 00d4 0E000000 		.4byte	.LFE20
 14079 00d8 00000000 		.4byte	.LFB21
 14080 00dc 0C000000 		.4byte	.LFE21
 14081 00e0 00000000 		.4byte	.LFB22
 14082 00e4 04000000 		.4byte	.LFE22
 14083 00e8 00000000 		.4byte	.LFB23
 14084 00ec 04000000 		.4byte	.LFE23
 14085 00f0 00000000 		.4byte	.LFB24
 14086 00f4 04000000 		.4byte	.LFE24
 14087 00f8 00000000 		.4byte	.LFB25
 14088 00fc 04000000 		.4byte	.LFE25
 14089 0100 00000000 		.4byte	.LFB26
 14090 0104 04000000 		.4byte	.LFE26
 14091 0108 00000000 		.4byte	.LFB27
 14092 010c 0A000000 		.4byte	.LFE27
 14093 0110 00000000 		.4byte	.LFB28
 14094 0114 0A000000 		.4byte	.LFE28
 14095 0118 00000000 		.4byte	.LFB30
 14096 011c 40000000 		.4byte	.LFE30
 14097 0120 00000000 		.4byte	.LFB31
 14098 0124 28000000 		.4byte	.LFE31
 14099 0128 00000000 		.4byte	.LFB32
 14100 012c 3C000000 		.4byte	.LFE32
 14101 0130 00000000 		.4byte	.LFB33
 14102 0134 34000000 		.4byte	.LFE33
 14103 0138 00000000 		.4byte	.LFB34
 14104 013c 20000000 		.4byte	.LFE34
 14105 0140 00000000 		.4byte	.LFB35
 14106 0144 28000000 		.4byte	.LFE35
 14107 0148 00000000 		.4byte	.LFB36
 14108 014c 28000000 		.4byte	.LFE36
 14109 0150 00000000 		.4byte	.LFB37
 14110 0154 2C000000 		.4byte	.LFE37
 14111 0158 00000000 		.4byte	.LFB38
 14112 015c 1C000000 		.4byte	.LFE38
 14113 0160 00000000 		.4byte	.LFB39
 14114 0164 28000000 		.4byte	.LFE39
 14115 0168 00000000 		.4byte	.LFB40
ARM GAS  /tmp/ccq01laD.s 			page 253


 14116 016c 28000000 		.4byte	.LFE40
 14117 0170 00000000 		.4byte	.LFB41
 14118 0174 28000000 		.4byte	.LFE41
 14119 0178 00000000 		.4byte	.LFB43
 14120 017c 10000000 		.4byte	.LFE43
 14121 0180 00000000 		.4byte	.LFB50
 14122 0184 0A000000 		.4byte	.LFE50
 14123 0188 00000000 		.4byte	.LFB51
 14124 018c 0E000000 		.4byte	.LFE51
 14125 0190 00000000 		.4byte	.LFB52
 14126 0194 04000000 		.4byte	.LFE52
 14127 0198 00000000 		.4byte	.LFB53
 14128 019c 04000000 		.4byte	.LFE53
 14129 01a0 00000000 		.4byte	.LFB54
 14130 01a4 04000000 		.4byte	.LFE54
 14131 01a8 00000000 		.4byte	.LFB55
 14132 01ac 14000000 		.4byte	.LFE55
 14133 01b0 00000000 		.4byte	.LFB56
 14134 01b4 04000000 		.4byte	.LFE56
 14135 01b8 00000000 		.4byte	.LFB57
 14136 01bc 04000000 		.4byte	.LFE57
 14137 01c0 00000000 		.4byte	.LFB58
 14138 01c4 04000000 		.4byte	.LFE58
 14139 01c8 00000000 		.4byte	.LFB59
 14140 01cc 18000000 		.4byte	.LFE59
 14141 01d0 00000000 		.4byte	.LFB60
 14142 01d4 04000000 		.4byte	.LFE60
 14143 01d8 00000000 		.4byte	.LFB61
 14144 01dc 04000000 		.4byte	.LFE61
 14145 01e0 00000000 		.4byte	.LFB62
 14146 01e4 04000000 		.4byte	.LFE62
 14147 01e8 00000000 		.4byte	.LFB63
 14148 01ec 04000000 		.4byte	.LFE63
 14149 01f0 00000000 		.4byte	.LFB64
 14150 01f4 04000000 		.4byte	.LFE64
 14151 01f8 00000000 		.4byte	.LFB65
 14152 01fc 04000000 		.4byte	.LFE65
 14153 0200 00000000 		.4byte	.LFB66
 14154 0204 04000000 		.4byte	.LFE66
 14155 0208 00000000 		.4byte	.LFB67
 14156 020c 04000000 		.4byte	.LFE67
 14157 0210 00000000 		.4byte	.LFB68
 14158 0214 04000000 		.4byte	.LFE68
 14159 0218 00000000 		.4byte	.LFB69
 14160 021c 04000000 		.4byte	.LFE69
 14161 0220 00000000 		.4byte	.LFB70
 14162 0224 04000000 		.4byte	.LFE70
 14163 0228 00000000 		.4byte	.LFB71
 14164 022c 04000000 		.4byte	.LFE71
 14165 0230 00000000 		.4byte	.LFB73
 14166 0234 0C000000 		.4byte	.LFE73
 14167 0238 00000000 		.4byte	.LFB75
 14168 023c 04000000 		.4byte	.LFE75
 14169 0240 00000000 		.4byte	.LFB76
 14170 0244 04000000 		.4byte	.LFE76
 14171 0248 00000000 		.4byte	.LFB77
 14172 024c 04000000 		.4byte	.LFE77
ARM GAS  /tmp/ccq01laD.s 			page 254


 14173 0250 00000000 		.4byte	.LFB78
 14174 0254 04000000 		.4byte	.LFE78
 14175 0258 00000000 		.4byte	.LFB79
 14176 025c 04000000 		.4byte	.LFE79
 14177 0260 00000000 		.4byte	.LFB80
 14178 0264 04000000 		.4byte	.LFE80
 14179 0268 00000000 		.4byte	.LFB81
 14180 026c 04000000 		.4byte	.LFE81
 14181 0270 00000000 		.4byte	.LFB82
 14182 0274 04000000 		.4byte	.LFE82
 14183 0278 00000000 		.4byte	.LFB83
 14184 027c 04000000 		.4byte	.LFE83
 14185 0280 00000000 		.4byte	.LFB84
 14186 0284 04000000 		.4byte	.LFE84
 14187 0288 00000000 		.4byte	.LFB85
 14188 028c 04000000 		.4byte	.LFE85
 14189 0290 00000000 		.4byte	.LFB87
 14190 0294 10000000 		.4byte	.LFE87
 14191 0298 00000000 		.4byte	.LFB89
 14192 029c 04000000 		.4byte	.LFE89
 14193 02a0 00000000 		.4byte	.LFB90
 14194 02a4 04000000 		.4byte	.LFE90
 14195 02a8 00000000 		.4byte	.LFB91
 14196 02ac 04000000 		.4byte	.LFE91
 14197 02b0 00000000 		.4byte	.LFB92
 14198 02b4 04000000 		.4byte	.LFE92
 14199 02b8 00000000 		.4byte	.LFB93
 14200 02bc 08000000 		.4byte	.LFE93
 14201 02c0 00000000 		.4byte	.LFB94
 14202 02c4 08000000 		.4byte	.LFE94
 14203 02c8 00000000 		.4byte	.LFB95
 14204 02cc 3A000000 		.4byte	.LFE95
 14205 02d0 00000000 		.4byte	.LFB96
 14206 02d4 0C000000 		.4byte	.LFE96
 14207 02d8 00000000 		.4byte	.LFB97
 14208 02dc 0C000000 		.4byte	.LFE97
 14209 02e0 00000000 		.4byte	.LFB99
 14210 02e4 0C000000 		.4byte	.LFE99
 14211 02e8 00000000 		.4byte	.LFB101
 14212 02ec 04000000 		.4byte	.LFE101
 14213 02f0 00000000 		.4byte	.LFB102
 14214 02f4 04000000 		.4byte	.LFE102
 14215 02f8 00000000 		.4byte	.LFB103
 14216 02fc 04000000 		.4byte	.LFE103
 14217 0300 00000000 		.4byte	.LFB104
 14218 0304 04000000 		.4byte	.LFE104
 14219 0308 00000000 		.4byte	.LFB106
 14220 030c 0C000000 		.4byte	.LFE106
 14221 0310 00000000 		.4byte	.LFB108
 14222 0314 04000000 		.4byte	.LFE108
 14223 0318 00000000 		.4byte	.LFB109
 14224 031c 04000000 		.4byte	.LFE109
 14225 0320 00000000 		.4byte	.LFB110
 14226 0324 04000000 		.4byte	.LFE110
 14227 0328 00000000 		.4byte	.LFB111
 14228 032c 04000000 		.4byte	.LFE111
 14229 0330 00000000 		.4byte	.LFB112
ARM GAS  /tmp/ccq01laD.s 			page 255


 14230 0334 04000000 		.4byte	.LFE112
 14231 0338 00000000 		.4byte	.LFB113
 14232 033c 04000000 		.4byte	.LFE113
 14233 0340 00000000 		.4byte	.LFB114
 14234 0344 04000000 		.4byte	.LFE114
 14235 0348 00000000 		.4byte	.LFB115
 14236 034c 04000000 		.4byte	.LFE115
 14237 0350 00000000 		.4byte	.LFB116
 14238 0354 04000000 		.4byte	.LFE116
 14239 0358 00000000 		.4byte	.LFB118
 14240 035c 04000000 		.4byte	.LFE118
 14241 0360 00000000 		.4byte	.LFB120
 14242 0364 0A000000 		.4byte	.LFE120
 14243 0368 00000000 		.4byte	.LFB121
 14244 036c 04000000 		.4byte	.LFE121
 14245 0370 00000000 		.4byte	.LFB122
 14246 0374 04000000 		.4byte	.LFE122
 14247 0378 00000000 		.4byte	.LFB123
 14248 037c 04000000 		.4byte	.LFE123
 14249 0380 00000000 		.4byte	.LFB124
 14250 0384 04000000 		.4byte	.LFE124
 14251 0388 00000000 		.4byte	.LFB126
 14252 038c 16000000 		.4byte	.LFE126
 14253 0390 00000000 		.4byte	.LFB128
 14254 0394 04000000 		.4byte	.LFE128
 14255 0398 00000000 		.4byte	.LFB129
 14256 039c 0C000000 		.4byte	.LFE129
 14257 03a0 00000000 		.4byte	.LFB130
 14258 03a4 0C000000 		.4byte	.LFE130
 14259 03a8 00000000 		.4byte	.LFB131
 14260 03ac 16000000 		.4byte	.LFE131
 14261 03b0 00000000 		.4byte	.LFB132
 14262 03b4 04000000 		.4byte	.LFE132
 14263 03b8 00000000 		.4byte	.LFB133
 14264 03bc 04000000 		.4byte	.LFE133
 14265 03c0 00000000 		.4byte	.LFB134
 14266 03c4 08000000 		.4byte	.LFE134
 14267 03c8 00000000 		.4byte	.LFB135
 14268 03cc 04000000 		.4byte	.LFE135
 14269 03d0 00000000 		.4byte	.LFB136
 14270 03d4 04000000 		.4byte	.LFE136
 14271 03d8 00000000 		.4byte	.LFB138
 14272 03dc 16000000 		.4byte	.LFE138
 14273 03e0 00000000 		.4byte	.LFB140
 14274 03e4 0C000000 		.4byte	.LFE140
 14275 03e8 00000000 		.4byte	.LFB141
 14276 03ec 04000000 		.4byte	.LFE141
 14277 03f0 00000000 		.4byte	.LFB142
 14278 03f4 16000000 		.4byte	.LFE142
 14279 03f8 00000000 		.4byte	.LFB143
 14280 03fc 0C000000 		.4byte	.LFE143
 14281 0400 00000000 		.4byte	.LFB144
 14282 0404 04000000 		.4byte	.LFE144
 14283 0408 00000000 		.4byte	.LFB145
 14284 040c 08000000 		.4byte	.LFE145
 14285 0410 00000000 		.4byte	.LFB146
 14286 0414 04000000 		.4byte	.LFE146
ARM GAS  /tmp/ccq01laD.s 			page 256


 14287 0418 00000000 		.4byte	.LFB147
 14288 041c 04000000 		.4byte	.LFE147
 14289 0420 00000000 		.4byte	.LFB148
 14290 0424 04000000 		.4byte	.LFE148
 14291 0428 00000000 		.4byte	.LFB150
 14292 042c 0C000000 		.4byte	.LFE150
 14293 0430 00000000 		.4byte	.LFB152
 14294 0434 04000000 		.4byte	.LFE152
 14295 0438 00000000 		.4byte	.LFB153
 14296 043c 04000000 		.4byte	.LFE153
 14297 0440 00000000 		.4byte	.LFB154
 14298 0444 04000000 		.4byte	.LFE154
 14299 0448 00000000 		.4byte	.LFB155
 14300 044c 04000000 		.4byte	.LFE155
 14301 0450 00000000 		.4byte	.LFB156
 14302 0454 04000000 		.4byte	.LFE156
 14303 0458 00000000 		.4byte	.LFB157
 14304 045c 04000000 		.4byte	.LFE157
 14305 0460 00000000 		.4byte	.LFB158
 14306 0464 04000000 		.4byte	.LFE158
 14307 0468 00000000 		.4byte	.LFB159
 14308 046c 04000000 		.4byte	.LFE159
 14309 0470 00000000 		.4byte	.LFB160
 14310 0474 04000000 		.4byte	.LFE160
 14311 0478 00000000 		.4byte	.LFB161
 14312 047c 04000000 		.4byte	.LFE161
 14313 0480 00000000 		.4byte	.LFB162
 14314 0484 04000000 		.4byte	.LFE162
 14315 0488 00000000 		.4byte	.LFB163
 14316 048c 04000000 		.4byte	.LFE163
 14317 0490 00000000 		.4byte	.LFB165
 14318 0494 0C000000 		.4byte	.LFE165
 14319 0498 00000000 		.4byte	.LFB168
 14320 049c 18000000 		.4byte	.LFE168
 14321 04a0 00000000 		.4byte	.LFB170
 14322 04a4 04000000 		.4byte	.LFE170
 14323 04a8 00000000 		.4byte	.LFB171
 14324 04ac 04000000 		.4byte	.LFE171
 14325 04b0 00000000 		.4byte	.LFB172
 14326 04b4 04000000 		.4byte	.LFE172
 14327 04b8 00000000 		.4byte	.LFB173
 14328 04bc 04000000 		.4byte	.LFE173
 14329 04c0 00000000 		.4byte	.LFB174
 14330 04c4 04000000 		.4byte	.LFE174
 14331 04c8 00000000 		.4byte	0
 14332 04cc 00000000 		.4byte	0
 14333              		.section	.debug_line,"",%progbits
 14334              	.Ldebug_line0:
 14335 0000 C90C0000 		.section	.debug_str,"MS",%progbits,1
 14335      02005B02 
 14335      00000201 
 14335      FB0E0D00 
 14335      01010101 
 14336              	.LASF275:
 14337 0000 5F5A4E31 		.ascii	"_ZN10chibios_rt7Mailbox6fetchSEPlm\000"
 14337      30636869 
 14337      62696F73 
ARM GAS  /tmp/ccq01laD.s 			page 257


 14337      5F727437 
 14337      4D61696C 
 14338              	.LASF153:
 14339 0023 67657454 		.ascii	"getTime\000"
 14339      696D6500 
 14340              	.LASF60:
 14341 002b 76746675 		.ascii	"vtfunc_t\000"
 14341      6E635F74 
 14341      00
 14342              	.LASF180:
 14343 0034 5F5A4E31 		.ascii	"_ZN10chibios_rt16CounterSemaphore11addCounterIEl\000"
 14343      30636869 
 14343      62696F73 
 14343      5F727431 
 14343      36436F75 
 14344              	.LASF55:
 14345 0065 54687265 		.ascii	"ThreadsList\000"
 14345      6164734C 
 14345      69737400 
 14346              	.LASF45:
 14347 0071 705F7761 		.ascii	"p_waiting\000"
 14347      6974696E 
 14347      6700
 14348              	.LASF181:
 14349 007b 67657443 		.ascii	"getCounterI\000"
 14349      6F756E74 
 14349      65724900 
 14350              	.LASF172:
 14351 0087 5F5A4E31 		.ascii	"_ZN10chibios_rt16CounterSemaphore11waitTimeoutEm\000"
 14351      30636869 
 14351      62696F73 
 14351      5F727431 
 14351      36436F75 
 14352              	.LASF362:
 14353 00b8 5F5A4E31 		.ascii	"_ZN10chibios_rt15ThreadReference13signalEventsIEm\000"
 14353      30636869 
 14353      62696F73 
 14353      5F727431 
 14353      35546872 
 14354              	.LASF318:
 14355 00ea 77616974 		.ascii	"waitAnyEvent\000"
 14355      416E7945 
 14355      76656E74 
 14355      00
 14356              	.LASF199:
 14357 00f7 5F5A4E31 		.ascii	"_ZN10chibios_rt5Mutex7tryLockEv\000"
 14357      30636869 
 14357      62696F73 
 14357      5F727435 
 14357      4D757465 
 14358              	.LASF371:
 14359 0117 696E7465 		.ascii	"interval\000"
 14359      7276616C 
 14359      00
 14360              	.LASF311:
 14361 0120 5F5A4E31 		.ascii	"_ZN10chibios_rt10BaseThread11waitMessageEv\000"
 14361      30636869 
ARM GAS  /tmp/ccq01laD.s 			page 258


 14361      62696F73 
 14361      5F727431 
 14361      30426173 
 14362              	.LASF302:
 14363 014b 5F5A4E31 		.ascii	"_ZN10chibios_rt10BaseThread5exitSEl\000"
 14363      30636869 
 14363      62696F73 
 14363      5F727431 
 14363      30426173 
 14364              	.LASF220:
 14365 016f 65765F73 		.ascii	"ev_source\000"
 14365      6F757263 
 14365      6500
 14366              	.LASF44:
 14367 0179 705F7469 		.ascii	"p_time\000"
 14367      6D6500
 14368              	.LASF388:
 14369 0180 2F686F6D 		.ascii	"/home/tino/workspace/openrobots/R2P_IR_module/fw\000"
 14369      652F7469 
 14369      6E6F2F77 
 14369      6F726B73 
 14369      70616365 
 14370              	.LASF295:
 14371 01b1 7365744E 		.ascii	"setName\000"
 14371      616D6500 
 14372              	.LASF56:
 14373 01b9 72656761 		.ascii	"regarm_t\000"
 14373      726D5F74 
 14373      00
 14374              	.LASF34:
 14375 01c2 705F7072 		.ascii	"p_prio\000"
 14375      696F00
 14376              	.LASF204:
 14377 01c9 5F5A4E31 		.ascii	"_ZN10chibios_rt5Mutex5lockSEv\000"
 14377      30636869 
 14377      62696F73 
 14377      5F727435 
 14377      4D757465 
 14378              	.LASF380:
 14379 01e7 6F6E6679 		.ascii	"onfy\000"
 14379      00
 14380              	.LASF230:
 14381 01ec 5F5A4E31 		.ascii	"_ZN10chibios_rt9EvtSource15broadcastFlagsIEm\000"
 14381      30636869 
 14381      62696F73 
 14381      5F727439 
 14381      45767453 
 14382              	.LASF175:
 14383 0219 7369676E 		.ascii	"signal\000"
 14383      616C00
 14384              	.LASF327:
 14385 0220 5F5A4E31 		.ascii	"_ZN10chibios_rt10BaseThread20waitAllEventsTimeoutEm"
 14385      30636869 
 14385      62696F73 
 14385      5F727431 
 14385      30426173 
 14386 0253 6D00     		.ascii	"m\000"
ARM GAS  /tmp/ccq01laD.s 			page 259


 14387              	.LASF142:
 14388 0255 5F5A4E31 		.ascii	"_ZN10chibios_rt6System6unlockEv\000"
 14388      30636869 
 14388      62696F73 
 14388      5F727436 
 14388      53797374 
 14389              	.LASF25:
 14390 0275 73797374 		.ascii	"systime_t\000"
 14390      696D655F 
 14390      7400
 14391              	.LASF356:
 14392 027f 72656C65 		.ascii	"releaseMessage\000"
 14392      6173654D 
 14392      65737361 
 14392      676500
 14393              	.LASF223:
 14394 028e 72656769 		.ascii	"registerMask\000"
 14394      73746572 
 14394      4D61736B 
 14394      00
 14395              	.LASF372:
 14396 029b 68616E64 		.ascii	"handlers\000"
 14396      6C657273 
 14396      00
 14397              	.LASF86:
 14398 02a4 6D5F6F77 		.ascii	"m_owner\000"
 14398      6E657200 
 14399              	.LASF79:
 14400 02ac 735F7175 		.ascii	"s_queue\000"
 14400      65756500 
 14401              	.LASF68:
 14402 02b4 76745F73 		.ascii	"vt_systime\000"
 14402      79737469 
 14402      6D6500
 14403              	.LASF249:
 14404 02bf 5F5A4E31 		.ascii	"_ZN10chibios_rt8OutQueue7isFullIEv\000"
 14404      30636869 
 14404      62696F73 
 14404      5F727438 
 14404      4F757451 
 14405              	.LASF46:
 14406 02e2 705F6D73 		.ascii	"p_msgqueue\000"
 14406      67717565 
 14406      756500
 14407              	.LASF367:
 14408 02ed 76746675 		.ascii	"vtfunc\000"
 14408      6E6300
 14409              	.LASF0:
 14410 02f4 756E7369 		.ascii	"unsigned int\000"
 14410      676E6564 
 14410      20696E74 
 14410      00
 14411              	.LASF227:
 14412 0301 62726F61 		.ascii	"broadcastFlags\000"
 14412      64636173 
 14412      74466C61 
 14412      677300
ARM GAS  /tmp/ccq01laD.s 			page 260


 14413              	.LASF355:
 14414 0310 5F5A4E31 		.ascii	"_ZN10chibios_rt15ThreadReference10getMessageEv\000"
 14414      30636869 
 14414      62696F73 
 14414      5F727431 
 14414      35546872 
 14415              	.LASF347:
 14416 033f 72657175 		.ascii	"requestTerminate\000"
 14416      65737454 
 14416      65726D69 
 14416      6E617465 
 14416      00
 14417              	.LASF349:
 14418 0350 5F5A4E31 		.ascii	"_ZN10chibios_rt15ThreadReference4waitEv\000"
 14418      30636869 
 14418      62696F73 
 14418      5F727431 
 14418      35546872 
 14419              	.LASF309:
 14420 0378 77616974 		.ascii	"waitMessage\000"
 14420      4D657373 
 14420      61676500 
 14421              	.LASF361:
 14422 0384 5F5A4E31 		.ascii	"_ZN10chibios_rt6System12isTimeWithinEmm\000"
 14422      30636869 
 14422      62696F73 
 14422      5F727436 
 14422      53797374 
 14423              	.LASF316:
 14424 03ac 77616974 		.ascii	"waitOneEvent\000"
 14424      4F6E6545 
 14424      76656E74 
 14424      00
 14425              	.LASF54:
 14426 03b9 31315468 		.ascii	"11ThreadsList\000"
 14426      72656164 
 14426      734C6973 
 14426      7400
 14427              	.LASF121:
 14428 03c7 715F7264 		.ascii	"q_rdptr\000"
 14428      70747200 
 14429              	.LASF294:
 14430 03cf 5F5A4E31 		.ascii	"_ZN10chibios_rt10BaseThread5startEm\000"
 14430      30636869 
 14430      62696F73 
 14430      5F727431 
 14430      30426173 
 14431              	.LASF124:
 14432 03f3 716E6F74 		.ascii	"qnotify_t\000"
 14432      6966795F 
 14432      7400
 14433              	.LASF93:
 14434 03fd 656C5F6D 		.ascii	"el_mask\000"
 14434      61736B00 
 14435              	.LASF358:
 14436 0405 7369676E 		.ascii	"signalEvents\000"
 14436      616C4576 
ARM GAS  /tmp/ccq01laD.s 			page 261


 14436      656E7473 
 14436      00
 14437              	.LASF235:
 14438 0412 6973456D 		.ascii	"isEmptyI\000"
 14438      70747949 
 14438      00
 14439              	.LASF256:
 14440 041b 5F5A4E31 		.ascii	"_ZN10chibios_rt8OutQueue4getIEv\000"
 14440      30636869 
 14440      62696F73 
 14440      5F727438 
 14440      4F757451 
 14441              	.LASF360:
 14442 043b 7369676E 		.ascii	"signalEventsI\000"
 14442      616C4576 
 14442      656E7473 
 14442      4900
 14443              	.LASF183:
 14444 0449 7369676E 		.ascii	"signalWait\000"
 14444      616C5761 
 14444      697400
 14445              	.LASF30:
 14446 0454 77746F62 		.ascii	"wtobjp\000"
 14446      6A7000
 14447              	.LASF384:
 14448 045b 76746C69 		.ascii	"vtlist\000"
 14448      737400
 14449              	.LASF306:
 14450 0462 736C6565 		.ascii	"sleepUntil\000"
 14450      70556E74 
 14450      696C00
 14451              	.LASF123:
 14452 046d 715F6C69 		.ascii	"q_link\000"
 14452      6E6B00
 14453              	.LASF156:
 14454 0474 5F5A4E31 		.ascii	"_ZN10chibios_rt4Core9getStatusEv\000"
 14454      30636869 
 14454      62696F73 
 14454      5F727434 
 14454      436F7265 
 14455              	.LASF366:
 14456 0495 74696D65 		.ascii	"time\000"
 14456      00
 14457              	.LASF307:
 14458 049a 5F5A4E31 		.ascii	"_ZN10chibios_rt10BaseThread10sleepUntilEm\000"
 14458      30636869 
 14458      62696F73 
 14458      5F727431 
 14458      30426173 
 14459              	.LASF276:
 14460 04c4 66657463 		.ascii	"fetchI\000"
 14460      684900
 14461              	.LASF215:
 14462 04cb 65765F6C 		.ascii	"ev_listener\000"
 14462      69737465 
 14462      6E657200 
 14463              	.LASF234:
ARM GAS  /tmp/ccq01laD.s 			page 262


 14464 04d7 5F5A4E31 		.ascii	"_ZN10chibios_rt7InQueue9getEmptyIEv\000"
 14464      30636869 
 14464      62696F73 
 14464      5F727437 
 14464      496E5175 
 14465              	.LASF31:
 14466 04fb 65776D61 		.ascii	"ewmask\000"
 14466      736B00
 14467              	.LASF274:
 14468 0502 66657463 		.ascii	"fetchS\000"
 14468      685300
 14469              	.LASF225:
 14470 0509 756E7265 		.ascii	"unregister\000"
 14470      67697374 
 14470      657200
 14471              	.LASF201:
 14472 0514 5F5A4E31 		.ascii	"_ZN10chibios_rt5Mutex8tryLockSEv\000"
 14472      30636869 
 14472      62696F73 
 14472      5F727435 
 14472      4D757465 
 14473              	.LASF89:
 14474 0535 635F7175 		.ascii	"c_queue\000"
 14474      65756500 
 14475              	.LASF392:
 14476 053d 5F5F7674 		.ascii	"__vtbl_ptr_type\000"
 14476      626C5F70 
 14476      74725F74 
 14476      79706500 
 14477              	.LASF105:
 14478 054d 4D61696C 		.ascii	"Mailbox\000"
 14478      626F7800 
 14479              	.LASF131:
 14480 0555 4576744C 		.ascii	"EvtListener\000"
 14480      69737465 
 14480      6E657200 
 14481              	.LASF373:
 14482 0561 7373656D 		.ascii	"ssem\000"
 14482      00
 14483              	.LASF332:
 14484 0566 5F5A4E31 		.ascii	"_ZN10chibios_rt10BaseThread11unlockMutexEv\000"
 14484      30636869 
 14484      62696F73 
 14484      5F727431 
 14484      30426173 
 14485              	.LASF301:
 14486 0591 65786974 		.ascii	"exitS\000"
 14486      5300
 14487              	.LASF80:
 14488 0597 735F636E 		.ascii	"s_cnt\000"
 14488      7400
 14489              	.LASF346:
 14490 059d 5F5A4E31 		.ascii	"_ZN10chibios_rt15ThreadReference7resumeIEl\000"
 14490      30636869 
 14490      62696F73 
 14490      5F727431 
 14490      35546872 
ARM GAS  /tmp/ccq01laD.s 			page 263


 14491              	.LASF184:
 14492 05c8 5F5A4E31 		.ascii	"_ZN10chibios_rt10_thd_startEPv\000"
 14492      30636869 
 14492      62696F73 
 14492      5F727431 
 14492      305F7468 
 14493              	.LASF196:
 14494 05e7 5F5A4E31 		.ascii	"_ZN10chibios_rt15BinarySemaphore9getStateIEv\000"
 14494      30636869 
 14494      62696F73 
 14494      5F727431 
 14494      3542696E 
 14495              	.LASF323:
 14496 0614 5F5A4E31 		.ascii	"_ZN10chibios_rt10BaseThread19waitOneEventTimeoutEmm"
 14496      30636869 
 14496      62696F73 
 14496      5F727431 
 14496      30426173 
 14497 0647 00       		.ascii	"\000"
 14498              	.LASF345:
 14499 0648 72657375 		.ascii	"resumeI\000"
 14499      6D654900 
 14500              	.LASF226:
 14501 0650 5F5A4E31 		.ascii	"_ZN10chibios_rt9EvtSource10unregisterEPNS_11EvtList"
 14501      30636869 
 14501      62696F73 
 14501      5F727439 
 14501      45767453 
 14502 0683 656E6572 		.ascii	"enerE\000"
 14502      4500
 14503              	.LASF191:
 14504 0689 5F5A4E31 		.ascii	"_ZN10chibios_rt15BinarySemaphore5resetEb\000"
 14504      30636869 
 14504      62696F73 
 14504      5F727431 
 14504      3542696E 
 14505              	.LASF64:
 14506 06b2 76745F74 		.ascii	"vt_time\000"
 14506      696D6500 
 14507              	.LASF335:
 14508 06ba 756E6C6F 		.ascii	"unlockAllMutexes\000"
 14508      636B416C 
 14508      6C4D7574 
 14508      65786573 
 14508      00
 14509              	.LASF263:
 14510 06cb 5F5A4E31 		.ascii	"_ZN10chibios_rt7Mailbox5postSElm\000"
 14510      30636869 
 14510      62696F73 
 14510      5F727437 
 14510      4D61696C 
 14511              	.LASF9:
 14512 06ec 75696E74 		.ascii	"uint32_t\000"
 14512      33325F74 
 14512      00
 14513              	.LASF23:
 14514 06f5 6576656E 		.ascii	"eventmask_t\000"
ARM GAS  /tmp/ccq01laD.s 			page 264


 14514      746D6173 
 14514      6B5F7400 
 14515              	.LASF72:
 14516 0701 725F7072 		.ascii	"r_prio\000"
 14516      696F00
 14517              	.LASF370:
 14518 0708 6E657770 		.ascii	"newprio\000"
 14518      72696F00 
 14519              	.LASF66:
 14520 0710 76745F70 		.ascii	"vt_par\000"
 14520      617200
 14521              	.LASF192:
 14522 0717 5F5A4E31 		.ascii	"_ZN10chibios_rt15BinarySemaphore6resetIEb\000"
 14522      30636869 
 14522      62696F73 
 14522      5F727431 
 14522      3542696E 
 14523              	.LASF197:
 14524 0741 6D757465 		.ascii	"mutex\000"
 14524      7800
 14525              	.LASF304:
 14526 0747 736C6565 		.ascii	"sleep\000"
 14526      7000
 14527              	.LASF288:
 14528 074d 5F5A4E31 		.ascii	"_ZN10chibios_rt10MemoryPool4freeEPv\000"
 14528      30636869 
 14528      62696F73 
 14528      5F727431 
 14528      304D656D 
 14529              	.LASF168:
 14530 0771 77616974 		.ascii	"waitS\000"
 14530      5300
 14531              	.LASF20:
 14532 0777 74707269 		.ascii	"tprio_t\000"
 14532      6F5F7400 
 14533              	.LASF228:
 14534 077f 5F5A4E31 		.ascii	"_ZN10chibios_rt9EvtSource14broadcastFlagsEm\000"
 14534      30636869 
 14534      62696F73 
 14534      5F727439 
 14534      45767453 
 14535              	.LASF129:
 14536 07ab 54696D65 		.ascii	"Timer\000"
 14536      7200
 14537              	.LASF211:
 14538 07b1 5F5A4E31 		.ascii	"_ZN10chibios_rt7CondVar10broadcastIEv\000"
 14538      30636869 
 14538      62696F73 
 14538      5F727437 
 14538      436F6E64 
 14539              	.LASF385:
 14540 07d7 726C6973 		.ascii	"rlist\000"
 14540      7400
 14541              	.LASF317:
 14542 07dd 5F5A4E31 		.ascii	"_ZN10chibios_rt10BaseThread12waitOneEventEm\000"
 14542      30636869 
 14542      62696F73 
ARM GAS  /tmp/ccq01laD.s 			page 265


 14542      5F727431 
 14542      30426173 
 14543              	.LASF330:
 14544 0809 756E6C6F 		.ascii	"unlockMutex\000"
 14544      636B4D75 
 14544      74657800 
 14545              	.LASF314:
 14546 0815 61646445 		.ascii	"addEvents\000"
 14546      76656E74 
 14546      7300
 14547              	.LASF13:
 14548 081f 6C6F6E67 		.ascii	"long long unsigned int\000"
 14548      206C6F6E 
 14548      6720756E 
 14548      7369676E 
 14548      65642069 
 14549              	.LASF187:
 14550 0836 5F5A4E31 		.ascii	"_ZN10chibios_rt15BinarySemaphore4waitEv\000"
 14550      30636869 
 14550      62696F73 
 14550      5F727431 
 14550      3542696E 
 14551              	.LASF348:
 14552 085e 5F5A4E31 		.ascii	"_ZN10chibios_rt15ThreadReference16requestTerminateE"
 14552      30636869 
 14552      62696F73 
 14552      5F727431 
 14552      35546872 
 14553 0891 7600     		.ascii	"v\000"
 14554              	.LASF264:
 14555 0893 706F7374 		.ascii	"postI\000"
 14555      4900
 14556              	.LASF386:
 14557 0899 474E5520 		.ascii	"GNU C++ 4.6.2 20120613 (release) [ARM/embedded-4_6-"
 14557      432B2B20 
 14557      342E362E 
 14557      32203230 
 14557      31323036 
 14558 08cc 6272616E 		.ascii	"branch revision 188521]\000"
 14558      63682072 
 14558      65766973 
 14558      696F6E20 
 14558      31383835 
 14559              	.LASF108:
 14560 08e4 70685F6E 		.ascii	"ph_next\000"
 14560      65787400 
 14561              	.LASF262:
 14562 08ec 706F7374 		.ascii	"postS\000"
 14562      5300
 14563              	.LASF109:
 14564 08f2 31304D65 		.ascii	"10MemoryPool\000"
 14564      6D6F7279 
 14564      506F6F6C 
 14564      00
 14565              	.LASF221:
 14566 08ff 72656769 		.ascii	"registerOne\000"
 14566      73746572 
ARM GAS  /tmp/ccq01laD.s 			page 266


 14566      4F6E6500 
 14567              	.LASF26:
 14568 090b 636E745F 		.ascii	"cnt_t\000"
 14568      7400
 14569              	.LASF240:
 14570 0911 70757449 		.ascii	"putI\000"
 14570      00
 14571              	.LASF155:
 14572 0916 5F5A4E31 		.ascii	"_ZN10chibios_rt6System7getTimeEv\000"
 14572      30636869 
 14572      62696F73 
 14572      5F727436 
 14572      53797374 
 14573              	.LASF173:
 14574 0937 77616974 		.ascii	"waitTimeoutS\000"
 14574      54696D65 
 14574      6F757453 
 14574      00
 14575              	.LASF148:
 14576 0944 69735469 		.ascii	"isTimeWithin\000"
 14576      6D655769 
 14576      7468696E 
 14576      00
 14577              	.LASF272:
 14578 0951 66657463 		.ascii	"fetch\000"
 14578      6800
 14579              	.LASF185:
 14580 0957 5F5A4E31 		.ascii	"_ZN10chibios_rt16CounterSemaphore10signalWaitEPS0_S"
 14580      30636869 
 14580      62696F73 
 14580      5F727431 
 14580      36436F75 
 14581 098a 315F00   		.ascii	"1_\000"
 14582              	.LASF359:
 14583 098d 5F5A4E31 		.ascii	"_ZN10chibios_rt15ThreadReference12signalEventsEm\000"
 14583      30636869 
 14583      62696F73 
 14583      5F727431 
 14583      35546872 
 14584              	.LASF261:
 14585 09be 5F5A4E31 		.ascii	"_ZN10chibios_rt7Mailbox4postElm\000"
 14585      30636869 
 14585      62696F73 
 14585      5F727437 
 14585      4D61696C 
 14586              	.LASF285:
 14587 09de 5F5A4E31 		.ascii	"_ZN10chibios_rt10MemoryPool6allocIEv\000"
 14587      30636869 
 14587      62696F73 
 14587      5F727431 
 14587      304D656D 
 14588              	.LASF343:
 14589 0a03 72657375 		.ascii	"resume\000"
 14589      6D6500
 14590              	.LASF137:
 14591 0a0a 696E6974 		.ascii	"init\000"
 14591      00
ARM GAS  /tmp/ccq01laD.s 			page 267


 14592              	.LASF36:
 14593 0a0f 705F6E65 		.ascii	"p_newer\000"
 14593      77657200 
 14594              	.LASF194:
 14595 0a17 5F5A4E31 		.ascii	"_ZN10chibios_rt15BinarySemaphore7signalIEv\000"
 14595      30636869 
 14595      62696F73 
 14595      5F727431 
 14595      3542696E 
 14596              	.LASF116:
 14597 0a42 715F7761 		.ascii	"q_waiting\000"
 14597      6974696E 
 14597      6700
 14598              	.LASF193:
 14599 0a4c 5F5A4E31 		.ascii	"_ZN10chibios_rt15BinarySemaphore6signalEv\000"
 14599      30636869 
 14599      62696F73 
 14599      5F727431 
 14599      3542696E 
 14600              	.LASF300:
 14601 0a76 5F5A4E31 		.ascii	"_ZN10chibios_rt10BaseThread4exitEl\000"
 14601      30636869 
 14601      62696F73 
 14601      5F727431 
 14601      30426173 
 14602              	.LASF242:
 14603 0a99 67657454 		.ascii	"getTimeout\000"
 14603      696D656F 
 14603      757400
 14604              	.LASF202:
 14605 0aa4 5F5A4E31 		.ascii	"_ZN10chibios_rt5Mutex4lockEv\000"
 14605      30636869 
 14605      62696F73 
 14605      5F727435 
 14605      4D757465 
 14606              	.LASF95:
 14607 0ac1 4576656E 		.ascii	"EventSource\000"
 14607      74536F75 
 14607      72636500 
 14608              	.LASF2:
 14609 0acd 73697A65 		.ascii	"size_t\000"
 14609      5F7400
 14610              	.LASF28:
 14611 0ad4 7264796D 		.ascii	"rdymsg\000"
 14611      736700
 14612              	.LASF224:
 14613 0adb 5F5A4E31 		.ascii	"_ZN10chibios_rt9EvtSource12registerMaskEPNS_11EvtLi"
 14613      30636869 
 14613      62696F73 
 14613      5F727439 
 14613      45767453 
 14614 0b0e 7374656E 		.ascii	"stenerEm\000"
 14614      6572456D 
 14614      00
 14615              	.LASF14:
 14616 0b17 626F6F6C 		.ascii	"bool_t\000"
 14616      5F7400
ARM GAS  /tmp/ccq01laD.s 			page 268


 14617              	.LASF339:
 14618 0b1e 73757370 		.ascii	"suspend\000"
 14618      656E6400 
 14619              	.LASF157:
 14620 0b26 74696D65 		.ascii	"timer_ref\000"
 14620      725F7265 
 14620      6600
 14621              	.LASF391:
 14622 0b30 5F5A4E31 		.ascii	"_ZN10chibios_rt15ThreadReference4stopEv\000"
 14622      30636869 
 14622      62696F73 
 14622      5F727431 
 14622      35546872 
 14623              	.LASF102:
 14624 0b58 6D625F72 		.ascii	"mb_rdptr\000"
 14624      64707472 
 14624      00
 14625              	.LASF130:
 14626 0b61 436F756E 		.ascii	"CounterSemaphore\000"
 14626      74657253 
 14626      656D6170 
 14626      686F7265 
 14626      00
 14627              	.LASF268:
 14628 0b72 706F7374 		.ascii	"postAheadS\000"
 14628      41686561 
 14628      645300
 14629              	.LASF377:
 14630 0b7d 666C6167 		.ascii	"flags\000"
 14630      7300
 14631              	.LASF200:
 14632 0b83 7472794C 		.ascii	"tryLockS\000"
 14632      6F636B53 
 14632      00
 14633              	.LASF53:
 14634 0b8c 31325468 		.ascii	"12ThreadsQueue\000"
 14634      72656164 
 14634      73517565 
 14634      756500
 14635              	.LASF170:
 14636 0b9b 5F5A4E31 		.ascii	"_ZN10chibios_rt16CounterSemaphore5waitSEv\000"
 14636      30636869 
 14636      62696F73 
 14636      5F727431 
 14636      36436F75 
 14637              	.LASF151:
 14638 0bc5 5F5A4E31 		.ascii	"_ZN10chibios_rt4Core5allocEj\000"
 14638      30636869 
 14638      62696F73 
 14638      5F727434 
 14638      436F7265 
 14639              	.LASF259:
 14640 0be2 5F5A4E31 		.ascii	"_ZN10chibios_rt7Mailbox5resetEv\000"
 14640      30636869 
 14640      62696F73 
 14640      5F727437 
 14640      4D61696C 
ARM GAS  /tmp/ccq01laD.s 			page 269


 14641              	.LASF146:
 14642 0c02 5F5A4E31 		.ascii	"_ZN10chibios_rt6System13unlockFromIsrEv\000"
 14642      30636869 
 14642      62696F73 
 14642      5F727436 
 14642      53797374 
 14643              	.LASF81:
 14644 0c2a 31354269 		.ascii	"15BinarySemaphore\000"
 14644      6E617279 
 14644      53656D61 
 14644      70686F72 
 14644      6500
 14645              	.LASF253:
 14646 0c3c 70757454 		.ascii	"putTimeout\000"
 14646      696D656F 
 14646      757400
 14647              	.LASF160:
 14648 0c47 72657365 		.ascii	"resetI\000"
 14648      744900
 14649              	.LASF84:
 14650 0c4e 4D757465 		.ascii	"Mutex\000"
 14650      7800
 14651              	.LASF104:
 14652 0c54 6D625F65 		.ascii	"mb_emptysem\000"
 14652      6D707479 
 14652      73656D00 
 14653              	.LASF177:
 14654 0c60 7369676E 		.ascii	"signalI\000"
 14654      616C4900 
 14655              	.LASF122:
 14656 0c68 715F6E6F 		.ascii	"q_notify\000"
 14656      74696679 
 14656      00
 14657              	.LASF299:
 14658 0c71 65786974 		.ascii	"exit\000"
 14658      00
 14659              	.LASF267:
 14660 0c76 5F5A4E31 		.ascii	"_ZN10chibios_rt7Mailbox9postAheadElm\000"
 14660      30636869 
 14660      62696F73 
 14660      5F727437 
 14660      4D61696C 
 14661              	.LASF258:
 14662 0c9b 5F5A4E31 		.ascii	"_ZN10chibios_rt8OutQueue12writeTimeoutEPKhjm\000"
 14662      30636869 
 14662      62696F73 
 14662      5F727438 
 14662      4F757451 
 14663              	.LASF342:
 14664 0cc8 5F5A4E31 		.ascii	"_ZN10chibios_rt15ThreadReference8suspendSEv\000"
 14664      30636869 
 14664      62696F73 
 14664      5F727431 
 14664      35546872 
 14665              	.LASF38:
 14666 0cf4 705F6E61 		.ascii	"p_name\000"
 14666      6D6500
ARM GAS  /tmp/ccq01laD.s 			page 270


 14667              	.LASF337:
 14668 0cfb 5F767074 		.ascii	"_vptr.ThreadReference\000"
 14668      722E5468 
 14668      72656164 
 14668      52656665 
 14668      72656E63 
 14669              	.LASF364:
 14670 0d11 7072696F 		.ascii	"prio\000"
 14670      00
 14671              	.LASF271:
 14672 0d16 5F5A4E31 		.ascii	"_ZN10chibios_rt7Mailbox10postAheadIEl\000"
 14672      30636869 
 14672      62696F73 
 14672      5F727437 
 14672      4D61696C 
 14673              	.LASF125:
 14674 0d3c 496E7075 		.ascii	"InputQueue\000"
 14674      74517565 
 14674      756500
 14675              	.LASF52:
 14676 0d47 54687265 		.ascii	"ThreadsQueue\000"
 14676      61647351 
 14676      75657565 
 14676      00
 14677              	.LASF354:
 14678 0d54 6765744D 		.ascii	"getMessage\000"
 14678      65737361 
 14678      676500
 14679              	.LASF351:
 14680 0d5f 5F5A4E31 		.ascii	"_ZN10chibios_rt15ThreadReference11sendMessageEl\000"
 14680      30636869 
 14680      62696F73 
 14680      5F727431 
 14680      35546872 
 14681              	.LASF233:
 14682 0d8f 67657445 		.ascii	"getEmptyI\000"
 14682      6D707479 
 14682      4900
 14683              	.LASF114:
 14684 0d99 63686172 		.ascii	"char\000"
 14684      00
 14685              	.LASF195:
 14686 0d9e 67657453 		.ascii	"getStateI\000"
 14686      74617465 
 14686      4900
 14687              	.LASF312:
 14688 0da8 67657441 		.ascii	"getAndClearEvents\000"
 14688      6E64436C 
 14688      65617245 
 14688      76656E74 
 14688      7300
 14689              	.LASF113:
 14690 0dba 4D656D6F 		.ascii	"MemoryPool\000"
 14690      7279506F 
 14690      6F6C00
 14691              	.LASF74:
 14692 0dc5 725F6E65 		.ascii	"r_newer\000"
ARM GAS  /tmp/ccq01laD.s 			page 271


 14692      77657200 
 14693              	.LASF120:
 14694 0dcd 715F7772 		.ascii	"q_wrptr\000"
 14694      70747200 
 14695              	.LASF27:
 14696 0dd5 54687265 		.ascii	"Thread\000"
 14696      616400
 14697              	.LASF17:
 14698 0ddc 74737461 		.ascii	"tstate_t\000"
 14698      74655F74 
 14698      00
 14699              	.LASF69:
 14700 0de5 56544C69 		.ascii	"VTList\000"
 14700      737400
 14701              	.LASF315:
 14702 0dec 5F5A4E31 		.ascii	"_ZN10chibios_rt10BaseThread9addEventsEm\000"
 14702      30636869 
 14702      62696F73 
 14702      5F727431 
 14702      30426173 
 14703              	.LASF37:
 14704 0e14 705F6F6C 		.ascii	"p_older\000"
 14704      64657200 
 14705              	.LASF40:
 14706 0e1c 705F7374 		.ascii	"p_state\000"
 14706      61746500 
 14707              	.LASF39:
 14708 0e24 705F7374 		.ascii	"p_stklimit\000"
 14708      6B6C696D 
 14708      697400
 14709              	.LASF97:
 14710 0e2f 65766861 		.ascii	"evhandler_t\000"
 14710      6E646C65 
 14710      725F7400 
 14711              	.LASF3:
 14712 0e3b 75696E74 		.ascii	"uint8_t\000"
 14712      385F7400 
 14713              	.LASF186:
 14714 0e43 6273656D 		.ascii	"bsem\000"
 14714      00
 14715              	.LASF24:
 14716 0e48 666C6167 		.ascii	"flagsmask_t\000"
 14716      736D6173 
 14716      6B5F7400 
 14717              	.LASF110:
 14718 0e54 6D705F6E 		.ascii	"mp_next\000"
 14718      65787400 
 14719              	.LASF161:
 14720 0e5c 5F5A4E31 		.ascii	"_ZN10chibios_rt5Timer6resetIEv\000"
 14720      30636869 
 14720      62696F73 
 14720      5F727435 
 14720      54696D65 
 14721              	.LASF374:
 14722 0e7b 7773656D 		.ascii	"wsem\000"
 14722      00
 14723              	.LASF51:
ARM GAS  /tmp/ccq01laD.s 			page 272


 14724 0e80 705F6D70 		.ascii	"p_mpool\000"
 14724      6F6F6C00 
 14725              	.LASF179:
 14726 0e88 61646443 		.ascii	"addCounterI\000"
 14726      6F756E74 
 14726      65724900 
 14727              	.LASF49:
 14728 0e94 705F6D74 		.ascii	"p_mtxlist\000"
 14728      786C6973 
 14728      7400
 14729              	.LASF209:
 14730 0e9e 5F5A4E31 		.ascii	"_ZN10chibios_rt7CondVar9broadcastEv\000"
 14730      30636869 
 14730      62696F73 
 14730      5F727437 
 14730      436F6E64 
 14731              	.LASF375:
 14732 0ec2 74616B65 		.ascii	"taken\000"
 14732      6E00
 14733              	.LASF198:
 14734 0ec8 7472794C 		.ascii	"tryLock\000"
 14734      6F636B00 
 14735              	.LASF284:
 14736 0ed0 5F5A4E31 		.ascii	"_ZN10chibios_rt10MemoryPool9loadArrayEPvj\000"
 14736      30636869 
 14736      62696F73 
 14736      5F727431 
 14736      304D656D 
 14737              	.LASF257:
 14738 0efa 77726974 		.ascii	"writeTimeout\000"
 14738      6554696D 
 14738      656F7574 
 14738      00
 14739              	.LASF144:
 14740 0f07 5F5A4E31 		.ascii	"_ZN10chibios_rt6System11lockFromIsrEv\000"
 14740      30636869 
 14740      62696F73 
 14740      5F727436 
 14740      53797374 
 14741              	.LASF11:
 14742 0f2d 6C6F6E67 		.ascii	"long long int\000"
 14742      206C6F6E 
 14742      6720696E 
 14742      7400
 14743              	.LASF308:
 14744 0f3b 7969656C 		.ascii	"yield\000"
 14744      6400
 14745              	.LASF132:
 14746 0f41 45767453 		.ascii	"EvtSource\000"
 14746      6F757263 
 14746      6500
 14747              	.LASF118:
 14748 0f4b 715F6275 		.ascii	"q_buffer\000"
 14748      66666572 
 14748      00
 14749              	.LASF71:
 14750 0f54 725F7175 		.ascii	"r_queue\000"
ARM GAS  /tmp/ccq01laD.s 			page 273


 14750      65756500 
 14751              	.LASF138:
 14752 0f5c 6C6F636B 		.ascii	"lock\000"
 14752      00
 14753              	.LASF154:
 14754 0f61 67657453 		.ascii	"getStatus\000"
 14754      74617475 
 14754      7300
 14755              	.LASF21:
 14756 0f6b 6D73675F 		.ascii	"msg_t\000"
 14756      7400
 14757              	.LASF269:
 14758 0f71 5F5A4E31 		.ascii	"_ZN10chibios_rt7Mailbox10postAheadSElm\000"
 14758      30636869 
 14758      62696F73 
 14758      5F727437 
 14758      4D61696C 
 14759              	.LASF59:
 14760 0f98 636F6E74 		.ascii	"context\000"
 14760      65787400 
 14761              	.LASF205:
 14762 0fa0 636F6E64 		.ascii	"condvar\000"
 14762      76617200 
 14763              	.LASF290:
 14764 0fa8 5F5A4E31 		.ascii	"_ZN10chibios_rt10MemoryPool5freeIEPv\000"
 14764      30636869 
 14764      62696F73 
 14764      5F727431 
 14764      304D656D 
 14765              	.LASF252:
 14766 0fcd 5F5A4E31 		.ascii	"_ZN10chibios_rt8OutQueue3putEh\000"
 14766      30636869 
 14766      62696F73 
 14766      5F727438 
 14766      4F757451 
 14767              	.LASF15:
 14768 0fec 626F6F6C 		.ascii	"bool\000"
 14768      00
 14769              	.LASF150:
 14770 0ff1 616C6C6F 		.ascii	"allocI\000"
 14770      634900
 14771              	.LASF41:
 14772 0ff8 705F666C 		.ascii	"p_flags\000"
 14772      61677300 
 14773              	.LASF383:
 14774 1000 6F626A70 		.ascii	"objp\000"
 14774      00
 14775              	.LASF369:
 14776 1005 746E616D 		.ascii	"tname\000"
 14776      6500
 14777              	.LASF320:
 14778 100b 77616974 		.ascii	"waitAllEvents\000"
 14778      416C6C45 
 14778      76656E74 
 14778      7300
 14779              	.LASF143:
 14780 1019 6C6F636B 		.ascii	"lockFromIsr\000"
ARM GAS  /tmp/ccq01laD.s 			page 274


 14780      46726F6D 
 14780      49737200 
 14781              	.LASF219:
 14782 1025 5F5A4E31 		.ascii	"_ZN10chibios_rt11EvtListener17getAndClearFlagsIEv\000"
 14782      30636869 
 14782      62696F73 
 14782      5F727431 
 14782      31457674 
 14783              	.LASF178:
 14784 1057 5F5A4E31 		.ascii	"_ZN10chibios_rt16CounterSemaphore7signalIEv\000"
 14784      30636869 
 14784      62696F73 
 14784      5F727431 
 14784      36436F75 
 14785              	.LASF158:
 14786 1083 73657449 		.ascii	"setI\000"
 14786      00
 14787              	.LASF270:
 14788 1088 706F7374 		.ascii	"postAheadI\000"
 14788      41686561 
 14788      644900
 14789              	.LASF231:
 14790 1093 67657446 		.ascii	"getFullI\000"
 14790      756C6C49 
 14790      00
 14791              	.LASF365:
 14792 109c 73697A65 		.ascii	"size\000"
 14792      00
 14793              	.LASF100:
 14794 10a1 6D625F74 		.ascii	"mb_top\000"
 14794      6F7000
 14795              	.LASF103:
 14796 10a8 6D625F66 		.ascii	"mb_fullsem\000"
 14796      756C6C73 
 14796      656D00
 14797              	.LASF321:
 14798 10b3 5F5A4E31 		.ascii	"_ZN10chibios_rt10BaseThread13waitAllEventsEm\000"
 14798      30636869 
 14798      62696F73 
 14798      5F727431 
 14798      30426173 
 14799              	.LASF352:
 14800 10e0 69735065 		.ascii	"isPendingMessage\000"
 14800      6E64696E 
 14800      674D6573 
 14800      73616765 
 14800      00
 14801              	.LASF98:
 14802 10f1 374D6169 		.ascii	"7Mailbox\000"
 14802      6C626F78 
 14802      00
 14803              	.LASF239:
 14804 10fa 5F5A4E31 		.ascii	"_ZN10chibios_rt7InQueue6resetIEv\000"
 14804      30636869 
 14804      62696F73 
 14804      5F727437 
 14804      496E5175 
ARM GAS  /tmp/ccq01laD.s 			page 275


 14805              	.LASF19:
 14806 111b 74736C69 		.ascii	"tslices_t\000"
 14806      6365735F 
 14806      7400
 14807              	.LASF75:
 14808 1125 725F6F6C 		.ascii	"r_older\000"
 14808      64657200 
 14809              	.LASF67:
 14810 112d 3656544C 		.ascii	"6VTList\000"
 14810      69737400 
 14811              	.LASF368:
 14812 1135 6D61736B 		.ascii	"mask\000"
 14812      00
 14813              	.LASF350:
 14814 113a 73656E64 		.ascii	"sendMessage\000"
 14814      4D657373 
 14814      61676500 
 14815              	.LASF310:
 14816 1146 5F5A4E31 		.ascii	"_ZN10chibios_rt10BaseThread15shouldTerminateEv\000"
 14816      30636869 
 14816      62696F73 
 14816      5F727431 
 14816      30426173 
 14817              	.LASF165:
 14818 1175 5F5A4E31 		.ascii	"_ZN10chibios_rt16CounterSemaphore5resetEl\000"
 14818      30636869 
 14818      62696F73 
 14818      5F727431 
 14818      36436F75 
 14819              	.LASF378:
 14820 119f 696E6679 		.ascii	"infy\000"
 14820      00
 14821              	.LASF70:
 14822 11a4 39526561 		.ascii	"9ReadyList\000"
 14822      64794C69 
 14822      737400
 14823              	.LASF279:
 14824 11af 5F5A4E31 		.ascii	"_ZN10chibios_rt7Mailbox13getFreeCountIEv\000"
 14824      30636869 
 14824      62696F73 
 14824      5F727437 
 14824      4D61696C 
 14825              	.LASF167:
 14826 11d8 77616974 		.ascii	"wait\000"
 14826      00
 14827              	.LASF111:
 14828 11dd 6D705F6F 		.ascii	"mp_object_size\000"
 14828      626A6563 
 14828      745F7369 
 14828      7A6500
 14829              	.LASF236:
 14830 11ec 5F5A4E31 		.ascii	"_ZN10chibios_rt7InQueue8isEmptyIEv\000"
 14830      30636869 
 14830      62696F73 
 14830      5F727437 
 14830      496E5175 
 14831              	.LASF282:
ARM GAS  /tmp/ccq01laD.s 			page 276


 14832 120f 706F6F6C 		.ascii	"pool\000"
 14832      00
 14833              	.LASF222:
 14834 1214 5F5A4E31 		.ascii	"_ZN10chibios_rt9EvtSource11registerOneEPNS_11EvtLis"
 14834      30636869 
 14834      62696F73 
 14834      5F727439 
 14834      45767453 
 14835 1247 74656E65 		.ascii	"tenerEl\000"
 14835      72456C00 
 14836              	.LASF140:
 14837 124f 5F5A4E31 		.ascii	"_ZN10chibios_rt6System4lockEv\000"
 14837      30636869 
 14837      62696F73 
 14837      5F727436 
 14837      53797374 
 14838              	.LASF91:
 14839 126d 656C5F6E 		.ascii	"el_next\000"
 14839      65787400 
 14840              	.LASF208:
 14841 1275 62726F61 		.ascii	"broadcast\000"
 14841      64636173 
 14841      7400
 14842              	.LASF296:
 14843 127f 5F5A4E31 		.ascii	"_ZN10chibios_rt10BaseThread7setNameEPKc\000"
 14843      30636869 
 14843      62696F73 
 14843      5F727431 
 14843      30426173 
 14844              	.LASF47:
 14845 12a7 705F6D73 		.ascii	"p_msg\000"
 14845      6700
 14846              	.LASF16:
 14847 12ad 746D6F64 		.ascii	"tmode_t\000"
 14847      655F7400 
 14848              	.LASF289:
 14849 12b5 66726565 		.ascii	"freeI\000"
 14849      4900
 14850              	.LASF303:
 14851 12bb 73686F75 		.ascii	"shouldTerminate\000"
 14851      6C645465 
 14851      726D696E 
 14851      61746500 
 14852              	.LASF344:
 14853 12cb 5F5A4E31 		.ascii	"_ZN10chibios_rt15ThreadReference6resumeEl\000"
 14853      30636869 
 14853      62696F73 
 14853      5F727431 
 14853      35546872 
 14854              	.LASF115:
 14855 12f5 47656E65 		.ascii	"GenericQueue\000"
 14855      72696351 
 14855      75657565 
 14855      00
 14856              	.LASF229:
 14857 1302 62726F61 		.ascii	"broadcastFlagsI\000"
 14857      64636173 
ARM GAS  /tmp/ccq01laD.s 			page 277


 14857      74466C61 
 14857      67734900 
 14858              	.LASF188:
 14859 1312 5F5A4E31 		.ascii	"_ZN10chibios_rt15BinarySemaphore5waitSEv\000"
 14859      30636869 
 14859      62696F73 
 14859      5F727431 
 14859      3542696E 
 14860              	.LASF58:
 14861 133b 696E7463 		.ascii	"intctx\000"
 14861      747800
 14862              	.LASF363:
 14863 1342 74686973 		.ascii	"this\000"
 14863      00
 14864              	.LASF238:
 14865 1347 5F5A4E31 		.ascii	"_ZN10chibios_rt7InQueue7isFullIEv\000"
 14865      30636869 
 14865      62696F73 
 14865      5F727437 
 14865      496E5175 
 14866              	.LASF206:
 14867 1369 5F5A4E31 		.ascii	"_ZN10chibios_rt7CondVar6signalEv\000"
 14867      30636869 
 14867      62696F73 
 14867      5F727437 
 14867      436F6E64 
 14868              	.LASF278:
 14869 138a 67657446 		.ascii	"getFreeCountI\000"
 14869      72656543 
 14869      6F756E74 
 14869      4900
 14870              	.LASF232:
 14871 1398 5F5A4E31 		.ascii	"_ZN10chibios_rt7InQueue8getFullIEv\000"
 14871      30636869 
 14871      62696F73 
 14871      5F727437 
 14871      496E5175 
 14872              	.LASF340:
 14873 13bb 73757370 		.ascii	"suspendS\000"
 14873      656E6453 
 14873      00
 14874              	.LASF189:
 14875 13c4 5F5A4E31 		.ascii	"_ZN10chibios_rt15BinarySemaphore11waitTimeoutEm\000"
 14875      30636869 
 14875      62696F73 
 14875      5F727431 
 14875      3542696E 
 14876              	.LASF207:
 14877 13f4 5F5A4E31 		.ascii	"_ZN10chibios_rt7CondVar7signalIEv\000"
 14877      30636869 
 14877      62696F73 
 14877      5F727437 
 14877      436F6E64 
 14878              	.LASF286:
 14879 1416 5F5A4E31 		.ascii	"_ZN10chibios_rt10MemoryPool5allocEv\000"
 14879      30636869 
 14879      62696F73 
ARM GAS  /tmp/ccq01laD.s 			page 278


 14879      5F727431 
 14879      304D656D 
 14880              	.LASF127:
 14881 143a 53797374 		.ascii	"System\000"
 14881      656D00
 14882              	.LASF50:
 14883 1441 705F7265 		.ascii	"p_realprio\000"
 14883      616C7072 
 14883      696F00
 14884              	.LASF251:
 14885 144c 5F5A4E31 		.ascii	"_ZN10chibios_rt7InQueue3getEv\000"
 14885      30636869 
 14885      62696F73 
 14885      5F727437 
 14885      496E5175 
 14886              	.LASF149:
 14887 146a 616C6C6F 		.ascii	"alloc\000"
 14887      6300
 14888              	.LASF5:
 14889 1470 73686F72 		.ascii	"short int\000"
 14889      7420696E 
 14889      7400
 14890              	.LASF101:
 14891 147a 6D625F77 		.ascii	"mb_wrptr\000"
 14891      72707472 
 14891      00
 14892              	.LASF76:
 14893 1483 725F6375 		.ascii	"r_current\000"
 14893      7272656E 
 14893      7400
 14894              	.LASF322:
 14895 148d 77616974 		.ascii	"waitOneEventTimeout\000"
 14895      4F6E6545 
 14895      76656E74 
 14895      54696D65 
 14895      6F757400 
 14896              	.LASF48:
 14897 14a1 705F6570 		.ascii	"p_epending\000"
 14897      656E6469 
 14897      6E6700
 14898              	.LASF85:
 14899 14ac 6D5F7175 		.ascii	"m_queue\000"
 14899      65756500 
 14900              	.LASF8:
 14901 14b4 6C6F6E67 		.ascii	"long int\000"
 14901      20696E74 
 14901      00
 14902              	.LASF331:
 14903 14bd 5F5A4E31 		.ascii	"_ZN10chibios_rt10BaseThread5yieldEv\000"
 14903      30636869 
 14903      62696F73 
 14903      5F727431 
 14903      30426173 
 14904              	.LASF214:
 14905 14e1 5F5A4E31 		.ascii	"_ZN10chibios_rt7CondVar11waitTimeoutEm\000"
 14905      30636869 
 14905      62696F73 
ARM GAS  /tmp/ccq01laD.s 			page 279


 14905      5F727437 
 14905      436F6E64 
 14906              	.LASF281:
 14907 1508 5F5A4E31 		.ascii	"_ZN10chibios_rt7Mailbox13getUsedCountIEv\000"
 14907      30636869 
 14907      62696F73 
 14907      5F727437 
 14907      4D61696C 
 14908              	.LASF145:
 14909 1531 756E6C6F 		.ascii	"unlockFromIsr\000"
 14909      636B4672 
 14909      6F6D4973 
 14909      7200
 14910              	.LASF147:
 14911 153f 5F746864 		.ascii	"_thd_start\000"
 14911      5F737461 
 14911      727400
 14912              	.LASF325:
 14913 154a 5F5A4E31 		.ascii	"_ZN10chibios_rt10BaseThread19waitAnyEventTimeoutEmm"
 14913      30636869 
 14913      62696F73 
 14913      5F727431 
 14913      30426173 
 14914 157d 00       		.ascii	"\000"
 14915              	.LASF32:
 14916 157e 705F6E65 		.ascii	"p_next\000"
 14916      787400
 14917              	.LASF382:
 14918 1585 70726F76 		.ascii	"provider\000"
 14918      69646572 
 14918      00
 14919              	.LASF135:
 14920 158e 42617365 		.ascii	"BaseThread\000"
 14920      54687265 
 14920      616400
 14921              	.LASF203:
 14922 1599 6C6F636B 		.ascii	"lockS\000"
 14922      5300
 14923              	.LASF12:
 14924 159f 75696E74 		.ascii	"uint64_t\000"
 14924      36345F74 
 14924      00
 14925              	.LASF35:
 14926 15a8 705F6374 		.ascii	"p_ctx\000"
 14926      7800
 14927              	.LASF166:
 14928 15ae 5F5A4E31 		.ascii	"_ZN10chibios_rt16CounterSemaphore6resetIEl\000"
 14928      30636869 
 14928      62696F73 
 14928      5F727431 
 14928      36436F75 
 14929              	.LASF217:
 14930 15d9 5F5A4E31 		.ascii	"_ZN10chibios_rt11EvtListener16getAndClearFlagsEv\000"
 14930      30636869 
 14930      62696F73 
 14930      5F727431 
 14930      31457674 
ARM GAS  /tmp/ccq01laD.s 			page 280


 14931              	.LASF136:
 14932 160a 54687265 		.ascii	"ThreadReference\000"
 14932      61645265 
 14932      66657265 
 14932      6E636500 
 14933              	.LASF266:
 14934 161a 706F7374 		.ascii	"postAhead\000"
 14934      41686561 
 14934      6400
 14935              	.LASF255:
 14936 1624 67657449 		.ascii	"getI\000"
 14936      00
 14937              	.LASF61:
 14938 1629 56697274 		.ascii	"VirtualTimer\000"
 14938      75616C54 
 14938      696D6572 
 14938      00
 14939              	.LASF190:
 14940 1636 5F5A4E31 		.ascii	"_ZN10chibios_rt15BinarySemaphore12waitTimeoutSEm\000"
 14940      30636869 
 14940      62696F73 
 14940      5F727431 
 14940      3542696E 
 14941              	.LASF164:
 14942 1667 72657365 		.ascii	"reset\000"
 14942      7400
 14943              	.LASF244:
 14944 166d 72656164 		.ascii	"readTimeout\000"
 14944      54696D65 
 14944      6F757400 
 14945              	.LASF159:
 14946 1679 5F5A4E31 		.ascii	"_ZN10chibios_rt5Timer4setIEmPFvPvES1_\000"
 14946      30636869 
 14946      62696F73 
 14946      5F727435 
 14946      54696D65 
 14947              	.LASF152:
 14948 169f 5F5A4E31 		.ascii	"_ZN10chibios_rt4Core6allocIEj\000"
 14948      30636869 
 14948      62696F73 
 14948      5F727434 
 14948      436F7265 
 14949              	.LASF287:
 14950 16bd 66726565 		.ascii	"free\000"
 14950      00
 14951              	.LASF78:
 14952 16c2 53656D61 		.ascii	"Semaphore\000"
 14952      70686F72 
 14952      6500
 14953              	.LASF106:
 14954 16cc 6D656D67 		.ascii	"memgetfunc_t\000"
 14954      65746675 
 14954      6E635F74 
 14954      00
 14955              	.LASF292:
 14956 16d9 73746172 		.ascii	"start\000"
 14956      7400
ARM GAS  /tmp/ccq01laD.s 			page 281


 14957              	.LASF92:
 14958 16df 656C5F6C 		.ascii	"el_listener\000"
 14958      69737465 
 14958      6E657200 
 14959              	.LASF376:
 14960 16eb 656D6173 		.ascii	"emask\000"
 14960      6B00
 14961              	.LASF250:
 14962 16f1 5F5A4E31 		.ascii	"_ZN10chibios_rt8OutQueue6resetIEv\000"
 14962      30636869 
 14962      62696F73 
 14962      5F727438 
 14962      4F757451 
 14963              	.LASF297:
 14964 1713 73657450 		.ascii	"setPriority\000"
 14964      72696F72 
 14964      69747900 
 14965              	.LASF117:
 14966 171f 715F636F 		.ascii	"q_counter\000"
 14966      756E7465 
 14966      7200
 14967              	.LASF119:
 14968 1729 715F746F 		.ascii	"q_top\000"
 14968      7000
 14969              	.LASF33:
 14970 172f 705F7072 		.ascii	"p_prev\000"
 14970      657600
 14971              	.LASF18:
 14972 1736 74726566 		.ascii	"trefs_t\000"
 14972      735F7400 
 14973              	.LASF90:
 14974 173e 4576656E 		.ascii	"EventListener\000"
 14974      744C6973 
 14974      74656E65 
 14974      7200
 14975              	.LASF10:
 14976 174c 6C6F6E67 		.ascii	"long unsigned int\000"
 14976      20756E73 
 14976      69676E65 
 14976      6420696E 
 14976      7400
 14977              	.LASF283:
 14978 175e 6C6F6164 		.ascii	"loadArray\000"
 14978      41727261 
 14978      7900
 14979              	.LASF99:
 14980 1768 6D625F62 		.ascii	"mb_buffer\000"
 14980      75666665 
 14980      7200
 14981              	.LASF329:
 14982 1772 5F5A4E31 		.ascii	"_ZN10chibios_rt10BaseThread14dispatchEventsEPKPFvlE"
 14982      30636869 
 14982      62696F73 
 14982      5F727431 
 14982      30426173 
 14983 17a5 6D00     		.ascii	"m\000"
 14984              	.LASF134:
ARM GAS  /tmp/ccq01laD.s 			page 282


 14985 17a7 4F757451 		.ascii	"OutQueue\000"
 14985      75657565 
 14985      00
 14986              	.LASF7:
 14987 17b0 696E7433 		.ascii	"int32_t\000"
 14987      325F7400 
 14988              	.LASF324:
 14989 17b8 77616974 		.ascii	"waitAnyEventTimeout\000"
 14989      416E7945 
 14989      76656E74 
 14989      54696D65 
 14989      6F757400 
 14990              	.LASF353:
 14991 17cc 5F5A4E31 		.ascii	"_ZN10chibios_rt15ThreadReference16isPendingMessageE"
 14991      30636869 
 14991      62696F73 
 14991      5F727431 
 14991      35546872 
 14992 17ff 7600     		.ascii	"v\000"
 14993              	.LASF174:
 14994 1801 5F5A4E31 		.ascii	"_ZN10chibios_rt16CounterSemaphore12waitTimeoutSEm\000"
 14994      30636869 
 14994      62696F73 
 14994      5F727431 
 14994      36436F75 
 14995              	.LASF237:
 14996 1833 69734675 		.ascii	"isFullI\000"
 14996      6C6C4900 
 14997              	.LASF305:
 14998 183b 5F5A4E31 		.ascii	"_ZN10chibios_rt10BaseThread5sleepEm\000"
 14998      30636869 
 14998      62696F73 
 14998      5F727431 
 14998      30426173 
 14999              	.LASF139:
 15000 185f 5F5A4E31 		.ascii	"_ZN10chibios_rt6System4initEv\000"
 15000      30636869 
 15000      62696F73 
 15000      5F727436 
 15000      53797374 
 15001              	.LASF128:
 15002 187d 436F7265 		.ascii	"Core\000"
 15002      00
 15003              	.LASF4:
 15004 1882 756E7369 		.ascii	"unsigned char\000"
 15004      676E6564 
 15004      20636861 
 15004      7200
 15005              	.LASF387:
 15006 1890 2E2E2F2E 		.ascii	"../../ChibiOS/os/various/cpp_wrappers/ch.cpp\000"
 15006      2E2F4368 
 15006      6962694F 
 15006      532F6F73 
 15006      2F766172 
 15007              	.LASF213:
 15008 18bd 5F5A4E31 		.ascii	"_ZN10chibios_rt7CondVar5waitSEv\000"
 15008      30636869 
ARM GAS  /tmp/ccq01laD.s 			page 283


 15008      62696F73 
 15008      5F727437 
 15008      436F6E64 
 15009              	.LASF42:
 15010 18dd 705F7265 		.ascii	"p_refs\000"
 15010      667300
 15011              	.LASF77:
 15012 18e4 52656164 		.ascii	"ReadyList\000"
 15012      794C6973 
 15012      7400
 15013              	.LASF313:
 15014 18ee 5F5A4E31 		.ascii	"_ZN10chibios_rt10BaseThread17getAndClearEventsEm\000"
 15014      30636869 
 15014      62696F73 
 15014      5F727431 
 15014      30426173 
 15015              	.LASF379:
 15016 191f 6C696E6B 		.ascii	"link\000"
 15016      00
 15017              	.LASF341:
 15018 1924 5F5A4E31 		.ascii	"_ZN10chibios_rt15ThreadReference7suspendEv\000"
 15018      30636869 
 15018      62696F73 
 15018      5F727431 
 15018      35546872 
 15019              	.LASF254:
 15020 194f 5F5A4E31 		.ascii	"_ZN10chibios_rt8OutQueue10putTimeoutEhm\000"
 15020      30636869 
 15020      62696F73 
 15020      5F727438 
 15020      4F757451 
 15021              	.LASF43:
 15022 1977 705F7072 		.ascii	"p_preempt\000"
 15022      65656D70 
 15022      7400
 15023              	.LASF182:
 15024 1981 5F5A4E31 		.ascii	"_ZN10chibios_rt16CounterSemaphore11getCounterIEv\000"
 15024      30636869 
 15024      62696F73 
 15024      5F727431 
 15024      36436F75 
 15025              	.LASF96:
 15026 19b2 65735F6E 		.ascii	"es_next\000"
 15026      65787400 
 15027              	.LASF326:
 15028 19ba 77616974 		.ascii	"waitAllEventsTimeout\000"
 15028      416C6C45 
 15028      76656E74 
 15028      7354696D 
 15028      656F7574 
 15029              	.LASF389:
 15030 19cf 63686962 		.ascii	"chibios_rt\000"
 15030      696F735F 
 15030      727400
 15031              	.LASF338:
 15032 19da 74687265 		.ascii	"thread_ref\000"
 15032      61645F72 
ARM GAS  /tmp/ccq01laD.s 			page 284


 15032      656600
 15033              	.LASF260:
 15034 19e5 706F7374 		.ascii	"post\000"
 15034      00
 15035              	.LASF82:
 15036 19ea 62735F73 		.ascii	"bs_sem\000"
 15036      656D00
 15037              	.LASF162:
 15038 19f1 69734172 		.ascii	"isArmedI\000"
 15038      6D656449 
 15038      00
 15039              	.LASF107:
 15040 19fa 706F6F6C 		.ascii	"pool_header\000"
 15040      5F686561 
 15040      64657200 
 15041              	.LASF328:
 15042 1a06 64697370 		.ascii	"dispatchEvents\000"
 15042      61746368 
 15042      4576656E 
 15042      747300
 15043              	.LASF62:
 15044 1a15 76745F6E 		.ascii	"vt_next\000"
 15044      65787400 
 15045              	.LASF163:
 15046 1a1d 5F5A4E31 		.ascii	"_ZN10chibios_rt5Timer8isArmedIEv\000"
 15046      30636869 
 15046      62696F73 
 15046      5F727435 
 15046      54696D65 
 15047              	.LASF334:
 15048 1a3e 5F5A4E31 		.ascii	"_ZN10chibios_rt10BaseThread12unlockMutexSEv\000"
 15048      30636869 
 15048      62696F73 
 15048      5F727431 
 15048      30426173 
 15049              	.LASF280:
 15050 1a6a 67657455 		.ascii	"getUsedCountI\000"
 15050      73656443 
 15050      6F756E74 
 15050      4900
 15051              	.LASF141:
 15052 1a78 756E6C6F 		.ascii	"unlock\000"
 15052      636B00
 15053              	.LASF265:
 15054 1a7f 5F5A4E31 		.ascii	"_ZN10chibios_rt7Mailbox5postIEl\000"
 15054      30636869 
 15054      62696F73 
 15054      5F727437 
 15054      4D61696C 
 15055              	.LASF133:
 15056 1a9f 496E5175 		.ascii	"InQueue\000"
 15056      65756500 
 15057              	.LASF319:
 15058 1aa7 5F5A4E31 		.ascii	"_ZN10chibios_rt10BaseThread12waitAnyEventEm\000"
 15058      30636869 
 15058      62696F73 
 15058      5F727431 
ARM GAS  /tmp/ccq01laD.s 			page 285


 15058      30426173 
 15059              	.LASF277:
 15060 1ad3 5F5A4E31 		.ascii	"_ZN10chibios_rt7Mailbox6fetchIEPl\000"
 15060      30636869 
 15060      62696F73 
 15060      5F727437 
 15060      4D61696C 
 15061              	.LASF87:
 15062 1af5 6D5F6E65 		.ascii	"m_next\000"
 15062      787400
 15063              	.LASF293:
 15064 1afc 5F5A4E31 		.ascii	"_ZN10chibios_rt10BaseThread4mainEv\000"
 15064      30636869 
 15064      62696F73 
 15064      5F727431 
 15064      30426173 
 15065              	.LASF246:
 15066 1b1f 5F5A4E31 		.ascii	"_ZN10chibios_rt8OutQueue8getFullIEv\000"
 15066      30636869 
 15066      62696F73 
 15066      5F727438 
 15066      4F757451 
 15067              	.LASF1:
 15068 1b43 7369676E 		.ascii	"signed char\000"
 15068      65642063 
 15068      68617200 
 15069              	.LASF176:
 15070 1b4f 5F5A4E31 		.ascii	"_ZN10chibios_rt16CounterSemaphore6signalEv\000"
 15070      30636869 
 15070      62696F73 
 15070      5F727431 
 15070      36436F75 
 15071              	.LASF169:
 15072 1b7a 5F5A4E31 		.ascii	"_ZN10chibios_rt16CounterSemaphore4waitEv\000"
 15072      30636869 
 15072      62696F73 
 15072      5F727431 
 15072      36436F75 
 15073              	.LASF6:
 15074 1ba3 73686F72 		.ascii	"short unsigned int\000"
 15074      7420756E 
 15074      7369676E 
 15074      65642069 
 15074      6E7400
 15075              	.LASF73:
 15076 1bb6 725F6374 		.ascii	"r_ctx\000"
 15076      7800
 15077              	.LASF298:
 15078 1bbc 5F5A4E31 		.ascii	"_ZN10chibios_rt10BaseThread11setPriorityEm\000"
 15078      30636869 
 15078      62696F73 
 15078      5F727431 
 15078      30426173 
 15079              	.LASF57:
 15080 1be7 73746B61 		.ascii	"stkalign_t\000"
 15080      6C69676E 
 15080      5F7400
ARM GAS  /tmp/ccq01laD.s 			page 286


 15081              	.LASF248:
 15082 1bf2 5F5A4E31 		.ascii	"_ZN10chibios_rt8OutQueue8isEmptyIEv\000"
 15082      30636869 
 15082      62696F73 
 15082      5F727438 
 15082      4F757451 
 15083              	.LASF291:
 15084 1c16 6D61696E 		.ascii	"main\000"
 15084      00
 15085              	.LASF171:
 15086 1c1b 77616974 		.ascii	"waitTimeout\000"
 15086      54696D65 
 15086      6F757400 
 15087              	.LASF210:
 15088 1c27 62726F61 		.ascii	"broadcastI\000"
 15088      64636173 
 15088      744900
 15089              	.LASF381:
 15090 1c32 6D736770 		.ascii	"msgp\000"
 15090      00
 15091              	.LASF218:
 15092 1c37 67657441 		.ascii	"getAndClearFlagsI\000"
 15092      6E64436C 
 15092      65617246 
 15092      6C616773 
 15092      4900
 15093              	.LASF65:
 15094 1c49 76745F66 		.ascii	"vt_func\000"
 15094      756E6300 
 15095              	.LASF357:
 15096 1c51 5F5A4E31 		.ascii	"_ZN10chibios_rt15ThreadReference14releaseMessageEl\000"
 15096      30636869 
 15096      62696F73 
 15096      5F727431 
 15096      35546872 
 15097              	.LASF216:
 15098 1c84 67657441 		.ascii	"getAndClearFlags\000"
 15098      6E64436C 
 15098      65617246 
 15098      6C616773 
 15098      00
 15099              	.LASF63:
 15100 1c95 76745F70 		.ascii	"vt_prev\000"
 15100      72657600 
 15101              	.LASF245:
 15102 1c9d 5F5A4E31 		.ascii	"_ZN10chibios_rt7InQueue11readTimeoutEPhjm\000"
 15102      30636869 
 15102      62696F73 
 15102      5F727437 
 15102      496E5175 
 15103              	.LASF241:
 15104 1cc7 5F5A4E31 		.ascii	"_ZN10chibios_rt7InQueue4putIEh\000"
 15104      30636869 
 15104      62696F73 
 15104      5F727437 
 15104      496E5175 
 15105              	.LASF126:
ARM GAS  /tmp/ccq01laD.s 			page 287


 15106 1ce6 4F757470 		.ascii	"OutputQueue\000"
 15106      75745175 
 15106      65756500 
 15107              	.LASF22:
 15108 1cf2 6576656E 		.ascii	"eventid_t\000"
 15108      7469645F 
 15108      7400
 15109              	.LASF273:
 15110 1cfc 5F5A4E31 		.ascii	"_ZN10chibios_rt7Mailbox5fetchEPlm\000"
 15110      30636869 
 15110      62696F73 
 15110      5F727437 
 15110      4D61696C 
 15111              	.LASF247:
 15112 1d1e 5F5A4E31 		.ascii	"_ZN10chibios_rt8OutQueue9getEmptyIEv\000"
 15112      30636869 
 15112      62696F73 
 15112      5F727438 
 15112      4F757451 
 15113              	.LASF212:
 15114 1d43 5F5A4E31 		.ascii	"_ZN10chibios_rt7CondVar4waitEv\000"
 15114      30636869 
 15114      62696F73 
 15114      5F727437 
 15114      436F6E64 
 15115              	.LASF336:
 15116 1d62 5F5A4E31 		.ascii	"_ZN10chibios_rt10BaseThread16unlockAllMutexesEv\000"
 15116      30636869 
 15116      62696F73 
 15116      5F727431 
 15116      30426173 
 15117              	.LASF94:
 15118 1d92 656C5F66 		.ascii	"el_flags\000"
 15118      6C616773 
 15118      00
 15119              	.LASF29:
 15120 1d9b 65786974 		.ascii	"exitcode\000"
 15120      636F6465 
 15120      00
 15121              	.LASF88:
 15122 1da4 436F6E64 		.ascii	"CondVar\000"
 15122      56617200 
 15123              	.LASF83:
 15124 1dac 42696E61 		.ascii	"BinarySemaphore\000"
 15124      72795365 
 15124      6D617068 
 15124      6F726500 
 15125              	.LASF243:
 15126 1dbc 5F5A4E31 		.ascii	"_ZN10chibios_rt7InQueue10getTimeoutEm\000"
 15126      30636869 
 15126      62696F73 
 15126      5F727437 
 15126      496E5175 
 15127              	.LASF112:
 15128 1de2 6D705F70 		.ascii	"mp_provider\000"
 15128      726F7669 
 15128      64657200 
ARM GAS  /tmp/ccq01laD.s 			page 288


 15129              	.LASF333:
 15130 1dee 756E6C6F 		.ascii	"unlockMutexS\000"
 15130      636B4D75 
 15130      74657853 
 15130      00
 15131              	.LASF390:
 15132 1dfb 73746F70 		.ascii	"stop\000"
 15132      00
 15133              		.ident	"GCC: (GNU Tools for ARM Embedded Processors) 4.6.2 20120613 (release) [ARM/embedded-4_6-br
ARM GAS  /tmp/ccq01laD.s 			page 289


DEFINED SYMBOLS
                            *ABS*:00000000 ch.cpp
     /tmp/ccq01laD.s:19     .text.startup._ZN10chibios_rt10BaseThread4mainEv:00000000 $t
     /tmp/ccq01laD.s:25     .text.startup._ZN10chibios_rt10BaseThread4mainEv:00000000 _ZN10chibios_rt10BaseThread4mainEv
     /tmp/ccq01laD.s:42     .text._ZN10chibios_rt10BaseThread5startEm:00000000 $t
     /tmp/ccq01laD.s:48     .text._ZN10chibios_rt10BaseThread5startEm:00000000 _ZN10chibios_rt10BaseThread5startEm
     /tmp/ccq01laD.s:74     .text._ZN10chibios_rt10BaseThread5startEm:0000000c $d
     /tmp/ccq01laD.s:79     .text._ZN10chibios_rt15ThreadReference4stopEv:00000000 $t
     /tmp/ccq01laD.s:85     .text._ZN10chibios_rt15ThreadReference4stopEv:00000000 _ZN10chibios_rt15ThreadReference4stopEv
     /tmp/ccq01laD.s:3916   .rodata.str1.4:00000000 .LC0
     /tmp/ccq01laD.s:104    .text._ZN10chibios_rt6System4initEv:00000000 $t
     /tmp/ccq01laD.s:110    .text._ZN10chibios_rt6System4initEv:00000000 _ZN10chibios_rt6System4initEv
     /tmp/ccq01laD.s:124    .text._ZN10chibios_rt6System4lockEv:00000000 $t
     /tmp/ccq01laD.s:130    .text._ZN10chibios_rt6System4lockEv:00000000 _ZN10chibios_rt6System4lockEv
     /tmp/ccq01laD.s:159    .text._ZN10chibios_rt6System6unlockEv:00000000 $t
     /tmp/ccq01laD.s:165    .text._ZN10chibios_rt6System6unlockEv:00000000 _ZN10chibios_rt6System6unlockEv
     /tmp/ccq01laD.s:195    .text._ZN10chibios_rt6System11lockFromIsrEv:00000000 $t
     /tmp/ccq01laD.s:201    .text._ZN10chibios_rt6System11lockFromIsrEv:00000000 _ZN10chibios_rt6System11lockFromIsrEv
     /tmp/ccq01laD.s:230    .text._ZN10chibios_rt6System13unlockFromIsrEv:00000000 $t
     /tmp/ccq01laD.s:236    .text._ZN10chibios_rt6System13unlockFromIsrEv:00000000 _ZN10chibios_rt6System13unlockFromIsrEv
     /tmp/ccq01laD.s:266    .text._ZN10chibios_rt6System7getTimeEv:00000000 $t
     /tmp/ccq01laD.s:272    .text._ZN10chibios_rt6System7getTimeEv:00000000 _ZN10chibios_rt6System7getTimeEv
     /tmp/ccq01laD.s:289    .text._ZN10chibios_rt6System12isTimeWithinEmm:00000000 $t
     /tmp/ccq01laD.s:295    .text._ZN10chibios_rt6System12isTimeWithinEmm:00000000 _ZN10chibios_rt6System12isTimeWithinEmm
     /tmp/ccq01laD.s:312    .text._ZN10chibios_rt4Core5allocEj:00000000 $t
     /tmp/ccq01laD.s:318    .text._ZN10chibios_rt4Core5allocEj:00000000 _ZN10chibios_rt4Core5allocEj
     /tmp/ccq01laD.s:334    .text._ZN10chibios_rt4Core6allocIEj:00000000 $t
     /tmp/ccq01laD.s:340    .text._ZN10chibios_rt4Core6allocIEj:00000000 _ZN10chibios_rt4Core6allocIEj
     /tmp/ccq01laD.s:356    .text._ZN10chibios_rt4Core9getStatusEv:00000000 $t
     /tmp/ccq01laD.s:362    .text._ZN10chibios_rt4Core9getStatusEv:00000000 _ZN10chibios_rt4Core9getStatusEv
     /tmp/ccq01laD.s:376    .text._ZN10chibios_rt5Timer4setIEmPFvPvES1_:00000000 $t
     /tmp/ccq01laD.s:382    .text._ZN10chibios_rt5Timer4setIEmPFvPvES1_:00000000 _ZN10chibios_rt5Timer4setIEmPFvPvES1_
     /tmp/ccq01laD.s:401    .text._ZN10chibios_rt5Timer6resetIEv:00000000 $t
     /tmp/ccq01laD.s:407    .text._ZN10chibios_rt5Timer6resetIEv:00000000 _ZN10chibios_rt5Timer6resetIEv
     /tmp/ccq01laD.s:428    .text._ZN10chibios_rt5Timer8isArmedIEv:00000000 $t
     /tmp/ccq01laD.s:434    .text._ZN10chibios_rt5Timer8isArmedIEv:00000000 _ZN10chibios_rt5Timer8isArmedIEv
     /tmp/ccq01laD.s:454    .text._ZN10chibios_rt15ThreadReference7suspendEv:00000000 $t
     /tmp/ccq01laD.s:460    .text._ZN10chibios_rt15ThreadReference7suspendEv:00000000 _ZN10chibios_rt15ThreadReference7suspendEv
     /tmp/ccq01laD.s:541    .text._ZN10chibios_rt15ThreadReference7suspendEv:00000038 $d
     /tmp/ccq01laD.s:548    .text._ZN10chibios_rt15ThreadReference8suspendSEv:00000000 $t
     /tmp/ccq01laD.s:554    .text._ZN10chibios_rt15ThreadReference8suspendSEv:00000000 _ZN10chibios_rt15ThreadReference8suspendSEv
     /tmp/ccq01laD.s:595    .text._ZN10chibios_rt15ThreadReference8suspendSEv:00000020 $d
     /tmp/ccq01laD.s:601    .text._ZN10chibios_rt15ThreadReference6resumeEl:00000000 $t
     /tmp/ccq01laD.s:607    .text._ZN10chibios_rt15ThreadReference6resumeEl:00000000 _ZN10chibios_rt15ThreadReference6resumeEl
     /tmp/ccq01laD.s:687    .text._ZN10chibios_rt15ThreadReference6resumeEl:00000038 $d
     /tmp/ccq01laD.s:694    .text._ZN10chibios_rt15ThreadReference7resumeIEl:00000000 $t
     /tmp/ccq01laD.s:700    .text._ZN10chibios_rt15ThreadReference7resumeIEl:00000000 _ZN10chibios_rt15ThreadReference7resumeIEl
     /tmp/ccq01laD.s:768    .text._ZN10chibios_rt15ThreadReference7resumeIEl:00000030 $d
     /tmp/ccq01laD.s:773    .text._ZN10chibios_rt15ThreadReference16requestTerminateEv:00000000 $t
     /tmp/ccq01laD.s:779    .text._ZN10chibios_rt15ThreadReference16requestTerminateEv:00000000 _ZN10chibios_rt15ThreadReference16requestTerminateEv
     /tmp/ccq01laD.s:811    .text._ZN10chibios_rt15ThreadReference16requestTerminateEv:0000001c $d
     /tmp/ccq01laD.s:816    .text._ZN10chibios_rt15ThreadReference4waitEv:00000000 $t
     /tmp/ccq01laD.s:822    .text._ZN10chibios_rt15ThreadReference4waitEv:00000000 _ZN10chibios_rt15ThreadReference4waitEv
     /tmp/ccq01laD.s:869    .text._ZN10chibios_rt15ThreadReference4waitEv:00000024 $d
     /tmp/ccq01laD.s:874    .text._ZN10chibios_rt15ThreadReference11sendMessageEl:00000000 $t
     /tmp/ccq01laD.s:880    .text._ZN10chibios_rt15ThreadReference11sendMessageEl:00000000 _ZN10chibios_rt15ThreadReference11sendMessageEl
     /tmp/ccq01laD.s:922    .text._ZN10chibios_rt15ThreadReference11sendMessageEl:00000024 $d
ARM GAS  /tmp/ccq01laD.s 			page 290


     /tmp/ccq01laD.s:927    .text._ZN10chibios_rt15ThreadReference16isPendingMessageEv:00000000 $t
     /tmp/ccq01laD.s:933    .text._ZN10chibios_rt15ThreadReference16isPendingMessageEv:00000000 _ZN10chibios_rt15ThreadReference16isPendingMessageEv
     /tmp/ccq01laD.s:977    .text._ZN10chibios_rt15ThreadReference16isPendingMessageEv:00000028 $d
     /tmp/ccq01laD.s:982    .text._ZN10chibios_rt15ThreadReference10getMessageEv:00000000 $t
     /tmp/ccq01laD.s:988    .text._ZN10chibios_rt15ThreadReference10getMessageEv:00000000 _ZN10chibios_rt15ThreadReference10getMessageEv
     /tmp/ccq01laD.s:1024   .text._ZN10chibios_rt15ThreadReference10getMessageEv:00000018 $d
     /tmp/ccq01laD.s:1029   .text._ZN10chibios_rt15ThreadReference14releaseMessageEl:00000000 $t
     /tmp/ccq01laD.s:1035   .text._ZN10chibios_rt15ThreadReference14releaseMessageEl:00000000 _ZN10chibios_rt15ThreadReference14releaseMessageEl
     /tmp/ccq01laD.s:1077   .text._ZN10chibios_rt15ThreadReference14releaseMessageEl:00000024 $d
     /tmp/ccq01laD.s:1082   .text._ZN10chibios_rt15ThreadReference12signalEventsEm:00000000 $t
     /tmp/ccq01laD.s:1088   .text._ZN10chibios_rt15ThreadReference12signalEventsEm:00000000 _ZN10chibios_rt15ThreadReference12signalEventsEm
     /tmp/ccq01laD.s:1130   .text._ZN10chibios_rt15ThreadReference12signalEventsEm:00000024 $d
     /tmp/ccq01laD.s:1135   .text._ZN10chibios_rt15ThreadReference13signalEventsIEm:00000000 $t
     /tmp/ccq01laD.s:1141   .text._ZN10chibios_rt15ThreadReference13signalEventsIEm:00000000 _ZN10chibios_rt15ThreadReference13signalEventsIEm
     /tmp/ccq01laD.s:1183   .text._ZN10chibios_rt15ThreadReference13signalEventsIEm:00000024 $d
     /tmp/ccq01laD.s:1188   .text._ZN10chibios_rt10BaseThreadC2Ev:00000000 $t
     /tmp/ccq01laD.s:1194   .text._ZN10chibios_rt10BaseThreadC2Ev:00000000 _ZN10chibios_rt10BaseThreadC2Ev
     /tmp/ccq01laD.s:1222   .text._ZN10chibios_rt10BaseThreadC2Ev:0000000c $d
     /tmp/ccq01laD.s:1227   .text._ZN10chibios_rt10_thd_startEPv:00000000 $t
     /tmp/ccq01laD.s:1233   .text._ZN10chibios_rt10_thd_startEPv:00000000 _ZN10chibios_rt10_thd_startEPv
     /tmp/ccq01laD.s:1258   .text._ZN10chibios_rt10BaseThread7setNameEPKc:00000000 $t
     /tmp/ccq01laD.s:1264   .text._ZN10chibios_rt10BaseThread7setNameEPKc:00000000 _ZN10chibios_rt10BaseThread7setNameEPKc
     /tmp/ccq01laD.s:1283   .text._ZN10chibios_rt10BaseThread11setPriorityEm:00000000 $t
     /tmp/ccq01laD.s:1289   .text._ZN10chibios_rt10BaseThread11setPriorityEm:00000000 _ZN10chibios_rt10BaseThread11setPriorityEm
     /tmp/ccq01laD.s:1305   .text._ZN10chibios_rt10BaseThread4exitEl:00000000 $t
     /tmp/ccq01laD.s:1311   .text._ZN10chibios_rt10BaseThread4exitEl:00000000 _ZN10chibios_rt10BaseThread4exitEl
     /tmp/ccq01laD.s:1327   .text._ZN10chibios_rt10BaseThread5exitSEl:00000000 $t
     /tmp/ccq01laD.s:1333   .text._ZN10chibios_rt10BaseThread5exitSEl:00000000 _ZN10chibios_rt10BaseThread5exitSEl
     /tmp/ccq01laD.s:1349   .text._ZN10chibios_rt10BaseThread15shouldTerminateEv:00000000 $t
     /tmp/ccq01laD.s:1355   .text._ZN10chibios_rt10BaseThread15shouldTerminateEv:00000000 _ZN10chibios_rt10BaseThread15shouldTerminateEv
     /tmp/ccq01laD.s:1374   .text._ZN10chibios_rt10BaseThread5sleepEm:00000000 $t
     /tmp/ccq01laD.s:1380   .text._ZN10chibios_rt10BaseThread5sleepEm:00000000 _ZN10chibios_rt10BaseThread5sleepEm
     /tmp/ccq01laD.s:1396   .text._ZN10chibios_rt10BaseThread10sleepUntilEm:00000000 $t
     /tmp/ccq01laD.s:1402   .text._ZN10chibios_rt10BaseThread10sleepUntilEm:00000000 _ZN10chibios_rt10BaseThread10sleepUntilEm
     /tmp/ccq01laD.s:1418   .text._ZN10chibios_rt10BaseThread5yieldEv:00000000 $t
     /tmp/ccq01laD.s:1424   .text._ZN10chibios_rt10BaseThread5yieldEv:00000000 _ZN10chibios_rt10BaseThread5yieldEv
     /tmp/ccq01laD.s:1438   .text._ZN10chibios_rt10BaseThread11waitMessageEv:00000000 $t
     /tmp/ccq01laD.s:1444   .text._ZN10chibios_rt10BaseThread11waitMessageEv:00000000 _ZN10chibios_rt10BaseThread11waitMessageEv
     /tmp/ccq01laD.s:1480   .text._ZN10chibios_rt10BaseThread11waitMessageEv:00000014 $d
     /tmp/ccq01laD.s:1485   .text._ZN10chibios_rt10BaseThread17getAndClearEventsEm:00000000 $t
     /tmp/ccq01laD.s:1491   .text._ZN10chibios_rt10BaseThread17getAndClearEventsEm:00000000 _ZN10chibios_rt10BaseThread17getAndClearEventsEm
     /tmp/ccq01laD.s:1507   .text._ZN10chibios_rt10BaseThread9addEventsEm:00000000 $t
     /tmp/ccq01laD.s:1513   .text._ZN10chibios_rt10BaseThread9addEventsEm:00000000 _ZN10chibios_rt10BaseThread9addEventsEm
     /tmp/ccq01laD.s:1529   .text._ZN10chibios_rt10BaseThread12waitOneEventEm:00000000 $t
     /tmp/ccq01laD.s:1535   .text._ZN10chibios_rt10BaseThread12waitOneEventEm:00000000 _ZN10chibios_rt10BaseThread12waitOneEventEm
     /tmp/ccq01laD.s:1551   .text._ZN10chibios_rt10BaseThread12waitAnyEventEm:00000000 $t
     /tmp/ccq01laD.s:1557   .text._ZN10chibios_rt10BaseThread12waitAnyEventEm:00000000 _ZN10chibios_rt10BaseThread12waitAnyEventEm
     /tmp/ccq01laD.s:1573   .text._ZN10chibios_rt10BaseThread13waitAllEventsEm:00000000 $t
     /tmp/ccq01laD.s:1579   .text._ZN10chibios_rt10BaseThread13waitAllEventsEm:00000000 _ZN10chibios_rt10BaseThread13waitAllEventsEm
     /tmp/ccq01laD.s:1595   .text._ZN10chibios_rt10BaseThread19waitOneEventTimeoutEmm:00000000 $t
     /tmp/ccq01laD.s:1601   .text._ZN10chibios_rt10BaseThread19waitOneEventTimeoutEmm:00000000 _ZN10chibios_rt10BaseThread19waitOneEventTimeoutEmm
     /tmp/ccq01laD.s:1618   .text._ZN10chibios_rt10BaseThread19waitAnyEventTimeoutEmm:00000000 $t
     /tmp/ccq01laD.s:1624   .text._ZN10chibios_rt10BaseThread19waitAnyEventTimeoutEmm:00000000 _ZN10chibios_rt10BaseThread19waitAnyEventTimeoutEmm
     /tmp/ccq01laD.s:1641   .text._ZN10chibios_rt10BaseThread20waitAllEventsTimeoutEmm:00000000 $t
     /tmp/ccq01laD.s:1647   .text._ZN10chibios_rt10BaseThread20waitAllEventsTimeoutEmm:00000000 _ZN10chibios_rt10BaseThread20waitAllEventsTimeoutEmm
     /tmp/ccq01laD.s:1664   .text._ZN10chibios_rt10BaseThread14dispatchEventsEPKPFvlEm:00000000 $t
     /tmp/ccq01laD.s:1670   .text._ZN10chibios_rt10BaseThread14dispatchEventsEPKPFvlEm:00000000 _ZN10chibios_rt10BaseThread14dispatchEventsEPKPFvlEm
ARM GAS  /tmp/ccq01laD.s 			page 291


     /tmp/ccq01laD.s:1687   .text._ZN10chibios_rt10BaseThread11unlockMutexEv:00000000 $t
     /tmp/ccq01laD.s:1693   .text._ZN10chibios_rt10BaseThread11unlockMutexEv:00000000 _ZN10chibios_rt10BaseThread11unlockMutexEv
     /tmp/ccq01laD.s:1707   .text._ZN10chibios_rt10BaseThread12unlockMutexSEv:00000000 $t
     /tmp/ccq01laD.s:1713   .text._ZN10chibios_rt10BaseThread12unlockMutexSEv:00000000 _ZN10chibios_rt10BaseThread12unlockMutexSEv
     /tmp/ccq01laD.s:1727   .text._ZN10chibios_rt10BaseThread16unlockAllMutexesEv:00000000 $t
     /tmp/ccq01laD.s:1733   .text._ZN10chibios_rt10BaseThread16unlockAllMutexesEv:00000000 _ZN10chibios_rt10BaseThread16unlockAllMutexesEv
     /tmp/ccq01laD.s:1747   .text._ZN10chibios_rt16CounterSemaphoreC2El:00000000 $t
     /tmp/ccq01laD.s:1753   .text._ZN10chibios_rt16CounterSemaphoreC2El:00000000 _ZN10chibios_rt16CounterSemaphoreC2El
     /tmp/ccq01laD.s:1779   .text._ZN10chibios_rt16CounterSemaphore5resetEl:00000000 $t
     /tmp/ccq01laD.s:1785   .text._ZN10chibios_rt16CounterSemaphore5resetEl:00000000 _ZN10chibios_rt16CounterSemaphore5resetEl
     /tmp/ccq01laD.s:1802   .text._ZN10chibios_rt16CounterSemaphore6resetIEl:00000000 $t
     /tmp/ccq01laD.s:1808   .text._ZN10chibios_rt16CounterSemaphore6resetIEl:00000000 _ZN10chibios_rt16CounterSemaphore6resetIEl
     /tmp/ccq01laD.s:1825   .text._ZN10chibios_rt16CounterSemaphore4waitEv:00000000 $t
     /tmp/ccq01laD.s:1831   .text._ZN10chibios_rt16CounterSemaphore4waitEv:00000000 _ZN10chibios_rt16CounterSemaphore4waitEv
     /tmp/ccq01laD.s:1847   .text._ZN10chibios_rt16CounterSemaphore5waitSEv:00000000 $t
     /tmp/ccq01laD.s:1853   .text._ZN10chibios_rt16CounterSemaphore5waitSEv:00000000 _ZN10chibios_rt16CounterSemaphore5waitSEv
     /tmp/ccq01laD.s:1869   .text._ZN10chibios_rt16CounterSemaphore11waitTimeoutEm:00000000 $t
     /tmp/ccq01laD.s:1875   .text._ZN10chibios_rt16CounterSemaphore11waitTimeoutEm:00000000 _ZN10chibios_rt16CounterSemaphore11waitTimeoutEm
     /tmp/ccq01laD.s:1892   .text._ZN10chibios_rt16CounterSemaphore12waitTimeoutSEm:00000000 $t
     /tmp/ccq01laD.s:1898   .text._ZN10chibios_rt16CounterSemaphore12waitTimeoutSEm:00000000 _ZN10chibios_rt16CounterSemaphore12waitTimeoutSEm
     /tmp/ccq01laD.s:1915   .text._ZN10chibios_rt16CounterSemaphore6signalEv:00000000 $t
     /tmp/ccq01laD.s:1921   .text._ZN10chibios_rt16CounterSemaphore6signalEv:00000000 _ZN10chibios_rt16CounterSemaphore6signalEv
     /tmp/ccq01laD.s:1937   .text._ZN10chibios_rt16CounterSemaphore7signalIEv:00000000 $t
     /tmp/ccq01laD.s:1943   .text._ZN10chibios_rt16CounterSemaphore7signalIEv:00000000 _ZN10chibios_rt16CounterSemaphore7signalIEv
     /tmp/ccq01laD.s:1959   .text._ZN10chibios_rt16CounterSemaphore11addCounterIEl:00000000 $t
     /tmp/ccq01laD.s:1965   .text._ZN10chibios_rt16CounterSemaphore11addCounterIEl:00000000 _ZN10chibios_rt16CounterSemaphore11addCounterIEl
     /tmp/ccq01laD.s:1982   .text._ZN10chibios_rt16CounterSemaphore11getCounterIEv:00000000 $t
     /tmp/ccq01laD.s:1988   .text._ZN10chibios_rt16CounterSemaphore11getCounterIEv:00000000 _ZN10chibios_rt16CounterSemaphore11getCounterIEv
     /tmp/ccq01laD.s:2005   .text._ZN10chibios_rt16CounterSemaphore10signalWaitEPS0_S1_:00000000 $t
     /tmp/ccq01laD.s:2011   .text._ZN10chibios_rt16CounterSemaphore10signalWaitEPS0_S1_:00000000 _ZN10chibios_rt16CounterSemaphore10signalWaitEPS0_S1_
     /tmp/ccq01laD.s:2028   .text._ZN10chibios_rt15BinarySemaphoreC2Eb:00000000 $t
     /tmp/ccq01laD.s:2034   .text._ZN10chibios_rt15BinarySemaphoreC2Eb:00000000 _ZN10chibios_rt15BinarySemaphoreC2Eb
     /tmp/ccq01laD.s:2065   .text._ZN10chibios_rt15BinarySemaphore4waitEv:00000000 $t
     /tmp/ccq01laD.s:2071   .text._ZN10chibios_rt15BinarySemaphore4waitEv:00000000 _ZN10chibios_rt15BinarySemaphore4waitEv
     /tmp/ccq01laD.s:2087   .text._ZN10chibios_rt15BinarySemaphore5waitSEv:00000000 $t
     /tmp/ccq01laD.s:2093   .text._ZN10chibios_rt15BinarySemaphore5waitSEv:00000000 _ZN10chibios_rt15BinarySemaphore5waitSEv
     /tmp/ccq01laD.s:2109   .text._ZN10chibios_rt15BinarySemaphore11waitTimeoutEm:00000000 $t
     /tmp/ccq01laD.s:2115   .text._ZN10chibios_rt15BinarySemaphore11waitTimeoutEm:00000000 _ZN10chibios_rt15BinarySemaphore11waitTimeoutEm
     /tmp/ccq01laD.s:2132   .text._ZN10chibios_rt15BinarySemaphore12waitTimeoutSEm:00000000 $t
     /tmp/ccq01laD.s:2138   .text._ZN10chibios_rt15BinarySemaphore12waitTimeoutSEm:00000000 _ZN10chibios_rt15BinarySemaphore12waitTimeoutSEm
     /tmp/ccq01laD.s:2155   .text._ZN10chibios_rt15BinarySemaphore5resetEb:00000000 $t
     /tmp/ccq01laD.s:2161   .text._ZN10chibios_rt15BinarySemaphore5resetEb:00000000 _ZN10chibios_rt15BinarySemaphore5resetEb
     /tmp/ccq01laD.s:2180   .text._ZN10chibios_rt15BinarySemaphore6resetIEb:00000000 $t
     /tmp/ccq01laD.s:2186   .text._ZN10chibios_rt15BinarySemaphore6resetIEb:00000000 _ZN10chibios_rt15BinarySemaphore6resetIEb
     /tmp/ccq01laD.s:2205   .text._ZN10chibios_rt15BinarySemaphore6signalEv:00000000 $t
     /tmp/ccq01laD.s:2211   .text._ZN10chibios_rt15BinarySemaphore6signalEv:00000000 _ZN10chibios_rt15BinarySemaphore6signalEv
     /tmp/ccq01laD.s:2292   .text._ZN10chibios_rt15BinarySemaphore7signalIEv:00000000 $t
     /tmp/ccq01laD.s:2298   .text._ZN10chibios_rt15BinarySemaphore7signalIEv:00000000 _ZN10chibios_rt15BinarySemaphore7signalIEv
     /tmp/ccq01laD.s:2320   .text._ZN10chibios_rt15BinarySemaphore9getStateIEv:00000000 $t
     /tmp/ccq01laD.s:2326   .text._ZN10chibios_rt15BinarySemaphore9getStateIEv:00000000 _ZN10chibios_rt15BinarySemaphore9getStateIEv
     /tmp/ccq01laD.s:2347   .text._ZN10chibios_rt5MutexC2Ev:00000000 $t
     /tmp/ccq01laD.s:2353   .text._ZN10chibios_rt5MutexC2Ev:00000000 _ZN10chibios_rt5MutexC2Ev
     /tmp/ccq01laD.s:2379   .text._ZN10chibios_rt5Mutex7tryLockEv:00000000 $t
     /tmp/ccq01laD.s:2385   .text._ZN10chibios_rt5Mutex7tryLockEv:00000000 _ZN10chibios_rt5Mutex7tryLockEv
     /tmp/ccq01laD.s:2401   .text._ZN10chibios_rt5Mutex8tryLockSEv:00000000 $t
     /tmp/ccq01laD.s:2407   .text._ZN10chibios_rt5Mutex8tryLockSEv:00000000 _ZN10chibios_rt5Mutex8tryLockSEv
     /tmp/ccq01laD.s:2423   .text._ZN10chibios_rt5Mutex4lockEv:00000000 $t
ARM GAS  /tmp/ccq01laD.s 			page 292


     /tmp/ccq01laD.s:2429   .text._ZN10chibios_rt5Mutex4lockEv:00000000 _ZN10chibios_rt5Mutex4lockEv
     /tmp/ccq01laD.s:2445   .text._ZN10chibios_rt5Mutex5lockSEv:00000000 $t
     /tmp/ccq01laD.s:2451   .text._ZN10chibios_rt5Mutex5lockSEv:00000000 _ZN10chibios_rt5Mutex5lockSEv
     /tmp/ccq01laD.s:2467   .text._ZN10chibios_rt7CondVarC2Ev:00000000 $t
     /tmp/ccq01laD.s:2473   .text._ZN10chibios_rt7CondVarC2Ev:00000000 _ZN10chibios_rt7CondVarC2Ev
     /tmp/ccq01laD.s:2499   .text._ZN10chibios_rt7CondVar6signalEv:00000000 $t
     /tmp/ccq01laD.s:2505   .text._ZN10chibios_rt7CondVar6signalEv:00000000 _ZN10chibios_rt7CondVar6signalEv
     /tmp/ccq01laD.s:2521   .text._ZN10chibios_rt7CondVar7signalIEv:00000000 $t
     /tmp/ccq01laD.s:2527   .text._ZN10chibios_rt7CondVar7signalIEv:00000000 _ZN10chibios_rt7CondVar7signalIEv
     /tmp/ccq01laD.s:2543   .text._ZN10chibios_rt7CondVar9broadcastEv:00000000 $t
     /tmp/ccq01laD.s:2549   .text._ZN10chibios_rt7CondVar9broadcastEv:00000000 _ZN10chibios_rt7CondVar9broadcastEv
     /tmp/ccq01laD.s:2565   .text._ZN10chibios_rt7CondVar10broadcastIEv:00000000 $t
     /tmp/ccq01laD.s:2571   .text._ZN10chibios_rt7CondVar10broadcastIEv:00000000 _ZN10chibios_rt7CondVar10broadcastIEv
     /tmp/ccq01laD.s:2587   .text._ZN10chibios_rt7CondVar4waitEv:00000000 $t
     /tmp/ccq01laD.s:2593   .text._ZN10chibios_rt7CondVar4waitEv:00000000 _ZN10chibios_rt7CondVar4waitEv
     /tmp/ccq01laD.s:2609   .text._ZN10chibios_rt7CondVar5waitSEv:00000000 $t
     /tmp/ccq01laD.s:2615   .text._ZN10chibios_rt7CondVar5waitSEv:00000000 _ZN10chibios_rt7CondVar5waitSEv
     /tmp/ccq01laD.s:2631   .text._ZN10chibios_rt7CondVar11waitTimeoutEm:00000000 $t
     /tmp/ccq01laD.s:2637   .text._ZN10chibios_rt7CondVar11waitTimeoutEm:00000000 _ZN10chibios_rt7CondVar11waitTimeoutEm
     /tmp/ccq01laD.s:2654   .text._ZN10chibios_rt11EvtListener16getAndClearFlagsEv:00000000 $t
     /tmp/ccq01laD.s:2660   .text._ZN10chibios_rt11EvtListener16getAndClearFlagsEv:00000000 _ZN10chibios_rt11EvtListener16getAndClearFlagsEv
     /tmp/ccq01laD.s:2676   .text._ZN10chibios_rt11EvtListener17getAndClearFlagsIEv:00000000 $t
     /tmp/ccq01laD.s:2682   .text._ZN10chibios_rt11EvtListener17getAndClearFlagsIEv:00000000 _ZN10chibios_rt11EvtListener17getAndClearFlagsIEv
     /tmp/ccq01laD.s:2698   .text._ZN10chibios_rt9EvtSourceC2Ev:00000000 $t
     /tmp/ccq01laD.s:2704   .text._ZN10chibios_rt9EvtSourceC2Ev:00000000 _ZN10chibios_rt9EvtSourceC2Ev
     /tmp/ccq01laD.s:2722   .text._ZN10chibios_rt9EvtSource11registerOneEPNS_11EvtListenerEl:00000000 $t
     /tmp/ccq01laD.s:2728   .text._ZN10chibios_rt9EvtSource11registerOneEPNS_11EvtListenerEl:00000000 _ZN10chibios_rt9EvtSource11registerOneEPNS_11EvtListenerEl
     /tmp/ccq01laD.s:2749   .text._ZN10chibios_rt9EvtSource12registerMaskEPNS_11EvtListenerEm:00000000 $t
     /tmp/ccq01laD.s:2755   .text._ZN10chibios_rt9EvtSource12registerMaskEPNS_11EvtListenerEm:00000000 _ZN10chibios_rt9EvtSource12registerMaskEPNS_11EvtListenerEm
     /tmp/ccq01laD.s:2773   .text._ZN10chibios_rt9EvtSource10unregisterEPNS_11EvtListenerE:00000000 $t
     /tmp/ccq01laD.s:2779   .text._ZN10chibios_rt9EvtSource10unregisterEPNS_11EvtListenerE:00000000 _ZN10chibios_rt9EvtSource10unregisterEPNS_11EvtListenerE
     /tmp/ccq01laD.s:2796   .text._ZN10chibios_rt9EvtSource14broadcastFlagsEm:00000000 $t
     /tmp/ccq01laD.s:2802   .text._ZN10chibios_rt9EvtSource14broadcastFlagsEm:00000000 _ZN10chibios_rt9EvtSource14broadcastFlagsEm
     /tmp/ccq01laD.s:2819   .text._ZN10chibios_rt9EvtSource15broadcastFlagsIEm:00000000 $t
     /tmp/ccq01laD.s:2825   .text._ZN10chibios_rt9EvtSource15broadcastFlagsIEm:00000000 _ZN10chibios_rt9EvtSource15broadcastFlagsIEm
     /tmp/ccq01laD.s:2842   .text._ZN10chibios_rt7InQueueC2EPhjPFvP12GenericQueueEPv:00000000 $t
     /tmp/ccq01laD.s:2848   .text._ZN10chibios_rt7InQueueC2EPhjPFvP12GenericQueueEPv:00000000 _ZN10chibios_rt7InQueueC2EPhjPFvP12GenericQueueEPv
     /tmp/ccq01laD.s:2882   .text._ZN10chibios_rt7InQueue8getFullIEv:00000000 $t
     /tmp/ccq01laD.s:2888   .text._ZN10chibios_rt7InQueue8getFullIEv:00000000 _ZN10chibios_rt7InQueue8getFullIEv
     /tmp/ccq01laD.s:2905   .text._ZN10chibios_rt7InQueue9getEmptyIEv:00000000 $t
     /tmp/ccq01laD.s:2911   .text._ZN10chibios_rt7InQueue9getEmptyIEv:00000000 _ZN10chibios_rt7InQueue9getEmptyIEv
     /tmp/ccq01laD.s:2932   .text._ZN10chibios_rt7InQueue8isEmptyIEv:00000000 $t
     /tmp/ccq01laD.s:2938   .text._ZN10chibios_rt7InQueue8isEmptyIEv:00000000 _ZN10chibios_rt7InQueue8isEmptyIEv
     /tmp/ccq01laD.s:2958   .text._ZN10chibios_rt7InQueue7isFullIEv:00000000 $t
     /tmp/ccq01laD.s:2964   .text._ZN10chibios_rt7InQueue7isFullIEv:00000000 _ZN10chibios_rt7InQueue7isFullIEv
     /tmp/ccq01laD.s:2994   .text._ZN10chibios_rt7InQueue6resetIEv:00000000 $t
     /tmp/ccq01laD.s:3000   .text._ZN10chibios_rt7InQueue6resetIEv:00000000 _ZN10chibios_rt7InQueue6resetIEv
     /tmp/ccq01laD.s:3016   .text._ZN10chibios_rt7InQueue4putIEh:00000000 $t
     /tmp/ccq01laD.s:3022   .text._ZN10chibios_rt7InQueue4putIEh:00000000 _ZN10chibios_rt7InQueue4putIEh
     /tmp/ccq01laD.s:3039   .text._ZN10chibios_rt7InQueue3getEv:00000000 $t
     /tmp/ccq01laD.s:3045   .text._ZN10chibios_rt7InQueue3getEv:00000000 _ZN10chibios_rt7InQueue3getEv
     /tmp/ccq01laD.s:3063   .text._ZN10chibios_rt7InQueue10getTimeoutEm:00000000 $t
     /tmp/ccq01laD.s:3069   .text._ZN10chibios_rt7InQueue10getTimeoutEm:00000000 _ZN10chibios_rt7InQueue10getTimeoutEm
     /tmp/ccq01laD.s:3086   .text._ZN10chibios_rt7InQueue11readTimeoutEPhjm:00000000 $t
     /tmp/ccq01laD.s:3092   .text._ZN10chibios_rt7InQueue11readTimeoutEPhjm:00000000 _ZN10chibios_rt7InQueue11readTimeoutEPhjm
     /tmp/ccq01laD.s:3111   .text._ZN10chibios_rt8OutQueueC2EPhjPFvP12GenericQueueEPv:00000000 $t
     /tmp/ccq01laD.s:3117   .text._ZN10chibios_rt8OutQueueC2EPhjPFvP12GenericQueueEPv:00000000 _ZN10chibios_rt8OutQueueC2EPhjPFvP12GenericQueueEPv
ARM GAS  /tmp/ccq01laD.s 			page 293


     /tmp/ccq01laD.s:3151   .text._ZN10chibios_rt8OutQueue8getFullIEv:00000000 $t
     /tmp/ccq01laD.s:3157   .text._ZN10chibios_rt8OutQueue8getFullIEv:00000000 _ZN10chibios_rt8OutQueue8getFullIEv
     /tmp/ccq01laD.s:3178   .text._ZN10chibios_rt8OutQueue9getEmptyIEv:00000000 $t
     /tmp/ccq01laD.s:3184   .text._ZN10chibios_rt8OutQueue9getEmptyIEv:00000000 _ZN10chibios_rt8OutQueue9getEmptyIEv
     /tmp/ccq01laD.s:3201   .text._ZN10chibios_rt8OutQueue8isEmptyIEv:00000000 $t
     /tmp/ccq01laD.s:3207   .text._ZN10chibios_rt8OutQueue8isEmptyIEv:00000000 _ZN10chibios_rt8OutQueue8isEmptyIEv
     /tmp/ccq01laD.s:3237   .text._ZN10chibios_rt8OutQueue7isFullIEv:00000000 $t
     /tmp/ccq01laD.s:3243   .text._ZN10chibios_rt8OutQueue7isFullIEv:00000000 _ZN10chibios_rt8OutQueue7isFullIEv
     /tmp/ccq01laD.s:3263   .text._ZN10chibios_rt8OutQueue6resetIEv:00000000 $t
     /tmp/ccq01laD.s:3269   .text._ZN10chibios_rt8OutQueue6resetIEv:00000000 _ZN10chibios_rt8OutQueue6resetIEv
     /tmp/ccq01laD.s:3285   .text._ZN10chibios_rt8OutQueue3putEh:00000000 $t
     /tmp/ccq01laD.s:3291   .text._ZN10chibios_rt8OutQueue3putEh:00000000 _ZN10chibios_rt8OutQueue3putEh
     /tmp/ccq01laD.s:3310   .text._ZN10chibios_rt8OutQueue10putTimeoutEhm:00000000 $t
     /tmp/ccq01laD.s:3316   .text._ZN10chibios_rt8OutQueue10putTimeoutEhm:00000000 _ZN10chibios_rt8OutQueue10putTimeoutEhm
     /tmp/ccq01laD.s:3334   .text._ZN10chibios_rt8OutQueue4getIEv:00000000 $t
     /tmp/ccq01laD.s:3340   .text._ZN10chibios_rt8OutQueue4getIEv:00000000 _ZN10chibios_rt8OutQueue4getIEv
     /tmp/ccq01laD.s:3356   .text._ZN10chibios_rt8OutQueue12writeTimeoutEPKhjm:00000000 $t
     /tmp/ccq01laD.s:3362   .text._ZN10chibios_rt8OutQueue12writeTimeoutEPKhjm:00000000 _ZN10chibios_rt8OutQueue12writeTimeoutEPKhjm
     /tmp/ccq01laD.s:3381   .text._ZN10chibios_rt7MailboxC2EPll:00000000 $t
     /tmp/ccq01laD.s:3387   .text._ZN10chibios_rt7MailboxC2EPll:00000000 _ZN10chibios_rt7MailboxC2EPll
     /tmp/ccq01laD.s:3413   .text._ZN10chibios_rt7Mailbox5resetEv:00000000 $t
     /tmp/ccq01laD.s:3419   .text._ZN10chibios_rt7Mailbox5resetEv:00000000 _ZN10chibios_rt7Mailbox5resetEv
     /tmp/ccq01laD.s:3435   .text._ZN10chibios_rt7Mailbox4postElm:00000000 $t
     /tmp/ccq01laD.s:3441   .text._ZN10chibios_rt7Mailbox4postElm:00000000 _ZN10chibios_rt7Mailbox4postElm
     /tmp/ccq01laD.s:3459   .text._ZN10chibios_rt7Mailbox5postSElm:00000000 $t
     /tmp/ccq01laD.s:3465   .text._ZN10chibios_rt7Mailbox5postSElm:00000000 _ZN10chibios_rt7Mailbox5postSElm
     /tmp/ccq01laD.s:3483   .text._ZN10chibios_rt7Mailbox5postIEl:00000000 $t
     /tmp/ccq01laD.s:3489   .text._ZN10chibios_rt7Mailbox5postIEl:00000000 _ZN10chibios_rt7Mailbox5postIEl
     /tmp/ccq01laD.s:3506   .text._ZN10chibios_rt7Mailbox9postAheadElm:00000000 $t
     /tmp/ccq01laD.s:3512   .text._ZN10chibios_rt7Mailbox9postAheadElm:00000000 _ZN10chibios_rt7Mailbox9postAheadElm
     /tmp/ccq01laD.s:3530   .text._ZN10chibios_rt7Mailbox10postAheadSElm:00000000 $t
     /tmp/ccq01laD.s:3536   .text._ZN10chibios_rt7Mailbox10postAheadSElm:00000000 _ZN10chibios_rt7Mailbox10postAheadSElm
     /tmp/ccq01laD.s:3554   .text._ZN10chibios_rt7Mailbox10postAheadIEl:00000000 $t
     /tmp/ccq01laD.s:3560   .text._ZN10chibios_rt7Mailbox10postAheadIEl:00000000 _ZN10chibios_rt7Mailbox10postAheadIEl
     /tmp/ccq01laD.s:3577   .text._ZN10chibios_rt7Mailbox5fetchEPlm:00000000 $t
     /tmp/ccq01laD.s:3583   .text._ZN10chibios_rt7Mailbox5fetchEPlm:00000000 _ZN10chibios_rt7Mailbox5fetchEPlm
     /tmp/ccq01laD.s:3601   .text._ZN10chibios_rt7Mailbox6fetchSEPlm:00000000 $t
     /tmp/ccq01laD.s:3607   .text._ZN10chibios_rt7Mailbox6fetchSEPlm:00000000 _ZN10chibios_rt7Mailbox6fetchSEPlm
     /tmp/ccq01laD.s:3625   .text._ZN10chibios_rt7Mailbox6fetchIEPl:00000000 $t
     /tmp/ccq01laD.s:3631   .text._ZN10chibios_rt7Mailbox6fetchIEPl:00000000 _ZN10chibios_rt7Mailbox6fetchIEPl
     /tmp/ccq01laD.s:3648   .text._ZN10chibios_rt7Mailbox13getFreeCountIEv:00000000 $t
     /tmp/ccq01laD.s:3654   .text._ZN10chibios_rt7Mailbox13getFreeCountIEv:00000000 _ZN10chibios_rt7Mailbox13getFreeCountIEv
     /tmp/ccq01laD.s:3671   .text._ZN10chibios_rt7Mailbox13getUsedCountIEv:00000000 $t
     /tmp/ccq01laD.s:3677   .text._ZN10chibios_rt7Mailbox13getUsedCountIEv:00000000 _ZN10chibios_rt7Mailbox13getUsedCountIEv
     /tmp/ccq01laD.s:3694   .text._ZN10chibios_rt10MemoryPoolC2EjPFPvjE:00000000 $t
     /tmp/ccq01laD.s:3700   .text._ZN10chibios_rt10MemoryPoolC2EjPFPvjE:00000000 _ZN10chibios_rt10MemoryPoolC2EjPFPvjE
     /tmp/ccq01laD.s:3726   .text._ZN10chibios_rt10MemoryPoolC2EjPFPvjES1_j:00000000 $t
     /tmp/ccq01laD.s:3732   .text._ZN10chibios_rt10MemoryPoolC2EjPFPvjES1_j:00000000 _ZN10chibios_rt10MemoryPoolC2EjPFPvjES1_j
     /tmp/ccq01laD.s:3766   .text._ZN10chibios_rt10MemoryPool9loadArrayEPvj:00000000 $t
     /tmp/ccq01laD.s:3772   .text._ZN10chibios_rt10MemoryPool9loadArrayEPvj:00000000 _ZN10chibios_rt10MemoryPool9loadArrayEPvj
     /tmp/ccq01laD.s:3790   .text._ZN10chibios_rt10MemoryPool6allocIEv:00000000 $t
     /tmp/ccq01laD.s:3796   .text._ZN10chibios_rt10MemoryPool6allocIEv:00000000 _ZN10chibios_rt10MemoryPool6allocIEv
     /tmp/ccq01laD.s:3812   .text._ZN10chibios_rt10MemoryPool5allocEv:00000000 $t
     /tmp/ccq01laD.s:3818   .text._ZN10chibios_rt10MemoryPool5allocEv:00000000 _ZN10chibios_rt10MemoryPool5allocEv
     /tmp/ccq01laD.s:3834   .text._ZN10chibios_rt10MemoryPool4freeEPv:00000000 $t
     /tmp/ccq01laD.s:3840   .text._ZN10chibios_rt10MemoryPool4freeEPv:00000000 _ZN10chibios_rt10MemoryPool4freeEPv
     /tmp/ccq01laD.s:3857   .text._ZN10chibios_rt10MemoryPool5freeIEPv:00000000 $t
ARM GAS  /tmp/ccq01laD.s 			page 294


     /tmp/ccq01laD.s:3863   .text._ZN10chibios_rt10MemoryPool5freeIEPv:00000000 _ZN10chibios_rt10MemoryPool5freeIEPv
     /tmp/ccq01laD.s:3946   .rodata._ZTVN10chibios_rt15ThreadReferenceE:00000000 _ZTVN10chibios_rt15ThreadReferenceE
     /tmp/ccq01laD.s:3908   .rodata._ZTVN10chibios_rt10BaseThreadE:00000000 _ZTVN10chibios_rt10BaseThreadE
     /tmp/ccq01laD.s:1194   .text._ZN10chibios_rt10BaseThreadC2Ev:00000000 _ZN10chibios_rt10BaseThreadC1Ev
     /tmp/ccq01laD.s:1753   .text._ZN10chibios_rt16CounterSemaphoreC2El:00000000 _ZN10chibios_rt16CounterSemaphoreC1El
     /tmp/ccq01laD.s:2034   .text._ZN10chibios_rt15BinarySemaphoreC2Eb:00000000 _ZN10chibios_rt15BinarySemaphoreC1Eb
     /tmp/ccq01laD.s:2353   .text._ZN10chibios_rt5MutexC2Ev:00000000 _ZN10chibios_rt5MutexC1Ev
     /tmp/ccq01laD.s:2473   .text._ZN10chibios_rt7CondVarC2Ev:00000000 _ZN10chibios_rt7CondVarC1Ev
     /tmp/ccq01laD.s:2704   .text._ZN10chibios_rt9EvtSourceC2Ev:00000000 _ZN10chibios_rt9EvtSourceC1Ev
     /tmp/ccq01laD.s:2848   .text._ZN10chibios_rt7InQueueC2EPhjPFvP12GenericQueueEPv:00000000 _ZN10chibios_rt7InQueueC1EPhjPFvP12GenericQueueEPv
     /tmp/ccq01laD.s:3117   .text._ZN10chibios_rt8OutQueueC2EPhjPFvP12GenericQueueEPv:00000000 _ZN10chibios_rt8OutQueueC1EPhjPFvP12GenericQueueEPv
     /tmp/ccq01laD.s:3387   .text._ZN10chibios_rt7MailboxC2EPll:00000000 _ZN10chibios_rt7MailboxC1EPll
     /tmp/ccq01laD.s:3700   .text._ZN10chibios_rt10MemoryPoolC2EjPFPvjE:00000000 _ZN10chibios_rt10MemoryPoolC1EjPFPvjE
     /tmp/ccq01laD.s:3732   .text._ZN10chibios_rt10MemoryPoolC2EjPFPvjES1_j:00000000 _ZN10chibios_rt10MemoryPoolC1EjPFPvjES1_j
     /tmp/ccq01laD.s:3904   .rodata._ZTVN10chibios_rt10BaseThreadE:00000000 $d
     /tmp/ccq01laD.s:3915   .rodata.str1.4:00000000 $d
     /tmp/ccq01laD.s:3942   .rodata._ZTVN10chibios_rt15ThreadReferenceE:00000000 $d
                     .debug_frame:00000010 $d
     /tmp/ccq01laD.s:600    .text._ZN10chibios_rt15ThreadReference8suspendSEv:00000028 $t
     /tmp/ccq01laD.s:693    .text._ZN10chibios_rt15ThreadReference6resumeEl:0000003c $t
     /tmp/ccq01laD.s:772    .text._ZN10chibios_rt15ThreadReference7resumeIEl:00000034 $t
     /tmp/ccq01laD.s:873    .text._ZN10chibios_rt15ThreadReference4waitEv:00000028 $t
     /tmp/ccq01laD.s:926    .text._ZN10chibios_rt15ThreadReference11sendMessageEl:00000028 $t
     /tmp/ccq01laD.s:981    .text._ZN10chibios_rt15ThreadReference16isPendingMessageEv:0000002c $t
     /tmp/ccq01laD.s:1028   .text._ZN10chibios_rt15ThreadReference10getMessageEv:0000001c $t
     /tmp/ccq01laD.s:1081   .text._ZN10chibios_rt15ThreadReference14releaseMessageEl:00000028 $t
     /tmp/ccq01laD.s:1134   .text._ZN10chibios_rt15ThreadReference12signalEventsEm:00000028 $t
     /tmp/ccq01laD.s:1187   .text._ZN10chibios_rt15ThreadReference13signalEventsIEm:00000028 $t
     /tmp/ccq01laD.s:1484   .text._ZN10chibios_rt10BaseThread11waitMessageEv:00000018 $t

UNDEFINED SYMBOLS
chDbgPanic
chSysInit
dbg_check_lock
dbg_check_unlock
dbg_check_lock_from_isr
dbg_check_unlock_from_isr
vtlist
chTimeIsWithin
chCoreAlloc
chCoreAllocI
chCoreStatus
chVTSetI
chVTResetI
chSchGoSleepS
rlist
chSchWakeupS
chSchReadyI
chThdTerminate
chThdWait
chMsgSend
chMsgRelease
chEvtSignal
chEvtSignalI
chThdSetPriority
chThdExit
chThdExitS
ARM GAS  /tmp/ccq01laD.s 			page 295


chThdSleep
chThdSleepUntil
chThdYield
chMsgWait
chEvtGetAndClearEvents
chEvtAddEvents
chEvtWaitOne
chEvtWaitAny
chEvtWaitAll
chEvtWaitOneTimeout
chEvtWaitAnyTimeout
chEvtWaitAllTimeout
chEvtDispatch
chMtxUnlock
chMtxUnlockS
chMtxUnlockAll
chSemInit
chSemReset
chSemResetI
chSemWait
chSemWaitS
chSemWaitTimeout
chSemWaitTimeoutS
chSemSignal
chSemSignalI
chSemAddCounterI
chSemSignalWait
chSchRescheduleS
chMtxInit
chMtxTryLock
chMtxTryLockS
chMtxLock
chMtxLockS
chCondInit
chCondSignal
chCondSignalI
chCondBroadcast
chCondBroadcastI
chCondWait
chCondWaitS
chCondWaitTimeout
chEvtGetAndClearFlags
chEvtGetAndClearFlagsI
chEvtRegisterMask
chEvtUnregister
chEvtBroadcastFlags
chEvtBroadcastFlagsI
chIQInit
chIQResetI
chIQPutI
chIQGetTimeout
chIQReadTimeout
chOQInit
chOQResetI
chOQPutTimeout
chOQGetI
chOQWriteTimeout
ARM GAS  /tmp/ccq01laD.s 			page 296


chMBInit
chMBReset
chMBPost
chMBPostS
chMBPostI
chMBPostAhead
chMBPostAheadS
chMBPostAheadI
chMBFetch
chMBFetchS
chMBFetchI
chPoolInit
chPoolLoadArray
chPoolAllocI
chPoolAlloc
chPoolFree
chPoolFreeI
