ARM GAS  /tmp/ccq01laD.s 			page 1


   1              		.syntax unified
   2              		.cpu cortex-m3
   3              		.fpu softvfp
   4              		.eabi_attribute 20, 1
   5              		.eabi_attribute 21, 1
   6              		.eabi_attribute 23, 3
   7              		.eabi_attribute 24, 1
   8              		.eabi_attribute 25, 1
   9              		.eabi_attribute 26, 1
  10              		.eabi_attribute 30, 2
  11              		.eabi_attribute 34, 1
  12              		.eabi_attribute 18, 4
  13              		.thumb
  14              		.file	"ch.cpp"
  15              		.text
  16              	.Ltext0:
  17              		.cfi_sections	.debug_frame
  18              		.section	.text.startup._ZN10chibios_rt10BaseThread4mainEv,"ax",%progbits
  19              		.align	2
  20              		.p2align 4,,15
  21              		.global	_ZN10chibios_rt10BaseThread4mainEv
  22              		.thumb
  23              		.thumb_func
  24              		.type	_ZN10chibios_rt10BaseThread4mainEv, %function
  25              	_ZN10chibios_rt10BaseThread4mainEv:
  26              	.LFB45:
  27              		.file 1 "../../ChibiOS/os/various/cpp_wrappers/ch.cpp"
  28              		.loc 1 261 0
  29              		.cfi_startproc
  30              		@ args = 0, pretend = 0, frame = 0
  31              		@ frame_needed = 0, uses_anonymous_args = 0
  32              		@ link register save eliminated.
  33              	.LVL0:
  34              		.loc 1 264 0
  35 0000 0020     		movs	r0, #0
  36              	.LVL1:
  37 0002 7047     		bx	lr
  38              		.cfi_endproc
  39              	.LFE45:
  40              		.size	_ZN10chibios_rt10BaseThread4mainEv, .-_ZN10chibios_rt10BaseThread4mainEv
  41 0004 AFF30080 		.section	.text._ZN10chibios_rt10BaseThread5startEm,"ax",%progbits
  41      AFF30080 
  41      AFF30080 
  42              		.align	2
  43              		.p2align 4,,15
  44              		.global	_ZN10chibios_rt10BaseThread5startEm
  45              		.thumb
  46              		.thumb_func
  47              		.type	_ZN10chibios_rt10BaseThread5startEm, %function
  48              	_ZN10chibios_rt10BaseThread5startEm:
  49              	.LFB46:
  50              		.loc 1 266 0
  51              		.cfi_startproc
  52              		@ args = 0, pretend = 0, frame = 0
  53              		@ frame_needed = 0, uses_anonymous_args = 0
  54              		@ link register save eliminated.
  55              	.LVL2:
ARM GAS  /tmp/ccq01laD.s 			page 2


  56              	.LBB13:
  57              	.LBB14:
  58              	.LBB15:
  59              		.file 2 "../../ChibiOS/os/various/cpp_wrappers/ch.hpp"
  60              		.loc 2 234 0
  61 0000 4B68     		ldr	r3, [r1, #4]
  62              	.LVL3:
  63 0002 024A     		ldr	r2, .L4
  64              	.LVL4:
  65 0004 80E80C00 		stmia	r0, {r2, r3}
  66              	.LBE15:
  67              	.LBE14:
  68              	.LBE13:
  69              		.loc 1 271 0
  70 0008 7047     		bx	lr
  71              	.L5:
  72 000a 00BF     		.align	2
  73              	.L4:
  74 000c 08000000 		.word	.LANCHOR0+8
  75              		.cfi_endproc
  76              	.LFE46:
  77              		.size	_ZN10chibios_rt10BaseThread5startEm, .-_ZN10chibios_rt10BaseThread5startEm
  78              		.section	.text._ZN10chibios_rt15ThreadReference4stopEv,"ax",%progbits
  79              		.align	2
  80              		.p2align 4,,15
  81              		.global	_ZN10chibios_rt15ThreadReference4stopEv
  82              		.thumb
  83              		.thumb_func
  84              		.type	_ZN10chibios_rt15ThreadReference4stopEv, %function
  85              	_ZN10chibios_rt15ThreadReference4stopEv:
  86              	.LFB29:
  87              		.loc 1 107 0
  88              		.cfi_startproc
  89              		@ args = 0, pretend = 0, frame = 0
  90              		@ frame_needed = 0, uses_anonymous_args = 0
  91              		@ link register save eliminated.
  92              	.LVL5:
  93              		.loc 1 109 0
  94 0000 40F20000 		movw	r0, #:lower16:.LC0
  95              	.LVL6:
  96 0004 C0F20000 		movt	r0, #:upper16:.LC0
  97              		.loc 1 110 0
  98              		.loc 1 109 0
  99 0008 FFF7FEBF 		b	chDbgPanic
 100              		.cfi_endproc
 101              	.LFE29:
 102              		.size	_ZN10chibios_rt15ThreadReference4stopEv, .-_ZN10chibios_rt15ThreadReference4stopEv
 103 000c AFF30080 		.section	.text._ZN10chibios_rt6System4initEv,"ax",%progbits
 104              		.align	2
 105              		.p2align 4,,15
 106              		.global	_ZN10chibios_rt6System4initEv
 107              		.thumb
 108              		.thumb_func
 109              		.type	_ZN10chibios_rt6System4initEv, %function
 110              	_ZN10chibios_rt6System4initEv:
 111              	.LFB16:
 112              		.loc 1 31 0
ARM GAS  /tmp/ccq01laD.s 			page 3


 113              		.cfi_startproc
 114              		@ args = 0, pretend = 0, frame = 0
 115              		@ frame_needed = 0, uses_anonymous_args = 0
 116              		@ link register save eliminated.
 117              		.loc 1 34 0
 118              		.loc 1 33 0
 119 0000 FFF7FEBF 		b	chSysInit
 120              		.cfi_endproc
 121              	.LFE16:
 122              		.size	_ZN10chibios_rt6System4initEv, .-_ZN10chibios_rt6System4initEv
 123 0004 AFF30080 		.section	.text._ZN10chibios_rt6System4lockEv,"ax",%progbits
 123      AFF30080 
 123      AFF30080 
 124              		.align	2
 125              		.p2align 4,,15
 126              		.global	_ZN10chibios_rt6System4lockEv
 127              		.thumb
 128              		.thumb_func
 129              		.type	_ZN10chibios_rt6System4lockEv, %function
 130              	_ZN10chibios_rt6System4lockEv:
 131              	.LFB17:
 132              		.loc 1 36 0
 133              		.cfi_startproc
 134              		@ args = 0, pretend = 0, frame = 0
 135              		@ frame_needed = 0, uses_anonymous_args = 0
 136              		@ link register save eliminated.
 137              	.LBB16:
 138              	.LBB17:
 139              		.loc 1 38 0
 140 0000 2023     		movs	r3, #32
 141              	.LVL7:
 142              	@ 38 "../../ChibiOS/os/various/cpp_wrappers/ch.cpp" 1
 143 0002 83F31188 		msr     BASEPRI, r3
 144              	@ 0 "" 2
 145              	.LVL8:
 146              		.thumb
 147              	.LBE17:
 148              	.LBE16:
 149              		.loc 1 39 0
 150              	.LBB18:
 151              		.loc 1 38 0
 152 0006 FFF7FEBF 		b	dbg_check_lock
 153              	.LVL9:
 154              	.LBE18:
 155              		.cfi_endproc
 156              	.LFE17:
 157              		.size	_ZN10chibios_rt6System4lockEv, .-_ZN10chibios_rt6System4lockEv
 158 000a 00BFAFF3 		.section	.text._ZN10chibios_rt6System6unlockEv,"ax",%progbits
 158      0080
 159              		.align	2
 160              		.p2align 4,,15
 161              		.global	_ZN10chibios_rt6System6unlockEv
 162              		.thumb
 163              		.thumb_func
 164              		.type	_ZN10chibios_rt6System6unlockEv, %function
 165              	_ZN10chibios_rt6System6unlockEv:
 166              	.LFB18:
ARM GAS  /tmp/ccq01laD.s 			page 4


 167              		.loc 1 41 0
 168              		.cfi_startproc
 169              		@ args = 0, pretend = 0, frame = 0
 170              		@ frame_needed = 0, uses_anonymous_args = 0
 171 0000 08B5     		push	{r3, lr}
 172              	.LCFI0:
 173              		.cfi_def_cfa_offset 8
 174              		.cfi_offset 14, -4
 175              		.cfi_offset 3, -8
 176              	.LBB19:
 177              		.loc 1 43 0
 178 0002 FFF7FEFF 		bl	dbg_check_unlock
 179              	.LBB20:
 180 0006 0023     		movs	r3, #0
 181              	.LVL10:
 182              	@ 43 "../../ChibiOS/os/various/cpp_wrappers/ch.cpp" 1
 183 0008 83F31188 		msr     BASEPRI, r3
 184              	@ 0 "" 2
 185              	.LVL11:
 186              		.thumb
 187              	.LBE20:
 188              	.LBE19:
 189              		.loc 1 44 0
 190 000c 08BD     		pop	{r3, pc}
 191              		.cfi_endproc
 192              	.LFE18:
 193              		.size	_ZN10chibios_rt6System6unlockEv, .-_ZN10chibios_rt6System6unlockEv
 194 000e 00BF     		.section	.text._ZN10chibios_rt6System11lockFromIsrEv,"ax",%progbits
 195              		.align	2
 196              		.p2align 4,,15
 197              		.global	_ZN10chibios_rt6System11lockFromIsrEv
 198              		.thumb
 199              		.thumb_func
 200              		.type	_ZN10chibios_rt6System11lockFromIsrEv, %function
 201              	_ZN10chibios_rt6System11lockFromIsrEv:
 202              	.LFB19:
 203              		.loc 1 46 0
 204              		.cfi_startproc
 205              		@ args = 0, pretend = 0, frame = 0
 206              		@ frame_needed = 0, uses_anonymous_args = 0
 207              		@ link register save eliminated.
 208              	.LBB21:
 209              	.LBB22:
 210              		.loc 1 48 0
 211 0000 2023     		movs	r3, #32
 212              	.LVL12:
 213              	@ 48 "../../ChibiOS/os/various/cpp_wrappers/ch.cpp" 1
 214 0002 83F31188 		msr     BASEPRI, r3
 215              	@ 0 "" 2
 216              	.LVL13:
 217              		.thumb
 218              	.LBE22:
 219              	.LBE21:
 220              		.loc 1 49 0
 221              	.LBB23:
 222              		.loc 1 48 0
 223 0006 FFF7FEBF 		b	dbg_check_lock_from_isr
ARM GAS  /tmp/ccq01laD.s 			page 5


 224              	.LVL14:
 225              	.LBE23:
 226              		.cfi_endproc
 227              	.LFE19:
 228              		.size	_ZN10chibios_rt6System11lockFromIsrEv, .-_ZN10chibios_rt6System11lockFromIsrEv
 229 000a 00BFAFF3 		.section	.text._ZN10chibios_rt6System13unlockFromIsrEv,"ax",%progbits
 229      0080
 230              		.align	2
 231              		.p2align 4,,15
 232              		.global	_ZN10chibios_rt6System13unlockFromIsrEv
 233              		.thumb
 234              		.thumb_func
 235              		.type	_ZN10chibios_rt6System13unlockFromIsrEv, %function
 236              	_ZN10chibios_rt6System13unlockFromIsrEv:
 237              	.LFB20:
 238              		.loc 1 51 0
 239              		.cfi_startproc
 240              		@ args = 0, pretend = 0, frame = 0
 241              		@ frame_needed = 0, uses_anonymous_args = 0
 242 0000 08B5     		push	{r3, lr}
 243              	.LCFI1:
 244              		.cfi_def_cfa_offset 8
 245              		.cfi_offset 14, -4
 246              		.cfi_offset 3, -8
 247              	.LBB24:
 248              		.loc 1 53 0
 249 0002 FFF7FEFF 		bl	dbg_check_unlock_from_isr
 250              	.LBB25:
 251 0006 0023     		movs	r3, #0
 252              	.LVL15:
 253              	@ 53 "../../ChibiOS/os/various/cpp_wrappers/ch.cpp" 1
 254 0008 83F31188 		msr     BASEPRI, r3
 255              	@ 0 "" 2
 256              	.LVL16:
 257              		.thumb
 258              	.LBE25:
 259              	.LBE24:
 260              		.loc 1 54 0
 261 000c 08BD     		pop	{r3, pc}
 262              		.cfi_endproc
 263              	.LFE20:
 264              		.size	_ZN10chibios_rt6System13unlockFromIsrEv, .-_ZN10chibios_rt6System13unlockFromIsrEv
 265 000e 00BF     		.section	.text._ZN10chibios_rt6System7getTimeEv,"ax",%progbits
 266              		.align	2
 267              		.p2align 4,,15
 268              		.global	_ZN10chibios_rt6System7getTimeEv
 269              		.thumb
 270              		.thumb_func
 271              		.type	_ZN10chibios_rt6System7getTimeEv, %function
 272              	_ZN10chibios_rt6System7getTimeEv:
 273              	.LFB21:
 274              		.loc 1 56 0
 275              		.cfi_startproc
 276              		@ args = 0, pretend = 0, frame = 0
 277              		@ frame_needed = 0, uses_anonymous_args = 0
 278              		@ link register save eliminated.
 279              		.loc 1 58 0
ARM GAS  /tmp/ccq01laD.s 			page 6


 280 0000 40F20003 		movw	r3, #:lower16:vtlist
 281 0004 C0F20003 		movt	r3, #:upper16:vtlist
 282 0008 D868     		ldr	r0, [r3, #12]
 283              		.loc 1 59 0
 284 000a 7047     		bx	lr
 285              		.cfi_endproc
 286              	.LFE21:
 287              		.size	_ZN10chibios_rt6System7getTimeEv, .-_ZN10chibios_rt6System7getTimeEv
 288 000c AFF30080 		.section	.text._ZN10chibios_rt6System12isTimeWithinEmm,"ax",%progbits
 289              		.align	2
 290              		.p2align 4,,15
 291              		.global	_ZN10chibios_rt6System12isTimeWithinEmm
 292              		.thumb
 293              		.thumb_func
 294              		.type	_ZN10chibios_rt6System12isTimeWithinEmm, %function
 295              	_ZN10chibios_rt6System12isTimeWithinEmm:
 296              	.LFB22:
 297              		.loc 1 61 0
 298              		.cfi_startproc
 299              		@ args = 0, pretend = 0, frame = 0
 300              		@ frame_needed = 0, uses_anonymous_args = 0
 301              		@ link register save eliminated.
 302              	.LVL17:
 303              		.loc 1 64 0
 304              		.loc 1 63 0
 305 0000 FFF7FEBF 		b	chTimeIsWithin
 306              	.LVL18:
 307              	.LVL19:
 308              		.cfi_endproc
 309              	.LFE22:
 310              		.size	_ZN10chibios_rt6System12isTimeWithinEmm, .-_ZN10chibios_rt6System12isTimeWithinEmm
 311 0004 AFF30080 		.section	.text._ZN10chibios_rt4Core5allocEj,"ax",%progbits
 311      AFF30080 
 311      AFF30080 
 312              		.align	2
 313              		.p2align 4,,15
 314              		.global	_ZN10chibios_rt4Core5allocEj
 315              		.thumb
 316              		.thumb_func
 317              		.type	_ZN10chibios_rt4Core5allocEj, %function
 318              	_ZN10chibios_rt4Core5allocEj:
 319              	.LFB23:
 320              		.loc 1 69 0
 321              		.cfi_startproc
 322              		@ args = 0, pretend = 0, frame = 0
 323              		@ frame_needed = 0, uses_anonymous_args = 0
 324              		@ link register save eliminated.
 325              	.LVL20:
 326              		.loc 1 72 0
 327              		.loc 1 71 0
 328 0000 FFF7FEBF 		b	chCoreAlloc
 329              	.LVL21:
 330              		.cfi_endproc
 331              	.LFE23:
 332              		.size	_ZN10chibios_rt4Core5allocEj, .-_ZN10chibios_rt4Core5allocEj
 333 0004 AFF30080 		.section	.text._ZN10chibios_rt4Core6allocIEj,"ax",%progbits
 333      AFF30080 
ARM GAS  /tmp/ccq01laD.s 			page 7


 333      AFF30080 
 334              		.align	2
 335              		.p2align 4,,15
 336              		.global	_ZN10chibios_rt4Core6allocIEj
 337              		.thumb
 338              		.thumb_func
 339              		.type	_ZN10chibios_rt4Core6allocIEj, %function
 340              	_ZN10chibios_rt4Core6allocIEj:
 341              	.LFB24:
 342              		.loc 1 74 0
 343              		.cfi_startproc
 344              		@ args = 0, pretend = 0, frame = 0
 345              		@ frame_needed = 0, uses_anonymous_args = 0
 346              		@ link register save eliminated.
 347              	.LVL22:
 348              		.loc 1 77 0
 349              		.loc 1 76 0
 350 0000 FFF7FEBF 		b	chCoreAllocI
 351              	.LVL23:
 352              		.cfi_endproc
 353              	.LFE24:
 354              		.size	_ZN10chibios_rt4Core6allocIEj, .-_ZN10chibios_rt4Core6allocIEj
 355 0004 AFF30080 		.section	.text._ZN10chibios_rt4Core9getStatusEv,"ax",%progbits
 355      AFF30080 
 355      AFF30080 
 356              		.align	2
 357              		.p2align 4,,15
 358              		.global	_ZN10chibios_rt4Core9getStatusEv
 359              		.thumb
 360              		.thumb_func
 361              		.type	_ZN10chibios_rt4Core9getStatusEv, %function
 362              	_ZN10chibios_rt4Core9getStatusEv:
 363              	.LFB25:
 364              		.loc 1 79 0
 365              		.cfi_startproc
 366              		@ args = 0, pretend = 0, frame = 0
 367              		@ frame_needed = 0, uses_anonymous_args = 0
 368              		@ link register save eliminated.
 369              		.loc 1 82 0
 370              		.loc 1 81 0
 371 0000 FFF7FEBF 		b	chCoreStatus
 372              		.cfi_endproc
 373              	.LFE25:
 374              		.size	_ZN10chibios_rt4Core9getStatusEv, .-_ZN10chibios_rt4Core9getStatusEv
 375 0004 AFF30080 		.section	.text._ZN10chibios_rt5Timer4setIEmPFvPvES1_,"ax",%progbits
 375      AFF30080 
 375      AFF30080 
 376              		.align	2
 377              		.p2align 4,,15
 378              		.global	_ZN10chibios_rt5Timer4setIEmPFvPvES1_
 379              		.thumb
 380              		.thumb_func
 381              		.type	_ZN10chibios_rt5Timer4setIEmPFvPvES1_, %function
 382              	_ZN10chibios_rt5Timer4setIEmPFvPvES1_:
 383              	.LFB26:
 384              		.loc 1 87 0
 385              		.cfi_startproc
ARM GAS  /tmp/ccq01laD.s 			page 8


 386              		@ args = 0, pretend = 0, frame = 0
 387              		@ frame_needed = 0, uses_anonymous_args = 0
 388              		@ link register save eliminated.
 389              	.LVL24:
 390              		.loc 1 90 0
 391              		.loc 1 89 0
 392 0000 FFF7FEBF 		b	chVTSetI
 393              	.LVL25:
 394              	.LVL26:
 395              	.LVL27:
 396              	.LVL28:
 397              		.cfi_endproc
 398              	.LFE26:
 399              		.size	_ZN10chibios_rt5Timer4setIEmPFvPvES1_, .-_ZN10chibios_rt5Timer4setIEmPFvPvES1_
 400 0004 AFF30080 		.section	.text._ZN10chibios_rt5Timer6resetIEv,"ax",%progbits
 400      AFF30080 
 400      AFF30080 
 401              		.align	2
 402              		.p2align 4,,15
 403              		.global	_ZN10chibios_rt5Timer6resetIEv
 404              		.thumb
 405              		.thumb_func
 406              		.type	_ZN10chibios_rt5Timer6resetIEv, %function
 407              	_ZN10chibios_rt5Timer6resetIEv:
 408              	.LFB27:
 409              		.loc 1 92 0
 410              		.cfi_startproc
 411              		@ args = 0, pretend = 0, frame = 0
 412              		@ frame_needed = 0, uses_anonymous_args = 0
 413              		@ link register save eliminated.
 414              	.LVL29:
 415              		.loc 1 94 0
 416 0000 C368     		ldr	r3, [r0, #12]
 417 0002 0BB1     		cbz	r3, .L18
 418              		.loc 1 96 0
 419              		.loc 1 95 0
 420 0004 FFF7FEBF 		b	chVTResetI
 421              	.LVL30:
 422              	.L18:
 423 0008 7047     		bx	lr
 424              		.cfi_endproc
 425              	.LFE27:
 426              		.size	_ZN10chibios_rt5Timer6resetIEv, .-_ZN10chibios_rt5Timer6resetIEv
 427 000a 00BFAFF3 		.section	.text._ZN10chibios_rt5Timer8isArmedIEv,"ax",%progbits
 427      0080
 428              		.align	2
 429              		.p2align 4,,15
 430              		.global	_ZN10chibios_rt5Timer8isArmedIEv
 431              		.thumb
 432              		.thumb_func
 433              		.type	_ZN10chibios_rt5Timer8isArmedIEv, %function
 434              	_ZN10chibios_rt5Timer8isArmedIEv:
 435              	.LFB28:
 436              		.loc 1 98 0
 437              		.cfi_startproc
 438              		@ args = 0, pretend = 0, frame = 0
 439              		@ frame_needed = 0, uses_anonymous_args = 0
ARM GAS  /tmp/ccq01laD.s 			page 9


 440              		@ link register save eliminated.
 441              	.LVL31:
 442              		.loc 1 100 0
 443 0000 C068     		ldr	r0, [r0, #12]
 444              	.LVL32:
 445 0002 0030     		adds	r0, r0, #0
 446 0004 18BF     		it	ne
 447 0006 0120     		movne	r0, #1
 448              		.loc 1 101 0
 449 0008 7047     		bx	lr
 450              		.cfi_endproc
 451              	.LFE28:
 452              		.size	_ZN10chibios_rt5Timer8isArmedIEv, .-_ZN10chibios_rt5Timer8isArmedIEv
 453 000a 00BFAFF3 		.section	.text._ZN10chibios_rt15ThreadReference7suspendEv,"ax",%progbits
 453      0080
 454              		.align	2
 455              		.p2align 4,,15
 456              		.global	_ZN10chibios_rt15ThreadReference7suspendEv
 457              		.thumb
 458              		.thumb_func
 459              		.type	_ZN10chibios_rt15ThreadReference7suspendEv, %function
 460              	_ZN10chibios_rt15ThreadReference7suspendEv:
 461              	.LFB30:
 462              		.loc 1 112 0
 463              		.cfi_startproc
 464              		@ args = 0, pretend = 0, frame = 0
 465              		@ frame_needed = 0, uses_anonymous_args = 0
 466              	.LVL33:
 467 0000 10B5     		push	{r4, lr}
 468              	.LCFI2:
 469              		.cfi_def_cfa_offset 8
 470              		.cfi_offset 14, -4
 471              		.cfi_offset 4, -8
 472              	.LBB26:
 473              	.LBB27:
 474              	.LBB28:
 475              		.loc 1 115 0
 476 0002 2023     		movs	r3, #32
 477              	.LVL34:
 478              	.LBE28:
 479              	.LBE27:
 480              	.LBE26:
 481              		.loc 1 112 0
 482 0004 0446     		mov	r4, r0
 483              	.LBB33:
 484              	.LBB30:
 485              	.LBB29:
 486              		.loc 1 115 0
 487              	@ 115 "../../ChibiOS/os/various/cpp_wrappers/ch.cpp" 1
 488 0006 83F31188 		msr     BASEPRI, r3
 489              	@ 0 "" 2
 490              	.LVL35:
 491              		.thumb
 492              	.LBE29:
 493 000a FFF7FEFF 		bl	dbg_check_lock
 494              	.LVL36:
 495              	.LBE30:
ARM GAS  /tmp/ccq01laD.s 			page 10


 496              		.loc 1 117 0
 497 000e 6368     		ldr	r3, [r4, #4]
 498 0010 73B1     		cbz	r3, .L24
 499              	.L23:
 500              		.loc 1 121 0
 501 0012 094A     		ldr	r2, .L25
 502              		.loc 1 122 0
 503 0014 0220     		movs	r0, #2
 504              		.loc 1 121 0
 505 0016 9169     		ldr	r1, [r2, #24]
 506 0018 6160     		str	r1, [r4, #4]
 507              		.loc 1 122 0
 508 001a FFF7FEFF 		bl	chSchGoSleepS
 509              		.loc 1 123 0
 510 001e 6068     		ldr	r0, [r4, #4]
 511 0020 846A     		ldr	r4, [r0, #40]
 512              	.LVL37:
 513              	.LBB31:
 514              		.loc 1 125 0
 515 0022 FFF7FEFF 		bl	dbg_check_unlock
 516              	.LVL38:
 517              	.LBB32:
 518 0026 0023     		movs	r3, #0
 519              	.LVL39:
 520              	@ 125 "../../ChibiOS/os/various/cpp_wrappers/ch.cpp" 1
 521 0028 83F31188 		msr     BASEPRI, r3
 522              	@ 0 "" 2
 523              	.LVL40:
 524              		.thumb
 525              	.LBE32:
 526              	.LBE31:
 527              	.LBE33:
 528              		.loc 1 127 0
 529 002c 2046     		mov	r0, r4
 530 002e 10BD     		pop	{r4, pc}
 531              	.LVL41:
 532              	.L24:
 533              	.LBB34:
 534              		.loc 1 117 0 discriminator 1
 535 0030 0248     		ldr	r0, .L25+4
 536 0032 FFF7FEFF 		bl	chDbgPanic
 537 0036 ECE7     		b	.L23
 538              	.L26:
 539              		.align	2
 540              	.L25:
 541 0038 00000000 		.word	rlist
 542 003c 24000000 		.word	.LC1
 543              	.LBE34:
 544              		.cfi_endproc
 545              	.LFE30:
 546              		.size	_ZN10chibios_rt15ThreadReference7suspendEv, .-_ZN10chibios_rt15ThreadReference7suspendEv
 547              		.section	.text._ZN10chibios_rt15ThreadReference8suspendSEv,"ax",%progbits
 548              		.align	2
 549              		.p2align 4,,15
 550              		.global	_ZN10chibios_rt15ThreadReference8suspendSEv
 551              		.thumb
 552              		.thumb_func
ARM GAS  /tmp/ccq01laD.s 			page 11


 553              		.type	_ZN10chibios_rt15ThreadReference8suspendSEv, %function
 554              	_ZN10chibios_rt15ThreadReference8suspendSEv:
 555              	.LFB31:
 556              		.loc 1 129 0
 557              		.cfi_startproc
 558              		@ args = 0, pretend = 0, frame = 0
 559              		@ frame_needed = 0, uses_anonymous_args = 0
 560              	.LVL42:
 561              		.loc 1 131 0
 562 0000 4368     		ldr	r3, [r0, #4]
 563              		.loc 1 129 0
 564 0002 10B5     		push	{r4, lr}
 565              	.LCFI3:
 566              		.cfi_def_cfa_offset 8
 567              		.cfi_offset 14, -4
 568              		.cfi_offset 4, -8
 569              		.loc 1 129 0
 570 0004 0446     		mov	r4, r0
 571              		.loc 1 131 0
 572 0006 13B1     		cbz	r3, .L28
 573              		.loc 1 131 0 is_stmt 0 discriminator 1
 574 0008 0548     		ldr	r0, .L29
 575              	.LVL43:
 576 000a FFF7FEFF 		bl	chDbgPanic
 577              	.L28:
 578              		.loc 1 135 0 is_stmt 1
 579 000e 054A     		ldr	r2, .L29+4
 580              		.loc 1 136 0
 581 0010 0220     		movs	r0, #2
 582              		.loc 1 135 0
 583 0012 9169     		ldr	r1, [r2, #24]
 584 0014 6160     		str	r1, [r4, #4]
 585              		.loc 1 136 0
 586 0016 FFF7FEFF 		bl	chSchGoSleepS
 587              		.loc 1 137 0
 588 001a 6068     		ldr	r0, [r4, #4]
 589 001c 806A     		ldr	r0, [r0, #40]
 590              		.loc 1 138 0
 591 001e 10BD     		pop	{r4, pc}
 592              	.L30:
 593              		.align	2
 594              	.L29:
 595 0020 38000000 		.word	.LC2
 596 0024 00000000 		.word	rlist
 597              		.cfi_endproc
 598              	.LFE31:
 599              		.size	_ZN10chibios_rt15ThreadReference8suspendSEv, .-_ZN10chibios_rt15ThreadReference8suspendSEv
 600 0028 AFF30080 		.section	.text._ZN10chibios_rt15ThreadReference6resumeEl,"ax",%progbits
 600      AFF30080 
 601              		.align	2
 602              		.p2align 4,,15
 603              		.global	_ZN10chibios_rt15ThreadReference6resumeEl
 604              		.thumb
 605              		.thumb_func
 606              		.type	_ZN10chibios_rt15ThreadReference6resumeEl, %function
 607              	_ZN10chibios_rt15ThreadReference6resumeEl:
 608              	.LFB32:
ARM GAS  /tmp/ccq01laD.s 			page 12


 609              		.loc 1 140 0
 610              		.cfi_startproc
 611              		@ args = 0, pretend = 0, frame = 0
 612              		@ frame_needed = 0, uses_anonymous_args = 0
 613              	.LVL44:
 614 0000 38B5     		push	{r3, r4, r5, lr}
 615              	.LCFI4:
 616              		.cfi_def_cfa_offset 16
 617              		.cfi_offset 14, -4
 618              		.cfi_offset 5, -8
 619              		.cfi_offset 4, -12
 620              		.cfi_offset 3, -16
 621              		.loc 1 140 0
 622 0002 0446     		mov	r4, r0
 623 0004 0D46     		mov	r5, r1
 624              	.LBB35:
 625              	.LBB36:
 626              	.LBB37:
 627              		.loc 1 142 0
 628 0006 2023     		movs	r3, #32
 629              	.LVL45:
 630              	@ 142 "../../ChibiOS/os/various/cpp_wrappers/ch.cpp" 1
 631 0008 83F31188 		msr     BASEPRI, r3
 632              	@ 0 "" 2
 633              	.LVL46:
 634              		.thumb
 635              	.LBE37:
 636 000c FFF7FEFF 		bl	dbg_check_lock
 637              	.LVL47:
 638              	.LBE36:
 639              		.loc 1 144 0
 640 0010 6068     		ldr	r0, [r4, #4]
 641 0012 50B1     		cbz	r0, .L34
 642              	.L32:
 643              	.LVL48:
 644              	.LBB38:
 645              	.LBB39:
 646              		.loc 1 150 0
 647 0014 0023     		movs	r3, #0
 648 0016 6360     		str	r3, [r4, #4]
 649              		.loc 1 151 0
 650 0018 2946     		mov	r1, r5
 651 001a FFF7FEFF 		bl	chSchWakeupS
 652              	.LVL49:
 653              	.L33:
 654              	.LBE39:
 655              	.LBE38:
 656              	.LBB40:
 657              		.loc 1 154 0
 658 001e FFF7FEFF 		bl	dbg_check_unlock
 659              	.LBB41:
 660 0022 0023     		movs	r3, #0
 661              	.LVL50:
 662              	@ 154 "../../ChibiOS/os/various/cpp_wrappers/ch.cpp" 1
 663 0024 83F31188 		msr     BASEPRI, r3
 664              	@ 0 "" 2
 665              	.LVL51:
ARM GAS  /tmp/ccq01laD.s 			page 13


 666              		.thumb
 667              	.LBE41:
 668              	.LBE40:
 669              	.LBE35:
 670              		.loc 1 155 0
 671 0028 38BD     		pop	{r3, r4, r5, pc}
 672              	.LVL52:
 673              	.L34:
 674              	.LBB43:
 675              		.loc 1 144 0 discriminator 1
 676 002a 0348     		ldr	r0, .L35
 677 002c FFF7FEFF 		bl	chDbgPanic
 678              	.LBB42:
 679              		.loc 1 148 0 discriminator 1
 680 0030 6068     		ldr	r0, [r4, #4]
 681 0032 0028     		cmp	r0, #0
 682 0034 F3D0     		beq	.L33
 683 0036 EDE7     		b	.L32
 684              	.L36:
 685              		.align	2
 686              	.L35:
 687 0038 4C000000 		.word	.LC3
 688              	.LBE42:
 689              	.LBE43:
 690              		.cfi_endproc
 691              	.LFE32:
 692              		.size	_ZN10chibios_rt15ThreadReference6resumeEl, .-_ZN10chibios_rt15ThreadReference6resumeEl
 693 003c AFF30080 		.section	.text._ZN10chibios_rt15ThreadReference7resumeIEl,"ax",%progbits
 694              		.align	2
 695              		.p2align 4,,15
 696              		.global	_ZN10chibios_rt15ThreadReference7resumeIEl
 697              		.thumb
 698              		.thumb_func
 699              		.type	_ZN10chibios_rt15ThreadReference7resumeIEl, %function
 700              	_ZN10chibios_rt15ThreadReference7resumeIEl:
 701              	.LFB33:
 702              		.loc 1 157 0
 703              		.cfi_startproc
 704              		@ args = 0, pretend = 0, frame = 8
 705              		@ frame_needed = 0, uses_anonymous_args = 0
 706              	.LVL53:
 707 0000 10B5     		push	{r4, lr}
 708              	.LCFI5:
 709              		.cfi_def_cfa_offset 8
 710              		.cfi_offset 14, -4
 711              		.cfi_offset 4, -8
 712 0002 0446     		mov	r4, r0
 713              	.LBB44:
 714              		.loc 1 159 0
 715 0004 4068     		ldr	r0, [r0, #4]
 716              	.LVL54:
 717              	.LBE44:
 718              		.loc 1 157 0
 719 0006 82B0     		sub	sp, sp, #8
 720              	.LCFI6:
 721              		.cfi_def_cfa_offset 16
 722              	.LBB50:
ARM GAS  /tmp/ccq01laD.s 			page 14


 723              		.loc 1 159 0
 724 0008 38B1     		cbz	r0, .L40
 725              	.LVL55:
 726              	.L38:
 727              	.LBB45:
 728              	.LBB46:
 729              		.loc 1 165 0
 730 000a 0023     		movs	r3, #0
 731 000c 6360     		str	r3, [r4, #4]
 732              		.loc 1 166 0
 733 000e 8163     		str	r1, [r0, #56]
 734              	.LBE46:
 735              	.LBE45:
 736              	.LBE50:
 737              		.loc 1 169 0
 738 0010 02B0     		add	sp, sp, #8
 739 0012 BDE81040 		pop	{r4, lr}
 740              	.LBB51:
 741              	.LBB48:
 742              	.LBB47:
 743              		.loc 1 167 0
 744 0016 FFF7FEBF 		b	chSchReadyI
 745              	.LVL56:
 746              	.L40:
 747              	.LBE47:
 748              	.LBE48:
 749              		.loc 1 159 0 discriminator 1
 750 001a 0548     		ldr	r0, .L41
 751 001c 0191     		str	r1, [sp, #4]
 752 001e FFF7FEFF 		bl	chDbgPanic
 753              	.LVL57:
 754              	.LBB49:
 755              		.loc 1 163 0 discriminator 1
 756 0022 6068     		ldr	r0, [r4, #4]
 757 0024 0199     		ldr	r1, [sp, #4]
 758 0026 0028     		cmp	r0, #0
 759 0028 EFD1     		bne	.L38
 760              	.LBE49:
 761              	.LBE51:
 762              		.loc 1 169 0
 763 002a 02B0     		add	sp, sp, #8
 764 002c 10BD     		pop	{r4, pc}
 765              	.L42:
 766 002e 00BF     		.align	2
 767              	.L41:
 768 0030 60000000 		.word	.LC4
 769              		.cfi_endproc
 770              	.LFE33:
 771              		.size	_ZN10chibios_rt15ThreadReference7resumeIEl, .-_ZN10chibios_rt15ThreadReference7resumeIEl
 772 0034 AFF30080 		.section	.text._ZN10chibios_rt15ThreadReference16requestTerminateEv,"ax",%progbits
 772      AFF30080 
 772      AFF30080 
 773              		.align	2
 774              		.p2align 4,,15
 775              		.global	_ZN10chibios_rt15ThreadReference16requestTerminateEv
 776              		.thumb
 777              		.thumb_func
ARM GAS  /tmp/ccq01laD.s 			page 15


 778              		.type	_ZN10chibios_rt15ThreadReference16requestTerminateEv, %function
 779              	_ZN10chibios_rt15ThreadReference16requestTerminateEv:
 780              	.LFB34:
 781              		.loc 1 171 0
 782              		.cfi_startproc
 783              		@ args = 0, pretend = 0, frame = 0
 784              		@ frame_needed = 0, uses_anonymous_args = 0
 785              	.LVL58:
 786 0000 10B5     		push	{r4, lr}
 787              	.LCFI7:
 788              		.cfi_def_cfa_offset 8
 789              		.cfi_offset 14, -4
 790              		.cfi_offset 4, -8
 791              		.loc 1 171 0
 792 0002 0446     		mov	r4, r0
 793              		.loc 1 173 0
 794 0004 4068     		ldr	r0, [r0, #4]
 795              	.LVL59:
 796 0006 18B1     		cbz	r0, .L45
 797              	.L44:
 798              		.loc 1 178 0
 799 0008 BDE81040 		pop	{r4, lr}
 800              		.loc 1 177 0
 801 000c FFF7FEBF 		b	chThdTerminate
 802              	.L45:
 803              		.loc 1 173 0 discriminator 1
 804 0010 0248     		ldr	r0, .L46
 805 0012 FFF7FEFF 		bl	chDbgPanic
 806 0016 6068     		ldr	r0, [r4, #4]
 807 0018 F6E7     		b	.L44
 808              	.L47:
 809 001a 00BF     		.align	2
 810              	.L46:
 811 001c 74000000 		.word	.LC5
 812              		.cfi_endproc
 813              	.LFE34:
 814              		.size	_ZN10chibios_rt15ThreadReference16requestTerminateEv, .-_ZN10chibios_rt15ThreadReference16re
 815              		.section	.text._ZN10chibios_rt15ThreadReference4waitEv,"ax",%progbits
 816              		.align	2
 817              		.p2align 4,,15
 818              		.global	_ZN10chibios_rt15ThreadReference4waitEv
 819              		.thumb
 820              		.thumb_func
 821              		.type	_ZN10chibios_rt15ThreadReference4waitEv, %function
 822              	_ZN10chibios_rt15ThreadReference4waitEv:
 823              	.LFB35:
 824              		.loc 1 181 0
 825              		.cfi_startproc
 826              		@ args = 0, pretend = 0, frame = 0
 827              		@ frame_needed = 0, uses_anonymous_args = 0
 828              	.LVL60:
 829 0000 10B5     		push	{r4, lr}
 830              	.LCFI8:
 831              		.cfi_def_cfa_offset 8
 832              		.cfi_offset 14, -4
 833              		.cfi_offset 4, -8
 834              		.loc 1 181 0
ARM GAS  /tmp/ccq01laD.s 			page 16


 835 0002 0446     		mov	r4, r0
 836              	.LBB52:
 837              		.loc 1 183 0
 838 0004 4068     		ldr	r0, [r0, #4]
 839              	.LVL61:
 840 0006 20B1     		cbz	r0, .L50
 841              		.loc 1 187 0
 842 0008 FFF7FEFF 		bl	chThdWait
 843              	.LVL62:
 844              		.loc 1 188 0
 845 000c 0023     		movs	r3, #0
 846 000e 6360     		str	r3, [r4, #4]
 847              	.LBE52:
 848              		.loc 1 190 0
 849 0010 10BD     		pop	{r4, pc}
 850              	.LVL63:
 851              	.L50:
 852              	.LBB53:
 853              		.loc 1 183 0 discriminator 1
 854 0012 0448     		ldr	r0, .L51
 855 0014 FFF7FEFF 		bl	chDbgPanic
 856 0018 6068     		ldr	r0, [r4, #4]
 857              		.loc 1 187 0 discriminator 1
 858 001a FFF7FEFF 		bl	chThdWait
 859              	.LVL64:
 860              		.loc 1 188 0 discriminator 1
 861 001e 0023     		movs	r3, #0
 862 0020 6360     		str	r3, [r4, #4]
 863              	.LBE53:
 864              		.loc 1 190 0 discriminator 1
 865 0022 10BD     		pop	{r4, pc}
 866              	.L52:
 867              		.align	2
 868              	.L51:
 869 0024 88000000 		.word	.LC6
 870              		.cfi_endproc
 871              	.LFE35:
 872              		.size	_ZN10chibios_rt15ThreadReference4waitEv, .-_ZN10chibios_rt15ThreadReference4waitEv
 873 0028 AFF30080 		.section	.text._ZN10chibios_rt15ThreadReference11sendMessageEl,"ax",%progbits
 873      AFF30080 
 874              		.align	2
 875              		.p2align 4,,15
 876              		.global	_ZN10chibios_rt15ThreadReference11sendMessageEl
 877              		.thumb
 878              		.thumb_func
 879              		.type	_ZN10chibios_rt15ThreadReference11sendMessageEl, %function
 880              	_ZN10chibios_rt15ThreadReference11sendMessageEl:
 881              	.LFB36:
 882              		.loc 1 194 0
 883              		.cfi_startproc
 884              		@ args = 0, pretend = 0, frame = 8
 885              		@ frame_needed = 0, uses_anonymous_args = 0
 886              	.LVL65:
 887 0000 10B5     		push	{r4, lr}
 888              	.LCFI9:
 889              		.cfi_def_cfa_offset 8
 890              		.cfi_offset 14, -4
ARM GAS  /tmp/ccq01laD.s 			page 17


 891              		.cfi_offset 4, -8
 892 0002 0446     		mov	r4, r0
 893              		.loc 1 196 0
 894 0004 4068     		ldr	r0, [r0, #4]
 895              	.LVL66:
 896              		.loc 1 194 0
 897 0006 82B0     		sub	sp, sp, #8
 898              	.LCFI10:
 899              		.cfi_def_cfa_offset 16
 900              		.loc 1 196 0
 901 0008 20B1     		cbz	r0, .L55
 902              	.LVL67:
 903              	.L54:
 904              		.loc 1 201 0
 905 000a 02B0     		add	sp, sp, #8
 906 000c BDE81040 		pop	{r4, lr}
 907              		.loc 1 200 0
 908 0010 FFF7FEBF 		b	chMsgSend
 909              	.LVL68:
 910              	.L55:
 911              		.loc 1 196 0 discriminator 1
 912 0014 0348     		ldr	r0, .L56
 913 0016 0191     		str	r1, [sp, #4]
 914 0018 FFF7FEFF 		bl	chDbgPanic
 915              	.LVL69:
 916 001c 6068     		ldr	r0, [r4, #4]
 917 001e 0199     		ldr	r1, [sp, #4]
 918 0020 F3E7     		b	.L54
 919              	.L57:
 920 0022 00BF     		.align	2
 921              	.L56:
 922 0024 9C000000 		.word	.LC7
 923              		.cfi_endproc
 924              	.LFE36:
 925              		.size	_ZN10chibios_rt15ThreadReference11sendMessageEl, .-_ZN10chibios_rt15ThreadReference11sendMes
 926 0028 AFF30080 		.section	.text._ZN10chibios_rt15ThreadReference16isPendingMessageEv,"ax",%progbits
 926      AFF30080 
 927              		.align	2
 928              		.p2align 4,,15
 929              		.global	_ZN10chibios_rt15ThreadReference16isPendingMessageEv
 930              		.thumb
 931              		.thumb_func
 932              		.type	_ZN10chibios_rt15ThreadReference16isPendingMessageEv, %function
 933              	_ZN10chibios_rt15ThreadReference16isPendingMessageEv:
 934              	.LFB37:
 935              		.loc 1 203 0
 936              		.cfi_startproc
 937              		@ args = 0, pretend = 0, frame = 0
 938              		@ frame_needed = 0, uses_anonymous_args = 0
 939              	.LVL70:
 940              		.loc 1 205 0
 941 0000 4368     		ldr	r3, [r0, #4]
 942              		.loc 1 203 0
 943 0002 10B5     		push	{r4, lr}
 944              	.LCFI11:
 945              		.cfi_def_cfa_offset 8
 946              		.cfi_offset 14, -4
ARM GAS  /tmp/ccq01laD.s 			page 18


 947              		.cfi_offset 4, -8
 948              		.loc 1 203 0
 949 0004 0446     		mov	r4, r0
 950              		.loc 1 205 0
 951 0006 2BB1     		cbz	r3, .L60
 952              		.loc 1 209 0
 953 0008 186B     		ldr	r0, [r3, #48]
 954              	.LVL71:
 955 000a 3033     		adds	r3, r3, #48
 956 000c C01A     		subs	r0, r0, r3
 957 000e 18BF     		it	ne
 958 0010 0120     		movne	r0, #1
 959              		.loc 1 210 0
 960 0012 10BD     		pop	{r4, pc}
 961              	.L60:
 962              		.loc 1 205 0 discriminator 1
 963 0014 0448     		ldr	r0, .L61
 964 0016 FFF7FEFF 		bl	chDbgPanic
 965 001a 6368     		ldr	r3, [r4, #4]
 966              		.loc 1 209 0 discriminator 1
 967 001c 186B     		ldr	r0, [r3, #48]
 968 001e 3033     		adds	r3, r3, #48
 969 0020 C01A     		subs	r0, r0, r3
 970 0022 18BF     		it	ne
 971 0024 0120     		movne	r0, #1
 972              		.loc 1 210 0 discriminator 1
 973 0026 10BD     		pop	{r4, pc}
 974              	.L62:
 975              		.align	2
 976              	.L61:
 977 0028 9C000000 		.word	.LC7
 978              		.cfi_endproc
 979              	.LFE37:
 980              		.size	_ZN10chibios_rt15ThreadReference16isPendingMessageEv, .-_ZN10chibios_rt15ThreadReference16is
 981 002c AFF30080 		.section	.text._ZN10chibios_rt15ThreadReference10getMessageEv,"ax",%progbits
 982              		.align	2
 983              		.p2align 4,,15
 984              		.global	_ZN10chibios_rt15ThreadReference10getMessageEv
 985              		.thumb
 986              		.thumb_func
 987              		.type	_ZN10chibios_rt15ThreadReference10getMessageEv, %function
 988              	_ZN10chibios_rt15ThreadReference10getMessageEv:
 989              	.LFB38:
 990              		.loc 1 212 0
 991              		.cfi_startproc
 992              		@ args = 0, pretend = 0, frame = 0
 993              		@ frame_needed = 0, uses_anonymous_args = 0
 994              	.LVL72:
 995              		.loc 1 214 0
 996 0000 4368     		ldr	r3, [r0, #4]
 997              		.loc 1 212 0
 998 0002 10B5     		push	{r4, lr}
 999              	.LCFI12:
 1000              		.cfi_def_cfa_offset 8
 1001              		.cfi_offset 14, -4
 1002              		.cfi_offset 4, -8
 1003              		.loc 1 212 0
ARM GAS  /tmp/ccq01laD.s 			page 19


 1004 0004 0446     		mov	r4, r0
 1005              		.loc 1 214 0
 1006 0006 0BB1     		cbz	r3, .L65
 1007              		.loc 1 218 0
 1008 0008 986B     		ldr	r0, [r3, #56]
 1009              	.LVL73:
 1010              		.loc 1 219 0
 1011 000a 10BD     		pop	{r4, pc}
 1012              	.L65:
 1013              		.loc 1 214 0 discriminator 1
 1014 000c 0248     		ldr	r0, .L66
 1015 000e FFF7FEFF 		bl	chDbgPanic
 1016 0012 6368     		ldr	r3, [r4, #4]
 1017              		.loc 1 218 0 discriminator 1
 1018 0014 986B     		ldr	r0, [r3, #56]
 1019              		.loc 1 219 0 discriminator 1
 1020 0016 10BD     		pop	{r4, pc}
 1021              	.L67:
 1022              		.align	2
 1023              	.L66:
 1024 0018 B0000000 		.word	.LC8
 1025              		.cfi_endproc
 1026              	.LFE38:
 1027              		.size	_ZN10chibios_rt15ThreadReference10getMessageEv, .-_ZN10chibios_rt15ThreadReference10getMessa
 1028 001c AFF30080 		.section	.text._ZN10chibios_rt15ThreadReference14releaseMessageEl,"ax",%progbits
 1029              		.align	2
 1030              		.p2align 4,,15
 1031              		.global	_ZN10chibios_rt15ThreadReference14releaseMessageEl
 1032              		.thumb
 1033              		.thumb_func
 1034              		.type	_ZN10chibios_rt15ThreadReference14releaseMessageEl, %function
 1035              	_ZN10chibios_rt15ThreadReference14releaseMessageEl:
 1036              	.LFB39:
 1037              		.loc 1 221 0
 1038              		.cfi_startproc
 1039              		@ args = 0, pretend = 0, frame = 8
 1040              		@ frame_needed = 0, uses_anonymous_args = 0
 1041              	.LVL74:
 1042 0000 10B5     		push	{r4, lr}
 1043              	.LCFI13:
 1044              		.cfi_def_cfa_offset 8
 1045              		.cfi_offset 14, -4
 1046              		.cfi_offset 4, -8
 1047 0002 0446     		mov	r4, r0
 1048              		.loc 1 223 0
 1049 0004 4068     		ldr	r0, [r0, #4]
 1050              	.LVL75:
 1051              		.loc 1 221 0
 1052 0006 82B0     		sub	sp, sp, #8
 1053              	.LCFI14:
 1054              		.cfi_def_cfa_offset 16
 1055              		.loc 1 223 0
 1056 0008 20B1     		cbz	r0, .L70
 1057              	.LVL76:
 1058              	.L69:
 1059              		.loc 1 228 0
 1060 000a 02B0     		add	sp, sp, #8
ARM GAS  /tmp/ccq01laD.s 			page 20


 1061 000c BDE81040 		pop	{r4, lr}
 1062              		.loc 1 227 0
 1063 0010 FFF7FEBF 		b	chMsgRelease
 1064              	.LVL77:
 1065              	.L70:
 1066              		.loc 1 223 0 discriminator 1
 1067 0014 0348     		ldr	r0, .L71
 1068 0016 0191     		str	r1, [sp, #4]
 1069 0018 FFF7FEFF 		bl	chDbgPanic
 1070              	.LVL78:
 1071 001c 6068     		ldr	r0, [r4, #4]
 1072 001e 0199     		ldr	r1, [sp, #4]
 1073 0020 F3E7     		b	.L69
 1074              	.L72:
 1075 0022 00BF     		.align	2
 1076              	.L71:
 1077 0024 C4000000 		.word	.LC9
 1078              		.cfi_endproc
 1079              	.LFE39:
 1080              		.size	_ZN10chibios_rt15ThreadReference14releaseMessageEl, .-_ZN10chibios_rt15ThreadReference14rele
 1081 0028 AFF30080 		.section	.text._ZN10chibios_rt15ThreadReference12signalEventsEm,"ax",%progbits
 1081      AFF30080 
 1082              		.align	2
 1083              		.p2align 4,,15
 1084              		.global	_ZN10chibios_rt15ThreadReference12signalEventsEm
 1085              		.thumb
 1086              		.thumb_func
 1087              		.type	_ZN10chibios_rt15ThreadReference12signalEventsEm, %function
 1088              	_ZN10chibios_rt15ThreadReference12signalEventsEm:
 1089              	.LFB40:
 1090              		.loc 1 232 0
 1091              		.cfi_startproc
 1092              		@ args = 0, pretend = 0, frame = 8
 1093              		@ frame_needed = 0, uses_anonymous_args = 0
 1094              	.LVL79:
 1095 0000 10B5     		push	{r4, lr}
 1096              	.LCFI15:
 1097              		.cfi_def_cfa_offset 8
 1098              		.cfi_offset 14, -4
 1099              		.cfi_offset 4, -8
 1100 0002 0446     		mov	r4, r0
 1101              		.loc 1 234 0
 1102 0004 4068     		ldr	r0, [r0, #4]
 1103              	.LVL80:
 1104              		.loc 1 232 0
 1105 0006 82B0     		sub	sp, sp, #8
 1106              	.LCFI16:
 1107              		.cfi_def_cfa_offset 16
 1108              		.loc 1 234 0
 1109 0008 20B1     		cbz	r0, .L75
 1110              	.LVL81:
 1111              	.L74:
 1112              		.loc 1 239 0
 1113 000a 02B0     		add	sp, sp, #8
 1114 000c BDE81040 		pop	{r4, lr}
 1115              		.loc 1 238 0
 1116 0010 FFF7FEBF 		b	chEvtSignal
ARM GAS  /tmp/ccq01laD.s 			page 21


 1117              	.LVL82:
 1118              	.L75:
 1119              		.loc 1 234 0 discriminator 1
 1120 0014 0348     		ldr	r0, .L76
 1121 0016 0191     		str	r1, [sp, #4]
 1122 0018 FFF7FEFF 		bl	chDbgPanic
 1123              	.LVL83:
 1124 001c 6068     		ldr	r0, [r4, #4]
 1125 001e 0199     		ldr	r1, [sp, #4]
 1126 0020 F3E7     		b	.L74
 1127              	.L77:
 1128 0022 00BF     		.align	2
 1129              	.L76:
 1130 0024 D8000000 		.word	.LC10
 1131              		.cfi_endproc
 1132              	.LFE40:
 1133              		.size	_ZN10chibios_rt15ThreadReference12signalEventsEm, .-_ZN10chibios_rt15ThreadReference12signal
 1134 0028 AFF30080 		.section	.text._ZN10chibios_rt15ThreadReference13signalEventsIEm,"ax",%progbits
 1134      AFF30080 
 1135              		.align	2
 1136              		.p2align 4,,15
 1137              		.global	_ZN10chibios_rt15ThreadReference13signalEventsIEm
 1138              		.thumb
 1139              		.thumb_func
 1140              		.type	_ZN10chibios_rt15ThreadReference13signalEventsIEm, %function
 1141              	_ZN10chibios_rt15ThreadReference13signalEventsIEm:
 1142              	.LFB41:
 1143              		.loc 1 241 0
 1144              		.cfi_startproc
 1145              		@ args = 0, pretend = 0, frame = 8
 1146              		@ frame_needed = 0, uses_anonymous_args = 0
 1147              	.LVL84:
 1148 0000 10B5     		push	{r4, lr}
 1149              	.LCFI17:
 1150              		.cfi_def_cfa_offset 8
 1151              		.cfi_offset 14, -4
 1152              		.cfi_offset 4, -8
 1153 0002 0446     		mov	r4, r0
 1154              		.loc 1 243 0
 1155 0004 4068     		ldr	r0, [r0, #4]
 1156              	.LVL85:
 1157              		.loc 1 241 0
 1158 0006 82B0     		sub	sp, sp, #8
 1159              	.LCFI18:
 1160              		.cfi_def_cfa_offset 16
 1161              		.loc 1 243 0
 1162 0008 20B1     		cbz	r0, .L80
 1163              	.LVL86:
 1164              	.L79:
 1165              		.loc 1 248 0
 1166 000a 02B0     		add	sp, sp, #8
 1167 000c BDE81040 		pop	{r4, lr}
 1168              		.loc 1 247 0
 1169 0010 FFF7FEBF 		b	chEvtSignalI
 1170              	.LVL87:
 1171              	.L80:
 1172              		.loc 1 243 0 discriminator 1
ARM GAS  /tmp/ccq01laD.s 			page 22


 1173 0014 0348     		ldr	r0, .L81
 1174 0016 0191     		str	r1, [sp, #4]
 1175 0018 FFF7FEFF 		bl	chDbgPanic
 1176              	.LVL88:
 1177 001c 6068     		ldr	r0, [r4, #4]
 1178 001e 0199     		ldr	r1, [sp, #4]
 1179 0020 F3E7     		b	.L79
 1180              	.L82:
 1181 0022 00BF     		.align	2
 1182              	.L81:
 1183 0024 F0000000 		.word	.LC11
 1184              		.cfi_endproc
 1185              	.LFE41:
 1186              		.size	_ZN10chibios_rt15ThreadReference13signalEventsIEm, .-_ZN10chibios_rt15ThreadReference13signa
 1187 0028 AFF30080 		.section	.text._ZN10chibios_rt10BaseThreadC2Ev,"ax",%progbits
 1187      AFF30080 
 1188              		.align	2
 1189              		.p2align 4,,15
 1190              		.global	_ZN10chibios_rt10BaseThreadC2Ev
 1191              		.thumb
 1192              		.thumb_func
 1193              		.type	_ZN10chibios_rt10BaseThreadC2Ev, %function
 1194              	_ZN10chibios_rt10BaseThreadC2Ev:
 1195              	.LFB43:
 1196              		.loc 1 257 0
 1197              		.cfi_startproc
 1198              		@ args = 0, pretend = 0, frame = 0
 1199              		@ frame_needed = 0, uses_anonymous_args = 0
 1200              		@ link register save eliminated.
 1201              	.LVL89:
 1202              	.LBB54:
 1203              		.loc 1 257 0
 1204 0000 024B     		ldr	r3, .L86
 1205              	.LBB55:
 1206              	.LBB56:
 1207              	.LBB57:
 1208              		.loc 2 250 0
 1209 0002 0021     		movs	r1, #0
 1210 0004 4160     		str	r1, [r0, #4]
 1211              	.LBE57:
 1212              	.LBE56:
 1213              	.LBE55:
 1214              		.loc 1 257 0
 1215 0006 0360     		str	r3, [r0, #0]
 1216              	.LBE54:
 1217              		.loc 1 259 0
 1218 0008 7047     		bx	lr
 1219              	.L87:
 1220 000a 00BF     		.align	2
 1221              	.L86:
 1222 000c 08000000 		.word	.LANCHOR1+8
 1223              		.cfi_endproc
 1224              	.LFE43:
 1225              		.size	_ZN10chibios_rt10BaseThreadC2Ev, .-_ZN10chibios_rt10BaseThreadC2Ev
 1226              		.section	.text._ZN10chibios_rt10_thd_startEPv,"ax",%progbits
 1227              		.align	2
 1228              		.p2align 4,,15
ARM GAS  /tmp/ccq01laD.s 			page 23


 1229              		.global	_ZN10chibios_rt10_thd_startEPv
 1230              		.thumb
 1231              		.thumb_func
 1232              		.type	_ZN10chibios_rt10_thd_startEPv, %function
 1233              	_ZN10chibios_rt10_thd_startEPv:
 1234              	.LFB50:
 1235              		.loc 1 273 0
 1236              		.cfi_startproc
 1237              		@ args = 0, pretend = 0, frame = 0
 1238              		@ frame_needed = 0, uses_anonymous_args = 0
 1239              	.LVL90:
 1240              		.loc 1 275 0
 1241 0000 0168     		ldr	r1, [r0, #0]
 1242              		.loc 1 273 0
 1243 0002 08B5     		push	{r3, lr}
 1244              	.LCFI19:
 1245              		.cfi_def_cfa_offset 8
 1246              		.cfi_offset 14, -4
 1247              		.cfi_offset 3, -8
 1248              		.loc 1 275 0
 1249 0004 4B68     		ldr	r3, [r1, #4]
 1250 0006 9847     		blx	r3
 1251              	.LVL91:
 1252              		.loc 1 276 0
 1253 0008 08BD     		pop	{r3, pc}
 1254              		.cfi_endproc
 1255              	.LFE50:
 1256              		.size	_ZN10chibios_rt10_thd_startEPv, .-_ZN10chibios_rt10_thd_startEPv
 1257 000a 00BFAFF3 		.section	.text._ZN10chibios_rt10BaseThread7setNameEPKc,"ax",%progbits
 1257      0080
 1258              		.align	2
 1259              		.p2align 4,,15
 1260              		.global	_ZN10chibios_rt10BaseThread7setNameEPKc
 1261              		.thumb
 1262              		.thumb_func
 1263              		.type	_ZN10chibios_rt10BaseThread7setNameEPKc, %function
 1264              	_ZN10chibios_rt10BaseThread7setNameEPKc:
 1265              	.LFB51:
 1266              		.loc 1 278 0
 1267              		.cfi_startproc
 1268              		@ args = 0, pretend = 0, frame = 0
 1269              		@ frame_needed = 0, uses_anonymous_args = 0
 1270              		@ link register save eliminated.
 1271              	.LVL92:
 1272              		.loc 1 280 0
 1273 0000 40F20001 		movw	r1, #:lower16:rlist
 1274 0004 C0F20001 		movt	r1, #:upper16:rlist
 1275 0008 8B69     		ldr	r3, [r1, #24]
 1276 000a 9861     		str	r0, [r3, #24]
 1277              		.loc 1 281 0
 1278 000c 7047     		bx	lr
 1279              		.cfi_endproc
 1280              	.LFE51:
 1281              		.size	_ZN10chibios_rt10BaseThread7setNameEPKc, .-_ZN10chibios_rt10BaseThread7setNameEPKc
 1282 000e 00BF     		.section	.text._ZN10chibios_rt10BaseThread11setPriorityEm,"ax",%progbits
 1283              		.align	2
 1284              		.p2align 4,,15
ARM GAS  /tmp/ccq01laD.s 			page 24


 1285              		.global	_ZN10chibios_rt10BaseThread11setPriorityEm
 1286              		.thumb
 1287              		.thumb_func
 1288              		.type	_ZN10chibios_rt10BaseThread11setPriorityEm, %function
 1289              	_ZN10chibios_rt10BaseThread11setPriorityEm:
 1290              	.LFB52:
 1291              		.loc 1 283 0
 1292              		.cfi_startproc
 1293              		@ args = 0, pretend = 0, frame = 0
 1294              		@ frame_needed = 0, uses_anonymous_args = 0
 1295              		@ link register save eliminated.
 1296              	.LVL93:
 1297              		.loc 1 286 0
 1298              		.loc 1 285 0
 1299 0000 FFF7FEBF 		b	chThdSetPriority
 1300              	.LVL94:
 1301              		.cfi_endproc
 1302              	.LFE52:
 1303              		.size	_ZN10chibios_rt10BaseThread11setPriorityEm, .-_ZN10chibios_rt10BaseThread11setPriorityEm
 1304 0004 AFF30080 		.section	.text._ZN10chibios_rt10BaseThread4exitEl,"ax",%progbits
 1304      AFF30080 
 1304      AFF30080 
 1305              		.align	2
 1306              		.p2align 4,,15
 1307              		.global	_ZN10chibios_rt10BaseThread4exitEl
 1308              		.thumb
 1309              		.thumb_func
 1310              		.type	_ZN10chibios_rt10BaseThread4exitEl, %function
 1311              	_ZN10chibios_rt10BaseThread4exitEl:
 1312              	.LFB53:
 1313              		.loc 1 288 0
 1314              		.cfi_startproc
 1315              		@ args = 0, pretend = 0, frame = 0
 1316              		@ frame_needed = 0, uses_anonymous_args = 0
 1317              		@ link register save eliminated.
 1318              	.LVL95:
 1319              		.loc 1 291 0
 1320              		.loc 1 290 0
 1321 0000 FFF7FEBF 		b	chThdExit
 1322              	.LVL96:
 1323              		.cfi_endproc
 1324              	.LFE53:
 1325              		.size	_ZN10chibios_rt10BaseThread4exitEl, .-_ZN10chibios_rt10BaseThread4exitEl
 1326 0004 AFF30080 		.section	.text._ZN10chibios_rt10BaseThread5exitSEl,"ax",%progbits
 1326      AFF30080 
 1326      AFF30080 
 1327              		.align	2
 1328              		.p2align 4,,15
 1329              		.global	_ZN10chibios_rt10BaseThread5exitSEl
 1330              		.thumb
 1331              		.thumb_func
 1332              		.type	_ZN10chibios_rt10BaseThread5exitSEl, %function
 1333              	_ZN10chibios_rt10BaseThread5exitSEl:
 1334              	.LFB54:
 1335              		.loc 1 293 0
 1336              		.cfi_startproc
 1337              		@ args = 0, pretend = 0, frame = 0
ARM GAS  /tmp/ccq01laD.s 			page 25


 1338              		@ frame_needed = 0, uses_anonymous_args = 0
 1339              		@ link register save eliminated.
 1340              	.LVL97:
 1341              		.loc 1 296 0
 1342              		.loc 1 295 0
 1343 0000 FFF7FEBF 		b	chThdExitS
 1344              	.LVL98:
 1345              		.cfi_endproc
 1346              	.LFE54:
 1347              		.size	_ZN10chibios_rt10BaseThread5exitSEl, .-_ZN10chibios_rt10BaseThread5exitSEl
 1348 0004 AFF30080 		.section	.text._ZN10chibios_rt10BaseThread15shouldTerminateEv,"ax",%progbits
 1348      AFF30080 
 1348      AFF30080 
 1349              		.align	2
 1350              		.p2align 4,,15
 1351              		.global	_ZN10chibios_rt10BaseThread15shouldTerminateEv
 1352              		.thumb
 1353              		.thumb_func
 1354              		.type	_ZN10chibios_rt10BaseThread15shouldTerminateEv, %function
 1355              	_ZN10chibios_rt10BaseThread15shouldTerminateEv:
 1356              	.LFB55:
 1357              		.loc 1 298 0
 1358              		.cfi_startproc
 1359              		@ args = 0, pretend = 0, frame = 0
 1360              		@ frame_needed = 0, uses_anonymous_args = 0
 1361              		@ link register save eliminated.
 1362              		.loc 1 300 0
 1363 0000 40F20001 		movw	r1, #:lower16:rlist
 1364 0004 C0F20001 		movt	r1, #:upper16:rlist
 1365 0008 8B69     		ldr	r3, [r1, #24]
 1366 000a 93F82100 		ldrb	r0, [r3, #33]	@ zero_extendqisi2
 1367 000e C0F38000 		ubfx	r0, r0, #2, #1
 1368              		.loc 1 301 0
 1369 0012 7047     		bx	lr
 1370              		.cfi_endproc
 1371              	.LFE55:
 1372              		.size	_ZN10chibios_rt10BaseThread15shouldTerminateEv, .-_ZN10chibios_rt10BaseThread15shouldTermina
 1373 0014 AFF30080 		.section	.text._ZN10chibios_rt10BaseThread5sleepEm,"ax",%progbits
 1373      AFF30080 
 1373      AFF30080 
 1374              		.align	2
 1375              		.p2align 4,,15
 1376              		.global	_ZN10chibios_rt10BaseThread5sleepEm
 1377              		.thumb
 1378              		.thumb_func
 1379              		.type	_ZN10chibios_rt10BaseThread5sleepEm, %function
 1380              	_ZN10chibios_rt10BaseThread5sleepEm:
 1381              	.LFB56:
 1382              		.loc 1 303 0
 1383              		.cfi_startproc
 1384              		@ args = 0, pretend = 0, frame = 0
 1385              		@ frame_needed = 0, uses_anonymous_args = 0
 1386              		@ link register save eliminated.
 1387              	.LVL99:
 1388              		.loc 1 306 0
 1389              		.loc 1 305 0
 1390 0000 FFF7FEBF 		b	chThdSleep
ARM GAS  /tmp/ccq01laD.s 			page 26


 1391              	.LVL100:
 1392              		.cfi_endproc
 1393              	.LFE56:
 1394              		.size	_ZN10chibios_rt10BaseThread5sleepEm, .-_ZN10chibios_rt10BaseThread5sleepEm
 1395 0004 AFF30080 		.section	.text._ZN10chibios_rt10BaseThread10sleepUntilEm,"ax",%progbits
 1395      AFF30080 
 1395      AFF30080 
 1396              		.align	2
 1397              		.p2align 4,,15
 1398              		.global	_ZN10chibios_rt10BaseThread10sleepUntilEm
 1399              		.thumb
 1400              		.thumb_func
 1401              		.type	_ZN10chibios_rt10BaseThread10sleepUntilEm, %function
 1402              	_ZN10chibios_rt10BaseThread10sleepUntilEm:
 1403              	.LFB57:
 1404              		.loc 1 308 0
 1405              		.cfi_startproc
 1406              		@ args = 0, pretend = 0, frame = 0
 1407              		@ frame_needed = 0, uses_anonymous_args = 0
 1408              		@ link register save eliminated.
 1409              	.LVL101:
 1410              		.loc 1 311 0
 1411              		.loc 1 310 0
 1412 0000 FFF7FEBF 		b	chThdSleepUntil
 1413              	.LVL102:
 1414              		.cfi_endproc
 1415              	.LFE57:
 1416              		.size	_ZN10chibios_rt10BaseThread10sleepUntilEm, .-_ZN10chibios_rt10BaseThread10sleepUntilEm
 1417 0004 AFF30080 		.section	.text._ZN10chibios_rt10BaseThread5yieldEv,"ax",%progbits
 1417      AFF30080 
 1417      AFF30080 
 1418              		.align	2
 1419              		.p2align 4,,15
 1420              		.global	_ZN10chibios_rt10BaseThread5yieldEv
 1421              		.thumb
 1422              		.thumb_func
 1423              		.type	_ZN10chibios_rt10BaseThread5yieldEv, %function
 1424              	_ZN10chibios_rt10BaseThread5yieldEv:
 1425              	.LFB58:
 1426              		.loc 1 313 0
 1427              		.cfi_startproc
 1428              		@ args = 0, pretend = 0, frame = 0
 1429              		@ frame_needed = 0, uses_anonymous_args = 0
 1430              		@ link register save eliminated.
 1431              		.loc 1 316 0
 1432              		.loc 1 315 0
 1433 0000 FFF7FEBF 		b	chThdYield
 1434              		.cfi_endproc
 1435              	.LFE58:
 1436              		.size	_ZN10chibios_rt10BaseThread5yieldEv, .-_ZN10chibios_rt10BaseThread5yieldEv
 1437 0004 AFF30080 		.section	.text._ZN10chibios_rt10BaseThread11waitMessageEv,"ax",%progbits
 1437      AFF30080 
 1437      AFF30080 
 1438              		.align	2
 1439              		.p2align 4,,15
 1440              		.global	_ZN10chibios_rt10BaseThread11waitMessageEv
 1441              		.thumb
ARM GAS  /tmp/ccq01laD.s 			page 27


 1442              		.thumb_func
 1443              		.type	_ZN10chibios_rt10BaseThread11waitMessageEv, %function
 1444              	_ZN10chibios_rt10BaseThread11waitMessageEv:
 1445              	.LFB59:
 1446              		.loc 1 319 0
 1447              		.cfi_startproc
 1448              		@ args = 0, pretend = 0, frame = 0
 1449              		@ frame_needed = 0, uses_anonymous_args = 0
 1450              	.LVL103:
 1451 0000 10B5     		push	{r4, lr}
 1452              	.LCFI20:
 1453              		.cfi_def_cfa_offset 8
 1454              		.cfi_offset 14, -4
 1455              		.cfi_offset 4, -8
 1456              		.loc 1 319 0
 1457 0002 0446     		mov	r4, r0
 1458              	.LBB58:
 1459              		.loc 1 321 0
 1460 0004 FFF7FEFF 		bl	chMsgWait
 1461              	.LVL104:
 1462              	.LBB59:
 1463              	.LBB60:
 1464              	.LBB61:
 1465              		.loc 2 250 0
 1466 0008 024B     		ldr	r3, .L99
 1467 000a 6060     		str	r0, [r4, #4]
 1468 000c 2360     		str	r3, [r4, #0]
 1469              	.LBE61:
 1470              	.LBE60:
 1471              	.LBE59:
 1472              	.LBE58:
 1473              		.loc 1 323 0
 1474 000e 2046     		mov	r0, r4
 1475              	.LVL105:
 1476 0010 10BD     		pop	{r4, pc}
 1477              	.L100:
 1478 0012 00BF     		.align	2
 1479              	.L99:
 1480 0014 08000000 		.word	.LANCHOR0+8
 1481              		.cfi_endproc
 1482              	.LFE59:
 1483              		.size	_ZN10chibios_rt10BaseThread11waitMessageEv, .-_ZN10chibios_rt10BaseThread11waitMessageEv
 1484 0018 AFF30080 		.section	.text._ZN10chibios_rt10BaseThread17getAndClearEventsEm,"ax",%progbits
 1484      AFF30080 
 1485              		.align	2
 1486              		.p2align 4,,15
 1487              		.global	_ZN10chibios_rt10BaseThread17getAndClearEventsEm
 1488              		.thumb
 1489              		.thumb_func
 1490              		.type	_ZN10chibios_rt10BaseThread17getAndClearEventsEm, %function
 1491              	_ZN10chibios_rt10BaseThread17getAndClearEventsEm:
 1492              	.LFB60:
 1493              		.loc 1 327 0
 1494              		.cfi_startproc
 1495              		@ args = 0, pretend = 0, frame = 0
 1496              		@ frame_needed = 0, uses_anonymous_args = 0
 1497              		@ link register save eliminated.
ARM GAS  /tmp/ccq01laD.s 			page 28


 1498              	.LVL106:
 1499              		.loc 1 330 0
 1500              		.loc 1 329 0
 1501 0000 FFF7FEBF 		b	chEvtGetAndClearEvents
 1502              	.LVL107:
 1503              		.cfi_endproc
 1504              	.LFE60:
 1505              		.size	_ZN10chibios_rt10BaseThread17getAndClearEventsEm, .-_ZN10chibios_rt10BaseThread17getAndClear
 1506 0004 AFF30080 		.section	.text._ZN10chibios_rt10BaseThread9addEventsEm,"ax",%progbits
 1506      AFF30080 
 1506      AFF30080 
 1507              		.align	2
 1508              		.p2align 4,,15
 1509              		.global	_ZN10chibios_rt10BaseThread9addEventsEm
 1510              		.thumb
 1511              		.thumb_func
 1512              		.type	_ZN10chibios_rt10BaseThread9addEventsEm, %function
 1513              	_ZN10chibios_rt10BaseThread9addEventsEm:
 1514              	.LFB61:
 1515              		.loc 1 332 0
 1516              		.cfi_startproc
 1517              		@ args = 0, pretend = 0, frame = 0
 1518              		@ frame_needed = 0, uses_anonymous_args = 0
 1519              		@ link register save eliminated.
 1520              	.LVL108:
 1521              		.loc 1 335 0
 1522              		.loc 1 334 0
 1523 0000 FFF7FEBF 		b	chEvtAddEvents
 1524              	.LVL109:
 1525              		.cfi_endproc
 1526              	.LFE61:
 1527              		.size	_ZN10chibios_rt10BaseThread9addEventsEm, .-_ZN10chibios_rt10BaseThread9addEventsEm
 1528 0004 AFF30080 		.section	.text._ZN10chibios_rt10BaseThread12waitOneEventEm,"ax",%progbits
 1528      AFF30080 
 1528      AFF30080 
 1529              		.align	2
 1530              		.p2align 4,,15
 1531              		.global	_ZN10chibios_rt10BaseThread12waitOneEventEm
 1532              		.thumb
 1533              		.thumb_func
 1534              		.type	_ZN10chibios_rt10BaseThread12waitOneEventEm, %function
 1535              	_ZN10chibios_rt10BaseThread12waitOneEventEm:
 1536              	.LFB62:
 1537              		.loc 1 337 0
 1538              		.cfi_startproc
 1539              		@ args = 0, pretend = 0, frame = 0
 1540              		@ frame_needed = 0, uses_anonymous_args = 0
 1541              		@ link register save eliminated.
 1542              	.LVL110:
 1543              		.loc 1 340 0
 1544              		.loc 1 339 0
 1545 0000 FFF7FEBF 		b	chEvtWaitOne
 1546              	.LVL111:
 1547              		.cfi_endproc
 1548              	.LFE62:
 1549              		.size	_ZN10chibios_rt10BaseThread12waitOneEventEm, .-_ZN10chibios_rt10BaseThread12waitOneEventEm
 1550 0004 AFF30080 		.section	.text._ZN10chibios_rt10BaseThread12waitAnyEventEm,"ax",%progbits
ARM GAS  /tmp/ccq01laD.s 			page 29


 1550      AFF30080 
 1550      AFF30080 
 1551              		.align	2
 1552              		.p2align 4,,15
 1553              		.global	_ZN10chibios_rt10BaseThread12waitAnyEventEm
 1554              		.thumb
 1555              		.thumb_func
 1556              		.type	_ZN10chibios_rt10BaseThread12waitAnyEventEm, %function
 1557              	_ZN10chibios_rt10BaseThread12waitAnyEventEm:
 1558              	.LFB63:
 1559              		.loc 1 342 0
 1560              		.cfi_startproc
 1561              		@ args = 0, pretend = 0, frame = 0
 1562              		@ frame_needed = 0, uses_anonymous_args = 0
 1563              		@ link register save eliminated.
 1564              	.LVL112:
 1565              		.loc 1 345 0
 1566              		.loc 1 344 0
 1567 0000 FFF7FEBF 		b	chEvtWaitAny
 1568              	.LVL113:
 1569              		.cfi_endproc
 1570              	.LFE63:
 1571              		.size	_ZN10chibios_rt10BaseThread12waitAnyEventEm, .-_ZN10chibios_rt10BaseThread12waitAnyEventEm
 1572 0004 AFF30080 		.section	.text._ZN10chibios_rt10BaseThread13waitAllEventsEm,"ax",%progbits
 1572      AFF30080 
 1572      AFF30080 
 1573              		.align	2
 1574              		.p2align 4,,15
 1575              		.global	_ZN10chibios_rt10BaseThread13waitAllEventsEm
 1576              		.thumb
 1577              		.thumb_func
 1578              		.type	_ZN10chibios_rt10BaseThread13waitAllEventsEm, %function
 1579              	_ZN10chibios_rt10BaseThread13waitAllEventsEm:
 1580              	.LFB64:
 1581              		.loc 1 347 0
 1582              		.cfi_startproc
 1583              		@ args = 0, pretend = 0, frame = 0
 1584              		@ frame_needed = 0, uses_anonymous_args = 0
 1585              		@ link register save eliminated.
 1586              	.LVL114:
 1587              		.loc 1 350 0
 1588              		.loc 1 349 0
 1589 0000 FFF7FEBF 		b	chEvtWaitAll
 1590              	.LVL115:
 1591              		.cfi_endproc
 1592              	.LFE64:
 1593              		.size	_ZN10chibios_rt10BaseThread13waitAllEventsEm, .-_ZN10chibios_rt10BaseThread13waitAllEventsEm
 1594 0004 AFF30080 		.section	.text._ZN10chibios_rt10BaseThread19waitOneEventTimeoutEmm,"ax",%progbits
 1594      AFF30080 
 1594      AFF30080 
 1595              		.align	2
 1596              		.p2align 4,,15
 1597              		.global	_ZN10chibios_rt10BaseThread19waitOneEventTimeoutEmm
 1598              		.thumb
 1599              		.thumb_func
 1600              		.type	_ZN10chibios_rt10BaseThread19waitOneEventTimeoutEmm, %function
 1601              	_ZN10chibios_rt10BaseThread19waitOneEventTimeoutEmm:
ARM GAS  /tmp/ccq01laD.s 			page 30


 1602              	.LFB65:
 1603              		.loc 1 354 0
 1604              		.cfi_startproc
 1605              		@ args = 0, pretend = 0, frame = 0
 1606              		@ frame_needed = 0, uses_anonymous_args = 0
 1607              		@ link register save eliminated.
 1608              	.LVL116:
 1609              		.loc 1 357 0
 1610              		.loc 1 356 0
 1611 0000 FFF7FEBF 		b	chEvtWaitOneTimeout
 1612              	.LVL117:
 1613              	.LVL118:
 1614              		.cfi_endproc
 1615              	.LFE65:
 1616              		.size	_ZN10chibios_rt10BaseThread19waitOneEventTimeoutEmm, .-_ZN10chibios_rt10BaseThread19waitOneE
 1617 0004 AFF30080 		.section	.text._ZN10chibios_rt10BaseThread19waitAnyEventTimeoutEmm,"ax",%progbits
 1617      AFF30080 
 1617      AFF30080 
 1618              		.align	2
 1619              		.p2align 4,,15
 1620              		.global	_ZN10chibios_rt10BaseThread19waitAnyEventTimeoutEmm
 1621              		.thumb
 1622              		.thumb_func
 1623              		.type	_ZN10chibios_rt10BaseThread19waitAnyEventTimeoutEmm, %function
 1624              	_ZN10chibios_rt10BaseThread19waitAnyEventTimeoutEmm:
 1625              	.LFB66:
 1626              		.loc 1 360 0
 1627              		.cfi_startproc
 1628              		@ args = 0, pretend = 0, frame = 0
 1629              		@ frame_needed = 0, uses_anonymous_args = 0
 1630              		@ link register save eliminated.
 1631              	.LVL119:
 1632              		.loc 1 363 0
 1633              		.loc 1 362 0
 1634 0000 FFF7FEBF 		b	chEvtWaitAnyTimeout
 1635              	.LVL120:
 1636              	.LVL121:
 1637              		.cfi_endproc
 1638              	.LFE66:
 1639              		.size	_ZN10chibios_rt10BaseThread19waitAnyEventTimeoutEmm, .-_ZN10chibios_rt10BaseThread19waitAnyE
 1640 0004 AFF30080 		.section	.text._ZN10chibios_rt10BaseThread20waitAllEventsTimeoutEmm,"ax",%progbits
 1640      AFF30080 
 1640      AFF30080 
 1641              		.align	2
 1642              		.p2align 4,,15
 1643              		.global	_ZN10chibios_rt10BaseThread20waitAllEventsTimeoutEmm
 1644              		.thumb
 1645              		.thumb_func
 1646              		.type	_ZN10chibios_rt10BaseThread20waitAllEventsTimeoutEmm, %function
 1647              	_ZN10chibios_rt10BaseThread20waitAllEventsTimeoutEmm:
 1648              	.LFB67:
 1649              		.loc 1 366 0
 1650              		.cfi_startproc
 1651              		@ args = 0, pretend = 0, frame = 0
 1652              		@ frame_needed = 0, uses_anonymous_args = 0
 1653              		@ link register save eliminated.
 1654              	.LVL122:
ARM GAS  /tmp/ccq01laD.s 			page 31


 1655              		.loc 1 369 0
 1656              		.loc 1 368 0
 1657 0000 FFF7FEBF 		b	chEvtWaitAllTimeout
 1658              	.LVL123:
 1659              	.LVL124:
 1660              		.cfi_endproc
 1661              	.LFE67:
 1662              		.size	_ZN10chibios_rt10BaseThread20waitAllEventsTimeoutEmm, .-_ZN10chibios_rt10BaseThread20waitAll
 1663 0004 AFF30080 		.section	.text._ZN10chibios_rt10BaseThread14dispatchEventsEPKPFvlEm,"ax",%progbits
 1663      AFF30080 
 1663      AFF30080 
 1664              		.align	2
 1665              		.p2align 4,,15
 1666              		.global	_ZN10chibios_rt10BaseThread14dispatchEventsEPKPFvlEm
 1667              		.thumb
 1668              		.thumb_func
 1669              		.type	_ZN10chibios_rt10BaseThread14dispatchEventsEPKPFvlEm, %function
 1670              	_ZN10chibios_rt10BaseThread14dispatchEventsEPKPFvlEm:
 1671              	.LFB68:
 1672              		.loc 1 373 0
 1673              		.cfi_startproc
 1674              		@ args = 0, pretend = 0, frame = 0
 1675              		@ frame_needed = 0, uses_anonymous_args = 0
 1676              		@ link register save eliminated.
 1677              	.LVL125:
 1678              		.loc 1 376 0
 1679              		.loc 1 375 0
 1680 0000 FFF7FEBF 		b	chEvtDispatch
 1681              	.LVL126:
 1682              	.LVL127:
 1683              		.cfi_endproc
 1684              	.LFE68:
 1685              		.size	_ZN10chibios_rt10BaseThread14dispatchEventsEPKPFvlEm, .-_ZN10chibios_rt10BaseThread14dispatc
 1686 0004 AFF30080 		.section	.text._ZN10chibios_rt10BaseThread11unlockMutexEv,"ax",%progbits
 1686      AFF30080 
 1686      AFF30080 
 1687              		.align	2
 1688              		.p2align 4,,15
 1689              		.global	_ZN10chibios_rt10BaseThread11unlockMutexEv
 1690              		.thumb
 1691              		.thumb_func
 1692              		.type	_ZN10chibios_rt10BaseThread11unlockMutexEv, %function
 1693              	_ZN10chibios_rt10BaseThread11unlockMutexEv:
 1694              	.LFB69:
 1695              		.loc 1 380 0
 1696              		.cfi_startproc
 1697              		@ args = 0, pretend = 0, frame = 0
 1698              		@ frame_needed = 0, uses_anonymous_args = 0
 1699              		@ link register save eliminated.
 1700              		.loc 1 383 0
 1701              		.loc 1 382 0
 1702 0000 FFF7FEBF 		b	chMtxUnlock
 1703              		.cfi_endproc
 1704              	.LFE69:
 1705              		.size	_ZN10chibios_rt10BaseThread11unlockMutexEv, .-_ZN10chibios_rt10BaseThread11unlockMutexEv
 1706 0004 AFF30080 		.section	.text._ZN10chibios_rt10BaseThread12unlockMutexSEv,"ax",%progbits
 1706      AFF30080 
ARM GAS  /tmp/ccq01laD.s 			page 32


 1706      AFF30080 
 1707              		.align	2
 1708              		.p2align 4,,15
 1709              		.global	_ZN10chibios_rt10BaseThread12unlockMutexSEv
 1710              		.thumb
 1711              		.thumb_func
 1712              		.type	_ZN10chibios_rt10BaseThread12unlockMutexSEv, %function
 1713              	_ZN10chibios_rt10BaseThread12unlockMutexSEv:
 1714              	.LFB70:
 1715              		.loc 1 385 0
 1716              		.cfi_startproc
 1717              		@ args = 0, pretend = 0, frame = 0
 1718              		@ frame_needed = 0, uses_anonymous_args = 0
 1719              		@ link register save eliminated.
 1720              		.loc 1 388 0
 1721              		.loc 1 387 0
 1722 0000 FFF7FEBF 		b	chMtxUnlockS
 1723              		.cfi_endproc
 1724              	.LFE70:
 1725              		.size	_ZN10chibios_rt10BaseThread12unlockMutexSEv, .-_ZN10chibios_rt10BaseThread12unlockMutexSEv
 1726 0004 AFF30080 		.section	.text._ZN10chibios_rt10BaseThread16unlockAllMutexesEv,"ax",%progbits
 1726      AFF30080 
 1726      AFF30080 
 1727              		.align	2
 1728              		.p2align 4,,15
 1729              		.global	_ZN10chibios_rt10BaseThread16unlockAllMutexesEv
 1730              		.thumb
 1731              		.thumb_func
 1732              		.type	_ZN10chibios_rt10BaseThread16unlockAllMutexesEv, %function
 1733              	_ZN10chibios_rt10BaseThread16unlockAllMutexesEv:
 1734              	.LFB71:
 1735              		.loc 1 390 0
 1736              		.cfi_startproc
 1737              		@ args = 0, pretend = 0, frame = 0
 1738              		@ frame_needed = 0, uses_anonymous_args = 0
 1739              		@ link register save eliminated.
 1740              		.loc 1 393 0
 1741              		.loc 1 392 0
 1742 0000 FFF7FEBF 		b	chMtxUnlockAll
 1743              		.cfi_endproc
 1744              	.LFE71:
 1745              		.size	_ZN10chibios_rt10BaseThread16unlockAllMutexesEv, .-_ZN10chibios_rt10BaseThread16unlockAllMut
 1746 0004 AFF30080 		.section	.text._ZN10chibios_rt16CounterSemaphoreC2El,"ax",%progbits
 1746      AFF30080 
 1746      AFF30080 
 1747              		.align	2
 1748              		.p2align 4,,15
 1749              		.global	_ZN10chibios_rt16CounterSemaphoreC2El
 1750              		.thumb
 1751              		.thumb_func
 1752              		.type	_ZN10chibios_rt16CounterSemaphoreC2El, %function
 1753              	_ZN10chibios_rt16CounterSemaphoreC2El:
 1754              	.LFB73:
 1755              		.loc 1 400 0
 1756              		.cfi_startproc
 1757              		@ args = 0, pretend = 0, frame = 0
 1758              		@ frame_needed = 0, uses_anonymous_args = 0
ARM GAS  /tmp/ccq01laD.s 			page 33


 1759              	.LVL128:
 1760 0000 10B5     		push	{r4, lr}
 1761              	.LCFI21:
 1762              		.cfi_def_cfa_offset 8
 1763              		.cfi_offset 14, -4
 1764              		.cfi_offset 4, -8
 1765              		.loc 1 400 0
 1766 0002 0446     		mov	r4, r0
 1767              	.LBB62:
 1768              		.loc 1 402 0
 1769 0004 FFF7FEFF 		bl	chSemInit
 1770              	.LVL129:
 1771              	.LBE62:
 1772              		.loc 1 403 0
 1773 0008 2046     		mov	r0, r4
 1774 000a 10BD     		pop	{r4, pc}
 1775              		.cfi_endproc
 1776              	.LFE73:
 1777              		.size	_ZN10chibios_rt16CounterSemaphoreC2El, .-_ZN10chibios_rt16CounterSemaphoreC2El
 1778 000c AFF30080 		.section	.text._ZN10chibios_rt16CounterSemaphore5resetEl,"ax",%progbits
 1779              		.align	2
 1780              		.p2align 4,,15
 1781              		.global	_ZN10chibios_rt16CounterSemaphore5resetEl
 1782              		.thumb
 1783              		.thumb_func
 1784              		.type	_ZN10chibios_rt16CounterSemaphore5resetEl, %function
 1785              	_ZN10chibios_rt16CounterSemaphore5resetEl:
 1786              	.LFB75:
 1787              		.loc 1 405 0
 1788              		.cfi_startproc
 1789              		@ args = 0, pretend = 0, frame = 0
 1790              		@ frame_needed = 0, uses_anonymous_args = 0
 1791              		@ link register save eliminated.
 1792              	.LVL130:
 1793              		.loc 1 408 0
 1794              		.loc 1 407 0
 1795 0000 FFF7FEBF 		b	chSemReset
 1796              	.LVL131:
 1797              	.LVL132:
 1798              		.cfi_endproc
 1799              	.LFE75:
 1800              		.size	_ZN10chibios_rt16CounterSemaphore5resetEl, .-_ZN10chibios_rt16CounterSemaphore5resetEl
 1801 0004 AFF30080 		.section	.text._ZN10chibios_rt16CounterSemaphore6resetIEl,"ax",%progbits
 1801      AFF30080 
 1801      AFF30080 
 1802              		.align	2
 1803              		.p2align 4,,15
 1804              		.global	_ZN10chibios_rt16CounterSemaphore6resetIEl
 1805              		.thumb
 1806              		.thumb_func
 1807              		.type	_ZN10chibios_rt16CounterSemaphore6resetIEl, %function
 1808              	_ZN10chibios_rt16CounterSemaphore6resetIEl:
 1809              	.LFB76:
 1810              		.loc 1 410 0
 1811              		.cfi_startproc
 1812              		@ args = 0, pretend = 0, frame = 0
 1813              		@ frame_needed = 0, uses_anonymous_args = 0
ARM GAS  /tmp/ccq01laD.s 			page 34


 1814              		@ link register save eliminated.
 1815              	.LVL133:
 1816              		.loc 1 413 0
 1817              		.loc 1 412 0
 1818 0000 FFF7FEBF 		b	chSemResetI
 1819              	.LVL134:
 1820              	.LVL135:
 1821              		.cfi_endproc
 1822              	.LFE76:
 1823              		.size	_ZN10chibios_rt16CounterSemaphore6resetIEl, .-_ZN10chibios_rt16CounterSemaphore6resetIEl
 1824 0004 AFF30080 		.section	.text._ZN10chibios_rt16CounterSemaphore4waitEv,"ax",%progbits
 1824      AFF30080 
 1824      AFF30080 
 1825              		.align	2
 1826              		.p2align 4,,15
 1827              		.global	_ZN10chibios_rt16CounterSemaphore4waitEv
 1828              		.thumb
 1829              		.thumb_func
 1830              		.type	_ZN10chibios_rt16CounterSemaphore4waitEv, %function
 1831              	_ZN10chibios_rt16CounterSemaphore4waitEv:
 1832              	.LFB77:
 1833              		.loc 1 415 0
 1834              		.cfi_startproc
 1835              		@ args = 0, pretend = 0, frame = 0
 1836              		@ frame_needed = 0, uses_anonymous_args = 0
 1837              		@ link register save eliminated.
 1838              	.LVL136:
 1839              		.loc 1 418 0
 1840              		.loc 1 417 0
 1841 0000 FFF7FEBF 		b	chSemWait
 1842              	.LVL137:
 1843              		.cfi_endproc
 1844              	.LFE77:
 1845              		.size	_ZN10chibios_rt16CounterSemaphore4waitEv, .-_ZN10chibios_rt16CounterSemaphore4waitEv
 1846 0004 AFF30080 		.section	.text._ZN10chibios_rt16CounterSemaphore5waitSEv,"ax",%progbits
 1846      AFF30080 
 1846      AFF30080 
 1847              		.align	2
 1848              		.p2align 4,,15
 1849              		.global	_ZN10chibios_rt16CounterSemaphore5waitSEv
 1850              		.thumb
 1851              		.thumb_func
 1852              		.type	_ZN10chibios_rt16CounterSemaphore5waitSEv, %function
 1853              	_ZN10chibios_rt16CounterSemaphore5waitSEv:
 1854              	.LFB78:
 1855              		.loc 1 420 0
 1856              		.cfi_startproc
 1857              		@ args = 0, pretend = 0, frame = 0
 1858              		@ frame_needed = 0, uses_anonymous_args = 0
 1859              		@ link register save eliminated.
 1860              	.LVL138:
 1861              		.loc 1 423 0
 1862              		.loc 1 422 0
 1863 0000 FFF7FEBF 		b	chSemWaitS
 1864              	.LVL139:
 1865              		.cfi_endproc
 1866              	.LFE78:
ARM GAS  /tmp/ccq01laD.s 			page 35


 1867              		.size	_ZN10chibios_rt16CounterSemaphore5waitSEv, .-_ZN10chibios_rt16CounterSemaphore5waitSEv
 1868 0004 AFF30080 		.section	.text._ZN10chibios_rt16CounterSemaphore11waitTimeoutEm,"ax",%progbits
 1868      AFF30080 
 1868      AFF30080 
 1869              		.align	2
 1870              		.p2align 4,,15
 1871              		.global	_ZN10chibios_rt16CounterSemaphore11waitTimeoutEm
 1872              		.thumb
 1873              		.thumb_func
 1874              		.type	_ZN10chibios_rt16CounterSemaphore11waitTimeoutEm, %function
 1875              	_ZN10chibios_rt16CounterSemaphore11waitTimeoutEm:
 1876              	.LFB79:
 1877              		.loc 1 425 0
 1878              		.cfi_startproc
 1879              		@ args = 0, pretend = 0, frame = 0
 1880              		@ frame_needed = 0, uses_anonymous_args = 0
 1881              		@ link register save eliminated.
 1882              	.LVL140:
 1883              		.loc 1 428 0
 1884              		.loc 1 427 0
 1885 0000 FFF7FEBF 		b	chSemWaitTimeout
 1886              	.LVL141:
 1887              	.LVL142:
 1888              		.cfi_endproc
 1889              	.LFE79:
 1890              		.size	_ZN10chibios_rt16CounterSemaphore11waitTimeoutEm, .-_ZN10chibios_rt16CounterSemaphore11waitT
 1891 0004 AFF30080 		.section	.text._ZN10chibios_rt16CounterSemaphore12waitTimeoutSEm,"ax",%progbits
 1891      AFF30080 
 1891      AFF30080 
 1892              		.align	2
 1893              		.p2align 4,,15
 1894              		.global	_ZN10chibios_rt16CounterSemaphore12waitTimeoutSEm
 1895              		.thumb
 1896              		.thumb_func
 1897              		.type	_ZN10chibios_rt16CounterSemaphore12waitTimeoutSEm, %function
 1898              	_ZN10chibios_rt16CounterSemaphore12waitTimeoutSEm:
 1899              	.LFB80:
 1900              		.loc 1 430 0
 1901              		.cfi_startproc
 1902              		@ args = 0, pretend = 0, frame = 0
 1903              		@ frame_needed = 0, uses_anonymous_args = 0
 1904              		@ link register save eliminated.
 1905              	.LVL143:
 1906              		.loc 1 433 0
 1907              		.loc 1 432 0
 1908 0000 FFF7FEBF 		b	chSemWaitTimeoutS
 1909              	.LVL144:
 1910              	.LVL145:
 1911              		.cfi_endproc
 1912              	.LFE80:
 1913              		.size	_ZN10chibios_rt16CounterSemaphore12waitTimeoutSEm, .-_ZN10chibios_rt16CounterSemaphore12wait
 1914 0004 AFF30080 		.section	.text._ZN10chibios_rt16CounterSemaphore6signalEv,"ax",%progbits
 1914      AFF30080 
 1914      AFF30080 
 1915              		.align	2
 1916              		.p2align 4,,15
 1917              		.global	_ZN10chibios_rt16CounterSemaphore6signalEv
ARM GAS  /tmp/ccq01laD.s 			page 36


 1918              		.thumb
 1919              		.thumb_func
 1920              		.type	_ZN10chibios_rt16CounterSemaphore6signalEv, %function
 1921              	_ZN10chibios_rt16CounterSemaphore6signalEv:
 1922              	.LFB81:
 1923              		.loc 1 435 0
 1924              		.cfi_startproc
 1925              		@ args = 0, pretend = 0, frame = 0
 1926              		@ frame_needed = 0, uses_anonymous_args = 0
 1927              		@ link register save eliminated.
 1928              	.LVL146:
 1929              		.loc 1 438 0
 1930              		.loc 1 437 0
 1931 0000 FFF7FEBF 		b	chSemSignal
 1932              	.LVL147:
 1933              		.cfi_endproc
 1934              	.LFE81:
 1935              		.size	_ZN10chibios_rt16CounterSemaphore6signalEv, .-_ZN10chibios_rt16CounterSemaphore6signalEv
 1936 0004 AFF30080 		.section	.text._ZN10chibios_rt16CounterSemaphore7signalIEv,"ax",%progbits
 1936      AFF30080 
 1936      AFF30080 
 1937              		.align	2
 1938              		.p2align 4,,15
 1939              		.global	_ZN10chibios_rt16CounterSemaphore7signalIEv
 1940              		.thumb
 1941              		.thumb_func
 1942              		.type	_ZN10chibios_rt16CounterSemaphore7signalIEv, %function
 1943              	_ZN10chibios_rt16CounterSemaphore7signalIEv:
 1944              	.LFB82:
 1945              		.loc 1 440 0
 1946              		.cfi_startproc
 1947              		@ args = 0, pretend = 0, frame = 0
 1948              		@ frame_needed = 0, uses_anonymous_args = 0
 1949              		@ link register save eliminated.
 1950              	.LVL148:
 1951              		.loc 1 443 0
 1952              		.loc 1 442 0
 1953 0000 FFF7FEBF 		b	chSemSignalI
 1954              	.LVL149:
 1955              		.cfi_endproc
 1956              	.LFE82:
 1957              		.size	_ZN10chibios_rt16CounterSemaphore7signalIEv, .-_ZN10chibios_rt16CounterSemaphore7signalIEv
 1958 0004 AFF30080 		.section	.text._ZN10chibios_rt16CounterSemaphore11addCounterIEl,"ax",%progbits
 1958      AFF30080 
 1958      AFF30080 
 1959              		.align	2
 1960              		.p2align 4,,15
 1961              		.global	_ZN10chibios_rt16CounterSemaphore11addCounterIEl
 1962              		.thumb
 1963              		.thumb_func
 1964              		.type	_ZN10chibios_rt16CounterSemaphore11addCounterIEl, %function
 1965              	_ZN10chibios_rt16CounterSemaphore11addCounterIEl:
 1966              	.LFB83:
 1967              		.loc 1 445 0
 1968              		.cfi_startproc
 1969              		@ args = 0, pretend = 0, frame = 0
 1970              		@ frame_needed = 0, uses_anonymous_args = 0
ARM GAS  /tmp/ccq01laD.s 			page 37


 1971              		@ link register save eliminated.
 1972              	.LVL150:
 1973              		.loc 1 448 0
 1974              		.loc 1 447 0
 1975 0000 FFF7FEBF 		b	chSemAddCounterI
 1976              	.LVL151:
 1977              	.LVL152:
 1978              		.cfi_endproc
 1979              	.LFE83:
 1980              		.size	_ZN10chibios_rt16CounterSemaphore11addCounterIEl, .-_ZN10chibios_rt16CounterSemaphore11addCo
 1981 0004 AFF30080 		.section	.text._ZN10chibios_rt16CounterSemaphore11getCounterIEv,"ax",%progbits
 1981      AFF30080 
 1981      AFF30080 
 1982              		.align	2
 1983              		.p2align 4,,15
 1984              		.global	_ZN10chibios_rt16CounterSemaphore11getCounterIEv
 1985              		.thumb
 1986              		.thumb_func
 1987              		.type	_ZN10chibios_rt16CounterSemaphore11getCounterIEv, %function
 1988              	_ZN10chibios_rt16CounterSemaphore11getCounterIEv:
 1989              	.LFB84:
 1990              		.loc 1 450 0
 1991              		.cfi_startproc
 1992              		@ args = 0, pretend = 0, frame = 0
 1993              		@ frame_needed = 0, uses_anonymous_args = 0
 1994              		@ link register save eliminated.
 1995              	.LVL153:
 1996              		.loc 1 452 0
 1997 0000 8068     		ldr	r0, [r0, #8]
 1998              	.LVL154:
 1999              		.loc 1 453 0
 2000 0002 7047     		bx	lr
 2001              		.cfi_endproc
 2002              	.LFE84:
 2003              		.size	_ZN10chibios_rt16CounterSemaphore11getCounterIEv, .-_ZN10chibios_rt16CounterSemaphore11getCo
 2004 0004 AFF30080 		.section	.text._ZN10chibios_rt16CounterSemaphore10signalWaitEPS0_S1_,"ax",%progbits
 2004      AFF30080 
 2004      AFF30080 
 2005              		.align	2
 2006              		.p2align 4,,15
 2007              		.global	_ZN10chibios_rt16CounterSemaphore10signalWaitEPS0_S1_
 2008              		.thumb
 2009              		.thumb_func
 2010              		.type	_ZN10chibios_rt16CounterSemaphore10signalWaitEPS0_S1_, %function
 2011              	_ZN10chibios_rt16CounterSemaphore10signalWaitEPS0_S1_:
 2012              	.LFB85:
 2013              		.loc 1 457 0
 2014              		.cfi_startproc
 2015              		@ args = 0, pretend = 0, frame = 0
 2016              		@ frame_needed = 0, uses_anonymous_args = 0
 2017              		@ link register save eliminated.
 2018              	.LVL155:
 2019              		.loc 1 460 0
 2020              		.loc 1 459 0
 2021 0000 FFF7FEBF 		b	chSemSignalWait
 2022              	.LVL156:
 2023              	.LVL157:
ARM GAS  /tmp/ccq01laD.s 			page 38


 2024              		.cfi_endproc
 2025              	.LFE85:
 2026              		.size	_ZN10chibios_rt16CounterSemaphore10signalWaitEPS0_S1_, .-_ZN10chibios_rt16CounterSemaphore10
 2027 0004 AFF30080 		.section	.text._ZN10chibios_rt15BinarySemaphoreC2Eb,"ax",%progbits
 2027      AFF30080 
 2027      AFF30080 
 2028              		.align	2
 2029              		.p2align 4,,15
 2030              		.global	_ZN10chibios_rt15BinarySemaphoreC2Eb
 2031              		.thumb
 2032              		.thumb_func
 2033              		.type	_ZN10chibios_rt15BinarySemaphoreC2Eb, %function
 2034              	_ZN10chibios_rt15BinarySemaphoreC2Eb:
 2035              	.LFB87:
 2036              		.loc 1 466 0
 2037              		.cfi_startproc
 2038              		@ args = 0, pretend = 0, frame = 0
 2039              		@ frame_needed = 0, uses_anonymous_args = 0
 2040              	.LVL158:
 2041 0000 10B5     		push	{r4, lr}
 2042              	.LCFI22:
 2043              		.cfi_def_cfa_offset 8
 2044              		.cfi_offset 14, -4
 2045              		.cfi_offset 4, -8
 2046              	.LBB63:
 2047              		.loc 1 468 0
 2048 0002 81F00101 		eor	r1, r1, #1
 2049              	.LVL159:
 2050              	.LBE63:
 2051              		.loc 1 466 0
 2052 0006 0446     		mov	r4, r0
 2053              	.LBB64:
 2054              		.loc 1 468 0
 2055 0008 FFF7FEFF 		bl	chSemInit
 2056              	.LVL160:
 2057              	.LBE64:
 2058              		.loc 1 469 0
 2059 000c 2046     		mov	r0, r4
 2060 000e 10BD     		pop	{r4, pc}
 2061              		.cfi_endproc
 2062              	.LFE87:
 2063              		.size	_ZN10chibios_rt15BinarySemaphoreC2Eb, .-_ZN10chibios_rt15BinarySemaphoreC2Eb
 2064              		.section	.text._ZN10chibios_rt15BinarySemaphore4waitEv,"ax",%progbits
 2065              		.align	2
 2066              		.p2align 4,,15
 2067              		.global	_ZN10chibios_rt15BinarySemaphore4waitEv
 2068              		.thumb
 2069              		.thumb_func
 2070              		.type	_ZN10chibios_rt15BinarySemaphore4waitEv, %function
 2071              	_ZN10chibios_rt15BinarySemaphore4waitEv:
 2072              	.LFB89:
 2073              		.loc 1 471 0
 2074              		.cfi_startproc
 2075              		@ args = 0, pretend = 0, frame = 0
 2076              		@ frame_needed = 0, uses_anonymous_args = 0
 2077              		@ link register save eliminated.
 2078              	.LVL161:
ARM GAS  /tmp/ccq01laD.s 			page 39


 2079              		.loc 1 474 0
 2080              		.loc 1 473 0
 2081 0000 FFF7FEBF 		b	chSemWait
 2082              	.LVL162:
 2083              		.cfi_endproc
 2084              	.LFE89:
 2085              		.size	_ZN10chibios_rt15BinarySemaphore4waitEv, .-_ZN10chibios_rt15BinarySemaphore4waitEv
 2086 0004 AFF30080 		.section	.text._ZN10chibios_rt15BinarySemaphore5waitSEv,"ax",%progbits
 2086      AFF30080 
 2086      AFF30080 
 2087              		.align	2
 2088              		.p2align 4,,15
 2089              		.global	_ZN10chibios_rt15BinarySemaphore5waitSEv
 2090              		.thumb
 2091              		.thumb_func
 2092              		.type	_ZN10chibios_rt15BinarySemaphore5waitSEv, %function
 2093              	_ZN10chibios_rt15BinarySemaphore5waitSEv:
 2094              	.LFB90:
 2095              		.loc 1 476 0
 2096              		.cfi_startproc
 2097              		@ args = 0, pretend = 0, frame = 0
 2098              		@ frame_needed = 0, uses_anonymous_args = 0
 2099              		@ link register save eliminated.
 2100              	.LVL163:
 2101              		.loc 1 479 0
 2102              		.loc 1 478 0
 2103 0000 FFF7FEBF 		b	chSemWaitS
 2104              	.LVL164:
 2105              		.cfi_endproc
 2106              	.LFE90:
 2107              		.size	_ZN10chibios_rt15BinarySemaphore5waitSEv, .-_ZN10chibios_rt15BinarySemaphore5waitSEv
 2108 0004 AFF30080 		.section	.text._ZN10chibios_rt15BinarySemaphore11waitTimeoutEm,"ax",%progbits
 2108      AFF30080 
 2108      AFF30080 
 2109              		.align	2
 2110              		.p2align 4,,15
 2111              		.global	_ZN10chibios_rt15BinarySemaphore11waitTimeoutEm
 2112              		.thumb
 2113              		.thumb_func
 2114              		.type	_ZN10chibios_rt15BinarySemaphore11waitTimeoutEm, %function
 2115              	_ZN10chibios_rt15BinarySemaphore11waitTimeoutEm:
 2116              	.LFB91:
 2117              		.loc 1 481 0
 2118              		.cfi_startproc
 2119              		@ args = 0, pretend = 0, frame = 0
 2120              		@ frame_needed = 0, uses_anonymous_args = 0
 2121              		@ link register save eliminated.
 2122              	.LVL165:
 2123              		.loc 1 484 0
 2124              		.loc 1 483 0
 2125 0000 FFF7FEBF 		b	chSemWaitTimeout
 2126              	.LVL166:
 2127              	.LVL167:
 2128              		.cfi_endproc
 2129              	.LFE91:
 2130              		.size	_ZN10chibios_rt15BinarySemaphore11waitTimeoutEm, .-_ZN10chibios_rt15BinarySemaphore11waitTim
 2131 0004 AFF30080 		.section	.text._ZN10chibios_rt15BinarySemaphore12waitTimeoutSEm,"ax",%progbits
ARM GAS  /tmp/ccq01laD.s 			page 40


 2131      AFF30080 
 2131      AFF30080 
 2132              		.align	2
 2133              		.p2align 4,,15
 2134              		.global	_ZN10chibios_rt15BinarySemaphore12waitTimeoutSEm
 2135              		.thumb
 2136              		.thumb_func
 2137              		.type	_ZN10chibios_rt15BinarySemaphore12waitTimeoutSEm, %function
 2138              	_ZN10chibios_rt15BinarySemaphore12waitTimeoutSEm:
 2139              	.LFB92:
 2140              		.loc 1 486 0
 2141              		.cfi_startproc
 2142              		@ args = 0, pretend = 0, frame = 0
 2143              		@ frame_needed = 0, uses_anonymous_args = 0
 2144              		@ link register save eliminated.
 2145              	.LVL168:
 2146              		.loc 1 489 0
 2147              		.loc 1 488 0
 2148 0000 FFF7FEBF 		b	chSemWaitTimeoutS
 2149              	.LVL169:
 2150              	.LVL170:
 2151              		.cfi_endproc
 2152              	.LFE92:
 2153              		.size	_ZN10chibios_rt15BinarySemaphore12waitTimeoutSEm, .-_ZN10chibios_rt15BinarySemaphore12waitTi
 2154 0004 AFF30080 		.section	.text._ZN10chibios_rt15BinarySemaphore5resetEb,"ax",%progbits
 2154      AFF30080 
 2154      AFF30080 
 2155              		.align	2
 2156              		.p2align 4,,15
 2157              		.global	_ZN10chibios_rt15BinarySemaphore5resetEb
 2158              		.thumb
 2159              		.thumb_func
 2160              		.type	_ZN10chibios_rt15BinarySemaphore5resetEb, %function
 2161              	_ZN10chibios_rt15BinarySemaphore5resetEb:
 2162              	.LFB93:
 2163              		.loc 1 491 0
 2164              		.cfi_startproc
 2165              		@ args = 0, pretend = 0, frame = 0
 2166              		@ frame_needed = 0, uses_anonymous_args = 0
 2167              		@ link register save eliminated.
 2168              	.LVL171:
 2169              		.loc 1 493 0
 2170 0000 81F00101 		eor	r1, r1, #1
 2171              	.LVL172:
 2172              		.loc 1 494 0
 2173              		.loc 1 493 0
 2174 0004 FFF7FEBF 		b	chSemReset
 2175              	.LVL173:
 2176              		.cfi_endproc
 2177              	.LFE93:
 2178              		.size	_ZN10chibios_rt15BinarySemaphore5resetEb, .-_ZN10chibios_rt15BinarySemaphore5resetEb
 2179 0008 AFF30080 		.section	.text._ZN10chibios_rt15BinarySemaphore6resetIEb,"ax",%progbits
 2179      AFF30080 
 2180              		.align	2
 2181              		.p2align 4,,15
 2182              		.global	_ZN10chibios_rt15BinarySemaphore6resetIEb
 2183              		.thumb
ARM GAS  /tmp/ccq01laD.s 			page 41


 2184              		.thumb_func
 2185              		.type	_ZN10chibios_rt15BinarySemaphore6resetIEb, %function
 2186              	_ZN10chibios_rt15BinarySemaphore6resetIEb:
 2187              	.LFB94:
 2188              		.loc 1 496 0
 2189              		.cfi_startproc
 2190              		@ args = 0, pretend = 0, frame = 0
 2191              		@ frame_needed = 0, uses_anonymous_args = 0
 2192              		@ link register save eliminated.
 2193              	.LVL174:
 2194              		.loc 1 498 0
 2195 0000 81F00101 		eor	r1, r1, #1
 2196              	.LVL175:
 2197              		.loc 1 499 0
 2198              		.loc 1 498 0
 2199 0004 FFF7FEBF 		b	chSemResetI
 2200              	.LVL176:
 2201              		.cfi_endproc
 2202              	.LFE94:
 2203              		.size	_ZN10chibios_rt15BinarySemaphore6resetIEb, .-_ZN10chibios_rt15BinarySemaphore6resetIEb
 2204 0008 AFF30080 		.section	.text._ZN10chibios_rt15BinarySemaphore6signalEv,"ax",%progbits
 2204      AFF30080 
 2205              		.align	2
 2206              		.p2align 4,,15
 2207              		.global	_ZN10chibios_rt15BinarySemaphore6signalEv
 2208              		.thumb
 2209              		.thumb_func
 2210              		.type	_ZN10chibios_rt15BinarySemaphore6signalEv, %function
 2211              	_ZN10chibios_rt15BinarySemaphore6signalEv:
 2212              	.LFB95:
 2213              		.loc 1 501 0
 2214              		.cfi_startproc
 2215              		@ args = 0, pretend = 0, frame = 0
 2216              		@ frame_needed = 0, uses_anonymous_args = 0
 2217              	.LVL177:
 2218 0000 10B5     		push	{r4, lr}
 2219              	.LCFI23:
 2220              		.cfi_def_cfa_offset 8
 2221              		.cfi_offset 14, -4
 2222              		.cfi_offset 4, -8
 2223              	.LBB65:
 2224              	.LBB66:
 2225              	.LBB67:
 2226              		.loc 1 503 0
 2227 0002 2023     		movs	r3, #32
 2228              	.LVL178:
 2229              	.LBE67:
 2230              	.LBE66:
 2231              	.LBE65:
 2232              		.loc 1 501 0
 2233 0004 0446     		mov	r4, r0
 2234              	.LBB74:
 2235              	.LBB69:
 2236              	.LBB68:
 2237              		.loc 1 503 0
 2238              	@ 503 "../../ChibiOS/os/various/cpp_wrappers/ch.cpp" 1
 2239 0006 83F31188 		msr     BASEPRI, r3
ARM GAS  /tmp/ccq01laD.s 			page 42


 2240              	@ 0 "" 2
 2241              	.LVL179:
 2242              		.thumb
 2243              	.LBE68:
 2244 000a FFF7FEFF 		bl	dbg_check_lock
 2245              	.LVL180:
 2246              	.LBE69:
 2247 000e A368     		ldr	r3, [r4, #8]
 2248 0010 002B     		cmp	r3, #0
 2249 0012 07DD     		ble	.L136
 2250              		.loc 1 503 0 is_stmt 0 discriminator 2
 2251 0014 FFF7FEFF 		bl	chSchRescheduleS
 2252              	.LBB70:
 2253 0018 FFF7FEFF 		bl	dbg_check_unlock
 2254              	.LBB71:
 2255 001c 0023     		movs	r3, #0
 2256              	.LVL181:
 2257              	@ 503 "../../ChibiOS/os/various/cpp_wrappers/ch.cpp" 1
 2258 001e 83F31188 		msr     BASEPRI, r3
 2259              	@ 0 "" 2
 2260              	.LVL182:
 2261              		.thumb
 2262              	.LBE71:
 2263              	.LBE70:
 2264              	.LBE74:
 2265              		.loc 1 504 0 is_stmt 1 discriminator 2
 2266 0022 10BD     		pop	{r4, pc}
 2267              	.LVL183:
 2268              	.L136:
 2269              	.LBB75:
 2270              		.loc 1 503 0 discriminator 1
 2271 0024 2046     		mov	r0, r4
 2272 0026 FFF7FEFF 		bl	chSemSignalI
 2273 002a FFF7FEFF 		bl	chSchRescheduleS
 2274              	.LBB73:
 2275 002e FFF7FEFF 		bl	dbg_check_unlock
 2276              	.LBB72:
 2277 0032 0023     		movs	r3, #0
 2278              	@ 503 "../../ChibiOS/os/various/cpp_wrappers/ch.cpp" 1
 2279 0034 83F31188 		msr     BASEPRI, r3
 2280              	@ 0 "" 2
 2281              	.LVL184:
 2282              		.thumb
 2283              	.LBE72:
 2284              	.LBE73:
 2285              	.LBE75:
 2286              		.loc 1 504 0 discriminator 1
 2287 0038 10BD     		pop	{r4, pc}
 2288              		.cfi_endproc
 2289              	.LFE95:
 2290              		.size	_ZN10chibios_rt15BinarySemaphore6signalEv, .-_ZN10chibios_rt15BinarySemaphore6signalEv
 2291 003a 00BFAFF3 		.section	.text._ZN10chibios_rt15BinarySemaphore7signalIEv,"ax",%progbits
 2291      0080
 2292              		.align	2
 2293              		.p2align 4,,15
 2294              		.global	_ZN10chibios_rt15BinarySemaphore7signalIEv
 2295              		.thumb
ARM GAS  /tmp/ccq01laD.s 			page 43


 2296              		.thumb_func
 2297              		.type	_ZN10chibios_rt15BinarySemaphore7signalIEv, %function
 2298              	_ZN10chibios_rt15BinarySemaphore7signalIEv:
 2299              	.LFB96:
 2300              		.loc 1 506 0
 2301              		.cfi_startproc
 2302              		@ args = 0, pretend = 0, frame = 0
 2303              		@ frame_needed = 0, uses_anonymous_args = 0
 2304              		@ link register save eliminated.
 2305              	.LVL185:
 2306              		.loc 1 508 0
 2307 0000 8368     		ldr	r3, [r0, #8]
 2308 0002 002B     		cmp	r3, #0
 2309 0004 00DD     		ble	.L139
 2310 0006 7047     		bx	lr
 2311              	.L139:
 2312              		.loc 1 509 0 discriminator 1
 2313              		.loc 1 508 0 discriminator 1
 2314 0008 FFF7FEBF 		b	chSemSignalI
 2315              	.LVL186:
 2316              		.cfi_endproc
 2317              	.LFE96:
 2318              		.size	_ZN10chibios_rt15BinarySemaphore7signalIEv, .-_ZN10chibios_rt15BinarySemaphore7signalIEv
 2319 000c AFF30080 		.section	.text._ZN10chibios_rt15BinarySemaphore9getStateIEv,"ax",%progbits
 2320              		.align	2
 2321              		.p2align 4,,15
 2322              		.global	_ZN10chibios_rt15BinarySemaphore9getStateIEv
 2323              		.thumb
 2324              		.thumb_func
 2325              		.type	_ZN10chibios_rt15BinarySemaphore9getStateIEv, %function
 2326              	_ZN10chibios_rt15BinarySemaphore9getStateIEv:
 2327              	.LFB97:
 2328              		.loc 1 511 0
 2329              		.cfi_startproc
 2330              		@ args = 0, pretend = 0, frame = 0
 2331              		@ frame_needed = 0, uses_anonymous_args = 0
 2332              		@ link register save eliminated.
 2333              	.LVL187:
 2334              		.loc 1 513 0
 2335 0000 8068     		ldr	r0, [r0, #8]
 2336              	.LVL188:
 2337 0002 0028     		cmp	r0, #0
 2338 0004 CCBF     		ite	gt
 2339 0006 0020     		movgt	r0, #0
 2340 0008 0120     		movle	r0, #1
 2341              		.loc 1 514 0
 2342 000a 7047     		bx	lr
 2343              		.cfi_endproc
 2344              	.LFE97:
 2345              		.size	_ZN10chibios_rt15BinarySemaphore9getStateIEv, .-_ZN10chibios_rt15BinarySemaphore9getStateIEv
 2346 000c AFF30080 		.section	.text._ZN10chibios_rt5MutexC2Ev,"ax",%progbits
 2347              		.align	2
 2348              		.p2align 4,,15
 2349              		.global	_ZN10chibios_rt5MutexC2Ev
 2350              		.thumb
 2351              		.thumb_func
 2352              		.type	_ZN10chibios_rt5MutexC2Ev, %function
ARM GAS  /tmp/ccq01laD.s 			page 44


 2353              	_ZN10chibios_rt5MutexC2Ev:
 2354              	.LFB99:
 2355              		.loc 1 521 0
 2356              		.cfi_startproc
 2357              		@ args = 0, pretend = 0, frame = 0
 2358              		@ frame_needed = 0, uses_anonymous_args = 0
 2359              	.LVL189:
 2360 0000 10B5     		push	{r4, lr}
 2361              	.LCFI24:
 2362              		.cfi_def_cfa_offset 8
 2363              		.cfi_offset 14, -4
 2364              		.cfi_offset 4, -8
 2365              		.loc 1 521 0
 2366 0002 0446     		mov	r4, r0
 2367              	.LBB76:
 2368              		.loc 1 523 0
 2369 0004 FFF7FEFF 		bl	chMtxInit
 2370              	.LVL190:
 2371              	.LBE76:
 2372              		.loc 1 524 0
 2373 0008 2046     		mov	r0, r4
 2374 000a 10BD     		pop	{r4, pc}
 2375              		.cfi_endproc
 2376              	.LFE99:
 2377              		.size	_ZN10chibios_rt5MutexC2Ev, .-_ZN10chibios_rt5MutexC2Ev
 2378 000c AFF30080 		.section	.text._ZN10chibios_rt5Mutex7tryLockEv,"ax",%progbits
 2379              		.align	2
 2380              		.p2align 4,,15
 2381              		.global	_ZN10chibios_rt5Mutex7tryLockEv
 2382              		.thumb
 2383              		.thumb_func
 2384              		.type	_ZN10chibios_rt5Mutex7tryLockEv, %function
 2385              	_ZN10chibios_rt5Mutex7tryLockEv:
 2386              	.LFB101:
 2387              		.loc 1 526 0
 2388              		.cfi_startproc
 2389              		@ args = 0, pretend = 0, frame = 0
 2390              		@ frame_needed = 0, uses_anonymous_args = 0
 2391              		@ link register save eliminated.
 2392              	.LVL191:
 2393              		.loc 1 529 0
 2394              		.loc 1 528 0
 2395 0000 FFF7FEBF 		b	chMtxTryLock
 2396              	.LVL192:
 2397              		.cfi_endproc
 2398              	.LFE101:
 2399              		.size	_ZN10chibios_rt5Mutex7tryLockEv, .-_ZN10chibios_rt5Mutex7tryLockEv
 2400 0004 AFF30080 		.section	.text._ZN10chibios_rt5Mutex8tryLockSEv,"ax",%progbits
 2400      AFF30080 
 2400      AFF30080 
 2401              		.align	2
 2402              		.p2align 4,,15
 2403              		.global	_ZN10chibios_rt5Mutex8tryLockSEv
 2404              		.thumb
 2405              		.thumb_func
 2406              		.type	_ZN10chibios_rt5Mutex8tryLockSEv, %function
 2407              	_ZN10chibios_rt5Mutex8tryLockSEv:
ARM GAS  /tmp/ccq01laD.s 			page 45


 2408              	.LFB102:
 2409              		.loc 1 531 0
 2410              		.cfi_startproc
 2411              		@ args = 0, pretend = 0, frame = 0
 2412              		@ frame_needed = 0, uses_anonymous_args = 0
 2413              		@ link register save eliminated.
 2414              	.LVL193:
 2415              		.loc 1 534 0
 2416              		.loc 1 533 0
 2417 0000 FFF7FEBF 		b	chMtxTryLockS
 2418              	.LVL194:
 2419              		.cfi_endproc
 2420              	.LFE102:
 2421              		.size	_ZN10chibios_rt5Mutex8tryLockSEv, .-_ZN10chibios_rt5Mutex8tryLockSEv
 2422 0004 AFF30080 		.section	.text._ZN10chibios_rt5Mutex4lockEv,"ax",%progbits
 2422      AFF30080 
 2422      AFF30080 
 2423              		.align	2
 2424              		.p2align 4,,15
 2425              		.global	_ZN10chibios_rt5Mutex4lockEv
 2426              		.thumb
 2427              		.thumb_func
 2428              		.type	_ZN10chibios_rt5Mutex4lockEv, %function
 2429              	_ZN10chibios_rt5Mutex4lockEv:
 2430              	.LFB103:
 2431              		.loc 1 536 0
 2432              		.cfi_startproc
 2433              		@ args = 0, pretend = 0, frame = 0
 2434              		@ frame_needed = 0, uses_anonymous_args = 0
 2435              		@ link register save eliminated.
 2436              	.LVL195:
 2437              		.loc 1 539 0
 2438              		.loc 1 538 0
 2439 0000 FFF7FEBF 		b	chMtxLock
 2440              	.LVL196:
 2441              		.cfi_endproc
 2442              	.LFE103:
 2443              		.size	_ZN10chibios_rt5Mutex4lockEv, .-_ZN10chibios_rt5Mutex4lockEv
 2444 0004 AFF30080 		.section	.text._ZN10chibios_rt5Mutex5lockSEv,"ax",%progbits
 2444      AFF30080 
 2444      AFF30080 
 2445              		.align	2
 2446              		.p2align 4,,15
 2447              		.global	_ZN10chibios_rt5Mutex5lockSEv
 2448              		.thumb
 2449              		.thumb_func
 2450              		.type	_ZN10chibios_rt5Mutex5lockSEv, %function
 2451              	_ZN10chibios_rt5Mutex5lockSEv:
 2452              	.LFB104:
 2453              		.loc 1 541 0
 2454              		.cfi_startproc
 2455              		@ args = 0, pretend = 0, frame = 0
 2456              		@ frame_needed = 0, uses_anonymous_args = 0
 2457              		@ link register save eliminated.
 2458              	.LVL197:
 2459              		.loc 1 544 0
 2460              		.loc 1 543 0
ARM GAS  /tmp/ccq01laD.s 			page 46


 2461 0000 FFF7FEBF 		b	chMtxLockS
 2462              	.LVL198:
 2463              		.cfi_endproc
 2464              	.LFE104:
 2465              		.size	_ZN10chibios_rt5Mutex5lockSEv, .-_ZN10chibios_rt5Mutex5lockSEv
 2466 0004 AFF30080 		.section	.text._ZN10chibios_rt7CondVarC2Ev,"ax",%progbits
 2466      AFF30080 
 2466      AFF30080 
 2467              		.align	2
 2468              		.p2align 4,,15
 2469              		.global	_ZN10chibios_rt7CondVarC2Ev
 2470              		.thumb
 2471              		.thumb_func
 2472              		.type	_ZN10chibios_rt7CondVarC2Ev, %function
 2473              	_ZN10chibios_rt7CondVarC2Ev:
 2474              	.LFB106:
 2475              		.loc 1 550 0
 2476              		.cfi_startproc
 2477              		@ args = 0, pretend = 0, frame = 0
 2478              		@ frame_needed = 0, uses_anonymous_args = 0
 2479              	.LVL199:
 2480 0000 10B5     		push	{r4, lr}
 2481              	.LCFI25:
 2482              		.cfi_def_cfa_offset 8
 2483              		.cfi_offset 14, -4
 2484              		.cfi_offset 4, -8
 2485              		.loc 1 550 0
 2486 0002 0446     		mov	r4, r0
 2487              	.LBB77:
 2488              		.loc 1 552 0
 2489 0004 FFF7FEFF 		bl	chCondInit
 2490              	.LVL200:
 2491              	.LBE77:
 2492              		.loc 1 553 0
 2493 0008 2046     		mov	r0, r4
 2494 000a 10BD     		pop	{r4, pc}
 2495              		.cfi_endproc
 2496              	.LFE106:
 2497              		.size	_ZN10chibios_rt7CondVarC2Ev, .-_ZN10chibios_rt7CondVarC2Ev
 2498 000c AFF30080 		.section	.text._ZN10chibios_rt7CondVar6signalEv,"ax",%progbits
 2499              		.align	2
 2500              		.p2align 4,,15
 2501              		.global	_ZN10chibios_rt7CondVar6signalEv
 2502              		.thumb
 2503              		.thumb_func
 2504              		.type	_ZN10chibios_rt7CondVar6signalEv, %function
 2505              	_ZN10chibios_rt7CondVar6signalEv:
 2506              	.LFB108:
 2507              		.loc 1 555 0
 2508              		.cfi_startproc
 2509              		@ args = 0, pretend = 0, frame = 0
 2510              		@ frame_needed = 0, uses_anonymous_args = 0
 2511              		@ link register save eliminated.
 2512              	.LVL201:
 2513              		.loc 1 558 0
 2514              		.loc 1 557 0
 2515 0000 FFF7FEBF 		b	chCondSignal
ARM GAS  /tmp/ccq01laD.s 			page 47


 2516              	.LVL202:
 2517              		.cfi_endproc
 2518              	.LFE108:
 2519              		.size	_ZN10chibios_rt7CondVar6signalEv, .-_ZN10chibios_rt7CondVar6signalEv
 2520 0004 AFF30080 		.section	.text._ZN10chibios_rt7CondVar7signalIEv,"ax",%progbits
 2520      AFF30080 
 2520      AFF30080 
 2521              		.align	2
 2522              		.p2align 4,,15
 2523              		.global	_ZN10chibios_rt7CondVar7signalIEv
 2524              		.thumb
 2525              		.thumb_func
 2526              		.type	_ZN10chibios_rt7CondVar7signalIEv, %function
 2527              	_ZN10chibios_rt7CondVar7signalIEv:
 2528              	.LFB109:
 2529              		.loc 1 560 0
 2530              		.cfi_startproc
 2531              		@ args = 0, pretend = 0, frame = 0
 2532              		@ frame_needed = 0, uses_anonymous_args = 0
 2533              		@ link register save eliminated.
 2534              	.LVL203:
 2535              		.loc 1 563 0
 2536              		.loc 1 562 0
 2537 0000 FFF7FEBF 		b	chCondSignalI
 2538              	.LVL204:
 2539              		.cfi_endproc
 2540              	.LFE109:
 2541              		.size	_ZN10chibios_rt7CondVar7signalIEv, .-_ZN10chibios_rt7CondVar7signalIEv
 2542 0004 AFF30080 		.section	.text._ZN10chibios_rt7CondVar9broadcastEv,"ax",%progbits
 2542      AFF30080 
 2542      AFF30080 
 2543              		.align	2
 2544              		.p2align 4,,15
 2545              		.global	_ZN10chibios_rt7CondVar9broadcastEv
 2546              		.thumb
 2547              		.thumb_func
 2548              		.type	_ZN10chibios_rt7CondVar9broadcastEv, %function
 2549              	_ZN10chibios_rt7CondVar9broadcastEv:
 2550              	.LFB110:
 2551              		.loc 1 565 0
 2552              		.cfi_startproc
 2553              		@ args = 0, pretend = 0, frame = 0
 2554              		@ frame_needed = 0, uses_anonymous_args = 0
 2555              		@ link register save eliminated.
 2556              	.LVL205:
 2557              		.loc 1 568 0
 2558              		.loc 1 567 0
 2559 0000 FFF7FEBF 		b	chCondBroadcast
 2560              	.LVL206:
 2561              		.cfi_endproc
 2562              	.LFE110:
 2563              		.size	_ZN10chibios_rt7CondVar9broadcastEv, .-_ZN10chibios_rt7CondVar9broadcastEv
 2564 0004 AFF30080 		.section	.text._ZN10chibios_rt7CondVar10broadcastIEv,"ax",%progbits
 2564      AFF30080 
 2564      AFF30080 
 2565              		.align	2
 2566              		.p2align 4,,15
ARM GAS  /tmp/ccq01laD.s 			page 48


 2567              		.global	_ZN10chibios_rt7CondVar10broadcastIEv
 2568              		.thumb
 2569              		.thumb_func
 2570              		.type	_ZN10chibios_rt7CondVar10broadcastIEv, %function
 2571              	_ZN10chibios_rt7CondVar10broadcastIEv:
 2572              	.LFB111:
 2573              		.loc 1 570 0
 2574              		.cfi_startproc
 2575              		@ args = 0, pretend = 0, frame = 0
 2576              		@ frame_needed = 0, uses_anonymous_args = 0
 2577              		@ link register save eliminated.
 2578              	.LVL207:
 2579              		.loc 1 573 0
 2580              		.loc 1 572 0
 2581 0000 FFF7FEBF 		b	chCondBroadcastI
 2582              	.LVL208:
 2583              		.cfi_endproc
 2584              	.LFE111:
 2585              		.size	_ZN10chibios_rt7CondVar10broadcastIEv, .-_ZN10chibios_rt7CondVar10broadcastIEv
 2586 0004 AFF30080 		.section	.text._ZN10chibios_rt7CondVar4waitEv,"ax",%progbits
 2586      AFF30080 
 2586      AFF30080 
 2587              		.align	2
 2588              		.p2align 4,,15
 2589              		.global	_ZN10chibios_rt7CondVar4waitEv
 2590              		.thumb
 2591              		.thumb_func
 2592              		.type	_ZN10chibios_rt7CondVar4waitEv, %function
 2593              	_ZN10chibios_rt7CondVar4waitEv:
 2594              	.LFB112:
 2595              		.loc 1 575 0
 2596              		.cfi_startproc
 2597              		@ args = 0, pretend = 0, frame = 0
 2598              		@ frame_needed = 0, uses_anonymous_args = 0
 2599              		@ link register save eliminated.
 2600              	.LVL209:
 2601              		.loc 1 578 0
 2602              		.loc 1 577 0
 2603 0000 FFF7FEBF 		b	chCondWait
 2604              	.LVL210:
 2605              		.cfi_endproc
 2606              	.LFE112:
 2607              		.size	_ZN10chibios_rt7CondVar4waitEv, .-_ZN10chibios_rt7CondVar4waitEv
 2608 0004 AFF30080 		.section	.text._ZN10chibios_rt7CondVar5waitSEv,"ax",%progbits
 2608      AFF30080 
 2608      AFF30080 
 2609              		.align	2
 2610              		.p2align 4,,15
 2611              		.global	_ZN10chibios_rt7CondVar5waitSEv
 2612              		.thumb
 2613              		.thumb_func
 2614              		.type	_ZN10chibios_rt7CondVar5waitSEv, %function
 2615              	_ZN10chibios_rt7CondVar5waitSEv:
 2616              	.LFB113:
 2617              		.loc 1 580 0
 2618              		.cfi_startproc
 2619              		@ args = 0, pretend = 0, frame = 0
ARM GAS  /tmp/ccq01laD.s 			page 49


 2620              		@ frame_needed = 0, uses_anonymous_args = 0
 2621              		@ link register save eliminated.
 2622              	.LVL211:
 2623              		.loc 1 583 0
 2624              		.loc 1 582 0
 2625 0000 FFF7FEBF 		b	chCondWaitS
 2626              	.LVL212:
 2627              		.cfi_endproc
 2628              	.LFE113:
 2629              		.size	_ZN10chibios_rt7CondVar5waitSEv, .-_ZN10chibios_rt7CondVar5waitSEv
 2630 0004 AFF30080 		.section	.text._ZN10chibios_rt7CondVar11waitTimeoutEm,"ax",%progbits
 2630      AFF30080 
 2630      AFF30080 
 2631              		.align	2
 2632              		.p2align 4,,15
 2633              		.global	_ZN10chibios_rt7CondVar11waitTimeoutEm
 2634              		.thumb
 2635              		.thumb_func
 2636              		.type	_ZN10chibios_rt7CondVar11waitTimeoutEm, %function
 2637              	_ZN10chibios_rt7CondVar11waitTimeoutEm:
 2638              	.LFB114:
 2639              		.loc 1 586 0
 2640              		.cfi_startproc
 2641              		@ args = 0, pretend = 0, frame = 0
 2642              		@ frame_needed = 0, uses_anonymous_args = 0
 2643              		@ link register save eliminated.
 2644              	.LVL213:
 2645              		.loc 1 589 0
 2646              		.loc 1 588 0
 2647 0000 FFF7FEBF 		b	chCondWaitTimeout
 2648              	.LVL214:
 2649              	.LVL215:
 2650              		.cfi_endproc
 2651              	.LFE114:
 2652              		.size	_ZN10chibios_rt7CondVar11waitTimeoutEm, .-_ZN10chibios_rt7CondVar11waitTimeoutEm
 2653 0004 AFF30080 		.section	.text._ZN10chibios_rt11EvtListener16getAndClearFlagsEv,"ax",%progbits
 2653      AFF30080 
 2653      AFF30080 
 2654              		.align	2
 2655              		.p2align 4,,15
 2656              		.global	_ZN10chibios_rt11EvtListener16getAndClearFlagsEv
 2657              		.thumb
 2658              		.thumb_func
 2659              		.type	_ZN10chibios_rt11EvtListener16getAndClearFlagsEv, %function
 2660              	_ZN10chibios_rt11EvtListener16getAndClearFlagsEv:
 2661              	.LFB115:
 2662              		.loc 1 598 0
 2663              		.cfi_startproc
 2664              		@ args = 0, pretend = 0, frame = 0
 2665              		@ frame_needed = 0, uses_anonymous_args = 0
 2666              		@ link register save eliminated.
 2667              	.LVL216:
 2668              		.loc 1 601 0
 2669              		.loc 1 600 0
 2670 0000 FFF7FEBF 		b	chEvtGetAndClearFlags
 2671              	.LVL217:
 2672              		.cfi_endproc
ARM GAS  /tmp/ccq01laD.s 			page 50


 2673              	.LFE115:
 2674              		.size	_ZN10chibios_rt11EvtListener16getAndClearFlagsEv, .-_ZN10chibios_rt11EvtListener16getAndClea
 2675 0004 AFF30080 		.section	.text._ZN10chibios_rt11EvtListener17getAndClearFlagsIEv,"ax",%progbits
 2675      AFF30080 
 2675      AFF30080 
 2676              		.align	2
 2677              		.p2align 4,,15
 2678              		.global	_ZN10chibios_rt11EvtListener17getAndClearFlagsIEv
 2679              		.thumb
 2680              		.thumb_func
 2681              		.type	_ZN10chibios_rt11EvtListener17getAndClearFlagsIEv, %function
 2682              	_ZN10chibios_rt11EvtListener17getAndClearFlagsIEv:
 2683              	.LFB116:
 2684              		.loc 1 603 0
 2685              		.cfi_startproc
 2686              		@ args = 0, pretend = 0, frame = 0
 2687              		@ frame_needed = 0, uses_anonymous_args = 0
 2688              		@ link register save eliminated.
 2689              	.LVL218:
 2690              		.loc 1 606 0
 2691              		.loc 1 605 0
 2692 0000 FFF7FEBF 		b	chEvtGetAndClearFlagsI
 2693              	.LVL219:
 2694              		.cfi_endproc
 2695              	.LFE116:
 2696              		.size	_ZN10chibios_rt11EvtListener17getAndClearFlagsIEv, .-_ZN10chibios_rt11EvtListener17getAndCle
 2697 0004 AFF30080 		.section	.text._ZN10chibios_rt9EvtSourceC2Ev,"ax",%progbits
 2697      AFF30080 
 2697      AFF30080 
 2698              		.align	2
 2699              		.p2align 4,,15
 2700              		.global	_ZN10chibios_rt9EvtSourceC2Ev
 2701              		.thumb
 2702              		.thumb_func
 2703              		.type	_ZN10chibios_rt9EvtSourceC2Ev, %function
 2704              	_ZN10chibios_rt9EvtSourceC2Ev:
 2705              	.LFB118:
 2706              		.loc 1 611 0
 2707              		.cfi_startproc
 2708              		@ args = 0, pretend = 0, frame = 0
 2709              		@ frame_needed = 0, uses_anonymous_args = 0
 2710              		@ link register save eliminated.
 2711              	.LVL220:
 2712              	.LBB78:
 2713              		.loc 1 613 0
 2714 0000 0060     		str	r0, [r0, #0]
 2715              	.LBE78:
 2716              		.loc 1 614 0
 2717 0002 7047     		bx	lr
 2718              		.cfi_endproc
 2719              	.LFE118:
 2720              		.size	_ZN10chibios_rt9EvtSourceC2Ev, .-_ZN10chibios_rt9EvtSourceC2Ev
 2721 0004 AFF30080 		.section	.text._ZN10chibios_rt9EvtSource11registerOneEPNS_11EvtListenerEl,"ax",%progbits
 2721      AFF30080 
 2721      AFF30080 
 2722              		.align	2
 2723              		.p2align 4,,15
ARM GAS  /tmp/ccq01laD.s 			page 51


 2724              		.global	_ZN10chibios_rt9EvtSource11registerOneEPNS_11EvtListenerEl
 2725              		.thumb
 2726              		.thumb_func
 2727              		.type	_ZN10chibios_rt9EvtSource11registerOneEPNS_11EvtListenerEl, %function
 2728              	_ZN10chibios_rt9EvtSource11registerOneEPNS_11EvtListenerEl:
 2729              	.LFB120:
 2730              		.loc 1 617 0
 2731              		.cfi_startproc
 2732              		@ args = 0, pretend = 0, frame = 0
 2733              		@ frame_needed = 0, uses_anonymous_args = 0
 2734              		@ link register save eliminated.
 2735              	.LVL221:
 2736              		.loc 1 619 0
 2737 0000 0123     		movs	r3, #1
 2738 0002 03FA02F2 		lsl	r2, r3, r2
 2739              	.LVL222:
 2740              		.loc 1 620 0
 2741              		.loc 1 619 0
 2742 0006 FFF7FEBF 		b	chEvtRegisterMask
 2743              	.LVL223:
 2744              	.LVL224:
 2745              		.cfi_endproc
 2746              	.LFE120:
 2747              		.size	_ZN10chibios_rt9EvtSource11registerOneEPNS_11EvtListenerEl, .-_ZN10chibios_rt9EvtSource11reg
 2748 000a 00BFAFF3 		.section	.text._ZN10chibios_rt9EvtSource12registerMaskEPNS_11EvtListenerEm,"ax",%progbits
 2748      0080
 2749              		.align	2
 2750              		.p2align 4,,15
 2751              		.global	_ZN10chibios_rt9EvtSource12registerMaskEPNS_11EvtListenerEm
 2752              		.thumb
 2753              		.thumb_func
 2754              		.type	_ZN10chibios_rt9EvtSource12registerMaskEPNS_11EvtListenerEm, %function
 2755              	_ZN10chibios_rt9EvtSource12registerMaskEPNS_11EvtListenerEm:
 2756              	.LFB121:
 2757              		.loc 1 623 0
 2758              		.cfi_startproc
 2759              		@ args = 0, pretend = 0, frame = 0
 2760              		@ frame_needed = 0, uses_anonymous_args = 0
 2761              		@ link register save eliminated.
 2762              	.LVL225:
 2763              		.loc 1 626 0
 2764              		.loc 1 625 0
 2765 0000 FFF7FEBF 		b	chEvtRegisterMask
 2766              	.LVL226:
 2767              	.LVL227:
 2768              	.LVL228:
 2769              		.cfi_endproc
 2770              	.LFE121:
 2771              		.size	_ZN10chibios_rt9EvtSource12registerMaskEPNS_11EvtListenerEm, .-_ZN10chibios_rt9EvtSource12re
 2772 0004 AFF30080 		.section	.text._ZN10chibios_rt9EvtSource10unregisterEPNS_11EvtListenerE,"ax",%progbits
 2772      AFF30080 
 2772      AFF30080 
 2773              		.align	2
 2774              		.p2align 4,,15
 2775              		.global	_ZN10chibios_rt9EvtSource10unregisterEPNS_11EvtListenerE
 2776              		.thumb
 2777              		.thumb_func
ARM GAS  /tmp/ccq01laD.s 			page 52


 2778              		.type	_ZN10chibios_rt9EvtSource10unregisterEPNS_11EvtListenerE, %function
 2779              	_ZN10chibios_rt9EvtSource10unregisterEPNS_11EvtListenerE:
 2780              	.LFB122:
 2781              		.loc 1 628 0
 2782              		.cfi_startproc
 2783              		@ args = 0, pretend = 0, frame = 0
 2784              		@ frame_needed = 0, uses_anonymous_args = 0
 2785              		@ link register save eliminated.
 2786              	.LVL229:
 2787              		.loc 1 631 0
 2788              		.loc 1 630 0
 2789 0000 FFF7FEBF 		b	chEvtUnregister
 2790              	.LVL230:
 2791              	.LVL231:
 2792              		.cfi_endproc
 2793              	.LFE122:
 2794              		.size	_ZN10chibios_rt9EvtSource10unregisterEPNS_11EvtListenerE, .-_ZN10chibios_rt9EvtSource10unreg
 2795 0004 AFF30080 		.section	.text._ZN10chibios_rt9EvtSource14broadcastFlagsEm,"ax",%progbits
 2795      AFF30080 
 2795      AFF30080 
 2796              		.align	2
 2797              		.p2align 4,,15
 2798              		.global	_ZN10chibios_rt9EvtSource14broadcastFlagsEm
 2799              		.thumb
 2800              		.thumb_func
 2801              		.type	_ZN10chibios_rt9EvtSource14broadcastFlagsEm, %function
 2802              	_ZN10chibios_rt9EvtSource14broadcastFlagsEm:
 2803              	.LFB123:
 2804              		.loc 1 633 0
 2805              		.cfi_startproc
 2806              		@ args = 0, pretend = 0, frame = 0
 2807              		@ frame_needed = 0, uses_anonymous_args = 0
 2808              		@ link register save eliminated.
 2809              	.LVL232:
 2810              		.loc 1 636 0
 2811              		.loc 1 635 0
 2812 0000 FFF7FEBF 		b	chEvtBroadcastFlags
 2813              	.LVL233:
 2814              	.LVL234:
 2815              		.cfi_endproc
 2816              	.LFE123:
 2817              		.size	_ZN10chibios_rt9EvtSource14broadcastFlagsEm, .-_ZN10chibios_rt9EvtSource14broadcastFlagsEm
 2818 0004 AFF30080 		.section	.text._ZN10chibios_rt9EvtSource15broadcastFlagsIEm,"ax",%progbits
 2818      AFF30080 
 2818      AFF30080 
 2819              		.align	2
 2820              		.p2align 4,,15
 2821              		.global	_ZN10chibios_rt9EvtSource15broadcastFlagsIEm
 2822              		.thumb
 2823              		.thumb_func
 2824              		.type	_ZN10chibios_rt9EvtSource15broadcastFlagsIEm, %function
 2825              	_ZN10chibios_rt9EvtSource15broadcastFlagsIEm:
 2826              	.LFB124:
 2827              		.loc 1 638 0
 2828              		.cfi_startproc
 2829              		@ args = 0, pretend = 0, frame = 0
 2830              		@ frame_needed = 0, uses_anonymous_args = 0
ARM GAS  /tmp/ccq01laD.s 			page 53


 2831              		@ link register save eliminated.
 2832              	.LVL235:
 2833              		.loc 1 641 0
 2834              		.loc 1 640 0
 2835 0000 FFF7FEBF 		b	chEvtBroadcastFlagsI
 2836              	.LVL236:
 2837              	.LVL237:
 2838              		.cfi_endproc
 2839              	.LFE124:
 2840              		.size	_ZN10chibios_rt9EvtSource15broadcastFlagsIEm, .-_ZN10chibios_rt9EvtSource15broadcastFlagsIEm
 2841 0004 AFF30080 		.section	.text._ZN10chibios_rt7InQueueC2EPhjPFvP12GenericQueueEPv,"ax",%progbits
 2841      AFF30080 
 2841      AFF30080 
 2842              		.align	2
 2843              		.p2align 4,,15
 2844              		.global	_ZN10chibios_rt7InQueueC2EPhjPFvP12GenericQueueEPv
 2845              		.thumb
 2846              		.thumb_func
 2847              		.type	_ZN10chibios_rt7InQueueC2EPhjPFvP12GenericQueueEPv, %function
 2848              	_ZN10chibios_rt7InQueueC2EPhjPFvP12GenericQueueEPv:
 2849              	.LFB126:
 2850              		.loc 1 648 0
 2851              		.cfi_startproc
 2852              		@ args = 4, pretend = 0, frame = 0
 2853              		@ frame_needed = 0, uses_anonymous_args = 0
 2854              	.LVL238:
 2855 0000 10B5     		push	{r4, lr}
 2856              	.LCFI26:
 2857              		.cfi_def_cfa_offset 8
 2858              		.cfi_offset 14, -4
 2859              		.cfi_offset 4, -8
 2860 0002 82B0     		sub	sp, sp, #8
 2861              	.LCFI27:
 2862              		.cfi_def_cfa_offset 16
 2863              		.loc 1 648 0
 2864 0004 0446     		mov	r4, r0
 2865              	.LBB79:
 2866              		.loc 1 650 0
 2867 0006 0498     		ldr	r0, [sp, #16]
 2868              	.LVL239:
 2869 0008 0090     		str	r0, [sp, #0]
 2870 000a 2046     		mov	r0, r4
 2871 000c FFF7FEFF 		bl	chIQInit
 2872              	.LVL240:
 2873              	.LBE79:
 2874              		.loc 1 651 0
 2875 0010 2046     		mov	r0, r4
 2876 0012 02B0     		add	sp, sp, #8
 2877 0014 10BD     		pop	{r4, pc}
 2878              		.cfi_endproc
 2879              	.LFE126:
 2880              		.size	_ZN10chibios_rt7InQueueC2EPhjPFvP12GenericQueueEPv, .-_ZN10chibios_rt7InQueueC2EPhjPFvP12Gen
 2881 0016 00BFAFF3 		.section	.text._ZN10chibios_rt7InQueue8getFullIEv,"ax",%progbits
 2881      0080AFF3 
 2881      0080
 2882              		.align	2
 2883              		.p2align 4,,15
ARM GAS  /tmp/ccq01laD.s 			page 54


 2884              		.global	_ZN10chibios_rt7InQueue8getFullIEv
 2885              		.thumb
 2886              		.thumb_func
 2887              		.type	_ZN10chibios_rt7InQueue8getFullIEv, %function
 2888              	_ZN10chibios_rt7InQueue8getFullIEv:
 2889              	.LFB128:
 2890              		.loc 1 653 0
 2891              		.cfi_startproc
 2892              		@ args = 0, pretend = 0, frame = 0
 2893              		@ frame_needed = 0, uses_anonymous_args = 0
 2894              		@ link register save eliminated.
 2895              	.LVL241:
 2896              		.loc 1 655 0
 2897 0000 8068     		ldr	r0, [r0, #8]
 2898              	.LVL242:
 2899              		.loc 1 656 0
 2900 0002 7047     		bx	lr
 2901              		.cfi_endproc
 2902              	.LFE128:
 2903              		.size	_ZN10chibios_rt7InQueue8getFullIEv, .-_ZN10chibios_rt7InQueue8getFullIEv
 2904 0004 AFF30080 		.section	.text._ZN10chibios_rt7InQueue9getEmptyIEv,"ax",%progbits
 2904      AFF30080 
 2904      AFF30080 
 2905              		.align	2
 2906              		.p2align 4,,15
 2907              		.global	_ZN10chibios_rt7InQueue9getEmptyIEv
 2908              		.thumb
 2909              		.thumb_func
 2910              		.type	_ZN10chibios_rt7InQueue9getEmptyIEv, %function
 2911              	_ZN10chibios_rt7InQueue9getEmptyIEv:
 2912              	.LFB129:
 2913              		.loc 1 658 0
 2914              		.cfi_startproc
 2915              		@ args = 0, pretend = 0, frame = 0
 2916              		@ frame_needed = 0, uses_anonymous_args = 0
 2917              		@ link register save eliminated.
 2918              	.LVL243:
 2919              		.loc 1 660 0
 2920 0000 0169     		ldr	r1, [r0, #16]
 2921 0002 C268     		ldr	r2, [r0, #12]
 2922 0004 8368     		ldr	r3, [r0, #8]
 2923 0006 881A     		subs	r0, r1, r2
 2924              	.LVL244:
 2925 0008 C01A     		subs	r0, r0, r3
 2926              		.loc 1 661 0
 2927 000a 7047     		bx	lr
 2928              		.cfi_endproc
 2929              	.LFE129:
 2930              		.size	_ZN10chibios_rt7InQueue9getEmptyIEv, .-_ZN10chibios_rt7InQueue9getEmptyIEv
 2931 000c AFF30080 		.section	.text._ZN10chibios_rt7InQueue8isEmptyIEv,"ax",%progbits
 2932              		.align	2
 2933              		.p2align 4,,15
 2934              		.global	_ZN10chibios_rt7InQueue8isEmptyIEv
 2935              		.thumb
 2936              		.thumb_func
 2937              		.type	_ZN10chibios_rt7InQueue8isEmptyIEv, %function
 2938              	_ZN10chibios_rt7InQueue8isEmptyIEv:
ARM GAS  /tmp/ccq01laD.s 			page 55


 2939              	.LFB130:
 2940              		.loc 1 663 0
 2941              		.cfi_startproc
 2942              		@ args = 0, pretend = 0, frame = 0
 2943              		@ frame_needed = 0, uses_anonymous_args = 0
 2944              		@ link register save eliminated.
 2945              	.LVL245:
 2946              		.loc 1 665 0
 2947 0000 8068     		ldr	r0, [r0, #8]
 2948              	.LVL246:
 2949 0002 D0F10100 		rsbs	r0, r0, #1
 2950 0006 38BF     		it	cc
 2951 0008 0020     		movcc	r0, #0
 2952              		.loc 1 666 0
 2953 000a 7047     		bx	lr
 2954              		.cfi_endproc
 2955              	.LFE130:
 2956              		.size	_ZN10chibios_rt7InQueue8isEmptyIEv, .-_ZN10chibios_rt7InQueue8isEmptyIEv
 2957 000c AFF30080 		.section	.text._ZN10chibios_rt7InQueue7isFullIEv,"ax",%progbits
 2958              		.align	2
 2959              		.p2align 4,,15
 2960              		.global	_ZN10chibios_rt7InQueue7isFullIEv
 2961              		.thumb
 2962              		.thumb_func
 2963              		.type	_ZN10chibios_rt7InQueue7isFullIEv, %function
 2964              	_ZN10chibios_rt7InQueue7isFullIEv:
 2965              	.LFB131:
 2966              		.loc 1 668 0
 2967              		.cfi_startproc
 2968              		@ args = 0, pretend = 0, frame = 0
 2969              		@ frame_needed = 0, uses_anonymous_args = 0
 2970              		@ link register save eliminated.
 2971              	.LVL247:
 2972              		.loc 1 670 0
 2973 0000 4269     		ldr	r2, [r0, #20]
 2974 0002 8369     		ldr	r3, [r0, #24]
 2975 0004 9A42     		cmp	r2, r3
 2976 0006 01D0     		beq	.L173
 2977 0008 0020     		movs	r0, #0
 2978              	.LVL248:
 2979              		.loc 1 671 0
 2980 000a 7047     		bx	lr
 2981              	.LVL249:
 2982              	.L173:
 2983              		.loc 1 668 0 discriminator 1
 2984 000c 8068     		ldr	r0, [r0, #8]
 2985              	.LVL250:
 2986 000e 0030     		adds	r0, r0, #0
 2987 0010 18BF     		it	ne
 2988 0012 0120     		movne	r0, #1
 2989 0014 7047     		bx	lr
 2990              		.cfi_endproc
 2991              	.LFE131:
 2992              		.size	_ZN10chibios_rt7InQueue7isFullIEv, .-_ZN10chibios_rt7InQueue7isFullIEv
 2993 0016 00BFAFF3 		.section	.text._ZN10chibios_rt7InQueue6resetIEv,"ax",%progbits
 2993      0080AFF3 
 2993      0080
ARM GAS  /tmp/ccq01laD.s 			page 56


 2994              		.align	2
 2995              		.p2align 4,,15
 2996              		.global	_ZN10chibios_rt7InQueue6resetIEv
 2997              		.thumb
 2998              		.thumb_func
 2999              		.type	_ZN10chibios_rt7InQueue6resetIEv, %function
 3000              	_ZN10chibios_rt7InQueue6resetIEv:
 3001              	.LFB132:
 3002              		.loc 1 673 0
 3003              		.cfi_startproc
 3004              		@ args = 0, pretend = 0, frame = 0
 3005              		@ frame_needed = 0, uses_anonymous_args = 0
 3006              		@ link register save eliminated.
 3007              	.LVL251:
 3008              		.loc 1 676 0
 3009              		.loc 1 675 0
 3010 0000 FFF7FEBF 		b	chIQResetI
 3011              	.LVL252:
 3012              		.cfi_endproc
 3013              	.LFE132:
 3014              		.size	_ZN10chibios_rt7InQueue6resetIEv, .-_ZN10chibios_rt7InQueue6resetIEv
 3015 0004 AFF30080 		.section	.text._ZN10chibios_rt7InQueue4putIEh,"ax",%progbits
 3015      AFF30080 
 3015      AFF30080 
 3016              		.align	2
 3017              		.p2align 4,,15
 3018              		.global	_ZN10chibios_rt7InQueue4putIEh
 3019              		.thumb
 3020              		.thumb_func
 3021              		.type	_ZN10chibios_rt7InQueue4putIEh, %function
 3022              	_ZN10chibios_rt7InQueue4putIEh:
 3023              	.LFB133:
 3024              		.loc 1 678 0
 3025              		.cfi_startproc
 3026              		@ args = 0, pretend = 0, frame = 0
 3027              		@ frame_needed = 0, uses_anonymous_args = 0
 3028              		@ link register save eliminated.
 3029              	.LVL253:
 3030              		.loc 1 681 0
 3031              		.loc 1 680 0
 3032 0000 FFF7FEBF 		b	chIQPutI
 3033              	.LVL254:
 3034              	.LVL255:
 3035              		.cfi_endproc
 3036              	.LFE133:
 3037              		.size	_ZN10chibios_rt7InQueue4putIEh, .-_ZN10chibios_rt7InQueue4putIEh
 3038 0004 AFF30080 		.section	.text._ZN10chibios_rt7InQueue3getEv,"ax",%progbits
 3038      AFF30080 
 3038      AFF30080 
 3039              		.align	2
 3040              		.p2align 4,,15
 3041              		.global	_ZN10chibios_rt7InQueue3getEv
 3042              		.thumb
 3043              		.thumb_func
 3044              		.type	_ZN10chibios_rt7InQueue3getEv, %function
 3045              	_ZN10chibios_rt7InQueue3getEv:
 3046              	.LFB134:
ARM GAS  /tmp/ccq01laD.s 			page 57


 3047              		.loc 1 683 0
 3048              		.cfi_startproc
 3049              		@ args = 0, pretend = 0, frame = 0
 3050              		@ frame_needed = 0, uses_anonymous_args = 0
 3051              		@ link register save eliminated.
 3052              	.LVL256:
 3053              		.loc 1 685 0
 3054 0000 4FF0FF31 		mov	r1, #-1
 3055              		.loc 1 686 0
 3056              		.loc 1 685 0
 3057 0004 FFF7FEBF 		b	chIQGetTimeout
 3058              	.LVL257:
 3059              		.cfi_endproc
 3060              	.LFE134:
 3061              		.size	_ZN10chibios_rt7InQueue3getEv, .-_ZN10chibios_rt7InQueue3getEv
 3062 0008 AFF30080 		.section	.text._ZN10chibios_rt7InQueue10getTimeoutEm,"ax",%progbits
 3062      AFF30080 
 3063              		.align	2
 3064              		.p2align 4,,15
 3065              		.global	_ZN10chibios_rt7InQueue10getTimeoutEm
 3066              		.thumb
 3067              		.thumb_func
 3068              		.type	_ZN10chibios_rt7InQueue10getTimeoutEm, %function
 3069              	_ZN10chibios_rt7InQueue10getTimeoutEm:
 3070              	.LFB135:
 3071              		.loc 1 688 0
 3072              		.cfi_startproc
 3073              		@ args = 0, pretend = 0, frame = 0
 3074              		@ frame_needed = 0, uses_anonymous_args = 0
 3075              		@ link register save eliminated.
 3076              	.LVL258:
 3077              		.loc 1 691 0
 3078              		.loc 1 690 0
 3079 0000 FFF7FEBF 		b	chIQGetTimeout
 3080              	.LVL259:
 3081              	.LVL260:
 3082              		.cfi_endproc
 3083              	.LFE135:
 3084              		.size	_ZN10chibios_rt7InQueue10getTimeoutEm, .-_ZN10chibios_rt7InQueue10getTimeoutEm
 3085 0004 AFF30080 		.section	.text._ZN10chibios_rt7InQueue11readTimeoutEPhjm,"ax",%progbits
 3085      AFF30080 
 3085      AFF30080 
 3086              		.align	2
 3087              		.p2align 4,,15
 3088              		.global	_ZN10chibios_rt7InQueue11readTimeoutEPhjm
 3089              		.thumb
 3090              		.thumb_func
 3091              		.type	_ZN10chibios_rt7InQueue11readTimeoutEPhjm, %function
 3092              	_ZN10chibios_rt7InQueue11readTimeoutEPhjm:
 3093              	.LFB136:
 3094              		.loc 1 693 0
 3095              		.cfi_startproc
 3096              		@ args = 0, pretend = 0, frame = 0
 3097              		@ frame_needed = 0, uses_anonymous_args = 0
 3098              		@ link register save eliminated.
 3099              	.LVL261:
 3100              		.loc 1 696 0
ARM GAS  /tmp/ccq01laD.s 			page 58


 3101              		.loc 1 695 0
 3102 0000 FFF7FEBF 		b	chIQReadTimeout
 3103              	.LVL262:
 3104              	.LVL263:
 3105              	.LVL264:
 3106              	.LVL265:
 3107              		.cfi_endproc
 3108              	.LFE136:
 3109              		.size	_ZN10chibios_rt7InQueue11readTimeoutEPhjm, .-_ZN10chibios_rt7InQueue11readTimeoutEPhjm
 3110 0004 AFF30080 		.section	.text._ZN10chibios_rt8OutQueueC2EPhjPFvP12GenericQueueEPv,"ax",%progbits
 3110      AFF30080 
 3110      AFF30080 
 3111              		.align	2
 3112              		.p2align 4,,15
 3113              		.global	_ZN10chibios_rt8OutQueueC2EPhjPFvP12GenericQueueEPv
 3114              		.thumb
 3115              		.thumb_func
 3116              		.type	_ZN10chibios_rt8OutQueueC2EPhjPFvP12GenericQueueEPv, %function
 3117              	_ZN10chibios_rt8OutQueueC2EPhjPFvP12GenericQueueEPv:
 3118              	.LFB138:
 3119              		.loc 1 701 0
 3120              		.cfi_startproc
 3121              		@ args = 4, pretend = 0, frame = 0
 3122              		@ frame_needed = 0, uses_anonymous_args = 0
 3123              	.LVL266:
 3124 0000 10B5     		push	{r4, lr}
 3125              	.LCFI28:
 3126              		.cfi_def_cfa_offset 8
 3127              		.cfi_offset 14, -4
 3128              		.cfi_offset 4, -8
 3129 0002 82B0     		sub	sp, sp, #8
 3130              	.LCFI29:
 3131              		.cfi_def_cfa_offset 16
 3132              		.loc 1 701 0
 3133 0004 0446     		mov	r4, r0
 3134              	.LBB80:
 3135              		.loc 1 703 0
 3136 0006 0498     		ldr	r0, [sp, #16]
 3137              	.LVL267:
 3138 0008 0090     		str	r0, [sp, #0]
 3139 000a 2046     		mov	r0, r4
 3140 000c FFF7FEFF 		bl	chOQInit
 3141              	.LVL268:
 3142              	.LBE80:
 3143              		.loc 1 704 0
 3144 0010 2046     		mov	r0, r4
 3145 0012 02B0     		add	sp, sp, #8
 3146 0014 10BD     		pop	{r4, pc}
 3147              		.cfi_endproc
 3148              	.LFE138:
 3149              		.size	_ZN10chibios_rt8OutQueueC2EPhjPFvP12GenericQueueEPv, .-_ZN10chibios_rt8OutQueueC2EPhjPFvP12G
 3150 0016 00BFAFF3 		.section	.text._ZN10chibios_rt8OutQueue8getFullIEv,"ax",%progbits
 3150      0080AFF3 
 3150      0080
 3151              		.align	2
 3152              		.p2align 4,,15
 3153              		.global	_ZN10chibios_rt8OutQueue8getFullIEv
ARM GAS  /tmp/ccq01laD.s 			page 59


 3154              		.thumb
 3155              		.thumb_func
 3156              		.type	_ZN10chibios_rt8OutQueue8getFullIEv, %function
 3157              	_ZN10chibios_rt8OutQueue8getFullIEv:
 3158              	.LFB140:
 3159              		.loc 1 706 0
 3160              		.cfi_startproc
 3161              		@ args = 0, pretend = 0, frame = 0
 3162              		@ frame_needed = 0, uses_anonymous_args = 0
 3163              		@ link register save eliminated.
 3164              	.LVL269:
 3165              		.loc 1 708 0
 3166 0000 0169     		ldr	r1, [r0, #16]
 3167 0002 C268     		ldr	r2, [r0, #12]
 3168 0004 8368     		ldr	r3, [r0, #8]
 3169 0006 881A     		subs	r0, r1, r2
 3170              	.LVL270:
 3171 0008 C01A     		subs	r0, r0, r3
 3172              		.loc 1 709 0
 3173 000a 7047     		bx	lr
 3174              		.cfi_endproc
 3175              	.LFE140:
 3176              		.size	_ZN10chibios_rt8OutQueue8getFullIEv, .-_ZN10chibios_rt8OutQueue8getFullIEv
 3177 000c AFF30080 		.section	.text._ZN10chibios_rt8OutQueue9getEmptyIEv,"ax",%progbits
 3178              		.align	2
 3179              		.p2align 4,,15
 3180              		.global	_ZN10chibios_rt8OutQueue9getEmptyIEv
 3181              		.thumb
 3182              		.thumb_func
 3183              		.type	_ZN10chibios_rt8OutQueue9getEmptyIEv, %function
 3184              	_ZN10chibios_rt8OutQueue9getEmptyIEv:
 3185              	.LFB141:
 3186              		.loc 1 711 0
 3187              		.cfi_startproc
 3188              		@ args = 0, pretend = 0, frame = 0
 3189              		@ frame_needed = 0, uses_anonymous_args = 0
 3190              		@ link register save eliminated.
 3191              	.LVL271:
 3192              		.loc 1 713 0
 3193 0000 8068     		ldr	r0, [r0, #8]
 3194              	.LVL272:
 3195              		.loc 1 714 0
 3196 0002 7047     		bx	lr
 3197              		.cfi_endproc
 3198              	.LFE141:
 3199              		.size	_ZN10chibios_rt8OutQueue9getEmptyIEv, .-_ZN10chibios_rt8OutQueue9getEmptyIEv
 3200 0004 AFF30080 		.section	.text._ZN10chibios_rt8OutQueue8isEmptyIEv,"ax",%progbits
 3200      AFF30080 
 3200      AFF30080 
 3201              		.align	2
 3202              		.p2align 4,,15
 3203              		.global	_ZN10chibios_rt8OutQueue8isEmptyIEv
 3204              		.thumb
 3205              		.thumb_func
 3206              		.type	_ZN10chibios_rt8OutQueue8isEmptyIEv, %function
 3207              	_ZN10chibios_rt8OutQueue8isEmptyIEv:
 3208              	.LFB142:
ARM GAS  /tmp/ccq01laD.s 			page 60


 3209              		.loc 1 716 0
 3210              		.cfi_startproc
 3211              		@ args = 0, pretend = 0, frame = 0
 3212              		@ frame_needed = 0, uses_anonymous_args = 0
 3213              		@ link register save eliminated.
 3214              	.LVL273:
 3215              		.loc 1 718 0
 3216 0000 4269     		ldr	r2, [r0, #20]
 3217 0002 8369     		ldr	r3, [r0, #24]
 3218 0004 9A42     		cmp	r2, r3
 3219 0006 01D0     		beq	.L186
 3220 0008 0020     		movs	r0, #0
 3221              	.LVL274:
 3222              		.loc 1 719 0
 3223 000a 7047     		bx	lr
 3224              	.LVL275:
 3225              	.L186:
 3226              		.loc 1 716 0 discriminator 1
 3227 000c 8068     		ldr	r0, [r0, #8]
 3228              	.LVL276:
 3229 000e 0030     		adds	r0, r0, #0
 3230 0010 18BF     		it	ne
 3231 0012 0120     		movne	r0, #1
 3232 0014 7047     		bx	lr
 3233              		.cfi_endproc
 3234              	.LFE142:
 3235              		.size	_ZN10chibios_rt8OutQueue8isEmptyIEv, .-_ZN10chibios_rt8OutQueue8isEmptyIEv
 3236 0016 00BFAFF3 		.section	.text._ZN10chibios_rt8OutQueue7isFullIEv,"ax",%progbits
 3236      0080AFF3 
 3236      0080
 3237              		.align	2
 3238              		.p2align 4,,15
 3239              		.global	_ZN10chibios_rt8OutQueue7isFullIEv
 3240              		.thumb
 3241              		.thumb_func
 3242              		.type	_ZN10chibios_rt8OutQueue7isFullIEv, %function
 3243              	_ZN10chibios_rt8OutQueue7isFullIEv:
 3244              	.LFB143:
 3245              		.loc 1 721 0
 3246              		.cfi_startproc
 3247              		@ args = 0, pretend = 0, frame = 0
 3248              		@ frame_needed = 0, uses_anonymous_args = 0
 3249              		@ link register save eliminated.
 3250              	.LVL277:
 3251              		.loc 1 723 0
 3252 0000 8068     		ldr	r0, [r0, #8]
 3253              	.LVL278:
 3254 0002 D0F10100 		rsbs	r0, r0, #1
 3255 0006 38BF     		it	cc
 3256 0008 0020     		movcc	r0, #0
 3257              		.loc 1 724 0
 3258 000a 7047     		bx	lr
 3259              		.cfi_endproc
 3260              	.LFE143:
 3261              		.size	_ZN10chibios_rt8OutQueue7isFullIEv, .-_ZN10chibios_rt8OutQueue7isFullIEv
 3262 000c AFF30080 		.section	.text._ZN10chibios_rt8OutQueue6resetIEv,"ax",%progbits
 3263              		.align	2
ARM GAS  /tmp/ccq01laD.s 			page 61


 3264              		.p2align 4,,15
 3265              		.global	_ZN10chibios_rt8OutQueue6resetIEv
 3266              		.thumb
 3267              		.thumb_func
 3268              		.type	_ZN10chibios_rt8OutQueue6resetIEv, %function
 3269              	_ZN10chibios_rt8OutQueue6resetIEv:
 3270              	.LFB144:
 3271              		.loc 1 726 0
 3272              		.cfi_startproc
 3273              		@ args = 0, pretend = 0, frame = 0
 3274              		@ frame_needed = 0, uses_anonymous_args = 0
 3275              		@ link register save eliminated.
 3276              	.LVL279:
 3277              		.loc 1 729 0
 3278              		.loc 1 728 0
 3279 0000 FFF7FEBF 		b	chOQResetI
 3280              	.LVL280:
 3281              		.cfi_endproc
 3282              	.LFE144:
 3283              		.size	_ZN10chibios_rt8OutQueue6resetIEv, .-_ZN10chibios_rt8OutQueue6resetIEv
 3284 0004 AFF30080 		.section	.text._ZN10chibios_rt8OutQueue3putEh,"ax",%progbits
 3284      AFF30080 
 3284      AFF30080 
 3285              		.align	2
 3286              		.p2align 4,,15
 3287              		.global	_ZN10chibios_rt8OutQueue3putEh
 3288              		.thumb
 3289              		.thumb_func
 3290              		.type	_ZN10chibios_rt8OutQueue3putEh, %function
 3291              	_ZN10chibios_rt8OutQueue3putEh:
 3292              	.LFB145:
 3293              		.loc 1 731 0
 3294              		.cfi_startproc
 3295              		@ args = 0, pretend = 0, frame = 0
 3296              		@ frame_needed = 0, uses_anonymous_args = 0
 3297              		@ link register save eliminated.
 3298              	.LVL281:
 3299              		.loc 1 733 0
 3300 0000 4FF0FF32 		mov	r2, #-1
 3301              		.loc 1 734 0
 3302              		.loc 1 733 0
 3303 0004 FFF7FEBF 		b	chOQPutTimeout
 3304              	.LVL282:
 3305              	.LVL283:
 3306              		.cfi_endproc
 3307              	.LFE145:
 3308              		.size	_ZN10chibios_rt8OutQueue3putEh, .-_ZN10chibios_rt8OutQueue3putEh
 3309 0008 AFF30080 		.section	.text._ZN10chibios_rt8OutQueue10putTimeoutEhm,"ax",%progbits
 3309      AFF30080 
 3310              		.align	2
 3311              		.p2align 4,,15
 3312              		.global	_ZN10chibios_rt8OutQueue10putTimeoutEhm
 3313              		.thumb
 3314              		.thumb_func
 3315              		.type	_ZN10chibios_rt8OutQueue10putTimeoutEhm, %function
 3316              	_ZN10chibios_rt8OutQueue10putTimeoutEhm:
 3317              	.LFB146:
ARM GAS  /tmp/ccq01laD.s 			page 62


 3318              		.loc 1 736 0
 3319              		.cfi_startproc
 3320              		@ args = 0, pretend = 0, frame = 0
 3321              		@ frame_needed = 0, uses_anonymous_args = 0
 3322              		@ link register save eliminated.
 3323              	.LVL284:
 3324              		.loc 1 739 0
 3325              		.loc 1 738 0
 3326 0000 FFF7FEBF 		b	chOQPutTimeout
 3327              	.LVL285:
 3328              	.LVL286:
 3329              	.LVL287:
 3330              		.cfi_endproc
 3331              	.LFE146:
 3332              		.size	_ZN10chibios_rt8OutQueue10putTimeoutEhm, .-_ZN10chibios_rt8OutQueue10putTimeoutEhm
 3333 0004 AFF30080 		.section	.text._ZN10chibios_rt8OutQueue4getIEv,"ax",%progbits
 3333      AFF30080 
 3333      AFF30080 
 3334              		.align	2
 3335              		.p2align 4,,15
 3336              		.global	_ZN10chibios_rt8OutQueue4getIEv
 3337              		.thumb
 3338              		.thumb_func
 3339              		.type	_ZN10chibios_rt8OutQueue4getIEv, %function
 3340              	_ZN10chibios_rt8OutQueue4getIEv:
 3341              	.LFB147:
 3342              		.loc 1 741 0
 3343              		.cfi_startproc
 3344              		@ args = 0, pretend = 0, frame = 0
 3345              		@ frame_needed = 0, uses_anonymous_args = 0
 3346              		@ link register save eliminated.
 3347              	.LVL288:
 3348              		.loc 1 744 0
 3349              		.loc 1 743 0
 3350 0000 FFF7FEBF 		b	chOQGetI
 3351              	.LVL289:
 3352              		.cfi_endproc
 3353              	.LFE147:
 3354              		.size	_ZN10chibios_rt8OutQueue4getIEv, .-_ZN10chibios_rt8OutQueue4getIEv
 3355 0004 AFF30080 		.section	.text._ZN10chibios_rt8OutQueue12writeTimeoutEPKhjm,"ax",%progbits
 3355      AFF30080 
 3355      AFF30080 
 3356              		.align	2
 3357              		.p2align 4,,15
 3358              		.global	_ZN10chibios_rt8OutQueue12writeTimeoutEPKhjm
 3359              		.thumb
 3360              		.thumb_func
 3361              		.type	_ZN10chibios_rt8OutQueue12writeTimeoutEPKhjm, %function
 3362              	_ZN10chibios_rt8OutQueue12writeTimeoutEPKhjm:
 3363              	.LFB148:
 3364              		.loc 1 747 0
 3365              		.cfi_startproc
 3366              		@ args = 0, pretend = 0, frame = 0
 3367              		@ frame_needed = 0, uses_anonymous_args = 0
 3368              		@ link register save eliminated.
 3369              	.LVL290:
 3370              		.loc 1 750 0
ARM GAS  /tmp/ccq01laD.s 			page 63


 3371              		.loc 1 749 0
 3372 0000 FFF7FEBF 		b	chOQWriteTimeout
 3373              	.LVL291:
 3374              	.LVL292:
 3375              	.LVL293:
 3376              	.LVL294:
 3377              		.cfi_endproc
 3378              	.LFE148:
 3379              		.size	_ZN10chibios_rt8OutQueue12writeTimeoutEPKhjm, .-_ZN10chibios_rt8OutQueue12writeTimeoutEPKhjm
 3380 0004 AFF30080 		.section	.text._ZN10chibios_rt7MailboxC2EPll,"ax",%progbits
 3380      AFF30080 
 3380      AFF30080 
 3381              		.align	2
 3382              		.p2align 4,,15
 3383              		.global	_ZN10chibios_rt7MailboxC2EPll
 3384              		.thumb
 3385              		.thumb_func
 3386              		.type	_ZN10chibios_rt7MailboxC2EPll, %function
 3387              	_ZN10chibios_rt7MailboxC2EPll:
 3388              	.LFB150:
 3389              		.loc 1 757 0
 3390              		.cfi_startproc
 3391              		@ args = 0, pretend = 0, frame = 0
 3392              		@ frame_needed = 0, uses_anonymous_args = 0
 3393              	.LVL295:
 3394 0000 10B5     		push	{r4, lr}
 3395              	.LCFI30:
 3396              		.cfi_def_cfa_offset 8
 3397              		.cfi_offset 14, -4
 3398              		.cfi_offset 4, -8
 3399              		.loc 1 757 0
 3400 0002 0446     		mov	r4, r0
 3401              	.LBB81:
 3402              		.loc 1 759 0
 3403 0004 FFF7FEFF 		bl	chMBInit
 3404              	.LVL296:
 3405              	.LBE81:
 3406              		.loc 1 760 0
 3407 0008 2046     		mov	r0, r4
 3408 000a 10BD     		pop	{r4, pc}
 3409              		.cfi_endproc
 3410              	.LFE150:
 3411              		.size	_ZN10chibios_rt7MailboxC2EPll, .-_ZN10chibios_rt7MailboxC2EPll
 3412 000c AFF30080 		.section	.text._ZN10chibios_rt7Mailbox5resetEv,"ax",%progbits
 3413              		.align	2
 3414              		.p2align 4,,15
 3415              		.global	_ZN10chibios_rt7Mailbox5resetEv
 3416              		.thumb
 3417              		.thumb_func
 3418              		.type	_ZN10chibios_rt7Mailbox5resetEv, %function
 3419              	_ZN10chibios_rt7Mailbox5resetEv:
 3420              	.LFB152:
 3421              		.loc 1 762 0
 3422              		.cfi_startproc
 3423              		@ args = 0, pretend = 0, frame = 0
 3424              		@ frame_needed = 0, uses_anonymous_args = 0
 3425              		@ link register save eliminated.
ARM GAS  /tmp/ccq01laD.s 			page 64


 3426              	.LVL297:
 3427              		.loc 1 765 0
 3428              		.loc 1 764 0
 3429 0000 FFF7FEBF 		b	chMBReset
 3430              	.LVL298:
 3431              		.cfi_endproc
 3432              	.LFE152:
 3433              		.size	_ZN10chibios_rt7Mailbox5resetEv, .-_ZN10chibios_rt7Mailbox5resetEv
 3434 0004 AFF30080 		.section	.text._ZN10chibios_rt7Mailbox4postElm,"ax",%progbits
 3434      AFF30080 
 3434      AFF30080 
 3435              		.align	2
 3436              		.p2align 4,,15
 3437              		.global	_ZN10chibios_rt7Mailbox4postElm
 3438              		.thumb
 3439              		.thumb_func
 3440              		.type	_ZN10chibios_rt7Mailbox4postElm, %function
 3441              	_ZN10chibios_rt7Mailbox4postElm:
 3442              	.LFB153:
 3443              		.loc 1 767 0
 3444              		.cfi_startproc
 3445              		@ args = 0, pretend = 0, frame = 0
 3446              		@ frame_needed = 0, uses_anonymous_args = 0
 3447              		@ link register save eliminated.
 3448              	.LVL299:
 3449              		.loc 1 770 0
 3450              		.loc 1 769 0
 3451 0000 FFF7FEBF 		b	chMBPost
 3452              	.LVL300:
 3453              	.LVL301:
 3454              	.LVL302:
 3455              		.cfi_endproc
 3456              	.LFE153:
 3457              		.size	_ZN10chibios_rt7Mailbox4postElm, .-_ZN10chibios_rt7Mailbox4postElm
 3458 0004 AFF30080 		.section	.text._ZN10chibios_rt7Mailbox5postSElm,"ax",%progbits
 3458      AFF30080 
 3458      AFF30080 
 3459              		.align	2
 3460              		.p2align 4,,15
 3461              		.global	_ZN10chibios_rt7Mailbox5postSElm
 3462              		.thumb
 3463              		.thumb_func
 3464              		.type	_ZN10chibios_rt7Mailbox5postSElm, %function
 3465              	_ZN10chibios_rt7Mailbox5postSElm:
 3466              	.LFB154:
 3467              		.loc 1 772 0
 3468              		.cfi_startproc
 3469              		@ args = 0, pretend = 0, frame = 0
 3470              		@ frame_needed = 0, uses_anonymous_args = 0
 3471              		@ link register save eliminated.
 3472              	.LVL303:
 3473              		.loc 1 775 0
 3474              		.loc 1 774 0
 3475 0000 FFF7FEBF 		b	chMBPostS
 3476              	.LVL304:
 3477              	.LVL305:
 3478              	.LVL306:
ARM GAS  /tmp/ccq01laD.s 			page 65


 3479              		.cfi_endproc
 3480              	.LFE154:
 3481              		.size	_ZN10chibios_rt7Mailbox5postSElm, .-_ZN10chibios_rt7Mailbox5postSElm
 3482 0004 AFF30080 		.section	.text._ZN10chibios_rt7Mailbox5postIEl,"ax",%progbits
 3482      AFF30080 
 3482      AFF30080 
 3483              		.align	2
 3484              		.p2align 4,,15
 3485              		.global	_ZN10chibios_rt7Mailbox5postIEl
 3486              		.thumb
 3487              		.thumb_func
 3488              		.type	_ZN10chibios_rt7Mailbox5postIEl, %function
 3489              	_ZN10chibios_rt7Mailbox5postIEl:
 3490              	.LFB155:
 3491              		.loc 1 777 0
 3492              		.cfi_startproc
 3493              		@ args = 0, pretend = 0, frame = 0
 3494              		@ frame_needed = 0, uses_anonymous_args = 0
 3495              		@ link register save eliminated.
 3496              	.LVL307:
 3497              		.loc 1 780 0
 3498              		.loc 1 779 0
 3499 0000 FFF7FEBF 		b	chMBPostI
 3500              	.LVL308:
 3501              	.LVL309:
 3502              		.cfi_endproc
 3503              	.LFE155:
 3504              		.size	_ZN10chibios_rt7Mailbox5postIEl, .-_ZN10chibios_rt7Mailbox5postIEl
 3505 0004 AFF30080 		.section	.text._ZN10chibios_rt7Mailbox9postAheadElm,"ax",%progbits
 3505      AFF30080 
 3505      AFF30080 
 3506              		.align	2
 3507              		.p2align 4,,15
 3508              		.global	_ZN10chibios_rt7Mailbox9postAheadElm
 3509              		.thumb
 3510              		.thumb_func
 3511              		.type	_ZN10chibios_rt7Mailbox9postAheadElm, %function
 3512              	_ZN10chibios_rt7Mailbox9postAheadElm:
 3513              	.LFB156:
 3514              		.loc 1 782 0
 3515              		.cfi_startproc
 3516              		@ args = 0, pretend = 0, frame = 0
 3517              		@ frame_needed = 0, uses_anonymous_args = 0
 3518              		@ link register save eliminated.
 3519              	.LVL310:
 3520              		.loc 1 785 0
 3521              		.loc 1 784 0
 3522 0000 FFF7FEBF 		b	chMBPostAhead
 3523              	.LVL311:
 3524              	.LVL312:
 3525              	.LVL313:
 3526              		.cfi_endproc
 3527              	.LFE156:
 3528              		.size	_ZN10chibios_rt7Mailbox9postAheadElm, .-_ZN10chibios_rt7Mailbox9postAheadElm
 3529 0004 AFF30080 		.section	.text._ZN10chibios_rt7Mailbox10postAheadSElm,"ax",%progbits
 3529      AFF30080 
 3529      AFF30080 
ARM GAS  /tmp/ccq01laD.s 			page 66


 3530              		.align	2
 3531              		.p2align 4,,15
 3532              		.global	_ZN10chibios_rt7Mailbox10postAheadSElm
 3533              		.thumb
 3534              		.thumb_func
 3535              		.type	_ZN10chibios_rt7Mailbox10postAheadSElm, %function
 3536              	_ZN10chibios_rt7Mailbox10postAheadSElm:
 3537              	.LFB157:
 3538              		.loc 1 787 0
 3539              		.cfi_startproc
 3540              		@ args = 0, pretend = 0, frame = 0
 3541              		@ frame_needed = 0, uses_anonymous_args = 0
 3542              		@ link register save eliminated.
 3543              	.LVL314:
 3544              		.loc 1 790 0
 3545              		.loc 1 789 0
 3546 0000 FFF7FEBF 		b	chMBPostAheadS
 3547              	.LVL315:
 3548              	.LVL316:
 3549              	.LVL317:
 3550              		.cfi_endproc
 3551              	.LFE157:
 3552              		.size	_ZN10chibios_rt7Mailbox10postAheadSElm, .-_ZN10chibios_rt7Mailbox10postAheadSElm
 3553 0004 AFF30080 		.section	.text._ZN10chibios_rt7Mailbox10postAheadIEl,"ax",%progbits
 3553      AFF30080 
 3553      AFF30080 
 3554              		.align	2
 3555              		.p2align 4,,15
 3556              		.global	_ZN10chibios_rt7Mailbox10postAheadIEl
 3557              		.thumb
 3558              		.thumb_func
 3559              		.type	_ZN10chibios_rt7Mailbox10postAheadIEl, %function
 3560              	_ZN10chibios_rt7Mailbox10postAheadIEl:
 3561              	.LFB158:
 3562              		.loc 1 792 0
 3563              		.cfi_startproc
 3564              		@ args = 0, pretend = 0, frame = 0
 3565              		@ frame_needed = 0, uses_anonymous_args = 0
 3566              		@ link register save eliminated.
 3567              	.LVL318:
 3568              		.loc 1 795 0
 3569              		.loc 1 794 0
 3570 0000 FFF7FEBF 		b	chMBPostAheadI
 3571              	.LVL319:
 3572              	.LVL320:
 3573              		.cfi_endproc
 3574              	.LFE158:
 3575              		.size	_ZN10chibios_rt7Mailbox10postAheadIEl, .-_ZN10chibios_rt7Mailbox10postAheadIEl
 3576 0004 AFF30080 		.section	.text._ZN10chibios_rt7Mailbox5fetchEPlm,"ax",%progbits
 3576      AFF30080 
 3576      AFF30080 
 3577              		.align	2
 3578              		.p2align 4,,15
 3579              		.global	_ZN10chibios_rt7Mailbox5fetchEPlm
 3580              		.thumb
 3581              		.thumb_func
 3582              		.type	_ZN10chibios_rt7Mailbox5fetchEPlm, %function
ARM GAS  /tmp/ccq01laD.s 			page 67


 3583              	_ZN10chibios_rt7Mailbox5fetchEPlm:
 3584              	.LFB159:
 3585              		.loc 1 797 0
 3586              		.cfi_startproc
 3587              		@ args = 0, pretend = 0, frame = 0
 3588              		@ frame_needed = 0, uses_anonymous_args = 0
 3589              		@ link register save eliminated.
 3590              	.LVL321:
 3591              		.loc 1 800 0
 3592              		.loc 1 799 0
 3593 0000 FFF7FEBF 		b	chMBFetch
 3594              	.LVL322:
 3595              	.LVL323:
 3596              	.LVL324:
 3597              		.cfi_endproc
 3598              	.LFE159:
 3599              		.size	_ZN10chibios_rt7Mailbox5fetchEPlm, .-_ZN10chibios_rt7Mailbox5fetchEPlm
 3600 0004 AFF30080 		.section	.text._ZN10chibios_rt7Mailbox6fetchSEPlm,"ax",%progbits
 3600      AFF30080 
 3600      AFF30080 
 3601              		.align	2
 3602              		.p2align 4,,15
 3603              		.global	_ZN10chibios_rt7Mailbox6fetchSEPlm
 3604              		.thumb
 3605              		.thumb_func
 3606              		.type	_ZN10chibios_rt7Mailbox6fetchSEPlm, %function
 3607              	_ZN10chibios_rt7Mailbox6fetchSEPlm:
 3608              	.LFB160:
 3609              		.loc 1 802 0
 3610              		.cfi_startproc
 3611              		@ args = 0, pretend = 0, frame = 0
 3612              		@ frame_needed = 0, uses_anonymous_args = 0
 3613              		@ link register save eliminated.
 3614              	.LVL325:
 3615              		.loc 1 805 0
 3616              		.loc 1 804 0
 3617 0000 FFF7FEBF 		b	chMBFetchS
 3618              	.LVL326:
 3619              	.LVL327:
 3620              	.LVL328:
 3621              		.cfi_endproc
 3622              	.LFE160:
 3623              		.size	_ZN10chibios_rt7Mailbox6fetchSEPlm, .-_ZN10chibios_rt7Mailbox6fetchSEPlm
 3624 0004 AFF30080 		.section	.text._ZN10chibios_rt7Mailbox6fetchIEPl,"ax",%progbits
 3624      AFF30080 
 3624      AFF30080 
 3625              		.align	2
 3626              		.p2align 4,,15
 3627              		.global	_ZN10chibios_rt7Mailbox6fetchIEPl
 3628              		.thumb
 3629              		.thumb_func
 3630              		.type	_ZN10chibios_rt7Mailbox6fetchIEPl, %function
 3631              	_ZN10chibios_rt7Mailbox6fetchIEPl:
 3632              	.LFB161:
 3633              		.loc 1 807 0
 3634              		.cfi_startproc
 3635              		@ args = 0, pretend = 0, frame = 0
ARM GAS  /tmp/ccq01laD.s 			page 68


 3636              		@ frame_needed = 0, uses_anonymous_args = 0
 3637              		@ link register save eliminated.
 3638              	.LVL329:
 3639              		.loc 1 810 0
 3640              		.loc 1 809 0
 3641 0000 FFF7FEBF 		b	chMBFetchI
 3642              	.LVL330:
 3643              	.LVL331:
 3644              		.cfi_endproc
 3645              	.LFE161:
 3646              		.size	_ZN10chibios_rt7Mailbox6fetchIEPl, .-_ZN10chibios_rt7Mailbox6fetchIEPl
 3647 0004 AFF30080 		.section	.text._ZN10chibios_rt7Mailbox13getFreeCountIEv,"ax",%progbits
 3647      AFF30080 
 3647      AFF30080 
 3648              		.align	2
 3649              		.p2align 4,,15
 3650              		.global	_ZN10chibios_rt7Mailbox13getFreeCountIEv
 3651              		.thumb
 3652              		.thumb_func
 3653              		.type	_ZN10chibios_rt7Mailbox13getFreeCountIEv, %function
 3654              	_ZN10chibios_rt7Mailbox13getFreeCountIEv:
 3655              	.LFB162:
 3656              		.loc 1 812 0
 3657              		.cfi_startproc
 3658              		@ args = 0, pretend = 0, frame = 0
 3659              		@ frame_needed = 0, uses_anonymous_args = 0
 3660              		@ link register save eliminated.
 3661              	.LVL332:
 3662              		.loc 1 814 0
 3663 0000 406A     		ldr	r0, [r0, #36]
 3664              	.LVL333:
 3665              		.loc 1 815 0
 3666 0002 7047     		bx	lr
 3667              		.cfi_endproc
 3668              	.LFE162:
 3669              		.size	_ZN10chibios_rt7Mailbox13getFreeCountIEv, .-_ZN10chibios_rt7Mailbox13getFreeCountIEv
 3670 0004 AFF30080 		.section	.text._ZN10chibios_rt7Mailbox13getUsedCountIEv,"ax",%progbits
 3670      AFF30080 
 3670      AFF30080 
 3671              		.align	2
 3672              		.p2align 4,,15
 3673              		.global	_ZN10chibios_rt7Mailbox13getUsedCountIEv
 3674              		.thumb
 3675              		.thumb_func
 3676              		.type	_ZN10chibios_rt7Mailbox13getUsedCountIEv, %function
 3677              	_ZN10chibios_rt7Mailbox13getUsedCountIEv:
 3678              	.LFB163:
 3679              		.loc 1 817 0
 3680              		.cfi_startproc
 3681              		@ args = 0, pretend = 0, frame = 0
 3682              		@ frame_needed = 0, uses_anonymous_args = 0
 3683              		@ link register save eliminated.
 3684              	.LVL334:
 3685              		.loc 1 819 0
 3686 0000 8069     		ldr	r0, [r0, #24]
 3687              	.LVL335:
 3688              		.loc 1 820 0
ARM GAS  /tmp/ccq01laD.s 			page 69


 3689 0002 7047     		bx	lr
 3690              		.cfi_endproc
 3691              	.LFE163:
 3692              		.size	_ZN10chibios_rt7Mailbox13getUsedCountIEv, .-_ZN10chibios_rt7Mailbox13getUsedCountIEv
 3693 0004 AFF30080 		.section	.text._ZN10chibios_rt10MemoryPoolC2EjPFPvjE,"ax",%progbits
 3693      AFF30080 
 3693      AFF30080 
 3694              		.align	2
 3695              		.p2align 4,,15
 3696              		.global	_ZN10chibios_rt10MemoryPoolC2EjPFPvjE
 3697              		.thumb
 3698              		.thumb_func
 3699              		.type	_ZN10chibios_rt10MemoryPoolC2EjPFPvjE, %function
 3700              	_ZN10chibios_rt10MemoryPoolC2EjPFPvjE:
 3701              	.LFB165:
 3702              		.loc 1 827 0
 3703              		.cfi_startproc
 3704              		@ args = 0, pretend = 0, frame = 0
 3705              		@ frame_needed = 0, uses_anonymous_args = 0
 3706              	.LVL336:
 3707 0000 10B5     		push	{r4, lr}
 3708              	.LCFI31:
 3709              		.cfi_def_cfa_offset 8
 3710              		.cfi_offset 14, -4
 3711              		.cfi_offset 4, -8
 3712              		.loc 1 827 0
 3713 0002 0446     		mov	r4, r0
 3714              	.LBB82:
 3715              		.loc 1 829 0
 3716 0004 FFF7FEFF 		bl	chPoolInit
 3717              	.LVL337:
 3718              	.LBE82:
 3719              		.loc 1 830 0
 3720 0008 2046     		mov	r0, r4
 3721 000a 10BD     		pop	{r4, pc}
 3722              		.cfi_endproc
 3723              	.LFE165:
 3724              		.size	_ZN10chibios_rt10MemoryPoolC2EjPFPvjE, .-_ZN10chibios_rt10MemoryPoolC2EjPFPvjE
 3725 000c AFF30080 		.section	.text._ZN10chibios_rt10MemoryPoolC2EjPFPvjES1_j,"ax",%progbits
 3726              		.align	2
 3727              		.p2align 4,,15
 3728              		.global	_ZN10chibios_rt10MemoryPoolC2EjPFPvjES1_j
 3729              		.thumb
 3730              		.thumb_func
 3731              		.type	_ZN10chibios_rt10MemoryPoolC2EjPFPvjES1_j, %function
 3732              	_ZN10chibios_rt10MemoryPoolC2EjPFPvjES1_j:
 3733              	.LFB168:
 3734              		.loc 1 832 0
 3735              		.cfi_startproc
 3736              		@ args = 4, pretend = 0, frame = 0
 3737              		@ frame_needed = 0, uses_anonymous_args = 0
 3738              	.LVL338:
 3739 0000 38B5     		push	{r3, r4, r5, lr}
 3740              	.LCFI32:
 3741              		.cfi_def_cfa_offset 16
 3742              		.cfi_offset 14, -4
 3743              		.cfi_offset 5, -8
ARM GAS  /tmp/ccq01laD.s 			page 70


 3744              		.cfi_offset 4, -12
 3745              		.cfi_offset 3, -16
 3746              		.loc 1 832 0
 3747 0002 0446     		mov	r4, r0
 3748 0004 1D46     		mov	r5, r3
 3749              	.LBB83:
 3750              		.loc 1 834 0
 3751 0006 FFF7FEFF 		bl	chPoolInit
 3752              	.LVL339:
 3753              		.loc 1 835 0
 3754 000a 2046     		mov	r0, r4
 3755 000c 2946     		mov	r1, r5
 3756 000e 049A     		ldr	r2, [sp, #16]
 3757 0010 FFF7FEFF 		bl	chPoolLoadArray
 3758              	.LBE83:
 3759              		.loc 1 836 0
 3760 0014 2046     		mov	r0, r4
 3761 0016 38BD     		pop	{r3, r4, r5, pc}
 3762              		.cfi_endproc
 3763              	.LFE168:
 3764              		.size	_ZN10chibios_rt10MemoryPoolC2EjPFPvjES1_j, .-_ZN10chibios_rt10MemoryPoolC2EjPFPvjES1_j
 3765 0018 AFF30080 		.section	.text._ZN10chibios_rt10MemoryPool9loadArrayEPvj,"ax",%progbits
 3765      AFF30080 
 3766              		.align	2
 3767              		.p2align 4,,15
 3768              		.global	_ZN10chibios_rt10MemoryPool9loadArrayEPvj
 3769              		.thumb
 3770              		.thumb_func
 3771              		.type	_ZN10chibios_rt10MemoryPool9loadArrayEPvj, %function
 3772              	_ZN10chibios_rt10MemoryPool9loadArrayEPvj:
 3773              	.LFB170:
 3774              		.loc 1 839 0
 3775              		.cfi_startproc
 3776              		@ args = 0, pretend = 0, frame = 0
 3777              		@ frame_needed = 0, uses_anonymous_args = 0
 3778              		@ link register save eliminated.
 3779              	.LVL340:
 3780              		.loc 1 842 0
 3781              		.loc 1 841 0
 3782 0000 FFF7FEBF 		b	chPoolLoadArray
 3783              	.LVL341:
 3784              	.LVL342:
 3785              	.LVL343:
 3786              		.cfi_endproc
 3787              	.LFE170:
 3788              		.size	_ZN10chibios_rt10MemoryPool9loadArrayEPvj, .-_ZN10chibios_rt10MemoryPool9loadArrayEPvj
 3789 0004 AFF30080 		.section	.text._ZN10chibios_rt10MemoryPool6allocIEv,"ax",%progbits
 3789      AFF30080 
 3789      AFF30080 
 3790              		.align	2
 3791              		.p2align 4,,15
 3792              		.global	_ZN10chibios_rt10MemoryPool6allocIEv
 3793              		.thumb
 3794              		.thumb_func
 3795              		.type	_ZN10chibios_rt10MemoryPool6allocIEv, %function
 3796              	_ZN10chibios_rt10MemoryPool6allocIEv:
 3797              	.LFB171:
ARM GAS  /tmp/ccq01laD.s 			page 71


 3798              		.loc 1 844 0
 3799              		.cfi_startproc
 3800              		@ args = 0, pretend = 0, frame = 0
 3801              		@ frame_needed = 0, uses_anonymous_args = 0
 3802              		@ link register save eliminated.
 3803              	.LVL344:
 3804              		.loc 1 847 0
 3805              		.loc 1 846 0
 3806 0000 FFF7FEBF 		b	chPoolAllocI
 3807              	.LVL345:
 3808              		.cfi_endproc
 3809              	.LFE171:
 3810              		.size	_ZN10chibios_rt10MemoryPool6allocIEv, .-_ZN10chibios_rt10MemoryPool6allocIEv
 3811 0004 AFF30080 		.section	.text._ZN10chibios_rt10MemoryPool5allocEv,"ax",%progbits
 3811      AFF30080 
 3811      AFF30080 
 3812              		.align	2
 3813              		.p2align 4,,15
 3814              		.global	_ZN10chibios_rt10MemoryPool5allocEv
 3815              		.thumb
 3816              		.thumb_func
 3817              		.type	_ZN10chibios_rt10MemoryPool5allocEv, %function
 3818              	_ZN10chibios_rt10MemoryPool5allocEv:
 3819              	.LFB172:
 3820              		.loc 1 849 0
 3821              		.cfi_startproc
 3822              		@ args = 0, pretend = 0, frame = 0
 3823              		@ frame_needed = 0, uses_anonymous_args = 0
 3824              		@ link register save eliminated.
 3825              	.LVL346:
 3826              		.loc 1 852 0
 3827              		.loc 1 851 0
 3828 0000 FFF7FEBF 		b	chPoolAlloc
 3829              	.LVL347:
 3830              		.cfi_endproc
 3831              	.LFE172:
 3832              		.size	_ZN10chibios_rt10MemoryPool5allocEv, .-_ZN10chibios_rt10MemoryPool5allocEv
 3833 0004 AFF30080 		.section	.text._ZN10chibios_rt10MemoryPool4freeEPv,"ax",%progbits
 3833      AFF30080 
 3833      AFF30080 
 3834              		.align	2
 3835              		.p2align 4,,15
 3836              		.global	_ZN10chibios_rt10MemoryPool4freeEPv
 3837              		.thumb
 3838              		.thumb_func
 3839              		.type	_ZN10chibios_rt10MemoryPool4freeEPv, %function
 3840              	_ZN10chibios_rt10MemoryPool4freeEPv:
 3841              	.LFB173:
 3842              		.loc 1 854 0
 3843              		.cfi_startproc
 3844              		@ args = 0, pretend = 0, frame = 0
 3845              		@ frame_needed = 0, uses_anonymous_args = 0
 3846              		@ link register save eliminated.
 3847              	.LVL348:
 3848              		.loc 1 857 0
 3849              		.loc 1 856 0
 3850 0000 FFF7FEBF 		b	chPoolFree
ARM GAS  /tmp/ccq01laD.s 			page 72


 3851              	.LVL349:
 3852              	.LVL350:
 3853              		.cfi_endproc
 3854              	.LFE173:
 3855              		.size	_ZN10chibios_rt10MemoryPool4freeEPv, .-_ZN10chibios_rt10MemoryPool4freeEPv
 3856 0004 AFF30080 		.section	.text._ZN10chibios_rt10MemoryPool5freeIEPv,"ax",%progbits
 3856      AFF30080 
 3856      AFF30080 
 3857              		.align	2
 3858              		.p2align 4,,15
 3859              		.global	_ZN10chibios_rt10MemoryPool5freeIEPv
 3860              		.thumb
 3861              		.thumb_func
 3862              		.type	_ZN10chibios_rt10MemoryPool5freeIEPv, %function
 3863              	_ZN10chibios_rt10MemoryPool5freeIEPv:
 3864              	.LFB174:
 3865              		.loc 1 859 0
 3866              		.cfi_startproc
 3867              		@ args = 0, pretend = 0, frame = 0
 3868              		@ frame_needed = 0, uses_anonymous_args = 0
 3869              		@ link register save eliminated.
 3870              	.LVL351:
 3871              		.loc 1 862 0
 3872              		.loc 1 861 0
 3873 0000 FFF7FEBF 		b	chPoolFreeI
 3874              	.LVL352:
 3875              	.LVL353:
 3876              		.cfi_endproc
 3877              	.LFE174:
 3878              		.size	_ZN10chibios_rt10MemoryPool5freeIEPv, .-_ZN10chibios_rt10MemoryPool5freeIEPv
 3879              		.global	_ZTVN10chibios_rt15ThreadReferenceE
 3880              		.global	_ZTVN10chibios_rt10BaseThreadE
 3881              		.global	_ZN10chibios_rt10BaseThreadC1Ev
 3882              		.thumb_set _ZN10chibios_rt10BaseThreadC1Ev,_ZN10chibios_rt10BaseThreadC2Ev
 3883              		.global	_ZN10chibios_rt16CounterSemaphoreC1El
 3884              		.thumb_set _ZN10chibios_rt16CounterSemaphoreC1El,_ZN10chibios_rt16CounterSemaphoreC2El
 3885              		.global	_ZN10chibios_rt15BinarySemaphoreC1Eb
 3886              		.thumb_set _ZN10chibios_rt15BinarySemaphoreC1Eb,_ZN10chibios_rt15BinarySemaphoreC2Eb
 3887              		.global	_ZN10chibios_rt5MutexC1Ev
 3888              		.thumb_set _ZN10chibios_rt5MutexC1Ev,_ZN10chibios_rt5MutexC2Ev
 3889              		.global	_ZN10chibios_rt7CondVarC1Ev
 3890              		.thumb_set _ZN10chibios_rt7CondVarC1Ev,_ZN10chibios_rt7CondVarC2Ev
 3891              		.global	_ZN10chibios_rt9EvtSourceC1Ev
 3892              		.thumb_set _ZN10chibios_rt9EvtSourceC1Ev,_ZN10chibios_rt9EvtSourceC2Ev
 3893              		.global	_ZN10chibios_rt7InQueueC1EPhjPFvP12GenericQueueEPv
 3894              		.thumb_set _ZN10chibios_rt7InQueueC1EPhjPFvP12GenericQueueEPv,_ZN10chibios_rt7InQueueC2EPhjPFvP12G
 3895              		.global	_ZN10chibios_rt8OutQueueC1EPhjPFvP12GenericQueueEPv
 3896              		.thumb_set _ZN10chibios_rt8OutQueueC1EPhjPFvP12GenericQueueEPv,_ZN10chibios_rt8OutQueueC2EPhjPFvP1
 3897              		.global	_ZN10chibios_rt7MailboxC1EPll
 3898              		.thumb_set _ZN10chibios_rt7MailboxC1EPll,_ZN10chibios_rt7MailboxC2EPll
 3899              		.global	_ZN10chibios_rt10MemoryPoolC1EjPFPvjE
 3900              		.thumb_set _ZN10chibios_rt10MemoryPoolC1EjPFPvjE,_ZN10chibios_rt10MemoryPoolC2EjPFPvjE
 3901              		.global	_ZN10chibios_rt10MemoryPoolC1EjPFPvjES1_j
 3902              		.thumb_set _ZN10chibios_rt10MemoryPoolC1EjPFPvjES1_j,_ZN10chibios_rt10MemoryPoolC2EjPFPvjES1_j
 3903 0004 AFF30080 		.section	.rodata._ZTVN10chibios_rt10BaseThreadE,"a",%progbits
 3903      AFF30080 
 3903      AFF30080 
ARM GAS  /tmp/ccq01laD.s 			page 73


 3904              		.align	3
 3905              		.set	.LANCHOR1,. + 0
 3906              		.type	_ZTVN10chibios_rt10BaseThreadE, %object
 3907              		.size	_ZTVN10chibios_rt10BaseThreadE, 20
 3908              	_ZTVN10chibios_rt10BaseThreadE:
 3909 0000 00000000 		.word	0
 3910 0004 00000000 		.word	0
 3911 0008 00000000 		.word	_ZN10chibios_rt15ThreadReference4stopEv
 3912 000c 00000000 		.word	_ZN10chibios_rt10BaseThread4mainEv
 3913 0010 00000000 		.word	_ZN10chibios_rt10BaseThread5startEm
 3914 0014 00000000 		.section	.rodata.str1.4,"aMS",%progbits,1
 3915              		.align	2
 3916              	.LC0:
 3917 0000 696E766F 		.ascii	"invoked unimplemented method stop()\000"
 3917      6B656420 
 3917      756E696D 
 3917      706C656D 
 3917      656E7465 
 3918              	.LC1:
 3919 0024 54687265 		.ascii	"ThreadReference, #1\000"
 3919      61645265 
 3919      66657265 
 3919      6E63652C 
 3919      20233100 
 3920              	.LC2:
 3921 0038 54687265 		.ascii	"ThreadReference, #2\000"
 3921      61645265 
 3921      66657265 
 3921      6E63652C 
 3921      20233200 
 3922              	.LC3:
 3923 004c 54687265 		.ascii	"ThreadReference, #3\000"
 3923      61645265 
 3923      66657265 
 3923      6E63652C 
 3923      20233300 
 3924              	.LC4:
 3925 0060 54687265 		.ascii	"ThreadReference, #4\000"
 3925      61645265 
 3925      66657265 
 3925      6E63652C 
 3925      20233400 
 3926              	.LC5:
 3927 0074 54687265 		.ascii	"ThreadReference, #5\000"
 3927      61645265 
 3927      66657265 
 3927      6E63652C 
 3927      20233500 
 3928              	.LC6:
 3929 0088 54687265 		.ascii	"ThreadReference, #6\000"
 3929      61645265 
 3929      66657265 
 3929      6E63652C 
 3929      20233600 
 3930              	.LC7:
 3931 009c 54687265 		.ascii	"ThreadReference, #7\000"
 3931      61645265 
ARM GAS  /tmp/ccq01laD.s 			page 74


 3931      66657265 
 3931      6E63652C 
 3931      20233700 
 3932              	.LC8:
 3933 00b0 54687265 		.ascii	"ThreadReference, #8\000"
 3933      61645265 
 3933      66657265 
 3933      6E63652C 
 3933      20233800 
 3934              	.LC9:
 3935 00c4 54687265 		.ascii	"ThreadReference, #9\000"
 3935      61645265 
 3935      66657265 
 3935      6E63652C 
 3935      20233900 
 3936              	.LC10:
 3937 00d8 54687265 		.ascii	"ThreadReference, #10\000"
 3937      61645265 
 3937      66657265 
 3937      6E63652C 
 3937      20233130 
 3938 00ed 000000   		.space	3
 3939              	.LC11:
 3940 00f0 54687265 		.ascii	"ThreadReference, #11\000"
 3940      61645265 
 3940      66657265 
 3940      6E63652C 
 3940      20233131 
 3941 0105 000000   		.section	.rodata._ZTVN10chibios_rt15ThreadReferenceE,"a",%progbits
 3942              		.align	3
 3943              		.set	.LANCHOR0,. + 0
 3944              		.type	_ZTVN10chibios_rt15ThreadReferenceE, %object
 3945              		.size	_ZTVN10chibios_rt15ThreadReferenceE, 12
 3946              	_ZTVN10chibios_rt15ThreadReferenceE:
 3947 0000 00000000 		.word	0
 3948 0004 00000000 		.word	0
 3949 0008 00000000 		.word	_ZN10chibios_rt15ThreadReference4stopEv
 3950 000c 00000000 		.text
 3951              	.Letext0:
 3952              		.file 3 "/home/tino/ChibiStudio/tools/GNU Tools ARM Embedded/4.6 2012q2/bin/../lib/gcc/arm-none-ea
 3953              		.file 4 "/home/tino/ChibiStudio/tools/GNU Tools ARM Embedded/4.6 2012q2/bin/../lib/gcc/arm-none-ea
 3954              		.file 5 "../../ChibiOS/os/ports/GCC/ARMCMx/chtypes.h"
 3955              		.file 6 "../../ChibiOS/os/kernel/include/chlists.h"
 3956              		.file 7 "../../ChibiOS/os/kernel/include/chthreads.h"
 3957              		.file 8 "../../ChibiOS/os/ports/GCC/ARMCMx/chcore_v7m.h"
 3958              		.file 9 "../../ChibiOS/os/kernel/include/chvt.h"
 3959              		.file 10 "../../ChibiOS/os/kernel/include/chschd.h"
 3960              		.file 11 "../../ChibiOS/os/kernel/include/chsem.h"
 3961              		.file 12 "../../ChibiOS/os/kernel/include/chbsem.h"
 3962              		.file 13 "../../ChibiOS/os/kernel/include/chmtx.h"
 3963              		.file 14 "../../ChibiOS/os/kernel/include/chcond.h"
 3964              		.file 15 "../../ChibiOS/os/kernel/include/chevents.h"
 3965              		.file 16 "../../ChibiOS/os/kernel/include/chmboxes.h"
 3966              		.file 17 "../../ChibiOS/os/kernel/include/chmemcore.h"
 3967              		.file 18 "../../ChibiOS/os/kernel/include/chmempools.h"
 3968              		.file 19 "../../ChibiOS/os/kernel/include/chqueues.h"