ARM GAS  /tmp/ccwAa4xc.s 			page 1


   1              		.syntax unified
   2              		.cpu cortex-m3
   3              		.fpu softvfp
   4              		.eabi_attribute 20, 1
   5              		.eabi_attribute 21, 1
   6              		.eabi_attribute 23, 3
   7              		.eabi_attribute 24, 1
   8              		.eabi_attribute 25, 1
   9              		.eabi_attribute 26, 1
  10              		.eabi_attribute 30, 2
  11              		.eabi_attribute 34, 1
  12              		.eabi_attribute 18, 4
  13              		.thumb
  14              		.file	"chcond.c"
  15              		.text
  16              	.Ltext0:
  17              		.cfi_sections	.debug_frame
  18              		.section	.text.chCondInit,"ax",%progbits
  19              		.align	2
  20              		.p2align 4,,15
  21              		.global	chCondInit
  22              		.thumb
  23              		.thumb_func
  24              		.type	chCondInit, %function
  25              	chCondInit:
  26              	.LFB7:
  27              		.file 1 "../../ChibiOS/os/kernel/src/chcond.c"
  28              		.loc 1 52 0
  29              		.cfi_startproc
  30              		@ args = 0, pretend = 0, frame = 0
  31              		@ frame_needed = 0, uses_anonymous_args = 0
  32              	.LVL0:
  33 0000 10B5     		push	{r4, lr}
  34              	.LCFI0:
  35              		.cfi_def_cfa_offset 8
  36              		.cfi_offset 14, -4
  37              		.cfi_offset 4, -8
  38              		.loc 1 52 0
  39 0002 0446     		mov	r4, r0
  40              		.loc 1 54 0
  41 0004 10B1     		cbz	r0, .L4
  42              		.loc 1 56 0
  43 0006 6460     		str	r4, [r4, #4]
  44 0008 2460     		str	r4, [r4, #0]
  45              		.loc 1 57 0
  46 000a 10BD     		pop	{r4, pc}
  47              	.L4:
  48              		.loc 1 54 0 discriminator 1
  49 000c 0248     		ldr	r0, .L5
  50              	.LVL1:
  51 000e FFF7FEFF 		bl	chDbgPanic
  52              		.loc 1 56 0 discriminator 1
  53 0012 6460     		str	r4, [r4, #4]
  54 0014 2460     		str	r4, [r4, #0]
  55              		.loc 1 57 0 discriminator 1
  56 0016 10BD     		pop	{r4, pc}
  57              	.L6:
ARM GAS  /tmp/ccwAa4xc.s 			page 2


  58              		.align	2
  59              	.L5:
  60 0018 00000000 		.word	.LC0
  61              		.cfi_endproc
  62              	.LFE7:
  63              		.size	chCondInit, .-chCondInit
  64 001c AFF30080 		.section	.text.chCondSignal,"ax",%progbits
  65              		.align	2
  66              		.p2align 4,,15
  67              		.global	chCondSignal
  68              		.thumb
  69              		.thumb_func
  70              		.type	chCondSignal, %function
  71              	chCondSignal:
  72              	.LFB8:
  73              		.loc 1 66 0
  74              		.cfi_startproc
  75              		@ args = 0, pretend = 0, frame = 0
  76              		@ frame_needed = 0, uses_anonymous_args = 0
  77              	.LVL2:
  78 0000 10B5     		push	{r4, lr}
  79              	.LCFI1:
  80              		.cfi_def_cfa_offset 8
  81              		.cfi_offset 14, -4
  82              		.cfi_offset 4, -8
  83              		.loc 1 66 0
  84 0002 0446     		mov	r4, r0
  85              		.loc 1 68 0
  86 0004 98B1     		cbz	r0, .L10
  87              	.LVL3:
  88              	.L8:
  89              	.LBB14:
  90              		.loc 1 70 0
  91 0006 2023     		movs	r3, #32
  92              	.LVL4:
  93              	@ 70 "../../ChibiOS/os/kernel/src/chcond.c" 1
  94 0008 83F31188 		msr     BASEPRI, r3
  95              	@ 0 "" 2
  96              	.LVL5:
  97              		.thumb
  98              	.LBE14:
  99 000c FFF7FEFF 		bl	dbg_check_lock
 100              	.LVL6:
 101              		.loc 1 71 0
 102 0010 2068     		ldr	r0, [r4, #0]
 103 0012 A042     		cmp	r0, r4
 104 0014 05D0     		beq	.L9
 105              	.LVL7:
 106              	.LBB15:
 107              	.LBB16:
 108              		.file 2 "../../ChibiOS/os/kernel/include/chinline.h"
 109              		.loc 2 55 0
 110 0016 0368     		ldr	r3, [r0, #0]
 111              	.LBE16:
 112              	.LBE15:
 113              		.loc 1 72 0
 114 0018 0021     		movs	r1, #0
ARM GAS  /tmp/ccwAa4xc.s 			page 3


 115              	.LBB18:
 116              	.LBB17:
 117              		.loc 2 55 0
 118 001a 2360     		str	r3, [r4, #0]
 119 001c 5C60     		str	r4, [r3, #4]
 120              	.LBE17:
 121              	.LBE18:
 122              		.loc 1 72 0
 123 001e FFF7FEFF 		bl	chSchWakeupS
 124              	.LVL8:
 125              	.L9:
 126              		.loc 1 73 0
 127 0022 FFF7FEFF 		bl	dbg_check_unlock
 128              	.LBB19:
 129 0026 0023     		movs	r3, #0
 130              	.LVL9:
 131              	@ 73 "../../ChibiOS/os/kernel/src/chcond.c" 1
 132 0028 83F31188 		msr     BASEPRI, r3
 133              	@ 0 "" 2
 134              	.LVL10:
 135              		.thumb
 136              	.LBE19:
 137              		.loc 1 74 0
 138 002c 10BD     		pop	{r4, pc}
 139              	.LVL11:
 140              	.L10:
 141              		.loc 1 68 0 discriminator 1
 142 002e 0248     		ldr	r0, .L11
 143 0030 FFF7FEFF 		bl	chDbgPanic
 144 0034 E7E7     		b	.L8
 145              	.L12:
 146 0036 00BF     		.align	2
 147              	.L11:
 148 0038 10000000 		.word	.LC1
 149              		.cfi_endproc
 150              	.LFE8:
 151              		.size	chCondSignal, .-chCondSignal
 152 003c AFF30080 		.section	.text.chCondSignalI,"ax",%progbits
 153              		.align	2
 154              		.p2align 4,,15
 155              		.global	chCondSignalI
 156              		.thumb
 157              		.thumb_func
 158              		.type	chCondSignalI, %function
 159              	chCondSignalI:
 160              	.LFB9:
 161              		.loc 1 87 0
 162              		.cfi_startproc
 163              		@ args = 0, pretend = 0, frame = 0
 164              		@ frame_needed = 0, uses_anonymous_args = 0
 165              	.LVL12:
 166 0000 10B5     		push	{r4, lr}
 167              	.LCFI2:
 168              		.cfi_def_cfa_offset 8
 169              		.cfi_offset 14, -4
 170              		.cfi_offset 4, -8
 171              		.loc 1 87 0
ARM GAS  /tmp/ccwAa4xc.s 			page 4


 172 0002 0446     		mov	r4, r0
 173              		.loc 1 89 0
 174 0004 FFF7FEFF 		bl	chDbgCheckClassI
 175              	.LVL13:
 176              		.loc 1 90 0
 177 0008 54B1     		cbz	r4, .L16
 178              	.L14:
 179              		.loc 1 92 0
 180 000a 2068     		ldr	r0, [r4, #0]
 181 000c A042     		cmp	r0, r4
 182 000e 06D0     		beq	.L13
 183              	.LVL14:
 184              	.LBB20:
 185              	.LBB21:
 186              		.loc 2 55 0
 187 0010 0168     		ldr	r1, [r0, #0]
 188 0012 2160     		str	r1, [r4, #0]
 189 0014 4C60     		str	r4, [r1, #4]
 190              	.LBE21:
 191              	.LBE20:
 192              		.loc 1 93 0
 193 0016 FFF7FEFF 		bl	chSchReadyI
 194              	.LVL15:
 195 001a 0023     		movs	r3, #0
 196 001c 8362     		str	r3, [r0, #40]
 197              	.LVL16:
 198              	.L13:
 199 001e 10BD     		pop	{r4, pc}
 200              	.L16:
 201              		.loc 1 90 0 discriminator 1
 202 0020 0148     		ldr	r0, .L17
 203 0022 FFF7FEFF 		bl	chDbgPanic
 204 0026 F0E7     		b	.L14
 205              	.L18:
 206              		.align	2
 207              	.L17:
 208 0028 24000000 		.word	.LC2
 209              		.cfi_endproc
 210              	.LFE9:
 211              		.size	chCondSignalI, .-chCondSignalI
 212 002c AFF30080 		.section	.text.chCondBroadcast,"ax",%progbits
 213              		.align	2
 214              		.p2align 4,,15
 215              		.global	chCondBroadcast
 216              		.thumb
 217              		.thumb_func
 218              		.type	chCondBroadcast, %function
 219              	chCondBroadcast:
 220              	.LFB10:
 221              		.loc 1 103 0
 222              		.cfi_startproc
 223              		@ args = 0, pretend = 0, frame = 0
 224              		@ frame_needed = 0, uses_anonymous_args = 0
 225              	.LVL17:
 226 0000 38B5     		push	{r3, r4, r5, lr}
 227              	.LCFI3:
 228              		.cfi_def_cfa_offset 16
ARM GAS  /tmp/ccwAa4xc.s 			page 5


 229              		.cfi_offset 14, -4
 230              		.cfi_offset 5, -8
 231              		.cfi_offset 4, -12
 232              		.cfi_offset 3, -16
 233              		.loc 1 103 0
 234 0002 0446     		mov	r4, r0
 235              	.LBB28:
 236              		.loc 1 105 0
 237 0004 2023     		movs	r3, #32
 238              	.LVL18:
 239              	@ 105 "../../ChibiOS/os/kernel/src/chcond.c" 1
 240 0006 83F31188 		msr     BASEPRI, r3
 241              	@ 0 "" 2
 242              	.LVL19:
 243              		.thumb
 244              	.LBE28:
 245 000a FFF7FEFF 		bl	dbg_check_lock
 246              	.LVL20:
 247              	.LBB29:
 248              	.LBB30:
 249              		.loc 1 124 0
 250 000e FFF7FEFF 		bl	chDbgCheckClassI
 251              		.loc 1 125 0
 252 0012 ACB1     		cbz	r4, .L25
 253              	.L20:
 254              		.loc 1 130 0
 255 0014 2068     		ldr	r0, [r4, #0]
 256 0016 A042     		cmp	r0, r4
 257 0018 0AD0     		beq	.L21
 258              		.loc 1 131 0
 259 001a 6FF00105 		mvn	r5, #1
 260              	.L23:
 261              	.LVL21:
 262              	.LBB31:
 263              	.LBB32:
 264              		.loc 2 55 0
 265 001e 0368     		ldr	r3, [r0, #0]
 266 0020 2360     		str	r3, [r4, #0]
 267 0022 5C60     		str	r4, [r3, #4]
 268              	.LBE32:
 269              	.LBE31:
 270              		.loc 1 131 0
 271 0024 FFF7FEFF 		bl	chSchReadyI
 272              	.LVL22:
 273 0028 8562     		str	r5, [r0, #40]
 274              		.loc 1 130 0
 275 002a 2068     		ldr	r0, [r4, #0]
 276 002c A042     		cmp	r0, r4
 277 002e F6D1     		bne	.L23
 278              	.LVL23:
 279              	.L21:
 280              	.LBE30:
 281              	.LBE29:
 282              		.loc 1 107 0
 283 0030 FFF7FEFF 		bl	chSchRescheduleS
 284              		.loc 1 108 0
 285 0034 FFF7FEFF 		bl	dbg_check_unlock
ARM GAS  /tmp/ccwAa4xc.s 			page 6


 286              	.LBB34:
 287 0038 0023     		movs	r3, #0
 288              	.LVL24:
 289              	@ 108 "../../ChibiOS/os/kernel/src/chcond.c" 1
 290 003a 83F31188 		msr     BASEPRI, r3
 291              	@ 0 "" 2
 292              	.LVL25:
 293              		.thumb
 294              	.LBE34:
 295              		.loc 1 109 0
 296 003e 38BD     		pop	{r3, r4, r5, pc}
 297              	.LVL26:
 298              	.L25:
 299              	.LBB35:
 300              	.LBB33:
 301              		.loc 1 125 0
 302 0040 0148     		ldr	r0, .L26
 303 0042 FFF7FEFF 		bl	chDbgPanic
 304 0046 E5E7     		b	.L20
 305              	.L27:
 306              		.align	2
 307              	.L26:
 308 0048 38000000 		.word	.LC3
 309              	.LBE33:
 310              	.LBE35:
 311              		.cfi_endproc
 312              	.LFE10:
 313              		.size	chCondBroadcast, .-chCondBroadcast
 314 004c AFF30080 		.section	.text.chCondBroadcastI,"ax",%progbits
 315              		.align	2
 316              		.p2align 4,,15
 317              		.global	chCondBroadcastI
 318              		.thumb
 319              		.thumb_func
 320              		.type	chCondBroadcastI, %function
 321              	chCondBroadcastI:
 322              	.LFB11:
 323              		.loc 1 122 0
 324              		.cfi_startproc
 325              		@ args = 0, pretend = 0, frame = 0
 326              		@ frame_needed = 0, uses_anonymous_args = 0
 327              	.LVL27:
 328 0000 38B5     		push	{r3, r4, r5, lr}
 329              	.LCFI4:
 330              		.cfi_def_cfa_offset 16
 331              		.cfi_offset 14, -4
 332              		.cfi_offset 5, -8
 333              		.cfi_offset 4, -12
 334              		.cfi_offset 3, -16
 335              		.loc 1 122 0
 336 0002 0446     		mov	r4, r0
 337              		.loc 1 124 0
 338 0004 FFF7FEFF 		bl	chDbgCheckClassI
 339              	.LVL28:
 340              		.loc 1 125 0
 341 0008 74B1     		cbz	r4, .L34
 342              	.L29:
ARM GAS  /tmp/ccwAa4xc.s 			page 7


 343              		.loc 1 130 0 discriminator 1
 344 000a 2068     		ldr	r0, [r4, #0]
 345 000c A042     		cmp	r0, r4
 346 000e 0AD0     		beq	.L28
 347              		.loc 1 131 0
 348 0010 6FF00105 		mvn	r5, #1
 349              	.L32:
 350              	.LVL29:
 351              	.LBB36:
 352              	.LBB37:
 353              		.loc 2 55 0
 354 0014 0368     		ldr	r3, [r0, #0]
 355 0016 2360     		str	r3, [r4, #0]
 356 0018 5C60     		str	r4, [r3, #4]
 357              	.LBE37:
 358              	.LBE36:
 359              		.loc 1 131 0
 360 001a FFF7FEFF 		bl	chSchReadyI
 361              	.LVL30:
 362 001e 8562     		str	r5, [r0, #40]
 363              		.loc 1 130 0
 364 0020 2068     		ldr	r0, [r4, #0]
 365 0022 A042     		cmp	r0, r4
 366 0024 F6D1     		bne	.L32
 367              	.LVL31:
 368              	.L28:
 369 0026 38BD     		pop	{r3, r4, r5, pc}
 370              	.L34:
 371              		.loc 1 125 0 discriminator 1
 372 0028 0148     		ldr	r0, .L35
 373 002a FFF7FEFF 		bl	chDbgPanic
 374 002e ECE7     		b	.L29
 375              	.L36:
 376              		.align	2
 377              	.L35:
 378 0030 38000000 		.word	.LC3
 379              		.cfi_endproc
 380              	.LFE11:
 381              		.size	chCondBroadcastI, .-chCondBroadcastI
 382 0034 AFF30080 		.section	.text.chCondWait,"ax",%progbits
 382      AFF30080 
 382      AFF30080 
 383              		.align	2
 384              		.p2align 4,,15
 385              		.global	chCondWait
 386              		.thumb
 387              		.thumb_func
 388              		.type	chCondWait, %function
 389              	chCondWait:
 390              	.LFB12:
 391              		.loc 1 151 0
 392              		.cfi_startproc
 393              		@ args = 0, pretend = 0, frame = 0
 394              		@ frame_needed = 0, uses_anonymous_args = 0
 395              	.LVL32:
 396 0000 70B5     		push	{r4, r5, r6, lr}
 397              	.LCFI5:
ARM GAS  /tmp/ccwAa4xc.s 			page 8


 398              		.cfi_def_cfa_offset 16
 399              		.cfi_offset 14, -4
 400              		.cfi_offset 6, -8
 401              		.cfi_offset 5, -12
 402              		.cfi_offset 4, -16
 403              	.LBB44:
 404              		.loc 1 154 0
 405 0002 2023     		movs	r3, #32
 406              	.LVL33:
 407              	.LBE44:
 408              		.loc 1 151 0
 409 0004 0446     		mov	r4, r0
 410              	.LBB45:
 411              		.loc 1 154 0
 412              	@ 154 "../../ChibiOS/os/kernel/src/chcond.c" 1
 413 0006 83F31188 		msr     BASEPRI, r3
 414              	@ 0 "" 2
 415              	.LVL34:
 416              		.thumb
 417              	.LBE45:
 418 000a FFF7FEFF 		bl	dbg_check_lock
 419              	.LVL35:
 420              	.LBB46:
 421              	.LBB47:
 422              		.loc 1 178 0
 423 000e 194B     		ldr	r3, .L47
 424 0010 9D69     		ldr	r5, [r3, #24]
 425              	.LVL36:
 426              		.loc 1 182 0
 427 0012 FFF7FEFF 		bl	chDbgCheckClassS
 428              	.LVL37:
 429              		.loc 1 183 0
 430 0016 002C     		cmp	r4, #0
 431 0018 28D0     		beq	.L43
 432              	.L38:
 433              		.loc 1 184 0
 434 001a 286C     		ldr	r0, [r5, #64]
 435 001c 10B3     		cbz	r0, .L44
 436              	.L39:
 437              		.loc 1 188 0
 438 001e FFF7FEFF 		bl	chMtxUnlockS
 439              		.loc 1 189 0
 440 0022 AC62     		str	r4, [r5, #40]
 441              		.loc 1 188 0
 442 0024 0646     		mov	r6, r0
 443              	.LVL38:
 444              		.loc 2 36 0
 445 0026 2346     		mov	r3, r4
 446              		.loc 1 190 0
 447 0028 2046     		mov	r0, r4
 448              	.LVL39:
 449 002a 03E0     		b	.L41
 450              	.LVL40:
 451              	.L46:
 452              	.LBB48:
 453              	.LBB49:
 454              		.loc 2 39 0
ARM GAS  /tmp/ccwAa4xc.s 			page 9


 455 002c 9968     		ldr	r1, [r3, #8]
 456 002e AA68     		ldr	r2, [r5, #8]
 457 0030 9142     		cmp	r1, r2
 458 0032 15D3     		bcc	.L45
 459              	.L41:
 460              		.loc 2 38 0
 461 0034 1B68     		ldr	r3, [r3, #0]
 462              	.LVL41:
 463              		.loc 2 39 0
 464 0036 9C42     		cmp	r4, r3
 465 0038 F8D1     		bne	.L46
 466              	.L40:
 467              		.loc 2 41 0
 468 003a 4368     		ldr	r3, [r0, #4]
 469              	.LVL42:
 470 003c 85E80900 		stmia	r5, {r0, r3}
 471              		.loc 2 42 0
 472 0040 1D60     		str	r5, [r3, #0]
 473 0042 4560     		str	r5, [r0, #4]
 474              	.LBE49:
 475              	.LBE48:
 476              		.loc 1 191 0
 477 0044 0520     		movs	r0, #5
 478 0046 FFF7FEFF 		bl	chSchGoSleepS
 479              		.loc 1 193 0
 480 004a 3046     		mov	r0, r6
 481              		.loc 1 192 0
 482 004c AC6A     		ldr	r4, [r5, #40]
 483              	.LVL43:
 484              		.loc 1 193 0
 485 004e FFF7FEFF 		bl	chMtxLockS
 486              	.LVL44:
 487              	.LBE47:
 488              	.LBE46:
 489              		.loc 1 156 0
 490 0052 FFF7FEFF 		bl	dbg_check_unlock
 491              	.LBB53:
 492 0056 0023     		movs	r3, #0
 493              	.LVL45:
 494              	@ 156 "../../ChibiOS/os/kernel/src/chcond.c" 1
 495 0058 83F31188 		msr     BASEPRI, r3
 496              	@ 0 "" 2
 497              	.LVL46:
 498              		.thumb
 499              	.LBE53:
 500              		.loc 1 158 0
 501 005c 2046     		mov	r0, r4
 502 005e 70BD     		pop	{r4, r5, r6, pc}
 503              	.LVL47:
 504              	.L45:
 505              	.LBB54:
 506              	.LBB52:
 507              	.LBB51:
 508              	.LBB50:
 509              		.loc 2 38 0
 510 0060 1846     		mov	r0, r3
 511              	.LVL48:
ARM GAS  /tmp/ccwAa4xc.s 			page 10


 512 0062 EAE7     		b	.L40
 513              	.LVL49:
 514              	.L44:
 515              	.LBE50:
 516              	.LBE51:
 517              		.loc 1 184 0
 518 0064 0448     		ldr	r0, .L47+4
 519 0066 FFF7FEFF 		bl	chDbgPanic
 520 006a D8E7     		b	.L39
 521              	.L43:
 522              		.loc 1 183 0
 523 006c 0348     		ldr	r0, .L47+8
 524 006e FFF7FEFF 		bl	chDbgPanic
 525 0072 D2E7     		b	.L38
 526              	.L48:
 527              		.align	2
 528              	.L47:
 529 0074 00000000 		.word	rlist
 530 0078 60000000 		.word	.LC5
 531 007c 50000000 		.word	.LC4
 532              	.LBE52:
 533              	.LBE54:
 534              		.cfi_endproc
 535              	.LFE12:
 536              		.size	chCondWait, .-chCondWait
 537              		.section	.text.chCondWaitS,"ax",%progbits
 538              		.align	2
 539              		.p2align 4,,15
 540              		.global	chCondWaitS
 541              		.thumb
 542              		.thumb_func
 543              		.type	chCondWaitS, %function
 544              	chCondWaitS:
 545              	.LFB13:
 546              		.loc 1 177 0
 547              		.cfi_startproc
 548              		@ args = 0, pretend = 0, frame = 0
 549              		@ frame_needed = 0, uses_anonymous_args = 0
 550              	.LVL50:
 551              		.loc 1 178 0
 552 0000 174B     		ldr	r3, .L59
 553              		.loc 1 177 0
 554 0002 70B5     		push	{r4, r5, r6, lr}
 555              	.LCFI6:
 556              		.cfi_def_cfa_offset 16
 557              		.cfi_offset 14, -4
 558              		.cfi_offset 6, -8
 559              		.cfi_offset 5, -12
 560              		.cfi_offset 4, -16
 561              		.loc 1 177 0
 562 0004 0546     		mov	r5, r0
 563              		.loc 1 178 0
 564 0006 9C69     		ldr	r4, [r3, #24]
 565              	.LVL51:
 566              		.loc 1 182 0
 567 0008 FFF7FEFF 		bl	chDbgCheckClassS
 568              	.LVL52:
ARM GAS  /tmp/ccwAa4xc.s 			page 11


 569              		.loc 1 183 0
 570 000c 1DB3     		cbz	r5, .L55
 571              	.L50:
 572              		.loc 1 184 0
 573 000e 206C     		ldr	r0, [r4, #64]
 574 0010 E8B1     		cbz	r0, .L56
 575              	.L51:
 576              		.loc 1 188 0
 577 0012 FFF7FEFF 		bl	chMtxUnlockS
 578              		.loc 1 189 0
 579 0016 A562     		str	r5, [r4, #40]
 580              		.loc 1 188 0
 581 0018 0646     		mov	r6, r0
 582              	.LVL53:
 583              		.loc 2 36 0
 584 001a 2B46     		mov	r3, r5
 585              		.loc 1 190 0
 586 001c 2846     		mov	r0, r5
 587              	.LVL54:
 588 001e 03E0     		b	.L53
 589              	.LVL55:
 590              	.L58:
 591              	.LBB55:
 592              	.LBB56:
 593              		.loc 2 39 0
 594 0020 9968     		ldr	r1, [r3, #8]
 595 0022 A268     		ldr	r2, [r4, #8]
 596 0024 9142     		cmp	r1, r2
 597 0026 10D3     		bcc	.L57
 598              	.L53:
 599              		.loc 2 38 0
 600 0028 1B68     		ldr	r3, [r3, #0]
 601              	.LVL56:
 602              		.loc 2 39 0
 603 002a 9D42     		cmp	r5, r3
 604 002c F8D1     		bne	.L58
 605              	.L52:
 606              		.loc 2 41 0
 607 002e 4368     		ldr	r3, [r0, #4]
 608              	.LVL57:
 609 0030 84E80900 		stmia	r4, {r0, r3}
 610              		.loc 2 42 0
 611 0034 1C60     		str	r4, [r3, #0]
 612 0036 4460     		str	r4, [r0, #4]
 613              	.LBE56:
 614              	.LBE55:
 615              		.loc 1 191 0
 616 0038 0520     		movs	r0, #5
 617 003a FFF7FEFF 		bl	chSchGoSleepS
 618              		.loc 1 192 0
 619 003e A46A     		ldr	r4, [r4, #40]
 620              	.LVL58:
 621              		.loc 1 193 0
 622 0040 3046     		mov	r0, r6
 623 0042 FFF7FEFF 		bl	chMtxLockS
 624              		.loc 1 195 0
 625 0046 2046     		mov	r0, r4
ARM GAS  /tmp/ccwAa4xc.s 			page 12


 626 0048 70BD     		pop	{r4, r5, r6, pc}
 627              	.LVL59:
 628              	.L57:
 629              	.LBB58:
 630              	.LBB57:
 631              		.loc 2 38 0
 632 004a 1846     		mov	r0, r3
 633 004c EFE7     		b	.L52
 634              	.LVL60:
 635              	.L56:
 636              	.LBE57:
 637              	.LBE58:
 638              		.loc 1 184 0 discriminator 1
 639 004e 0548     		ldr	r0, .L59+4
 640 0050 FFF7FEFF 		bl	chDbgPanic
 641 0054 DDE7     		b	.L51
 642              	.L55:
 643              		.loc 1 183 0 discriminator 1
 644 0056 0448     		ldr	r0, .L59+8
 645 0058 FFF7FEFF 		bl	chDbgPanic
 646 005c D7E7     		b	.L50
 647              	.L60:
 648 005e 00BF     		.align	2
 649              	.L59:
 650 0060 00000000 		.word	rlist
 651 0064 60000000 		.word	.LC5
 652 0068 50000000 		.word	.LC4
 653              		.cfi_endproc
 654              	.LFE13:
 655              		.size	chCondWaitS, .-chCondWaitS
 656 006c AFF30080 		.section	.text.chCondWaitTimeoutS,"ax",%progbits
 657              		.align	2
 658              		.p2align 4,,15
 659              		.global	chCondWaitTimeoutS
 660              		.thumb
 661              		.thumb_func
 662              		.type	chCondWaitTimeoutS, %function
 663              	chCondWaitTimeoutS:
 664              	.LFB15:
 665              		.loc 1 263 0
 666              		.cfi_startproc
 667              		@ args = 0, pretend = 0, frame = 0
 668              		@ frame_needed = 0, uses_anonymous_args = 0
 669              	.LVL61:
 670 0000 F8B5     		push	{r3, r4, r5, r6, r7, lr}
 671              	.LCFI7:
 672              		.cfi_def_cfa_offset 24
 673              		.cfi_offset 14, -4
 674              		.cfi_offset 7, -8
 675              		.cfi_offset 6, -12
 676              		.cfi_offset 5, -16
 677              		.cfi_offset 4, -20
 678              		.cfi_offset 3, -24
 679              		.loc 1 263 0
 680 0002 0446     		mov	r4, r0
 681 0004 0F46     		mov	r7, r1
 682              		.loc 1 267 0
ARM GAS  /tmp/ccwAa4xc.s 			page 13


 683 0006 FFF7FEFF 		bl	chDbgCheckClassS
 684              	.LVL62:
 685              		.loc 1 268 0
 686 000a 002C     		cmp	r4, #0
 687 000c 26D0     		beq	.L62
 688              		.loc 1 268 0 is_stmt 0 discriminator 2
 689 000e 002F     		cmp	r7, #0
 690 0010 24D0     		beq	.L62
 691              	.L63:
 692              		.loc 1 269 0 is_stmt 1
 693 0012 174E     		ldr	r6, .L72
 694 0014 B069     		ldr	r0, [r6, #24]
 695 0016 036C     		ldr	r3, [r0, #64]
 696 0018 002B     		cmp	r3, #0
 697 001a 25D0     		beq	.L69
 698              	.L64:
 699              		.loc 1 273 0
 700 001c FFF7FEFF 		bl	chMtxUnlockS
 701 0020 0546     		mov	r5, r0
 702              	.LVL63:
 703              		.loc 1 274 0
 704 0022 B069     		ldr	r0, [r6, #24]
 705              	.LVL64:
 706              		.loc 2 36 0
 707 0024 2346     		mov	r3, r4
 708              		.loc 1 275 0
 709 0026 2646     		mov	r6, r4
 710              	.LVL65:
 711              		.loc 1 274 0
 712 0028 8462     		str	r4, [r0, #40]
 713 002a 03E0     		b	.L66
 714              	.LVL66:
 715              	.L71:
 716              	.LBB59:
 717              	.LBB60:
 718              		.loc 2 39 0
 719 002c 9968     		ldr	r1, [r3, #8]
 720 002e 8268     		ldr	r2, [r0, #8]
 721 0030 9142     		cmp	r1, r2
 722 0032 17D3     		bcc	.L70
 723              	.L66:
 724              		.loc 2 38 0
 725 0034 1B68     		ldr	r3, [r3, #0]
 726              	.LVL67:
 727              		.loc 2 39 0
 728 0036 9C42     		cmp	r4, r3
 729 0038 F8D1     		bne	.L71
 730              	.L65:
 731              		.loc 2 41 0
 732 003a 7468     		ldr	r4, [r6, #4]
 733              	.LVL68:
 734              		.loc 2 40 0
 735 003c 0660     		str	r6, [r0, #0]
 736              		.loc 2 41 0
 737 003e 4460     		str	r4, [r0, #4]
 738              		.loc 2 42 0
 739 0040 2060     		str	r0, [r4, #0]
ARM GAS  /tmp/ccwAa4xc.s 			page 14


 740 0042 7060     		str	r0, [r6, #4]
 741              	.LBE60:
 742              	.LBE59:
 743              		.loc 1 276 0
 744 0044 3946     		mov	r1, r7
 745 0046 0520     		movs	r0, #5
 746              	.LVL69:
 747 0048 FFF7FEFF 		bl	chSchGoSleepTimeoutS
 748              	.LVL70:
 749              		.loc 1 277 0
 750 004c 431C     		adds	r3, r0, #1
 751              		.loc 1 276 0
 752 004e 0446     		mov	r4, r0
 753              	.LVL71:
 754              		.loc 1 277 0
 755 0050 02D0     		beq	.L67
 756              		.loc 1 278 0
 757 0052 2846     		mov	r0, r5
 758              	.LVL72:
 759 0054 FFF7FEFF 		bl	chMtxLockS
 760              	.L67:
 761              		.loc 1 280 0
 762 0058 2046     		mov	r0, r4
 763 005a F8BD     		pop	{r3, r4, r5, r6, r7, pc}
 764              	.LVL73:
 765              	.L62:
 766              		.loc 1 268 0 discriminator 1
 767 005c 0548     		ldr	r0, .L72+4
 768 005e FFF7FEFF 		bl	chDbgPanic
 769 0062 D6E7     		b	.L63
 770              	.LVL74:
 771              	.L70:
 772              	.LBB62:
 773              	.LBB61:
 774              		.loc 2 38 0
 775 0064 1E46     		mov	r6, r3
 776 0066 E8E7     		b	.L65
 777              	.LVL75:
 778              	.L69:
 779              	.LBE61:
 780              	.LBE62:
 781              		.loc 1 269 0 discriminator 1
 782 0068 0348     		ldr	r0, .L72+8
 783 006a FFF7FEFF 		bl	chDbgPanic
 784 006e D5E7     		b	.L64
 785              	.L73:
 786              		.align	2
 787              	.L72:
 788 0070 00000000 		.word	rlist
 789 0074 74000000 		.word	.LC6
 790 0078 8C000000 		.word	.LC7
 791              		.cfi_endproc
 792              	.LFE15:
 793              		.size	chCondWaitTimeoutS, .-chCondWaitTimeoutS
 794 007c AFF30080 		.section	.text.chCondWaitTimeout,"ax",%progbits
 795              		.align	2
 796              		.p2align 4,,15
ARM GAS  /tmp/ccwAa4xc.s 			page 15


 797              		.global	chCondWaitTimeout
 798              		.thumb
 799              		.thumb_func
 800              		.type	chCondWaitTimeout, %function
 801              	chCondWaitTimeout:
 802              	.LFB14:
 803              		.loc 1 226 0
 804              		.cfi_startproc
 805              		@ args = 0, pretend = 0, frame = 0
 806              		@ frame_needed = 0, uses_anonymous_args = 0
 807              	.LVL76:
 808 0000 38B5     		push	{r3, r4, r5, lr}
 809              	.LCFI8:
 810              		.cfi_def_cfa_offset 16
 811              		.cfi_offset 14, -4
 812              		.cfi_offset 5, -8
 813              		.cfi_offset 4, -12
 814              		.cfi_offset 3, -16
 815              		.loc 1 226 0
 816 0002 0546     		mov	r5, r0
 817 0004 0C46     		mov	r4, r1
 818              	.LBB63:
 819              		.loc 1 229 0
 820 0006 2023     		movs	r3, #32
 821              	.LVL77:
 822              	@ 229 "../../ChibiOS/os/kernel/src/chcond.c" 1
 823 0008 83F31188 		msr     BASEPRI, r3
 824              	@ 0 "" 2
 825              	.LVL78:
 826              		.thumb
 827              	.LBE63:
 828 000c FFF7FEFF 		bl	dbg_check_lock
 829              	.LVL79:
 830              		.loc 1 230 0
 831 0010 2146     		mov	r1, r4
 832 0012 2846     		mov	r0, r5
 833 0014 FFF7FEFF 		bl	chCondWaitTimeoutS
 834 0018 0446     		mov	r4, r0
 835              	.LVL80:
 836              		.loc 1 231 0
 837 001a FFF7FEFF 		bl	dbg_check_unlock
 838              	.LVL81:
 839              	.LBB64:
 840 001e 0023     		movs	r3, #0
 841              	.LVL82:
 842              	@ 231 "../../ChibiOS/os/kernel/src/chcond.c" 1
 843 0020 83F31188 		msr     BASEPRI, r3
 844              	@ 0 "" 2
 845              	.LVL83:
 846              		.thumb
 847              	.LBE64:
 848              		.loc 1 233 0
 849 0024 2046     		mov	r0, r4
 850 0026 38BD     		pop	{r3, r4, r5, pc}
 851              		.cfi_endproc
 852              	.LFE14:
 853              		.size	chCondWaitTimeout, .-chCondWaitTimeout
ARM GAS  /tmp/ccwAa4xc.s 			page 16


 854 0028 AFF30080 		.section	.rodata.str1.4,"aMS",%progbits,1
 854      AFF30080 
 855              		.align	2
 856              	.LC0:
 857 0000 22636843 		.ascii	"\"chCondInit\"()\000"
 857      6F6E6449 
 857      6E697422 
 857      282900
 858 000f 00       		.space	1
 859              	.LC1:
 860 0010 22636843 		.ascii	"\"chCondSignal\"()\000"
 860      6F6E6453 
 860      69676E61 
 860      6C222829 
 860      00
 861 0021 000000   		.space	3
 862              	.LC2:
 863 0024 22636843 		.ascii	"\"chCondSignalI\"()\000"
 863      6F6E6453 
 863      69676E61 
 863      6C492228 
 863      2900
 864 0036 0000     		.space	2
 865              	.LC3:
 866 0038 22636843 		.ascii	"\"chCondBroadcastI\"()\000"
 866      6F6E6442 
 866      726F6164 
 866      63617374 
 866      49222829 
 867 004d 000000   		.space	3
 868              	.LC4:
 869 0050 22636843 		.ascii	"\"chCondWaitS\"()\000"
 869      6F6E6457 
 869      61697453 
 869      22282900 
 870              	.LC5:
 871 0060 6368436F 		.ascii	"chCondWaitS(), #1\000"
 871      6E645761 
 871      69745328 
 871      292C2023 
 871      3100
 872 0072 0000     		.space	2
 873              	.LC6:
 874 0074 22636843 		.ascii	"\"chCondWaitTimeoutS\"()\000"
 874      6F6E6457 
 874      61697454 
 874      696D656F 
 874      75745322 
 875 008b 00       		.space	1
 876              	.LC7:
 877 008c 6368436F 		.ascii	"chCondWaitTimeoutS(), #1\000"
 877      6E645761 
 877      69745469 
 877      6D656F75 
 877      74532829 
 878 00a5 000000   		.text
 879              	.Letext0:
ARM GAS  /tmp/ccwAa4xc.s 			page 17


 880              		.file 3 "/home/tino/ChibiStudio/tools/GNU Tools ARM Embedded/4.6 2012q2/bin/../lib/gcc/arm-none-ea
 881              		.file 4 "../../ChibiOS/os/ports/GCC/ARMCMx/chtypes.h"
 882              		.file 5 "../../ChibiOS/os/kernel/include/chlists.h"
 883              		.file 6 "../../ChibiOS/os/kernel/include/chthreads.h"
 884              		.file 7 "../../ChibiOS/os/ports/GCC/ARMCMx/chcore_v7m.h"
 885              		.file 8 "../../ChibiOS/os/kernel/include/chschd.h"
 886              		.file 9 "../../ChibiOS/os/kernel/include/chmtx.h"
 887              		.file 10 "../../ChibiOS/os/kernel/include/chcond.h"