ARM GAS  /tmp/cciJDCSq.s 			page 1


   1              		.syntax unified
   2              		.cpu cortex-m3
   3              		.fpu softvfp
   4              		.eabi_attribute 20, 1
   5              		.eabi_attribute 21, 1
   6              		.eabi_attribute 23, 3
   7              		.eabi_attribute 24, 1
   8              		.eabi_attribute 25, 1
   9              		.eabi_attribute 26, 1
  10              		.eabi_attribute 30, 2
  11              		.eabi_attribute 34, 1
  12              		.eabi_attribute 18, 4
  13              		.thumb
  14              		.file	"chcore_v7m.c"
  15              		.text
  16              	.Ltext0:
  17              		.cfi_sections	.debug_frame
  18              		.section	.text._port_switch_from_isr,"ax",%progbits
  19              		.align	2
  20              		.p2align 4,,15
  21              		.global	_port_switch_from_isr
  22              		.thumb
  23              		.thumb_func
  24              		.type	_port_switch_from_isr, %function
  25              	_port_switch_from_isr:
  26              	.LFB11:
  27              		.file 1 "../../ChibiOS/os/ports/GCC/ARMCMx/chcore_v7m.c"
  28              		.loc 1 200 0
  29              		.cfi_startproc
  30              		@ Naked Function: prologue and epilogue provided by programmer.
  31              		@ args = 0, pretend = 0, frame = 0
  32              		@ frame_needed = 0, uses_anonymous_args = 0
  33              		.loc 1 202 0
  34 0000 FFF7FEFF 		bl	dbg_check_lock
  35              		.loc 1 203 0
  36 0004 FFF7FEFF 		bl	chSchDoReschedule
  37              		.loc 1 204 0
  38 0008 FFF7FEFF 		bl	dbg_check_unlock
  39              		.loc 1 205 0
  40              	@ 205 "../../ChibiOS/os/ports/GCC/ARMCMx/chcore_v7m.c" 1
  41              		_port_exit_from_isr:
  42              	@ 0 "" 2
  43              		.loc 1 207 0
  44              	@ 207 "../../ChibiOS/os/ports/GCC/ARMCMx/chcore_v7m.c" 1
  45 000c 00DF     		svc     #0
  46              	@ 0 "" 2
  47              		.loc 1 214 0
  48              		.thumb
  49              		.cfi_endproc
  50              	.LFE11:
  51              		.size	_port_switch_from_isr, .-_port_switch_from_isr
  52 000e 00BF     		.section	.text.SysTickVector,"ax",%progbits
  53              		.align	2
  54              		.p2align 4,,15
  55              		.global	SysTickVector
  56              		.thumb
  57              		.thumb_func
ARM GAS  /tmp/cciJDCSq.s 			page 2


  58              		.type	SysTickVector, %function
  59              	SysTickVector:
  60              	.LFB7:
  61              		.loc 1 40 0
  62              		.cfi_startproc
  63              		@ args = 0, pretend = 0, frame = 0
  64              		@ frame_needed = 0, uses_anonymous_args = 0
  65 0000 08B5     		push	{r3, lr}
  66              	.LCFI0:
  67              		.cfi_def_cfa_offset 8
  68              		.cfi_offset 14, -4
  69              		.cfi_offset 3, -8
  70              		.loc 1 42 0
  71 0002 FFF7FEFF 		bl	dbg_check_enter_isr
  72              	.LBB9:
  73              		.loc 1 44 0
  74 0006 2023     		movs	r3, #32
  75              	.LVL0:
  76              	@ 44 "../../ChibiOS/os/ports/GCC/ARMCMx/chcore_v7m.c" 1
  77 0008 83F31188 		msr     BASEPRI, r3
  78              	@ 0 "" 2
  79              	.LVL1:
  80              		.thumb
  81              	.LBE9:
  82 000c FFF7FEFF 		bl	dbg_check_lock_from_isr
  83              	.LVL2:
  84              		.loc 1 45 0
  85 0010 FFF7FEFF 		bl	chSysTimerHandlerI
  86              		.loc 1 46 0
  87 0014 FFF7FEFF 		bl	dbg_check_unlock_from_isr
  88              	.LBB10:
  89 0018 0023     		movs	r3, #0
  90              	.LVL3:
  91              	@ 46 "../../ChibiOS/os/ports/GCC/ARMCMx/chcore_v7m.c" 1
  92 001a 83F31188 		msr     BASEPRI, r3
  93              	@ 0 "" 2
  94              	.LVL4:
  95              		.thumb
  96              	.LBE10:
  97              		.loc 1 48 0
  98 001e FFF7FEFF 		bl	dbg_check_leave_isr
  99              	.LVL5:
 100              	.LBB11:
 101              	.LBB12:
 102              	.LBB13:
 103              		.loc 1 143 0
 104 0022 2023     		movs	r3, #32
 105              	.LVL6:
 106              	@ 143 "../../ChibiOS/os/ports/GCC/ARMCMx/chcore_v7m.c" 1
 107 0024 83F31188 		msr     BASEPRI, r3
 108              	@ 0 "" 2
 109              	.LVL7:
 110              		.thumb
 111              	.LBE13:
 112              		.loc 1 144 0
 113 0028 4FF46D40 		mov	r0, #60672
 114 002c CEF20000 		movt	r0, 57344
ARM GAS  /tmp/cciJDCSq.s 			page 3


 115 0030 4368     		ldr	r3, [r0, #4]
 116              	.LVL8:
 117 0032 13F40063 		ands	r3, r3, #2048
 118 0036 1AD0     		beq	.L3
 119              	.LBB14:
 120              		.loc 1 148 0
 121              	@ 148 "../../ChibiOS/os/ports/GCC/ARMCMx/chcore_v7m.c" 1
 122 0038 EFF30983 		mrs     r3, PSP
 123              	@ 0 "" 2
 124              	.LVL9:
 125              		.loc 1 152 0
 126              		.thumb
 127 003c A3F1200C 		sub	ip, r3, #32
 128              		.loc 1 153 0
 129              	@ 153 "../../ChibiOS/os/ports/GCC/ARMCMx/chcore_v7m.c" 1
 130 0040 8CF30988 		msr     PSP, ip
 131              	@ 0 "" 2
 132              		.loc 1 158 0
 133              		.thumb
 134 0044 1049     		ldr	r1, .L10
 135              		.loc 1 154 0
 136 0046 4FF08070 		mov	r0, #16777216
 137              		.loc 1 158 0
 138 004a 8A69     		ldr	r2, [r1, #24]
 139              		.loc 1 154 0
 140 004c 43F8040C 		str	r0, [r3, #-4]
 141              		.loc 1 158 0
 142 0050 92F82300 		ldrb	r0, [r2, #35]	@ zero_extendqisi2
 143 0054 0968     		ldr	r1, [r1, #0]
 144 0056 9268     		ldr	r2, [r2, #8]
 145 0058 8968     		ldr	r1, [r1, #8]
 146 005a 58B1     		cbz	r0, .L4
 147 005c 9142     		cmp	r1, r2
 148 005e 94BF     		ite	ls
 149 0060 0022     		movls	r2, #0
 150 0062 0122     		movhi	r2, #1
 151 0064 62B1     		cbz	r2, .L6
 152              	.L9:
 153              		.loc 1 160 0
 154 0066 094A     		ldr	r2, .L10+4
 155 0068 43F8082C 		str	r2, [r3, #-8]
 156 006c 08BD     		pop	{r3, pc}
 157              	.LVL10:
 158              	.L3:
 159              	.LBE14:
 160              	.LBB15:
 161              		.loc 1 190 0
 162              	@ 190 "../../ChibiOS/os/ports/GCC/ARMCMx/chcore_v7m.c" 1
 163 006e 83F31188 		msr     BASEPRI, r3
 164              	@ 0 "" 2
 165              	.LVL11:
 166              		.thumb
 167 0072 08BD     		pop	{r3, pc}
 168              	.LVL12:
 169              	.L4:
 170              	.LBE15:
 171              	.LBB16:
ARM GAS  /tmp/cciJDCSq.s 			page 4


 172              		.loc 1 158 0
 173 0074 9142     		cmp	r1, r2
 174 0076 34BF     		ite	cc
 175 0078 0022     		movcc	r2, #0
 176 007a 0122     		movcs	r2, #1
 177 007c 002A     		cmp	r2, #0
 178 007e F2D1     		bne	.L9
 179              	.L6:
 180              		.loc 1 169 0
 181 0080 0349     		ldr	r1, .L10+8
 182 0082 43F8081C 		str	r1, [r3, #-8]
 183 0086 08BD     		pop	{r3, pc}
 184              	.L11:
 185              		.align	2
 186              	.L10:
 187 0088 00000000 		.word	rlist
 188 008c 00000000 		.word	_port_switch_from_isr
 189 0090 0C000000 		.word	_port_exit_from_isr
 190              	.LBE16:
 191              	.LBE12:
 192              	.LBE11:
 193              		.cfi_endproc
 194              	.LFE7:
 195              		.size	SysTickVector, .-SysTickVector
 196 0094 AFF30080 		.section	.text.SVCallVector,"ax",%progbits
 196      AFF30080 
 196      AFF30080 
 197              		.align	2
 198              		.p2align 4,,15
 199              		.global	SVCallVector
 200              		.thumb
 201              		.thumb_func
 202              		.type	SVCallVector, %function
 203              	SVCallVector:
 204              	.LFB8:
 205              		.loc 1 58 0
 206              		.cfi_startproc
 207              		@ args = 0, pretend = 0, frame = 0
 208              		@ frame_needed = 0, uses_anonymous_args = 0
 209              		@ link register save eliminated.
 210              		.loc 1 62 0
 211              	@ 62 "../../ChibiOS/os/ports/GCC/ARMCMx/chcore_v7m.c" 1
 212 0000 EFF30983 		mrs     r3, PSP
 213              	@ 0 "" 2
 214              	.LVL13:
 215              		.loc 1 66 0
 216              		.thumb
 217 0004 2033     		adds	r3, r3, #32
 218              	.LVL14:
 219              		.loc 1 73 0
 220              	@ 73 "../../ChibiOS/os/ports/GCC/ARMCMx/chcore_v7m.c" 1
 221 0006 83F30988 		msr     PSP, r3
 222              	@ 0 "" 2
 223              		.thumb
 224              	.LBB17:
 225              		.loc 1 74 0
 226 000a 0023     		movs	r3, #0
ARM GAS  /tmp/cciJDCSq.s 			page 5


 227              	.LVL15:
 228              	@ 74 "../../ChibiOS/os/ports/GCC/ARMCMx/chcore_v7m.c" 1
 229 000c 83F31188 		msr     BASEPRI, r3
 230              	@ 0 "" 2
 231              	.LVL16:
 232              		.thumb
 233              	.LBE17:
 234              		.loc 1 75 0
 235 0010 7047     		bx	lr
 236              		.cfi_endproc
 237              	.LFE8:
 238              		.size	SVCallVector, .-SVCallVector
 239 0012 00BFAFF3 		.section	.text._port_init,"ax",%progbits
 239      0080AFF3 
 239      0080AFF3 
 239      0080
 240              		.align	2
 241              		.p2align 4,,15
 242              		.global	_port_init
 243              		.thumb
 244              		.thumb_func
 245              		.type	_port_init, %function
 246              	_port_init:
 247              	.LFB9:
 248              		.loc 1 111 0
 249              		.cfi_startproc
 250              		@ args = 0, pretend = 0, frame = 0
 251              		@ frame_needed = 0, uses_anonymous_args = 0
 252 0000 08B5     		push	{r3, lr}
 253              	.LCFI1:
 254              		.cfi_def_cfa_offset 8
 255              		.cfi_offset 14, -4
 256              		.cfi_offset 3, -8
 257              		.loc 1 115 0
 258 0002 4FF44072 		mov	r2, #768
 259              		.loc 1 114 0
 260 0006 4FF46D43 		mov	r3, #60672
 261 000a CEF20003 		movt	r3, 57344
 262              		.loc 1 115 0
 263 000e C0F2FA52 		movt	r2, 1530
 264              		.loc 1 114 0
 265 0012 0021     		movs	r1, #0
 266 0014 9960     		str	r1, [r3, #8]
 267              		.loc 1 118 0
 268 0016 0720     		movs	r0, #7
 269              		.loc 1 115 0
 270 0018 DA60     		str	r2, [r3, #12]
 271              		.loc 1 118 0
 272 001a 1021     		movs	r1, #16
 273 001c FFF7FEFF 		bl	nvicSetSystemHandlerPriority
 274              		.loc 1 120 0
 275 0020 0A20     		movs	r0, #10
 276 0022 4FF40071 		mov	r1, #512
 277 0026 FFF7FEFF 		bl	nvicSetSystemHandlerPriority
 278              		.loc 1 122 0
 279 002a 0B20     		movs	r0, #11
 280 002c 8021     		movs	r1, #128
ARM GAS  /tmp/cciJDCSq.s 			page 6


 281              		.loc 1 124 0
 282 002e BDE80840 		pop	{r3, lr}
 283              		.loc 1 122 0
 284 0032 FFF7FEBF 		b	nvicSetSystemHandlerPriority
 285              		.cfi_endproc
 286              	.LFE9:
 287              		.size	_port_init, .-_port_init
 288 0036 00BFAFF3 		.section	.text._port_irq_epilogue,"ax",%progbits
 288      0080AFF3 
 288      0080
 289              		.align	2
 290              		.p2align 4,,15
 291              		.global	_port_irq_epilogue
 292              		.thumb
 293              		.thumb_func
 294              		.type	_port_irq_epilogue, %function
 295              	_port_irq_epilogue:
 296              	.LFB10:
 297              		.loc 1 141 0
 298              		.cfi_startproc
 299              		@ args = 0, pretend = 0, frame = 0
 300              		@ frame_needed = 0, uses_anonymous_args = 0
 301              		@ link register save eliminated.
 302              	.LBB18:
 303              		.loc 1 143 0
 304 0000 2023     		movs	r3, #32
 305              	.LVL17:
 306              	@ 143 "../../ChibiOS/os/ports/GCC/ARMCMx/chcore_v7m.c" 1
 307 0002 83F31188 		msr     BASEPRI, r3
 308              	@ 0 "" 2
 309              	.LVL18:
 310              		.thumb
 311              	.LBE18:
 312              		.loc 1 144 0
 313 0006 4FF46D40 		mov	r0, #60672
 314 000a CEF20000 		movt	r0, 57344
 315 000e 4368     		ldr	r3, [r0, #4]
 316              	.LVL19:
 317 0010 13F40063 		ands	r3, r3, #2048
 318 0014 1AD0     		beq	.L15
 319              	.LBB19:
 320              		.loc 1 148 0
 321              	@ 148 "../../ChibiOS/os/ports/GCC/ARMCMx/chcore_v7m.c" 1
 322 0016 EFF30983 		mrs     r3, PSP
 323              	@ 0 "" 2
 324              	.LVL20:
 325              		.loc 1 152 0
 326              		.thumb
 327 001a A3F1200C 		sub	ip, r3, #32
 328              		.loc 1 153 0
 329              	@ 153 "../../ChibiOS/os/ports/GCC/ARMCMx/chcore_v7m.c" 1
 330 001e 8CF30988 		msr     PSP, ip
 331              	@ 0 "" 2
 332              		.loc 1 158 0
 333              		.thumb
 334 0022 1149     		ldr	r1, .L21
 335              		.loc 1 154 0
ARM GAS  /tmp/cciJDCSq.s 			page 7


 336 0024 4FF08070 		mov	r0, #16777216
 337              		.loc 1 158 0
 338 0028 8A69     		ldr	r2, [r1, #24]
 339              		.loc 1 154 0
 340 002a 43F8040C 		str	r0, [r3, #-4]
 341              		.loc 1 158 0
 342 002e 92F82300 		ldrb	r0, [r2, #35]	@ zero_extendqisi2
 343 0032 0968     		ldr	r1, [r1, #0]
 344 0034 9268     		ldr	r2, [r2, #8]
 345 0036 8968     		ldr	r1, [r1, #8]
 346 0038 58B1     		cbz	r0, .L16
 347              		.loc 1 158 0 is_stmt 0 discriminator 1
 348 003a 9142     		cmp	r1, r2
 349 003c 94BF     		ite	ls
 350 003e 0022     		movls	r2, #0
 351 0040 0122     		movhi	r2, #1
 352 0042 62B1     		cbz	r2, .L18
 353              	.L20:
 354              		.loc 1 160 0 is_stmt 1
 355 0044 094A     		ldr	r2, .L21+4
 356 0046 43F8082C 		str	r2, [r3, #-8]
 357 004a 7047     		bx	lr
 358              	.LVL21:
 359              	.L15:
 360              	.LBE19:
 361              	.LBB20:
 362              		.loc 1 190 0
 363              	@ 190 "../../ChibiOS/os/ports/GCC/ARMCMx/chcore_v7m.c" 1
 364 004c 83F31188 		msr     BASEPRI, r3
 365              	@ 0 "" 2
 366              	.LVL22:
 367              		.thumb
 368 0050 7047     		bx	lr
 369              	.LVL23:
 370              	.L16:
 371              	.LBE20:
 372              	.LBB21:
 373              		.loc 1 158 0 discriminator 2
 374 0052 9142     		cmp	r1, r2
 375 0054 34BF     		ite	cc
 376 0056 0022     		movcc	r2, #0
 377 0058 0122     		movcs	r2, #1
 378 005a 002A     		cmp	r2, #0
 379 005c F2D1     		bne	.L20
 380              	.L18:
 381              		.loc 1 169 0
 382 005e 0449     		ldr	r1, .L21+8
 383 0060 43F8081C 		str	r1, [r3, #-8]
 384 0064 7047     		bx	lr
 385              	.L22:
 386 0066 00BF     		.align	2
 387              	.L21:
 388 0068 00000000 		.word	rlist
 389 006c 00000000 		.word	_port_switch_from_isr
 390 0070 0C000000 		.word	_port_exit_from_isr
 391              	.LBE21:
 392              		.cfi_endproc
ARM GAS  /tmp/cciJDCSq.s 			page 8


 393              	.LFE10:
 394              		.size	_port_irq_epilogue, .-_port_irq_epilogue
 395 0074 AFF30080 		.section	.text._port_switch,"ax",%progbits
 395      AFF30080 
 395      AFF30080 
 396              		.align	2
 397              		.p2align 4,,15
 398              		.global	_port_switch
 399              		.thumb
 400              		.thumb_func
 401              		.type	_port_switch, %function
 402              	_port_switch:
 403              	.LFB12:
 404              		.loc 1 229 0
 405              		.cfi_startproc
 406              		@ Naked Function: prologue and epilogue provided by programmer.
 407              		@ args = 0, pretend = 0, frame = 0
 408              		@ frame_needed = 0, uses_anonymous_args = 0
 409              	.LVL24:
 410              		.loc 1 231 0
 411              	@ 231 "../../ChibiOS/os/ports/GCC/ARMCMx/chcore_v7m.c" 1
 412 0000 2DE9F04F 		push    {r4, r5, r6, r7, r8, r9, r10, r11, lr}
 413              	@ 0 "" 2
 414              		.loc 1 237 0
 415              	@ 237 "../../ChibiOS/os/ports/GCC/ARMCMx/chcore_v7m.c" 1
 416 0004 C1F80CD0 		str     sp, [r1, #12]                          
 417 0008 D0F80CD0 		ldr     sp, [r0, #12]
 418              	@ 0 "" 2
 419              		.loc 1 243 0
 420              	@ 243 "../../ChibiOS/os/ports/GCC/ARMCMx/chcore_v7m.c" 1
 421 000c BDE8F08F 		pop     {r4, r5, r6, r7, r8, r9, r10, r11, pc}
 422              	@ 0 "" 2
 423              		.loc 1 245 0
 424              		.thumb
 425              		.cfi_endproc
 426              	.LFE12:
 427              		.size	_port_switch, .-_port_switch
 428              		.section	.text._port_thread_start,"ax",%progbits
 429              		.align	2
 430              		.p2align 4,,15
 431              		.global	_port_thread_start
 432              		.thumb
 433              		.thumb_func
 434              		.type	_port_thread_start, %function
 435              	_port_thread_start:
 436              	.LFB13:
 437              		.loc 1 252 0
 438              		.cfi_startproc
 439              		@ args = 0, pretend = 0, frame = 0
 440              		@ frame_needed = 0, uses_anonymous_args = 0
 441 0000 08B5     		push	{r3, lr}
 442              	.LCFI2:
 443              		.cfi_def_cfa_offset 8
 444              		.cfi_offset 14, -4
 445              		.cfi_offset 3, -8
 446              		.loc 1 254 0
 447 0002 FFF7FEFF 		bl	dbg_check_unlock
ARM GAS  /tmp/cciJDCSq.s 			page 9


 448              	.LBB22:
 449 0006 0023     		movs	r3, #0
 450              	.LVL25:
 451              	@ 254 "../../ChibiOS/os/ports/GCC/ARMCMx/chcore_v7m.c" 1
 452 0008 83F31188 		msr     BASEPRI, r3
 453              	@ 0 "" 2
 454              	.LVL26:
 455              		.thumb
 456              	.LBE22:
 457              		.loc 1 255 0
 458              	@ 255 "../../ChibiOS/os/ports/GCC/ARMCMx/chcore_v7m.c" 1
 459 000c 2846     		mov     r0, r5                                 
 460 000e A047     		blx     r4                                     
 461 0010 FFF7FEFF 		bl      chThdExit
 462              	@ 0 "" 2
 463              		.loc 1 258 0
 464              		.thumb
 465 0014 08BD     		pop	{r3, pc}
 466              		.cfi_endproc
 467              	.LFE13:
 468              		.size	_port_thread_start, .-_port_thread_start
 469 0016 00BFAFF3 		.text
 469      0080AFF3 
 469      0080
 470              	.Letext0:
 471              		.file 2 "/home/tino/ChibiStudio/tools/GNU Tools ARM Embedded/4.6 2012q2/bin/../lib/gcc/arm-none-ea
 472              		.file 3 "../../ChibiOS/os/ports/GCC/ARMCMx/chtypes.h"
 473              		.file 4 "../../ChibiOS/os/kernel/include/chlists.h"
 474              		.file 5 "../../ChibiOS/os/kernel/include/chthreads.h"
 475              		.file 6 "../../ChibiOS/os/ports/GCC/ARMCMx/chcore_v7m.h"
 476              		.file 7 "../../ChibiOS/os/ports/common/ARMCMx/nvic.h"
 477              		.file 8 "../../ChibiOS/os/kernel/include/chschd.h"
 478              		.file 9 "../../ChibiOS/os/kernel/include/chmtx.h"