ARM GAS  /tmp/ccx6PcDB.s 			page 1


   1              		.syntax unified
   2              		.cpu cortex-m3
   3              		.fpu softvfp
   4              		.eabi_attribute 20, 1
   5              		.eabi_attribute 21, 1
   6              		.eabi_attribute 23, 3
   7              		.eabi_attribute 24, 1
   8              		.eabi_attribute 25, 1
   9              		.eabi_attribute 26, 1
  10              		.eabi_attribute 30, 2
  11              		.eabi_attribute 34, 1
  12              		.eabi_attribute 18, 4
  13              		.thumb
  14              		.file	"chdebug.c"
  15              		.text
  16              	.Ltext0:
  17              		.cfi_sections	.debug_frame
  18              		.section	.text.dbg_check_disable,"ax",%progbits
  19              		.align	2
  20              		.p2align 4,,15
  21              		.global	dbg_check_disable
  22              		.thumb
  23              		.thumb_func
  24              		.type	dbg_check_disable, %function
  25              	dbg_check_disable:
  26              	.LFB7:
  27              		.file 1 "../../ChibiOS/os/kernel/src/chdebug.c"
  28              		.loc 1 74 0
  29              		.cfi_startproc
  30              		@ args = 0, pretend = 0, frame = 0
  31              		@ frame_needed = 0, uses_anonymous_args = 0
  32              		@ link register save eliminated.
  33              		.loc 1 76 0
  34 0000 0548     		ldr	r0, .L5
  35 0002 0368     		ldr	r3, [r0, #0]
  36 0004 13B9     		cbnz	r3, .L2
  37              		.loc 1 76 0 is_stmt 0 discriminator 1
  38 0006 054A     		ldr	r2, .L5+4
  39 0008 1168     		ldr	r1, [r2, #0]
  40 000a 21B1     		cbz	r1, .L1
  41              	.L2:
  42              	.LVL0:
  43              	.LBB28:
  44              	.LBB29:
  45              		.loc 1 266 0 is_stmt 1
  46 000c 0448     		ldr	r0, .L5+8
  47 000e 054B     		ldr	r3, .L5+12
  48 0010 1860     		str	r0, [r3, #0]
  49              	.LBE29:
  50              	.LBE28:
  51              		.loc 1 78 0
  52              	.LBB31:
  53              	.LBB30:
  54              		.loc 1 267 0
  55 0012 FFF7FEBF 		b	port_halt
  56              	.LVL1:
  57              	.L1:
ARM GAS  /tmp/ccx6PcDB.s 			page 2


  58 0016 7047     		bx	lr
  59              	.L6:
  60              		.align	2
  61              	.L5:
  62 0018 00000000 		.word	.LANCHOR0
  63 001c 00000000 		.word	.LANCHOR1
  64 0020 00000000 		.word	.LC0
  65 0024 00000000 		.word	.LANCHOR2
  66              	.LBE30:
  67              	.LBE31:
  68              		.cfi_endproc
  69              	.LFE7:
  70              		.size	dbg_check_disable, .-dbg_check_disable
  71 0028 AFF30080 		.section	.text.dbg_check_suspend,"ax",%progbits
  71      AFF30080 
  72              		.align	2
  73              		.p2align 4,,15
  74              		.global	dbg_check_suspend
  75              		.thumb
  76              		.thumb_func
  77              		.type	dbg_check_suspend, %function
  78              	dbg_check_suspend:
  79              	.LFB8:
  80              		.loc 1 85 0
  81              		.cfi_startproc
  82              		@ args = 0, pretend = 0, frame = 0
  83              		@ frame_needed = 0, uses_anonymous_args = 0
  84              		@ link register save eliminated.
  85              		.loc 1 87 0
  86 0000 0548     		ldr	r0, .L10
  87 0002 0368     		ldr	r3, [r0, #0]
  88 0004 13B9     		cbnz	r3, .L8
  89              		.loc 1 87 0 is_stmt 0 discriminator 1
  90 0006 054A     		ldr	r2, .L10+4
  91 0008 1168     		ldr	r1, [r2, #0]
  92 000a 21B1     		cbz	r1, .L7
  93              	.L8:
  94              	.LVL2:
  95              	.LBB32:
  96              	.LBB33:
  97              		.loc 1 266 0 is_stmt 1
  98 000c 0448     		ldr	r0, .L10+8
  99 000e 054B     		ldr	r3, .L10+12
 100 0010 1860     		str	r0, [r3, #0]
 101              	.LBE33:
 102              	.LBE32:
 103              		.loc 1 89 0
 104              	.LBB35:
 105              	.LBB34:
 106              		.loc 1 267 0
 107 0012 FFF7FEBF 		b	port_halt
 108              	.LVL3:
 109              	.L7:
 110 0016 7047     		bx	lr
 111              	.L11:
 112              		.align	2
 113              	.L10:
ARM GAS  /tmp/ccx6PcDB.s 			page 3


 114 0018 00000000 		.word	.LANCHOR0
 115 001c 00000000 		.word	.LANCHOR1
 116 0020 08000000 		.word	.LC1
 117 0024 00000000 		.word	.LANCHOR2
 118              	.LBE34:
 119              	.LBE35:
 120              		.cfi_endproc
 121              	.LFE8:
 122              		.size	dbg_check_suspend, .-dbg_check_suspend
 123 0028 AFF30080 		.section	.text.dbg_check_enable,"ax",%progbits
 123      AFF30080 
 124              		.align	2
 125              		.p2align 4,,15
 126              		.global	dbg_check_enable
 127              		.thumb
 128              		.thumb_func
 129              		.type	dbg_check_enable, %function
 130              	dbg_check_enable:
 131              	.LFB9:
 132              		.loc 1 96 0
 133              		.cfi_startproc
 134              		@ args = 0, pretend = 0, frame = 0
 135              		@ frame_needed = 0, uses_anonymous_args = 0
 136              		@ link register save eliminated.
 137              		.loc 1 98 0
 138 0000 0548     		ldr	r0, .L15
 139 0002 0368     		ldr	r3, [r0, #0]
 140 0004 13B9     		cbnz	r3, .L13
 141              		.loc 1 98 0 is_stmt 0 discriminator 1
 142 0006 054A     		ldr	r2, .L15+4
 143 0008 1168     		ldr	r1, [r2, #0]
 144 000a 21B1     		cbz	r1, .L12
 145              	.L13:
 146              	.LVL4:
 147              	.LBB36:
 148              	.LBB37:
 149              		.loc 1 266 0 is_stmt 1
 150 000c 0448     		ldr	r0, .L15+8
 151 000e 054B     		ldr	r3, .L15+12
 152 0010 1860     		str	r0, [r3, #0]
 153              	.LBE37:
 154              	.LBE36:
 155              		.loc 1 100 0
 156              	.LBB39:
 157              	.LBB38:
 158              		.loc 1 267 0
 159 0012 FFF7FEBF 		b	port_halt
 160              	.LVL5:
 161              	.L12:
 162 0016 7047     		bx	lr
 163              	.L16:
 164              		.align	2
 165              	.L15:
 166 0018 00000000 		.word	.LANCHOR0
 167 001c 00000000 		.word	.LANCHOR1
 168 0020 10000000 		.word	.LC2
 169 0024 00000000 		.word	.LANCHOR2
ARM GAS  /tmp/ccx6PcDB.s 			page 4


 170              	.LBE38:
 171              	.LBE39:
 172              		.cfi_endproc
 173              	.LFE9:
 174              		.size	dbg_check_enable, .-dbg_check_enable
 175 0028 AFF30080 		.section	.text.dbg_check_lock,"ax",%progbits
 175      AFF30080 
 176              		.align	2
 177              		.p2align 4,,15
 178              		.global	dbg_check_lock
 179              		.thumb
 180              		.thumb_func
 181              		.type	dbg_check_lock, %function
 182              	dbg_check_lock:
 183              	.LFB10:
 184              		.loc 1 107 0
 185              		.cfi_startproc
 186              		@ args = 0, pretend = 0, frame = 0
 187              		@ frame_needed = 0, uses_anonymous_args = 0
 188              		.loc 1 109 0
 189 0000 0748     		ldr	r0, .L22
 190              		.loc 1 107 0
 191 0002 10B5     		push	{r4, lr}
 192              	.LCFI0:
 193              		.cfi_def_cfa_offset 8
 194              		.cfi_offset 14, -4
 195              		.cfi_offset 4, -8
 196              		.loc 1 109 0
 197 0004 0368     		ldr	r3, [r0, #0]
 198 0006 074C     		ldr	r4, .L22+4
 199 0008 0BB9     		cbnz	r3, .L18
 200              		.loc 1 109 0 is_stmt 0 discriminator 1
 201 000a 2168     		ldr	r1, [r4, #0]
 202 000c 21B1     		cbz	r1, .L19
 203              	.L18:
 204              	.LVL6:
 205              	.LBB40:
 206              	.LBB41:
 207              		.loc 1 266 0 is_stmt 1
 208 000e 064A     		ldr	r2, .L22+8
 209 0010 064B     		ldr	r3, .L22+12
 210 0012 1A60     		str	r2, [r3, #0]
 211              		.loc 1 267 0
 212 0014 FFF7FEFF 		bl	port_halt
 213              	.LVL7:
 214              	.L19:
 215              	.LBE41:
 216              	.LBE40:
 217              		.loc 1 111 0
 218 0018 0120     		movs	r0, #1
 219 001a 2060     		str	r0, [r4, #0]
 220              		.loc 1 112 0
 221 001c 10BD     		pop	{r4, pc}
 222              	.L23:
 223 001e 00BF     		.align	2
 224              	.L22:
 225 0020 00000000 		.word	.LANCHOR0
ARM GAS  /tmp/ccx6PcDB.s 			page 5


 226 0024 00000000 		.word	.LANCHOR1
 227 0028 18000000 		.word	.LC3
 228 002c 00000000 		.word	.LANCHOR2
 229              		.cfi_endproc
 230              	.LFE10:
 231              		.size	dbg_check_lock, .-dbg_check_lock
 232              		.section	.text.dbg_check_unlock,"ax",%progbits
 233              		.align	2
 234              		.p2align 4,,15
 235              		.global	dbg_check_unlock
 236              		.thumb
 237              		.thumb_func
 238              		.type	dbg_check_unlock, %function
 239              	dbg_check_unlock:
 240              	.LFB11:
 241              		.loc 1 119 0
 242              		.cfi_startproc
 243              		@ args = 0, pretend = 0, frame = 0
 244              		@ frame_needed = 0, uses_anonymous_args = 0
 245              		.loc 1 121 0
 246 0000 0948     		ldr	r0, .L29
 247              		.loc 1 119 0
 248 0002 10B5     		push	{r4, lr}
 249              	.LCFI1:
 250              		.cfi_def_cfa_offset 8
 251              		.cfi_offset 14, -4
 252              		.cfi_offset 4, -8
 253              		.loc 1 121 0
 254 0004 0368     		ldr	r3, [r0, #0]
 255 0006 094C     		ldr	r4, .L29+4
 256 0008 2BB9     		cbnz	r3, .L25
 257              		.loc 1 121 0 is_stmt 0 discriminator 1
 258 000a 2168     		ldr	r1, [r4, #0]
 259 000c 0029     		cmp	r1, #0
 260 000e 02DD     		ble	.L25
 261              		.loc 1 123 0 is_stmt 1
 262 0010 0020     		movs	r0, #0
 263 0012 2060     		str	r0, [r4, #0]
 264              		.loc 1 124 0
 265 0014 10BD     		pop	{r4, pc}
 266              	.L25:
 267              	.LVL8:
 268              	.LBB42:
 269              	.LBB43:
 270              		.loc 1 266 0
 271 0016 064A     		ldr	r2, .L29+8
 272 0018 064B     		ldr	r3, .L29+12
 273 001a 1A60     		str	r2, [r3, #0]
 274              		.loc 1 267 0
 275 001c FFF7FEFF 		bl	port_halt
 276              	.LBE43:
 277              	.LBE42:
 278              		.loc 1 123 0
 279 0020 0020     		movs	r0, #0
 280 0022 2060     		str	r0, [r4, #0]
 281              		.loc 1 124 0
 282 0024 10BD     		pop	{r4, pc}
ARM GAS  /tmp/ccx6PcDB.s 			page 6


 283              	.L30:
 284 0026 00BF     		.align	2
 285              	.L29:
 286 0028 00000000 		.word	.LANCHOR0
 287 002c 00000000 		.word	.LANCHOR1
 288 0030 20000000 		.word	.LC4
 289 0034 00000000 		.word	.LANCHOR2
 290              		.cfi_endproc
 291              	.LFE11:
 292              		.size	dbg_check_unlock, .-dbg_check_unlock
 293 0038 AFF30080 		.section	.text.dbg_check_lock_from_isr,"ax",%progbits
 293      AFF30080 
 294              		.align	2
 295              		.p2align 4,,15
 296              		.global	dbg_check_lock_from_isr
 297              		.thumb
 298              		.thumb_func
 299              		.type	dbg_check_lock_from_isr, %function
 300              	dbg_check_lock_from_isr:
 301              	.LFB12:
 302              		.loc 1 131 0
 303              		.cfi_startproc
 304              		@ args = 0, pretend = 0, frame = 0
 305              		@ frame_needed = 0, uses_anonymous_args = 0
 306              		.loc 1 133 0
 307 0000 0748     		ldr	r0, .L36
 308              		.loc 1 131 0
 309 0002 10B5     		push	{r4, lr}
 310              	.LCFI2:
 311              		.cfi_def_cfa_offset 8
 312              		.cfi_offset 14, -4
 313              		.cfi_offset 4, -8
 314              		.loc 1 133 0
 315 0004 0368     		ldr	r3, [r0, #0]
 316 0006 074C     		ldr	r4, .L36+4
 317 0008 002B     		cmp	r3, #0
 318 000a 01DD     		ble	.L32
 319              		.loc 1 133 0 is_stmt 0 discriminator 1
 320 000c 2168     		ldr	r1, [r4, #0]
 321 000e 21B1     		cbz	r1, .L33
 322              	.L32:
 323              	.LVL9:
 324              	.LBB44:
 325              	.LBB45:
 326              		.loc 1 266 0 is_stmt 1
 327 0010 054A     		ldr	r2, .L36+8
 328 0012 064B     		ldr	r3, .L36+12
 329 0014 1A60     		str	r2, [r3, #0]
 330              		.loc 1 267 0
 331 0016 FFF7FEFF 		bl	port_halt
 332              	.LVL10:
 333              	.L33:
 334              	.LBE45:
 335              	.LBE44:
 336              		.loc 1 135 0
 337 001a 0120     		movs	r0, #1
 338 001c 2060     		str	r0, [r4, #0]
ARM GAS  /tmp/ccx6PcDB.s 			page 7


 339              		.loc 1 136 0
 340 001e 10BD     		pop	{r4, pc}
 341              	.L37:
 342              		.align	2
 343              	.L36:
 344 0020 00000000 		.word	.LANCHOR0
 345 0024 00000000 		.word	.LANCHOR1
 346 0028 28000000 		.word	.LC5
 347 002c 00000000 		.word	.LANCHOR2
 348              		.cfi_endproc
 349              	.LFE12:
 350              		.size	dbg_check_lock_from_isr, .-dbg_check_lock_from_isr
 351              		.section	.text.dbg_check_unlock_from_isr,"ax",%progbits
 352              		.align	2
 353              		.p2align 4,,15
 354              		.global	dbg_check_unlock_from_isr
 355              		.thumb
 356              		.thumb_func
 357              		.type	dbg_check_unlock_from_isr, %function
 358              	dbg_check_unlock_from_isr:
 359              	.LFB13:
 360              		.loc 1 143 0
 361              		.cfi_startproc
 362              		@ args = 0, pretend = 0, frame = 0
 363              		@ frame_needed = 0, uses_anonymous_args = 0
 364              		.loc 1 145 0
 365 0000 0948     		ldr	r0, .L43
 366              		.loc 1 143 0
 367 0002 10B5     		push	{r4, lr}
 368              	.LCFI3:
 369              		.cfi_def_cfa_offset 8
 370              		.cfi_offset 14, -4
 371              		.cfi_offset 4, -8
 372              		.loc 1 145 0
 373 0004 0368     		ldr	r3, [r0, #0]
 374 0006 094C     		ldr	r4, .L43+4
 375 0008 002B     		cmp	r3, #0
 376 000a 05DD     		ble	.L39
 377              		.loc 1 145 0 is_stmt 0 discriminator 1
 378 000c 2168     		ldr	r1, [r4, #0]
 379 000e 0029     		cmp	r1, #0
 380 0010 02DD     		ble	.L39
 381              		.loc 1 147 0 is_stmt 1
 382 0012 0020     		movs	r0, #0
 383 0014 2060     		str	r0, [r4, #0]
 384              		.loc 1 148 0
 385 0016 10BD     		pop	{r4, pc}
 386              	.L39:
 387              	.LVL11:
 388              	.LBB46:
 389              	.LBB47:
 390              		.loc 1 266 0
 391 0018 054A     		ldr	r2, .L43+8
 392 001a 064B     		ldr	r3, .L43+12
 393 001c 1A60     		str	r2, [r3, #0]
 394              		.loc 1 267 0
 395 001e FFF7FEFF 		bl	port_halt
ARM GAS  /tmp/ccx6PcDB.s 			page 8


 396              	.LBE47:
 397              	.LBE46:
 398              		.loc 1 147 0
 399 0022 0020     		movs	r0, #0
 400 0024 2060     		str	r0, [r4, #0]
 401              		.loc 1 148 0
 402 0026 10BD     		pop	{r4, pc}
 403              	.L44:
 404              		.align	2
 405              	.L43:
 406 0028 00000000 		.word	.LANCHOR0
 407 002c 00000000 		.word	.LANCHOR1
 408 0030 30000000 		.word	.LC6
 409 0034 00000000 		.word	.LANCHOR2
 410              		.cfi_endproc
 411              	.LFE13:
 412              		.size	dbg_check_unlock_from_isr, .-dbg_check_unlock_from_isr
 413 0038 AFF30080 		.section	.text.dbg_check_enter_isr,"ax",%progbits
 413      AFF30080 
 414              		.align	2
 415              		.p2align 4,,15
 416              		.global	dbg_check_enter_isr
 417              		.thumb
 418              		.thumb_func
 419              		.type	dbg_check_enter_isr, %function
 420              	dbg_check_enter_isr:
 421              	.LFB14:
 422              		.loc 1 155 0
 423              		.cfi_startproc
 424              		@ args = 0, pretend = 0, frame = 0
 425              		@ frame_needed = 0, uses_anonymous_args = 0
 426 0000 10B5     		push	{r4, lr}
 427              	.LCFI4:
 428              		.cfi_def_cfa_offset 8
 429              		.cfi_offset 14, -4
 430              		.cfi_offset 4, -8
 431              	.LBB48:
 432              		.loc 1 157 0
 433 0002 2023     		movs	r3, #32
 434              	.LVL12:
 435              	@ 157 "../../ChibiOS/os/kernel/src/chdebug.c" 1
 436 0004 83F31188 		msr     BASEPRI, r3
 437              	@ 0 "" 2
 438              	.LVL13:
 439              		.thumb
 440              	.LBE48:
 441              		.loc 1 158 0
 442 0008 094C     		ldr	r4, .L48
 443 000a 2368     		ldr	r3, [r4, #0]
 444              	.LVL14:
 445 000c 002B     		cmp	r3, #0
 446 000e 02DB     		blt	.L46
 447              		.loc 1 158 0 is_stmt 0 discriminator 1
 448 0010 0848     		ldr	r0, .L48+4
 449 0012 0268     		ldr	r2, [r0, #0]
 450 0014 2AB1     		cbz	r2, .L47
 451              	.L46:
ARM GAS  /tmp/ccx6PcDB.s 			page 9


 452              	.LVL15:
 453              	.LBB49:
 454              	.LBB50:
 455              		.loc 1 266 0 is_stmt 1
 456 0016 084B     		ldr	r3, .L48+8
 457 0018 0849     		ldr	r1, .L48+12
 458 001a 1960     		str	r1, [r3, #0]
 459              		.loc 1 267 0
 460 001c FFF7FEFF 		bl	port_halt
 461 0020 2368     		ldr	r3, [r4, #0]
 462              	.LVL16:
 463              	.L47:
 464              	.LBE50:
 465              	.LBE49:
 466              		.loc 1 160 0
 467 0022 5A1C     		adds	r2, r3, #1
 468 0024 2260     		str	r2, [r4, #0]
 469              	.LBB51:
 470              		.loc 1 161 0
 471 0026 0023     		movs	r3, #0
 472              	.LVL17:
 473              	@ 161 "../../ChibiOS/os/kernel/src/chdebug.c" 1
 474 0028 83F31188 		msr     BASEPRI, r3
 475              	@ 0 "" 2
 476              	.LVL18:
 477              		.thumb
 478              	.LBE51:
 479              		.loc 1 162 0
 480 002c 10BD     		pop	{r4, pc}
 481              	.L49:
 482 002e 00BF     		.align	2
 483              	.L48:
 484 0030 00000000 		.word	.LANCHOR0
 485 0034 00000000 		.word	.LANCHOR1
 486 0038 00000000 		.word	.LANCHOR2
 487 003c 38000000 		.word	.LC7
 488              		.cfi_endproc
 489              	.LFE14:
 490              		.size	dbg_check_enter_isr, .-dbg_check_enter_isr
 491              		.section	.text.dbg_check_leave_isr,"ax",%progbits
 492              		.align	2
 493              		.p2align 4,,15
 494              		.global	dbg_check_leave_isr
 495              		.thumb
 496              		.thumb_func
 497              		.type	dbg_check_leave_isr, %function
 498              	dbg_check_leave_isr:
 499              	.LFB15:
 500              		.loc 1 169 0
 501              		.cfi_startproc
 502              		@ args = 0, pretend = 0, frame = 0
 503              		@ frame_needed = 0, uses_anonymous_args = 0
 504 0000 10B5     		push	{r4, lr}
 505              	.LCFI5:
 506              		.cfi_def_cfa_offset 8
 507              		.cfi_offset 14, -4
 508              		.cfi_offset 4, -8
ARM GAS  /tmp/ccx6PcDB.s 			page 10


 509              	.LBB52:
 510              		.loc 1 171 0
 511 0002 2023     		movs	r3, #32
 512              	.LVL19:
 513              	@ 171 "../../ChibiOS/os/kernel/src/chdebug.c" 1
 514 0004 83F31188 		msr     BASEPRI, r3
 515              	@ 0 "" 2
 516              	.LVL20:
 517              		.thumb
 518              	.LBE52:
 519              		.loc 1 172 0
 520 0008 094C     		ldr	r4, .L53
 521 000a 2368     		ldr	r3, [r4, #0]
 522              	.LVL21:
 523 000c 002B     		cmp	r3, #0
 524 000e 02DD     		ble	.L51
 525              		.loc 1 172 0 is_stmt 0 discriminator 1
 526 0010 0848     		ldr	r0, .L53+4
 527 0012 0268     		ldr	r2, [r0, #0]
 528 0014 2AB1     		cbz	r2, .L52
 529              	.L51:
 530              	.LVL22:
 531              	.LBB53:
 532              	.LBB54:
 533              		.loc 1 266 0 is_stmt 1
 534 0016 084B     		ldr	r3, .L53+8
 535 0018 0849     		ldr	r1, .L53+12
 536 001a 1960     		str	r1, [r3, #0]
 537              		.loc 1 267 0
 538 001c FFF7FEFF 		bl	port_halt
 539 0020 2368     		ldr	r3, [r4, #0]
 540              	.LVL23:
 541              	.L52:
 542              	.LBE54:
 543              	.LBE53:
 544              		.loc 1 174 0
 545 0022 5A1E     		subs	r2, r3, #1
 546 0024 2260     		str	r2, [r4, #0]
 547              	.LBB55:
 548              		.loc 1 175 0
 549 0026 0023     		movs	r3, #0
 550              	.LVL24:
 551              	@ 175 "../../ChibiOS/os/kernel/src/chdebug.c" 1
 552 0028 83F31188 		msr     BASEPRI, r3
 553              	@ 0 "" 2
 554              	.LVL25:
 555              		.thumb
 556              	.LBE55:
 557              		.loc 1 176 0
 558 002c 10BD     		pop	{r4, pc}
 559              	.L54:
 560 002e 00BF     		.align	2
 561              	.L53:
 562 0030 00000000 		.word	.LANCHOR0
 563 0034 00000000 		.word	.LANCHOR1
 564 0038 00000000 		.word	.LANCHOR2
 565 003c 40000000 		.word	.LC8
ARM GAS  /tmp/ccx6PcDB.s 			page 11


 566              		.cfi_endproc
 567              	.LFE15:
 568              		.size	dbg_check_leave_isr, .-dbg_check_leave_isr
 569              		.section	.text.chDbgCheckClassI,"ax",%progbits
 570              		.align	2
 571              		.p2align 4,,15
 572              		.global	chDbgCheckClassI
 573              		.thumb
 574              		.thumb_func
 575              		.type	chDbgCheckClassI, %function
 576              	chDbgCheckClassI:
 577              	.LFB16:
 578              		.loc 1 186 0
 579              		.cfi_startproc
 580              		@ args = 0, pretend = 0, frame = 0
 581              		@ frame_needed = 0, uses_anonymous_args = 0
 582              		@ link register save eliminated.
 583              		.loc 1 188 0
 584 0000 0648     		ldr	r0, .L58
 585 0002 0368     		ldr	r3, [r0, #0]
 586 0004 002B     		cmp	r3, #0
 587 0006 04DB     		blt	.L56
 588              		.loc 1 188 0 is_stmt 0 discriminator 1
 589 0008 054A     		ldr	r2, .L58+4
 590 000a 1168     		ldr	r1, [r2, #0]
 591 000c 0029     		cmp	r1, #0
 592 000e 00DD     		ble	.L56
 593 0010 7047     		bx	lr
 594              	.L56:
 595              	.LVL26:
 596              	.LBB56:
 597              	.LBB57:
 598              		.loc 1 266 0 is_stmt 1
 599 0012 0448     		ldr	r0, .L58+8
 600 0014 044B     		ldr	r3, .L58+12
 601 0016 1860     		str	r0, [r3, #0]
 602              	.LBE57:
 603              	.LBE56:
 604              		.loc 1 190 0
 605              	.LBB59:
 606              	.LBB58:
 607              		.loc 1 267 0
 608 0018 FFF7FEBF 		b	port_halt
 609              	.L59:
 610              		.align	2
 611              	.L58:
 612 001c 00000000 		.word	.LANCHOR0
 613 0020 00000000 		.word	.LANCHOR1
 614 0024 48000000 		.word	.LC9
 615 0028 00000000 		.word	.LANCHOR2
 616              	.LBE58:
 617              	.LBE59:
 618              		.cfi_endproc
 619              	.LFE16:
 620              		.size	chDbgCheckClassI, .-chDbgCheckClassI
 621 002c AFF30080 		.section	.text.chDbgCheckClassS,"ax",%progbits
 622              		.align	2
ARM GAS  /tmp/ccx6PcDB.s 			page 12


 623              		.p2align 4,,15
 624              		.global	chDbgCheckClassS
 625              		.thumb
 626              		.thumb_func
 627              		.type	chDbgCheckClassS, %function
 628              	chDbgCheckClassS:
 629              	.LFB17:
 630              		.loc 1 200 0
 631              		.cfi_startproc
 632              		@ args = 0, pretend = 0, frame = 0
 633              		@ frame_needed = 0, uses_anonymous_args = 0
 634              		@ link register save eliminated.
 635              		.loc 1 202 0
 636 0000 0648     		ldr	r0, .L63
 637 0002 0368     		ldr	r3, [r0, #0]
 638 0004 23B9     		cbnz	r3, .L61
 639              		.loc 1 202 0 is_stmt 0 discriminator 1
 640 0006 064A     		ldr	r2, .L63+4
 641 0008 1168     		ldr	r1, [r2, #0]
 642 000a 0029     		cmp	r1, #0
 643 000c 00DD     		ble	.L61
 644 000e 7047     		bx	lr
 645              	.L61:
 646              	.LVL27:
 647              	.LBB60:
 648              	.LBB61:
 649              		.loc 1 266 0 is_stmt 1
 650 0010 0448     		ldr	r0, .L63+8
 651 0012 054B     		ldr	r3, .L63+12
 652 0014 1860     		str	r0, [r3, #0]
 653              	.LBE61:
 654              	.LBE60:
 655              		.loc 1 204 0
 656              	.LBB63:
 657              	.LBB62:
 658              		.loc 1 267 0
 659 0016 FFF7FEBF 		b	port_halt
 660              	.L64:
 661 001a 00BF     		.align	2
 662              	.L63:
 663 001c 00000000 		.word	.LANCHOR0
 664 0020 00000000 		.word	.LANCHOR1
 665 0024 50000000 		.word	.LC10
 666 0028 00000000 		.word	.LANCHOR2
 667              	.LBE62:
 668              	.LBE63:
 669              		.cfi_endproc
 670              	.LFE17:
 671              		.size	chDbgCheckClassS, .-chDbgCheckClassS
 672 002c AFF30080 		.section	.text._trace_init,"ax",%progbits
 673              		.align	2
 674              		.p2align 4,,15
 675              		.global	_trace_init
 676              		.thumb
 677              		.thumb_func
 678              		.type	_trace_init, %function
 679              	_trace_init:
ARM GAS  /tmp/ccx6PcDB.s 			page 13


 680              	.LFB18:
 681              		.loc 1 222 0
 682              		.cfi_startproc
 683              		@ args = 0, pretend = 0, frame = 0
 684              		@ frame_needed = 0, uses_anonymous_args = 0
 685              		@ link register save eliminated.
 686              		.loc 1 224 0
 687 0000 40F20003 		movw	r3, #:lower16:.LANCHOR3
 688 0004 C0F20003 		movt	r3, #:upper16:.LANCHOR3
 689 0008 1A46     		mov	r2, r3
 690 000a 4021     		movs	r1, #64
 691 000c 42F8081B 		str	r1, [r2], #8
 692              		.loc 1 225 0
 693 0010 5A60     		str	r2, [r3, #4]
 694              		.loc 1 226 0
 695 0012 7047     		bx	lr
 696              		.cfi_endproc
 697              	.LFE18:
 698              		.size	_trace_init, .-_trace_init
 699 0014 AFF30080 		.section	.text.dbg_trace,"ax",%progbits
 699      AFF30080 
 699      AFF30080 
 700              		.align	2
 701              		.p2align 4,,15
 702              		.global	dbg_trace
 703              		.thumb
 704              		.thumb_func
 705              		.type	dbg_trace, %function
 706              	dbg_trace:
 707              	.LFB19:
 708              		.loc 1 235 0
 709              		.cfi_startproc
 710              		@ args = 0, pretend = 0, frame = 0
 711              		@ frame_needed = 0, uses_anonymous_args = 0
 712              		@ link register save eliminated.
 713              	.LVL28:
 714 0000 10B4     		push	{r4}
 715              	.LCFI6:
 716              		.cfi_def_cfa_offset 4
 717              		.cfi_offset 4, -4
 718              		.loc 1 237 0
 719 0002 0D4A     		ldr	r2, .L68
 720 0004 0D4C     		ldr	r4, .L68+4
 721              		.loc 1 238 0
 722 0006 0E49     		ldr	r1, .L68+8
 723              		.loc 1 237 0
 724 0008 5368     		ldr	r3, [r2, #4]
 725 000a E468     		ldr	r4, [r4, #12]
 726              		.loc 1 238 0
 727 000c 8969     		ldr	r1, [r1, #24]
 728              		.loc 1 237 0
 729 000e 1C60     		str	r4, [r3, #0]
 730              		.loc 1 238 0
 731 0010 5960     		str	r1, [r3, #4]
 732              		.loc 1 239 0
 733 0012 846A     		ldr	r4, [r0, #40]
 734              		.loc 1 241 0
ARM GAS  /tmp/ccx6PcDB.s 			page 14


 735 0014 03F11001 		add	r1, r3, #16
 736              		.loc 1 239 0
 737 0018 9C60     		str	r4, [r3, #8]
 738              		.loc 1 240 0
 739 001a 90F82040 		ldrb	r4, [r0, #32]	@ zero_extendqisi2
 740              		.loc 1 242 0
 741 001e 02F58160 		add	r0, r2, #1032
 742              	.LVL29:
 743              		.loc 1 241 0
 744 0022 8142     		cmp	r1, r0
 745              		.loc 1 240 0
 746 0024 1C73     		strb	r4, [r3, #12]
 747              		.loc 1 243 0
 748 0026 28BF     		it	cs
 749 0028 02F10803 		addcs	r3, r2, #8
 750              		.loc 1 241 0
 751 002c 5160     		str	r1, [r2, #4]
 752              		.loc 1 243 0
 753 002e 28BF     		it	cs
 754 0030 5360     		strcs	r3, [r2, #4]
 755              		.loc 1 244 0
 756 0032 10BC     		pop	{r4}
 757 0034 7047     		bx	lr
 758              	.L69:
 759 0036 00BF     		.align	2
 760              	.L68:
 761 0038 00000000 		.word	.LANCHOR3
 762 003c 00000000 		.word	vtlist
 763 0040 00000000 		.word	rlist
 764              		.cfi_endproc
 765              	.LFE19:
 766              		.size	dbg_trace, .-dbg_trace
 767 0044 AFF30080 		.section	.text.chDbgPanic,"ax",%progbits
 767      AFF30080 
 767      AFF30080 
 768              		.align	2
 769              		.p2align 4,,15
 770              		.global	chDbgPanic
 771              		.thumb
 772              		.thumb_func
 773              		.type	chDbgPanic, %function
 774              	chDbgPanic:
 775              	.LFB20:
 776              		.loc 1 264 0
 777              		.cfi_startproc
 778              		@ args = 0, pretend = 0, frame = 0
 779              		@ frame_needed = 0, uses_anonymous_args = 0
 780              		@ link register save eliminated.
 781              	.LVL30:
 782              		.loc 1 266 0
 783 0000 40F20003 		movw	r3, #:lower16:.LANCHOR2
 784 0004 C0F20003 		movt	r3, #:upper16:.LANCHOR2
 785 0008 1860     		str	r0, [r3, #0]
 786              		.loc 1 268 0
 787              		.loc 1 267 0
 788 000a FFF7FEBF 		b	port_halt
 789              	.LVL31:
ARM GAS  /tmp/ccx6PcDB.s 			page 15


 790              		.cfi_endproc
 791              	.LFE20:
 792              		.size	chDbgPanic, .-chDbgPanic
 793              		.global	dbg_panic_msg
 794              		.global	dbg_trace_buffer
 795              		.global	dbg_lock_cnt
 796              		.global	dbg_isr_cnt
 797 000e 00BF     		.section	.bss.dbg_isr_cnt,"aw",%nobits
 798              		.align	2
 799              		.set	.LANCHOR0,. + 0
 800              		.type	dbg_isr_cnt, %object
 801              		.size	dbg_isr_cnt, 4
 802              	dbg_isr_cnt:
 803 0000 00000000 		.space	4
 804              		.section	.bss.dbg_trace_buffer,"aw",%nobits
 805              		.align	2
 806              		.set	.LANCHOR3,. + 0
 807              		.type	dbg_trace_buffer, %object
 808              		.size	dbg_trace_buffer, 1032
 809              	dbg_trace_buffer:
 810 0000 00000000 		.space	1032
 810      00000000 
 810      00000000 
 810      00000000 
 810      00000000 
 811              		.section	.rodata.str1.4,"aMS",%progbits,1
 812              		.align	2
 813              	.LC0:
 814 0000 53562331 		.ascii	"SV#1\000"
 814      00
 815 0005 000000   		.space	3
 816              	.LC1:
 817 0008 53562332 		.ascii	"SV#2\000"
 817      00
 818 000d 000000   		.space	3
 819              	.LC2:
 820 0010 53562333 		.ascii	"SV#3\000"
 820      00
 821 0015 000000   		.space	3
 822              	.LC3:
 823 0018 53562334 		.ascii	"SV#4\000"
 823      00
 824 001d 000000   		.space	3
 825              	.LC4:
 826 0020 53562335 		.ascii	"SV#5\000"
 826      00
 827 0025 000000   		.space	3
 828              	.LC5:
 829 0028 53562336 		.ascii	"SV#6\000"
 829      00
 830 002d 000000   		.space	3
 831              	.LC6:
 832 0030 53562337 		.ascii	"SV#7\000"
 832      00
 833 0035 000000   		.space	3
 834              	.LC7:
 835 0038 53562338 		.ascii	"SV#8\000"
ARM GAS  /tmp/ccx6PcDB.s 			page 16


 835      00
 836 003d 000000   		.space	3
 837              	.LC8:
 838 0040 53562339 		.ascii	"SV#9\000"
 838      00
 839 0045 000000   		.space	3
 840              	.LC9:
 841 0048 53562331 		.ascii	"SV#10\000"
 841      3000
 842 004e 0000     		.space	2
 843              	.LC10:
 844 0050 53562331 		.ascii	"SV#11\000"
 844      3100
 845 0056 0000     		.section	.bss.dbg_lock_cnt,"aw",%nobits
 846              		.align	2
 847              		.set	.LANCHOR1,. + 0
 848              		.type	dbg_lock_cnt, %object
 849              		.size	dbg_lock_cnt, 4
 850              	dbg_lock_cnt:
 851 0000 00000000 		.space	4
 852              		.section	.bss.dbg_panic_msg,"aw",%nobits
 853              		.align	2
 854              		.set	.LANCHOR2,. + 0
 855              		.type	dbg_panic_msg, %object
 856              		.size	dbg_panic_msg, 4
 857              	dbg_panic_msg:
 858 0000 00000000 		.space	4
 859              		.text
 860              	.Letext0:
 861              		.file 2 "/home/tino/ChibiStudio/tools/GNU Tools ARM Embedded/4.6 2012q2/bin/../lib/gcc/arm-none-ea
 862              		.file 3 "../../ChibiOS/os/ports/GCC/ARMCMx/chtypes.h"
 863              		.file 4 "../../ChibiOS/os/kernel/include/chlists.h"
 864              		.file 5 "../../ChibiOS/os/kernel/include/chthreads.h"
 865              		.file 6 "../../ChibiOS/os/ports/GCC/ARMCMx/chcore_v7m.h"
 866              		.file 7 "../../ChibiOS/os/kernel/include/chvt.h"
 867              		.file 8 "../../ChibiOS/os/kernel/include/chschd.h"
 868              		.file 9 "../../ChibiOS/os/kernel/include/chmtx.h"
 869              		.file 10 "../../ChibiOS/os/kernel/include/chdebug.h"
 870              		.section	.debug_info,"",%progbits
 871              	.Ldebug_info0:
 872 0000 AB090000 		.4byte	0x9ab
 873 0004 0200     		.2byte	0x2
 874 0006 00000000 		.4byte	.Ldebug_abbrev0
 875 000a 04       		.byte	0x4
 876 000b 01       		.uleb128 0x1
 877 000c C1000000 		.4byte	.LASF102
 878 0010 01       		.byte	0x1
 879 0011 4C040000 		.4byte	.LASF103
 880 0015 0A010000 		.4byte	.LASF104
 881 0019 00000000 		.4byte	0
 882 001d 00000000 		.4byte	0
 883 0021 78000000 		.4byte	.Ldebug_ranges0+0x78
 884 0025 00000000 		.4byte	.Ldebug_line0
 885 0029 02       		.uleb128 0x2
 886 002a 04       		.byte	0x4
 887 002b 05       		.byte	0x5
 888 002c 696E7400 		.ascii	"int\000"
ARM GAS  /tmp/ccx6PcDB.s 			page 17


 889 0030 03       		.uleb128 0x3
 890 0031 04       		.byte	0x4
 891 0032 07       		.byte	0x7
 892 0033 8C010000 		.4byte	.LASF0
 893 0037 03       		.uleb128 0x3
 894 0038 01       		.byte	0x1
 895 0039 06       		.byte	0x6
 896 003a 78000000 		.4byte	.LASF1
 897 003e 04       		.uleb128 0x4
 898 003f 44040000 		.4byte	.LASF5
 899 0043 02       		.byte	0x2
 900 0044 2A       		.byte	0x2a
 901 0045 49000000 		.4byte	0x49
 902 0049 03       		.uleb128 0x3
 903 004a 01       		.byte	0x1
 904 004b 08       		.byte	0x8
 905 004c 0E030000 		.4byte	.LASF2
 906 0050 03       		.uleb128 0x3
 907 0051 02       		.byte	0x2
 908 0052 05       		.byte	0x5
 909 0053 34030000 		.4byte	.LASF3
 910 0057 03       		.uleb128 0x3
 911 0058 02       		.byte	0x2
 912 0059 07       		.byte	0x7
 913 005a D7010000 		.4byte	.LASF4
 914 005e 04       		.uleb128 0x4
 915 005f 06030000 		.4byte	.LASF6
 916 0063 02       		.byte	0x2
 917 0064 4F       		.byte	0x4f
 918 0065 69000000 		.4byte	0x69
 919 0069 03       		.uleb128 0x3
 920 006a 04       		.byte	0x4
 921 006b 05       		.byte	0x5
 922 006c B8000000 		.4byte	.LASF7
 923 0070 04       		.uleb128 0x4
 924 0071 7F030000 		.4byte	.LASF8
 925 0075 02       		.byte	0x2
 926 0076 50       		.byte	0x50
 927 0077 7B000000 		.4byte	0x7b
 928 007b 03       		.uleb128 0x3
 929 007c 04       		.byte	0x4
 930 007d 07       		.byte	0x7
 931 007e AB010000 		.4byte	.LASF9
 932 0082 03       		.uleb128 0x3
 933 0083 08       		.byte	0x8
 934 0084 05       		.byte	0x5
 935 0085 6A000000 		.4byte	.LASF10
 936 0089 04       		.uleb128 0x4
 937 008a 18000000 		.4byte	.LASF11
 938 008e 02       		.byte	0x2
 939 008f 78       		.byte	0x78
 940 0090 94000000 		.4byte	0x94
 941 0094 03       		.uleb128 0x3
 942 0095 08       		.byte	0x8
 943 0096 07       		.byte	0x7
 944 0097 28000000 		.4byte	.LASF12
 945 009b 03       		.uleb128 0x3
ARM GAS  /tmp/ccx6PcDB.s 			page 18


 946 009c 01       		.byte	0x1
 947 009d 02       		.byte	0x2
 948 009e 00030000 		.4byte	.LASF13
 949 00a2 04       		.uleb128 0x4
 950 00a3 0D020000 		.4byte	.LASF14
 951 00a7 03       		.byte	0x3
 952 00a8 25       		.byte	0x25
 953 00a9 3E000000 		.4byte	0x3e
 954 00ad 04       		.uleb128 0x4
 955 00ae 3B010000 		.4byte	.LASF15
 956 00b2 03       		.byte	0x3
 957 00b3 26       		.byte	0x26
 958 00b4 3E000000 		.4byte	0x3e
 959 00b8 04       		.uleb128 0x4
 960 00b9 DF020000 		.4byte	.LASF16
 961 00bd 03       		.byte	0x3
 962 00be 27       		.byte	0x27
 963 00bf 3E000000 		.4byte	0x3e
 964 00c3 04       		.uleb128 0x4
 965 00c4 AE000000 		.4byte	.LASF17
 966 00c8 03       		.byte	0x3
 967 00c9 28       		.byte	0x28
 968 00ca 3E000000 		.4byte	0x3e
 969 00ce 04       		.uleb128 0x4
 970 00cf F8020000 		.4byte	.LASF18
 971 00d3 03       		.byte	0x3
 972 00d4 29       		.byte	0x29
 973 00d5 70000000 		.4byte	0x70
 974 00d9 04       		.uleb128 0x4
 975 00da F6010000 		.4byte	.LASF19
 976 00de 03       		.byte	0x3
 977 00df 2A       		.byte	0x2a
 978 00e0 5E000000 		.4byte	0x5e
 979 00e4 04       		.uleb128 0x4
 980 00e5 3E020000 		.4byte	.LASF20
 981 00e9 03       		.byte	0x3
 982 00ea 2C       		.byte	0x2c
 983 00eb 70000000 		.4byte	0x70
 984 00ef 04       		.uleb128 0x4
 985 00f0 A9030000 		.4byte	.LASF21
 986 00f4 03       		.byte	0x3
 987 00f5 2E       		.byte	0x2e
 988 00f6 70000000 		.4byte	0x70
 989 00fa 04       		.uleb128 0x4
 990 00fb 7B010000 		.4byte	.LASF22
 991 00ff 03       		.byte	0x3
 992 0100 2F       		.byte	0x2f
 993 0101 5E000000 		.4byte	0x5e
 994 0105 04       		.uleb128 0x4
 995 0106 6D030000 		.4byte	.LASF23
 996 010a 04       		.byte	0x4
 997 010b 23       		.byte	0x23
 998 010c 10010000 		.4byte	0x110
 999 0110 05       		.uleb128 0x5
 1000 0111 6D030000 		.4byte	.LASF23
 1001 0115 4C       		.byte	0x4c
 1002 0116 05       		.byte	0x5
ARM GAS  /tmp/ccx6PcDB.s 			page 19


 1003 0117 57       		.byte	0x57
 1004 0118 43020000 		.4byte	0x243
 1005 011c 06       		.uleb128 0x6
 1006 011d 5E030000 		.4byte	.LASF24
 1007 0121 05       		.byte	0x5
 1008 0122 58       		.byte	0x58
 1009 0123 68020000 		.4byte	0x268
 1010 0127 02       		.byte	0x2
 1011 0128 23       		.byte	0x23
 1012 0129 00       		.uleb128 0
 1013 012a 06       		.uleb128 0x6
 1014 012b F1020000 		.4byte	.LASF25
 1015 012f 05       		.byte	0x5
 1016 0130 5A       		.byte	0x5a
 1017 0131 68020000 		.4byte	0x268
 1018 0135 02       		.byte	0x2
 1019 0136 23       		.byte	0x23
 1020 0137 04       		.uleb128 0x4
 1021 0138 06       		.uleb128 0x6
 1022 0139 63000000 		.4byte	.LASF26
 1023 013d 05       		.byte	0x5
 1024 013e 5C       		.byte	0x5c
 1025 013f CE000000 		.4byte	0xce
 1026 0143 02       		.byte	0x2
 1027 0144 23       		.byte	0x23
 1028 0145 08       		.uleb128 0x8
 1029 0146 06       		.uleb128 0x6
 1030 0147 CE040000 		.4byte	.LASF27
 1031 014b 05       		.byte	0x5
 1032 014c 5D       		.byte	0x5d
 1033 014d 41030000 		.4byte	0x341
 1034 0151 02       		.byte	0x2
 1035 0152 23       		.byte	0x23
 1036 0153 0C       		.uleb128 0xc
 1037 0154 06       		.uleb128 0x6
 1038 0155 4A010000 		.4byte	.LASF28
 1039 0159 05       		.byte	0x5
 1040 015a 5F       		.byte	0x5f
 1041 015b 68020000 		.4byte	0x268
 1042 015f 02       		.byte	0x2
 1043 0160 23       		.byte	0x23
 1044 0161 10       		.uleb128 0x10
 1045 0162 06       		.uleb128 0x6
 1046 0163 90020000 		.4byte	.LASF29
 1047 0167 05       		.byte	0x5
 1048 0168 60       		.byte	0x60
 1049 0169 68020000 		.4byte	0x268
 1050 016d 02       		.byte	0x2
 1051 016e 23       		.byte	0x23
 1052 016f 14       		.uleb128 0x14
 1053 0170 06       		.uleb128 0x6
 1054 0171 91040000 		.4byte	.LASF30
 1055 0175 05       		.byte	0x5
 1056 0176 67       		.byte	0x67
 1057 0177 1B050000 		.4byte	0x51b
 1058 017b 02       		.byte	0x2
 1059 017c 23       		.byte	0x23
ARM GAS  /tmp/ccx6PcDB.s 			page 20


 1060 017d 18       		.uleb128 0x18
 1061 017e 06       		.uleb128 0x6
 1062 017f 81010000 		.4byte	.LASF31
 1063 0183 05       		.byte	0x5
 1064 0184 6D       		.byte	0x6d
 1065 0185 2D050000 		.4byte	0x52d
 1066 0189 02       		.byte	0x2
 1067 018a 23       		.byte	0x23
 1068 018b 1C       		.uleb128 0x1c
 1069 018c 06       		.uleb128 0x6
 1070 018d 3E030000 		.4byte	.LASF32
 1071 0191 05       		.byte	0x5
 1072 0192 72       		.byte	0x72
 1073 0193 AD000000 		.4byte	0xad
 1074 0197 02       		.byte	0x2
 1075 0198 23       		.byte	0x23
 1076 0199 20       		.uleb128 0x20
 1077 019a 06       		.uleb128 0x6
 1078 019b 65030000 		.4byte	.LASF33
 1079 019f 05       		.byte	0x5
 1080 01a0 76       		.byte	0x76
 1081 01a1 A2000000 		.4byte	0xa2
 1082 01a5 02       		.byte	0x2
 1083 01a6 23       		.byte	0x23
 1084 01a7 21       		.uleb128 0x21
 1085 01a8 06       		.uleb128 0x6
 1086 01a9 19040000 		.4byte	.LASF34
 1087 01ad 05       		.byte	0x5
 1088 01ae 7B       		.byte	0x7b
 1089 01af B8000000 		.4byte	0xb8
 1090 01b3 02       		.byte	0x2
 1091 01b4 23       		.byte	0x23
 1092 01b5 22       		.uleb128 0x22
 1093 01b6 06       		.uleb128 0x6
 1094 01b7 46030000 		.4byte	.LASF35
 1095 01bb 05       		.byte	0x5
 1096 01bc 81       		.byte	0x81
 1097 01bd C3000000 		.4byte	0xc3
 1098 01c1 02       		.byte	0x2
 1099 01c2 23       		.byte	0x23
 1100 01c3 23       		.uleb128 0x23
 1101 01c4 06       		.uleb128 0x6
 1102 01c5 D4030000 		.4byte	.LASF36
 1103 01c9 05       		.byte	0x5
 1104 01ca 88       		.byte	0x88
 1105 01cb 26040000 		.4byte	0x426
 1106 01cf 02       		.byte	0x2
 1107 01d0 23       		.byte	0x23
 1108 01d1 24       		.uleb128 0x24
 1109 01d2 07       		.uleb128 0x7
 1110 01d3 705F7500 		.ascii	"p_u\000"
 1111 01d7 05       		.byte	0x5
 1112 01d8 AD       		.byte	0xad
 1113 01d9 E6040000 		.4byte	0x4e6
 1114 01dd 02       		.byte	0x2
 1115 01de 23       		.byte	0x23
 1116 01df 28       		.uleb128 0x28
ARM GAS  /tmp/ccx6PcDB.s 			page 21


 1117 01e0 06       		.uleb128 0x6
 1118 01e1 D4040000 		.4byte	.LASF37
 1119 01e5 05       		.byte	0x5
 1120 01e6 B2       		.byte	0xb2
 1121 01e7 90020000 		.4byte	0x290
 1122 01eb 02       		.byte	0x2
 1123 01ec 23       		.byte	0x23
 1124 01ed 2C       		.uleb128 0x2c
 1125 01ee 06       		.uleb128 0x6
 1126 01ef F6030000 		.4byte	.LASF38
 1127 01f3 05       		.byte	0x5
 1128 01f4 B8       		.byte	0xb8
 1129 01f5 6E020000 		.4byte	0x26e
 1130 01f9 02       		.byte	0x2
 1131 01fa 23       		.byte	0x23
 1132 01fb 30       		.uleb128 0x30
 1133 01fc 06       		.uleb128 0x6
 1134 01fd 00000000 		.4byte	.LASF39
 1135 0201 05       		.byte	0x5
 1136 0202 BC       		.byte	0xbc
 1137 0203 D9000000 		.4byte	0xd9
 1138 0207 02       		.byte	0x2
 1139 0208 23       		.byte	0x23
 1140 0209 38       		.uleb128 0x38
 1141 020a 06       		.uleb128 0x6
 1142 020b 74030000 		.4byte	.LASF40
 1143 020f 05       		.byte	0x5
 1144 0210 C2       		.byte	0xc2
 1145 0211 E4000000 		.4byte	0xe4
 1146 0215 02       		.byte	0x2
 1147 0216 23       		.byte	0x23
 1148 0217 3C       		.uleb128 0x3c
 1149 0218 06       		.uleb128 0x6
 1150 0219 2A030000 		.4byte	.LASF41
 1151 021d 05       		.byte	0x5
 1152 021e C9       		.byte	0xc9
 1153 021f 33050000 		.4byte	0x533
 1154 0223 02       		.byte	0x2
 1155 0224 23       		.byte	0x23
 1156 0225 40       		.uleb128 0x40
 1157 0226 06       		.uleb128 0x6
 1158 0227 B3030000 		.4byte	.LASF42
 1159 022b 05       		.byte	0x5
 1160 022c CD       		.byte	0xcd
 1161 022d CE000000 		.4byte	0xce
 1162 0231 02       		.byte	0x2
 1163 0232 23       		.byte	0x23
 1164 0233 44       		.uleb128 0x44
 1165 0234 06       		.uleb128 0x6
 1166 0235 9E000000 		.4byte	.LASF43
 1167 0239 05       		.byte	0x5
 1168 023a D3       		.byte	0xd3
 1169 023b A6020000 		.4byte	0x2a6
 1170 023f 02       		.byte	0x2
 1171 0240 23       		.byte	0x23
 1172 0241 48       		.uleb128 0x48
 1173 0242 00       		.byte	0
ARM GAS  /tmp/ccx6PcDB.s 			page 22


 1174 0243 08       		.uleb128 0x8
 1175 0244 08       		.byte	0x8
 1176 0245 04       		.byte	0x4
 1177 0246 5A       		.byte	0x5a
 1178 0247 68020000 		.4byte	0x268
 1179 024b 06       		.uleb128 0x6
 1180 024c 5E030000 		.4byte	.LASF24
 1181 0250 04       		.byte	0x4
 1182 0251 5B       		.byte	0x5b
 1183 0252 68020000 		.4byte	0x268
 1184 0256 02       		.byte	0x2
 1185 0257 23       		.byte	0x23
 1186 0258 00       		.uleb128 0
 1187 0259 06       		.uleb128 0x6
 1188 025a F1020000 		.4byte	.LASF25
 1189 025e 04       		.byte	0x4
 1190 025f 5D       		.byte	0x5d
 1191 0260 68020000 		.4byte	0x268
 1192 0264 02       		.byte	0x2
 1193 0265 23       		.byte	0x23
 1194 0266 04       		.uleb128 0x4
 1195 0267 00       		.byte	0
 1196 0268 09       		.uleb128 0x9
 1197 0269 04       		.byte	0x4
 1198 026a 05010000 		.4byte	0x105
 1199 026e 04       		.uleb128 0x4
 1200 026f 9E020000 		.4byte	.LASF44
 1201 0273 04       		.byte	0x4
 1202 0274 5F       		.byte	0x5f
 1203 0275 43020000 		.4byte	0x243
 1204 0279 08       		.uleb128 0x8
 1205 027a 04       		.byte	0x4
 1206 027b 04       		.byte	0x4
 1207 027c 64       		.byte	0x64
 1208 027d 90020000 		.4byte	0x290
 1209 0281 06       		.uleb128 0x6
 1210 0282 5E030000 		.4byte	.LASF24
 1211 0286 04       		.byte	0x4
 1212 0287 66       		.byte	0x66
 1213 0288 68020000 		.4byte	0x268
 1214 028c 02       		.byte	0x2
 1215 028d 23       		.byte	0x23
 1216 028e 00       		.uleb128 0
 1217 028f 00       		.byte	0
 1218 0290 04       		.uleb128 0x4
 1219 0291 32020000 		.4byte	.LASF45
 1220 0295 04       		.byte	0x4
 1221 0296 69       		.byte	0x69
 1222 0297 79020000 		.4byte	0x279
 1223 029b 04       		.uleb128 0x4
 1224 029c 62010000 		.4byte	.LASF46
 1225 02a0 06       		.byte	0x6
 1226 02a1 DE       		.byte	0xde
 1227 02a2 A6020000 		.4byte	0x2a6
 1228 02a6 0A       		.uleb128 0xa
 1229 02a7 04       		.byte	0x4
 1230 02a8 04       		.uleb128 0x4
ARM GAS  /tmp/ccx6PcDB.s 			page 23


 1231 02a9 50020000 		.4byte	.LASF47
 1232 02ad 06       		.byte	0x6
 1233 02ae E4       		.byte	0xe4
 1234 02af 89000000 		.4byte	0x89
 1235 02b3 0B       		.uleb128 0xb
 1236 02b4 EF030000 		.4byte	.LASF48
 1237 02b8 24       		.byte	0x24
 1238 02b9 06       		.byte	0x6
 1239 02ba 0501     		.2byte	0x105
 1240 02bc 41030000 		.4byte	0x341
 1241 02c0 0C       		.uleb128 0xc
 1242 02c1 723400   		.ascii	"r4\000"
 1243 02c4 06       		.byte	0x6
 1244 02c5 1801     		.2byte	0x118
 1245 02c7 9B020000 		.4byte	0x29b
 1246 02cb 02       		.byte	0x2
 1247 02cc 23       		.byte	0x23
 1248 02cd 00       		.uleb128 0
 1249 02ce 0C       		.uleb128 0xc
 1250 02cf 723500   		.ascii	"r5\000"
 1251 02d2 06       		.byte	0x6
 1252 02d3 1901     		.2byte	0x119
 1253 02d5 9B020000 		.4byte	0x29b
 1254 02d9 02       		.byte	0x2
 1255 02da 23       		.byte	0x23
 1256 02db 04       		.uleb128 0x4
 1257 02dc 0C       		.uleb128 0xc
 1258 02dd 723600   		.ascii	"r6\000"
 1259 02e0 06       		.byte	0x6
 1260 02e1 1A01     		.2byte	0x11a
 1261 02e3 9B020000 		.4byte	0x29b
 1262 02e7 02       		.byte	0x2
 1263 02e8 23       		.byte	0x23
 1264 02e9 08       		.uleb128 0x8
 1265 02ea 0C       		.uleb128 0xc
 1266 02eb 723700   		.ascii	"r7\000"
 1267 02ee 06       		.byte	0x6
 1268 02ef 1B01     		.2byte	0x11b
 1269 02f1 9B020000 		.4byte	0x29b
 1270 02f5 02       		.byte	0x2
 1271 02f6 23       		.byte	0x23
 1272 02f7 0C       		.uleb128 0xc
 1273 02f8 0C       		.uleb128 0xc
 1274 02f9 723800   		.ascii	"r8\000"
 1275 02fc 06       		.byte	0x6
 1276 02fd 1C01     		.2byte	0x11c
 1277 02ff 9B020000 		.4byte	0x29b
 1278 0303 02       		.byte	0x2
 1279 0304 23       		.byte	0x23
 1280 0305 10       		.uleb128 0x10
 1281 0306 0C       		.uleb128 0xc
 1282 0307 723900   		.ascii	"r9\000"
 1283 030a 06       		.byte	0x6
 1284 030b 1D01     		.2byte	0x11d
 1285 030d 9B020000 		.4byte	0x29b
 1286 0311 02       		.byte	0x2
 1287 0312 23       		.byte	0x23
ARM GAS  /tmp/ccx6PcDB.s 			page 24


 1288 0313 14       		.uleb128 0x14
 1289 0314 0C       		.uleb128 0xc
 1290 0315 72313000 		.ascii	"r10\000"
 1291 0319 06       		.byte	0x6
 1292 031a 1E01     		.2byte	0x11e
 1293 031c 9B020000 		.4byte	0x29b
 1294 0320 02       		.byte	0x2
 1295 0321 23       		.byte	0x23
 1296 0322 18       		.uleb128 0x18
 1297 0323 0C       		.uleb128 0xc
 1298 0324 72313100 		.ascii	"r11\000"
 1299 0328 06       		.byte	0x6
 1300 0329 1F01     		.2byte	0x11f
 1301 032b 9B020000 		.4byte	0x29b
 1302 032f 02       		.byte	0x2
 1303 0330 23       		.byte	0x23
 1304 0331 1C       		.uleb128 0x1c
 1305 0332 0C       		.uleb128 0xc
 1306 0333 6C7200   		.ascii	"lr\000"
 1307 0336 06       		.byte	0x6
 1308 0337 2001     		.2byte	0x120
 1309 0339 9B020000 		.4byte	0x29b
 1310 033d 02       		.byte	0x2
 1311 033e 23       		.byte	0x23
 1312 033f 20       		.uleb128 0x20
 1313 0340 00       		.byte	0
 1314 0341 0B       		.uleb128 0xb
 1315 0342 CF010000 		.4byte	.LASF49
 1316 0346 04       		.byte	0x4
 1317 0347 06       		.byte	0x6
 1318 0348 2A01     		.2byte	0x12a
 1319 034a 5E030000 		.4byte	0x35e
 1320 034e 0C       		.uleb128 0xc
 1321 034f 72313300 		.ascii	"r13\000"
 1322 0353 06       		.byte	0x6
 1323 0354 2B01     		.2byte	0x12b
 1324 0356 5E030000 		.4byte	0x35e
 1325 035a 02       		.byte	0x2
 1326 035b 23       		.byte	0x23
 1327 035c 00       		.uleb128 0
 1328 035d 00       		.byte	0
 1329 035e 09       		.uleb128 0x9
 1330 035f 04       		.byte	0x4
 1331 0360 B3020000 		.4byte	0x2b3
 1332 0364 04       		.uleb128 0x4
 1333 0365 BE030000 		.4byte	.LASF50
 1334 0369 07       		.byte	0x7
 1335 036a 4E       		.byte	0x4e
 1336 036b 6F030000 		.4byte	0x36f
 1337 036f 09       		.uleb128 0x9
 1338 0370 04       		.byte	0x4
 1339 0371 75030000 		.4byte	0x375
 1340 0375 0D       		.uleb128 0xd
 1341 0376 01       		.byte	0x1
 1342 0377 81030000 		.4byte	0x381
 1343 037b 0E       		.uleb128 0xe
 1344 037c A6020000 		.4byte	0x2a6
ARM GAS  /tmp/ccx6PcDB.s 			page 25


 1345 0380 00       		.byte	0
 1346 0381 04       		.uleb128 0x4
 1347 0382 90030000 		.4byte	.LASF51
 1348 0386 07       		.byte	0x7
 1349 0387 53       		.byte	0x53
 1350 0388 8C030000 		.4byte	0x38c
 1351 038c 05       		.uleb128 0x5
 1352 038d 90030000 		.4byte	.LASF51
 1353 0391 14       		.byte	0x14
 1354 0392 07       		.byte	0x7
 1355 0393 5A       		.byte	0x5a
 1356 0394 DF030000 		.4byte	0x3df
 1357 0398 06       		.uleb128 0x6
 1358 0399 99010000 		.4byte	.LASF52
 1359 039d 07       		.byte	0x7
 1360 039e 5B       		.byte	0x5b
 1361 039f DF030000 		.4byte	0x3df
 1362 03a3 02       		.byte	0x2
 1363 03a4 23       		.byte	0x23
 1364 03a5 00       		.uleb128 0
 1365 03a6 06       		.uleb128 0x6
 1366 03a7 6B010000 		.4byte	.LASF53
 1367 03ab 07       		.byte	0x7
 1368 03ac 5D       		.byte	0x5d
 1369 03ad DF030000 		.4byte	0x3df
 1370 03b1 02       		.byte	0x2
 1371 03b2 23       		.byte	0x23
 1372 03b3 04       		.uleb128 0x4
 1373 03b4 06       		.uleb128 0x6
 1374 03b5 5B020000 		.4byte	.LASF54
 1375 03b9 07       		.byte	0x7
 1376 03ba 5F       		.byte	0x5f
 1377 03bb EF000000 		.4byte	0xef
 1378 03bf 02       		.byte	0x2
 1379 03c0 23       		.byte	0x23
 1380 03c1 08       		.uleb128 0x8
 1381 03c2 06       		.uleb128 0x6
 1382 03c3 6A020000 		.4byte	.LASF55
 1383 03c7 07       		.byte	0x7
 1384 03c8 60       		.byte	0x60
 1385 03c9 64030000 		.4byte	0x364
 1386 03cd 02       		.byte	0x2
 1387 03ce 23       		.byte	0x23
 1388 03cf 0C       		.uleb128 0xc
 1389 03d0 06       		.uleb128 0x6
 1390 03d1 12040000 		.4byte	.LASF56
 1391 03d5 07       		.byte	0x7
 1392 03d6 62       		.byte	0x62
 1393 03d7 A6020000 		.4byte	0x2a6
 1394 03db 02       		.byte	0x2
 1395 03dc 23       		.byte	0x23
 1396 03dd 10       		.uleb128 0x10
 1397 03de 00       		.byte	0
 1398 03df 09       		.uleb128 0x9
 1399 03e0 04       		.byte	0x4
 1400 03e1 81030000 		.4byte	0x381
 1401 03e5 08       		.uleb128 0x8
ARM GAS  /tmp/ccx6PcDB.s 			page 26


 1402 03e6 10       		.byte	0x10
 1403 03e7 07       		.byte	0x7
 1404 03e8 6C       		.byte	0x6c
 1405 03e9 26040000 		.4byte	0x426
 1406 03ed 06       		.uleb128 0x6
 1407 03ee 99010000 		.4byte	.LASF52
 1408 03f2 07       		.byte	0x7
 1409 03f3 6D       		.byte	0x6d
 1410 03f4 DF030000 		.4byte	0x3df
 1411 03f8 02       		.byte	0x2
 1412 03f9 23       		.byte	0x23
 1413 03fa 00       		.uleb128 0
 1414 03fb 06       		.uleb128 0x6
 1415 03fc 6B010000 		.4byte	.LASF53
 1416 0400 07       		.byte	0x7
 1417 0401 6F       		.byte	0x6f
 1418 0402 DF030000 		.4byte	0x3df
 1419 0406 02       		.byte	0x2
 1420 0407 23       		.byte	0x23
 1421 0408 04       		.uleb128 0x4
 1422 0409 06       		.uleb128 0x6
 1423 040a 5B020000 		.4byte	.LASF54
 1424 040e 07       		.byte	0x7
 1425 040f 71       		.byte	0x71
 1426 0410 EF000000 		.4byte	0xef
 1427 0414 02       		.byte	0x2
 1428 0415 23       		.byte	0x23
 1429 0416 08       		.uleb128 0x8
 1430 0417 06       		.uleb128 0x6
 1431 0418 98040000 		.4byte	.LASF57
 1432 041c 07       		.byte	0x7
 1433 041d 72       		.byte	0x72
 1434 041e 26040000 		.4byte	0x426
 1435 0422 02       		.byte	0x2
 1436 0423 23       		.byte	0x23
 1437 0424 0C       		.uleb128 0xc
 1438 0425 00       		.byte	0
 1439 0426 0F       		.uleb128 0xf
 1440 0427 EF000000 		.4byte	0xef
 1441 042b 04       		.uleb128 0x4
 1442 042c A3040000 		.4byte	.LASF58
 1443 0430 07       		.byte	0x7
 1444 0431 73       		.byte	0x73
 1445 0432 E5030000 		.4byte	0x3e5
 1446 0436 08       		.uleb128 0x8
 1447 0437 1C       		.byte	0x1c
 1448 0438 08       		.byte	0x8
 1449 0439 57       		.byte	0x57
 1450 043a 93040000 		.4byte	0x493
 1451 043e 06       		.uleb128 0x6
 1452 043f 88030000 		.4byte	.LASF59
 1453 0443 08       		.byte	0x8
 1454 0444 58       		.byte	0x58
 1455 0445 6E020000 		.4byte	0x26e
 1456 0449 02       		.byte	0x2
 1457 044a 23       		.byte	0x23
 1458 044b 00       		.uleb128 0
ARM GAS  /tmp/ccx6PcDB.s 			page 27


 1459 044c 06       		.uleb128 0x6
 1460 044d 50030000 		.4byte	.LASF60
 1461 0451 08       		.byte	0x8
 1462 0452 59       		.byte	0x59
 1463 0453 CE000000 		.4byte	0xce
 1464 0457 02       		.byte	0x2
 1465 0458 23       		.byte	0x23
 1466 0459 08       		.uleb128 0x8
 1467 045a 06       		.uleb128 0x6
 1468 045b 98020000 		.4byte	.LASF61
 1469 045f 08       		.byte	0x8
 1470 0460 5B       		.byte	0x5b
 1471 0461 41030000 		.4byte	0x341
 1472 0465 02       		.byte	0x2
 1473 0466 23       		.byte	0x23
 1474 0467 0C       		.uleb128 0xc
 1475 0468 06       		.uleb128 0x6
 1476 0469 5A010000 		.4byte	.LASF62
 1477 046d 08       		.byte	0x8
 1478 046e 5E       		.byte	0x5e
 1479 046f 68020000 		.4byte	0x268
 1480 0473 02       		.byte	0x2
 1481 0474 23       		.byte	0x23
 1482 0475 10       		.uleb128 0x10
 1483 0476 06       		.uleb128 0x6
 1484 0477 B5020000 		.4byte	.LASF63
 1485 047b 08       		.byte	0x8
 1486 047c 5F       		.byte	0x5f
 1487 047d 68020000 		.4byte	0x268
 1488 0481 02       		.byte	0x2
 1489 0482 23       		.byte	0x23
 1490 0483 14       		.uleb128 0x14
 1491 0484 06       		.uleb128 0x6
 1492 0485 AB020000 		.4byte	.LASF64
 1493 0489 08       		.byte	0x8
 1494 048a 62       		.byte	0x62
 1495 048b 68020000 		.4byte	0x268
 1496 048f 02       		.byte	0x2
 1497 0490 23       		.byte	0x23
 1498 0491 18       		.uleb128 0x18
 1499 0492 00       		.byte	0
 1500 0493 04       		.uleb128 0x4
 1501 0494 20040000 		.4byte	.LASF65
 1502 0498 08       		.byte	0x8
 1503 0499 64       		.byte	0x64
 1504 049a 36040000 		.4byte	0x436
 1505 049e 05       		.uleb128 0x5
 1506 049f 4A020000 		.4byte	.LASF66
 1507 04a3 10       		.byte	0x10
 1508 04a4 09       		.byte	0x9
 1509 04a5 25       		.byte	0x25
 1510 04a6 D5040000 		.4byte	0x4d5
 1511 04aa 06       		.uleb128 0x6
 1512 04ab A6000000 		.4byte	.LASF67
 1513 04af 09       		.byte	0x9
 1514 04b0 26       		.byte	0x26
 1515 04b1 6E020000 		.4byte	0x26e
ARM GAS  /tmp/ccx6PcDB.s 			page 28


 1516 04b5 02       		.byte	0x2
 1517 04b6 23       		.byte	0x23
 1518 04b7 00       		.uleb128 0
 1519 04b8 06       		.uleb128 0x6
 1520 04b9 BC040000 		.4byte	.LASF68
 1521 04bd 09       		.byte	0x9
 1522 04be 28       		.byte	0x28
 1523 04bf 68020000 		.4byte	0x268
 1524 04c3 02       		.byte	0x2
 1525 04c4 23       		.byte	0x23
 1526 04c5 08       		.uleb128 0x8
 1527 04c6 06       		.uleb128 0x6
 1528 04c7 A2030000 		.4byte	.LASF69
 1529 04cb 09       		.byte	0x9
 1530 04cc 2A       		.byte	0x2a
 1531 04cd D5040000 		.4byte	0x4d5
 1532 04d1 02       		.byte	0x2
 1533 04d2 23       		.byte	0x23
 1534 04d3 0C       		.uleb128 0xc
 1535 04d4 00       		.byte	0
 1536 04d5 09       		.uleb128 0x9
 1537 04d6 04       		.byte	0x4
 1538 04d7 9E040000 		.4byte	0x49e
 1539 04db 04       		.uleb128 0x4
 1540 04dc 4A020000 		.4byte	.LASF66
 1541 04e0 09       		.byte	0x9
 1542 04e1 2C       		.byte	0x2c
 1543 04e2 9E040000 		.4byte	0x49e
 1544 04e6 10       		.uleb128 0x10
 1545 04e7 04       		.byte	0x4
 1546 04e8 05       		.byte	0x5
 1547 04e9 8F       		.byte	0x8f
 1548 04ea 1B050000 		.4byte	0x51b
 1549 04ee 11       		.uleb128 0x11
 1550 04ef 11000000 		.4byte	.LASF70
 1551 04f3 05       		.byte	0x5
 1552 04f4 96       		.byte	0x96
 1553 04f5 D9000000 		.4byte	0xd9
 1554 04f9 11       		.uleb128 0x11
 1555 04fa 5A000000 		.4byte	.LASF71
 1556 04fe 05       		.byte	0x5
 1557 04ff 9D       		.byte	0x9d
 1558 0500 D9000000 		.4byte	0xd9
 1559 0504 11       		.uleb128 0x11
 1560 0505 8A040000 		.4byte	.LASF72
 1561 0509 05       		.byte	0x5
 1562 050a A4       		.byte	0xa4
 1563 050b A6020000 		.4byte	0x2a6
 1564 050f 11       		.uleb128 0x11
 1565 0510 57030000 		.4byte	.LASF73
 1566 0514 05       		.byte	0x5
 1567 0515 AB       		.byte	0xab
 1568 0516 E4000000 		.4byte	0xe4
 1569 051a 00       		.byte	0
 1570 051b 09       		.uleb128 0x9
 1571 051c 04       		.byte	0x4
 1572 051d 21050000 		.4byte	0x521
ARM GAS  /tmp/ccx6PcDB.s 			page 29


 1573 0521 12       		.uleb128 0x12
 1574 0522 26050000 		.4byte	0x526
 1575 0526 03       		.uleb128 0x3
 1576 0527 01       		.byte	0x1
 1577 0528 08       		.byte	0x8
 1578 0529 9D030000 		.4byte	.LASF74
 1579 052d 09       		.uleb128 0x9
 1580 052e 04       		.byte	0x4
 1581 052f A8020000 		.4byte	0x2a8
 1582 0533 09       		.uleb128 0x9
 1583 0534 04       		.byte	0x4
 1584 0535 DB040000 		.4byte	0x4db
 1585 0539 08       		.uleb128 0x8
 1586 053a 10       		.byte	0x10
 1587 053b 0A       		.byte	0xa
 1588 053c 6A       		.byte	0x6a
 1589 053d 7A050000 		.4byte	0x57a
 1590 0541 06       		.uleb128 0x6
 1591 0542 73010000 		.4byte	.LASF75
 1592 0546 0A       		.byte	0xa
 1593 0547 6B       		.byte	0x6b
 1594 0548 EF000000 		.4byte	0xef
 1595 054c 02       		.byte	0x2
 1596 054d 23       		.byte	0x23
 1597 054e 00       		.uleb128 0
 1598 054f 06       		.uleb128 0x6
 1599 0550 44010000 		.4byte	.LASF76
 1600 0554 0A       		.byte	0xa
 1601 0555 6C       		.byte	0x6c
 1602 0556 68020000 		.4byte	0x268
 1603 055a 02       		.byte	0x2
 1604 055b 23       		.byte	0x23
 1605 055c 04       		.uleb128 0x4
 1606 055d 06       		.uleb128 0x6
 1607 055e C4040000 		.4byte	.LASF77
 1608 0562 0A       		.byte	0xa
 1609 0563 6D       		.byte	0x6d
 1610 0564 A6020000 		.4byte	0x2a6
 1611 0568 02       		.byte	0x2
 1612 0569 23       		.byte	0x23
 1613 056a 08       		.uleb128 0x8
 1614 056b 06       		.uleb128 0x6
 1615 056c 51000000 		.4byte	.LASF78
 1616 0570 0A       		.byte	0xa
 1617 0571 6E       		.byte	0x6e
 1618 0572 3E000000 		.4byte	0x3e
 1619 0576 02       		.byte	0x2
 1620 0577 23       		.byte	0x23
 1621 0578 0C       		.uleb128 0xc
 1622 0579 00       		.byte	0
 1623 057a 04       		.uleb128 0x4
 1624 057b 81020000 		.4byte	.LASF79
 1625 057f 0A       		.byte	0xa
 1626 0580 6F       		.byte	0x6f
 1627 0581 39050000 		.4byte	0x539
 1628 0585 13       		.uleb128 0x13
 1629 0586 0804     		.2byte	0x408
ARM GAS  /tmp/ccx6PcDB.s 			page 30


 1630 0588 0A       		.byte	0xa
 1631 0589 74       		.byte	0x74
 1632 058a B9050000 		.4byte	0x5b9
 1633 058e 06       		.uleb128 0x6
 1634 058f 52010000 		.4byte	.LASF80
 1635 0593 0A       		.byte	0xa
 1636 0594 75       		.byte	0x75
 1637 0595 30000000 		.4byte	0x30
 1638 0599 02       		.byte	0x2
 1639 059a 23       		.byte	0x23
 1640 059b 00       		.uleb128 0
 1641 059c 06       		.uleb128 0x6
 1642 059d 63020000 		.4byte	.LASF81
 1643 05a1 0A       		.byte	0xa
 1644 05a2 76       		.byte	0x76
 1645 05a3 B9050000 		.4byte	0x5b9
 1646 05a7 02       		.byte	0x2
 1647 05a8 23       		.byte	0x23
 1648 05a9 04       		.uleb128 0x4
 1649 05aa 06       		.uleb128 0x6
 1650 05ab E7020000 		.4byte	.LASF82
 1651 05af 0A       		.byte	0xa
 1652 05b0 78       		.byte	0x78
 1653 05b1 BF050000 		.4byte	0x5bf
 1654 05b5 02       		.byte	0x2
 1655 05b6 23       		.byte	0x23
 1656 05b7 08       		.uleb128 0x8
 1657 05b8 00       		.byte	0
 1658 05b9 09       		.uleb128 0x9
 1659 05ba 04       		.byte	0x4
 1660 05bb 7A050000 		.4byte	0x57a
 1661 05bf 14       		.uleb128 0x14
 1662 05c0 7A050000 		.4byte	0x57a
 1663 05c4 CF050000 		.4byte	0x5cf
 1664 05c8 15       		.uleb128 0x15
 1665 05c9 30000000 		.4byte	0x30
 1666 05cd 3F       		.byte	0x3f
 1667 05ce 00       		.byte	0
 1668 05cf 04       		.uleb128 0x4
 1669 05d0 3F000000 		.4byte	.LASF83
 1670 05d4 0A       		.byte	0xa
 1671 05d5 79       		.byte	0x79
 1672 05d6 85050000 		.4byte	0x585
 1673 05da 16       		.uleb128 0x16
 1674 05db 01       		.byte	0x1
 1675 05dc 06000000 		.4byte	.LASF105
 1676 05e0 01       		.byte	0x1
 1677 05e1 0801     		.2byte	0x108
 1678 05e3 01       		.byte	0x1
 1679 05e4 01       		.byte	0x1
 1680 05e5 F6050000 		.4byte	0x5f6
 1681 05e9 17       		.uleb128 0x17
 1682 05ea 6D736700 		.ascii	"msg\000"
 1683 05ee 01       		.byte	0x1
 1684 05ef 0801     		.2byte	0x108
 1685 05f1 1B050000 		.4byte	0x51b
 1686 05f5 00       		.byte	0
ARM GAS  /tmp/ccx6PcDB.s 			page 31


 1687 05f6 18       		.uleb128 0x18
 1688 05f7 01       		.byte	0x1
 1689 05f8 AA040000 		.4byte	.LASF84
 1690 05fc 01       		.byte	0x1
 1691 05fd 4A       		.byte	0x4a
 1692 05fe 01       		.byte	0x1
 1693 05ff 00000000 		.4byte	.LFB7
 1694 0603 28000000 		.4byte	.LFE7
 1695 0607 02       		.byte	0x2
 1696 0608 7D       		.byte	0x7d
 1697 0609 00       		.sleb128 0
 1698 060a 28060000 		.4byte	0x628
 1699 060e 19       		.uleb128 0x19
 1700 060f DA050000 		.4byte	0x5da
 1701 0613 0C000000 		.4byte	.LBB28
 1702 0617 00000000 		.4byte	.Ldebug_ranges0+0
 1703 061b 01       		.byte	0x1
 1704 061c 4D       		.byte	0x4d
 1705 061d 1A       		.uleb128 0x1a
 1706 061e E9050000 		.4byte	0x5e9
 1707 0622 00000000 		.4byte	.LLST0
 1708 0626 00       		.byte	0
 1709 0627 00       		.byte	0
 1710 0628 18       		.uleb128 0x18
 1711 0629 01       		.byte	0x1
 1712 062a BD010000 		.4byte	.LASF85
 1713 062e 01       		.byte	0x1
 1714 062f 55       		.byte	0x55
 1715 0630 01       		.byte	0x1
 1716 0631 00000000 		.4byte	.LFB8
 1717 0635 28000000 		.4byte	.LFE8
 1718 0639 02       		.byte	0x2
 1719 063a 7D       		.byte	0x7d
 1720 063b 00       		.sleb128 0
 1721 063c 5A060000 		.4byte	0x65a
 1722 0640 19       		.uleb128 0x19
 1723 0641 DA050000 		.4byte	0x5da
 1724 0645 0C000000 		.4byte	.LBB32
 1725 0649 18000000 		.4byte	.Ldebug_ranges0+0x18
 1726 064d 01       		.byte	0x1
 1727 064e 58       		.byte	0x58
 1728 064f 1A       		.uleb128 0x1a
 1729 0650 E9050000 		.4byte	0x5e9
 1730 0654 18000000 		.4byte	.LLST1
 1731 0658 00       		.byte	0
 1732 0659 00       		.byte	0
 1733 065a 18       		.uleb128 0x18
 1734 065b 01       		.byte	0x1
 1735 065c 01040000 		.4byte	.LASF86
 1736 0660 01       		.byte	0x1
 1737 0661 60       		.byte	0x60
 1738 0662 01       		.byte	0x1
 1739 0663 00000000 		.4byte	.LFB9
 1740 0667 28000000 		.4byte	.LFE9
 1741 066b 02       		.byte	0x2
 1742 066c 7D       		.byte	0x7d
 1743 066d 00       		.sleb128 0
ARM GAS  /tmp/ccx6PcDB.s 			page 32


 1744 066e 8C060000 		.4byte	0x68c
 1745 0672 19       		.uleb128 0x19
 1746 0673 DA050000 		.4byte	0x5da
 1747 0677 0C000000 		.4byte	.LBB36
 1748 067b 30000000 		.4byte	.Ldebug_ranges0+0x30
 1749 067f 01       		.byte	0x1
 1750 0680 63       		.byte	0x63
 1751 0681 1A       		.uleb128 0x1a
 1752 0682 E9050000 		.4byte	0x5e9
 1753 0686 30000000 		.4byte	.LLST2
 1754 068a 00       		.byte	0
 1755 068b 00       		.byte	0
 1756 068c 1B       		.uleb128 0x1b
 1757 068d 01       		.byte	0x1
 1758 068e 72020000 		.4byte	.LASF87
 1759 0692 01       		.byte	0x1
 1760 0693 6B       		.byte	0x6b
 1761 0694 01       		.byte	0x1
 1762 0695 00000000 		.4byte	.LFB10
 1763 0699 30000000 		.4byte	.LFE10
 1764 069d 48000000 		.4byte	.LLST3
 1765 06a1 BF060000 		.4byte	0x6bf
 1766 06a5 1C       		.uleb128 0x1c
 1767 06a6 DA050000 		.4byte	0x5da
 1768 06aa 0E000000 		.4byte	.LBB40
 1769 06ae 18000000 		.4byte	.LBE40
 1770 06b2 01       		.byte	0x1
 1771 06b3 6E       		.byte	0x6e
 1772 06b4 1A       		.uleb128 0x1a
 1773 06b5 E9050000 		.4byte	0x5e9
 1774 06b9 68000000 		.4byte	.LLST4
 1775 06bd 00       		.byte	0
 1776 06be 00       		.byte	0
 1777 06bf 1B       		.uleb128 0x1b
 1778 06c0 01       		.byte	0x1
 1779 06c1 BD020000 		.4byte	.LASF88
 1780 06c5 01       		.byte	0x1
 1781 06c6 77       		.byte	0x77
 1782 06c7 01       		.byte	0x1
 1783 06c8 00000000 		.4byte	.LFB11
 1784 06cc 38000000 		.4byte	.LFE11
 1785 06d0 80000000 		.4byte	.LLST5
 1786 06d4 F5060000 		.4byte	0x6f5
 1787 06d8 1C       		.uleb128 0x1c
 1788 06d9 DA050000 		.4byte	0x5da
 1789 06dd 16000000 		.4byte	.LBB42
 1790 06e1 20000000 		.4byte	.LBE42
 1791 06e5 01       		.byte	0x1
 1792 06e6 7A       		.byte	0x7a
 1793 06e7 1D       		.uleb128 0x1d
 1794 06e8 E9050000 		.4byte	0x5e9
 1795 06ec 06       		.byte	0x6
 1796 06ed 03       		.byte	0x3
 1797 06ee 20000000 		.4byte	.LC4
 1798 06f2 9F       		.byte	0x9f
 1799 06f3 00       		.byte	0
 1800 06f4 00       		.byte	0
ARM GAS  /tmp/ccx6PcDB.s 			page 33


 1801 06f5 1B       		.uleb128 0x1b
 1802 06f6 01       		.byte	0x1
 1803 06f7 72040000 		.4byte	.LASF89
 1804 06fb 01       		.byte	0x1
 1805 06fc 83       		.byte	0x83
 1806 06fd 01       		.byte	0x1
 1807 06fe 00000000 		.4byte	.LFB12
 1808 0702 30000000 		.4byte	.LFE12
 1809 0706 A0000000 		.4byte	.LLST6
 1810 070a 28070000 		.4byte	0x728
 1811 070e 1C       		.uleb128 0x1c
 1812 070f DA050000 		.4byte	0x5da
 1813 0713 10000000 		.4byte	.LBB44
 1814 0717 1A000000 		.4byte	.LBE44
 1815 071b 01       		.byte	0x1
 1816 071c 86       		.byte	0x86
 1817 071d 1A       		.uleb128 0x1a
 1818 071e E9050000 		.4byte	0x5e9
 1819 0722 C0000000 		.4byte	.LLST7
 1820 0726 00       		.byte	0
 1821 0727 00       		.byte	0
 1822 0728 1B       		.uleb128 0x1b
 1823 0729 01       		.byte	0x1
 1824 072a 84000000 		.4byte	.LASF90
 1825 072e 01       		.byte	0x1
 1826 072f 8F       		.byte	0x8f
 1827 0730 01       		.byte	0x1
 1828 0731 00000000 		.4byte	.LFB13
 1829 0735 38000000 		.4byte	.LFE13
 1830 0739 D8000000 		.4byte	.LLST8
 1831 073d 5E070000 		.4byte	0x75e
 1832 0741 1C       		.uleb128 0x1c
 1833 0742 DA050000 		.4byte	0x5da
 1834 0746 18000000 		.4byte	.LBB46
 1835 074a 22000000 		.4byte	.LBE46
 1836 074e 01       		.byte	0x1
 1837 074f 92       		.byte	0x92
 1838 0750 1D       		.uleb128 0x1d
 1839 0751 E9050000 		.4byte	0x5e9
 1840 0755 06       		.byte	0x6
 1841 0756 03       		.byte	0x3
 1842 0757 30000000 		.4byte	.LC6
 1843 075b 9F       		.byte	0x9f
 1844 075c 00       		.byte	0
 1845 075d 00       		.byte	0
 1846 075e 1B       		.uleb128 0x1b
 1847 075f 01       		.byte	0x1
 1848 0760 2A040000 		.4byte	.LASF91
 1849 0764 01       		.byte	0x1
 1850 0765 9B       		.byte	0x9b
 1851 0766 01       		.byte	0x1
 1852 0767 00000000 		.4byte	.LFB14
 1853 076b 40000000 		.4byte	.LFE14
 1854 076f F8000000 		.4byte	.LLST9
 1855 0773 CB070000 		.4byte	0x7cb
 1856 0777 1E       		.uleb128 0x1e
 1857 0778 02000000 		.4byte	.LBB48
ARM GAS  /tmp/ccx6PcDB.s 			page 34


 1858 077c 08000000 		.4byte	.LBE48
 1859 0780 94070000 		.4byte	0x794
 1860 0784 1F       		.uleb128 0x1f
 1861 0785 746D7000 		.ascii	"tmp\000"
 1862 0789 01       		.byte	0x1
 1863 078a 9D       		.byte	0x9d
 1864 078b 70000000 		.4byte	0x70
 1865 078f 18010000 		.4byte	.LLST10
 1866 0793 00       		.byte	0
 1867 0794 20       		.uleb128 0x20
 1868 0795 DA050000 		.4byte	0x5da
 1869 0799 16000000 		.4byte	.LBB49
 1870 079d 22000000 		.4byte	.LBE49
 1871 07a1 01       		.byte	0x1
 1872 07a2 9F       		.byte	0x9f
 1873 07a3 B1070000 		.4byte	0x7b1
 1874 07a7 1A       		.uleb128 0x1a
 1875 07a8 E9050000 		.4byte	0x5e9
 1876 07ac 2B010000 		.4byte	.LLST11
 1877 07b0 00       		.byte	0
 1878 07b1 21       		.uleb128 0x21
 1879 07b2 26000000 		.4byte	.LBB51
 1880 07b6 2C000000 		.4byte	.LBE51
 1881 07ba 1F       		.uleb128 0x1f
 1882 07bb 746D7000 		.ascii	"tmp\000"
 1883 07bf 01       		.byte	0x1
 1884 07c0 A1       		.byte	0xa1
 1885 07c1 70000000 		.4byte	0x70
 1886 07c5 43010000 		.4byte	.LLST12
 1887 07c9 00       		.byte	0
 1888 07ca 00       		.byte	0
 1889 07cb 1B       		.uleb128 0x1b
 1890 07cc 01       		.byte	0x1
 1891 07cd DB030000 		.4byte	.LASF92
 1892 07d1 01       		.byte	0x1
 1893 07d2 A9       		.byte	0xa9
 1894 07d3 01       		.byte	0x1
 1895 07d4 00000000 		.4byte	.LFB15
 1896 07d8 40000000 		.4byte	.LFE15
 1897 07dc 56010000 		.4byte	.LLST13
 1898 07e0 38080000 		.4byte	0x838
 1899 07e4 1E       		.uleb128 0x1e
 1900 07e5 02000000 		.4byte	.LBB52
 1901 07e9 08000000 		.4byte	.LBE52
 1902 07ed 01080000 		.4byte	0x801
 1903 07f1 1F       		.uleb128 0x1f
 1904 07f2 746D7000 		.ascii	"tmp\000"
 1905 07f6 01       		.byte	0x1
 1906 07f7 AB       		.byte	0xab
 1907 07f8 70000000 		.4byte	0x70
 1908 07fc 76010000 		.4byte	.LLST14
 1909 0800 00       		.byte	0
 1910 0801 20       		.uleb128 0x20
 1911 0802 DA050000 		.4byte	0x5da
 1912 0806 16000000 		.4byte	.LBB53
 1913 080a 22000000 		.4byte	.LBE53
 1914 080e 01       		.byte	0x1
ARM GAS  /tmp/ccx6PcDB.s 			page 35


 1915 080f AD       		.byte	0xad
 1916 0810 1E080000 		.4byte	0x81e
 1917 0814 1A       		.uleb128 0x1a
 1918 0815 E9050000 		.4byte	0x5e9
 1919 0819 89010000 		.4byte	.LLST15
 1920 081d 00       		.byte	0
 1921 081e 21       		.uleb128 0x21
 1922 081f 26000000 		.4byte	.LBB55
 1923 0823 2C000000 		.4byte	.LBE55
 1924 0827 1F       		.uleb128 0x1f
 1925 0828 746D7000 		.ascii	"tmp\000"
 1926 082c 01       		.byte	0x1
 1927 082d AF       		.byte	0xaf
 1928 082e 70000000 		.4byte	0x70
 1929 0832 A1010000 		.4byte	.LLST16
 1930 0836 00       		.byte	0
 1931 0837 00       		.byte	0
 1932 0838 18       		.uleb128 0x18
 1933 0839 01       		.byte	0x1
 1934 083a FC010000 		.4byte	.LASF93
 1935 083e 01       		.byte	0x1
 1936 083f BA       		.byte	0xba
 1937 0840 01       		.byte	0x1
 1938 0841 00000000 		.4byte	.LFB16
 1939 0845 2C000000 		.4byte	.LFE16
 1940 0849 02       		.byte	0x2
 1941 084a 7D       		.byte	0x7d
 1942 084b 00       		.sleb128 0
 1943 084c 6D080000 		.4byte	0x86d
 1944 0850 19       		.uleb128 0x19
 1945 0851 DA050000 		.4byte	0x5da
 1946 0855 12000000 		.4byte	.LBB56
 1947 0859 48000000 		.4byte	.Ldebug_ranges0+0x48
 1948 085d 01       		.byte	0x1
 1949 085e BD       		.byte	0xbd
 1950 085f 1D       		.uleb128 0x1d
 1951 0860 E9050000 		.4byte	0x5e9
 1952 0864 06       		.byte	0x6
 1953 0865 03       		.byte	0x3
 1954 0866 48000000 		.4byte	.LC9
 1955 086a 9F       		.byte	0x9f
 1956 086b 00       		.byte	0
 1957 086c 00       		.byte	0
 1958 086d 18       		.uleb128 0x18
 1959 086e 01       		.byte	0x1
 1960 086f 21020000 		.4byte	.LASF94
 1961 0873 01       		.byte	0x1
 1962 0874 C8       		.byte	0xc8
 1963 0875 01       		.byte	0x1
 1964 0876 00000000 		.4byte	.LFB17
 1965 087a 2C000000 		.4byte	.LFE17
 1966 087e 02       		.byte	0x2
 1967 087f 7D       		.byte	0x7d
 1968 0880 00       		.sleb128 0
 1969 0881 A2080000 		.4byte	0x8a2
 1970 0885 19       		.uleb128 0x19
 1971 0886 DA050000 		.4byte	0x5da
ARM GAS  /tmp/ccx6PcDB.s 			page 36


 1972 088a 10000000 		.4byte	.LBB60
 1973 088e 60000000 		.4byte	.Ldebug_ranges0+0x60
 1974 0892 01       		.byte	0x1
 1975 0893 CB       		.byte	0xcb
 1976 0894 1D       		.uleb128 0x1d
 1977 0895 E9050000 		.4byte	0x5e9
 1978 0899 06       		.byte	0x6
 1979 089a 03       		.byte	0x3
 1980 089b 50000000 		.4byte	.LC10
 1981 089f 9F       		.byte	0x9f
 1982 08a0 00       		.byte	0
 1983 08a1 00       		.byte	0
 1984 08a2 22       		.uleb128 0x22
 1985 08a3 01       		.byte	0x1
 1986 08a4 EA010000 		.4byte	.LASF106
 1987 08a8 01       		.byte	0x1
 1988 08a9 DE       		.byte	0xde
 1989 08aa 01       		.byte	0x1
 1990 08ab 00000000 		.4byte	.LFB18
 1991 08af 14000000 		.4byte	.LFE18
 1992 08b3 02       		.byte	0x2
 1993 08b4 7D       		.byte	0x7d
 1994 08b5 00       		.sleb128 0
 1995 08b6 1B       		.uleb128 0x1b
 1996 08b7 01       		.byte	0x1
 1997 08b8 A1010000 		.4byte	.LASF95
 1998 08bc 01       		.byte	0x1
 1999 08bd EB       		.byte	0xeb
 2000 08be 01       		.byte	0x1
 2001 08bf 00000000 		.4byte	.LFB19
 2002 08c3 44000000 		.4byte	.LFE19
 2003 08c7 B4010000 		.4byte	.LLST17
 2004 08cb DF080000 		.4byte	0x8df
 2005 08cf 23       		.uleb128 0x23
 2006 08d0 6F747000 		.ascii	"otp\000"
 2007 08d4 01       		.byte	0x1
 2008 08d5 EB       		.byte	0xeb
 2009 08d6 68020000 		.4byte	0x268
 2010 08da D4010000 		.4byte	.LLST18
 2011 08de 00       		.byte	0
 2012 08df 24       		.uleb128 0x24
 2013 08e0 DA050000 		.4byte	0x5da
 2014 08e4 00000000 		.4byte	.LFB20
 2015 08e8 0E000000 		.4byte	.LFE20
 2016 08ec 02       		.byte	0x2
 2017 08ed 7D       		.byte	0x7d
 2018 08ee 00       		.sleb128 0
 2019 08ef FD080000 		.4byte	0x8fd
 2020 08f3 1A       		.uleb128 0x1a
 2021 08f4 E9050000 		.4byte	0x5e9
 2022 08f8 E7010000 		.4byte	.LLST19
 2023 08fc 00       		.byte	0
 2024 08fd 25       		.uleb128 0x25
 2025 08fe 21000000 		.4byte	.LASF96
 2026 0902 07       		.byte	0x7
 2027 0903 D1       		.byte	0xd1
 2028 0904 2B040000 		.4byte	0x42b
ARM GAS  /tmp/ccx6PcDB.s 			page 37


 2029 0908 01       		.byte	0x1
 2030 0909 01       		.byte	0x1
 2031 090a 25       		.uleb128 0x25
 2032 090b 3E040000 		.4byte	.LASF97
 2033 090f 08       		.byte	0x8
 2034 0910 68       		.byte	0x68
 2035 0911 93040000 		.4byte	0x493
 2036 0915 01       		.byte	0x1
 2037 0916 01       		.byte	0x1
 2038 0917 25       		.uleb128 0x25
 2039 0918 CE020000 		.4byte	.LASF98
 2040 091c 0A       		.byte	0xa
 2041 091d 7C       		.byte	0x7c
 2042 091e CF050000 		.4byte	0x5cf
 2043 0922 01       		.byte	0x1
 2044 0923 01       		.byte	0x1
 2045 0924 25       		.uleb128 0x25
 2046 0925 15020000 		.4byte	.LASF99
 2047 0929 0A       		.byte	0xa
 2048 092a DB       		.byte	0xdb
 2049 092b FA000000 		.4byte	0xfa
 2050 092f 01       		.byte	0x1
 2051 0930 01       		.byte	0x1
 2052 0931 25       		.uleb128 0x25
 2053 0932 C7030000 		.4byte	.LASF100
 2054 0936 0A       		.byte	0xa
 2055 0937 DC       		.byte	0xdc
 2056 0938 FA000000 		.4byte	0xfa
 2057 093c 01       		.byte	0x1
 2058 093d 01       		.byte	0x1
 2059 093e 25       		.uleb128 0x25
 2060 093f 1C030000 		.4byte	.LASF101
 2061 0943 0A       		.byte	0xa
 2062 0944 EE       		.byte	0xee
 2063 0945 1B050000 		.4byte	0x51b
 2064 0949 01       		.byte	0x1
 2065 094a 01       		.byte	0x1
 2066 094b 25       		.uleb128 0x25
 2067 094c 21000000 		.4byte	.LASF96
 2068 0950 07       		.byte	0x7
 2069 0951 D1       		.byte	0xd1
 2070 0952 2B040000 		.4byte	0x42b
 2071 0956 01       		.byte	0x1
 2072 0957 01       		.byte	0x1
 2073 0958 25       		.uleb128 0x25
 2074 0959 3E040000 		.4byte	.LASF97
 2075 095d 08       		.byte	0x8
 2076 095e 68       		.byte	0x68
 2077 095f 93040000 		.4byte	0x493
 2078 0963 01       		.byte	0x1
 2079 0964 01       		.byte	0x1
 2080 0965 26       		.uleb128 0x26
 2081 0966 CE020000 		.4byte	.LASF98
 2082 096a 01       		.byte	0x1
 2083 096b D8       		.byte	0xd8
 2084 096c CF050000 		.4byte	0x5cf
 2085 0970 01       		.byte	0x1
ARM GAS  /tmp/ccx6PcDB.s 			page 38


 2086 0971 05       		.byte	0x5
 2087 0972 03       		.byte	0x3
 2088 0973 00000000 		.4byte	dbg_trace_buffer
 2089 0977 26       		.uleb128 0x26
 2090 0978 15020000 		.4byte	.LASF99
 2091 097c 01       		.byte	0x1
 2092 097d 3E       		.byte	0x3e
 2093 097e FA000000 		.4byte	0xfa
 2094 0982 01       		.byte	0x1
 2095 0983 05       		.byte	0x5
 2096 0984 03       		.byte	0x3
 2097 0985 00000000 		.4byte	dbg_isr_cnt
 2098 0989 26       		.uleb128 0x26
 2099 098a C7030000 		.4byte	.LASF100
 2100 098e 01       		.byte	0x1
 2101 098f 43       		.byte	0x43
 2102 0990 FA000000 		.4byte	0xfa
 2103 0994 01       		.byte	0x1
 2104 0995 05       		.byte	0x5
 2105 0996 03       		.byte	0x3
 2106 0997 00000000 		.4byte	dbg_lock_cnt
 2107 099b 27       		.uleb128 0x27
 2108 099c 1C030000 		.4byte	.LASF101
 2109 09a0 01       		.byte	0x1
 2110 09a1 0101     		.2byte	0x101
 2111 09a3 1B050000 		.4byte	0x51b
 2112 09a7 01       		.byte	0x1
 2113 09a8 05       		.byte	0x5
 2114 09a9 03       		.byte	0x3
 2115 09aa 00000000 		.4byte	dbg_panic_msg
 2116 09ae 00       		.byte	0
 2117              		.section	.debug_abbrev,"",%progbits
 2118              	.Ldebug_abbrev0:
 2119 0000 01       		.uleb128 0x1
 2120 0001 11       		.uleb128 0x11
 2121 0002 01       		.byte	0x1
 2122 0003 25       		.uleb128 0x25
 2123 0004 0E       		.uleb128 0xe
 2124 0005 13       		.uleb128 0x13
 2125 0006 0B       		.uleb128 0xb
 2126 0007 03       		.uleb128 0x3
 2127 0008 0E       		.uleb128 0xe
 2128 0009 1B       		.uleb128 0x1b
 2129 000a 0E       		.uleb128 0xe
 2130 000b 11       		.uleb128 0x11
 2131 000c 01       		.uleb128 0x1
 2132 000d 52       		.uleb128 0x52
 2133 000e 01       		.uleb128 0x1
 2134 000f 55       		.uleb128 0x55
 2135 0010 06       		.uleb128 0x6
 2136 0011 10       		.uleb128 0x10
 2137 0012 06       		.uleb128 0x6
 2138 0013 00       		.byte	0
 2139 0014 00       		.byte	0
 2140 0015 02       		.uleb128 0x2
 2141 0016 24       		.uleb128 0x24
 2142 0017 00       		.byte	0
ARM GAS  /tmp/ccx6PcDB.s 			page 39


 2143 0018 0B       		.uleb128 0xb
 2144 0019 0B       		.uleb128 0xb
 2145 001a 3E       		.uleb128 0x3e
 2146 001b 0B       		.uleb128 0xb
 2147 001c 03       		.uleb128 0x3
 2148 001d 08       		.uleb128 0x8
 2149 001e 00       		.byte	0
 2150 001f 00       		.byte	0
 2151 0020 03       		.uleb128 0x3
 2152 0021 24       		.uleb128 0x24
 2153 0022 00       		.byte	0
 2154 0023 0B       		.uleb128 0xb
 2155 0024 0B       		.uleb128 0xb
 2156 0025 3E       		.uleb128 0x3e
 2157 0026 0B       		.uleb128 0xb
 2158 0027 03       		.uleb128 0x3
 2159 0028 0E       		.uleb128 0xe
 2160 0029 00       		.byte	0
 2161 002a 00       		.byte	0
 2162 002b 04       		.uleb128 0x4
 2163 002c 16       		.uleb128 0x16
 2164 002d 00       		.byte	0
 2165 002e 03       		.uleb128 0x3
 2166 002f 0E       		.uleb128 0xe
 2167 0030 3A       		.uleb128 0x3a
 2168 0031 0B       		.uleb128 0xb
 2169 0032 3B       		.uleb128 0x3b
 2170 0033 0B       		.uleb128 0xb
 2171 0034 49       		.uleb128 0x49
 2172 0035 13       		.uleb128 0x13
 2173 0036 00       		.byte	0
 2174 0037 00       		.byte	0
 2175 0038 05       		.uleb128 0x5
 2176 0039 13       		.uleb128 0x13
 2177 003a 01       		.byte	0x1
 2178 003b 03       		.uleb128 0x3
 2179 003c 0E       		.uleb128 0xe
 2180 003d 0B       		.uleb128 0xb
 2181 003e 0B       		.uleb128 0xb
 2182 003f 3A       		.uleb128 0x3a
 2183 0040 0B       		.uleb128 0xb
 2184 0041 3B       		.uleb128 0x3b
 2185 0042 0B       		.uleb128 0xb
 2186 0043 01       		.uleb128 0x1
 2187 0044 13       		.uleb128 0x13
 2188 0045 00       		.byte	0
 2189 0046 00       		.byte	0
 2190 0047 06       		.uleb128 0x6
 2191 0048 0D       		.uleb128 0xd
 2192 0049 00       		.byte	0
 2193 004a 03       		.uleb128 0x3
 2194 004b 0E       		.uleb128 0xe
 2195 004c 3A       		.uleb128 0x3a
 2196 004d 0B       		.uleb128 0xb
 2197 004e 3B       		.uleb128 0x3b
 2198 004f 0B       		.uleb128 0xb
 2199 0050 49       		.uleb128 0x49
ARM GAS  /tmp/ccx6PcDB.s 			page 40


 2200 0051 13       		.uleb128 0x13
 2201 0052 38       		.uleb128 0x38
 2202 0053 0A       		.uleb128 0xa
 2203 0054 00       		.byte	0
 2204 0055 00       		.byte	0
 2205 0056 07       		.uleb128 0x7
 2206 0057 0D       		.uleb128 0xd
 2207 0058 00       		.byte	0
 2208 0059 03       		.uleb128 0x3
 2209 005a 08       		.uleb128 0x8
 2210 005b 3A       		.uleb128 0x3a
 2211 005c 0B       		.uleb128 0xb
 2212 005d 3B       		.uleb128 0x3b
 2213 005e 0B       		.uleb128 0xb
 2214 005f 49       		.uleb128 0x49
 2215 0060 13       		.uleb128 0x13
 2216 0061 38       		.uleb128 0x38
 2217 0062 0A       		.uleb128 0xa
 2218 0063 00       		.byte	0
 2219 0064 00       		.byte	0
 2220 0065 08       		.uleb128 0x8
 2221 0066 13       		.uleb128 0x13
 2222 0067 01       		.byte	0x1
 2223 0068 0B       		.uleb128 0xb
 2224 0069 0B       		.uleb128 0xb
 2225 006a 3A       		.uleb128 0x3a
 2226 006b 0B       		.uleb128 0xb
 2227 006c 3B       		.uleb128 0x3b
 2228 006d 0B       		.uleb128 0xb
 2229 006e 01       		.uleb128 0x1
 2230 006f 13       		.uleb128 0x13
 2231 0070 00       		.byte	0
 2232 0071 00       		.byte	0
 2233 0072 09       		.uleb128 0x9
 2234 0073 0F       		.uleb128 0xf
 2235 0074 00       		.byte	0
 2236 0075 0B       		.uleb128 0xb
 2237 0076 0B       		.uleb128 0xb
 2238 0077 49       		.uleb128 0x49
 2239 0078 13       		.uleb128 0x13
 2240 0079 00       		.byte	0
 2241 007a 00       		.byte	0
 2242 007b 0A       		.uleb128 0xa
 2243 007c 0F       		.uleb128 0xf
 2244 007d 00       		.byte	0
 2245 007e 0B       		.uleb128 0xb
 2246 007f 0B       		.uleb128 0xb
 2247 0080 00       		.byte	0
 2248 0081 00       		.byte	0
 2249 0082 0B       		.uleb128 0xb
 2250 0083 13       		.uleb128 0x13
 2251 0084 01       		.byte	0x1
 2252 0085 03       		.uleb128 0x3
 2253 0086 0E       		.uleb128 0xe
 2254 0087 0B       		.uleb128 0xb
 2255 0088 0B       		.uleb128 0xb
 2256 0089 3A       		.uleb128 0x3a
ARM GAS  /tmp/ccx6PcDB.s 			page 41


 2257 008a 0B       		.uleb128 0xb
 2258 008b 3B       		.uleb128 0x3b
 2259 008c 05       		.uleb128 0x5
 2260 008d 01       		.uleb128 0x1
 2261 008e 13       		.uleb128 0x13
 2262 008f 00       		.byte	0
 2263 0090 00       		.byte	0
 2264 0091 0C       		.uleb128 0xc
 2265 0092 0D       		.uleb128 0xd
 2266 0093 00       		.byte	0
 2267 0094 03       		.uleb128 0x3
 2268 0095 08       		.uleb128 0x8
 2269 0096 3A       		.uleb128 0x3a
 2270 0097 0B       		.uleb128 0xb
 2271 0098 3B       		.uleb128 0x3b
 2272 0099 05       		.uleb128 0x5
 2273 009a 49       		.uleb128 0x49
 2274 009b 13       		.uleb128 0x13
 2275 009c 38       		.uleb128 0x38
 2276 009d 0A       		.uleb128 0xa
 2277 009e 00       		.byte	0
 2278 009f 00       		.byte	0
 2279 00a0 0D       		.uleb128 0xd
 2280 00a1 15       		.uleb128 0x15
 2281 00a2 01       		.byte	0x1
 2282 00a3 27       		.uleb128 0x27
 2283 00a4 0C       		.uleb128 0xc
 2284 00a5 01       		.uleb128 0x1
 2285 00a6 13       		.uleb128 0x13
 2286 00a7 00       		.byte	0
 2287 00a8 00       		.byte	0
 2288 00a9 0E       		.uleb128 0xe
 2289 00aa 05       		.uleb128 0x5
 2290 00ab 00       		.byte	0
 2291 00ac 49       		.uleb128 0x49
 2292 00ad 13       		.uleb128 0x13
 2293 00ae 00       		.byte	0
 2294 00af 00       		.byte	0
 2295 00b0 0F       		.uleb128 0xf
 2296 00b1 35       		.uleb128 0x35
 2297 00b2 00       		.byte	0
 2298 00b3 49       		.uleb128 0x49
 2299 00b4 13       		.uleb128 0x13
 2300 00b5 00       		.byte	0
 2301 00b6 00       		.byte	0
 2302 00b7 10       		.uleb128 0x10
 2303 00b8 17       		.uleb128 0x17
 2304 00b9 01       		.byte	0x1
 2305 00ba 0B       		.uleb128 0xb
 2306 00bb 0B       		.uleb128 0xb
 2307 00bc 3A       		.uleb128 0x3a
 2308 00bd 0B       		.uleb128 0xb
 2309 00be 3B       		.uleb128 0x3b
 2310 00bf 0B       		.uleb128 0xb
 2311 00c0 01       		.uleb128 0x1
 2312 00c1 13       		.uleb128 0x13
 2313 00c2 00       		.byte	0
ARM GAS  /tmp/ccx6PcDB.s 			page 42


 2314 00c3 00       		.byte	0
 2315 00c4 11       		.uleb128 0x11
 2316 00c5 0D       		.uleb128 0xd
 2317 00c6 00       		.byte	0
 2318 00c7 03       		.uleb128 0x3
 2319 00c8 0E       		.uleb128 0xe
 2320 00c9 3A       		.uleb128 0x3a
 2321 00ca 0B       		.uleb128 0xb
 2322 00cb 3B       		.uleb128 0x3b
 2323 00cc 0B       		.uleb128 0xb
 2324 00cd 49       		.uleb128 0x49
 2325 00ce 13       		.uleb128 0x13
 2326 00cf 00       		.byte	0
 2327 00d0 00       		.byte	0
 2328 00d1 12       		.uleb128 0x12
 2329 00d2 26       		.uleb128 0x26
 2330 00d3 00       		.byte	0
 2331 00d4 49       		.uleb128 0x49
 2332 00d5 13       		.uleb128 0x13
 2333 00d6 00       		.byte	0
 2334 00d7 00       		.byte	0
 2335 00d8 13       		.uleb128 0x13
 2336 00d9 13       		.uleb128 0x13
 2337 00da 01       		.byte	0x1
 2338 00db 0B       		.uleb128 0xb
 2339 00dc 05       		.uleb128 0x5
 2340 00dd 3A       		.uleb128 0x3a
 2341 00de 0B       		.uleb128 0xb
 2342 00df 3B       		.uleb128 0x3b
 2343 00e0 0B       		.uleb128 0xb
 2344 00e1 01       		.uleb128 0x1
 2345 00e2 13       		.uleb128 0x13
 2346 00e3 00       		.byte	0
 2347 00e4 00       		.byte	0
 2348 00e5 14       		.uleb128 0x14
 2349 00e6 01       		.uleb128 0x1
 2350 00e7 01       		.byte	0x1
 2351 00e8 49       		.uleb128 0x49
 2352 00e9 13       		.uleb128 0x13
 2353 00ea 01       		.uleb128 0x1
 2354 00eb 13       		.uleb128 0x13
 2355 00ec 00       		.byte	0
 2356 00ed 00       		.byte	0
 2357 00ee 15       		.uleb128 0x15
 2358 00ef 21       		.uleb128 0x21
 2359 00f0 00       		.byte	0
 2360 00f1 49       		.uleb128 0x49
 2361 00f2 13       		.uleb128 0x13
 2362 00f3 2F       		.uleb128 0x2f
 2363 00f4 0B       		.uleb128 0xb
 2364 00f5 00       		.byte	0
 2365 00f6 00       		.byte	0
 2366 00f7 16       		.uleb128 0x16
 2367 00f8 2E       		.uleb128 0x2e
 2368 00f9 01       		.byte	0x1
 2369 00fa 3F       		.uleb128 0x3f
 2370 00fb 0C       		.uleb128 0xc
ARM GAS  /tmp/ccx6PcDB.s 			page 43


 2371 00fc 03       		.uleb128 0x3
 2372 00fd 0E       		.uleb128 0xe
 2373 00fe 3A       		.uleb128 0x3a
 2374 00ff 0B       		.uleb128 0xb
 2375 0100 3B       		.uleb128 0x3b
 2376 0101 05       		.uleb128 0x5
 2377 0102 27       		.uleb128 0x27
 2378 0103 0C       		.uleb128 0xc
 2379 0104 20       		.uleb128 0x20
 2380 0105 0B       		.uleb128 0xb
 2381 0106 01       		.uleb128 0x1
 2382 0107 13       		.uleb128 0x13
 2383 0108 00       		.byte	0
 2384 0109 00       		.byte	0
 2385 010a 17       		.uleb128 0x17
 2386 010b 05       		.uleb128 0x5
 2387 010c 00       		.byte	0
 2388 010d 03       		.uleb128 0x3
 2389 010e 08       		.uleb128 0x8
 2390 010f 3A       		.uleb128 0x3a
 2391 0110 0B       		.uleb128 0xb
 2392 0111 3B       		.uleb128 0x3b
 2393 0112 05       		.uleb128 0x5
 2394 0113 49       		.uleb128 0x49
 2395 0114 13       		.uleb128 0x13
 2396 0115 00       		.byte	0
 2397 0116 00       		.byte	0
 2398 0117 18       		.uleb128 0x18
 2399 0118 2E       		.uleb128 0x2e
 2400 0119 01       		.byte	0x1
 2401 011a 3F       		.uleb128 0x3f
 2402 011b 0C       		.uleb128 0xc
 2403 011c 03       		.uleb128 0x3
 2404 011d 0E       		.uleb128 0xe
 2405 011e 3A       		.uleb128 0x3a
 2406 011f 0B       		.uleb128 0xb
 2407 0120 3B       		.uleb128 0x3b
 2408 0121 0B       		.uleb128 0xb
 2409 0122 27       		.uleb128 0x27
 2410 0123 0C       		.uleb128 0xc
 2411 0124 11       		.uleb128 0x11
 2412 0125 01       		.uleb128 0x1
 2413 0126 12       		.uleb128 0x12
 2414 0127 01       		.uleb128 0x1
 2415 0128 40       		.uleb128 0x40
 2416 0129 0A       		.uleb128 0xa
 2417 012a 01       		.uleb128 0x1
 2418 012b 13       		.uleb128 0x13
 2419 012c 00       		.byte	0
 2420 012d 00       		.byte	0
 2421 012e 19       		.uleb128 0x19
 2422 012f 1D       		.uleb128 0x1d
 2423 0130 01       		.byte	0x1
 2424 0131 31       		.uleb128 0x31
 2425 0132 13       		.uleb128 0x13
 2426 0133 52       		.uleb128 0x52
 2427 0134 01       		.uleb128 0x1
ARM GAS  /tmp/ccx6PcDB.s 			page 44


 2428 0135 55       		.uleb128 0x55
 2429 0136 06       		.uleb128 0x6
 2430 0137 58       		.uleb128 0x58
 2431 0138 0B       		.uleb128 0xb
 2432 0139 59       		.uleb128 0x59
 2433 013a 0B       		.uleb128 0xb
 2434 013b 00       		.byte	0
 2435 013c 00       		.byte	0
 2436 013d 1A       		.uleb128 0x1a
 2437 013e 05       		.uleb128 0x5
 2438 013f 00       		.byte	0
 2439 0140 31       		.uleb128 0x31
 2440 0141 13       		.uleb128 0x13
 2441 0142 02       		.uleb128 0x2
 2442 0143 06       		.uleb128 0x6
 2443 0144 00       		.byte	0
 2444 0145 00       		.byte	0
 2445 0146 1B       		.uleb128 0x1b
 2446 0147 2E       		.uleb128 0x2e
 2447 0148 01       		.byte	0x1
 2448 0149 3F       		.uleb128 0x3f
 2449 014a 0C       		.uleb128 0xc
 2450 014b 03       		.uleb128 0x3
 2451 014c 0E       		.uleb128 0xe
 2452 014d 3A       		.uleb128 0x3a
 2453 014e 0B       		.uleb128 0xb
 2454 014f 3B       		.uleb128 0x3b
 2455 0150 0B       		.uleb128 0xb
 2456 0151 27       		.uleb128 0x27
 2457 0152 0C       		.uleb128 0xc
 2458 0153 11       		.uleb128 0x11
 2459 0154 01       		.uleb128 0x1
 2460 0155 12       		.uleb128 0x12
 2461 0156 01       		.uleb128 0x1
 2462 0157 40       		.uleb128 0x40
 2463 0158 06       		.uleb128 0x6
 2464 0159 01       		.uleb128 0x1
 2465 015a 13       		.uleb128 0x13
 2466 015b 00       		.byte	0
 2467 015c 00       		.byte	0
 2468 015d 1C       		.uleb128 0x1c
 2469 015e 1D       		.uleb128 0x1d
 2470 015f 01       		.byte	0x1
 2471 0160 31       		.uleb128 0x31
 2472 0161 13       		.uleb128 0x13
 2473 0162 11       		.uleb128 0x11
 2474 0163 01       		.uleb128 0x1
 2475 0164 12       		.uleb128 0x12
 2476 0165 01       		.uleb128 0x1
 2477 0166 58       		.uleb128 0x58
 2478 0167 0B       		.uleb128 0xb
 2479 0168 59       		.uleb128 0x59
 2480 0169 0B       		.uleb128 0xb
 2481 016a 00       		.byte	0
 2482 016b 00       		.byte	0
 2483 016c 1D       		.uleb128 0x1d
 2484 016d 05       		.uleb128 0x5
ARM GAS  /tmp/ccx6PcDB.s 			page 45


 2485 016e 00       		.byte	0
 2486 016f 31       		.uleb128 0x31
 2487 0170 13       		.uleb128 0x13
 2488 0171 02       		.uleb128 0x2
 2489 0172 0A       		.uleb128 0xa
 2490 0173 00       		.byte	0
 2491 0174 00       		.byte	0
 2492 0175 1E       		.uleb128 0x1e
 2493 0176 0B       		.uleb128 0xb
 2494 0177 01       		.byte	0x1
 2495 0178 11       		.uleb128 0x11
 2496 0179 01       		.uleb128 0x1
 2497 017a 12       		.uleb128 0x12
 2498 017b 01       		.uleb128 0x1
 2499 017c 01       		.uleb128 0x1
 2500 017d 13       		.uleb128 0x13
 2501 017e 00       		.byte	0
 2502 017f 00       		.byte	0
 2503 0180 1F       		.uleb128 0x1f
 2504 0181 34       		.uleb128 0x34
 2505 0182 00       		.byte	0
 2506 0183 03       		.uleb128 0x3
 2507 0184 08       		.uleb128 0x8
 2508 0185 3A       		.uleb128 0x3a
 2509 0186 0B       		.uleb128 0xb
 2510 0187 3B       		.uleb128 0x3b
 2511 0188 0B       		.uleb128 0xb
 2512 0189 49       		.uleb128 0x49
 2513 018a 13       		.uleb128 0x13
 2514 018b 02       		.uleb128 0x2
 2515 018c 06       		.uleb128 0x6
 2516 018d 00       		.byte	0
 2517 018e 00       		.byte	0
 2518 018f 20       		.uleb128 0x20
 2519 0190 1D       		.uleb128 0x1d
 2520 0191 01       		.byte	0x1
 2521 0192 31       		.uleb128 0x31
 2522 0193 13       		.uleb128 0x13
 2523 0194 11       		.uleb128 0x11
 2524 0195 01       		.uleb128 0x1
 2525 0196 12       		.uleb128 0x12
 2526 0197 01       		.uleb128 0x1
 2527 0198 58       		.uleb128 0x58
 2528 0199 0B       		.uleb128 0xb
 2529 019a 59       		.uleb128 0x59
 2530 019b 0B       		.uleb128 0xb
 2531 019c 01       		.uleb128 0x1
 2532 019d 13       		.uleb128 0x13
 2533 019e 00       		.byte	0
 2534 019f 00       		.byte	0
 2535 01a0 21       		.uleb128 0x21
 2536 01a1 0B       		.uleb128 0xb
 2537 01a2 01       		.byte	0x1
 2538 01a3 11       		.uleb128 0x11
 2539 01a4 01       		.uleb128 0x1
 2540 01a5 12       		.uleb128 0x12
 2541 01a6 01       		.uleb128 0x1
ARM GAS  /tmp/ccx6PcDB.s 			page 46


 2542 01a7 00       		.byte	0
 2543 01a8 00       		.byte	0
 2544 01a9 22       		.uleb128 0x22
 2545 01aa 2E       		.uleb128 0x2e
 2546 01ab 00       		.byte	0
 2547 01ac 3F       		.uleb128 0x3f
 2548 01ad 0C       		.uleb128 0xc
 2549 01ae 03       		.uleb128 0x3
 2550 01af 0E       		.uleb128 0xe
 2551 01b0 3A       		.uleb128 0x3a
 2552 01b1 0B       		.uleb128 0xb
 2553 01b2 3B       		.uleb128 0x3b
 2554 01b3 0B       		.uleb128 0xb
 2555 01b4 27       		.uleb128 0x27
 2556 01b5 0C       		.uleb128 0xc
 2557 01b6 11       		.uleb128 0x11
 2558 01b7 01       		.uleb128 0x1
 2559 01b8 12       		.uleb128 0x12
 2560 01b9 01       		.uleb128 0x1
 2561 01ba 40       		.uleb128 0x40
 2562 01bb 0A       		.uleb128 0xa
 2563 01bc 00       		.byte	0
 2564 01bd 00       		.byte	0
 2565 01be 23       		.uleb128 0x23
 2566 01bf 05       		.uleb128 0x5
 2567 01c0 00       		.byte	0
 2568 01c1 03       		.uleb128 0x3
 2569 01c2 08       		.uleb128 0x8
 2570 01c3 3A       		.uleb128 0x3a
 2571 01c4 0B       		.uleb128 0xb
 2572 01c5 3B       		.uleb128 0x3b
 2573 01c6 0B       		.uleb128 0xb
 2574 01c7 49       		.uleb128 0x49
 2575 01c8 13       		.uleb128 0x13
 2576 01c9 02       		.uleb128 0x2
 2577 01ca 06       		.uleb128 0x6
 2578 01cb 00       		.byte	0
 2579 01cc 00       		.byte	0
 2580 01cd 24       		.uleb128 0x24
 2581 01ce 2E       		.uleb128 0x2e
 2582 01cf 01       		.byte	0x1
 2583 01d0 31       		.uleb128 0x31
 2584 01d1 13       		.uleb128 0x13
 2585 01d2 11       		.uleb128 0x11
 2586 01d3 01       		.uleb128 0x1
 2587 01d4 12       		.uleb128 0x12
 2588 01d5 01       		.uleb128 0x1
 2589 01d6 40       		.uleb128 0x40
 2590 01d7 0A       		.uleb128 0xa
 2591 01d8 01       		.uleb128 0x1
 2592 01d9 13       		.uleb128 0x13
 2593 01da 00       		.byte	0
 2594 01db 00       		.byte	0
 2595 01dc 25       		.uleb128 0x25
 2596 01dd 34       		.uleb128 0x34
 2597 01de 00       		.byte	0
 2598 01df 03       		.uleb128 0x3
ARM GAS  /tmp/ccx6PcDB.s 			page 47


 2599 01e0 0E       		.uleb128 0xe
 2600 01e1 3A       		.uleb128 0x3a
 2601 01e2 0B       		.uleb128 0xb
 2602 01e3 3B       		.uleb128 0x3b
 2603 01e4 0B       		.uleb128 0xb
 2604 01e5 49       		.uleb128 0x49
 2605 01e6 13       		.uleb128 0x13
 2606 01e7 3F       		.uleb128 0x3f
 2607 01e8 0C       		.uleb128 0xc
 2608 01e9 3C       		.uleb128 0x3c
 2609 01ea 0C       		.uleb128 0xc
 2610 01eb 00       		.byte	0
 2611 01ec 00       		.byte	0
 2612 01ed 26       		.uleb128 0x26
 2613 01ee 34       		.uleb128 0x34
 2614 01ef 00       		.byte	0
 2615 01f0 03       		.uleb128 0x3
 2616 01f1 0E       		.uleb128 0xe
 2617 01f2 3A       		.uleb128 0x3a
 2618 01f3 0B       		.uleb128 0xb
 2619 01f4 3B       		.uleb128 0x3b
 2620 01f5 0B       		.uleb128 0xb
 2621 01f6 49       		.uleb128 0x49
 2622 01f7 13       		.uleb128 0x13
 2623 01f8 3F       		.uleb128 0x3f
 2624 01f9 0C       		.uleb128 0xc
 2625 01fa 02       		.uleb128 0x2
 2626 01fb 0A       		.uleb128 0xa
 2627 01fc 00       		.byte	0
 2628 01fd 00       		.byte	0
 2629 01fe 27       		.uleb128 0x27
 2630 01ff 34       		.uleb128 0x34
 2631 0200 00       		.byte	0
 2632 0201 03       		.uleb128 0x3
 2633 0202 0E       		.uleb128 0xe
 2634 0203 3A       		.uleb128 0x3a
 2635 0204 0B       		.uleb128 0xb
 2636 0205 3B       		.uleb128 0x3b
 2637 0206 05       		.uleb128 0x5
 2638 0207 49       		.uleb128 0x49
 2639 0208 13       		.uleb128 0x13
 2640 0209 3F       		.uleb128 0x3f
 2641 020a 0C       		.uleb128 0xc
 2642 020b 02       		.uleb128 0x2
 2643 020c 0A       		.uleb128 0xa
 2644 020d 00       		.byte	0
 2645 020e 00       		.byte	0
 2646 020f 00       		.byte	0
 2647              		.section	.debug_loc,"",%progbits
 2648              	.Ldebug_loc0:
 2649              	.LLST0:
 2650 0000 0C000000 		.4byte	.LVL0
 2651 0004 16000000 		.4byte	.LVL1
 2652 0008 0600     		.2byte	0x6
 2653 000a 03       		.byte	0x3
 2654 000b 00000000 		.4byte	.LC0
 2655 000f 9F       		.byte	0x9f
ARM GAS  /tmp/ccx6PcDB.s 			page 48


 2656 0010 00000000 		.4byte	0
 2657 0014 00000000 		.4byte	0
 2658              	.LLST1:
 2659 0018 0C000000 		.4byte	.LVL2
 2660 001c 16000000 		.4byte	.LVL3
 2661 0020 0600     		.2byte	0x6
 2662 0022 03       		.byte	0x3
 2663 0023 08000000 		.4byte	.LC1
 2664 0027 9F       		.byte	0x9f
 2665 0028 00000000 		.4byte	0
 2666 002c 00000000 		.4byte	0
 2667              	.LLST2:
 2668 0030 0C000000 		.4byte	.LVL4
 2669 0034 16000000 		.4byte	.LVL5
 2670 0038 0600     		.2byte	0x6
 2671 003a 03       		.byte	0x3
 2672 003b 10000000 		.4byte	.LC2
 2673 003f 9F       		.byte	0x9f
 2674 0040 00000000 		.4byte	0
 2675 0044 00000000 		.4byte	0
 2676              	.LLST3:
 2677 0048 00000000 		.4byte	.LFB10
 2678 004c 04000000 		.4byte	.LCFI0
 2679 0050 0200     		.2byte	0x2
 2680 0052 7D       		.byte	0x7d
 2681 0053 00       		.sleb128 0
 2682 0054 04000000 		.4byte	.LCFI0
 2683 0058 30000000 		.4byte	.LFE10
 2684 005c 0200     		.2byte	0x2
 2685 005e 7D       		.byte	0x7d
 2686 005f 08       		.sleb128 8
 2687 0060 00000000 		.4byte	0
 2688 0064 00000000 		.4byte	0
 2689              	.LLST4:
 2690 0068 0E000000 		.4byte	.LVL6
 2691 006c 18000000 		.4byte	.LVL7
 2692 0070 0600     		.2byte	0x6
 2693 0072 03       		.byte	0x3
 2694 0073 18000000 		.4byte	.LC3
 2695 0077 9F       		.byte	0x9f
 2696 0078 00000000 		.4byte	0
 2697 007c 00000000 		.4byte	0
 2698              	.LLST5:
 2699 0080 00000000 		.4byte	.LFB11
 2700 0084 04000000 		.4byte	.LCFI1
 2701 0088 0200     		.2byte	0x2
 2702 008a 7D       		.byte	0x7d
 2703 008b 00       		.sleb128 0
 2704 008c 04000000 		.4byte	.LCFI1
 2705 0090 38000000 		.4byte	.LFE11
 2706 0094 0200     		.2byte	0x2
 2707 0096 7D       		.byte	0x7d
 2708 0097 08       		.sleb128 8
 2709 0098 00000000 		.4byte	0
 2710 009c 00000000 		.4byte	0
 2711              	.LLST6:
 2712 00a0 00000000 		.4byte	.LFB12
ARM GAS  /tmp/ccx6PcDB.s 			page 49


 2713 00a4 04000000 		.4byte	.LCFI2
 2714 00a8 0200     		.2byte	0x2
 2715 00aa 7D       		.byte	0x7d
 2716 00ab 00       		.sleb128 0
 2717 00ac 04000000 		.4byte	.LCFI2
 2718 00b0 30000000 		.4byte	.LFE12
 2719 00b4 0200     		.2byte	0x2
 2720 00b6 7D       		.byte	0x7d
 2721 00b7 08       		.sleb128 8
 2722 00b8 00000000 		.4byte	0
 2723 00bc 00000000 		.4byte	0
 2724              	.LLST7:
 2725 00c0 10000000 		.4byte	.LVL9
 2726 00c4 1A000000 		.4byte	.LVL10
 2727 00c8 0600     		.2byte	0x6
 2728 00ca 03       		.byte	0x3
 2729 00cb 28000000 		.4byte	.LC5
 2730 00cf 9F       		.byte	0x9f
 2731 00d0 00000000 		.4byte	0
 2732 00d4 00000000 		.4byte	0
 2733              	.LLST8:
 2734 00d8 00000000 		.4byte	.LFB13
 2735 00dc 04000000 		.4byte	.LCFI3
 2736 00e0 0200     		.2byte	0x2
 2737 00e2 7D       		.byte	0x7d
 2738 00e3 00       		.sleb128 0
 2739 00e4 04000000 		.4byte	.LCFI3
 2740 00e8 38000000 		.4byte	.LFE13
 2741 00ec 0200     		.2byte	0x2
 2742 00ee 7D       		.byte	0x7d
 2743 00ef 08       		.sleb128 8
 2744 00f0 00000000 		.4byte	0
 2745 00f4 00000000 		.4byte	0
 2746              	.LLST9:
 2747 00f8 00000000 		.4byte	.LFB14
 2748 00fc 02000000 		.4byte	.LCFI4
 2749 0100 0200     		.2byte	0x2
 2750 0102 7D       		.byte	0x7d
 2751 0103 00       		.sleb128 0
 2752 0104 02000000 		.4byte	.LCFI4
 2753 0108 40000000 		.4byte	.LFE14
 2754 010c 0200     		.2byte	0x2
 2755 010e 7D       		.byte	0x7d
 2756 010f 08       		.sleb128 8
 2757 0110 00000000 		.4byte	0
 2758 0114 00000000 		.4byte	0
 2759              	.LLST10:
 2760 0118 08000000 		.4byte	.LVL13
 2761 011c 0C000000 		.4byte	.LVL14
 2762 0120 0100     		.2byte	0x1
 2763 0122 53       		.byte	0x53
 2764 0123 00000000 		.4byte	0
 2765 0127 00000000 		.4byte	0
 2766              	.LLST11:
 2767 012b 16000000 		.4byte	.LVL15
 2768 012f 22000000 		.4byte	.LVL16
 2769 0133 0600     		.2byte	0x6
ARM GAS  /tmp/ccx6PcDB.s 			page 50


 2770 0135 03       		.byte	0x3
 2771 0136 38000000 		.4byte	.LC7
 2772 013a 9F       		.byte	0x9f
 2773 013b 00000000 		.4byte	0
 2774 013f 00000000 		.4byte	0
 2775              	.LLST12:
 2776 0143 2C000000 		.4byte	.LVL18
 2777 0147 40000000 		.4byte	.LFE14
 2778 014b 0100     		.2byte	0x1
 2779 014d 53       		.byte	0x53
 2780 014e 00000000 		.4byte	0
 2781 0152 00000000 		.4byte	0
 2782              	.LLST13:
 2783 0156 00000000 		.4byte	.LFB15
 2784 015a 02000000 		.4byte	.LCFI5
 2785 015e 0200     		.2byte	0x2
 2786 0160 7D       		.byte	0x7d
 2787 0161 00       		.sleb128 0
 2788 0162 02000000 		.4byte	.LCFI5
 2789 0166 40000000 		.4byte	.LFE15
 2790 016a 0200     		.2byte	0x2
 2791 016c 7D       		.byte	0x7d
 2792 016d 08       		.sleb128 8
 2793 016e 00000000 		.4byte	0
 2794 0172 00000000 		.4byte	0
 2795              	.LLST14:
 2796 0176 08000000 		.4byte	.LVL20
 2797 017a 0C000000 		.4byte	.LVL21
 2798 017e 0100     		.2byte	0x1
 2799 0180 53       		.byte	0x53
 2800 0181 00000000 		.4byte	0
 2801 0185 00000000 		.4byte	0
 2802              	.LLST15:
 2803 0189 16000000 		.4byte	.LVL22
 2804 018d 22000000 		.4byte	.LVL23
 2805 0191 0600     		.2byte	0x6
 2806 0193 03       		.byte	0x3
 2807 0194 40000000 		.4byte	.LC8
 2808 0198 9F       		.byte	0x9f
 2809 0199 00000000 		.4byte	0
 2810 019d 00000000 		.4byte	0
 2811              	.LLST16:
 2812 01a1 2C000000 		.4byte	.LVL25
 2813 01a5 40000000 		.4byte	.LFE15
 2814 01a9 0100     		.2byte	0x1
 2815 01ab 53       		.byte	0x53
 2816 01ac 00000000 		.4byte	0
 2817 01b0 00000000 		.4byte	0
 2818              	.LLST17:
 2819 01b4 00000000 		.4byte	.LFB19
 2820 01b8 02000000 		.4byte	.LCFI6
 2821 01bc 0200     		.2byte	0x2
 2822 01be 7D       		.byte	0x7d
 2823 01bf 00       		.sleb128 0
 2824 01c0 02000000 		.4byte	.LCFI6
 2825 01c4 44000000 		.4byte	.LFE19
 2826 01c8 0200     		.2byte	0x2
ARM GAS  /tmp/ccx6PcDB.s 			page 51


 2827 01ca 7D       		.byte	0x7d
 2828 01cb 04       		.sleb128 4
 2829 01cc 00000000 		.4byte	0
 2830 01d0 00000000 		.4byte	0
 2831              	.LLST18:
 2832 01d4 00000000 		.4byte	.LVL28
 2833 01d8 22000000 		.4byte	.LVL29
 2834 01dc 0100     		.2byte	0x1
 2835 01de 50       		.byte	0x50
 2836 01df 00000000 		.4byte	0
 2837 01e3 00000000 		.4byte	0
 2838              	.LLST19:
 2839 01e7 00000000 		.4byte	.LVL30
 2840 01eb 0D000000 		.4byte	.LVL31-1
 2841 01ef 0100     		.2byte	0x1
 2842 01f1 50       		.byte	0x50
 2843 01f2 00000000 		.4byte	0
 2844 01f6 00000000 		.4byte	0
 2845              		.section	.debug_aranges,"",%progbits
 2846 0000 84000000 		.4byte	0x84
 2847 0004 0200     		.2byte	0x2
 2848 0006 00000000 		.4byte	.Ldebug_info0
 2849 000a 04       		.byte	0x4
 2850 000b 00       		.byte	0
 2851 000c 0000     		.2byte	0
 2852 000e 0000     		.2byte	0
 2853 0010 00000000 		.4byte	.LFB7
 2854 0014 28000000 		.4byte	.LFE7-.LFB7
 2855 0018 00000000 		.4byte	.LFB8
 2856 001c 28000000 		.4byte	.LFE8-.LFB8
 2857 0020 00000000 		.4byte	.LFB9
 2858 0024 28000000 		.4byte	.LFE9-.LFB9
 2859 0028 00000000 		.4byte	.LFB10
 2860 002c 30000000 		.4byte	.LFE10-.LFB10
 2861 0030 00000000 		.4byte	.LFB11
 2862 0034 38000000 		.4byte	.LFE11-.LFB11
 2863 0038 00000000 		.4byte	.LFB12
 2864 003c 30000000 		.4byte	.LFE12-.LFB12
 2865 0040 00000000 		.4byte	.LFB13
 2866 0044 38000000 		.4byte	.LFE13-.LFB13
 2867 0048 00000000 		.4byte	.LFB14
 2868 004c 40000000 		.4byte	.LFE14-.LFB14
 2869 0050 00000000 		.4byte	.LFB15
 2870 0054 40000000 		.4byte	.LFE15-.LFB15
 2871 0058 00000000 		.4byte	.LFB16
 2872 005c 2C000000 		.4byte	.LFE16-.LFB16
 2873 0060 00000000 		.4byte	.LFB17
 2874 0064 2C000000 		.4byte	.LFE17-.LFB17
 2875 0068 00000000 		.4byte	.LFB18
 2876 006c 14000000 		.4byte	.LFE18-.LFB18
 2877 0070 00000000 		.4byte	.LFB19
 2878 0074 44000000 		.4byte	.LFE19-.LFB19
 2879 0078 00000000 		.4byte	.LFB20
 2880 007c 0E000000 		.4byte	.LFE20-.LFB20
 2881 0080 00000000 		.4byte	0
 2882 0084 00000000 		.4byte	0
 2883              		.section	.debug_ranges,"",%progbits
ARM GAS  /tmp/ccx6PcDB.s 			page 52


 2884              	.Ldebug_ranges0:
 2885 0000 0C000000 		.4byte	.LBB28
 2886 0004 12000000 		.4byte	.LBE28
 2887 0008 12000000 		.4byte	.LBB31
 2888 000c 28000000 		.4byte	.LBE31
 2889 0010 00000000 		.4byte	0
 2890 0014 00000000 		.4byte	0
 2891 0018 0C000000 		.4byte	.LBB32
 2892 001c 12000000 		.4byte	.LBE32
 2893 0020 12000000 		.4byte	.LBB35
 2894 0024 28000000 		.4byte	.LBE35
 2895 0028 00000000 		.4byte	0
 2896 002c 00000000 		.4byte	0
 2897 0030 0C000000 		.4byte	.LBB36
 2898 0034 12000000 		.4byte	.LBE36
 2899 0038 12000000 		.4byte	.LBB39
 2900 003c 28000000 		.4byte	.LBE39
 2901 0040 00000000 		.4byte	0
 2902 0044 00000000 		.4byte	0
 2903 0048 12000000 		.4byte	.LBB56
 2904 004c 18000000 		.4byte	.LBE56
 2905 0050 18000000 		.4byte	.LBB59
 2906 0054 2C000000 		.4byte	.LBE59
 2907 0058 00000000 		.4byte	0
 2908 005c 00000000 		.4byte	0
 2909 0060 10000000 		.4byte	.LBB60
 2910 0064 16000000 		.4byte	.LBE60
 2911 0068 16000000 		.4byte	.LBB63
 2912 006c 2C000000 		.4byte	.LBE63
 2913 0070 00000000 		.4byte	0
 2914 0074 00000000 		.4byte	0
 2915 0078 00000000 		.4byte	.LFB7
 2916 007c 28000000 		.4byte	.LFE7
 2917 0080 00000000 		.4byte	.LFB8
 2918 0084 28000000 		.4byte	.LFE8
 2919 0088 00000000 		.4byte	.LFB9
 2920 008c 28000000 		.4byte	.LFE9
 2921 0090 00000000 		.4byte	.LFB10
 2922 0094 30000000 		.4byte	.LFE10
 2923 0098 00000000 		.4byte	.LFB11
 2924 009c 38000000 		.4byte	.LFE11
 2925 00a0 00000000 		.4byte	.LFB12
 2926 00a4 30000000 		.4byte	.LFE12
 2927 00a8 00000000 		.4byte	.LFB13
 2928 00ac 38000000 		.4byte	.LFE13
 2929 00b0 00000000 		.4byte	.LFB14
 2930 00b4 40000000 		.4byte	.LFE14
 2931 00b8 00000000 		.4byte	.LFB15
 2932 00bc 40000000 		.4byte	.LFE15
 2933 00c0 00000000 		.4byte	.LFB16
 2934 00c4 2C000000 		.4byte	.LFE16
 2935 00c8 00000000 		.4byte	.LFB17
 2936 00cc 2C000000 		.4byte	.LFE17
 2937 00d0 00000000 		.4byte	.LFB18
 2938 00d4 14000000 		.4byte	.LFE18
 2939 00d8 00000000 		.4byte	.LFB19
 2940 00dc 44000000 		.4byte	.LFE19
ARM GAS  /tmp/ccx6PcDB.s 			page 53


 2941 00e0 00000000 		.4byte	.LFB20
 2942 00e4 0E000000 		.4byte	.LFE20
 2943 00e8 00000000 		.4byte	0
 2944 00ec 00000000 		.4byte	0
 2945              		.section	.debug_line,"",%progbits
 2946              	.Ldebug_line0:
 2947 0000 50030000 		.section	.debug_str,"MS",%progbits,1
 2947      02007501 
 2947      00000201 
 2947      FB0E0D00 
 2947      01010101 
 2948              	.LASF39:
 2949 0000 705F6D73 		.ascii	"p_msg\000"
 2949      6700
 2950              	.LASF105:
 2951 0006 63684462 		.ascii	"chDbgPanic\000"
 2951      6750616E 
 2951      696300
 2952              	.LASF70:
 2953 0011 7264796D 		.ascii	"rdymsg\000"
 2953      736700
 2954              	.LASF11:
 2955 0018 75696E74 		.ascii	"uint64_t\000"
 2955      36345F74 
 2955      00
 2956              	.LASF96:
 2957 0021 76746C69 		.ascii	"vtlist\000"
 2957      737400
 2958              	.LASF12:
 2959 0028 6C6F6E67 		.ascii	"long long unsigned int\000"
 2959      206C6F6E 
 2959      6720756E 
 2959      7369676E 
 2959      65642069 
 2960              	.LASF83:
 2961 003f 63685F74 		.ascii	"ch_trace_buffer_t\000"
 2961      72616365 
 2961      5F627566 
 2961      6665725F 
 2961      7400
 2962              	.LASF78:
 2963 0051 73655F73 		.ascii	"se_state\000"
 2963      74617465 
 2963      00
 2964              	.LASF71:
 2965 005a 65786974 		.ascii	"exitcode\000"
 2965      636F6465 
 2965      00
 2966              	.LASF26:
 2967 0063 705F7072 		.ascii	"p_prio\000"
 2967      696F00
 2968              	.LASF10:
 2969 006a 6C6F6E67 		.ascii	"long long int\000"
 2969      206C6F6E 
 2969      6720696E 
 2969      7400
 2970              	.LASF1:
ARM GAS  /tmp/ccx6PcDB.s 			page 54


 2971 0078 7369676E 		.ascii	"signed char\000"
 2971      65642063 
 2971      68617200 
 2972              	.LASF90:
 2973 0084 6462675F 		.ascii	"dbg_check_unlock_from_isr\000"
 2973      63686563 
 2973      6B5F756E 
 2973      6C6F636B 
 2973      5F66726F 
 2974              	.LASF43:
 2975 009e 705F6D70 		.ascii	"p_mpool\000"
 2975      6F6F6C00 
 2976              	.LASF67:
 2977 00a6 6D5F7175 		.ascii	"m_queue\000"
 2977      65756500 
 2978              	.LASF17:
 2979 00ae 74736C69 		.ascii	"tslices_t\000"
 2979      6365735F 
 2979      7400
 2980              	.LASF7:
 2981 00b8 6C6F6E67 		.ascii	"long int\000"
 2981      20696E74 
 2981      00
 2982              	.LASF102:
 2983 00c1 474E5520 		.ascii	"GNU C 4.6.2 20120613 (release) [ARM/embedded-4_6-br"
 2983      4320342E 
 2983      362E3220 
 2983      32303132 
 2983      30363133 
 2984 00f4 616E6368 		.ascii	"anch revision 188521]\000"
 2984      20726576 
 2984      6973696F 
 2984      6E203138 
 2984      38353231 
 2985              	.LASF104:
 2986 010a 2F686F6D 		.ascii	"/home/tino/workspace/openrobots/R2P_IR_module/fw\000"
 2986      652F7469 
 2986      6E6F2F77 
 2986      6F726B73 
 2986      70616365 
 2987              	.LASF15:
 2988 013b 74737461 		.ascii	"tstate_t\000"
 2988      74655F74 
 2988      00
 2989              	.LASF76:
 2990 0144 73655F74 		.ascii	"se_tp\000"
 2990      7000
 2991              	.LASF28:
 2992 014a 705F6E65 		.ascii	"p_newer\000"
 2992      77657200 
 2993              	.LASF80:
 2994 0152 74625F73 		.ascii	"tb_size\000"
 2994      697A6500 
 2995              	.LASF62:
 2996 015a 725F6E65 		.ascii	"r_newer\000"
 2996      77657200 
 2997              	.LASF46:
ARM GAS  /tmp/ccx6PcDB.s 			page 55


 2998 0162 72656761 		.ascii	"regarm_t\000"
 2998      726D5F74 
 2998      00
 2999              	.LASF53:
 3000 016b 76745F70 		.ascii	"vt_prev\000"
 3000      72657600 
 3001              	.LASF75:
 3002 0173 73655F74 		.ascii	"se_time\000"
 3002      696D6500 
 3003              	.LASF22:
 3004 017b 636E745F 		.ascii	"cnt_t\000"
 3004      7400
 3005              	.LASF31:
 3006 0181 705F7374 		.ascii	"p_stklimit\000"
 3006      6B6C696D 
 3006      697400
 3007              	.LASF0:
 3008 018c 756E7369 		.ascii	"unsigned int\000"
 3008      676E6564 
 3008      20696E74 
 3008      00
 3009              	.LASF52:
 3010 0199 76745F6E 		.ascii	"vt_next\000"
 3010      65787400 
 3011              	.LASF95:
 3012 01a1 6462675F 		.ascii	"dbg_trace\000"
 3012      74726163 
 3012      6500
 3013              	.LASF9:
 3014 01ab 6C6F6E67 		.ascii	"long unsigned int\000"
 3014      20756E73 
 3014      69676E65 
 3014      6420696E 
 3014      7400
 3015              	.LASF85:
 3016 01bd 6462675F 		.ascii	"dbg_check_suspend\000"
 3016      63686563 
 3016      6B5F7375 
 3016      7370656E 
 3016      6400
 3017              	.LASF49:
 3018 01cf 636F6E74 		.ascii	"context\000"
 3018      65787400 
 3019              	.LASF4:
 3020 01d7 73686F72 		.ascii	"short unsigned int\000"
 3020      7420756E 
 3020      7369676E 
 3020      65642069 
 3020      6E7400
 3021              	.LASF106:
 3022 01ea 5F747261 		.ascii	"_trace_init\000"
 3022      63655F69 
 3022      6E697400 
 3023              	.LASF19:
 3024 01f6 6D73675F 		.ascii	"msg_t\000"
 3024      7400
 3025              	.LASF93:
ARM GAS  /tmp/ccx6PcDB.s 			page 56


 3026 01fc 63684462 		.ascii	"chDbgCheckClassI\000"
 3026      67436865 
 3026      636B436C 
 3026      61737349 
 3026      00
 3027              	.LASF14:
 3028 020d 746D6F64 		.ascii	"tmode_t\000"
 3028      655F7400 
 3029              	.LASF99:
 3030 0215 6462675F 		.ascii	"dbg_isr_cnt\000"
 3030      6973725F 
 3030      636E7400 
 3031              	.LASF94:
 3032 0221 63684462 		.ascii	"chDbgCheckClassS\000"
 3032      67436865 
 3032      636B436C 
 3032      61737353 
 3032      00
 3033              	.LASF45:
 3034 0232 54687265 		.ascii	"ThreadsList\000"
 3034      6164734C 
 3034      69737400 
 3035              	.LASF20:
 3036 023e 6576656E 		.ascii	"eventmask_t\000"
 3036      746D6173 
 3036      6B5F7400 
 3037              	.LASF66:
 3038 024a 4D757465 		.ascii	"Mutex\000"
 3038      7800
 3039              	.LASF47:
 3040 0250 73746B61 		.ascii	"stkalign_t\000"
 3040      6C69676E 
 3040      5F7400
 3041              	.LASF54:
 3042 025b 76745F74 		.ascii	"vt_time\000"
 3042      696D6500 
 3043              	.LASF81:
 3044 0263 74625F70 		.ascii	"tb_ptr\000"
 3044      747200
 3045              	.LASF55:
 3046 026a 76745F66 		.ascii	"vt_func\000"
 3046      756E6300 
 3047              	.LASF87:
 3048 0272 6462675F 		.ascii	"dbg_check_lock\000"
 3048      63686563 
 3048      6B5F6C6F 
 3048      636B00
 3049              	.LASF79:
 3050 0281 63685F73 		.ascii	"ch_swc_event_t\000"
 3050      77635F65 
 3050      76656E74 
 3050      5F7400
 3051              	.LASF29:
 3052 0290 705F6F6C 		.ascii	"p_older\000"
 3052      64657200 
 3053              	.LASF61:
 3054 0298 725F6374 		.ascii	"r_ctx\000"
ARM GAS  /tmp/ccx6PcDB.s 			page 57


 3054      7800
 3055              	.LASF44:
 3056 029e 54687265 		.ascii	"ThreadsQueue\000"
 3056      61647351 
 3056      75657565 
 3056      00
 3057              	.LASF64:
 3058 02ab 725F6375 		.ascii	"r_current\000"
 3058      7272656E 
 3058      7400
 3059              	.LASF63:
 3060 02b5 725F6F6C 		.ascii	"r_older\000"
 3060      64657200 
 3061              	.LASF88:
 3062 02bd 6462675F 		.ascii	"dbg_check_unlock\000"
 3062      63686563 
 3062      6B5F756E 
 3062      6C6F636B 
 3062      00
 3063              	.LASF98:
 3064 02ce 6462675F 		.ascii	"dbg_trace_buffer\000"
 3064      74726163 
 3064      655F6275 
 3064      66666572 
 3064      00
 3065              	.LASF16:
 3066 02df 74726566 		.ascii	"trefs_t\000"
 3066      735F7400 
 3067              	.LASF82:
 3068 02e7 74625F62 		.ascii	"tb_buffer\000"
 3068      75666665 
 3068      7200
 3069              	.LASF25:
 3070 02f1 705F7072 		.ascii	"p_prev\000"
 3070      657600
 3071              	.LASF18:
 3072 02f8 74707269 		.ascii	"tprio_t\000"
 3072      6F5F7400 
 3073              	.LASF13:
 3074 0300 5F426F6F 		.ascii	"_Bool\000"
 3074      6C00
 3075              	.LASF6:
 3076 0306 696E7433 		.ascii	"int32_t\000"
 3076      325F7400 
 3077              	.LASF2:
 3078 030e 756E7369 		.ascii	"unsigned char\000"
 3078      676E6564 
 3078      20636861 
 3078      7200
 3079              	.LASF101:
 3080 031c 6462675F 		.ascii	"dbg_panic_msg\000"
 3080      70616E69 
 3080      635F6D73 
 3080      6700
 3081              	.LASF41:
 3082 032a 705F6D74 		.ascii	"p_mtxlist\000"
 3082      786C6973 
ARM GAS  /tmp/ccx6PcDB.s 			page 58


 3082      7400
 3083              	.LASF3:
 3084 0334 73686F72 		.ascii	"short int\000"
 3084      7420696E 
 3084      7400
 3085              	.LASF32:
 3086 033e 705F7374 		.ascii	"p_state\000"
 3086      61746500 
 3087              	.LASF35:
 3088 0346 705F7072 		.ascii	"p_preempt\000"
 3088      65656D70 
 3088      7400
 3089              	.LASF60:
 3090 0350 725F7072 		.ascii	"r_prio\000"
 3090      696F00
 3091              	.LASF73:
 3092 0357 65776D61 		.ascii	"ewmask\000"
 3092      736B00
 3093              	.LASF24:
 3094 035e 705F6E65 		.ascii	"p_next\000"
 3094      787400
 3095              	.LASF33:
 3096 0365 705F666C 		.ascii	"p_flags\000"
 3096      61677300 
 3097              	.LASF23:
 3098 036d 54687265 		.ascii	"Thread\000"
 3098      616400
 3099              	.LASF40:
 3100 0374 705F6570 		.ascii	"p_epending\000"
 3100      656E6469 
 3100      6E6700
 3101              	.LASF8:
 3102 037f 75696E74 		.ascii	"uint32_t\000"
 3102      33325F74 
 3102      00
 3103              	.LASF59:
 3104 0388 725F7175 		.ascii	"r_queue\000"
 3104      65756500 
 3105              	.LASF51:
 3106 0390 56697274 		.ascii	"VirtualTimer\000"
 3106      75616C54 
 3106      696D6572 
 3106      00
 3107              	.LASF74:
 3108 039d 63686172 		.ascii	"char\000"
 3108      00
 3109              	.LASF69:
 3110 03a2 6D5F6E65 		.ascii	"m_next\000"
 3110      787400
 3111              	.LASF21:
 3112 03a9 73797374 		.ascii	"systime_t\000"
 3112      696D655F 
 3112      7400
 3113              	.LASF42:
 3114 03b3 705F7265 		.ascii	"p_realprio\000"
 3114      616C7072 
 3114      696F00
ARM GAS  /tmp/ccx6PcDB.s 			page 59


 3115              	.LASF50:
 3116 03be 76746675 		.ascii	"vtfunc_t\000"
 3116      6E635F74 
 3116      00
 3117              	.LASF100:
 3118 03c7 6462675F 		.ascii	"dbg_lock_cnt\000"
 3118      6C6F636B 
 3118      5F636E74 
 3118      00
 3119              	.LASF36:
 3120 03d4 705F7469 		.ascii	"p_time\000"
 3120      6D6500
 3121              	.LASF92:
 3122 03db 6462675F 		.ascii	"dbg_check_leave_isr\000"
 3122      63686563 
 3122      6B5F6C65 
 3122      6176655F 
 3122      69737200 
 3123              	.LASF48:
 3124 03ef 696E7463 		.ascii	"intctx\000"
 3124      747800
 3125              	.LASF38:
 3126 03f6 705F6D73 		.ascii	"p_msgqueue\000"
 3126      67717565 
 3126      756500
 3127              	.LASF86:
 3128 0401 6462675F 		.ascii	"dbg_check_enable\000"
 3128      63686563 
 3128      6B5F656E 
 3128      61626C65 
 3128      00
 3129              	.LASF56:
 3130 0412 76745F70 		.ascii	"vt_par\000"
 3130      617200
 3131              	.LASF34:
 3132 0419 705F7265 		.ascii	"p_refs\000"
 3132      667300
 3133              	.LASF65:
 3134 0420 52656164 		.ascii	"ReadyList\000"
 3134      794C6973 
 3134      7400
 3135              	.LASF91:
 3136 042a 6462675F 		.ascii	"dbg_check_enter_isr\000"
 3136      63686563 
 3136      6B5F656E 
 3136      7465725F 
 3136      69737200 
 3137              	.LASF97:
 3138 043e 726C6973 		.ascii	"rlist\000"
 3138      7400
 3139              	.LASF5:
 3140 0444 75696E74 		.ascii	"uint8_t\000"
 3140      385F7400 
 3141              	.LASF103:
 3142 044c 2E2E2F2E 		.ascii	"../../ChibiOS/os/kernel/src/chdebug.c\000"
 3142      2E2F4368 
 3142      6962694F 
ARM GAS  /tmp/ccx6PcDB.s 			page 60


 3142      532F6F73 
 3142      2F6B6572 
 3143              	.LASF89:
 3144 0472 6462675F 		.ascii	"dbg_check_lock_from_isr\000"
 3144      63686563 
 3144      6B5F6C6F 
 3144      636B5F66 
 3144      726F6D5F 
 3145              	.LASF72:
 3146 048a 77746F62 		.ascii	"wtobjp\000"
 3146      6A7000
 3147              	.LASF30:
 3148 0491 705F6E61 		.ascii	"p_name\000"
 3148      6D6500
 3149              	.LASF57:
 3150 0498 76745F73 		.ascii	"vt_systime\000"
 3150      79737469 
 3150      6D6500
 3151              	.LASF58:
 3152 04a3 56544C69 		.ascii	"VTList\000"
 3152      737400
 3153              	.LASF84:
 3154 04aa 6462675F 		.ascii	"dbg_check_disable\000"
 3154      63686563 
 3154      6B5F6469 
 3154      7361626C 
 3154      6500
 3155              	.LASF68:
 3156 04bc 6D5F6F77 		.ascii	"m_owner\000"
 3156      6E657200 
 3157              	.LASF77:
 3158 04c4 73655F77 		.ascii	"se_wtobjp\000"
 3158      746F626A 
 3158      7000
 3159              	.LASF27:
 3160 04ce 705F6374 		.ascii	"p_ctx\000"
 3160      7800
 3161              	.LASF37:
 3162 04d4 705F7761 		.ascii	"p_waiting\000"
 3162      6974696E 
 3162      6700
 3163              		.ident	"GCC: (GNU Tools for ARM Embedded Processors) 4.6.2 20120613 (release) [ARM/embedded-4_6-br
ARM GAS  /tmp/ccx6PcDB.s 			page 61


DEFINED SYMBOLS
                            *ABS*:00000000 chdebug.c
     /tmp/ccx6PcDB.s:19     .text.dbg_check_disable:00000000 $t
     /tmp/ccx6PcDB.s:25     .text.dbg_check_disable:00000000 dbg_check_disable
     /tmp/ccx6PcDB.s:62     .text.dbg_check_disable:00000018 $d
     /tmp/ccx6PcDB.s:72     .text.dbg_check_suspend:00000000 $t
     /tmp/ccx6PcDB.s:78     .text.dbg_check_suspend:00000000 dbg_check_suspend
     /tmp/ccx6PcDB.s:114    .text.dbg_check_suspend:00000018 $d
     /tmp/ccx6PcDB.s:124    .text.dbg_check_enable:00000000 $t
     /tmp/ccx6PcDB.s:130    .text.dbg_check_enable:00000000 dbg_check_enable
     /tmp/ccx6PcDB.s:166    .text.dbg_check_enable:00000018 $d
     /tmp/ccx6PcDB.s:176    .text.dbg_check_lock:00000000 $t
     /tmp/ccx6PcDB.s:182    .text.dbg_check_lock:00000000 dbg_check_lock
     /tmp/ccx6PcDB.s:225    .text.dbg_check_lock:00000020 $d
     /tmp/ccx6PcDB.s:233    .text.dbg_check_unlock:00000000 $t
     /tmp/ccx6PcDB.s:239    .text.dbg_check_unlock:00000000 dbg_check_unlock
     /tmp/ccx6PcDB.s:286    .text.dbg_check_unlock:00000028 $d
     /tmp/ccx6PcDB.s:294    .text.dbg_check_lock_from_isr:00000000 $t
     /tmp/ccx6PcDB.s:300    .text.dbg_check_lock_from_isr:00000000 dbg_check_lock_from_isr
     /tmp/ccx6PcDB.s:344    .text.dbg_check_lock_from_isr:00000020 $d
     /tmp/ccx6PcDB.s:352    .text.dbg_check_unlock_from_isr:00000000 $t
     /tmp/ccx6PcDB.s:358    .text.dbg_check_unlock_from_isr:00000000 dbg_check_unlock_from_isr
     /tmp/ccx6PcDB.s:406    .text.dbg_check_unlock_from_isr:00000028 $d
     /tmp/ccx6PcDB.s:414    .text.dbg_check_enter_isr:00000000 $t
     /tmp/ccx6PcDB.s:420    .text.dbg_check_enter_isr:00000000 dbg_check_enter_isr
     /tmp/ccx6PcDB.s:484    .text.dbg_check_enter_isr:00000030 $d
     /tmp/ccx6PcDB.s:492    .text.dbg_check_leave_isr:00000000 $t
     /tmp/ccx6PcDB.s:498    .text.dbg_check_leave_isr:00000000 dbg_check_leave_isr
     /tmp/ccx6PcDB.s:562    .text.dbg_check_leave_isr:00000030 $d
     /tmp/ccx6PcDB.s:570    .text.chDbgCheckClassI:00000000 $t
     /tmp/ccx6PcDB.s:576    .text.chDbgCheckClassI:00000000 chDbgCheckClassI
     /tmp/ccx6PcDB.s:612    .text.chDbgCheckClassI:0000001c $d
     /tmp/ccx6PcDB.s:622    .text.chDbgCheckClassS:00000000 $t
     /tmp/ccx6PcDB.s:628    .text.chDbgCheckClassS:00000000 chDbgCheckClassS
     /tmp/ccx6PcDB.s:663    .text.chDbgCheckClassS:0000001c $d
     /tmp/ccx6PcDB.s:673    .text._trace_init:00000000 $t
     /tmp/ccx6PcDB.s:679    .text._trace_init:00000000 _trace_init
     /tmp/ccx6PcDB.s:806    .bss.dbg_trace_buffer:00000000 .LANCHOR3
     /tmp/ccx6PcDB.s:700    .text.dbg_trace:00000000 $t
     /tmp/ccx6PcDB.s:706    .text.dbg_trace:00000000 dbg_trace
     /tmp/ccx6PcDB.s:761    .text.dbg_trace:00000038 $d
     /tmp/ccx6PcDB.s:768    .text.chDbgPanic:00000000 $t
     /tmp/ccx6PcDB.s:774    .text.chDbgPanic:00000000 chDbgPanic
     /tmp/ccx6PcDB.s:854    .bss.dbg_panic_msg:00000000 .LANCHOR2
     /tmp/ccx6PcDB.s:857    .bss.dbg_panic_msg:00000000 dbg_panic_msg
     /tmp/ccx6PcDB.s:809    .bss.dbg_trace_buffer:00000000 dbg_trace_buffer
     /tmp/ccx6PcDB.s:850    .bss.dbg_lock_cnt:00000000 dbg_lock_cnt
     /tmp/ccx6PcDB.s:802    .bss.dbg_isr_cnt:00000000 dbg_isr_cnt
     /tmp/ccx6PcDB.s:798    .bss.dbg_isr_cnt:00000000 $d
     /tmp/ccx6PcDB.s:805    .bss.dbg_trace_buffer:00000000 $d
     /tmp/ccx6PcDB.s:812    .rodata.str1.4:00000000 $d
     /tmp/ccx6PcDB.s:846    .bss.dbg_lock_cnt:00000000 $d
     /tmp/ccx6PcDB.s:853    .bss.dbg_panic_msg:00000000 $d
                     .debug_frame:00000010 $d
     /tmp/ccx6PcDB.s:71     .text.dbg_check_disable:00000028 $t
     /tmp/ccx6PcDB.s:123    .text.dbg_check_suspend:00000028 $t
     /tmp/ccx6PcDB.s:175    .text.dbg_check_enable:00000028 $t
ARM GAS  /tmp/ccx6PcDB.s 			page 62


     /tmp/ccx6PcDB.s:293    .text.dbg_check_unlock:00000038 $t
     /tmp/ccx6PcDB.s:413    .text.dbg_check_unlock_from_isr:00000038 $t
     /tmp/ccx6PcDB.s:621    .text.chDbgCheckClassI:0000002c $t
     /tmp/ccx6PcDB.s:672    .text.chDbgCheckClassS:0000002c $t
     /tmp/ccx6PcDB.s:767    .text.dbg_trace:00000044 $t

UNDEFINED SYMBOLS
port_halt
vtlist
rlist
