ARM GAS  /tmp/ccx6PcDB.s 			page 1


   1              		.syntax unified
   2              		.cpu cortex-m3
   3              		.fpu softvfp
   4              		.eabi_attribute 20, 1
   5              		.eabi_attribute 21, 1
   6              		.eabi_attribute 23, 3
   7              		.eabi_attribute 24, 1
   8              		.eabi_attribute 25, 1
   9              		.eabi_attribute 26, 1
  10              		.eabi_attribute 30, 2
  11              		.eabi_attribute 34, 1
  12              		.eabi_attribute 18, 4
  13              		.thumb
  14              		.file	"chdebug.c"
  15              		.text
  16              	.Ltext0:
  17              		.cfi_sections	.debug_frame
  18              		.section	.text.dbg_check_disable,"ax",%progbits
  19              		.align	2
  20              		.p2align 4,,15
  21              		.global	dbg_check_disable
  22              		.thumb
  23              		.thumb_func
  24              		.type	dbg_check_disable, %function
  25              	dbg_check_disable:
  26              	.LFB7:
  27              		.file 1 "../../ChibiOS/os/kernel/src/chdebug.c"
  28              		.loc 1 74 0
  29              		.cfi_startproc
  30              		@ args = 0, pretend = 0, frame = 0
  31              		@ frame_needed = 0, uses_anonymous_args = 0
  32              		@ link register save eliminated.
  33              		.loc 1 76 0
  34 0000 0548     		ldr	r0, .L5
  35 0002 0368     		ldr	r3, [r0, #0]
  36 0004 13B9     		cbnz	r3, .L2
  37              		.loc 1 76 0 is_stmt 0 discriminator 1
  38 0006 054A     		ldr	r2, .L5+4
  39 0008 1168     		ldr	r1, [r2, #0]
  40 000a 21B1     		cbz	r1, .L1
  41              	.L2:
  42              	.LVL0:
  43              	.LBB28:
  44              	.LBB29:
  45              		.loc 1 266 0 is_stmt 1
  46 000c 0448     		ldr	r0, .L5+8
  47 000e 054B     		ldr	r3, .L5+12
  48 0010 1860     		str	r0, [r3, #0]
  49              	.LBE29:
  50              	.LBE28:
  51              		.loc 1 78 0
  52              	.LBB31:
  53              	.LBB30:
  54              		.loc 1 267 0
  55 0012 FFF7FEBF 		b	port_halt
  56              	.LVL1:
  57              	.L1:
ARM GAS  /tmp/ccx6PcDB.s 			page 2


  58 0016 7047     		bx	lr
  59              	.L6:
  60              		.align	2
  61              	.L5:
  62 0018 00000000 		.word	.LANCHOR0
  63 001c 00000000 		.word	.LANCHOR1
  64 0020 00000000 		.word	.LC0
  65 0024 00000000 		.word	.LANCHOR2
  66              	.LBE30:
  67              	.LBE31:
  68              		.cfi_endproc
  69              	.LFE7:
  70              		.size	dbg_check_disable, .-dbg_check_disable
  71 0028 AFF30080 		.section	.text.dbg_check_suspend,"ax",%progbits
  71      AFF30080 
  72              		.align	2
  73              		.p2align 4,,15
  74              		.global	dbg_check_suspend
  75              		.thumb
  76              		.thumb_func
  77              		.type	dbg_check_suspend, %function
  78              	dbg_check_suspend:
  79              	.LFB8:
  80              		.loc 1 85 0
  81              		.cfi_startproc
  82              		@ args = 0, pretend = 0, frame = 0
  83              		@ frame_needed = 0, uses_anonymous_args = 0
  84              		@ link register save eliminated.
  85              		.loc 1 87 0
  86 0000 0548     		ldr	r0, .L10
  87 0002 0368     		ldr	r3, [r0, #0]
  88 0004 13B9     		cbnz	r3, .L8
  89              		.loc 1 87 0 is_stmt 0 discriminator 1
  90 0006 054A     		ldr	r2, .L10+4
  91 0008 1168     		ldr	r1, [r2, #0]
  92 000a 21B1     		cbz	r1, .L7
  93              	.L8:
  94              	.LVL2:
  95              	.LBB32:
  96              	.LBB33:
  97              		.loc 1 266 0 is_stmt 1
  98 000c 0448     		ldr	r0, .L10+8
  99 000e 054B     		ldr	r3, .L10+12
 100 0010 1860     		str	r0, [r3, #0]
 101              	.LBE33:
 102              	.LBE32:
 103              		.loc 1 89 0
 104              	.LBB35:
 105              	.LBB34:
 106              		.loc 1 267 0
 107 0012 FFF7FEBF 		b	port_halt
 108              	.LVL3:
 109              	.L7:
 110 0016 7047     		bx	lr
 111              	.L11:
 112              		.align	2
 113              	.L10:
ARM GAS  /tmp/ccx6PcDB.s 			page 3


 114 0018 00000000 		.word	.LANCHOR0
 115 001c 00000000 		.word	.LANCHOR1
 116 0020 08000000 		.word	.LC1
 117 0024 00000000 		.word	.LANCHOR2
 118              	.LBE34:
 119              	.LBE35:
 120              		.cfi_endproc
 121              	.LFE8:
 122              		.size	dbg_check_suspend, .-dbg_check_suspend
 123 0028 AFF30080 		.section	.text.dbg_check_enable,"ax",%progbits
 123      AFF30080 
 124              		.align	2
 125              		.p2align 4,,15
 126              		.global	dbg_check_enable
 127              		.thumb
 128              		.thumb_func
 129              		.type	dbg_check_enable, %function
 130              	dbg_check_enable:
 131              	.LFB9:
 132              		.loc 1 96 0
 133              		.cfi_startproc
 134              		@ args = 0, pretend = 0, frame = 0
 135              		@ frame_needed = 0, uses_anonymous_args = 0
 136              		@ link register save eliminated.
 137              		.loc 1 98 0
 138 0000 0548     		ldr	r0, .L15
 139 0002 0368     		ldr	r3, [r0, #0]
 140 0004 13B9     		cbnz	r3, .L13
 141              		.loc 1 98 0 is_stmt 0 discriminator 1
 142 0006 054A     		ldr	r2, .L15+4
 143 0008 1168     		ldr	r1, [r2, #0]
 144 000a 21B1     		cbz	r1, .L12
 145              	.L13:
 146              	.LVL4:
 147              	.LBB36:
 148              	.LBB37:
 149              		.loc 1 266 0 is_stmt 1
 150 000c 0448     		ldr	r0, .L15+8
 151 000e 054B     		ldr	r3, .L15+12
 152 0010 1860     		str	r0, [r3, #0]
 153              	.LBE37:
 154              	.LBE36:
 155              		.loc 1 100 0
 156              	.LBB39:
 157              	.LBB38:
 158              		.loc 1 267 0
 159 0012 FFF7FEBF 		b	port_halt
 160              	.LVL5:
 161              	.L12:
 162 0016 7047     		bx	lr
 163              	.L16:
 164              		.align	2
 165              	.L15:
 166 0018 00000000 		.word	.LANCHOR0
 167 001c 00000000 		.word	.LANCHOR1
 168 0020 10000000 		.word	.LC2
 169 0024 00000000 		.word	.LANCHOR2
ARM GAS  /tmp/ccx6PcDB.s 			page 4


 170              	.LBE38:
 171              	.LBE39:
 172              		.cfi_endproc
 173              	.LFE9:
 174              		.size	dbg_check_enable, .-dbg_check_enable
 175 0028 AFF30080 		.section	.text.dbg_check_lock,"ax",%progbits
 175      AFF30080 
 176              		.align	2
 177              		.p2align 4,,15
 178              		.global	dbg_check_lock
 179              		.thumb
 180              		.thumb_func
 181              		.type	dbg_check_lock, %function
 182              	dbg_check_lock:
 183              	.LFB10:
 184              		.loc 1 107 0
 185              		.cfi_startproc
 186              		@ args = 0, pretend = 0, frame = 0
 187              		@ frame_needed = 0, uses_anonymous_args = 0
 188              		.loc 1 109 0
 189 0000 0748     		ldr	r0, .L22
 190              		.loc 1 107 0
 191 0002 10B5     		push	{r4, lr}
 192              	.LCFI0:
 193              		.cfi_def_cfa_offset 8
 194              		.cfi_offset 14, -4
 195              		.cfi_offset 4, -8
 196              		.loc 1 109 0
 197 0004 0368     		ldr	r3, [r0, #0]
 198 0006 074C     		ldr	r4, .L22+4
 199 0008 0BB9     		cbnz	r3, .L18
 200              		.loc 1 109 0 is_stmt 0 discriminator 1
 201 000a 2168     		ldr	r1, [r4, #0]
 202 000c 21B1     		cbz	r1, .L19
 203              	.L18:
 204              	.LVL6:
 205              	.LBB40:
 206              	.LBB41:
 207              		.loc 1 266 0 is_stmt 1
 208 000e 064A     		ldr	r2, .L22+8
 209 0010 064B     		ldr	r3, .L22+12
 210 0012 1A60     		str	r2, [r3, #0]
 211              		.loc 1 267 0
 212 0014 FFF7FEFF 		bl	port_halt
 213              	.LVL7:
 214              	.L19:
 215              	.LBE41:
 216              	.LBE40:
 217              		.loc 1 111 0
 218 0018 0120     		movs	r0, #1
 219 001a 2060     		str	r0, [r4, #0]
 220              		.loc 1 112 0
 221 001c 10BD     		pop	{r4, pc}
 222              	.L23:
 223 001e 00BF     		.align	2
 224              	.L22:
 225 0020 00000000 		.word	.LANCHOR0
ARM GAS  /tmp/ccx6PcDB.s 			page 5


 226 0024 00000000 		.word	.LANCHOR1
 227 0028 18000000 		.word	.LC3
 228 002c 00000000 		.word	.LANCHOR2
 229              		.cfi_endproc
 230              	.LFE10:
 231              		.size	dbg_check_lock, .-dbg_check_lock
 232              		.section	.text.dbg_check_unlock,"ax",%progbits
 233              		.align	2
 234              		.p2align 4,,15
 235              		.global	dbg_check_unlock
 236              		.thumb
 237              		.thumb_func
 238              		.type	dbg_check_unlock, %function
 239              	dbg_check_unlock:
 240              	.LFB11:
 241              		.loc 1 119 0
 242              		.cfi_startproc
 243              		@ args = 0, pretend = 0, frame = 0
 244              		@ frame_needed = 0, uses_anonymous_args = 0
 245              		.loc 1 121 0
 246 0000 0948     		ldr	r0, .L29
 247              		.loc 1 119 0
 248 0002 10B5     		push	{r4, lr}
 249              	.LCFI1:
 250              		.cfi_def_cfa_offset 8
 251              		.cfi_offset 14, -4
 252              		.cfi_offset 4, -8
 253              		.loc 1 121 0
 254 0004 0368     		ldr	r3, [r0, #0]
 255 0006 094C     		ldr	r4, .L29+4
 256 0008 2BB9     		cbnz	r3, .L25
 257              		.loc 1 121 0 is_stmt 0 discriminator 1
 258 000a 2168     		ldr	r1, [r4, #0]
 259 000c 0029     		cmp	r1, #0
 260 000e 02DD     		ble	.L25
 261              		.loc 1 123 0 is_stmt 1
 262 0010 0020     		movs	r0, #0
 263 0012 2060     		str	r0, [r4, #0]
 264              		.loc 1 124 0
 265 0014 10BD     		pop	{r4, pc}
 266              	.L25:
 267              	.LVL8:
 268              	.LBB42:
 269              	.LBB43:
 270              		.loc 1 266 0
 271 0016 064A     		ldr	r2, .L29+8
 272 0018 064B     		ldr	r3, .L29+12
 273 001a 1A60     		str	r2, [r3, #0]
 274              		.loc 1 267 0
 275 001c FFF7FEFF 		bl	port_halt
 276              	.LBE43:
 277              	.LBE42:
 278              		.loc 1 123 0
 279 0020 0020     		movs	r0, #0
 280 0022 2060     		str	r0, [r4, #0]
 281              		.loc 1 124 0
 282 0024 10BD     		pop	{r4, pc}
ARM GAS  /tmp/ccx6PcDB.s 			page 6


 283              	.L30:
 284 0026 00BF     		.align	2
 285              	.L29:
 286 0028 00000000 		.word	.LANCHOR0
 287 002c 00000000 		.word	.LANCHOR1
 288 0030 20000000 		.word	.LC4
 289 0034 00000000 		.word	.LANCHOR2
 290              		.cfi_endproc
 291              	.LFE11:
 292              		.size	dbg_check_unlock, .-dbg_check_unlock
 293 0038 AFF30080 		.section	.text.dbg_check_lock_from_isr,"ax",%progbits
 293      AFF30080 
 294              		.align	2
 295              		.p2align 4,,15
 296              		.global	dbg_check_lock_from_isr
 297              		.thumb
 298              		.thumb_func
 299              		.type	dbg_check_lock_from_isr, %function
 300              	dbg_check_lock_from_isr:
 301              	.LFB12:
 302              		.loc 1 131 0
 303              		.cfi_startproc
 304              		@ args = 0, pretend = 0, frame = 0
 305              		@ frame_needed = 0, uses_anonymous_args = 0
 306              		.loc 1 133 0
 307 0000 0748     		ldr	r0, .L36
 308              		.loc 1 131 0
 309 0002 10B5     		push	{r4, lr}
 310              	.LCFI2:
 311              		.cfi_def_cfa_offset 8
 312              		.cfi_offset 14, -4
 313              		.cfi_offset 4, -8
 314              		.loc 1 133 0
 315 0004 0368     		ldr	r3, [r0, #0]
 316 0006 074C     		ldr	r4, .L36+4
 317 0008 002B     		cmp	r3, #0
 318 000a 01DD     		ble	.L32
 319              		.loc 1 133 0 is_stmt 0 discriminator 1
 320 000c 2168     		ldr	r1, [r4, #0]
 321 000e 21B1     		cbz	r1, .L33
 322              	.L32:
 323              	.LVL9:
 324              	.LBB44:
 325              	.LBB45:
 326              		.loc 1 266 0 is_stmt 1
 327 0010 054A     		ldr	r2, .L36+8
 328 0012 064B     		ldr	r3, .L36+12
 329 0014 1A60     		str	r2, [r3, #0]
 330              		.loc 1 267 0
 331 0016 FFF7FEFF 		bl	port_halt
 332              	.LVL10:
 333              	.L33:
 334              	.LBE45:
 335              	.LBE44:
 336              		.loc 1 135 0
 337 001a 0120     		movs	r0, #1
 338 001c 2060     		str	r0, [r4, #0]
ARM GAS  /tmp/ccx6PcDB.s 			page 7


 339              		.loc 1 136 0
 340 001e 10BD     		pop	{r4, pc}
 341              	.L37:
 342              		.align	2
 343              	.L36:
 344 0020 00000000 		.word	.LANCHOR0
 345 0024 00000000 		.word	.LANCHOR1
 346 0028 28000000 		.word	.LC5
 347 002c 00000000 		.word	.LANCHOR2
 348              		.cfi_endproc
 349              	.LFE12:
 350              		.size	dbg_check_lock_from_isr, .-dbg_check_lock_from_isr
 351              		.section	.text.dbg_check_unlock_from_isr,"ax",%progbits
 352              		.align	2
 353              		.p2align 4,,15
 354              		.global	dbg_check_unlock_from_isr
 355              		.thumb
 356              		.thumb_func
 357              		.type	dbg_check_unlock_from_isr, %function
 358              	dbg_check_unlock_from_isr:
 359              	.LFB13:
 360              		.loc 1 143 0
 361              		.cfi_startproc
 362              		@ args = 0, pretend = 0, frame = 0
 363              		@ frame_needed = 0, uses_anonymous_args = 0
 364              		.loc 1 145 0
 365 0000 0948     		ldr	r0, .L43
 366              		.loc 1 143 0
 367 0002 10B5     		push	{r4, lr}
 368              	.LCFI3:
 369              		.cfi_def_cfa_offset 8
 370              		.cfi_offset 14, -4
 371              		.cfi_offset 4, -8
 372              		.loc 1 145 0
 373 0004 0368     		ldr	r3, [r0, #0]
 374 0006 094C     		ldr	r4, .L43+4
 375 0008 002B     		cmp	r3, #0
 376 000a 05DD     		ble	.L39
 377              		.loc 1 145 0 is_stmt 0 discriminator 1
 378 000c 2168     		ldr	r1, [r4, #0]
 379 000e 0029     		cmp	r1, #0
 380 0010 02DD     		ble	.L39
 381              		.loc 1 147 0 is_stmt 1
 382 0012 0020     		movs	r0, #0
 383 0014 2060     		str	r0, [r4, #0]
 384              		.loc 1 148 0
 385 0016 10BD     		pop	{r4, pc}
 386              	.L39:
 387              	.LVL11:
 388              	.LBB46:
 389              	.LBB47:
 390              		.loc 1 266 0
 391 0018 054A     		ldr	r2, .L43+8
 392 001a 064B     		ldr	r3, .L43+12
 393 001c 1A60     		str	r2, [r3, #0]
 394              		.loc 1 267 0
 395 001e FFF7FEFF 		bl	port_halt
ARM GAS  /tmp/ccx6PcDB.s 			page 8


 396              	.LBE47:
 397              	.LBE46:
 398              		.loc 1 147 0
 399 0022 0020     		movs	r0, #0
 400 0024 2060     		str	r0, [r4, #0]
 401              		.loc 1 148 0
 402 0026 10BD     		pop	{r4, pc}
 403              	.L44:
 404              		.align	2
 405              	.L43:
 406 0028 00000000 		.word	.LANCHOR0
 407 002c 00000000 		.word	.LANCHOR1
 408 0030 30000000 		.word	.LC6
 409 0034 00000000 		.word	.LANCHOR2
 410              		.cfi_endproc
 411              	.LFE13:
 412              		.size	dbg_check_unlock_from_isr, .-dbg_check_unlock_from_isr
 413 0038 AFF30080 		.section	.text.dbg_check_enter_isr,"ax",%progbits
 413      AFF30080 
 414              		.align	2
 415              		.p2align 4,,15
 416              		.global	dbg_check_enter_isr
 417              		.thumb
 418              		.thumb_func
 419              		.type	dbg_check_enter_isr, %function
 420              	dbg_check_enter_isr:
 421              	.LFB14:
 422              		.loc 1 155 0
 423              		.cfi_startproc
 424              		@ args = 0, pretend = 0, frame = 0
 425              		@ frame_needed = 0, uses_anonymous_args = 0
 426 0000 10B5     		push	{r4, lr}
 427              	.LCFI4:
 428              		.cfi_def_cfa_offset 8
 429              		.cfi_offset 14, -4
 430              		.cfi_offset 4, -8
 431              	.LBB48:
 432              		.loc 1 157 0
 433 0002 2023     		movs	r3, #32
 434              	.LVL12:
 435              	@ 157 "../../ChibiOS/os/kernel/src/chdebug.c" 1
 436 0004 83F31188 		msr     BASEPRI, r3
 437              	@ 0 "" 2
 438              	.LVL13:
 439              		.thumb
 440              	.LBE48:
 441              		.loc 1 158 0
 442 0008 094C     		ldr	r4, .L48
 443 000a 2368     		ldr	r3, [r4, #0]
 444              	.LVL14:
 445 000c 002B     		cmp	r3, #0
 446 000e 02DB     		blt	.L46
 447              		.loc 1 158 0 is_stmt 0 discriminator 1
 448 0010 0848     		ldr	r0, .L48+4
 449 0012 0268     		ldr	r2, [r0, #0]
 450 0014 2AB1     		cbz	r2, .L47
 451              	.L46:
ARM GAS  /tmp/ccx6PcDB.s 			page 9


 452              	.LVL15:
 453              	.LBB49:
 454              	.LBB50:
 455              		.loc 1 266 0 is_stmt 1
 456 0016 084B     		ldr	r3, .L48+8
 457 0018 0849     		ldr	r1, .L48+12
 458 001a 1960     		str	r1, [r3, #0]
 459              		.loc 1 267 0
 460 001c FFF7FEFF 		bl	port_halt
 461 0020 2368     		ldr	r3, [r4, #0]
 462              	.LVL16:
 463              	.L47:
 464              	.LBE50:
 465              	.LBE49:
 466              		.loc 1 160 0
 467 0022 5A1C     		adds	r2, r3, #1
 468 0024 2260     		str	r2, [r4, #0]
 469              	.LBB51:
 470              		.loc 1 161 0
 471 0026 0023     		movs	r3, #0
 472              	.LVL17:
 473              	@ 161 "../../ChibiOS/os/kernel/src/chdebug.c" 1
 474 0028 83F31188 		msr     BASEPRI, r3
 475              	@ 0 "" 2
 476              	.LVL18:
 477              		.thumb
 478              	.LBE51:
 479              		.loc 1 162 0
 480 002c 10BD     		pop	{r4, pc}
 481              	.L49:
 482 002e 00BF     		.align	2
 483              	.L48:
 484 0030 00000000 		.word	.LANCHOR0
 485 0034 00000000 		.word	.LANCHOR1
 486 0038 00000000 		.word	.LANCHOR2
 487 003c 38000000 		.word	.LC7
 488              		.cfi_endproc
 489              	.LFE14:
 490              		.size	dbg_check_enter_isr, .-dbg_check_enter_isr
 491              		.section	.text.dbg_check_leave_isr,"ax",%progbits
 492              		.align	2
 493              		.p2align 4,,15
 494              		.global	dbg_check_leave_isr
 495              		.thumb
 496              		.thumb_func
 497              		.type	dbg_check_leave_isr, %function
 498              	dbg_check_leave_isr:
 499              	.LFB15:
 500              		.loc 1 169 0
 501              		.cfi_startproc
 502              		@ args = 0, pretend = 0, frame = 0
 503              		@ frame_needed = 0, uses_anonymous_args = 0
 504 0000 10B5     		push	{r4, lr}
 505              	.LCFI5:
 506              		.cfi_def_cfa_offset 8
 507              		.cfi_offset 14, -4
 508              		.cfi_offset 4, -8
ARM GAS  /tmp/ccx6PcDB.s 			page 10


 509              	.LBB52:
 510              		.loc 1 171 0
 511 0002 2023     		movs	r3, #32
 512              	.LVL19:
 513              	@ 171 "../../ChibiOS/os/kernel/src/chdebug.c" 1
 514 0004 83F31188 		msr     BASEPRI, r3
 515              	@ 0 "" 2
 516              	.LVL20:
 517              		.thumb
 518              	.LBE52:
 519              		.loc 1 172 0
 520 0008 094C     		ldr	r4, .L53
 521 000a 2368     		ldr	r3, [r4, #0]
 522              	.LVL21:
 523 000c 002B     		cmp	r3, #0
 524 000e 02DD     		ble	.L51
 525              		.loc 1 172 0 is_stmt 0 discriminator 1
 526 0010 0848     		ldr	r0, .L53+4
 527 0012 0268     		ldr	r2, [r0, #0]
 528 0014 2AB1     		cbz	r2, .L52
 529              	.L51:
 530              	.LVL22:
 531              	.LBB53:
 532              	.LBB54:
 533              		.loc 1 266 0 is_stmt 1
 534 0016 084B     		ldr	r3, .L53+8
 535 0018 0849     		ldr	r1, .L53+12
 536 001a 1960     		str	r1, [r3, #0]
 537              		.loc 1 267 0
 538 001c FFF7FEFF 		bl	port_halt
 539 0020 2368     		ldr	r3, [r4, #0]
 540              	.LVL23:
 541              	.L52:
 542              	.LBE54:
 543              	.LBE53:
 544              		.loc 1 174 0
 545 0022 5A1E     		subs	r2, r3, #1
 546 0024 2260     		str	r2, [r4, #0]
 547              	.LBB55:
 548              		.loc 1 175 0
 549 0026 0023     		movs	r3, #0
 550              	.LVL24:
 551              	@ 175 "../../ChibiOS/os/kernel/src/chdebug.c" 1
 552 0028 83F31188 		msr     BASEPRI, r3
 553              	@ 0 "" 2
 554              	.LVL25:
 555              		.thumb
 556              	.LBE55:
 557              		.loc 1 176 0
 558 002c 10BD     		pop	{r4, pc}
 559              	.L54:
 560 002e 00BF     		.align	2
 561              	.L53:
 562 0030 00000000 		.word	.LANCHOR0
 563 0034 00000000 		.word	.LANCHOR1
 564 0038 00000000 		.word	.LANCHOR2
 565 003c 40000000 		.word	.LC8
ARM GAS  /tmp/ccx6PcDB.s 			page 11


 566              		.cfi_endproc
 567              	.LFE15:
 568              		.size	dbg_check_leave_isr, .-dbg_check_leave_isr
 569              		.section	.text.chDbgCheckClassI,"ax",%progbits
 570              		.align	2
 571              		.p2align 4,,15
 572              		.global	chDbgCheckClassI
 573              		.thumb
 574              		.thumb_func
 575              		.type	chDbgCheckClassI, %function
 576              	chDbgCheckClassI:
 577              	.LFB16:
 578              		.loc 1 186 0
 579              		.cfi_startproc
 580              		@ args = 0, pretend = 0, frame = 0
 581              		@ frame_needed = 0, uses_anonymous_args = 0
 582              		@ link register save eliminated.
 583              		.loc 1 188 0
 584 0000 0648     		ldr	r0, .L58
 585 0002 0368     		ldr	r3, [r0, #0]
 586 0004 002B     		cmp	r3, #0
 587 0006 04DB     		blt	.L56
 588              		.loc 1 188 0 is_stmt 0 discriminator 1
 589 0008 054A     		ldr	r2, .L58+4
 590 000a 1168     		ldr	r1, [r2, #0]
 591 000c 0029     		cmp	r1, #0
 592 000e 00DD     		ble	.L56
 593 0010 7047     		bx	lr
 594              	.L56:
 595              	.LVL26:
 596              	.LBB56:
 597              	.LBB57:
 598              		.loc 1 266 0 is_stmt 1
 599 0012 0448     		ldr	r0, .L58+8
 600 0014 044B     		ldr	r3, .L58+12
 601 0016 1860     		str	r0, [r3, #0]
 602              	.LBE57:
 603              	.LBE56:
 604              		.loc 1 190 0
 605              	.LBB59:
 606              	.LBB58:
 607              		.loc 1 267 0
 608 0018 FFF7FEBF 		b	port_halt
 609              	.L59:
 610              		.align	2
 611              	.L58:
 612 001c 00000000 		.word	.LANCHOR0
 613 0020 00000000 		.word	.LANCHOR1
 614 0024 48000000 		.word	.LC9
 615 0028 00000000 		.word	.LANCHOR2
 616              	.LBE58:
 617              	.LBE59:
 618              		.cfi_endproc
 619              	.LFE16:
 620              		.size	chDbgCheckClassI, .-chDbgCheckClassI
 621 002c AFF30080 		.section	.text.chDbgCheckClassS,"ax",%progbits
 622              		.align	2
ARM GAS  /tmp/ccx6PcDB.s 			page 12


 623              		.p2align 4,,15
 624              		.global	chDbgCheckClassS
 625              		.thumb
 626              		.thumb_func
 627              		.type	chDbgCheckClassS, %function
 628              	chDbgCheckClassS:
 629              	.LFB17:
 630              		.loc 1 200 0
 631              		.cfi_startproc
 632              		@ args = 0, pretend = 0, frame = 0
 633              		@ frame_needed = 0, uses_anonymous_args = 0
 634              		@ link register save eliminated.
 635              		.loc 1 202 0
 636 0000 0648     		ldr	r0, .L63
 637 0002 0368     		ldr	r3, [r0, #0]
 638 0004 23B9     		cbnz	r3, .L61
 639              		.loc 1 202 0 is_stmt 0 discriminator 1
 640 0006 064A     		ldr	r2, .L63+4
 641 0008 1168     		ldr	r1, [r2, #0]
 642 000a 0029     		cmp	r1, #0
 643 000c 00DD     		ble	.L61
 644 000e 7047     		bx	lr
 645              	.L61:
 646              	.LVL27:
 647              	.LBB60:
 648              	.LBB61:
 649              		.loc 1 266 0 is_stmt 1
 650 0010 0448     		ldr	r0, .L63+8
 651 0012 054B     		ldr	r3, .L63+12
 652 0014 1860     		str	r0, [r3, #0]
 653              	.LBE61:
 654              	.LBE60:
 655              		.loc 1 204 0
 656              	.LBB63:
 657              	.LBB62:
 658              		.loc 1 267 0
 659 0016 FFF7FEBF 		b	port_halt
 660              	.L64:
 661 001a 00BF     		.align	2
 662              	.L63:
 663 001c 00000000 		.word	.LANCHOR0
 664 0020 00000000 		.word	.LANCHOR1
 665 0024 50000000 		.word	.LC10
 666 0028 00000000 		.word	.LANCHOR2
 667              	.LBE62:
 668              	.LBE63:
 669              		.cfi_endproc
 670              	.LFE17:
 671              		.size	chDbgCheckClassS, .-chDbgCheckClassS
 672 002c AFF30080 		.section	.text._trace_init,"ax",%progbits
 673              		.align	2
 674              		.p2align 4,,15
 675              		.global	_trace_init
 676              		.thumb
 677              		.thumb_func
 678              		.type	_trace_init, %function
 679              	_trace_init:
ARM GAS  /tmp/ccx6PcDB.s 			page 13


 680              	.LFB18:
 681              		.loc 1 222 0
 682              		.cfi_startproc
 683              		@ args = 0, pretend = 0, frame = 0
 684              		@ frame_needed = 0, uses_anonymous_args = 0
 685              		@ link register save eliminated.
 686              		.loc 1 224 0
 687 0000 40F20003 		movw	r3, #:lower16:.LANCHOR3
 688 0004 C0F20003 		movt	r3, #:upper16:.LANCHOR3
 689 0008 1A46     		mov	r2, r3
 690 000a 4021     		movs	r1, #64
 691 000c 42F8081B 		str	r1, [r2], #8
 692              		.loc 1 225 0
 693 0010 5A60     		str	r2, [r3, #4]
 694              		.loc 1 226 0
 695 0012 7047     		bx	lr
 696              		.cfi_endproc
 697              	.LFE18:
 698              		.size	_trace_init, .-_trace_init
 699 0014 AFF30080 		.section	.text.dbg_trace,"ax",%progbits
 699      AFF30080 
 699      AFF30080 
 700              		.align	2
 701              		.p2align 4,,15
 702              		.global	dbg_trace
 703              		.thumb
 704              		.thumb_func
 705              		.type	dbg_trace, %function
 706              	dbg_trace:
 707              	.LFB19:
 708              		.loc 1 235 0
 709              		.cfi_startproc
 710              		@ args = 0, pretend = 0, frame = 0
 711              		@ frame_needed = 0, uses_anonymous_args = 0
 712              		@ link register save eliminated.
 713              	.LVL28:
 714 0000 10B4     		push	{r4}
 715              	.LCFI6:
 716              		.cfi_def_cfa_offset 4
 717              		.cfi_offset 4, -4
 718              		.loc 1 237 0
 719 0002 0D4A     		ldr	r2, .L68
 720 0004 0D4C     		ldr	r4, .L68+4
 721              		.loc 1 238 0
 722 0006 0E49     		ldr	r1, .L68+8
 723              		.loc 1 237 0
 724 0008 5368     		ldr	r3, [r2, #4]
 725 000a E468     		ldr	r4, [r4, #12]
 726              		.loc 1 238 0
 727 000c 8969     		ldr	r1, [r1, #24]
 728              		.loc 1 237 0
 729 000e 1C60     		str	r4, [r3, #0]
 730              		.loc 1 238 0
 731 0010 5960     		str	r1, [r3, #4]
 732              		.loc 1 239 0
 733 0012 846A     		ldr	r4, [r0, #40]
 734              		.loc 1 241 0
ARM GAS  /tmp/ccx6PcDB.s 			page 14


 735 0014 03F11001 		add	r1, r3, #16
 736              		.loc 1 239 0
 737 0018 9C60     		str	r4, [r3, #8]
 738              		.loc 1 240 0
 739 001a 90F82040 		ldrb	r4, [r0, #32]	@ zero_extendqisi2
 740              		.loc 1 242 0
 741 001e 02F58160 		add	r0, r2, #1032
 742              	.LVL29:
 743              		.loc 1 241 0
 744 0022 8142     		cmp	r1, r0
 745              		.loc 1 240 0
 746 0024 1C73     		strb	r4, [r3, #12]
 747              		.loc 1 243 0
 748 0026 28BF     		it	cs
 749 0028 02F10803 		addcs	r3, r2, #8
 750              		.loc 1 241 0
 751 002c 5160     		str	r1, [r2, #4]
 752              		.loc 1 243 0
 753 002e 28BF     		it	cs
 754 0030 5360     		strcs	r3, [r2, #4]
 755              		.loc 1 244 0
 756 0032 10BC     		pop	{r4}
 757 0034 7047     		bx	lr
 758              	.L69:
 759 0036 00BF     		.align	2
 760              	.L68:
 761 0038 00000000 		.word	.LANCHOR3
 762 003c 00000000 		.word	vtlist
 763 0040 00000000 		.word	rlist
 764              		.cfi_endproc
 765              	.LFE19:
 766              		.size	dbg_trace, .-dbg_trace
 767 0044 AFF30080 		.section	.text.chDbgPanic,"ax",%progbits
 767      AFF30080 
 767      AFF30080 
 768              		.align	2
 769              		.p2align 4,,15
 770              		.global	chDbgPanic
 771              		.thumb
 772              		.thumb_func
 773              		.type	chDbgPanic, %function
 774              	chDbgPanic:
 775              	.LFB20:
 776              		.loc 1 264 0
 777              		.cfi_startproc
 778              		@ args = 0, pretend = 0, frame = 0
 779              		@ frame_needed = 0, uses_anonymous_args = 0
 780              		@ link register save eliminated.
 781              	.LVL30:
 782              		.loc 1 266 0
 783 0000 40F20003 		movw	r3, #:lower16:.LANCHOR2
 784 0004 C0F20003 		movt	r3, #:upper16:.LANCHOR2
 785 0008 1860     		str	r0, [r3, #0]
 786              		.loc 1 268 0
 787              		.loc 1 267 0
 788 000a FFF7FEBF 		b	port_halt
 789              	.LVL31:
ARM GAS  /tmp/ccx6PcDB.s 			page 15


 790              		.cfi_endproc
 791              	.LFE20:
 792              		.size	chDbgPanic, .-chDbgPanic
 793              		.global	dbg_panic_msg
 794              		.global	dbg_trace_buffer
 795              		.global	dbg_lock_cnt
 796              		.global	dbg_isr_cnt
 797 000e 00BF     		.section	.bss.dbg_isr_cnt,"aw",%nobits
 798              		.align	2
 799              		.set	.LANCHOR0,. + 0
 800              		.type	dbg_isr_cnt, %object
 801              		.size	dbg_isr_cnt, 4
 802              	dbg_isr_cnt:
 803 0000 00000000 		.space	4
 804              		.section	.bss.dbg_trace_buffer,"aw",%nobits
 805              		.align	2
 806              		.set	.LANCHOR3,. + 0
 807              		.type	dbg_trace_buffer, %object
 808              		.size	dbg_trace_buffer, 1032
 809              	dbg_trace_buffer:
 810 0000 00000000 		.space	1032
 810      00000000 
 810      00000000 
 810      00000000 
 810      00000000 
 811              		.section	.rodata.str1.4,"aMS",%progbits,1
 812              		.align	2
 813              	.LC0:
 814 0000 53562331 		.ascii	"SV#1\000"
 814      00
 815 0005 000000   		.space	3
 816              	.LC1:
 817 0008 53562332 		.ascii	"SV#2\000"
 817      00
 818 000d 000000   		.space	3
 819              	.LC2:
 820 0010 53562333 		.ascii	"SV#3\000"
 820      00
 821 0015 000000   		.space	3
 822              	.LC3:
 823 0018 53562334 		.ascii	"SV#4\000"
 823      00
 824 001d 000000   		.space	3
 825              	.LC4:
 826 0020 53562335 		.ascii	"SV#5\000"
 826      00
 827 0025 000000   		.space	3
 828              	.LC5:
 829 0028 53562336 		.ascii	"SV#6\000"
 829      00
 830 002d 000000   		.space	3
 831              	.LC6:
 832 0030 53562337 		.ascii	"SV#7\000"
 832      00
 833 0035 000000   		.space	3
 834              	.LC7:
 835 0038 53562338 		.ascii	"SV#8\000"
ARM GAS  /tmp/ccx6PcDB.s 			page 16


 835      00
 836 003d 000000   		.space	3
 837              	.LC8:
 838 0040 53562339 		.ascii	"SV#9\000"
 838      00
 839 0045 000000   		.space	3
 840              	.LC9:
 841 0048 53562331 		.ascii	"SV#10\000"
 841      3000
 842 004e 0000     		.space	2
 843              	.LC10:
 844 0050 53562331 		.ascii	"SV#11\000"
 844      3100
 845 0056 0000     		.section	.bss.dbg_lock_cnt,"aw",%nobits
 846              		.align	2
 847              		.set	.LANCHOR1,. + 0
 848              		.type	dbg_lock_cnt, %object
 849              		.size	dbg_lock_cnt, 4
 850              	dbg_lock_cnt:
 851 0000 00000000 		.space	4
 852              		.section	.bss.dbg_panic_msg,"aw",%nobits
 853              		.align	2
 854              		.set	.LANCHOR2,. + 0
 855              		.type	dbg_panic_msg, %object
 856              		.size	dbg_panic_msg, 4
 857              	dbg_panic_msg:
 858 0000 00000000 		.space	4
 859              		.text
 860              	.Letext0:
 861              		.file 2 "/home/tino/ChibiStudio/tools/GNU Tools ARM Embedded/4.6 2012q2/bin/../lib/gcc/arm-none-ea
 862              		.file 3 "../../ChibiOS/os/ports/GCC/ARMCMx/chtypes.h"
 863              		.file 4 "../../ChibiOS/os/kernel/include/chlists.h"
 864              		.file 5 "../../ChibiOS/os/kernel/include/chthreads.h"
 865              		.file 6 "../../ChibiOS/os/ports/GCC/ARMCMx/chcore_v7m.h"
 866              		.file 7 "../../ChibiOS/os/kernel/include/chvt.h"
 867              		.file 8 "../../ChibiOS/os/kernel/include/chschd.h"
 868              		.file 9 "../../ChibiOS/os/kernel/include/chmtx.h"
 869              		.file 10 "../../ChibiOS/os/kernel/include/chdebug.h"