ARM GAS  /tmp/ccAAuNtT.s 			page 1


   1              		.syntax unified
   2              		.cpu cortex-m3
   3              		.fpu softvfp
   4              		.eabi_attribute 20, 1
   5              		.eabi_attribute 21, 1
   6              		.eabi_attribute 23, 3
   7              		.eabi_attribute 24, 1
   8              		.eabi_attribute 25, 1
   9              		.eabi_attribute 26, 1
  10              		.eabi_attribute 30, 2
  11              		.eabi_attribute 34, 1
  12              		.eabi_attribute 18, 4
  13              		.thumb
  14              		.file	"chdynamic.c"
  15              		.text
  16              	.Ltext0:
  17              		.cfi_sections	.debug_frame
  18              		.section	.text.chThdAddRef,"ax",%progbits
  19              		.align	2
  20              		.p2align 4,,15
  21              		.global	chThdAddRef
  22              		.thumb
  23              		.thumb_func
  24              		.type	chThdAddRef, %function
  25              	chThdAddRef:
  26              	.LFB7:
  27              		.file 1 "../../ChibiOS/os/kernel/src/chdynamic.c"
  28              		.loc 1 45 0
  29              		.cfi_startproc
  30              		@ args = 0, pretend = 0, frame = 0
  31              		@ frame_needed = 0, uses_anonymous_args = 0
  32              	.LVL0:
  33 0000 10B5     		push	{r4, lr}
  34              	.LCFI0:
  35              		.cfi_def_cfa_offset 8
  36              		.cfi_offset 14, -4
  37              		.cfi_offset 4, -8
  38              	.LBB2:
  39              		.loc 1 47 0
  40 0002 2023     		movs	r3, #32
  41              	.LVL1:
  42              	.LBE2:
  43              		.loc 1 45 0
  44 0004 0446     		mov	r4, r0
  45              	.LBB3:
  46              		.loc 1 47 0
  47              	@ 47 "../../ChibiOS/os/kernel/src/chdynamic.c" 1
  48 0006 83F31188 		msr     BASEPRI, r3
  49              	@ 0 "" 2
  50              	.LVL2:
  51              		.thumb
  52              	.LBE3:
  53 000a FFF7FEFF 		bl	dbg_check_lock
  54              	.LVL3:
  55              		.loc 1 48 0
  56 000e 94F82230 		ldrb	r3, [r4, #34]	@ zero_extendqisi2
  57 0012 FF2B     		cmp	r3, #255
ARM GAS  /tmp/ccAAuNtT.s 			page 2


  58 0014 09D0     		beq	.L4
  59              		.loc 1 49 0
  60 0016 0133     		adds	r3, r3, #1
  61 0018 84F82230 		strb	r3, [r4, #34]
  62              		.loc 1 50 0
  63 001c FFF7FEFF 		bl	dbg_check_unlock
  64              	.LBB4:
  65 0020 0023     		movs	r3, #0
  66              	.LVL4:
  67              	@ 50 "../../ChibiOS/os/kernel/src/chdynamic.c" 1
  68 0022 83F31188 		msr     BASEPRI, r3
  69              	@ 0 "" 2
  70              	.LVL5:
  71              		.thumb
  72              	.LBE4:
  73              		.loc 1 52 0
  74 0026 2046     		mov	r0, r4
  75 0028 10BD     		pop	{r4, pc}
  76              	.LVL6:
  77              	.L4:
  78              		.loc 1 48 0 discriminator 1
  79 002a 0748     		ldr	r0, .L5
  80 002c FFF7FEFF 		bl	chDbgPanic
  81 0030 94F82230 		ldrb	r3, [r4, #34]	@ zero_extendqisi2
  82              		.loc 1 49 0 discriminator 1
  83 0034 0133     		adds	r3, r3, #1
  84 0036 84F82230 		strb	r3, [r4, #34]
  85              		.loc 1 50 0 discriminator 1
  86 003a FFF7FEFF 		bl	dbg_check_unlock
  87              	.LBB5:
  88 003e 0023     		movs	r3, #0
  89              	@ 50 "../../ChibiOS/os/kernel/src/chdynamic.c" 1
  90 0040 83F31188 		msr     BASEPRI, r3
  91              	@ 0 "" 2
  92              	.LVL7:
  93              		.thumb
  94              	.LBE5:
  95              		.loc 1 52 0 discriminator 1
  96 0044 2046     		mov	r0, r4
  97 0046 10BD     		pop	{r4, pc}
  98              	.L6:
  99              		.align	2
 100              	.L5:
 101 0048 00000000 		.word	.LC0
 102              		.cfi_endproc
 103              	.LFE7:
 104              		.size	chThdAddRef, .-chThdAddRef
 105 004c AFF30080 		.section	.text.chThdRelease,"ax",%progbits
 106              		.align	2
 107              		.p2align 4,,15
 108              		.global	chThdRelease
 109              		.thumb
 110              		.thumb_func
 111              		.type	chThdRelease, %function
 112              	chThdRelease:
 113              	.LFB8:
 114              		.loc 1 67 0
ARM GAS  /tmp/ccAAuNtT.s 			page 3


 115              		.cfi_startproc
 116              		@ args = 0, pretend = 0, frame = 0
 117              		@ frame_needed = 0, uses_anonymous_args = 0
 118              	.LVL8:
 119 0000 38B5     		push	{r3, r4, r5, lr}
 120              	.LCFI1:
 121              		.cfi_def_cfa_offset 16
 122              		.cfi_offset 14, -4
 123              		.cfi_offset 5, -8
 124              		.cfi_offset 4, -12
 125              		.cfi_offset 3, -16
 126              		.loc 1 67 0
 127 0002 0446     		mov	r4, r0
 128              	.LBB6:
 129              		.loc 1 70 0
 130 0004 2023     		movs	r3, #32
 131              	.LVL9:
 132              	@ 70 "../../ChibiOS/os/kernel/src/chdynamic.c" 1
 133 0006 83F31188 		msr     BASEPRI, r3
 134              	@ 0 "" 2
 135              	.LVL10:
 136              		.thumb
 137              	.LBE6:
 138 000a FFF7FEFF 		bl	dbg_check_lock
 139              	.LVL11:
 140              		.loc 1 71 0
 141 000e 94F82250 		ldrb	r5, [r4, #34]	@ zero_extendqisi2
 142 0012 002D     		cmp	r5, #0
 143 0014 21D0     		beq	.L12
 144              	.L8:
 145              		.loc 1 72 0
 146 0016 013D     		subs	r5, r5, #1
 147 0018 EDB2     		uxtb	r5, r5
 148 001a 84F82250 		strb	r5, [r4, #34]
 149              	.LVL12:
 150              		.loc 1 73 0
 151 001e FFF7FEFF 		bl	dbg_check_unlock
 152              	.LBB7:
 153 0022 0023     		movs	r3, #0
 154              	.LVL13:
 155              	@ 73 "../../ChibiOS/os/kernel/src/chdynamic.c" 1
 156 0024 83F31188 		msr     BASEPRI, r3
 157              	@ 0 "" 2
 158              	.LVL14:
 159              		.thumb
 160              	.LBE7:
 161              		.loc 1 78 0
 162 0028 1DB9     		cbnz	r5, .L7
 163              		.loc 1 78 0 is_stmt 0 discriminator 1
 164 002a 94F82030 		ldrb	r3, [r4, #32]	@ zero_extendqisi2
 165              	.LVL15:
 166 002e 0E2B     		cmp	r3, #14
 167 0030 00D0     		beq	.L13
 168              	.LVL16:
 169              	.L7:
 170 0032 38BD     		pop	{r3, r4, r5, pc}
 171              	.LVL17:
ARM GAS  /tmp/ccAAuNtT.s 			page 4


 172              	.L13:
 173              		.loc 1 79 0 is_stmt 1
 174 0034 94F82100 		ldrb	r0, [r4, #33]	@ zero_extendqisi2
 175 0038 00F00303 		and	r3, r0, #3
 176 003c 012B     		cmp	r3, #1
 177 003e 12D0     		beq	.L10
 178 0040 022B     		cmp	r3, #2
 179 0042 F6D1     		bne	.L7
 180              		.loc 1 91 0
 181 0044 6169     		ldr	r1, [r4, #20]
 182 0046 2369     		ldr	r3, [r4, #16]
 183              		.loc 1 93 0
 184 0048 A06C     		ldr	r0, [r4, #72]
 185              		.loc 1 91 0
 186 004a 0B61     		str	r3, [r1, #16]
 187 004c 2269     		ldr	r2, [r4, #16]
 188 004e 5161     		str	r1, [r2, #20]
 189              		.loc 1 93 0
 190 0050 2146     		mov	r1, r4
 191              		.loc 1 98 0
 192 0052 BDE83840 		pop	{r3, r4, r5, lr}
 193              		.loc 1 93 0
 194 0056 FFF7FEBF 		b	chPoolFree
 195              	.LVL18:
 196              	.L12:
 197              		.loc 1 71 0 discriminator 1
 198 005a 0848     		ldr	r0, .L14
 199 005c FFF7FEFF 		bl	chDbgPanic
 200 0060 94F82250 		ldrb	r5, [r4, #34]	@ zero_extendqisi2
 201 0064 D7E7     		b	.L8
 202              	.LVL19:
 203              	.L10:
 204              		.loc 1 83 0
 205 0066 6169     		ldr	r1, [r4, #20]
 206 0068 2369     		ldr	r3, [r4, #16]
 207              		.loc 1 85 0
 208 006a 2046     		mov	r0, r4
 209              		.loc 1 83 0
 210 006c 0B61     		str	r3, [r1, #16]
 211 006e 2269     		ldr	r2, [r4, #16]
 212 0070 5161     		str	r1, [r2, #20]
 213              		.loc 1 98 0
 214 0072 BDE83840 		pop	{r3, r4, r5, lr}
 215              		.loc 1 85 0
 216 0076 FFF7FEBF 		b	chHeapFree
 217              	.L15:
 218 007a 00BF     		.align	2
 219              	.L14:
 220 007c 14000000 		.word	.LC1
 221              		.cfi_endproc
 222              	.LFE8:
 223              		.size	chThdRelease, .-chThdRelease
 224              		.section	.text.chThdCreateFromHeap,"ax",%progbits
 225              		.align	2
 226              		.p2align 4,,15
 227              		.global	chThdCreateFromHeap
 228              		.thumb
ARM GAS  /tmp/ccAAuNtT.s 			page 5


 229              		.thumb_func
 230              		.type	chThdCreateFromHeap, %function
 231              	chThdCreateFromHeap:
 232              	.LFB9:
 233              		.loc 1 124 0
 234              		.cfi_startproc
 235              		@ args = 4, pretend = 0, frame = 0
 236              		@ frame_needed = 0, uses_anonymous_args = 0
 237              	.LVL20:
 238 0000 2DE9F041 		push	{r4, r5, r6, r7, r8, lr}
 239              	.LCFI2:
 240              		.cfi_def_cfa_offset 24
 241              		.cfi_offset 14, -4
 242              		.cfi_offset 8, -8
 243              		.cfi_offset 7, -12
 244              		.cfi_offset 6, -16
 245              		.cfi_offset 5, -20
 246              		.cfi_offset 4, -24
 247 0004 82B0     		sub	sp, sp, #8
 248              	.LCFI3:
 249              		.cfi_def_cfa_offset 32
 250              		.loc 1 124 0
 251 0006 0D46     		mov	r5, r1
 252 0008 1646     		mov	r6, r2
 253 000a 1F46     		mov	r7, r3
 254              		.loc 1 128 0
 255 000c FFF7FEFF 		bl	chHeapAlloc
 256              	.LVL21:
 257 0010 0446     		mov	r4, r0
 258              	.LVL22:
 259              		.loc 1 129 0
 260 0012 18B3     		cbz	r0, .L17
 261              		.loc 1 133 0
 262 0014 00F14C08 		add	r8, r0, #76
 263 0018 4146     		mov	r1, r8
 264 001a FF22     		movs	r2, #255
 265 001c FFF7FEFF 		bl	_thread_memfill
 266              	.LVL23:
 267              		.loc 1 136 0
 268 0020 6119     		adds	r1, r4, r5
 269 0022 4046     		mov	r0, r8
 270 0024 5522     		movs	r2, #85
 271 0026 FFF7FEFF 		bl	_thread_memfill
 272              	.LBB8:
 273              		.loc 1 141 0
 274 002a 2023     		movs	r3, #32
 275              	.LVL24:
 276              	@ 141 "../../ChibiOS/os/kernel/src/chdynamic.c" 1
 277 002c 83F31188 		msr     BASEPRI, r3
 278              	@ 0 "" 2
 279              	.LVL25:
 280              		.thumb
 281              	.LBE8:
 282 0030 FFF7FEFF 		bl	dbg_check_lock
 283              	.LVL26:
 284              		.loc 1 142 0
 285 0034 2046     		mov	r0, r4
ARM GAS  /tmp/ccAAuNtT.s 			page 6


 286 0036 089C     		ldr	r4, [sp, #32]
 287              	.LVL27:
 288 0038 3246     		mov	r2, r6
 289 003a 3B46     		mov	r3, r7
 290 003c 2946     		mov	r1, r5
 291 003e 0094     		str	r4, [sp, #0]
 292 0040 FFF7FEFF 		bl	chThdCreateI
 293              	.LVL28:
 294              		.loc 1 143 0
 295 0044 0123     		movs	r3, #1
 296              		.loc 1 142 0
 297 0046 0446     		mov	r4, r0
 298              	.LVL29:
 299              		.loc 1 143 0
 300 0048 84F82130 		strb	r3, [r4, #33]
 301              		.loc 1 144 0
 302 004c 0021     		movs	r1, #0
 303 004e FFF7FEFF 		bl	chSchWakeupS
 304              	.LVL30:
 305              		.loc 1 145 0
 306 0052 FFF7FEFF 		bl	dbg_check_unlock
 307              	.LBB9:
 308 0056 0023     		movs	r3, #0
 309              	.LVL31:
 310              	@ 145 "../../ChibiOS/os/kernel/src/chdynamic.c" 1
 311 0058 83F31188 		msr     BASEPRI, r3
 312              	@ 0 "" 2
 313              	.LVL32:
 314              		.thumb
 315              	.L17:
 316              	.LBE9:
 317              		.loc 1 147 0
 318 005c 2046     		mov	r0, r4
 319 005e 02B0     		add	sp, sp, #8
 320 0060 BDE8F081 		pop	{r4, r5, r6, r7, r8, pc}
 321              		.cfi_endproc
 322              	.LFE9:
 323              		.size	chThdCreateFromHeap, .-chThdCreateFromHeap
 324 0064 AFF30080 		.section	.text.chThdCreateFromMemoryPool,"ax",%progbits
 324      AFF30080 
 324      AFF30080 
 325              		.align	2
 326              		.p2align 4,,15
 327              		.global	chThdCreateFromMemoryPool
 328              		.thumb
 329              		.thumb_func
 330              		.type	chThdCreateFromMemoryPool, %function
 331              	chThdCreateFromMemoryPool:
 332              	.LFB10:
 333              		.loc 1 173 0
 334              		.cfi_startproc
 335              		@ args = 0, pretend = 0, frame = 0
 336              		@ frame_needed = 0, uses_anonymous_args = 0
 337              	.LVL33:
 338 0000 2DE9F043 		push	{r4, r5, r6, r7, r8, r9, lr}
 339              	.LCFI4:
 340              		.cfi_def_cfa_offset 28
ARM GAS  /tmp/ccAAuNtT.s 			page 7


 341              		.cfi_offset 14, -4
 342              		.cfi_offset 9, -8
 343              		.cfi_offset 8, -12
 344              		.cfi_offset 7, -16
 345              		.cfi_offset 6, -20
 346              		.cfi_offset 5, -24
 347              		.cfi_offset 4, -28
 348 0004 0446     		mov	r4, r0
 349 0006 83B0     		sub	sp, sp, #12
 350              	.LCFI5:
 351              		.cfi_def_cfa_offset 40
 352              		.loc 1 173 0
 353 0008 0E46     		mov	r6, r1
 354 000a 1746     		mov	r7, r2
 355 000c 9846     		mov	r8, r3
 356              		.loc 1 177 0
 357 000e 0028     		cmp	r0, #0
 358 0010 2ED0     		beq	.L23
 359              	.LVL34:
 360              	.L20:
 361              		.loc 1 179 0
 362 0012 2046     		mov	r0, r4
 363 0014 FFF7FEFF 		bl	chPoolAlloc
 364 0018 0546     		mov	r5, r0
 365              	.LVL35:
 366              		.loc 1 180 0
 367 001a 28B3     		cbz	r0, .L21
 368              		.loc 1 184 0
 369 001c 00F14C09 		add	r9, r0, #76
 370 0020 4946     		mov	r1, r9
 371 0022 FF22     		movs	r2, #255
 372 0024 FFF7FEFF 		bl	_thread_memfill
 373              	.LVL36:
 374              		.loc 1 187 0
 375 0028 6168     		ldr	r1, [r4, #4]
 376 002a 4846     		mov	r0, r9
 377 002c 6918     		adds	r1, r5, r1
 378 002e 5522     		movs	r2, #85
 379 0030 FFF7FEFF 		bl	_thread_memfill
 380              	.LBB10:
 381              		.loc 1 192 0
 382 0034 2023     		movs	r3, #32
 383              	.LVL37:
 384              	@ 192 "../../ChibiOS/os/kernel/src/chdynamic.c" 1
 385 0036 83F31188 		msr     BASEPRI, r3
 386              	@ 0 "" 2
 387              	.LVL38:
 388              		.thumb
 389              	.LBE10:
 390 003a FFF7FEFF 		bl	dbg_check_lock
 391              	.LVL39:
 392              		.loc 1 193 0
 393 003e 6168     		ldr	r1, [r4, #4]
 394 0040 3246     		mov	r2, r6
 395 0042 3B46     		mov	r3, r7
 396 0044 2846     		mov	r0, r5
 397 0046 CDF80080 		str	r8, [sp, #0]
ARM GAS  /tmp/ccAAuNtT.s 			page 8


 398 004a FFF7FEFF 		bl	chThdCreateI
 399              		.loc 1 194 0
 400 004e 0223     		movs	r3, #2
 401              		.loc 1 193 0
 402 0050 0546     		mov	r5, r0
 403              	.LVL40:
 404              		.loc 1 194 0
 405 0052 85F82130 		strb	r3, [r5, #33]
 406              		.loc 1 196 0
 407 0056 0021     		movs	r1, #0
 408              		.loc 1 195 0
 409 0058 AC64     		str	r4, [r5, #72]
 410              		.loc 1 196 0
 411 005a FFF7FEFF 		bl	chSchWakeupS
 412              	.LVL41:
 413              		.loc 1 197 0
 414 005e FFF7FEFF 		bl	dbg_check_unlock
 415              	.LBB11:
 416 0062 0023     		movs	r3, #0
 417              	.LVL42:
 418              	@ 197 "../../ChibiOS/os/kernel/src/chdynamic.c" 1
 419 0064 83F31188 		msr     BASEPRI, r3
 420              	@ 0 "" 2
 421              	.LVL43:
 422              		.thumb
 423              	.L21:
 424              	.LBE11:
 425              		.loc 1 199 0
 426 0068 2846     		mov	r0, r5
 427 006a 03B0     		add	sp, sp, #12
 428 006c BDE8F083 		pop	{r4, r5, r6, r7, r8, r9, pc}
 429              	.LVL44:
 430              	.L23:
 431              		.loc 1 177 0 discriminator 1
 432 0070 0148     		ldr	r0, .L24
 433 0072 FFF7FEFF 		bl	chDbgPanic
 434 0076 CCE7     		b	.L20
 435              	.L25:
 436              		.align	2
 437              	.L24:
 438 0078 28000000 		.word	.LC2
 439              		.cfi_endproc
 440              	.LFE10:
 441              		.size	chThdCreateFromMemoryPool, .-chThdCreateFromMemoryPool
 442 007c AFF30080 		.section	.rodata.str1.4,"aMS",%progbits,1
 443              		.align	2
 444              	.LC0:
 445 0000 63685468 		.ascii	"chThdAddRef(), #1\000"
 445      64416464 
 445      52656628 
 445      292C2023 
 445      3100
 446 0012 0000     		.space	2
 447              	.LC1:
 448 0014 63685468 		.ascii	"chThdRelease(), #1\000"
 448      6452656C 
 448      65617365 
ARM GAS  /tmp/ccAAuNtT.s 			page 9


 448      28292C20 
 448      233100
 449 0027 00       		.space	1
 450              	.LC2:
 451 0028 22636854 		.ascii	"\"chThdCreateFromMemoryPool\"()\000"
 451      68644372 
 451      65617465 
 451      46726F6D 
 451      4D656D6F 
 452 0046 0000     		.text
 453              	.Letext0:
 454              		.file 2 "/home/tino/ChibiStudio/tools/GNU Tools ARM Embedded/4.6 2012q2/bin/../lib/gcc/arm-none-ea
 455              		.file 3 "/home/tino/ChibiStudio/tools/GNU Tools ARM Embedded/4.6 2012q2/bin/../lib/gcc/arm-none-ea
 456              		.file 4 "../../ChibiOS/os/ports/GCC/ARMCMx/chtypes.h"
 457              		.file 5 "../../ChibiOS/os/kernel/include/chlists.h"
 458              		.file 6 "../../ChibiOS/os/kernel/include/chthreads.h"
 459              		.file 7 "../../ChibiOS/os/ports/GCC/ARMCMx/chcore_v7m.h"
 460              		.file 8 "../../ChibiOS/os/kernel/include/chmtx.h"
 461              		.file 9 "../../ChibiOS/os/kernel/include/chmemcore.h"
 462              		.file 10 "../../ChibiOS/os/kernel/include/chheap.h"
 463              		.file 11 "../../ChibiOS/os/kernel/include/chmempools.h"