ARM GAS  /tmp/ccXG8rbk.s 			page 1


   1              		.syntax unified
   2              		.cpu cortex-m3
   3              		.fpu softvfp
   4              		.eabi_attribute 20, 1
   5              		.eabi_attribute 21, 1
   6              		.eabi_attribute 23, 3
   7              		.eabi_attribute 24, 1
   8              		.eabi_attribute 25, 1
   9              		.eabi_attribute 26, 1
  10              		.eabi_attribute 30, 2
  11              		.eabi_attribute 34, 1
  12              		.eabi_attribute 18, 4
  13              		.thumb
  14              		.file	"chevents.c"
  15              		.text
  16              	.Ltext0:
  17              		.cfi_sections	.debug_frame
  18              		.section	.text.chEvtRegisterMask,"ax",%progbits
  19              		.align	2
  20              		.p2align 4,,15
  21              		.global	chEvtRegisterMask
  22              		.thumb
  23              		.thumb_func
  24              		.type	chEvtRegisterMask, %function
  25              	chEvtRegisterMask:
  26              	.LFB7:
  27              		.file 1 "../../ChibiOS/os/kernel/src/chevents.c"
  28              		.loc 1 78 0
  29              		.cfi_startproc
  30              		@ args = 0, pretend = 0, frame = 0
  31              		@ frame_needed = 0, uses_anonymous_args = 0
  32              	.LVL0:
  33 0000 F8B5     		push	{r3, r4, r5, r6, r7, lr}
  34              	.LCFI0:
  35              		.cfi_def_cfa_offset 24
  36              		.cfi_offset 14, -4
  37              		.cfi_offset 7, -8
  38              		.cfi_offset 6, -12
  39              		.cfi_offset 5, -16
  40              		.cfi_offset 4, -20
  41              		.cfi_offset 3, -24
  42              		.loc 1 78 0
  43 0002 0446     		mov	r4, r0
  44 0004 0D46     		mov	r5, r1
  45 0006 1646     		mov	r6, r2
  46              		.loc 1 80 0
  47 0008 A0B1     		cbz	r0, .L2
  48              		.loc 1 80 0 is_stmt 0 discriminator 2
  49 000a 99B1     		cbz	r1, .L2
  50              	.LVL1:
  51              	.L3:
  52              	.LBB2:
  53              		.loc 1 82 0 is_stmt 1
  54 000c 2023     		movs	r3, #32
  55              	.LVL2:
  56              	@ 82 "../../ChibiOS/os/kernel/src/chevents.c" 1
  57 000e 83F31188 		msr     BASEPRI, r3
ARM GAS  /tmp/ccXG8rbk.s 			page 2


  58              	@ 0 "" 2
  59              	.LVL3:
  60              		.thumb
  61              	.LBE2:
  62 0012 FFF7FEFF 		bl	dbg_check_lock
  63              	.LVL4:
  64              		.loc 1 85 0
  65 0016 0948     		ldr	r0, .L5
  66              		.loc 1 83 0
  67 0018 2268     		ldr	r2, [r4, #0]
  68              		.loc 1 85 0
  69 001a 8369     		ldr	r3, [r0, #24]
  70              		.loc 1 87 0
  71 001c 0027     		movs	r7, #0
  72              		.loc 1 83 0
  73 001e 2A60     		str	r2, [r5, #0]
  74              		.loc 1 84 0
  75 0020 2560     		str	r5, [r4, #0]
  76              		.loc 1 85 0
  77 0022 6B60     		str	r3, [r5, #4]
  78              		.loc 1 86 0
  79 0024 AE60     		str	r6, [r5, #8]
  80              		.loc 1 87 0
  81 0026 EF60     		str	r7, [r5, #12]
  82              		.loc 1 88 0
  83 0028 FFF7FEFF 		bl	dbg_check_unlock
  84              	.LBB3:
  85 002c 3B46     		mov	r3, r7
  86              	.LVL5:
  87              	@ 88 "../../ChibiOS/os/kernel/src/chevents.c" 1
  88 002e 83F31188 		msr     BASEPRI, r3
  89              	@ 0 "" 2
  90              	.LVL6:
  91              		.thumb
  92              	.LBE3:
  93              		.loc 1 89 0
  94 0032 F8BD     		pop	{r3, r4, r5, r6, r7, pc}
  95              	.LVL7:
  96              	.L2:
  97              		.loc 1 80 0 discriminator 1
  98 0034 0248     		ldr	r0, .L5+4
  99 0036 FFF7FEFF 		bl	chDbgPanic
 100 003a E7E7     		b	.L3
 101              	.L6:
 102              		.align	2
 103              	.L5:
 104 003c 00000000 		.word	rlist
 105 0040 00000000 		.word	.LC0
 106              		.cfi_endproc
 107              	.LFE7:
 108              		.size	chEvtRegisterMask, .-chEvtRegisterMask
 109 0044 AFF30080 		.section	.text.chEvtUnregister,"ax",%progbits
 109      AFF30080 
 109      AFF30080 
 110              		.align	2
 111              		.p2align 4,,15
 112              		.global	chEvtUnregister
ARM GAS  /tmp/ccXG8rbk.s 			page 3


 113              		.thumb
 114              		.thumb_func
 115              		.type	chEvtUnregister, %function
 116              	chEvtUnregister:
 117              	.LFB8:
 118              		.loc 1 104 0
 119              		.cfi_startproc
 120              		@ args = 0, pretend = 0, frame = 0
 121              		@ frame_needed = 0, uses_anonymous_args = 0
 122              	.LVL8:
 123 0000 38B5     		push	{r3, r4, r5, lr}
 124              	.LCFI1:
 125              		.cfi_def_cfa_offset 16
 126              		.cfi_offset 14, -4
 127              		.cfi_offset 5, -8
 128              		.cfi_offset 4, -12
 129              		.cfi_offset 3, -16
 130              		.loc 1 104 0
 131 0002 0446     		mov	r4, r0
 132 0004 0D46     		mov	r5, r1
 133              		.loc 1 107 0
 134 0006 D8B1     		cbz	r0, .L8
 135              		.loc 1 107 0 is_stmt 0 discriminator 2
 136 0008 D1B1     		cbz	r1, .L8
 137              	.LVL9:
 138              	.L9:
 139              	.LBB4:
 140              		.loc 1 110 0 is_stmt 1
 141 000a 2023     		movs	r3, #32
 142              	.LVL10:
 143              	@ 110 "../../ChibiOS/os/kernel/src/chevents.c" 1
 144 000c 83F31188 		msr     BASEPRI, r3
 145              	@ 0 "" 2
 146              	.LVL11:
 147              		.thumb
 148              	.LBE4:
 149 0010 FFF7FEFF 		bl	dbg_check_lock
 150              	.LVL12:
 151              		.loc 1 111 0
 152 0014 2246     		mov	r2, r4
 153 0016 02E0     		b	.L10
 154              	.LVL13:
 155              	.L12:
 156              		.loc 1 112 0
 157 0018 9D42     		cmp	r5, r3
 158 001a 09D0     		beq	.L14
 159 001c 1A46     		mov	r2, r3
 160              	.LVL14:
 161              	.L10:
 162              		.loc 1 111 0 discriminator 1
 163 001e 1368     		ldr	r3, [r2, #0]
 164 0020 A342     		cmp	r3, r4
 165 0022 F9D1     		bne	.L12
 166              		.loc 1 118 0
 167 0024 FFF7FEFF 		bl	dbg_check_unlock
 168              	.LVL15:
 169              	.LBB5:
ARM GAS  /tmp/ccXG8rbk.s 			page 4


 170 0028 0023     		movs	r3, #0
 171              	.LVL16:
 172              	@ 118 "../../ChibiOS/os/kernel/src/chevents.c" 1
 173 002a 83F31188 		msr     BASEPRI, r3
 174              	@ 0 "" 2
 175              	.LVL17:
 176              		.thumb
 177              	.LBE5:
 178              		.loc 1 119 0
 179 002e 38BD     		pop	{r3, r4, r5, pc}
 180              	.LVL18:
 181              	.L14:
 182              		.loc 1 113 0
 183 0030 2B68     		ldr	r3, [r5, #0]
 184 0032 1360     		str	r3, [r2, #0]
 185              		.loc 1 118 0
 186 0034 FFF7FEFF 		bl	dbg_check_unlock
 187              	.LVL19:
 188              	.LBB6:
 189 0038 0023     		movs	r3, #0
 190              	@ 118 "../../ChibiOS/os/kernel/src/chevents.c" 1
 191 003a 83F31188 		msr     BASEPRI, r3
 192              	@ 0 "" 2
 193              	.LVL20:
 194              		.thumb
 195              	.LBE6:
 196              		.loc 1 119 0
 197 003e 38BD     		pop	{r3, r4, r5, pc}
 198              	.LVL21:
 199              	.L8:
 200              		.loc 1 107 0 discriminator 1
 201 0040 0148     		ldr	r0, .L15
 202 0042 FFF7FEFF 		bl	chDbgPanic
 203 0046 E0E7     		b	.L9
 204              	.L16:
 205              		.align	2
 206              	.L15:
 207 0048 18000000 		.word	.LC1
 208              		.cfi_endproc
 209              	.LFE8:
 210              		.size	chEvtUnregister, .-chEvtUnregister
 211 004c AFF30080 		.section	.text.chEvtGetAndClearEvents,"ax",%progbits
 212              		.align	2
 213              		.p2align 4,,15
 214              		.global	chEvtGetAndClearEvents
 215              		.thumb
 216              		.thumb_func
 217              		.type	chEvtGetAndClearEvents, %function
 218              	chEvtGetAndClearEvents:
 219              	.LFB9:
 220              		.loc 1 129 0
 221              		.cfi_startproc
 222              		@ args = 0, pretend = 0, frame = 0
 223              		@ frame_needed = 0, uses_anonymous_args = 0
 224              	.LVL22:
 225 0000 10B5     		push	{r4, lr}
 226              	.LCFI2:
ARM GAS  /tmp/ccXG8rbk.s 			page 5


 227              		.cfi_def_cfa_offset 8
 228              		.cfi_offset 14, -4
 229              		.cfi_offset 4, -8
 230              	.LBB7:
 231              		.loc 1 132 0
 232 0002 2023     		movs	r3, #32
 233              	.LVL23:
 234              	.LBE7:
 235              		.loc 1 129 0
 236 0004 0446     		mov	r4, r0
 237              	.LBB8:
 238              		.loc 1 132 0
 239              	@ 132 "../../ChibiOS/os/kernel/src/chevents.c" 1
 240 0006 83F31188 		msr     BASEPRI, r3
 241              	@ 0 "" 2
 242              	.LVL24:
 243              		.thumb
 244              	.LBE8:
 245 000a FFF7FEFF 		bl	dbg_check_lock
 246              	.LVL25:
 247              		.loc 1 134 0
 248 000e 40F20000 		movw	r0, #:lower16:rlist
 249 0012 C0F20000 		movt	r0, #:upper16:rlist
 250 0016 8269     		ldr	r2, [r0, #24]
 251 0018 D36B     		ldr	r3, [r2, #60]
 252              		.loc 1 135 0
 253 001a 23EA0401 		bic	r1, r3, r4
 254 001e D163     		str	r1, [r2, #60]
 255              		.loc 1 134 0
 256 0020 1C40     		ands	r4, r4, r3
 257              	.LVL26:
 258              		.loc 1 137 0
 259 0022 FFF7FEFF 		bl	dbg_check_unlock
 260              	.LBB9:
 261 0026 0023     		movs	r3, #0
 262              	.LVL27:
 263              	@ 137 "../../ChibiOS/os/kernel/src/chevents.c" 1
 264 0028 83F31188 		msr     BASEPRI, r3
 265              	@ 0 "" 2
 266              	.LVL28:
 267              		.thumb
 268              	.LBE9:
 269              		.loc 1 139 0
 270 002c 2046     		mov	r0, r4
 271 002e 10BD     		pop	{r4, pc}
 272              		.cfi_endproc
 273              	.LFE9:
 274              		.size	chEvtGetAndClearEvents, .-chEvtGetAndClearEvents
 275              		.section	.text.chEvtAddEvents,"ax",%progbits
 276              		.align	2
 277              		.p2align 4,,15
 278              		.global	chEvtAddEvents
 279              		.thumb
 280              		.thumb_func
 281              		.type	chEvtAddEvents, %function
 282              	chEvtAddEvents:
 283              	.LFB10:
ARM GAS  /tmp/ccXG8rbk.s 			page 6


 284              		.loc 1 150 0
 285              		.cfi_startproc
 286              		@ args = 0, pretend = 0, frame = 0
 287              		@ frame_needed = 0, uses_anonymous_args = 0
 288              	.LVL29:
 289 0000 10B5     		push	{r4, lr}
 290              	.LCFI3:
 291              		.cfi_def_cfa_offset 8
 292              		.cfi_offset 14, -4
 293              		.cfi_offset 4, -8
 294              	.LBB10:
 295              		.loc 1 152 0
 296 0002 2023     		movs	r3, #32
 297              	.LVL30:
 298              	.LBE10:
 299              		.loc 1 150 0
 300 0004 0446     		mov	r4, r0
 301              	.LBB11:
 302              		.loc 1 152 0
 303              	@ 152 "../../ChibiOS/os/kernel/src/chevents.c" 1
 304 0006 83F31188 		msr     BASEPRI, r3
 305              	@ 0 "" 2
 306              	.LVL31:
 307              		.thumb
 308              	.LBE11:
 309 000a FFF7FEFF 		bl	dbg_check_lock
 310              	.LVL32:
 311              		.loc 1 154 0
 312 000e 40F20000 		movw	r0, #:lower16:rlist
 313 0012 C0F20000 		movt	r0, #:upper16:rlist
 314 0016 8369     		ldr	r3, [r0, #24]
 315 0018 DA6B     		ldr	r2, [r3, #60]
 316 001a 1443     		orrs	r4, r4, r2
 317              	.LVL33:
 318 001c DC63     		str	r4, [r3, #60]
 319              	.LVL34:
 320              		.loc 1 156 0
 321 001e FFF7FEFF 		bl	dbg_check_unlock
 322              	.LBB12:
 323 0022 0023     		movs	r3, #0
 324              	.LVL35:
 325              	@ 156 "../../ChibiOS/os/kernel/src/chevents.c" 1
 326 0024 83F31188 		msr     BASEPRI, r3
 327              	@ 0 "" 2
 328              	.LVL36:
 329              		.thumb
 330              	.LBE12:
 331              		.loc 1 158 0
 332 0028 2046     		mov	r0, r4
 333 002a 10BD     		pop	{r4, pc}
 334              		.cfi_endproc
 335              	.LFE10:
 336              		.size	chEvtAddEvents, .-chEvtAddEvents
 337 002c AFF30080 		.section	.text.chEvtBroadcastFlagsI,"ax",%progbits
 338              		.align	2
 339              		.p2align 4,,15
 340              		.global	chEvtBroadcastFlagsI
ARM GAS  /tmp/ccXG8rbk.s 			page 7


 341              		.thumb
 342              		.thumb_func
 343              		.type	chEvtBroadcastFlagsI, %function
 344              	chEvtBroadcastFlagsI:
 345              	.LFB11:
 346              		.loc 1 177 0
 347              		.cfi_startproc
 348              		@ args = 0, pretend = 0, frame = 0
 349              		@ frame_needed = 0, uses_anonymous_args = 0
 350              	.LVL37:
 351 0000 2DE9F843 		push	{r3, r4, r5, r6, r7, r8, r9, lr}
 352              	.LCFI4:
 353              		.cfi_def_cfa_offset 32
 354              		.cfi_offset 14, -4
 355              		.cfi_offset 9, -8
 356              		.cfi_offset 8, -12
 357              		.cfi_offset 7, -16
 358              		.cfi_offset 6, -20
 359              		.cfi_offset 5, -24
 360              		.cfi_offset 4, -28
 361              		.cfi_offset 3, -32
 362              		.loc 1 177 0
 363 0004 0446     		mov	r4, r0
 364 0006 8846     		mov	r8, r1
 365              		.loc 1 180 0
 366 0008 FFF7FEFF 		bl	chDbgCheckClassI
 367              	.LVL38:
 368              		.loc 1 181 0
 369 000c 002C     		cmp	r4, #0
 370 000e 35D0     		beq	.L30
 371              	.L20:
 372              		.loc 1 183 0
 373 0010 2568     		ldr	r5, [r4, #0]
 374              	.LVL39:
 375              		.loc 1 184 0
 376 0012 AC42     		cmp	r4, r5
 377 0014 23D0     		beq	.L19
 378              	.LBB17:
 379              	.LBB18:
 380              	.LBB19:
 381              	.LBB20:
 382              		.loc 1 255 0
 383 0016 4FF00009 		mov	r9, #0
 384 001a 02E0     		b	.L27
 385              	.LVL40:
 386              	.L25:
 387              	.LBE20:
 388              	.LBE19:
 389              	.LBE18:
 390              	.LBE17:
 391              		.loc 1 187 0
 392 001c 2D68     		ldr	r5, [r5, #0]
 393              	.LVL41:
 394              		.loc 1 184 0
 395 001e AC42     		cmp	r4, r5
 396 0020 1DD0     		beq	.L19
 397              	.LVL42:
ARM GAS  /tmp/ccXG8rbk.s 			page 8


 398              	.L27:
 399              		.loc 1 185 0
 400 0022 E868     		ldr	r0, [r5, #12]
 401              		.loc 1 186 0
 402 0024 6E68     		ldr	r6, [r5, #4]
 403              		.loc 1 185 0
 404 0026 40EA0803 		orr	r3, r0, r8
 405 002a EB60     		str	r3, [r5, #12]
 406              		.loc 1 186 0
 407 002c AF68     		ldr	r7, [r5, #8]
 408              	.LVL43:
 409              	.LBB27:
 410              	.LBB25:
 411              		.loc 1 246 0
 412 002e FFF7FEFF 		bl	chDbgCheckClassI
 413              	.LVL44:
 414              		.loc 1 247 0
 415 0032 FEB1     		cbz	r6, .L31
 416              	.L22:
 417              		.loc 1 249 0
 418 0034 F26B     		ldr	r2, [r6, #60]
 419              		.loc 1 251 0
 420 0036 96F82030 		ldrb	r3, [r6, #32]	@ zero_extendqisi2
 421              		.loc 1 249 0
 422 003a 1743     		orrs	r7, r7, r2
 423              	.LVL45:
 424              		.loc 1 251 0
 425 003c 082B     		cmp	r3, #8
 426              		.loc 1 249 0
 427 003e F763     		str	r7, [r6, #60]
 428              		.loc 1 251 0
 429 0040 0FD0     		beq	.L32
 430              		.loc 1 252 0
 431 0042 092B     		cmp	r3, #9
 432 0044 EAD1     		bne	.L25
 433              		.loc 1 254 0
 434 0046 B36A     		ldr	r3, [r6, #40]
 435 0048 1F40     		ands	r7, r7, r3
 436              		.loc 1 253 0
 437 004a BB42     		cmp	r3, r7
 438 004c E6D1     		bne	.L25
 439              	.LVL46:
 440              	.LBB23:
 441              	.LBB21:
 442              		.loc 1 255 0
 443 004e 3046     		mov	r0, r6
 444 0050 FFF7FEFF 		bl	chSchReadyI
 445 0054 C0F82890 		str	r9, [r0, #40]
 446              	.L33:
 447              	.LBE21:
 448              	.LBE23:
 449              	.LBE25:
 450              	.LBE27:
 451              		.loc 1 187 0
 452 0058 2D68     		ldr	r5, [r5, #0]
 453              	.LVL47:
 454              		.loc 1 184 0
ARM GAS  /tmp/ccXG8rbk.s 			page 9


 455 005a AC42     		cmp	r4, r5
 456 005c E1D1     		bne	.L27
 457              	.LVL48:
 458              	.L19:
 459 005e BDE8F883 		pop	{r3, r4, r5, r6, r7, r8, r9, pc}
 460              	.LVL49:
 461              	.L32:
 462              	.LBB28:
 463              	.LBB26:
 464              		.loc 1 252 0
 465 0062 B16A     		ldr	r1, [r6, #40]
 466              		.loc 1 251 0
 467 0064 0F42     		tst	r7, r1
 468 0066 D9D0     		beq	.L25
 469              	.LVL50:
 470              	.LBB24:
 471              	.LBB22:
 472              		.loc 1 255 0
 473 0068 3046     		mov	r0, r6
 474 006a FFF7FEFF 		bl	chSchReadyI
 475 006e C0F82890 		str	r9, [r0, #40]
 476 0072 F1E7     		b	.L33
 477              	.LVL51:
 478              	.L31:
 479              	.LBE22:
 480              	.LBE24:
 481              		.loc 1 247 0
 482 0074 0348     		ldr	r0, .L34
 483 0076 FFF7FEFF 		bl	chDbgPanic
 484 007a DBE7     		b	.L22
 485              	.LVL52:
 486              	.L30:
 487              	.LBE26:
 488              	.LBE28:
 489              		.loc 1 181 0 discriminator 1
 490 007c 0248     		ldr	r0, .L34+4
 491 007e FFF7FEFF 		bl	chDbgPanic
 492 0082 C5E7     		b	.L20
 493              	.L35:
 494              		.align	2
 495              	.L34:
 496 0084 44000000 		.word	.LC3
 497 0088 2C000000 		.word	.LC2
 498              		.cfi_endproc
 499              	.LFE11:
 500              		.size	chEvtBroadcastFlagsI, .-chEvtBroadcastFlagsI
 501 008c AFF30080 		.section	.text.chEvtGetAndClearFlags,"ax",%progbits
 502              		.align	2
 503              		.p2align 4,,15
 504              		.global	chEvtGetAndClearFlags
 505              		.thumb
 506              		.thumb_func
 507              		.type	chEvtGetAndClearFlags, %function
 508              	chEvtGetAndClearFlags:
 509              	.LFB12:
 510              		.loc 1 202 0
 511              		.cfi_startproc
ARM GAS  /tmp/ccXG8rbk.s 			page 10


 512              		@ args = 0, pretend = 0, frame = 0
 513              		@ frame_needed = 0, uses_anonymous_args = 0
 514              	.LVL53:
 515 0000 70B5     		push	{r4, r5, r6, lr}
 516              	.LCFI5:
 517              		.cfi_def_cfa_offset 16
 518              		.cfi_offset 14, -4
 519              		.cfi_offset 6, -8
 520              		.cfi_offset 5, -12
 521              		.cfi_offset 4, -16
 522              	.LBB29:
 523              		.loc 1 205 0
 524 0002 2023     		movs	r3, #32
 525              	.LVL54:
 526              	.LBE29:
 527              		.loc 1 202 0
 528 0004 0446     		mov	r4, r0
 529              	.LBB30:
 530              		.loc 1 205 0
 531              	@ 205 "../../ChibiOS/os/kernel/src/chevents.c" 1
 532 0006 83F31188 		msr     BASEPRI, r3
 533              	@ 0 "" 2
 534              	.LVL55:
 535              		.thumb
 536              	.LBE30:
 537              		.loc 1 208 0
 538 000a 0026     		movs	r6, #0
 539              		.loc 1 205 0
 540 000c FFF7FEFF 		bl	dbg_check_lock
 541              	.LVL56:
 542              		.loc 1 207 0
 543 0010 E568     		ldr	r5, [r4, #12]
 544              	.LVL57:
 545              		.loc 1 208 0
 546 0012 E660     		str	r6, [r4, #12]
 547              		.loc 1 210 0
 548 0014 FFF7FEFF 		bl	dbg_check_unlock
 549              	.LVL58:
 550              	.LBB31:
 551 0018 3346     		mov	r3, r6
 552              	.LVL59:
 553              	@ 210 "../../ChibiOS/os/kernel/src/chevents.c" 1
 554 001a 83F31188 		msr     BASEPRI, r3
 555              	@ 0 "" 2
 556              	.LVL60:
 557              		.thumb
 558              	.LBE31:
 559              		.loc 1 212 0
 560 001e 2846     		mov	r0, r5
 561 0020 70BD     		pop	{r4, r5, r6, pc}
 562              		.cfi_endproc
 563              	.LFE12:
 564              		.size	chEvtGetAndClearFlags, .-chEvtGetAndClearFlags
 565 0022 00BFAFF3 		.section	.text.chEvtSignal,"ax",%progbits
 565      0080AFF3 
 565      0080AFF3 
 565      0080
ARM GAS  /tmp/ccXG8rbk.s 			page 11


 566              		.align	2
 567              		.p2align 4,,15
 568              		.global	chEvtSignal
 569              		.thumb
 570              		.thumb_func
 571              		.type	chEvtSignal, %function
 572              	chEvtSignal:
 573              	.LFB13:
 574              		.loc 1 222 0
 575              		.cfi_startproc
 576              		@ args = 0, pretend = 0, frame = 0
 577              		@ frame_needed = 0, uses_anonymous_args = 0
 578              	.LVL61:
 579 0000 38B5     		push	{r3, r4, r5, lr}
 580              	.LCFI6:
 581              		.cfi_def_cfa_offset 16
 582              		.cfi_offset 14, -4
 583              		.cfi_offset 5, -8
 584              		.cfi_offset 4, -12
 585              		.cfi_offset 3, -16
 586              		.loc 1 222 0
 587 0002 0446     		mov	r4, r0
 588 0004 0D46     		mov	r5, r1
 589              		.loc 1 224 0
 590 0006 0028     		cmp	r0, #0
 591 0008 33D0     		beq	.L44
 592              	.LVL62:
 593              	.L38:
 594              	.LBB38:
 595              		.loc 1 226 0
 596 000a 2023     		movs	r3, #32
 597              	.LVL63:
 598              	@ 226 "../../ChibiOS/os/kernel/src/chevents.c" 1
 599 000c 83F31188 		msr     BASEPRI, r3
 600              	@ 0 "" 2
 601              	.LVL64:
 602              		.thumb
 603              	.LBE38:
 604 0010 FFF7FEFF 		bl	dbg_check_lock
 605              	.LVL65:
 606              	.LBB39:
 607              	.LBB40:
 608              		.loc 1 246 0
 609 0014 FFF7FEFF 		bl	chDbgCheckClassI
 610              		.loc 1 247 0
 611 0018 002C     		cmp	r4, #0
 612 001a 2ED0     		beq	.L45
 613              	.L39:
 614              		.loc 1 249 0
 615 001c E26B     		ldr	r2, [r4, #60]
 616              		.loc 1 251 0
 617 001e 94F82030 		ldrb	r3, [r4, #32]	@ zero_extendqisi2
 618              		.loc 1 249 0
 619 0022 1543     		orrs	r5, r5, r2
 620              	.LVL66:
 621              		.loc 1 251 0
 622 0024 082B     		cmp	r3, #8
ARM GAS  /tmp/ccXG8rbk.s 			page 12


 623              		.loc 1 249 0
 624 0026 E563     		str	r5, [r4, #60]
 625              		.loc 1 251 0
 626 0028 1AD0     		beq	.L46
 627              		.loc 1 252 0
 628 002a 092B     		cmp	r3, #9
 629 002c 07D0     		beq	.L47
 630              	.L42:
 631              	.LBE40:
 632              	.LBE39:
 633              		.loc 1 228 0
 634 002e FFF7FEFF 		bl	chSchRescheduleS
 635              		.loc 1 229 0
 636 0032 FFF7FEFF 		bl	dbg_check_unlock
 637              	.LBB48:
 638 0036 0023     		movs	r3, #0
 639              	.LVL67:
 640              	@ 229 "../../ChibiOS/os/kernel/src/chevents.c" 1
 641 0038 83F31188 		msr     BASEPRI, r3
 642              	@ 0 "" 2
 643              	.LVL68:
 644              		.thumb
 645              	.LBE48:
 646              		.loc 1 230 0
 647 003c 38BD     		pop	{r3, r4, r5, pc}
 648              	.LVL69:
 649              	.L47:
 650              	.LBB49:
 651              	.LBB45:
 652              		.loc 1 254 0
 653 003e A06A     		ldr	r0, [r4, #40]
 654 0040 0540     		ands	r5, r5, r0
 655              		.loc 1 253 0
 656 0042 A842     		cmp	r0, r5
 657 0044 F3D1     		bne	.L42
 658              	.LVL70:
 659              	.LBB41:
 660              	.LBB42:
 661              		.loc 1 255 0
 662 0046 2046     		mov	r0, r4
 663 0048 FFF7FEFF 		bl	chSchReadyI
 664 004c 0021     		movs	r1, #0
 665 004e 8162     		str	r1, [r0, #40]
 666              	.L48:
 667              	.LBE42:
 668              	.LBE41:
 669              	.LBE45:
 670              	.LBE49:
 671              		.loc 1 228 0
 672 0050 FFF7FEFF 		bl	chSchRescheduleS
 673              		.loc 1 229 0
 674 0054 FFF7FEFF 		bl	dbg_check_unlock
 675              	.LBB50:
 676 0058 0023     		movs	r3, #0
 677              	@ 229 "../../ChibiOS/os/kernel/src/chevents.c" 1
 678 005a 83F31188 		msr     BASEPRI, r3
 679              	@ 0 "" 2
ARM GAS  /tmp/ccXG8rbk.s 			page 13


 680              	.LVL71:
 681              		.thumb
 682              	.LBE50:
 683              		.loc 1 230 0
 684 005e 38BD     		pop	{r3, r4, r5, pc}
 685              	.LVL72:
 686              	.L46:
 687              	.LBB51:
 688              	.LBB46:
 689              		.loc 1 252 0
 690 0060 A36A     		ldr	r3, [r4, #40]
 691              		.loc 1 251 0
 692 0062 1D42     		tst	r5, r3
 693 0064 E3D0     		beq	.L42
 694              	.LVL73:
 695              	.LBB44:
 696              	.LBB43:
 697              		.loc 1 255 0
 698 0066 2046     		mov	r0, r4
 699 0068 FFF7FEFF 		bl	chSchReadyI
 700 006c 0021     		movs	r1, #0
 701 006e 8162     		str	r1, [r0, #40]
 702 0070 EEE7     		b	.L48
 703              	.LVL74:
 704              	.L44:
 705              	.LBE43:
 706              	.LBE44:
 707              	.LBE46:
 708              	.LBE51:
 709              		.loc 1 224 0 discriminator 1
 710 0072 0448     		ldr	r0, .L49
 711 0074 FFF7FEFF 		bl	chDbgPanic
 712              	.LVL75:
 713 0078 C7E7     		b	.L38
 714              	.LVL76:
 715              	.L45:
 716              	.LBB52:
 717              	.LBB47:
 718              		.loc 1 247 0
 719 007a 0348     		ldr	r0, .L49+4
 720 007c FFF7FEFF 		bl	chDbgPanic
 721 0080 CCE7     		b	.L39
 722              	.L50:
 723 0082 00BF     		.align	2
 724              	.L49:
 725 0084 58000000 		.word	.LC4
 726 0088 44000000 		.word	.LC3
 727              	.LBE47:
 728              	.LBE52:
 729              		.cfi_endproc
 730              	.LFE13:
 731              		.size	chEvtSignal, .-chEvtSignal
 732 008c AFF30080 		.section	.text.chEvtSignalI,"ax",%progbits
 733              		.align	2
 734              		.p2align 4,,15
 735              		.global	chEvtSignalI
 736              		.thumb
ARM GAS  /tmp/ccXG8rbk.s 			page 14


 737              		.thumb_func
 738              		.type	chEvtSignalI, %function
 739              	chEvtSignalI:
 740              	.LFB14:
 741              		.loc 1 244 0
 742              		.cfi_startproc
 743              		@ args = 0, pretend = 0, frame = 0
 744              		@ frame_needed = 0, uses_anonymous_args = 0
 745              	.LVL77:
 746 0000 38B5     		push	{r3, r4, r5, lr}
 747              	.LCFI7:
 748              		.cfi_def_cfa_offset 16
 749              		.cfi_offset 14, -4
 750              		.cfi_offset 5, -8
 751              		.cfi_offset 4, -12
 752              		.cfi_offset 3, -16
 753              		.loc 1 244 0
 754 0002 0446     		mov	r4, r0
 755 0004 0D46     		mov	r5, r1
 756              		.loc 1 246 0
 757 0006 FFF7FEFF 		bl	chDbgCheckClassI
 758              	.LVL78:
 759              		.loc 1 247 0
 760 000a BCB1     		cbz	r4, .L56
 761              	.L52:
 762              		.loc 1 249 0
 763 000c E26B     		ldr	r2, [r4, #60]
 764              		.loc 1 251 0
 765 000e 94F82030 		ldrb	r3, [r4, #32]	@ zero_extendqisi2
 766              		.loc 1 249 0
 767 0012 1543     		orrs	r5, r5, r2
 768              	.LVL79:
 769              		.loc 1 251 0
 770 0014 082B     		cmp	r3, #8
 771              		.loc 1 249 0
 772 0016 E563     		str	r5, [r4, #60]
 773              		.loc 1 251 0
 774 0018 0CD0     		beq	.L57
 775              		.loc 1 252 0
 776 001a 092B     		cmp	r3, #9
 777 001c 00D0     		beq	.L58
 778              	.L51:
 779 001e 38BD     		pop	{r3, r4, r5, pc}
 780              	.L58:
 781              		.loc 1 254 0
 782 0020 A06A     		ldr	r0, [r4, #40]
 783 0022 0540     		ands	r5, r5, r0
 784              		.loc 1 253 0
 785 0024 A842     		cmp	r0, r5
 786 0026 FAD1     		bne	.L51
 787              	.L54:
 788              	.LVL80:
 789              	.LBB55:
 790              	.LBB56:
 791              		.loc 1 255 0
 792 0028 2046     		mov	r0, r4
 793 002a FFF7FEFF 		bl	chSchReadyI
ARM GAS  /tmp/ccXG8rbk.s 			page 15


 794 002e 0021     		movs	r1, #0
 795 0030 8162     		str	r1, [r0, #40]
 796 0032 38BD     		pop	{r3, r4, r5, pc}
 797              	.LVL81:
 798              	.L57:
 799              	.LBE56:
 800              	.LBE55:
 801              		.loc 1 252 0 discriminator 1
 802 0034 A36A     		ldr	r3, [r4, #40]
 803              		.loc 1 251 0 discriminator 1
 804 0036 1D42     		tst	r5, r3
 805 0038 F6D1     		bne	.L54
 806 003a 38BD     		pop	{r3, r4, r5, pc}
 807              	.LVL82:
 808              	.L56:
 809              		.loc 1 247 0 discriminator 1
 810 003c 0148     		ldr	r0, .L59
 811 003e FFF7FEFF 		bl	chDbgPanic
 812 0042 E3E7     		b	.L52
 813              	.L60:
 814              		.align	2
 815              	.L59:
 816 0044 44000000 		.word	.LC3
 817              		.cfi_endproc
 818              	.LFE14:
 819              		.size	chEvtSignalI, .-chEvtSignalI
 820 0048 AFF30080 		.section	.text.chEvtBroadcastFlags,"ax",%progbits
 820      AFF30080 
 821              		.align	2
 822              		.p2align 4,,15
 823              		.global	chEvtBroadcastFlags
 824              		.thumb
 825              		.thumb_func
 826              		.type	chEvtBroadcastFlags, %function
 827              	chEvtBroadcastFlags:
 828              	.LFB15:
 829              		.loc 1 271 0
 830              		.cfi_startproc
 831              		@ args = 0, pretend = 0, frame = 0
 832              		@ frame_needed = 0, uses_anonymous_args = 0
 833              	.LVL83:
 834 0000 38B5     		push	{r3, r4, r5, lr}
 835              	.LCFI8:
 836              		.cfi_def_cfa_offset 16
 837              		.cfi_offset 14, -4
 838              		.cfi_offset 5, -8
 839              		.cfi_offset 4, -12
 840              		.cfi_offset 3, -16
 841              		.loc 1 271 0
 842 0002 0546     		mov	r5, r0
 843 0004 0C46     		mov	r4, r1
 844              	.LBB57:
 845              		.loc 1 273 0
 846 0006 2023     		movs	r3, #32
 847              	.LVL84:
 848              	@ 273 "../../ChibiOS/os/kernel/src/chevents.c" 1
 849 0008 83F31188 		msr     BASEPRI, r3
ARM GAS  /tmp/ccXG8rbk.s 			page 16


 850              	@ 0 "" 2
 851              	.LVL85:
 852              		.thumb
 853              	.LBE57:
 854 000c FFF7FEFF 		bl	dbg_check_lock
 855              	.LVL86:
 856              		.loc 1 274 0
 857 0010 2846     		mov	r0, r5
 858 0012 2146     		mov	r1, r4
 859 0014 FFF7FEFF 		bl	chEvtBroadcastFlagsI
 860              		.loc 1 275 0
 861 0018 FFF7FEFF 		bl	chSchRescheduleS
 862              		.loc 1 276 0
 863 001c FFF7FEFF 		bl	dbg_check_unlock
 864              	.LBB58:
 865 0020 0023     		movs	r3, #0
 866              	.LVL87:
 867              	@ 276 "../../ChibiOS/os/kernel/src/chevents.c" 1
 868 0022 83F31188 		msr     BASEPRI, r3
 869              	@ 0 "" 2
 870              	.LVL88:
 871              		.thumb
 872              	.LBE58:
 873              		.loc 1 277 0
 874 0026 38BD     		pop	{r3, r4, r5, pc}
 875              		.cfi_endproc
 876              	.LFE15:
 877              		.size	chEvtBroadcastFlags, .-chEvtBroadcastFlags
 878 0028 AFF30080 		.section	.text.chEvtGetAndClearFlagsI,"ax",%progbits
 878      AFF30080 
 879              		.align	2
 880              		.p2align 4,,15
 881              		.global	chEvtGetAndClearFlagsI
 882              		.thumb
 883              		.thumb_func
 884              		.type	chEvtGetAndClearFlagsI, %function
 885              	chEvtGetAndClearFlagsI:
 886              	.LFB16:
 887              		.loc 1 290 0
 888              		.cfi_startproc
 889              		@ args = 0, pretend = 0, frame = 0
 890              		@ frame_needed = 0, uses_anonymous_args = 0
 891              		@ link register save eliminated.
 892              	.LVL89:
 893              		.loc 1 290 0
 894 0000 0346     		mov	r3, r0
 895              		.loc 1 294 0
 896 0002 0022     		movs	r2, #0
 897              		.loc 1 293 0
 898 0004 C068     		ldr	r0, [r0, #12]
 899              	.LVL90:
 900              		.loc 1 294 0
 901 0006 DA60     		str	r2, [r3, #12]
 902              		.loc 1 297 0
 903 0008 7047     		bx	lr
 904              		.cfi_endproc
 905              	.LFE16:
ARM GAS  /tmp/ccXG8rbk.s 			page 17


 906              		.size	chEvtGetAndClearFlagsI, .-chEvtGetAndClearFlagsI
 907 000a 00BFAFF3 		.section	.text.chEvtDispatch,"ax",%progbits
 907      0080
 908              		.align	2
 909              		.p2align 4,,15
 910              		.global	chEvtDispatch
 911              		.thumb
 912              		.thumb_func
 913              		.type	chEvtDispatch, %function
 914              	chEvtDispatch:
 915              	.LFB17:
 916              		.loc 1 308 0
 917              		.cfi_startproc
 918              		@ args = 0, pretend = 0, frame = 0
 919              		@ frame_needed = 0, uses_anonymous_args = 0
 920              	.LVL91:
 921 0000 2DE9F041 		push	{r4, r5, r6, r7, r8, lr}
 922              	.LCFI9:
 923              		.cfi_def_cfa_offset 24
 924              		.cfi_offset 14, -4
 925              		.cfi_offset 8, -8
 926              		.cfi_offset 7, -12
 927              		.cfi_offset 6, -16
 928              		.cfi_offset 5, -20
 929              		.cfi_offset 4, -24
 930              		.loc 1 308 0
 931 0004 0446     		mov	r4, r0
 932 0006 0E46     		mov	r6, r1
 933              		.loc 1 311 0
 934 0008 C8B1     		cbz	r0, .L70
 935              	.LVL92:
 936              	.L64:
 937              		.loc 1 314 0 discriminator 1
 938 000a 8EB1     		cbz	r6, .L63
 939              		.loc 1 314 0 is_stmt 0
 940 000c 0027     		movs	r7, #0
 941 000e 3D46     		mov	r5, r7
 942              		.loc 1 315 0 is_stmt 1
 943 0010 4FF00108 		mov	r8, #1
 944              	.LVL93:
 945              	.L68:
 946 0014 08FA05F3 		lsl	r3, r8, r5
 947 0018 3342     		tst	r3, r6
 948 001a 05D0     		beq	.L66
 949              		.loc 1 319 0
 950 001c 26EA0306 		bic	r6, r6, r3
 951              	.LVL94:
 952              		.loc 1 316 0
 953 0020 E359     		ldr	r3, [r4, r7]
 954 0022 3BB1     		cbz	r3, .L71
 955              	.L67:
 956              	.LVL95:
 957              		.loc 1 320 0
 958 0024 2846     		mov	r0, r5
 959 0026 9847     		blx	r3
 960              	.L66:
 961              		.loc 1 322 0
ARM GAS  /tmp/ccXG8rbk.s 			page 18


 962 0028 0135     		adds	r5, r5, #1
 963              	.LVL96:
 964 002a 0437     		adds	r7, r7, #4
 965              		.loc 1 314 0
 966 002c 002E     		cmp	r6, #0
 967 002e F1D1     		bne	.L68
 968              	.LVL97:
 969              	.L63:
 970 0030 BDE8F081 		pop	{r4, r5, r6, r7, r8, pc}
 971              	.LVL98:
 972              	.L71:
 973              		.loc 1 316 0 discriminator 1
 974 0034 0448     		ldr	r0, .L72
 975 0036 FFF7FEFF 		bl	chDbgPanic
 976 003a E359     		ldr	r3, [r4, r7]
 977 003c F2E7     		b	.L67
 978              	.LVL99:
 979              	.L70:
 980              		.loc 1 311 0 discriminator 1
 981 003e 0348     		ldr	r0, .L72+4
 982 0040 FFF7FEFF 		bl	chDbgPanic
 983              	.LVL100:
 984 0044 E1E7     		b	.L64
 985              	.L73:
 986 0046 00BF     		.align	2
 987              	.L72:
 988 0048 7C000000 		.word	.LC6
 989 004c 68000000 		.word	.LC5
 990              		.cfi_endproc
 991              	.LFE17:
 992              		.size	chEvtDispatch, .-chEvtDispatch
 993              		.section	.text.chEvtWaitOne,"ax",%progbits
 994              		.align	2
 995              		.p2align 4,,15
 996              		.global	chEvtWaitOne
 997              		.thumb
 998              		.thumb_func
 999              		.type	chEvtWaitOne, %function
 1000              	chEvtWaitOne:
 1001              	.LFB18:
 1002              		.loc 1 343 0
 1003              		.cfi_startproc
 1004              		@ args = 0, pretend = 0, frame = 0
 1005              		@ frame_needed = 0, uses_anonymous_args = 0
 1006              	.LVL101:
 1007 0000 38B5     		push	{r3, r4, r5, lr}
 1008              	.LCFI10:
 1009              		.cfi_def_cfa_offset 16
 1010              		.cfi_offset 14, -4
 1011              		.cfi_offset 5, -8
 1012              		.cfi_offset 4, -12
 1013              		.cfi_offset 3, -16
 1014              		.loc 1 344 0
 1015 0002 0F4B     		ldr	r3, .L76
 1016              		.loc 1 343 0
 1017 0004 0546     		mov	r5, r0
 1018              		.loc 1 344 0
ARM GAS  /tmp/ccXG8rbk.s 			page 19


 1019 0006 9C69     		ldr	r4, [r3, #24]
 1020              	.LVL102:
 1021              	.LBB59:
 1022              		.loc 1 347 0
 1023 0008 2023     		movs	r3, #32
 1024              	.LVL103:
 1025              	@ 347 "../../ChibiOS/os/kernel/src/chevents.c" 1
 1026 000a 83F31188 		msr     BASEPRI, r3
 1027              	@ 0 "" 2
 1028              	.LVL104:
 1029              		.thumb
 1030              	.LBE59:
 1031 000e FFF7FEFF 		bl	dbg_check_lock
 1032              	.LVL105:
 1033              		.loc 1 349 0
 1034 0012 E36B     		ldr	r3, [r4, #60]
 1035              	.LVL106:
 1036 0014 15EA0302 		ands	r2, r5, r3
 1037 0018 06D1     		bne	.L75
 1038              		.loc 1 350 0
 1039 001a A562     		str	r5, [r4, #40]
 1040              		.loc 1 351 0
 1041 001c 0820     		movs	r0, #8
 1042 001e FFF7FEFF 		bl	chSchGoSleepS
 1043              	.LVL107:
 1044              		.loc 1 352 0
 1045 0022 E36B     		ldr	r3, [r4, #60]
 1046 0024 05EA0302 		and	r2, r5, r3
 1047              	.LVL108:
 1048              	.L75:
 1049              		.loc 1 354 0
 1050 0028 5542     		negs	r5, r2
 1051              	.LVL109:
 1052 002a 1540     		ands	r5, r5, r2
 1053              	.LVL110:
 1054              		.loc 1 355 0
 1055 002c 23EA0500 		bic	r0, r3, r5
 1056 0030 E063     		str	r0, [r4, #60]
 1057              		.loc 1 357 0
 1058 0032 FFF7FEFF 		bl	dbg_check_unlock
 1059              	.LBB60:
 1060 0036 0023     		movs	r3, #0
 1061              	.LVL111:
 1062              	@ 357 "../../ChibiOS/os/kernel/src/chevents.c" 1
 1063 0038 83F31188 		msr     BASEPRI, r3
 1064              	@ 0 "" 2
 1065              	.LVL112:
 1066              		.thumb
 1067              	.LBE60:
 1068              		.loc 1 359 0
 1069 003c 2846     		mov	r0, r5
 1070 003e 38BD     		pop	{r3, r4, r5, pc}
 1071              	.L77:
 1072              		.align	2
 1073              	.L76:
 1074 0040 00000000 		.word	rlist
 1075              		.cfi_endproc
ARM GAS  /tmp/ccXG8rbk.s 			page 20


 1076              	.LFE18:
 1077              		.size	chEvtWaitOne, .-chEvtWaitOne
 1078 0044 AFF30080 		.section	.text.chEvtWaitAny,"ax",%progbits
 1078      AFF30080 
 1078      AFF30080 
 1079              		.align	2
 1080              		.p2align 4,,15
 1081              		.global	chEvtWaitAny
 1082              		.thumb
 1083              		.thumb_func
 1084              		.type	chEvtWaitAny, %function
 1085              	chEvtWaitAny:
 1086              	.LFB19:
 1087              		.loc 1 372 0
 1088              		.cfi_startproc
 1089              		@ args = 0, pretend = 0, frame = 0
 1090              		@ frame_needed = 0, uses_anonymous_args = 0
 1091              	.LVL113:
 1092              		.loc 1 373 0
 1093 0000 0E4B     		ldr	r3, .L80
 1094              		.loc 1 372 0
 1095 0002 70B5     		push	{r4, r5, r6, lr}
 1096              	.LCFI11:
 1097              		.cfi_def_cfa_offset 16
 1098              		.cfi_offset 14, -4
 1099              		.cfi_offset 6, -8
 1100              		.cfi_offset 5, -12
 1101              		.cfi_offset 4, -16
 1102              		.loc 1 373 0
 1103 0004 9C69     		ldr	r4, [r3, #24]
 1104              	.LVL114:
 1105              		.loc 1 372 0
 1106 0006 0546     		mov	r5, r0
 1107              	.LBB61:
 1108              		.loc 1 376 0
 1109 0008 2023     		movs	r3, #32
 1110              	.LVL115:
 1111              	@ 376 "../../ChibiOS/os/kernel/src/chevents.c" 1
 1112 000a 83F31188 		msr     BASEPRI, r3
 1113              	@ 0 "" 2
 1114              	.LVL116:
 1115              		.thumb
 1116              	.LBE61:
 1117 000e FFF7FEFF 		bl	dbg_check_lock
 1118              	.LVL117:
 1119              		.loc 1 378 0
 1120 0012 E36B     		ldr	r3, [r4, #60]
 1121              	.LVL118:
 1122 0014 15EA0306 		ands	r6, r5, r3
 1123 0018 06D1     		bne	.L79
 1124              		.loc 1 379 0
 1125 001a A562     		str	r5, [r4, #40]
 1126              		.loc 1 380 0
 1127 001c 0820     		movs	r0, #8
 1128 001e FFF7FEFF 		bl	chSchGoSleepS
 1129              	.LVL119:
 1130              		.loc 1 381 0
ARM GAS  /tmp/ccXG8rbk.s 			page 21


 1131 0022 E36B     		ldr	r3, [r4, #60]
 1132 0024 05EA0306 		and	r6, r5, r3
 1133              	.LVL120:
 1134              	.L79:
 1135              		.loc 1 383 0
 1136 0028 23EA0600 		bic	r0, r3, r6
 1137 002c E063     		str	r0, [r4, #60]
 1138              		.loc 1 385 0
 1139 002e FFF7FEFF 		bl	dbg_check_unlock
 1140              	.LBB62:
 1141 0032 0023     		movs	r3, #0
 1142              	.LVL121:
 1143              	@ 385 "../../ChibiOS/os/kernel/src/chevents.c" 1
 1144 0034 83F31188 		msr     BASEPRI, r3
 1145              	@ 0 "" 2
 1146              	.LVL122:
 1147              		.thumb
 1148              	.LBE62:
 1149              		.loc 1 387 0
 1150 0038 3046     		mov	r0, r6
 1151 003a 70BD     		pop	{r4, r5, r6, pc}
 1152              	.L81:
 1153              		.align	2
 1154              	.L80:
 1155 003c 00000000 		.word	rlist
 1156              		.cfi_endproc
 1157              	.LFE19:
 1158              		.size	chEvtWaitAny, .-chEvtWaitAny
 1159              		.section	.text.chEvtWaitAll,"ax",%progbits
 1160              		.align	2
 1161              		.p2align 4,,15
 1162              		.global	chEvtWaitAll
 1163              		.thumb
 1164              		.thumb_func
 1165              		.type	chEvtWaitAll, %function
 1166              	chEvtWaitAll:
 1167              	.LFB20:
 1168              		.loc 1 400 0
 1169              		.cfi_startproc
 1170              		@ args = 0, pretend = 0, frame = 0
 1171              		@ frame_needed = 0, uses_anonymous_args = 0
 1172              	.LVL123:
 1173 0000 38B5     		push	{r3, r4, r5, lr}
 1174              	.LCFI12:
 1175              		.cfi_def_cfa_offset 16
 1176              		.cfi_offset 14, -4
 1177              		.cfi_offset 5, -8
 1178              		.cfi_offset 4, -12
 1179              		.cfi_offset 3, -16
 1180              		.loc 1 401 0
 1181 0002 0E4B     		ldr	r3, .L84
 1182              		.loc 1 400 0
 1183 0004 0446     		mov	r4, r0
 1184              		.loc 1 401 0
 1185 0006 9D69     		ldr	r5, [r3, #24]
 1186              	.LVL124:
 1187              	.LBB63:
ARM GAS  /tmp/ccXG8rbk.s 			page 22


 1188              		.loc 1 403 0
 1189 0008 2023     		movs	r3, #32
 1190              	.LVL125:
 1191              	@ 403 "../../ChibiOS/os/kernel/src/chevents.c" 1
 1192 000a 83F31188 		msr     BASEPRI, r3
 1193              	@ 0 "" 2
 1194              	.LVL126:
 1195              		.thumb
 1196              	.LBE63:
 1197 000e FFF7FEFF 		bl	dbg_check_lock
 1198              	.LVL127:
 1199              		.loc 1 405 0
 1200 0012 EB6B     		ldr	r3, [r5, #60]
 1201 0014 04EA0302 		and	r2, r4, r3
 1202 0018 A242     		cmp	r2, r4
 1203 001a 04D0     		beq	.L83
 1204              		.loc 1 406 0
 1205 001c AC62     		str	r4, [r5, #40]
 1206              		.loc 1 407 0
 1207 001e 0920     		movs	r0, #9
 1208 0020 FFF7FEFF 		bl	chSchGoSleepS
 1209 0024 EB6B     		ldr	r3, [r5, #60]
 1210              	.L83:
 1211              		.loc 1 409 0
 1212 0026 23EA0400 		bic	r0, r3, r4
 1213 002a E863     		str	r0, [r5, #60]
 1214              		.loc 1 411 0
 1215 002c FFF7FEFF 		bl	dbg_check_unlock
 1216              	.LBB64:
 1217 0030 0023     		movs	r3, #0
 1218              	.LVL128:
 1219              	@ 411 "../../ChibiOS/os/kernel/src/chevents.c" 1
 1220 0032 83F31188 		msr     BASEPRI, r3
 1221              	@ 0 "" 2
 1222              	.LVL129:
 1223              		.thumb
 1224              	.LBE64:
 1225              		.loc 1 413 0
 1226 0036 2046     		mov	r0, r4
 1227 0038 38BD     		pop	{r3, r4, r5, pc}
 1228              	.L85:
 1229 003a 00BF     		.align	2
 1230              	.L84:
 1231 003c 00000000 		.word	rlist
 1232              		.cfi_endproc
 1233              	.LFE20:
 1234              		.size	chEvtWaitAll, .-chEvtWaitAll
 1235              		.section	.text.chEvtWaitOneTimeout,"ax",%progbits
 1236              		.align	2
 1237              		.p2align 4,,15
 1238              		.global	chEvtWaitOneTimeout
 1239              		.thumb
 1240              		.thumb_func
 1241              		.type	chEvtWaitOneTimeout, %function
 1242              	chEvtWaitOneTimeout:
 1243              	.LFB21:
 1244              		.loc 1 439 0
ARM GAS  /tmp/ccXG8rbk.s 			page 23


 1245              		.cfi_startproc
 1246              		@ args = 0, pretend = 0, frame = 0
 1247              		@ frame_needed = 0, uses_anonymous_args = 0
 1248              	.LVL130:
 1249 0000 F8B5     		push	{r3, r4, r5, r6, r7, lr}
 1250              	.LCFI13:
 1251              		.cfi_def_cfa_offset 24
 1252              		.cfi_offset 14, -4
 1253              		.cfi_offset 7, -8
 1254              		.cfi_offset 6, -12
 1255              		.cfi_offset 5, -16
 1256              		.cfi_offset 4, -20
 1257              		.cfi_offset 3, -24
 1258              		.loc 1 440 0
 1259 0002 154B     		ldr	r3, .L92
 1260              		.loc 1 439 0
 1261 0004 0546     		mov	r5, r0
 1262              		.loc 1 440 0
 1263 0006 9E69     		ldr	r6, [r3, #24]
 1264              	.LVL131:
 1265              		.loc 1 439 0
 1266 0008 0F46     		mov	r7, r1
 1267              	.LBB65:
 1268              		.loc 1 443 0
 1269 000a 2023     		movs	r3, #32
 1270              	.LVL132:
 1271              	@ 443 "../../ChibiOS/os/kernel/src/chevents.c" 1
 1272 000c 83F31188 		msr     BASEPRI, r3
 1273              	@ 0 "" 2
 1274              	.LVL133:
 1275              		.thumb
 1276              	.LBE65:
 1277 0010 FFF7FEFF 		bl	dbg_check_lock
 1278              	.LVL134:
 1279              		.loc 1 445 0
 1280 0014 F36B     		ldr	r3, [r6, #60]
 1281              	.LVL135:
 1282 0016 15EA0304 		ands	r4, r5, r3
 1283 001a 0AD1     		bne	.L87
 1284              		.loc 1 446 0
 1285 001c AFB1     		cbz	r7, .L91
 1286              		.loc 1 451 0
 1287 001e 0820     		movs	r0, #8
 1288              		.loc 1 450 0
 1289 0020 B562     		str	r5, [r6, #40]
 1290              		.loc 1 451 0
 1291 0022 3946     		mov	r1, r7
 1292 0024 FFF7FEFF 		bl	chSchGoSleepTimeoutS
 1293              	.LVL136:
 1294 0028 0028     		cmp	r0, #0
 1295 002a 0EDB     		blt	.L91
 1296              		.loc 1 455 0
 1297 002c F36B     		ldr	r3, [r6, #60]
 1298 002e 05EA0304 		and	r4, r5, r3
 1299              	.LVL137:
 1300              	.L87:
 1301              		.loc 1 457 0
ARM GAS  /tmp/ccXG8rbk.s 			page 24


 1302 0032 6242     		negs	r2, r4
 1303 0034 1440     		ands	r4, r4, r2
 1304              	.LVL138:
 1305              		.loc 1 458 0
 1306 0036 23EA0400 		bic	r0, r3, r4
 1307 003a F063     		str	r0, [r6, #60]
 1308              		.loc 1 460 0
 1309 003c FFF7FEFF 		bl	dbg_check_unlock
 1310              	.LBB66:
 1311 0040 0023     		movs	r3, #0
 1312              	.LVL139:
 1313              	@ 460 "../../ChibiOS/os/kernel/src/chevents.c" 1
 1314 0042 83F31188 		msr     BASEPRI, r3
 1315              	@ 0 "" 2
 1316              	.LVL140:
 1317              		.thumb
 1318              	.LBE66:
 1319              		.loc 1 462 0
 1320 0046 2046     		mov	r0, r4
 1321 0048 F8BD     		pop	{r3, r4, r5, r6, r7, pc}
 1322              	.LVL141:
 1323              	.L91:
 1324              		.loc 1 452 0
 1325 004a FFF7FEFF 		bl	dbg_check_unlock
 1326              	.LBB67:
 1327 004e 2346     		mov	r3, r4
 1328              	.LVL142:
 1329              	@ 452 "../../ChibiOS/os/kernel/src/chevents.c" 1
 1330 0050 83F31188 		msr     BASEPRI, r3
 1331              	@ 0 "" 2
 1332              	.LVL143:
 1333              		.thumb
 1334              	.LBE67:
 1335              		.loc 1 462 0
 1336 0054 2046     		mov	r0, r4
 1337 0056 F8BD     		pop	{r3, r4, r5, r6, r7, pc}
 1338              	.L93:
 1339              		.align	2
 1340              	.L92:
 1341 0058 00000000 		.word	rlist
 1342              		.cfi_endproc
 1343              	.LFE21:
 1344              		.size	chEvtWaitOneTimeout, .-chEvtWaitOneTimeout
 1345 005c AFF30080 		.section	.text.chEvtWaitAnyTimeout,"ax",%progbits
 1346              		.align	2
 1347              		.p2align 4,,15
 1348              		.global	chEvtWaitAnyTimeout
 1349              		.thumb
 1350              		.thumb_func
 1351              		.type	chEvtWaitAnyTimeout, %function
 1352              	chEvtWaitAnyTimeout:
 1353              	.LFB22:
 1354              		.loc 1 482 0
 1355              		.cfi_startproc
 1356              		@ args = 0, pretend = 0, frame = 0
 1357              		@ frame_needed = 0, uses_anonymous_args = 0
 1358              	.LVL144:
ARM GAS  /tmp/ccXG8rbk.s 			page 25


 1359 0000 F8B5     		push	{r3, r4, r5, r6, r7, lr}
 1360              	.LCFI14:
 1361              		.cfi_def_cfa_offset 24
 1362              		.cfi_offset 14, -4
 1363              		.cfi_offset 7, -8
 1364              		.cfi_offset 6, -12
 1365              		.cfi_offset 5, -16
 1366              		.cfi_offset 4, -20
 1367              		.cfi_offset 3, -24
 1368              		.loc 1 483 0
 1369 0002 144B     		ldr	r3, .L100
 1370              		.loc 1 482 0
 1371 0004 0446     		mov	r4, r0
 1372              		.loc 1 483 0
 1373 0006 9D69     		ldr	r5, [r3, #24]
 1374              	.LVL145:
 1375              		.loc 1 482 0
 1376 0008 0F46     		mov	r7, r1
 1377              	.LBB68:
 1378              		.loc 1 486 0
 1379 000a 2023     		movs	r3, #32
 1380              	.LVL146:
 1381              	@ 486 "../../ChibiOS/os/kernel/src/chevents.c" 1
 1382 000c 83F31188 		msr     BASEPRI, r3
 1383              	@ 0 "" 2
 1384              	.LVL147:
 1385              		.thumb
 1386              	.LBE68:
 1387 0010 FFF7FEFF 		bl	dbg_check_lock
 1388              	.LVL148:
 1389              		.loc 1 488 0
 1390 0014 EB6B     		ldr	r3, [r5, #60]
 1391              	.LVL149:
 1392 0016 14EA0306 		ands	r6, r4, r3
 1393 001a 0AD1     		bne	.L95
 1394              		.loc 1 489 0
 1395 001c 9FB1     		cbz	r7, .L99
 1396              		.loc 1 494 0
 1397 001e 0820     		movs	r0, #8
 1398              		.loc 1 493 0
 1399 0020 AC62     		str	r4, [r5, #40]
 1400              		.loc 1 494 0
 1401 0022 3946     		mov	r1, r7
 1402 0024 FFF7FEFF 		bl	chSchGoSleepTimeoutS
 1403              	.LVL150:
 1404 0028 0028     		cmp	r0, #0
 1405 002a 0CDB     		blt	.L99
 1406              		.loc 1 498 0
 1407 002c EB6B     		ldr	r3, [r5, #60]
 1408 002e 04EA0306 		and	r6, r4, r3
 1409              	.LVL151:
 1410              	.L95:
 1411              		.loc 1 500 0
 1412 0032 23EA0600 		bic	r0, r3, r6
 1413 0036 E863     		str	r0, [r5, #60]
 1414              		.loc 1 502 0
 1415 0038 FFF7FEFF 		bl	dbg_check_unlock
ARM GAS  /tmp/ccXG8rbk.s 			page 26


 1416              	.LBB69:
 1417 003c 0023     		movs	r3, #0
 1418              	.LVL152:
 1419              	@ 502 "../../ChibiOS/os/kernel/src/chevents.c" 1
 1420 003e 83F31188 		msr     BASEPRI, r3
 1421              	@ 0 "" 2
 1422              	.LVL153:
 1423              		.thumb
 1424              	.LBE69:
 1425              		.loc 1 504 0
 1426 0042 3046     		mov	r0, r6
 1427 0044 F8BD     		pop	{r3, r4, r5, r6, r7, pc}
 1428              	.LVL154:
 1429              	.L99:
 1430              		.loc 1 495 0
 1431 0046 FFF7FEFF 		bl	dbg_check_unlock
 1432              	.LBB70:
 1433 004a 3346     		mov	r3, r6
 1434              	.LVL155:
 1435              	@ 495 "../../ChibiOS/os/kernel/src/chevents.c" 1
 1436 004c 83F31188 		msr     BASEPRI, r3
 1437              	@ 0 "" 2
 1438              	.LVL156:
 1439              		.thumb
 1440              	.LBE70:
 1441              		.loc 1 504 0
 1442 0050 3046     		mov	r0, r6
 1443 0052 F8BD     		pop	{r3, r4, r5, r6, r7, pc}
 1444              	.L101:
 1445              		.align	2
 1446              	.L100:
 1447 0054 00000000 		.word	rlist
 1448              		.cfi_endproc
 1449              	.LFE22:
 1450              		.size	chEvtWaitAnyTimeout, .-chEvtWaitAnyTimeout
 1451 0058 AFF30080 		.section	.text.chEvtWaitAllTimeout,"ax",%progbits
 1451      AFF30080 
 1452              		.align	2
 1453              		.p2align 4,,15
 1454              		.global	chEvtWaitAllTimeout
 1455              		.thumb
 1456              		.thumb_func
 1457              		.type	chEvtWaitAllTimeout, %function
 1458              	chEvtWaitAllTimeout:
 1459              	.LFB23:
 1460              		.loc 1 523 0
 1461              		.cfi_startproc
 1462              		@ args = 0, pretend = 0, frame = 0
 1463              		@ frame_needed = 0, uses_anonymous_args = 0
 1464              	.LVL157:
 1465              		.loc 1 524 0
 1466 0000 184B     		ldr	r3, .L108
 1467              		.loc 1 523 0
 1468 0002 70B5     		push	{r4, r5, r6, lr}
 1469              	.LCFI15:
 1470              		.cfi_def_cfa_offset 16
 1471              		.cfi_offset 14, -4
ARM GAS  /tmp/ccXG8rbk.s 			page 27


 1472              		.cfi_offset 6, -8
 1473              		.cfi_offset 5, -12
 1474              		.cfi_offset 4, -16
 1475              		.loc 1 524 0
 1476 0004 9D69     		ldr	r5, [r3, #24]
 1477              	.LVL158:
 1478              		.loc 1 523 0
 1479 0006 0446     		mov	r4, r0
 1480 0008 0E46     		mov	r6, r1
 1481              	.LBB71:
 1482              		.loc 1 526 0
 1483 000a 2023     		movs	r3, #32
 1484              	.LVL159:
 1485              	@ 526 "../../ChibiOS/os/kernel/src/chevents.c" 1
 1486 000c 83F31188 		msr     BASEPRI, r3
 1487              	@ 0 "" 2
 1488              	.LVL160:
 1489              		.thumb
 1490              	.LBE71:
 1491 0010 FFF7FEFF 		bl	dbg_check_lock
 1492              	.LVL161:
 1493              		.loc 1 528 0
 1494 0014 EB6B     		ldr	r3, [r5, #60]
 1495 0016 04EA0302 		and	r2, r4, r3
 1496 001a A242     		cmp	r2, r4
 1497 001c 08D0     		beq	.L103
 1498              		.loc 1 529 0
 1499 001e 8EB1     		cbz	r6, .L107
 1500              		.loc 1 534 0
 1501 0020 0920     		movs	r0, #9
 1502              		.loc 1 533 0
 1503 0022 AC62     		str	r4, [r5, #40]
 1504              		.loc 1 534 0
 1505 0024 3146     		mov	r1, r6
 1506 0026 FFF7FEFF 		bl	chSchGoSleepTimeoutS
 1507 002a 0028     		cmp	r0, #0
 1508 002c 12DB     		blt	.L106
 1509 002e EB6B     		ldr	r3, [r5, #60]
 1510              	.L103:
 1511              		.loc 1 539 0
 1512 0030 23EA0400 		bic	r0, r3, r4
 1513 0034 E863     		str	r0, [r5, #60]
 1514              		.loc 1 541 0
 1515 0036 FFF7FEFF 		bl	dbg_check_unlock
 1516              	.LBB72:
 1517 003a 0023     		movs	r3, #0
 1518              	.LVL162:
 1519              	@ 541 "../../ChibiOS/os/kernel/src/chevents.c" 1
 1520 003c 83F31188 		msr     BASEPRI, r3
 1521              	@ 0 "" 2
 1522              	.LVL163:
 1523              		.thumb
 1524              	.L105:
 1525              	.LBE72:
 1526              		.loc 1 543 0
 1527 0040 2046     		mov	r0, r4
 1528 0042 70BD     		pop	{r4, r5, r6, pc}
ARM GAS  /tmp/ccXG8rbk.s 			page 28


 1529              	.LVL164:
 1530              	.L107:
 1531              		.loc 1 530 0
 1532 0044 FFF7FEFF 		bl	dbg_check_unlock
 1533              	.LBB73:
 1534 0048 3346     		mov	r3, r6
 1535              	.LVL165:
 1536              	@ 530 "../../ChibiOS/os/kernel/src/chevents.c" 1
 1537 004a 83F31188 		msr     BASEPRI, r3
 1538              	@ 0 "" 2
 1539              	.LVL166:
 1540              		.thumb
 1541              	.LBE73:
 1542              		.loc 1 531 0
 1543 004e 3446     		mov	r4, r6
 1544              	.LVL167:
 1545              		.loc 1 543 0
 1546 0050 2046     		mov	r0, r4
 1547 0052 70BD     		pop	{r4, r5, r6, pc}
 1548              	.LVL168:
 1549              	.L106:
 1550              		.loc 1 535 0
 1551 0054 FFF7FEFF 		bl	dbg_check_unlock
 1552              	.LBB74:
 1553 0058 0023     		movs	r3, #0
 1554              	@ 535 "../../ChibiOS/os/kernel/src/chevents.c" 1
 1555 005a 83F31188 		msr     BASEPRI, r3
 1556              	@ 0 "" 2
 1557              	.LVL169:
 1558              		.thumb
 1559              	.LBE74:
 1560              		.loc 1 536 0
 1561 005e 1C46     		mov	r4, r3
 1562              	.LVL170:
 1563 0060 EEE7     		b	.L105
 1564              	.L109:
 1565 0062 00BF     		.align	2
 1566              	.L108:
 1567 0064 00000000 		.word	rlist
 1568              		.cfi_endproc
 1569              	.LFE23:
 1570              		.size	chEvtWaitAllTimeout, .-chEvtWaitAllTimeout
 1571 0068 AFF30080 		.section	.rodata.str1.4,"aMS",%progbits,1
 1571      AFF30080 
 1572              		.align	2
 1573              	.LC0:
 1574 0000 22636845 		.ascii	"\"chEvtRegisterMask\"()\000"
 1574      76745265 
 1574      67697374 
 1574      65724D61 
 1574      736B2228 
 1575 0016 0000     		.space	2
 1576              	.LC1:
 1577 0018 22636845 		.ascii	"\"chEvtUnregister\"()\000"
 1577      7674556E 
 1577      72656769 
 1577      73746572 
ARM GAS  /tmp/ccXG8rbk.s 			page 29


 1577      22282900 
 1578              	.LC2:
 1579 002c 22636845 		.ascii	"\"chEvtBroadcastMaskI\"()\000"
 1579      76744272 
 1579      6F616463 
 1579      6173744D 
 1579      61736B49 
 1580              	.LC3:
 1581 0044 22636845 		.ascii	"\"chEvtSignalI\"()\000"
 1581      76745369 
 1581      676E616C 
 1581      49222829 
 1581      00
 1582 0055 000000   		.space	3
 1583              	.LC4:
 1584 0058 22636845 		.ascii	"\"chEvtSignal\"()\000"
 1584      76745369 
 1584      676E616C 
 1584      22282900 
 1585              	.LC5:
 1586 0068 22636845 		.ascii	"\"chEvtDispatch\"()\000"
 1586      76744469 
 1586      73706174 
 1586      63682228 
 1586      2900
 1587 007a 0000     		.space	2
 1588              	.LC6:
 1589 007c 63684576 		.ascii	"chEvtDispatch(), #1\000"
 1589      74446973 
 1589      70617463 
 1589      6828292C 
 1589      20233100 
 1590              		.text
 1591              	.Letext0:
 1592              		.file 2 "/home/tino/ChibiStudio/tools/GNU Tools ARM Embedded/4.6 2012q2/bin/../lib/gcc/arm-none-ea
 1593              		.file 3 "../../ChibiOS/os/ports/GCC/ARMCMx/chtypes.h"
 1594              		.file 4 "../../ChibiOS/os/kernel/include/chlists.h"
 1595              		.file 5 "../../ChibiOS/os/kernel/include/chthreads.h"
 1596              		.file 6 "../../ChibiOS/os/ports/GCC/ARMCMx/chcore_v7m.h"
 1597              		.file 7 "../../ChibiOS/os/kernel/include/chschd.h"
 1598              		.file 8 "../../ChibiOS/os/kernel/include/chmtx.h"
 1599              		.file 9 "../../ChibiOS/os/kernel/include/chevents.h"