ARM GAS  /tmp/ccXG8rbk.s 			page 1


   1              		.syntax unified
   2              		.cpu cortex-m3
   3              		.fpu softvfp
   4              		.eabi_attribute 20, 1
   5              		.eabi_attribute 21, 1
   6              		.eabi_attribute 23, 3
   7              		.eabi_attribute 24, 1
   8              		.eabi_attribute 25, 1
   9              		.eabi_attribute 26, 1
  10              		.eabi_attribute 30, 2
  11              		.eabi_attribute 34, 1
  12              		.eabi_attribute 18, 4
  13              		.thumb
  14              		.file	"chevents.c"
  15              		.text
  16              	.Ltext0:
  17              		.cfi_sections	.debug_frame
  18              		.section	.text.chEvtRegisterMask,"ax",%progbits
  19              		.align	2
  20              		.p2align 4,,15
  21              		.global	chEvtRegisterMask
  22              		.thumb
  23              		.thumb_func
  24              		.type	chEvtRegisterMask, %function
  25              	chEvtRegisterMask:
  26              	.LFB7:
  27              		.file 1 "../../ChibiOS/os/kernel/src/chevents.c"
  28              		.loc 1 78 0
  29              		.cfi_startproc
  30              		@ args = 0, pretend = 0, frame = 0
  31              		@ frame_needed = 0, uses_anonymous_args = 0
  32              	.LVL0:
  33 0000 F8B5     		push	{r3, r4, r5, r6, r7, lr}
  34              	.LCFI0:
  35              		.cfi_def_cfa_offset 24
  36              		.cfi_offset 14, -4
  37              		.cfi_offset 7, -8
  38              		.cfi_offset 6, -12
  39              		.cfi_offset 5, -16
  40              		.cfi_offset 4, -20
  41              		.cfi_offset 3, -24
  42              		.loc 1 78 0
  43 0002 0446     		mov	r4, r0
  44 0004 0D46     		mov	r5, r1
  45 0006 1646     		mov	r6, r2
  46              		.loc 1 80 0
  47 0008 A0B1     		cbz	r0, .L2
  48              		.loc 1 80 0 is_stmt 0 discriminator 2
  49 000a 99B1     		cbz	r1, .L2
  50              	.LVL1:
  51              	.L3:
  52              	.LBB2:
  53              		.loc 1 82 0 is_stmt 1
  54 000c 2023     		movs	r3, #32
  55              	.LVL2:
  56              	@ 82 "../../ChibiOS/os/kernel/src/chevents.c" 1
  57 000e 83F31188 		msr     BASEPRI, r3
ARM GAS  /tmp/ccXG8rbk.s 			page 2


  58              	@ 0 "" 2
  59              	.LVL3:
  60              		.thumb
  61              	.LBE2:
  62 0012 FFF7FEFF 		bl	dbg_check_lock
  63              	.LVL4:
  64              		.loc 1 85 0
  65 0016 0948     		ldr	r0, .L5
  66              		.loc 1 83 0
  67 0018 2268     		ldr	r2, [r4, #0]
  68              		.loc 1 85 0
  69 001a 8369     		ldr	r3, [r0, #24]
  70              		.loc 1 87 0
  71 001c 0027     		movs	r7, #0
  72              		.loc 1 83 0
  73 001e 2A60     		str	r2, [r5, #0]
  74              		.loc 1 84 0
  75 0020 2560     		str	r5, [r4, #0]
  76              		.loc 1 85 0
  77 0022 6B60     		str	r3, [r5, #4]
  78              		.loc 1 86 0
  79 0024 AE60     		str	r6, [r5, #8]
  80              		.loc 1 87 0
  81 0026 EF60     		str	r7, [r5, #12]
  82              		.loc 1 88 0
  83 0028 FFF7FEFF 		bl	dbg_check_unlock
  84              	.LBB3:
  85 002c 3B46     		mov	r3, r7
  86              	.LVL5:
  87              	@ 88 "../../ChibiOS/os/kernel/src/chevents.c" 1
  88 002e 83F31188 		msr     BASEPRI, r3
  89              	@ 0 "" 2
  90              	.LVL6:
  91              		.thumb
  92              	.LBE3:
  93              		.loc 1 89 0
  94 0032 F8BD     		pop	{r3, r4, r5, r6, r7, pc}
  95              	.LVL7:
  96              	.L2:
  97              		.loc 1 80 0 discriminator 1
  98 0034 0248     		ldr	r0, .L5+4
  99 0036 FFF7FEFF 		bl	chDbgPanic
 100 003a E7E7     		b	.L3
 101              	.L6:
 102              		.align	2
 103              	.L5:
 104 003c 00000000 		.word	rlist
 105 0040 00000000 		.word	.LC0
 106              		.cfi_endproc
 107              	.LFE7:
 108              		.size	chEvtRegisterMask, .-chEvtRegisterMask
 109 0044 AFF30080 		.section	.text.chEvtUnregister,"ax",%progbits
 109      AFF30080 
 109      AFF30080 
 110              		.align	2
 111              		.p2align 4,,15
 112              		.global	chEvtUnregister
ARM GAS  /tmp/ccXG8rbk.s 			page 3


 113              		.thumb
 114              		.thumb_func
 115              		.type	chEvtUnregister, %function
 116              	chEvtUnregister:
 117              	.LFB8:
 118              		.loc 1 104 0
 119              		.cfi_startproc
 120              		@ args = 0, pretend = 0, frame = 0
 121              		@ frame_needed = 0, uses_anonymous_args = 0
 122              	.LVL8:
 123 0000 38B5     		push	{r3, r4, r5, lr}
 124              	.LCFI1:
 125              		.cfi_def_cfa_offset 16
 126              		.cfi_offset 14, -4
 127              		.cfi_offset 5, -8
 128              		.cfi_offset 4, -12
 129              		.cfi_offset 3, -16
 130              		.loc 1 104 0
 131 0002 0446     		mov	r4, r0
 132 0004 0D46     		mov	r5, r1
 133              		.loc 1 107 0
 134 0006 D8B1     		cbz	r0, .L8
 135              		.loc 1 107 0 is_stmt 0 discriminator 2
 136 0008 D1B1     		cbz	r1, .L8
 137              	.LVL9:
 138              	.L9:
 139              	.LBB4:
 140              		.loc 1 110 0 is_stmt 1
 141 000a 2023     		movs	r3, #32
 142              	.LVL10:
 143              	@ 110 "../../ChibiOS/os/kernel/src/chevents.c" 1
 144 000c 83F31188 		msr     BASEPRI, r3
 145              	@ 0 "" 2
 146              	.LVL11:
 147              		.thumb
 148              	.LBE4:
 149 0010 FFF7FEFF 		bl	dbg_check_lock
 150              	.LVL12:
 151              		.loc 1 111 0
 152 0014 2246     		mov	r2, r4
 153 0016 02E0     		b	.L10
 154              	.LVL13:
 155              	.L12:
 156              		.loc 1 112 0
 157 0018 9D42     		cmp	r5, r3
 158 001a 09D0     		beq	.L14
 159 001c 1A46     		mov	r2, r3
 160              	.LVL14:
 161              	.L10:
 162              		.loc 1 111 0 discriminator 1
 163 001e 1368     		ldr	r3, [r2, #0]
 164 0020 A342     		cmp	r3, r4
 165 0022 F9D1     		bne	.L12
 166              		.loc 1 118 0
 167 0024 FFF7FEFF 		bl	dbg_check_unlock
 168              	.LVL15:
 169              	.LBB5:
ARM GAS  /tmp/ccXG8rbk.s 			page 4


 170 0028 0023     		movs	r3, #0
 171              	.LVL16:
 172              	@ 118 "../../ChibiOS/os/kernel/src/chevents.c" 1
 173 002a 83F31188 		msr     BASEPRI, r3
 174              	@ 0 "" 2
 175              	.LVL17:
 176              		.thumb
 177              	.LBE5:
 178              		.loc 1 119 0
 179 002e 38BD     		pop	{r3, r4, r5, pc}
 180              	.LVL18:
 181              	.L14:
 182              		.loc 1 113 0
 183 0030 2B68     		ldr	r3, [r5, #0]
 184 0032 1360     		str	r3, [r2, #0]
 185              		.loc 1 118 0
 186 0034 FFF7FEFF 		bl	dbg_check_unlock
 187              	.LVL19:
 188              	.LBB6:
 189 0038 0023     		movs	r3, #0
 190              	@ 118 "../../ChibiOS/os/kernel/src/chevents.c" 1
 191 003a 83F31188 		msr     BASEPRI, r3
 192              	@ 0 "" 2
 193              	.LVL20:
 194              		.thumb
 195              	.LBE6:
 196              		.loc 1 119 0
 197 003e 38BD     		pop	{r3, r4, r5, pc}
 198              	.LVL21:
 199              	.L8:
 200              		.loc 1 107 0 discriminator 1
 201 0040 0148     		ldr	r0, .L15
 202 0042 FFF7FEFF 		bl	chDbgPanic
 203 0046 E0E7     		b	.L9
 204              	.L16:
 205              		.align	2
 206              	.L15:
 207 0048 18000000 		.word	.LC1
 208              		.cfi_endproc
 209              	.LFE8:
 210              		.size	chEvtUnregister, .-chEvtUnregister
 211 004c AFF30080 		.section	.text.chEvtGetAndClearEvents,"ax",%progbits
 212              		.align	2
 213              		.p2align 4,,15
 214              		.global	chEvtGetAndClearEvents
 215              		.thumb
 216              		.thumb_func
 217              		.type	chEvtGetAndClearEvents, %function
 218              	chEvtGetAndClearEvents:
 219              	.LFB9:
 220              		.loc 1 129 0
 221              		.cfi_startproc
 222              		@ args = 0, pretend = 0, frame = 0
 223              		@ frame_needed = 0, uses_anonymous_args = 0
 224              	.LVL22:
 225 0000 10B5     		push	{r4, lr}
 226              	.LCFI2:
ARM GAS  /tmp/ccXG8rbk.s 			page 5


 227              		.cfi_def_cfa_offset 8
 228              		.cfi_offset 14, -4
 229              		.cfi_offset 4, -8
 230              	.LBB7:
 231              		.loc 1 132 0
 232 0002 2023     		movs	r3, #32
 233              	.LVL23:
 234              	.LBE7:
 235              		.loc 1 129 0
 236 0004 0446     		mov	r4, r0
 237              	.LBB8:
 238              		.loc 1 132 0
 239              	@ 132 "../../ChibiOS/os/kernel/src/chevents.c" 1
 240 0006 83F31188 		msr     BASEPRI, r3
 241              	@ 0 "" 2
 242              	.LVL24:
 243              		.thumb
 244              	.LBE8:
 245 000a FFF7FEFF 		bl	dbg_check_lock
 246              	.LVL25:
 247              		.loc 1 134 0
 248 000e 40F20000 		movw	r0, #:lower16:rlist
 249 0012 C0F20000 		movt	r0, #:upper16:rlist
 250 0016 8269     		ldr	r2, [r0, #24]
 251 0018 D36B     		ldr	r3, [r2, #60]
 252              		.loc 1 135 0
 253 001a 23EA0401 		bic	r1, r3, r4
 254 001e D163     		str	r1, [r2, #60]
 255              		.loc 1 134 0
 256 0020 1C40     		ands	r4, r4, r3
 257              	.LVL26:
 258              		.loc 1 137 0
 259 0022 FFF7FEFF 		bl	dbg_check_unlock
 260              	.LBB9:
 261 0026 0023     		movs	r3, #0
 262              	.LVL27:
 263              	@ 137 "../../ChibiOS/os/kernel/src/chevents.c" 1
 264 0028 83F31188 		msr     BASEPRI, r3
 265              	@ 0 "" 2
 266              	.LVL28:
 267              		.thumb
 268              	.LBE9:
 269              		.loc 1 139 0
 270 002c 2046     		mov	r0, r4
 271 002e 10BD     		pop	{r4, pc}
 272              		.cfi_endproc
 273              	.LFE9:
 274              		.size	chEvtGetAndClearEvents, .-chEvtGetAndClearEvents
 275              		.section	.text.chEvtAddEvents,"ax",%progbits
 276              		.align	2
 277              		.p2align 4,,15
 278              		.global	chEvtAddEvents
 279              		.thumb
 280              		.thumb_func
 281              		.type	chEvtAddEvents, %function
 282              	chEvtAddEvents:
 283              	.LFB10:
ARM GAS  /tmp/ccXG8rbk.s 			page 6


 284              		.loc 1 150 0
 285              		.cfi_startproc
 286              		@ args = 0, pretend = 0, frame = 0
 287              		@ frame_needed = 0, uses_anonymous_args = 0
 288              	.LVL29:
 289 0000 10B5     		push	{r4, lr}
 290              	.LCFI3:
 291              		.cfi_def_cfa_offset 8
 292              		.cfi_offset 14, -4
 293              		.cfi_offset 4, -8
 294              	.LBB10:
 295              		.loc 1 152 0
 296 0002 2023     		movs	r3, #32
 297              	.LVL30:
 298              	.LBE10:
 299              		.loc 1 150 0
 300 0004 0446     		mov	r4, r0
 301              	.LBB11:
 302              		.loc 1 152 0
 303              	@ 152 "../../ChibiOS/os/kernel/src/chevents.c" 1
 304 0006 83F31188 		msr     BASEPRI, r3
 305              	@ 0 "" 2
 306              	.LVL31:
 307              		.thumb
 308              	.LBE11:
 309 000a FFF7FEFF 		bl	dbg_check_lock
 310              	.LVL32:
 311              		.loc 1 154 0
 312 000e 40F20000 		movw	r0, #:lower16:rlist
 313 0012 C0F20000 		movt	r0, #:upper16:rlist
 314 0016 8369     		ldr	r3, [r0, #24]
 315 0018 DA6B     		ldr	r2, [r3, #60]
 316 001a 1443     		orrs	r4, r4, r2
 317              	.LVL33:
 318 001c DC63     		str	r4, [r3, #60]
 319              	.LVL34:
 320              		.loc 1 156 0
 321 001e FFF7FEFF 		bl	dbg_check_unlock
 322              	.LBB12:
 323 0022 0023     		movs	r3, #0
 324              	.LVL35:
 325              	@ 156 "../../ChibiOS/os/kernel/src/chevents.c" 1
 326 0024 83F31188 		msr     BASEPRI, r3
 327              	@ 0 "" 2
 328              	.LVL36:
 329              		.thumb
 330              	.LBE12:
 331              		.loc 1 158 0
 332 0028 2046     		mov	r0, r4
 333 002a 10BD     		pop	{r4, pc}
 334              		.cfi_endproc
 335              	.LFE10:
 336              		.size	chEvtAddEvents, .-chEvtAddEvents
 337 002c AFF30080 		.section	.text.chEvtBroadcastFlagsI,"ax",%progbits
 338              		.align	2
 339              		.p2align 4,,15
 340              		.global	chEvtBroadcastFlagsI
ARM GAS  /tmp/ccXG8rbk.s 			page 7


 341              		.thumb
 342              		.thumb_func
 343              		.type	chEvtBroadcastFlagsI, %function
 344              	chEvtBroadcastFlagsI:
 345              	.LFB11:
 346              		.loc 1 177 0
 347              		.cfi_startproc
 348              		@ args = 0, pretend = 0, frame = 0
 349              		@ frame_needed = 0, uses_anonymous_args = 0
 350              	.LVL37:
 351 0000 2DE9F843 		push	{r3, r4, r5, r6, r7, r8, r9, lr}
 352              	.LCFI4:
 353              		.cfi_def_cfa_offset 32
 354              		.cfi_offset 14, -4
 355              		.cfi_offset 9, -8
 356              		.cfi_offset 8, -12
 357              		.cfi_offset 7, -16
 358              		.cfi_offset 6, -20
 359              		.cfi_offset 5, -24
 360              		.cfi_offset 4, -28
 361              		.cfi_offset 3, -32
 362              		.loc 1 177 0
 363 0004 0446     		mov	r4, r0
 364 0006 8846     		mov	r8, r1
 365              		.loc 1 180 0
 366 0008 FFF7FEFF 		bl	chDbgCheckClassI
 367              	.LVL38:
 368              		.loc 1 181 0
 369 000c 002C     		cmp	r4, #0
 370 000e 35D0     		beq	.L30
 371              	.L20:
 372              		.loc 1 183 0
 373 0010 2568     		ldr	r5, [r4, #0]
 374              	.LVL39:
 375              		.loc 1 184 0
 376 0012 AC42     		cmp	r4, r5
 377 0014 23D0     		beq	.L19
 378              	.LBB17:
 379              	.LBB18:
 380              	.LBB19:
 381              	.LBB20:
 382              		.loc 1 255 0
 383 0016 4FF00009 		mov	r9, #0
 384 001a 02E0     		b	.L27
 385              	.LVL40:
 386              	.L25:
 387              	.LBE20:
 388              	.LBE19:
 389              	.LBE18:
 390              	.LBE17:
 391              		.loc 1 187 0
 392 001c 2D68     		ldr	r5, [r5, #0]
 393              	.LVL41:
 394              		.loc 1 184 0
 395 001e AC42     		cmp	r4, r5
 396 0020 1DD0     		beq	.L19
 397              	.LVL42:
ARM GAS  /tmp/ccXG8rbk.s 			page 8


 398              	.L27:
 399              		.loc 1 185 0
 400 0022 E868     		ldr	r0, [r5, #12]
 401              		.loc 1 186 0
 402 0024 6E68     		ldr	r6, [r5, #4]
 403              		.loc 1 185 0
 404 0026 40EA0803 		orr	r3, r0, r8
 405 002a EB60     		str	r3, [r5, #12]
 406              		.loc 1 186 0
 407 002c AF68     		ldr	r7, [r5, #8]
 408              	.LVL43:
 409              	.LBB27:
 410              	.LBB25:
 411              		.loc 1 246 0
 412 002e FFF7FEFF 		bl	chDbgCheckClassI
 413              	.LVL44:
 414              		.loc 1 247 0
 415 0032 FEB1     		cbz	r6, .L31
 416              	.L22:
 417              		.loc 1 249 0
 418 0034 F26B     		ldr	r2, [r6, #60]
 419              		.loc 1 251 0
 420 0036 96F82030 		ldrb	r3, [r6, #32]	@ zero_extendqisi2
 421              		.loc 1 249 0
 422 003a 1743     		orrs	r7, r7, r2
 423              	.LVL45:
 424              		.loc 1 251 0
 425 003c 082B     		cmp	r3, #8
 426              		.loc 1 249 0
 427 003e F763     		str	r7, [r6, #60]
 428              		.loc 1 251 0
 429 0040 0FD0     		beq	.L32
 430              		.loc 1 252 0
 431 0042 092B     		cmp	r3, #9
 432 0044 EAD1     		bne	.L25
 433              		.loc 1 254 0
 434 0046 B36A     		ldr	r3, [r6, #40]
 435 0048 1F40     		ands	r7, r7, r3
 436              		.loc 1 253 0
 437 004a BB42     		cmp	r3, r7
 438 004c E6D1     		bne	.L25
 439              	.LVL46:
 440              	.LBB23:
 441              	.LBB21:
 442              		.loc 1 255 0
 443 004e 3046     		mov	r0, r6
 444 0050 FFF7FEFF 		bl	chSchReadyI
 445 0054 C0F82890 		str	r9, [r0, #40]
 446              	.L33:
 447              	.LBE21:
 448              	.LBE23:
 449              	.LBE25:
 450              	.LBE27:
 451              		.loc 1 187 0
 452 0058 2D68     		ldr	r5, [r5, #0]
 453              	.LVL47:
 454              		.loc 1 184 0
ARM GAS  /tmp/ccXG8rbk.s 			page 9


 455 005a AC42     		cmp	r4, r5
 456 005c E1D1     		bne	.L27
 457              	.LVL48:
 458              	.L19:
 459 005e BDE8F883 		pop	{r3, r4, r5, r6, r7, r8, r9, pc}
 460              	.LVL49:
 461              	.L32:
 462              	.LBB28:
 463              	.LBB26:
 464              		.loc 1 252 0
 465 0062 B16A     		ldr	r1, [r6, #40]
 466              		.loc 1 251 0
 467 0064 0F42     		tst	r7, r1
 468 0066 D9D0     		beq	.L25
 469              	.LVL50:
 470              	.LBB24:
 471              	.LBB22:
 472              		.loc 1 255 0
 473 0068 3046     		mov	r0, r6
 474 006a FFF7FEFF 		bl	chSchReadyI
 475 006e C0F82890 		str	r9, [r0, #40]
 476 0072 F1E7     		b	.L33
 477              	.LVL51:
 478              	.L31:
 479              	.LBE22:
 480              	.LBE24:
 481              		.loc 1 247 0
 482 0074 0348     		ldr	r0, .L34
 483 0076 FFF7FEFF 		bl	chDbgPanic
 484 007a DBE7     		b	.L22
 485              	.LVL52:
 486              	.L30:
 487              	.LBE26:
 488              	.LBE28:
 489              		.loc 1 181 0 discriminator 1
 490 007c 0248     		ldr	r0, .L34+4
 491 007e FFF7FEFF 		bl	chDbgPanic
 492 0082 C5E7     		b	.L20
 493              	.L35:
 494              		.align	2
 495              	.L34:
 496 0084 44000000 		.word	.LC3
 497 0088 2C000000 		.word	.LC2
 498              		.cfi_endproc
 499              	.LFE11:
 500              		.size	chEvtBroadcastFlagsI, .-chEvtBroadcastFlagsI
 501 008c AFF30080 		.section	.text.chEvtGetAndClearFlags,"ax",%progbits
 502              		.align	2
 503              		.p2align 4,,15
 504              		.global	chEvtGetAndClearFlags
 505              		.thumb
 506              		.thumb_func
 507              		.type	chEvtGetAndClearFlags, %function
 508              	chEvtGetAndClearFlags:
 509              	.LFB12:
 510              		.loc 1 202 0
 511              		.cfi_startproc
ARM GAS  /tmp/ccXG8rbk.s 			page 10


 512              		@ args = 0, pretend = 0, frame = 0
 513              		@ frame_needed = 0, uses_anonymous_args = 0
 514              	.LVL53:
 515 0000 70B5     		push	{r4, r5, r6, lr}
 516              	.LCFI5:
 517              		.cfi_def_cfa_offset 16
 518              		.cfi_offset 14, -4
 519              		.cfi_offset 6, -8
 520              		.cfi_offset 5, -12
 521              		.cfi_offset 4, -16
 522              	.LBB29:
 523              		.loc 1 205 0
 524 0002 2023     		movs	r3, #32
 525              	.LVL54:
 526              	.LBE29:
 527              		.loc 1 202 0
 528 0004 0446     		mov	r4, r0
 529              	.LBB30:
 530              		.loc 1 205 0
 531              	@ 205 "../../ChibiOS/os/kernel/src/chevents.c" 1
 532 0006 83F31188 		msr     BASEPRI, r3
 533              	@ 0 "" 2
 534              	.LVL55:
 535              		.thumb
 536              	.LBE30:
 537              		.loc 1 208 0
 538 000a 0026     		movs	r6, #0
 539              		.loc 1 205 0
 540 000c FFF7FEFF 		bl	dbg_check_lock
 541              	.LVL56:
 542              		.loc 1 207 0
 543 0010 E568     		ldr	r5, [r4, #12]
 544              	.LVL57:
 545              		.loc 1 208 0
 546 0012 E660     		str	r6, [r4, #12]
 547              		.loc 1 210 0
 548 0014 FFF7FEFF 		bl	dbg_check_unlock
 549              	.LVL58:
 550              	.LBB31:
 551 0018 3346     		mov	r3, r6
 552              	.LVL59:
 553              	@ 210 "../../ChibiOS/os/kernel/src/chevents.c" 1
 554 001a 83F31188 		msr     BASEPRI, r3
 555              	@ 0 "" 2
 556              	.LVL60:
 557              		.thumb
 558              	.LBE31:
 559              		.loc 1 212 0
 560 001e 2846     		mov	r0, r5
 561 0020 70BD     		pop	{r4, r5, r6, pc}
 562              		.cfi_endproc
 563              	.LFE12:
 564              		.size	chEvtGetAndClearFlags, .-chEvtGetAndClearFlags
 565 0022 00BFAFF3 		.section	.text.chEvtSignal,"ax",%progbits
 565      0080AFF3 
 565      0080AFF3 
 565      0080
ARM GAS  /tmp/ccXG8rbk.s 			page 11


 566              		.align	2
 567              		.p2align 4,,15
 568              		.global	chEvtSignal
 569              		.thumb
 570              		.thumb_func
 571              		.type	chEvtSignal, %function
 572              	chEvtSignal:
 573              	.LFB13:
 574              		.loc 1 222 0
 575              		.cfi_startproc
 576              		@ args = 0, pretend = 0, frame = 0
 577              		@ frame_needed = 0, uses_anonymous_args = 0
 578              	.LVL61:
 579 0000 38B5     		push	{r3, r4, r5, lr}
 580              	.LCFI6:
 581              		.cfi_def_cfa_offset 16
 582              		.cfi_offset 14, -4
 583              		.cfi_offset 5, -8
 584              		.cfi_offset 4, -12
 585              		.cfi_offset 3, -16
 586              		.loc 1 222 0
 587 0002 0446     		mov	r4, r0
 588 0004 0D46     		mov	r5, r1
 589              		.loc 1 224 0
 590 0006 0028     		cmp	r0, #0
 591 0008 33D0     		beq	.L44
 592              	.LVL62:
 593              	.L38:
 594              	.LBB38:
 595              		.loc 1 226 0
 596 000a 2023     		movs	r3, #32
 597              	.LVL63:
 598              	@ 226 "../../ChibiOS/os/kernel/src/chevents.c" 1
 599 000c 83F31188 		msr     BASEPRI, r3
 600              	@ 0 "" 2
 601              	.LVL64:
 602              		.thumb
 603              	.LBE38:
 604 0010 FFF7FEFF 		bl	dbg_check_lock
 605              	.LVL65:
 606              	.LBB39:
 607              	.LBB40:
 608              		.loc 1 246 0
 609 0014 FFF7FEFF 		bl	chDbgCheckClassI
 610              		.loc 1 247 0
 611 0018 002C     		cmp	r4, #0
 612 001a 2ED0     		beq	.L45
 613              	.L39:
 614              		.loc 1 249 0
 615 001c E26B     		ldr	r2, [r4, #60]
 616              		.loc 1 251 0
 617 001e 94F82030 		ldrb	r3, [r4, #32]	@ zero_extendqisi2
 618              		.loc 1 249 0
 619 0022 1543     		orrs	r5, r5, r2
 620              	.LVL66:
 621              		.loc 1 251 0
 622 0024 082B     		cmp	r3, #8
ARM GAS  /tmp/ccXG8rbk.s 			page 12


 623              		.loc 1 249 0
 624 0026 E563     		str	r5, [r4, #60]
 625              		.loc 1 251 0
 626 0028 1AD0     		beq	.L46
 627              		.loc 1 252 0
 628 002a 092B     		cmp	r3, #9
 629 002c 07D0     		beq	.L47
 630              	.L42:
 631              	.LBE40:
 632              	.LBE39:
 633              		.loc 1 228 0
 634 002e FFF7FEFF 		bl	chSchRescheduleS
 635              		.loc 1 229 0
 636 0032 FFF7FEFF 		bl	dbg_check_unlock
 637              	.LBB48:
 638 0036 0023     		movs	r3, #0
 639              	.LVL67:
 640              	@ 229 "../../ChibiOS/os/kernel/src/chevents.c" 1
 641 0038 83F31188 		msr     BASEPRI, r3
 642              	@ 0 "" 2
 643              	.LVL68:
 644              		.thumb
 645              	.LBE48:
 646              		.loc 1 230 0
 647 003c 38BD     		pop	{r3, r4, r5, pc}
 648              	.LVL69:
 649              	.L47:
 650              	.LBB49:
 651              	.LBB45:
 652              		.loc 1 254 0
 653 003e A06A     		ldr	r0, [r4, #40]
 654 0040 0540     		ands	r5, r5, r0
 655              		.loc 1 253 0
 656 0042 A842     		cmp	r0, r5
 657 0044 F3D1     		bne	.L42
 658              	.LVL70:
 659              	.LBB41:
 660              	.LBB42:
 661              		.loc 1 255 0
 662 0046 2046     		mov	r0, r4
 663 0048 FFF7FEFF 		bl	chSchReadyI
 664 004c 0021     		movs	r1, #0
 665 004e 8162     		str	r1, [r0, #40]
 666              	.L48:
 667              	.LBE42:
 668              	.LBE41:
 669              	.LBE45:
 670              	.LBE49:
 671              		.loc 1 228 0
 672 0050 FFF7FEFF 		bl	chSchRescheduleS
 673              		.loc 1 229 0
 674 0054 FFF7FEFF 		bl	dbg_check_unlock
 675              	.LBB50:
 676 0058 0023     		movs	r3, #0
 677              	@ 229 "../../ChibiOS/os/kernel/src/chevents.c" 1
 678 005a 83F31188 		msr     BASEPRI, r3
 679              	@ 0 "" 2
ARM GAS  /tmp/ccXG8rbk.s 			page 13


 680              	.LVL71:
 681              		.thumb
 682              	.LBE50:
 683              		.loc 1 230 0
 684 005e 38BD     		pop	{r3, r4, r5, pc}
 685              	.LVL72:
 686              	.L46:
 687              	.LBB51:
 688              	.LBB46:
 689              		.loc 1 252 0
 690 0060 A36A     		ldr	r3, [r4, #40]
 691              		.loc 1 251 0
 692 0062 1D42     		tst	r5, r3
 693 0064 E3D0     		beq	.L42
 694              	.LVL73:
 695              	.LBB44:
 696              	.LBB43:
 697              		.loc 1 255 0
 698 0066 2046     		mov	r0, r4
 699 0068 FFF7FEFF 		bl	chSchReadyI
 700 006c 0021     		movs	r1, #0
 701 006e 8162     		str	r1, [r0, #40]
 702 0070 EEE7     		b	.L48
 703              	.LVL74:
 704              	.L44:
 705              	.LBE43:
 706              	.LBE44:
 707              	.LBE46:
 708              	.LBE51:
 709              		.loc 1 224 0 discriminator 1
 710 0072 0448     		ldr	r0, .L49
 711 0074 FFF7FEFF 		bl	chDbgPanic
 712              	.LVL75:
 713 0078 C7E7     		b	.L38
 714              	.LVL76:
 715              	.L45:
 716              	.LBB52:
 717              	.LBB47:
 718              		.loc 1 247 0
 719 007a 0348     		ldr	r0, .L49+4
 720 007c FFF7FEFF 		bl	chDbgPanic
 721 0080 CCE7     		b	.L39
 722              	.L50:
 723 0082 00BF     		.align	2
 724              	.L49:
 725 0084 58000000 		.word	.LC4
 726 0088 44000000 		.word	.LC3
 727              	.LBE47:
 728              	.LBE52:
 729              		.cfi_endproc
 730              	.LFE13:
 731              		.size	chEvtSignal, .-chEvtSignal
 732 008c AFF30080 		.section	.text.chEvtSignalI,"ax",%progbits
 733              		.align	2
 734              		.p2align 4,,15
 735              		.global	chEvtSignalI
 736              		.thumb
ARM GAS  /tmp/ccXG8rbk.s 			page 14


 737              		.thumb_func
 738              		.type	chEvtSignalI, %function
 739              	chEvtSignalI:
 740              	.LFB14:
 741              		.loc 1 244 0
 742              		.cfi_startproc
 743              		@ args = 0, pretend = 0, frame = 0
 744              		@ frame_needed = 0, uses_anonymous_args = 0
 745              	.LVL77:
 746 0000 38B5     		push	{r3, r4, r5, lr}
 747              	.LCFI7:
 748              		.cfi_def_cfa_offset 16
 749              		.cfi_offset 14, -4
 750              		.cfi_offset 5, -8
 751              		.cfi_offset 4, -12
 752              		.cfi_offset 3, -16
 753              		.loc 1 244 0
 754 0002 0446     		mov	r4, r0
 755 0004 0D46     		mov	r5, r1
 756              		.loc 1 246 0
 757 0006 FFF7FEFF 		bl	chDbgCheckClassI
 758              	.LVL78:
 759              		.loc 1 247 0
 760 000a BCB1     		cbz	r4, .L56
 761              	.L52:
 762              		.loc 1 249 0
 763 000c E26B     		ldr	r2, [r4, #60]
 764              		.loc 1 251 0
 765 000e 94F82030 		ldrb	r3, [r4, #32]	@ zero_extendqisi2
 766              		.loc 1 249 0
 767 0012 1543     		orrs	r5, r5, r2
 768              	.LVL79:
 769              		.loc 1 251 0
 770 0014 082B     		cmp	r3, #8
 771              		.loc 1 249 0
 772 0016 E563     		str	r5, [r4, #60]
 773              		.loc 1 251 0
 774 0018 0CD0     		beq	.L57
 775              		.loc 1 252 0
 776 001a 092B     		cmp	r3, #9
 777 001c 00D0     		beq	.L58
 778              	.L51:
 779 001e 38BD     		pop	{r3, r4, r5, pc}
 780              	.L58:
 781              		.loc 1 254 0
 782 0020 A06A     		ldr	r0, [r4, #40]
 783 0022 0540     		ands	r5, r5, r0
 784              		.loc 1 253 0
 785 0024 A842     		cmp	r0, r5
 786 0026 FAD1     		bne	.L51
 787              	.L54:
 788              	.LVL80:
 789              	.LBB55:
 790              	.LBB56:
 791              		.loc 1 255 0
 792 0028 2046     		mov	r0, r4
 793 002a FFF7FEFF 		bl	chSchReadyI
ARM GAS  /tmp/ccXG8rbk.s 			page 15


 794 002e 0021     		movs	r1, #0
 795 0030 8162     		str	r1, [r0, #40]
 796 0032 38BD     		pop	{r3, r4, r5, pc}
 797              	.LVL81:
 798              	.L57:
 799              	.LBE56:
 800              	.LBE55:
 801              		.loc 1 252 0 discriminator 1
 802 0034 A36A     		ldr	r3, [r4, #40]
 803              		.loc 1 251 0 discriminator 1
 804 0036 1D42     		tst	r5, r3
 805 0038 F6D1     		bne	.L54
 806 003a 38BD     		pop	{r3, r4, r5, pc}
 807              	.LVL82:
 808              	.L56:
 809              		.loc 1 247 0 discriminator 1
 810 003c 0148     		ldr	r0, .L59
 811 003e FFF7FEFF 		bl	chDbgPanic
 812 0042 E3E7     		b	.L52
 813              	.L60:
 814              		.align	2
 815              	.L59:
 816 0044 44000000 		.word	.LC3
 817              		.cfi_endproc
 818              	.LFE14:
 819              		.size	chEvtSignalI, .-chEvtSignalI
 820 0048 AFF30080 		.section	.text.chEvtBroadcastFlags,"ax",%progbits
 820      AFF30080 
 821              		.align	2
 822              		.p2align 4,,15
 823              		.global	chEvtBroadcastFlags
 824              		.thumb
 825              		.thumb_func
 826              		.type	chEvtBroadcastFlags, %function
 827              	chEvtBroadcastFlags:
 828              	.LFB15:
 829              		.loc 1 271 0
 830              		.cfi_startproc
 831              		@ args = 0, pretend = 0, frame = 0
 832              		@ frame_needed = 0, uses_anonymous_args = 0
 833              	.LVL83:
 834 0000 38B5     		push	{r3, r4, r5, lr}
 835              	.LCFI8:
 836              		.cfi_def_cfa_offset 16
 837              		.cfi_offset 14, -4
 838              		.cfi_offset 5, -8
 839              		.cfi_offset 4, -12
 840              		.cfi_offset 3, -16
 841              		.loc 1 271 0
 842 0002 0546     		mov	r5, r0
 843 0004 0C46     		mov	r4, r1
 844              	.LBB57:
 845              		.loc 1 273 0
 846 0006 2023     		movs	r3, #32
 847              	.LVL84:
 848              	@ 273 "../../ChibiOS/os/kernel/src/chevents.c" 1
 849 0008 83F31188 		msr     BASEPRI, r3
ARM GAS  /tmp/ccXG8rbk.s 			page 16


 850              	@ 0 "" 2
 851              	.LVL85:
 852              		.thumb
 853              	.LBE57:
 854 000c FFF7FEFF 		bl	dbg_check_lock
 855              	.LVL86:
 856              		.loc 1 274 0
 857 0010 2846     		mov	r0, r5
 858 0012 2146     		mov	r1, r4
 859 0014 FFF7FEFF 		bl	chEvtBroadcastFlagsI
 860              		.loc 1 275 0
 861 0018 FFF7FEFF 		bl	chSchRescheduleS
 862              		.loc 1 276 0
 863 001c FFF7FEFF 		bl	dbg_check_unlock
 864              	.LBB58:
 865 0020 0023     		movs	r3, #0
 866              	.LVL87:
 867              	@ 276 "../../ChibiOS/os/kernel/src/chevents.c" 1
 868 0022 83F31188 		msr     BASEPRI, r3
 869              	@ 0 "" 2
 870              	.LVL88:
 871              		.thumb
 872              	.LBE58:
 873              		.loc 1 277 0
 874 0026 38BD     		pop	{r3, r4, r5, pc}
 875              		.cfi_endproc
 876              	.LFE15:
 877              		.size	chEvtBroadcastFlags, .-chEvtBroadcastFlags
 878 0028 AFF30080 		.section	.text.chEvtGetAndClearFlagsI,"ax",%progbits
 878      AFF30080 
 879              		.align	2
 880              		.p2align 4,,15
 881              		.global	chEvtGetAndClearFlagsI
 882              		.thumb
 883              		.thumb_func
 884              		.type	chEvtGetAndClearFlagsI, %function
 885              	chEvtGetAndClearFlagsI:
 886              	.LFB16:
 887              		.loc 1 290 0
 888              		.cfi_startproc
 889              		@ args = 0, pretend = 0, frame = 0
 890              		@ frame_needed = 0, uses_anonymous_args = 0
 891              		@ link register save eliminated.
 892              	.LVL89:
 893              		.loc 1 290 0
 894 0000 0346     		mov	r3, r0
 895              		.loc 1 294 0
 896 0002 0022     		movs	r2, #0
 897              		.loc 1 293 0
 898 0004 C068     		ldr	r0, [r0, #12]
 899              	.LVL90:
 900              		.loc 1 294 0
 901 0006 DA60     		str	r2, [r3, #12]
 902              		.loc 1 297 0
 903 0008 7047     		bx	lr
 904              		.cfi_endproc
 905              	.LFE16:
ARM GAS  /tmp/ccXG8rbk.s 			page 17


 906              		.size	chEvtGetAndClearFlagsI, .-chEvtGetAndClearFlagsI
 907 000a 00BFAFF3 		.section	.text.chEvtDispatch,"ax",%progbits
 907      0080
 908              		.align	2
 909              		.p2align 4,,15
 910              		.global	chEvtDispatch
 911              		.thumb
 912              		.thumb_func
 913              		.type	chEvtDispatch, %function
 914              	chEvtDispatch:
 915              	.LFB17:
 916              		.loc 1 308 0
 917              		.cfi_startproc
 918              		@ args = 0, pretend = 0, frame = 0
 919              		@ frame_needed = 0, uses_anonymous_args = 0
 920              	.LVL91:
 921 0000 2DE9F041 		push	{r4, r5, r6, r7, r8, lr}
 922              	.LCFI9:
 923              		.cfi_def_cfa_offset 24
 924              		.cfi_offset 14, -4
 925              		.cfi_offset 8, -8
 926              		.cfi_offset 7, -12
 927              		.cfi_offset 6, -16
 928              		.cfi_offset 5, -20
 929              		.cfi_offset 4, -24
 930              		.loc 1 308 0
 931 0004 0446     		mov	r4, r0
 932 0006 0E46     		mov	r6, r1
 933              		.loc 1 311 0
 934 0008 C8B1     		cbz	r0, .L70
 935              	.LVL92:
 936              	.L64:
 937              		.loc 1 314 0 discriminator 1
 938 000a 8EB1     		cbz	r6, .L63
 939              		.loc 1 314 0 is_stmt 0
 940 000c 0027     		movs	r7, #0
 941 000e 3D46     		mov	r5, r7
 942              		.loc 1 315 0 is_stmt 1
 943 0010 4FF00108 		mov	r8, #1
 944              	.LVL93:
 945              	.L68:
 946 0014 08FA05F3 		lsl	r3, r8, r5
 947 0018 3342     		tst	r3, r6
 948 001a 05D0     		beq	.L66
 949              		.loc 1 319 0
 950 001c 26EA0306 		bic	r6, r6, r3
 951              	.LVL94:
 952              		.loc 1 316 0
 953 0020 E359     		ldr	r3, [r4, r7]
 954 0022 3BB1     		cbz	r3, .L71
 955              	.L67:
 956              	.LVL95:
 957              		.loc 1 320 0
 958 0024 2846     		mov	r0, r5
 959 0026 9847     		blx	r3
 960              	.L66:
 961              		.loc 1 322 0
ARM GAS  /tmp/ccXG8rbk.s 			page 18


 962 0028 0135     		adds	r5, r5, #1
 963              	.LVL96:
 964 002a 0437     		adds	r7, r7, #4
 965              		.loc 1 314 0
 966 002c 002E     		cmp	r6, #0
 967 002e F1D1     		bne	.L68
 968              	.LVL97:
 969              	.L63:
 970 0030 BDE8F081 		pop	{r4, r5, r6, r7, r8, pc}
 971              	.LVL98:
 972              	.L71:
 973              		.loc 1 316 0 discriminator 1
 974 0034 0448     		ldr	r0, .L72
 975 0036 FFF7FEFF 		bl	chDbgPanic
 976 003a E359     		ldr	r3, [r4, r7]
 977 003c F2E7     		b	.L67
 978              	.LVL99:
 979              	.L70:
 980              		.loc 1 311 0 discriminator 1
 981 003e 0348     		ldr	r0, .L72+4
 982 0040 FFF7FEFF 		bl	chDbgPanic
 983              	.LVL100:
 984 0044 E1E7     		b	.L64
 985              	.L73:
 986 0046 00BF     		.align	2
 987              	.L72:
 988 0048 7C000000 		.word	.LC6
 989 004c 68000000 		.word	.LC5
 990              		.cfi_endproc
 991              	.LFE17:
 992              		.size	chEvtDispatch, .-chEvtDispatch
 993              		.section	.text.chEvtWaitOne,"ax",%progbits
 994              		.align	2
 995              		.p2align 4,,15
 996              		.global	chEvtWaitOne
 997              		.thumb
 998              		.thumb_func
 999              		.type	chEvtWaitOne, %function
 1000              	chEvtWaitOne:
 1001              	.LFB18:
 1002              		.loc 1 343 0
 1003              		.cfi_startproc
 1004              		@ args = 0, pretend = 0, frame = 0
 1005              		@ frame_needed = 0, uses_anonymous_args = 0
 1006              	.LVL101:
 1007 0000 38B5     		push	{r3, r4, r5, lr}
 1008              	.LCFI10:
 1009              		.cfi_def_cfa_offset 16
 1010              		.cfi_offset 14, -4
 1011              		.cfi_offset 5, -8
 1012              		.cfi_offset 4, -12
 1013              		.cfi_offset 3, -16
 1014              		.loc 1 344 0
 1015 0002 0F4B     		ldr	r3, .L76
 1016              		.loc 1 343 0
 1017 0004 0546     		mov	r5, r0
 1018              		.loc 1 344 0
ARM GAS  /tmp/ccXG8rbk.s 			page 19


 1019 0006 9C69     		ldr	r4, [r3, #24]
 1020              	.LVL102:
 1021              	.LBB59:
 1022              		.loc 1 347 0
 1023 0008 2023     		movs	r3, #32
 1024              	.LVL103:
 1025              	@ 347 "../../ChibiOS/os/kernel/src/chevents.c" 1
 1026 000a 83F31188 		msr     BASEPRI, r3
 1027              	@ 0 "" 2
 1028              	.LVL104:
 1029              		.thumb
 1030              	.LBE59:
 1031 000e FFF7FEFF 		bl	dbg_check_lock
 1032              	.LVL105:
 1033              		.loc 1 349 0
 1034 0012 E36B     		ldr	r3, [r4, #60]
 1035              	.LVL106:
 1036 0014 15EA0302 		ands	r2, r5, r3
 1037 0018 06D1     		bne	.L75
 1038              		.loc 1 350 0
 1039 001a A562     		str	r5, [r4, #40]
 1040              		.loc 1 351 0
 1041 001c 0820     		movs	r0, #8
 1042 001e FFF7FEFF 		bl	chSchGoSleepS
 1043              	.LVL107:
 1044              		.loc 1 352 0
 1045 0022 E36B     		ldr	r3, [r4, #60]
 1046 0024 05EA0302 		and	r2, r5, r3
 1047              	.LVL108:
 1048              	.L75:
 1049              		.loc 1 354 0
 1050 0028 5542     		negs	r5, r2
 1051              	.LVL109:
 1052 002a 1540     		ands	r5, r5, r2
 1053              	.LVL110:
 1054              		.loc 1 355 0
 1055 002c 23EA0500 		bic	r0, r3, r5
 1056 0030 E063     		str	r0, [r4, #60]
 1057              		.loc 1 357 0
 1058 0032 FFF7FEFF 		bl	dbg_check_unlock
 1059              	.LBB60:
 1060 0036 0023     		movs	r3, #0
 1061              	.LVL111:
 1062              	@ 357 "../../ChibiOS/os/kernel/src/chevents.c" 1
 1063 0038 83F31188 		msr     BASEPRI, r3
 1064              	@ 0 "" 2
 1065              	.LVL112:
 1066              		.thumb
 1067              	.LBE60:
 1068              		.loc 1 359 0
 1069 003c 2846     		mov	r0, r5
 1070 003e 38BD     		pop	{r3, r4, r5, pc}
 1071              	.L77:
 1072              		.align	2
 1073              	.L76:
 1074 0040 00000000 		.word	rlist
 1075              		.cfi_endproc
ARM GAS  /tmp/ccXG8rbk.s 			page 20


 1076              	.LFE18:
 1077              		.size	chEvtWaitOne, .-chEvtWaitOne
 1078 0044 AFF30080 		.section	.text.chEvtWaitAny,"ax",%progbits
 1078      AFF30080 
 1078      AFF30080 
 1079              		.align	2
 1080              		.p2align 4,,15
 1081              		.global	chEvtWaitAny
 1082              		.thumb
 1083              		.thumb_func
 1084              		.type	chEvtWaitAny, %function
 1085              	chEvtWaitAny:
 1086              	.LFB19:
 1087              		.loc 1 372 0
 1088              		.cfi_startproc
 1089              		@ args = 0, pretend = 0, frame = 0
 1090              		@ frame_needed = 0, uses_anonymous_args = 0
 1091              	.LVL113:
 1092              		.loc 1 373 0
 1093 0000 0E4B     		ldr	r3, .L80
 1094              		.loc 1 372 0
 1095 0002 70B5     		push	{r4, r5, r6, lr}
 1096              	.LCFI11:
 1097              		.cfi_def_cfa_offset 16
 1098              		.cfi_offset 14, -4
 1099              		.cfi_offset 6, -8
 1100              		.cfi_offset 5, -12
 1101              		.cfi_offset 4, -16
 1102              		.loc 1 373 0
 1103 0004 9C69     		ldr	r4, [r3, #24]
 1104              	.LVL114:
 1105              		.loc 1 372 0
 1106 0006 0546     		mov	r5, r0
 1107              	.LBB61:
 1108              		.loc 1 376 0
 1109 0008 2023     		movs	r3, #32
 1110              	.LVL115:
 1111              	@ 376 "../../ChibiOS/os/kernel/src/chevents.c" 1
 1112 000a 83F31188 		msr     BASEPRI, r3
 1113              	@ 0 "" 2
 1114              	.LVL116:
 1115              		.thumb
 1116              	.LBE61:
 1117 000e FFF7FEFF 		bl	dbg_check_lock
 1118              	.LVL117:
 1119              		.loc 1 378 0
 1120 0012 E36B     		ldr	r3, [r4, #60]
 1121              	.LVL118:
 1122 0014 15EA0306 		ands	r6, r5, r3
 1123 0018 06D1     		bne	.L79
 1124              		.loc 1 379 0
 1125 001a A562     		str	r5, [r4, #40]
 1126              		.loc 1 380 0
 1127 001c 0820     		movs	r0, #8
 1128 001e FFF7FEFF 		bl	chSchGoSleepS
 1129              	.LVL119:
 1130              		.loc 1 381 0
ARM GAS  /tmp/ccXG8rbk.s 			page 21


 1131 0022 E36B     		ldr	r3, [r4, #60]
 1132 0024 05EA0306 		and	r6, r5, r3
 1133              	.LVL120:
 1134              	.L79:
 1135              		.loc 1 383 0
 1136 0028 23EA0600 		bic	r0, r3, r6
 1137 002c E063     		str	r0, [r4, #60]
 1138              		.loc 1 385 0
 1139 002e FFF7FEFF 		bl	dbg_check_unlock
 1140              	.LBB62:
 1141 0032 0023     		movs	r3, #0
 1142              	.LVL121:
 1143              	@ 385 "../../ChibiOS/os/kernel/src/chevents.c" 1
 1144 0034 83F31188 		msr     BASEPRI, r3
 1145              	@ 0 "" 2
 1146              	.LVL122:
 1147              		.thumb
 1148              	.LBE62:
 1149              		.loc 1 387 0
 1150 0038 3046     		mov	r0, r6
 1151 003a 70BD     		pop	{r4, r5, r6, pc}
 1152              	.L81:
 1153              		.align	2
 1154              	.L80:
 1155 003c 00000000 		.word	rlist
 1156              		.cfi_endproc
 1157              	.LFE19:
 1158              		.size	chEvtWaitAny, .-chEvtWaitAny
 1159              		.section	.text.chEvtWaitAll,"ax",%progbits
 1160              		.align	2
 1161              		.p2align 4,,15
 1162              		.global	chEvtWaitAll
 1163              		.thumb
 1164              		.thumb_func
 1165              		.type	chEvtWaitAll, %function
 1166              	chEvtWaitAll:
 1167              	.LFB20:
 1168              		.loc 1 400 0
 1169              		.cfi_startproc
 1170              		@ args = 0, pretend = 0, frame = 0
 1171              		@ frame_needed = 0, uses_anonymous_args = 0
 1172              	.LVL123:
 1173 0000 38B5     		push	{r3, r4, r5, lr}
 1174              	.LCFI12:
 1175              		.cfi_def_cfa_offset 16
 1176              		.cfi_offset 14, -4
 1177              		.cfi_offset 5, -8
 1178              		.cfi_offset 4, -12
 1179              		.cfi_offset 3, -16
 1180              		.loc 1 401 0
 1181 0002 0E4B     		ldr	r3, .L84
 1182              		.loc 1 400 0
 1183 0004 0446     		mov	r4, r0
 1184              		.loc 1 401 0
 1185 0006 9D69     		ldr	r5, [r3, #24]
 1186              	.LVL124:
 1187              	.LBB63:
ARM GAS  /tmp/ccXG8rbk.s 			page 22


 1188              		.loc 1 403 0
 1189 0008 2023     		movs	r3, #32
 1190              	.LVL125:
 1191              	@ 403 "../../ChibiOS/os/kernel/src/chevents.c" 1
 1192 000a 83F31188 		msr     BASEPRI, r3
 1193              	@ 0 "" 2
 1194              	.LVL126:
 1195              		.thumb
 1196              	.LBE63:
 1197 000e FFF7FEFF 		bl	dbg_check_lock
 1198              	.LVL127:
 1199              		.loc 1 405 0
 1200 0012 EB6B     		ldr	r3, [r5, #60]
 1201 0014 04EA0302 		and	r2, r4, r3
 1202 0018 A242     		cmp	r2, r4
 1203 001a 04D0     		beq	.L83
 1204              		.loc 1 406 0
 1205 001c AC62     		str	r4, [r5, #40]
 1206              		.loc 1 407 0
 1207 001e 0920     		movs	r0, #9
 1208 0020 FFF7FEFF 		bl	chSchGoSleepS
 1209 0024 EB6B     		ldr	r3, [r5, #60]
 1210              	.L83:
 1211              		.loc 1 409 0
 1212 0026 23EA0400 		bic	r0, r3, r4
 1213 002a E863     		str	r0, [r5, #60]
 1214              		.loc 1 411 0
 1215 002c FFF7FEFF 		bl	dbg_check_unlock
 1216              	.LBB64:
 1217 0030 0023     		movs	r3, #0
 1218              	.LVL128:
 1219              	@ 411 "../../ChibiOS/os/kernel/src/chevents.c" 1
 1220 0032 83F31188 		msr     BASEPRI, r3
 1221              	@ 0 "" 2
 1222              	.LVL129:
 1223              		.thumb
 1224              	.LBE64:
 1225              		.loc 1 413 0
 1226 0036 2046     		mov	r0, r4
 1227 0038 38BD     		pop	{r3, r4, r5, pc}
 1228              	.L85:
 1229 003a 00BF     		.align	2
 1230              	.L84:
 1231 003c 00000000 		.word	rlist
 1232              		.cfi_endproc
 1233              	.LFE20:
 1234              		.size	chEvtWaitAll, .-chEvtWaitAll
 1235              		.section	.text.chEvtWaitOneTimeout,"ax",%progbits
 1236              		.align	2
 1237              		.p2align 4,,15
 1238              		.global	chEvtWaitOneTimeout
 1239              		.thumb
 1240              		.thumb_func
 1241              		.type	chEvtWaitOneTimeout, %function
 1242              	chEvtWaitOneTimeout:
 1243              	.LFB21:
 1244              		.loc 1 439 0
ARM GAS  /tmp/ccXG8rbk.s 			page 23


 1245              		.cfi_startproc
 1246              		@ args = 0, pretend = 0, frame = 0
 1247              		@ frame_needed = 0, uses_anonymous_args = 0
 1248              	.LVL130:
 1249 0000 F8B5     		push	{r3, r4, r5, r6, r7, lr}
 1250              	.LCFI13:
 1251              		.cfi_def_cfa_offset 24
 1252              		.cfi_offset 14, -4
 1253              		.cfi_offset 7, -8
 1254              		.cfi_offset 6, -12
 1255              		.cfi_offset 5, -16
 1256              		.cfi_offset 4, -20
 1257              		.cfi_offset 3, -24
 1258              		.loc 1 440 0
 1259 0002 154B     		ldr	r3, .L92
 1260              		.loc 1 439 0
 1261 0004 0546     		mov	r5, r0
 1262              		.loc 1 440 0
 1263 0006 9E69     		ldr	r6, [r3, #24]
 1264              	.LVL131:
 1265              		.loc 1 439 0
 1266 0008 0F46     		mov	r7, r1
 1267              	.LBB65:
 1268              		.loc 1 443 0
 1269 000a 2023     		movs	r3, #32
 1270              	.LVL132:
 1271              	@ 443 "../../ChibiOS/os/kernel/src/chevents.c" 1
 1272 000c 83F31188 		msr     BASEPRI, r3
 1273              	@ 0 "" 2
 1274              	.LVL133:
 1275              		.thumb
 1276              	.LBE65:
 1277 0010 FFF7FEFF 		bl	dbg_check_lock
 1278              	.LVL134:
 1279              		.loc 1 445 0
 1280 0014 F36B     		ldr	r3, [r6, #60]
 1281              	.LVL135:
 1282 0016 15EA0304 		ands	r4, r5, r3
 1283 001a 0AD1     		bne	.L87
 1284              		.loc 1 446 0
 1285 001c AFB1     		cbz	r7, .L91
 1286              		.loc 1 451 0
 1287 001e 0820     		movs	r0, #8
 1288              		.loc 1 450 0
 1289 0020 B562     		str	r5, [r6, #40]
 1290              		.loc 1 451 0
 1291 0022 3946     		mov	r1, r7
 1292 0024 FFF7FEFF 		bl	chSchGoSleepTimeoutS
 1293              	.LVL136:
 1294 0028 0028     		cmp	r0, #0
 1295 002a 0EDB     		blt	.L91
 1296              		.loc 1 455 0
 1297 002c F36B     		ldr	r3, [r6, #60]
 1298 002e 05EA0304 		and	r4, r5, r3
 1299              	.LVL137:
 1300              	.L87:
 1301              		.loc 1 457 0
ARM GAS  /tmp/ccXG8rbk.s 			page 24


 1302 0032 6242     		negs	r2, r4
 1303 0034 1440     		ands	r4, r4, r2
 1304              	.LVL138:
 1305              		.loc 1 458 0
 1306 0036 23EA0400 		bic	r0, r3, r4
 1307 003a F063     		str	r0, [r6, #60]
 1308              		.loc 1 460 0
 1309 003c FFF7FEFF 		bl	dbg_check_unlock
 1310              	.LBB66:
 1311 0040 0023     		movs	r3, #0
 1312              	.LVL139:
 1313              	@ 460 "../../ChibiOS/os/kernel/src/chevents.c" 1
 1314 0042 83F31188 		msr     BASEPRI, r3
 1315              	@ 0 "" 2
 1316              	.LVL140:
 1317              		.thumb
 1318              	.LBE66:
 1319              		.loc 1 462 0
 1320 0046 2046     		mov	r0, r4
 1321 0048 F8BD     		pop	{r3, r4, r5, r6, r7, pc}
 1322              	.LVL141:
 1323              	.L91:
 1324              		.loc 1 452 0
 1325 004a FFF7FEFF 		bl	dbg_check_unlock
 1326              	.LBB67:
 1327 004e 2346     		mov	r3, r4
 1328              	.LVL142:
 1329              	@ 452 "../../ChibiOS/os/kernel/src/chevents.c" 1
 1330 0050 83F31188 		msr     BASEPRI, r3
 1331              	@ 0 "" 2
 1332              	.LVL143:
 1333              		.thumb
 1334              	.LBE67:
 1335              		.loc 1 462 0
 1336 0054 2046     		mov	r0, r4
 1337 0056 F8BD     		pop	{r3, r4, r5, r6, r7, pc}
 1338              	.L93:
 1339              		.align	2
 1340              	.L92:
 1341 0058 00000000 		.word	rlist
 1342              		.cfi_endproc
 1343              	.LFE21:
 1344              		.size	chEvtWaitOneTimeout, .-chEvtWaitOneTimeout
 1345 005c AFF30080 		.section	.text.chEvtWaitAnyTimeout,"ax",%progbits
 1346              		.align	2
 1347              		.p2align 4,,15
 1348              		.global	chEvtWaitAnyTimeout
 1349              		.thumb
 1350              		.thumb_func
 1351              		.type	chEvtWaitAnyTimeout, %function
 1352              	chEvtWaitAnyTimeout:
 1353              	.LFB22:
 1354              		.loc 1 482 0
 1355              		.cfi_startproc
 1356              		@ args = 0, pretend = 0, frame = 0
 1357              		@ frame_needed = 0, uses_anonymous_args = 0
 1358              	.LVL144:
ARM GAS  /tmp/ccXG8rbk.s 			page 25


 1359 0000 F8B5     		push	{r3, r4, r5, r6, r7, lr}
 1360              	.LCFI14:
 1361              		.cfi_def_cfa_offset 24
 1362              		.cfi_offset 14, -4
 1363              		.cfi_offset 7, -8
 1364              		.cfi_offset 6, -12
 1365              		.cfi_offset 5, -16
 1366              		.cfi_offset 4, -20
 1367              		.cfi_offset 3, -24
 1368              		.loc 1 483 0
 1369 0002 144B     		ldr	r3, .L100
 1370              		.loc 1 482 0
 1371 0004 0446     		mov	r4, r0
 1372              		.loc 1 483 0
 1373 0006 9D69     		ldr	r5, [r3, #24]
 1374              	.LVL145:
 1375              		.loc 1 482 0
 1376 0008 0F46     		mov	r7, r1
 1377              	.LBB68:
 1378              		.loc 1 486 0
 1379 000a 2023     		movs	r3, #32
 1380              	.LVL146:
 1381              	@ 486 "../../ChibiOS/os/kernel/src/chevents.c" 1
 1382 000c 83F31188 		msr     BASEPRI, r3
 1383              	@ 0 "" 2
 1384              	.LVL147:
 1385              		.thumb
 1386              	.LBE68:
 1387 0010 FFF7FEFF 		bl	dbg_check_lock
 1388              	.LVL148:
 1389              		.loc 1 488 0
 1390 0014 EB6B     		ldr	r3, [r5, #60]
 1391              	.LVL149:
 1392 0016 14EA0306 		ands	r6, r4, r3
 1393 001a 0AD1     		bne	.L95
 1394              		.loc 1 489 0
 1395 001c 9FB1     		cbz	r7, .L99
 1396              		.loc 1 494 0
 1397 001e 0820     		movs	r0, #8
 1398              		.loc 1 493 0
 1399 0020 AC62     		str	r4, [r5, #40]
 1400              		.loc 1 494 0
 1401 0022 3946     		mov	r1, r7
 1402 0024 FFF7FEFF 		bl	chSchGoSleepTimeoutS
 1403              	.LVL150:
 1404 0028 0028     		cmp	r0, #0
 1405 002a 0CDB     		blt	.L99
 1406              		.loc 1 498 0
 1407 002c EB6B     		ldr	r3, [r5, #60]
 1408 002e 04EA0306 		and	r6, r4, r3
 1409              	.LVL151:
 1410              	.L95:
 1411              		.loc 1 500 0
 1412 0032 23EA0600 		bic	r0, r3, r6
 1413 0036 E863     		str	r0, [r5, #60]
 1414              		.loc 1 502 0
 1415 0038 FFF7FEFF 		bl	dbg_check_unlock
ARM GAS  /tmp/ccXG8rbk.s 			page 26


 1416              	.LBB69:
 1417 003c 0023     		movs	r3, #0
 1418              	.LVL152:
 1419              	@ 502 "../../ChibiOS/os/kernel/src/chevents.c" 1
 1420 003e 83F31188 		msr     BASEPRI, r3
 1421              	@ 0 "" 2
 1422              	.LVL153:
 1423              		.thumb
 1424              	.LBE69:
 1425              		.loc 1 504 0
 1426 0042 3046     		mov	r0, r6
 1427 0044 F8BD     		pop	{r3, r4, r5, r6, r7, pc}
 1428              	.LVL154:
 1429              	.L99:
 1430              		.loc 1 495 0
 1431 0046 FFF7FEFF 		bl	dbg_check_unlock
 1432              	.LBB70:
 1433 004a 3346     		mov	r3, r6
 1434              	.LVL155:
 1435              	@ 495 "../../ChibiOS/os/kernel/src/chevents.c" 1
 1436 004c 83F31188 		msr     BASEPRI, r3
 1437              	@ 0 "" 2
 1438              	.LVL156:
 1439              		.thumb
 1440              	.LBE70:
 1441              		.loc 1 504 0
 1442 0050 3046     		mov	r0, r6
 1443 0052 F8BD     		pop	{r3, r4, r5, r6, r7, pc}
 1444              	.L101:
 1445              		.align	2
 1446              	.L100:
 1447 0054 00000000 		.word	rlist
 1448              		.cfi_endproc
 1449              	.LFE22:
 1450              		.size	chEvtWaitAnyTimeout, .-chEvtWaitAnyTimeout
 1451 0058 AFF30080 		.section	.text.chEvtWaitAllTimeout,"ax",%progbits
 1451      AFF30080 
 1452              		.align	2
 1453              		.p2align 4,,15
 1454              		.global	chEvtWaitAllTimeout
 1455              		.thumb
 1456              		.thumb_func
 1457              		.type	chEvtWaitAllTimeout, %function
 1458              	chEvtWaitAllTimeout:
 1459              	.LFB23:
 1460              		.loc 1 523 0
 1461              		.cfi_startproc
 1462              		@ args = 0, pretend = 0, frame = 0
 1463              		@ frame_needed = 0, uses_anonymous_args = 0
 1464              	.LVL157:
 1465              		.loc 1 524 0
 1466 0000 184B     		ldr	r3, .L108
 1467              		.loc 1 523 0
 1468 0002 70B5     		push	{r4, r5, r6, lr}
 1469              	.LCFI15:
 1470              		.cfi_def_cfa_offset 16
 1471              		.cfi_offset 14, -4
ARM GAS  /tmp/ccXG8rbk.s 			page 27


 1472              		.cfi_offset 6, -8
 1473              		.cfi_offset 5, -12
 1474              		.cfi_offset 4, -16
 1475              		.loc 1 524 0
 1476 0004 9D69     		ldr	r5, [r3, #24]
 1477              	.LVL158:
 1478              		.loc 1 523 0
 1479 0006 0446     		mov	r4, r0
 1480 0008 0E46     		mov	r6, r1
 1481              	.LBB71:
 1482              		.loc 1 526 0
 1483 000a 2023     		movs	r3, #32
 1484              	.LVL159:
 1485              	@ 526 "../../ChibiOS/os/kernel/src/chevents.c" 1
 1486 000c 83F31188 		msr     BASEPRI, r3
 1487              	@ 0 "" 2
 1488              	.LVL160:
 1489              		.thumb
 1490              	.LBE71:
 1491 0010 FFF7FEFF 		bl	dbg_check_lock
 1492              	.LVL161:
 1493              		.loc 1 528 0
 1494 0014 EB6B     		ldr	r3, [r5, #60]
 1495 0016 04EA0302 		and	r2, r4, r3
 1496 001a A242     		cmp	r2, r4
 1497 001c 08D0     		beq	.L103
 1498              		.loc 1 529 0
 1499 001e 8EB1     		cbz	r6, .L107
 1500              		.loc 1 534 0
 1501 0020 0920     		movs	r0, #9
 1502              		.loc 1 533 0
 1503 0022 AC62     		str	r4, [r5, #40]
 1504              		.loc 1 534 0
 1505 0024 3146     		mov	r1, r6
 1506 0026 FFF7FEFF 		bl	chSchGoSleepTimeoutS
 1507 002a 0028     		cmp	r0, #0
 1508 002c 12DB     		blt	.L106
 1509 002e EB6B     		ldr	r3, [r5, #60]
 1510              	.L103:
 1511              		.loc 1 539 0
 1512 0030 23EA0400 		bic	r0, r3, r4
 1513 0034 E863     		str	r0, [r5, #60]
 1514              		.loc 1 541 0
 1515 0036 FFF7FEFF 		bl	dbg_check_unlock
 1516              	.LBB72:
 1517 003a 0023     		movs	r3, #0
 1518              	.LVL162:
 1519              	@ 541 "../../ChibiOS/os/kernel/src/chevents.c" 1
 1520 003c 83F31188 		msr     BASEPRI, r3
 1521              	@ 0 "" 2
 1522              	.LVL163:
 1523              		.thumb
 1524              	.L105:
 1525              	.LBE72:
 1526              		.loc 1 543 0
 1527 0040 2046     		mov	r0, r4
 1528 0042 70BD     		pop	{r4, r5, r6, pc}
ARM GAS  /tmp/ccXG8rbk.s 			page 28


 1529              	.LVL164:
 1530              	.L107:
 1531              		.loc 1 530 0
 1532 0044 FFF7FEFF 		bl	dbg_check_unlock
 1533              	.LBB73:
 1534 0048 3346     		mov	r3, r6
 1535              	.LVL165:
 1536              	@ 530 "../../ChibiOS/os/kernel/src/chevents.c" 1
 1537 004a 83F31188 		msr     BASEPRI, r3
 1538              	@ 0 "" 2
 1539              	.LVL166:
 1540              		.thumb
 1541              	.LBE73:
 1542              		.loc 1 531 0
 1543 004e 3446     		mov	r4, r6
 1544              	.LVL167:
 1545              		.loc 1 543 0
 1546 0050 2046     		mov	r0, r4
 1547 0052 70BD     		pop	{r4, r5, r6, pc}
 1548              	.LVL168:
 1549              	.L106:
 1550              		.loc 1 535 0
 1551 0054 FFF7FEFF 		bl	dbg_check_unlock
 1552              	.LBB74:
 1553 0058 0023     		movs	r3, #0
 1554              	@ 535 "../../ChibiOS/os/kernel/src/chevents.c" 1
 1555 005a 83F31188 		msr     BASEPRI, r3
 1556              	@ 0 "" 2
 1557              	.LVL169:
 1558              		.thumb
 1559              	.LBE74:
 1560              		.loc 1 536 0
 1561 005e 1C46     		mov	r4, r3
 1562              	.LVL170:
 1563 0060 EEE7     		b	.L105
 1564              	.L109:
 1565 0062 00BF     		.align	2
 1566              	.L108:
 1567 0064 00000000 		.word	rlist
 1568              		.cfi_endproc
 1569              	.LFE23:
 1570              		.size	chEvtWaitAllTimeout, .-chEvtWaitAllTimeout
 1571 0068 AFF30080 		.section	.rodata.str1.4,"aMS",%progbits,1
 1571      AFF30080 
 1572              		.align	2
 1573              	.LC0:
 1574 0000 22636845 		.ascii	"\"chEvtRegisterMask\"()\000"
 1574      76745265 
 1574      67697374 
 1574      65724D61 
 1574      736B2228 
 1575 0016 0000     		.space	2
 1576              	.LC1:
 1577 0018 22636845 		.ascii	"\"chEvtUnregister\"()\000"
 1577      7674556E 
 1577      72656769 
 1577      73746572 
ARM GAS  /tmp/ccXG8rbk.s 			page 29


 1577      22282900 
 1578              	.LC2:
 1579 002c 22636845 		.ascii	"\"chEvtBroadcastMaskI\"()\000"
 1579      76744272 
 1579      6F616463 
 1579      6173744D 
 1579      61736B49 
 1580              	.LC3:
 1581 0044 22636845 		.ascii	"\"chEvtSignalI\"()\000"
 1581      76745369 
 1581      676E616C 
 1581      49222829 
 1581      00
 1582 0055 000000   		.space	3
 1583              	.LC4:
 1584 0058 22636845 		.ascii	"\"chEvtSignal\"()\000"
 1584      76745369 
 1584      676E616C 
 1584      22282900 
 1585              	.LC5:
 1586 0068 22636845 		.ascii	"\"chEvtDispatch\"()\000"
 1586      76744469 
 1586      73706174 
 1586      63682228 
 1586      2900
 1587 007a 0000     		.space	2
 1588              	.LC6:
 1589 007c 63684576 		.ascii	"chEvtDispatch(), #1\000"
 1589      74446973 
 1589      70617463 
 1589      6828292C 
 1589      20233100 
 1590              		.text
 1591              	.Letext0:
 1592              		.file 2 "/home/tino/ChibiStudio/tools/GNU Tools ARM Embedded/4.6 2012q2/bin/../lib/gcc/arm-none-ea
 1593              		.file 3 "../../ChibiOS/os/ports/GCC/ARMCMx/chtypes.h"
 1594              		.file 4 "../../ChibiOS/os/kernel/include/chlists.h"
 1595              		.file 5 "../../ChibiOS/os/kernel/include/chthreads.h"
 1596              		.file 6 "../../ChibiOS/os/ports/GCC/ARMCMx/chcore_v7m.h"
 1597              		.file 7 "../../ChibiOS/os/kernel/include/chschd.h"
 1598              		.file 8 "../../ChibiOS/os/kernel/include/chmtx.h"
 1599              		.file 9 "../../ChibiOS/os/kernel/include/chevents.h"
 1600              		.section	.debug_info,"",%progbits
 1601              	.Ldebug_info0:
 1602 0000 BC0D0000 		.4byte	0xdbc
 1603 0004 0200     		.2byte	0x2
 1604 0006 00000000 		.4byte	.Ldebug_abbrev0
 1605 000a 04       		.byte	0x4
 1606 000b 01       		.uleb128 0x1
 1607 000c BD000000 		.4byte	.LASF96
 1608 0010 01       		.byte	0x1
 1609 0011 5C040000 		.4byte	.LASF97
 1610 0015 06010000 		.4byte	.LASF98
 1611 0019 00000000 		.4byte	0
 1612 001d 00000000 		.4byte	0
 1613 0021 30010000 		.4byte	.Ldebug_ranges0+0x130
 1614 0025 00000000 		.4byte	.Ldebug_line0
ARM GAS  /tmp/ccXG8rbk.s 			page 30


 1615 0029 02       		.uleb128 0x2
 1616 002a 04       		.byte	0x4
 1617 002b 05       		.byte	0x5
 1618 002c 696E7400 		.ascii	"int\000"
 1619 0030 03       		.uleb128 0x3
 1620 0031 04       		.byte	0x4
 1621 0032 07       		.byte	0x7
 1622 0033 C1010000 		.4byte	.LASF0
 1623 0037 03       		.uleb128 0x3
 1624 0038 01       		.byte	0x1
 1625 0039 06       		.byte	0x6
 1626 003a 7A000000 		.4byte	.LASF1
 1627 003e 04       		.uleb128 0x4
 1628 003f 00040000 		.4byte	.LASF5
 1629 0043 02       		.byte	0x2
 1630 0044 2A       		.byte	0x2a
 1631 0045 49000000 		.4byte	0x49
 1632 0049 03       		.uleb128 0x3
 1633 004a 01       		.byte	0x1
 1634 004b 08       		.byte	0x8
 1635 004c F6020000 		.4byte	.LASF2
 1636 0050 03       		.uleb128 0x3
 1637 0051 02       		.byte	0x2
 1638 0052 05       		.byte	0x5
 1639 0053 30030000 		.4byte	.LASF3
 1640 0057 03       		.uleb128 0x3
 1641 0058 02       		.byte	0x2
 1642 0059 07       		.byte	0x7
 1643 005a FF010000 		.4byte	.LASF4
 1644 005e 04       		.uleb128 0x4
 1645 005f EE020000 		.4byte	.LASF6
 1646 0063 02       		.byte	0x2
 1647 0064 4F       		.byte	0x4f
 1648 0065 69000000 		.4byte	0x69
 1649 0069 03       		.uleb128 0x3
 1650 006a 04       		.byte	0x4
 1651 006b 05       		.byte	0x5
 1652 006c B4000000 		.4byte	.LASF7
 1653 0070 04       		.uleb128 0x4
 1654 0071 92030000 		.4byte	.LASF8
 1655 0075 02       		.byte	0x2
 1656 0076 50       		.byte	0x50
 1657 0077 7B000000 		.4byte	0x7b
 1658 007b 03       		.uleb128 0x3
 1659 007c 04       		.byte	0x4
 1660 007d 07       		.byte	0x7
 1661 007e CE010000 		.4byte	.LASF9
 1662 0082 03       		.uleb128 0x3
 1663 0083 08       		.byte	0x8
 1664 0084 05       		.byte	0x5
 1665 0085 6C000000 		.4byte	.LASF10
 1666 0089 04       		.uleb128 0x4
 1667 008a 0D000000 		.4byte	.LASF11
 1668 008e 02       		.byte	0x2
 1669 008f 78       		.byte	0x78
 1670 0090 94000000 		.4byte	0x94
 1671 0094 03       		.uleb128 0x3
ARM GAS  /tmp/ccXG8rbk.s 			page 31


 1672 0095 08       		.byte	0x8
 1673 0096 07       		.byte	0x7
 1674 0097 22000000 		.4byte	.LASF12
 1675 009b 03       		.uleb128 0x3
 1676 009c 01       		.byte	0x1
 1677 009d 02       		.byte	0x2
 1678 009e E8020000 		.4byte	.LASF13
 1679 00a2 04       		.uleb128 0x4
 1680 00a3 42020000 		.4byte	.LASF14
 1681 00a7 03       		.byte	0x3
 1682 00a8 25       		.byte	0x25
 1683 00a9 3E000000 		.4byte	0x3e
 1684 00ad 04       		.uleb128 0x4
 1685 00ae 37010000 		.4byte	.LASF15
 1686 00b2 03       		.byte	0x3
 1687 00b3 26       		.byte	0x26
 1688 00b4 3E000000 		.4byte	0x3e
 1689 00b8 04       		.uleb128 0x4
 1690 00b9 D1020000 		.4byte	.LASF16
 1691 00bd 03       		.byte	0x3
 1692 00be 27       		.byte	0x27
 1693 00bf 3E000000 		.4byte	0x3e
 1694 00c3 04       		.uleb128 0x4
 1695 00c4 AA000000 		.4byte	.LASF17
 1696 00c8 03       		.byte	0x3
 1697 00c9 28       		.byte	0x28
 1698 00ca 3E000000 		.4byte	0x3e
 1699 00ce 04       		.uleb128 0x4
 1700 00cf E0020000 		.4byte	.LASF18
 1701 00d3 03       		.byte	0x3
 1702 00d4 29       		.byte	0x29
 1703 00d5 70000000 		.4byte	0x70
 1704 00d9 04       		.uleb128 0x4
 1705 00da 24020000 		.4byte	.LASF19
 1706 00de 03       		.byte	0x3
 1707 00df 2A       		.byte	0x2a
 1708 00e0 5E000000 		.4byte	0x5e
 1709 00e4 04       		.uleb128 0x4
 1710 00e5 94010000 		.4byte	.LASF20
 1711 00e9 03       		.byte	0x3
 1712 00ea 2B       		.byte	0x2b
 1713 00eb 5E000000 		.4byte	0x5e
 1714 00ef 04       		.uleb128 0x4
 1715 00f0 56020000 		.4byte	.LASF21
 1716 00f4 03       		.byte	0x3
 1717 00f5 2C       		.byte	0x2c
 1718 00f6 70000000 		.4byte	0x70
 1719 00fa 04       		.uleb128 0x4
 1720 00fb DD030000 		.4byte	.LASF22
 1721 00ff 03       		.byte	0x3
 1722 0100 2D       		.byte	0x2d
 1723 0101 70000000 		.4byte	0x70
 1724 0105 04       		.uleb128 0x4
 1725 0106 AF030000 		.4byte	.LASF23
 1726 010a 03       		.byte	0x3
 1727 010b 2E       		.byte	0x2e
 1728 010c 70000000 		.4byte	0x70
ARM GAS  /tmp/ccXG8rbk.s 			page 32


 1729 0110 04       		.uleb128 0x4
 1730 0111 80030000 		.4byte	.LASF24
 1731 0115 04       		.byte	0x4
 1732 0116 23       		.byte	0x23
 1733 0117 1B010000 		.4byte	0x11b
 1734 011b 05       		.uleb128 0x5
 1735 011c 80030000 		.4byte	.LASF24
 1736 0120 4C       		.byte	0x4c
 1737 0121 05       		.byte	0x5
 1738 0122 57       		.byte	0x57
 1739 0123 4E020000 		.4byte	0x24e
 1740 0127 06       		.uleb128 0x6
 1741 0128 71030000 		.4byte	.LASF25
 1742 012c 05       		.byte	0x5
 1743 012d 58       		.byte	0x58
 1744 012e 73020000 		.4byte	0x273
 1745 0132 02       		.byte	0x2
 1746 0133 23       		.byte	0x23
 1747 0134 00       		.uleb128 0
 1748 0135 06       		.uleb128 0x6
 1749 0136 D9020000 		.4byte	.LASF26
 1750 013a 05       		.byte	0x5
 1751 013b 5A       		.byte	0x5a
 1752 013c 73020000 		.4byte	0x273
 1753 0140 02       		.byte	0x2
 1754 0141 23       		.byte	0x23
 1755 0142 04       		.uleb128 0x4
 1756 0143 06       		.uleb128 0x6
 1757 0144 65000000 		.4byte	.LASF27
 1758 0148 05       		.byte	0x5
 1759 0149 5C       		.byte	0x5c
 1760 014a CE000000 		.4byte	0xce
 1761 014e 02       		.byte	0x2
 1762 014f 23       		.byte	0x23
 1763 0150 08       		.uleb128 0x8
 1764 0151 06       		.uleb128 0x6
 1765 0152 8B040000 		.4byte	.LASF28
 1766 0156 05       		.byte	0x5
 1767 0157 5D       		.byte	0x5d
 1768 0158 4C030000 		.4byte	0x34c
 1769 015c 02       		.byte	0x2
 1770 015d 23       		.byte	0x23
 1771 015e 0C       		.uleb128 0xc
 1772 015f 06       		.uleb128 0x6
 1773 0160 62010000 		.4byte	.LASF29
 1774 0164 05       		.byte	0x5
 1775 0165 5F       		.byte	0x5f
 1776 0166 73020000 		.4byte	0x273
 1777 016a 02       		.byte	0x2
 1778 016b 23       		.byte	0x23
 1779 016c 10       		.uleb128 0x10
 1780 016d 06       		.uleb128 0x6
 1781 016e 81020000 		.4byte	.LASF30
 1782 0172 05       		.byte	0x5
 1783 0173 60       		.byte	0x60
 1784 0174 73020000 		.4byte	0x273
 1785 0178 02       		.byte	0x2
ARM GAS  /tmp/ccXG8rbk.s 			page 33


 1786 0179 23       		.byte	0x23
 1787 017a 14       		.uleb128 0x14
 1788 017b 06       		.uleb128 0x6
 1789 017c 37040000 		.4byte	.LASF31
 1790 0180 05       		.byte	0x5
 1791 0181 67       		.byte	0x67
 1792 0182 F2040000 		.4byte	0x4f2
 1793 0186 02       		.byte	0x2
 1794 0187 23       		.byte	0x23
 1795 0188 18       		.uleb128 0x18
 1796 0189 06       		.uleb128 0x6
 1797 018a B6010000 		.4byte	.LASF32
 1798 018e 05       		.byte	0x5
 1799 018f 6D       		.byte	0x6d
 1800 0190 04050000 		.4byte	0x504
 1801 0194 02       		.byte	0x2
 1802 0195 23       		.byte	0x23
 1803 0196 1C       		.uleb128 0x1c
 1804 0197 06       		.uleb128 0x6
 1805 0198 3A030000 		.4byte	.LASF33
 1806 019c 05       		.byte	0x5
 1807 019d 72       		.byte	0x72
 1808 019e AD000000 		.4byte	0xad
 1809 01a2 02       		.byte	0x2
 1810 01a3 23       		.byte	0x23
 1811 01a4 20       		.uleb128 0x20
 1812 01a5 06       		.uleb128 0x6
 1813 01a6 78030000 		.4byte	.LASF34
 1814 01aa 05       		.byte	0x5
 1815 01ab 76       		.byte	0x76
 1816 01ac A2000000 		.4byte	0xa2
 1817 01b0 02       		.byte	0x2
 1818 01b1 23       		.byte	0x23
 1819 01b2 21       		.uleb128 0x21
 1820 01b3 06       		.uleb128 0x6
 1821 01b4 E9030000 		.4byte	.LASF35
 1822 01b8 05       		.byte	0x5
 1823 01b9 7B       		.byte	0x7b
 1824 01ba B8000000 		.4byte	0xb8
 1825 01be 02       		.byte	0x2
 1826 01bf 23       		.byte	0x23
 1827 01c0 22       		.uleb128 0x22
 1828 01c1 06       		.uleb128 0x6
 1829 01c2 42030000 		.4byte	.LASF36
 1830 01c6 05       		.byte	0x5
 1831 01c7 81       		.byte	0x81
 1832 01c8 C3000000 		.4byte	0xc3
 1833 01cc 02       		.byte	0x2
 1834 01cd 23       		.byte	0x23
 1835 01ce 23       		.uleb128 0x23
 1836 01cf 06       		.uleb128 0x6
 1837 01d0 C4030000 		.4byte	.LASF37
 1838 01d4 05       		.byte	0x5
 1839 01d5 88       		.byte	0x88
 1840 01d6 6F030000 		.4byte	0x36f
 1841 01da 02       		.byte	0x2
 1842 01db 23       		.byte	0x23
ARM GAS  /tmp/ccXG8rbk.s 			page 34


 1843 01dc 24       		.uleb128 0x24
 1844 01dd 07       		.uleb128 0x7
 1845 01de 705F7500 		.ascii	"p_u\000"
 1846 01e2 05       		.byte	0x5
 1847 01e3 AD       		.byte	0xad
 1848 01e4 BD040000 		.4byte	0x4bd
 1849 01e8 02       		.byte	0x2
 1850 01e9 23       		.byte	0x23
 1851 01ea 28       		.uleb128 0x28
 1852 01eb 06       		.uleb128 0x6
 1853 01ec 91040000 		.4byte	.LASF38
 1854 01f0 05       		.byte	0x5
 1855 01f1 B2       		.byte	0xb2
 1856 01f2 9B020000 		.4byte	0x29b
 1857 01f6 02       		.byte	0x2
 1858 01f7 23       		.byte	0x23
 1859 01f8 2C       		.uleb128 0x2c
 1860 01f9 06       		.uleb128 0x6
 1861 01fa D2030000 		.4byte	.LASF39
 1862 01fe 05       		.byte	0x5
 1863 01ff B8       		.byte	0xb8
 1864 0200 79020000 		.4byte	0x279
 1865 0204 02       		.byte	0x2
 1866 0205 23       		.byte	0x23
 1867 0206 30       		.uleb128 0x30
 1868 0207 06       		.uleb128 0x6
 1869 0208 00000000 		.4byte	.LASF40
 1870 020c 05       		.byte	0x5
 1871 020d BC       		.byte	0xbc
 1872 020e D9000000 		.4byte	0xd9
 1873 0212 02       		.byte	0x2
 1874 0213 23       		.byte	0x23
 1875 0214 38       		.uleb128 0x38
 1876 0215 06       		.uleb128 0x6
 1877 0216 87030000 		.4byte	.LASF41
 1878 021a 05       		.byte	0x5
 1879 021b C2       		.byte	0xc2
 1880 021c EF000000 		.4byte	0xef
 1881 0220 02       		.byte	0x2
 1882 0221 23       		.byte	0x23
 1883 0222 3C       		.uleb128 0x3c
 1884 0223 06       		.uleb128 0x6
 1885 0224 26030000 		.4byte	.LASF42
 1886 0228 05       		.byte	0x5
 1887 0229 C9       		.byte	0xc9
 1888 022a 0A050000 		.4byte	0x50a
 1889 022e 02       		.byte	0x2
 1890 022f 23       		.byte	0x23
 1891 0230 40       		.uleb128 0x40
 1892 0231 06       		.uleb128 0x6
 1893 0232 B9030000 		.4byte	.LASF43
 1894 0236 05       		.byte	0x5
 1895 0237 CD       		.byte	0xcd
 1896 0238 CE000000 		.4byte	0xce
 1897 023c 02       		.byte	0x2
 1898 023d 23       		.byte	0x23
 1899 023e 44       		.uleb128 0x44
ARM GAS  /tmp/ccXG8rbk.s 			page 35


 1900 023f 06       		.uleb128 0x6
 1901 0240 9A000000 		.4byte	.LASF44
 1902 0244 05       		.byte	0x5
 1903 0245 D3       		.byte	0xd3
 1904 0246 B1020000 		.4byte	0x2b1
 1905 024a 02       		.byte	0x2
 1906 024b 23       		.byte	0x23
 1907 024c 48       		.uleb128 0x48
 1908 024d 00       		.byte	0
 1909 024e 08       		.uleb128 0x8
 1910 024f 08       		.byte	0x8
 1911 0250 04       		.byte	0x4
 1912 0251 5A       		.byte	0x5a
 1913 0252 73020000 		.4byte	0x273
 1914 0256 06       		.uleb128 0x6
 1915 0257 71030000 		.4byte	.LASF25
 1916 025b 04       		.byte	0x4
 1917 025c 5B       		.byte	0x5b
 1918 025d 73020000 		.4byte	0x273
 1919 0261 02       		.byte	0x2
 1920 0262 23       		.byte	0x23
 1921 0263 00       		.uleb128 0
 1922 0264 06       		.uleb128 0x6
 1923 0265 D9020000 		.4byte	.LASF26
 1924 0269 04       		.byte	0x4
 1925 026a 5D       		.byte	0x5d
 1926 026b 73020000 		.4byte	0x273
 1927 026f 02       		.byte	0x2
 1928 0270 23       		.byte	0x23
 1929 0271 04       		.uleb128 0x4
 1930 0272 00       		.byte	0
 1931 0273 09       		.uleb128 0x9
 1932 0274 04       		.byte	0x4
 1933 0275 10010000 		.4byte	0x110
 1934 0279 04       		.uleb128 0x4
 1935 027a 8F020000 		.4byte	.LASF45
 1936 027e 04       		.byte	0x4
 1937 027f 5F       		.byte	0x5f
 1938 0280 4E020000 		.4byte	0x24e
 1939 0284 08       		.uleb128 0x8
 1940 0285 04       		.byte	0x4
 1941 0286 04       		.byte	0x4
 1942 0287 64       		.byte	0x64
 1943 0288 9B020000 		.4byte	0x29b
 1944 028c 06       		.uleb128 0x6
 1945 028d 71030000 		.4byte	.LASF25
 1946 0291 04       		.byte	0x4
 1947 0292 66       		.byte	0x66
 1948 0293 73020000 		.4byte	0x273
 1949 0297 02       		.byte	0x2
 1950 0298 23       		.byte	0x23
 1951 0299 00       		.uleb128 0
 1952 029a 00       		.byte	0
 1953 029b 04       		.uleb128 0x4
 1954 029c 4A020000 		.4byte	.LASF46
 1955 02a0 04       		.byte	0x4
 1956 02a1 69       		.byte	0x69
ARM GAS  /tmp/ccXG8rbk.s 			page 36


 1957 02a2 84020000 		.4byte	0x284
 1958 02a6 04       		.uleb128 0x4
 1959 02a7 77010000 		.4byte	.LASF47
 1960 02ab 06       		.byte	0x6
 1961 02ac DE       		.byte	0xde
 1962 02ad B1020000 		.4byte	0x2b1
 1963 02b1 0A       		.uleb128 0xa
 1964 02b2 04       		.byte	0x4
 1965 02b3 04       		.uleb128 0x4
 1966 02b4 68020000 		.4byte	.LASF48
 1967 02b8 06       		.byte	0x6
 1968 02b9 E4       		.byte	0xe4
 1969 02ba 89000000 		.4byte	0x89
 1970 02be 0B       		.uleb128 0xb
 1971 02bf CB030000 		.4byte	.LASF49
 1972 02c3 24       		.byte	0x24
 1973 02c4 06       		.byte	0x6
 1974 02c5 0501     		.2byte	0x105
 1975 02c7 4C030000 		.4byte	0x34c
 1976 02cb 0C       		.uleb128 0xc
 1977 02cc 723400   		.ascii	"r4\000"
 1978 02cf 06       		.byte	0x6
 1979 02d0 1801     		.2byte	0x118
 1980 02d2 A6020000 		.4byte	0x2a6
 1981 02d6 02       		.byte	0x2
 1982 02d7 23       		.byte	0x23
 1983 02d8 00       		.uleb128 0
 1984 02d9 0C       		.uleb128 0xc
 1985 02da 723500   		.ascii	"r5\000"
 1986 02dd 06       		.byte	0x6
 1987 02de 1901     		.2byte	0x119
 1988 02e0 A6020000 		.4byte	0x2a6
 1989 02e4 02       		.byte	0x2
 1990 02e5 23       		.byte	0x23
 1991 02e6 04       		.uleb128 0x4
 1992 02e7 0C       		.uleb128 0xc
 1993 02e8 723600   		.ascii	"r6\000"
 1994 02eb 06       		.byte	0x6
 1995 02ec 1A01     		.2byte	0x11a
 1996 02ee A6020000 		.4byte	0x2a6
 1997 02f2 02       		.byte	0x2
 1998 02f3 23       		.byte	0x23
 1999 02f4 08       		.uleb128 0x8
 2000 02f5 0C       		.uleb128 0xc
 2001 02f6 723700   		.ascii	"r7\000"
 2002 02f9 06       		.byte	0x6
 2003 02fa 1B01     		.2byte	0x11b
 2004 02fc A6020000 		.4byte	0x2a6
 2005 0300 02       		.byte	0x2
 2006 0301 23       		.byte	0x23
 2007 0302 0C       		.uleb128 0xc
 2008 0303 0C       		.uleb128 0xc
 2009 0304 723800   		.ascii	"r8\000"
 2010 0307 06       		.byte	0x6
 2011 0308 1C01     		.2byte	0x11c
 2012 030a A6020000 		.4byte	0x2a6
 2013 030e 02       		.byte	0x2
ARM GAS  /tmp/ccXG8rbk.s 			page 37


 2014 030f 23       		.byte	0x23
 2015 0310 10       		.uleb128 0x10
 2016 0311 0C       		.uleb128 0xc
 2017 0312 723900   		.ascii	"r9\000"
 2018 0315 06       		.byte	0x6
 2019 0316 1D01     		.2byte	0x11d
 2020 0318 A6020000 		.4byte	0x2a6
 2021 031c 02       		.byte	0x2
 2022 031d 23       		.byte	0x23
 2023 031e 14       		.uleb128 0x14
 2024 031f 0C       		.uleb128 0xc
 2025 0320 72313000 		.ascii	"r10\000"
 2026 0324 06       		.byte	0x6
 2027 0325 1E01     		.2byte	0x11e
 2028 0327 A6020000 		.4byte	0x2a6
 2029 032b 02       		.byte	0x2
 2030 032c 23       		.byte	0x23
 2031 032d 18       		.uleb128 0x18
 2032 032e 0C       		.uleb128 0xc
 2033 032f 72313100 		.ascii	"r11\000"
 2034 0333 06       		.byte	0x6
 2035 0334 1F01     		.2byte	0x11f
 2036 0336 A6020000 		.4byte	0x2a6
 2037 033a 02       		.byte	0x2
 2038 033b 23       		.byte	0x23
 2039 033c 1C       		.uleb128 0x1c
 2040 033d 0C       		.uleb128 0xc
 2041 033e 6C7200   		.ascii	"lr\000"
 2042 0341 06       		.byte	0x6
 2043 0342 2001     		.2byte	0x120
 2044 0344 A6020000 		.4byte	0x2a6
 2045 0348 02       		.byte	0x2
 2046 0349 23       		.byte	0x23
 2047 034a 20       		.uleb128 0x20
 2048 034b 00       		.byte	0
 2049 034c 0B       		.uleb128 0xb
 2050 034d F7010000 		.4byte	.LASF50
 2051 0351 04       		.byte	0x4
 2052 0352 06       		.byte	0x6
 2053 0353 2A01     		.2byte	0x12a
 2054 0355 69030000 		.4byte	0x369
 2055 0359 0C       		.uleb128 0xc
 2056 035a 72313300 		.ascii	"r13\000"
 2057 035e 06       		.byte	0x6
 2058 035f 2B01     		.2byte	0x12b
 2059 0361 69030000 		.4byte	0x369
 2060 0365 02       		.byte	0x2
 2061 0366 23       		.byte	0x23
 2062 0367 00       		.uleb128 0
 2063 0368 00       		.byte	0
 2064 0369 09       		.uleb128 0x9
 2065 036a 04       		.byte	0x4
 2066 036b BE020000 		.4byte	0x2be
 2067 036f 0D       		.uleb128 0xd
 2068 0370 05010000 		.4byte	0x105
 2069 0374 08       		.uleb128 0x8
 2070 0375 1C       		.byte	0x1c
ARM GAS  /tmp/ccXG8rbk.s 			page 38


 2071 0376 07       		.byte	0x7
 2072 0377 57       		.byte	0x57
 2073 0378 D1030000 		.4byte	0x3d1
 2074 037c 06       		.uleb128 0x6
 2075 037d 9B030000 		.4byte	.LASF51
 2076 0381 07       		.byte	0x7
 2077 0382 58       		.byte	0x58
 2078 0383 79020000 		.4byte	0x279
 2079 0387 02       		.byte	0x2
 2080 0388 23       		.byte	0x23
 2081 0389 00       		.uleb128 0
 2082 038a 06       		.uleb128 0x6
 2083 038b 4C030000 		.4byte	.LASF52
 2084 038f 07       		.byte	0x7
 2085 0390 59       		.byte	0x59
 2086 0391 CE000000 		.4byte	0xce
 2087 0395 02       		.byte	0x2
 2088 0396 23       		.byte	0x23
 2089 0397 08       		.uleb128 0x8
 2090 0398 06       		.uleb128 0x6
 2091 0399 89020000 		.4byte	.LASF53
 2092 039d 07       		.byte	0x7
 2093 039e 5B       		.byte	0x5b
 2094 039f 4C030000 		.4byte	0x34c
 2095 03a3 02       		.byte	0x2
 2096 03a4 23       		.byte	0x23
 2097 03a5 0C       		.uleb128 0xc
 2098 03a6 06       		.uleb128 0x6
 2099 03a7 6A010000 		.4byte	.LASF54
 2100 03ab 07       		.byte	0x7
 2101 03ac 5E       		.byte	0x5e
 2102 03ad 73020000 		.4byte	0x273
 2103 03b1 02       		.byte	0x2
 2104 03b2 23       		.byte	0x23
 2105 03b3 10       		.uleb128 0x10
 2106 03b4 06       		.uleb128 0x6
 2107 03b5 B8020000 		.4byte	.LASF55
 2108 03b9 07       		.byte	0x7
 2109 03ba 5F       		.byte	0x5f
 2110 03bb 73020000 		.4byte	0x273
 2111 03bf 02       		.byte	0x2
 2112 03c0 23       		.byte	0x23
 2113 03c1 14       		.uleb128 0x14
 2114 03c2 06       		.uleb128 0x6
 2115 03c3 AE020000 		.4byte	.LASF56
 2116 03c7 07       		.byte	0x7
 2117 03c8 62       		.byte	0x62
 2118 03c9 73020000 		.4byte	0x273
 2119 03cd 02       		.byte	0x2
 2120 03ce 23       		.byte	0x23
 2121 03cf 18       		.uleb128 0x18
 2122 03d0 00       		.byte	0
 2123 03d1 04       		.uleb128 0x4
 2124 03d2 F0030000 		.4byte	.LASF57
 2125 03d6 07       		.byte	0x7
 2126 03d7 64       		.byte	0x64
 2127 03d8 74030000 		.4byte	0x374
ARM GAS  /tmp/ccXG8rbk.s 			page 39


 2128 03dc 05       		.uleb128 0x5
 2129 03dd 62020000 		.4byte	.LASF58
 2130 03e1 10       		.byte	0x10
 2131 03e2 08       		.byte	0x8
 2132 03e3 25       		.byte	0x25
 2133 03e4 13040000 		.4byte	0x413
 2134 03e8 06       		.uleb128 0x6
 2135 03e9 A2000000 		.4byte	.LASF59
 2136 03ed 08       		.byte	0x8
 2137 03ee 26       		.byte	0x26
 2138 03ef 79020000 		.4byte	0x279
 2139 03f3 02       		.byte	0x2
 2140 03f4 23       		.byte	0x23
 2141 03f5 00       		.uleb128 0
 2142 03f6 06       		.uleb128 0x6
 2143 03f7 83040000 		.4byte	.LASF60
 2144 03fb 08       		.byte	0x8
 2145 03fc 28       		.byte	0x28
 2146 03fd 73020000 		.4byte	0x273
 2147 0401 02       		.byte	0x2
 2148 0402 23       		.byte	0x23
 2149 0403 08       		.uleb128 0x8
 2150 0404 06       		.uleb128 0x6
 2151 0405 A8030000 		.4byte	.LASF61
 2152 0409 08       		.byte	0x8
 2153 040a 2A       		.byte	0x2a
 2154 040b 13040000 		.4byte	0x413
 2155 040f 02       		.byte	0x2
 2156 0410 23       		.byte	0x23
 2157 0411 0C       		.uleb128 0xc
 2158 0412 00       		.byte	0
 2159 0413 09       		.uleb128 0x9
 2160 0414 04       		.byte	0x4
 2161 0415 DC030000 		.4byte	0x3dc
 2162 0419 04       		.uleb128 0x4
 2163 041a 62020000 		.4byte	.LASF58
 2164 041e 08       		.byte	0x8
 2165 041f 2C       		.byte	0x2c
 2166 0420 DC030000 		.4byte	0x3dc
 2167 0424 04       		.uleb128 0x4
 2168 0425 0E040000 		.4byte	.LASF62
 2169 0429 09       		.byte	0x9
 2170 042a 25       		.byte	0x25
 2171 042b 2F040000 		.4byte	0x42f
 2172 042f 05       		.uleb128 0x5
 2173 0430 0E040000 		.4byte	.LASF62
 2174 0434 10       		.byte	0x10
 2175 0435 09       		.byte	0x9
 2176 0436 2A       		.byte	0x2a
 2177 0437 74040000 		.4byte	0x474
 2178 043b 06       		.uleb128 0x6
 2179 043c 2A020000 		.4byte	.LASF63
 2180 0440 09       		.byte	0x9
 2181 0441 2B       		.byte	0x2b
 2182 0442 74040000 		.4byte	0x474
 2183 0446 02       		.byte	0x2
 2184 0447 23       		.byte	0x23
ARM GAS  /tmp/ccXG8rbk.s 			page 40


 2185 0448 00       		.uleb128 0
 2186 0449 06       		.uleb128 0x6
 2187 044a 11030000 		.4byte	.LASF64
 2188 044e 09       		.byte	0x9
 2189 044f 2E       		.byte	0x2e
 2190 0450 73020000 		.4byte	0x273
 2191 0454 02       		.byte	0x2
 2192 0455 23       		.byte	0x23
 2193 0456 04       		.uleb128 0x4
 2194 0457 06       		.uleb128 0x6
 2195 0458 C0020000 		.4byte	.LASF65
 2196 045c 09       		.byte	0x9
 2197 045d 30       		.byte	0x30
 2198 045e EF000000 		.4byte	0xef
 2199 0462 02       		.byte	0x2
 2200 0463 23       		.byte	0x23
 2201 0464 08       		.uleb128 0x8
 2202 0465 06       		.uleb128 0x6
 2203 0466 1D030000 		.4byte	.LASF66
 2204 046a 09       		.byte	0x9
 2205 046b 33       		.byte	0x33
 2206 046c FA000000 		.4byte	0xfa
 2207 0470 02       		.byte	0x2
 2208 0471 23       		.byte	0x23
 2209 0472 0C       		.uleb128 0xc
 2210 0473 00       		.byte	0
 2211 0474 09       		.uleb128 0x9
 2212 0475 04       		.byte	0x4
 2213 0476 24040000 		.4byte	0x424
 2214 047a 05       		.uleb128 0x5
 2215 047b 9E010000 		.4byte	.LASF67
 2216 047f 04       		.byte	0x4
 2217 0480 09       		.byte	0x9
 2218 0481 3A       		.byte	0x3a
 2219 0482 95040000 		.4byte	0x495
 2220 0486 06       		.uleb128 0x6
 2221 0487 3E040000 		.4byte	.LASF68
 2222 048b 09       		.byte	0x9
 2223 048c 3B       		.byte	0x3b
 2224 048d 74040000 		.4byte	0x474
 2225 0491 02       		.byte	0x2
 2226 0492 23       		.byte	0x23
 2227 0493 00       		.uleb128 0
 2228 0494 00       		.byte	0
 2229 0495 04       		.uleb128 0x4
 2230 0496 9E010000 		.4byte	.LASF67
 2231 049a 09       		.byte	0x9
 2232 049b 3E       		.byte	0x3e
 2233 049c 7A040000 		.4byte	0x47a
 2234 04a0 04       		.uleb128 0x4
 2235 04a1 AA010000 		.4byte	.LASF69
 2236 04a5 09       		.byte	0x9
 2237 04a6 43       		.byte	0x43
 2238 04a7 AB040000 		.4byte	0x4ab
 2239 04ab 09       		.uleb128 0x9
 2240 04ac 04       		.byte	0x4
 2241 04ad B1040000 		.4byte	0x4b1
ARM GAS  /tmp/ccXG8rbk.s 			page 41


 2242 04b1 0E       		.uleb128 0xe
 2243 04b2 01       		.byte	0x1
 2244 04b3 BD040000 		.4byte	0x4bd
 2245 04b7 0F       		.uleb128 0xf
 2246 04b8 E4000000 		.4byte	0xe4
 2247 04bc 00       		.byte	0
 2248 04bd 10       		.uleb128 0x10
 2249 04be 04       		.byte	0x4
 2250 04bf 05       		.byte	0x5
 2251 04c0 8F       		.byte	0x8f
 2252 04c1 F2040000 		.4byte	0x4f2
 2253 04c5 11       		.uleb128 0x11
 2254 04c6 06000000 		.4byte	.LASF70
 2255 04ca 05       		.byte	0x5
 2256 04cb 96       		.byte	0x96
 2257 04cc D9000000 		.4byte	0xd9
 2258 04d0 11       		.uleb128 0x11
 2259 04d1 48000000 		.4byte	.LASF71
 2260 04d5 05       		.byte	0x5
 2261 04d6 9D       		.byte	0x9d
 2262 04d7 D9000000 		.4byte	0xd9
 2263 04db 11       		.uleb128 0x11
 2264 04dc 30040000 		.4byte	.LASF72
 2265 04e0 05       		.byte	0x5
 2266 04e1 A4       		.byte	0xa4
 2267 04e2 B1020000 		.4byte	0x2b1
 2268 04e6 11       		.uleb128 0x11
 2269 04e7 6A030000 		.4byte	.LASF73
 2270 04eb 05       		.byte	0x5
 2271 04ec AB       		.byte	0xab
 2272 04ed EF000000 		.4byte	0xef
 2273 04f1 00       		.byte	0
 2274 04f2 09       		.uleb128 0x9
 2275 04f3 04       		.byte	0x4
 2276 04f4 F8040000 		.4byte	0x4f8
 2277 04f8 12       		.uleb128 0x12
 2278 04f9 FD040000 		.4byte	0x4fd
 2279 04fd 03       		.uleb128 0x3
 2280 04fe 01       		.byte	0x1
 2281 04ff 08       		.byte	0x8
 2282 0500 A3030000 		.4byte	.LASF74
 2283 0504 09       		.uleb128 0x9
 2284 0505 04       		.byte	0x4
 2285 0506 B3020000 		.4byte	0x2b3
 2286 050a 09       		.uleb128 0x9
 2287 050b 04       		.byte	0x4
 2288 050c 19040000 		.4byte	0x419
 2289 0510 13       		.uleb128 0x13
 2290 0511 01       		.byte	0x1
 2291 0512 9B040000 		.4byte	.LASF99
 2292 0516 01       		.byte	0x1
 2293 0517 F4       		.byte	0xf4
 2294 0518 01       		.byte	0x1
 2295 0519 01       		.byte	0x1
 2296 051a 34050000 		.4byte	0x534
 2297 051e 14       		.uleb128 0x14
 2298 051f 747000   		.ascii	"tp\000"
ARM GAS  /tmp/ccXG8rbk.s 			page 42


 2299 0522 01       		.byte	0x1
 2300 0523 F4       		.byte	0xf4
 2301 0524 73020000 		.4byte	0x273
 2302 0528 15       		.uleb128 0x15
 2303 0529 72010000 		.4byte	.LASF75
 2304 052d 01       		.byte	0x1
 2305 052e F4       		.byte	0xf4
 2306 052f EF000000 		.4byte	0xef
 2307 0533 00       		.byte	0
 2308 0534 16       		.uleb128 0x16
 2309 0535 01       		.byte	0x1
 2310 0536 12020000 		.4byte	.LASF76
 2311 053a 01       		.byte	0x1
 2312 053b 4E       		.byte	0x4e
 2313 053c 01       		.byte	0x1
 2314 053d 00000000 		.4byte	.LFB7
 2315 0541 44000000 		.4byte	.LFE7
 2316 0545 00000000 		.4byte	.LLST0
 2317 0549 B1050000 		.4byte	0x5b1
 2318 054d 17       		.uleb128 0x17
 2319 054e 65737000 		.ascii	"esp\000"
 2320 0552 01       		.byte	0x1
 2321 0553 4E       		.byte	0x4e
 2322 0554 B1050000 		.4byte	0x5b1
 2323 0558 20000000 		.4byte	.LLST1
 2324 055c 17       		.uleb128 0x17
 2325 055d 656C7000 		.ascii	"elp\000"
 2326 0561 01       		.byte	0x1
 2327 0562 4E       		.byte	0x4e
 2328 0563 74040000 		.4byte	0x474
 2329 0567 3E000000 		.4byte	.LLST2
 2330 056b 18       		.uleb128 0x18
 2331 056c 72010000 		.4byte	.LASF75
 2332 0570 01       		.byte	0x1
 2333 0571 4E       		.byte	0x4e
 2334 0572 EF000000 		.4byte	0xef
 2335 0576 5C000000 		.4byte	.LLST3
 2336 057a 19       		.uleb128 0x19
 2337 057b 0C000000 		.4byte	.LBB2
 2338 057f 12000000 		.4byte	.LBE2
 2339 0583 97050000 		.4byte	0x597
 2340 0587 1A       		.uleb128 0x1a
 2341 0588 746D7000 		.ascii	"tmp\000"
 2342 058c 01       		.byte	0x1
 2343 058d 52       		.byte	0x52
 2344 058e 70000000 		.4byte	0x70
 2345 0592 7A000000 		.4byte	.LLST4
 2346 0596 00       		.byte	0
 2347 0597 1B       		.uleb128 0x1b
 2348 0598 2C000000 		.4byte	.LBB3
 2349 059c 32000000 		.4byte	.LBE3
 2350 05a0 1A       		.uleb128 0x1a
 2351 05a1 746D7000 		.ascii	"tmp\000"
 2352 05a5 01       		.byte	0x1
 2353 05a6 58       		.byte	0x58
 2354 05a7 70000000 		.4byte	0x70
 2355 05ab 8D000000 		.4byte	.LLST5
ARM GAS  /tmp/ccXG8rbk.s 			page 43


 2356 05af 00       		.byte	0
 2357 05b0 00       		.byte	0
 2358 05b1 09       		.uleb128 0x9
 2359 05b2 04       		.byte	0x4
 2360 05b3 95040000 		.4byte	0x495
 2361 05b7 16       		.uleb128 0x16
 2362 05b8 01       		.byte	0x1
 2363 05b9 32020000 		.4byte	.LASF77
 2364 05bd 01       		.byte	0x1
 2365 05be 68       		.byte	0x68
 2366 05bf 01       		.byte	0x1
 2367 05c0 00000000 		.4byte	.LFB8
 2368 05c4 4C000000 		.4byte	.LFE8
 2369 05c8 A0000000 		.4byte	.LLST6
 2370 05cc 2E060000 		.4byte	0x62e
 2371 05d0 17       		.uleb128 0x17
 2372 05d1 65737000 		.ascii	"esp\000"
 2373 05d5 01       		.byte	0x1
 2374 05d6 68       		.byte	0x68
 2375 05d7 B1050000 		.4byte	0x5b1
 2376 05db C0000000 		.4byte	.LLST7
 2377 05df 17       		.uleb128 0x17
 2378 05e0 656C7000 		.ascii	"elp\000"
 2379 05e4 01       		.byte	0x1
 2380 05e5 68       		.byte	0x68
 2381 05e6 74040000 		.4byte	0x474
 2382 05ea DE000000 		.4byte	.LLST8
 2383 05ee 1A       		.uleb128 0x1a
 2384 05ef 7000     		.ascii	"p\000"
 2385 05f1 01       		.byte	0x1
 2386 05f2 69       		.byte	0x69
 2387 05f3 74040000 		.4byte	0x474
 2388 05f7 FC000000 		.4byte	.LLST9
 2389 05fb 19       		.uleb128 0x19
 2390 05fc 0A000000 		.4byte	.LBB4
 2391 0600 10000000 		.4byte	.LBE4
 2392 0604 18060000 		.4byte	0x618
 2393 0608 1A       		.uleb128 0x1a
 2394 0609 746D7000 		.ascii	"tmp\000"
 2395 060d 01       		.byte	0x1
 2396 060e 6E       		.byte	0x6e
 2397 060f 70000000 		.4byte	0x70
 2398 0613 25010000 		.4byte	.LLST10
 2399 0617 00       		.byte	0
 2400 0618 1C       		.uleb128 0x1c
 2401 0619 00000000 		.4byte	.Ldebug_ranges0+0
 2402 061d 1A       		.uleb128 0x1a
 2403 061e 746D7000 		.ascii	"tmp\000"
 2404 0622 01       		.byte	0x1
 2405 0623 76       		.byte	0x76
 2406 0624 70000000 		.4byte	0x70
 2407 0628 38010000 		.4byte	.LLST11
 2408 062c 00       		.byte	0
 2409 062d 00       		.byte	0
 2410 062e 1D       		.uleb128 0x1d
 2411 062f 01       		.byte	0x1
 2412 0630 E0010000 		.4byte	.LASF78
ARM GAS  /tmp/ccXG8rbk.s 			page 44


 2413 0634 01       		.byte	0x1
 2414 0635 81       		.byte	0x81
 2415 0636 01       		.byte	0x1
 2416 0637 EF000000 		.4byte	0xef
 2417 063b 00000000 		.4byte	.LFB9
 2418 063f 30000000 		.4byte	.LFE9
 2419 0643 56010000 		.4byte	.LLST12
 2420 0647 98060000 		.4byte	0x698
 2421 064b 18       		.uleb128 0x18
 2422 064c 72010000 		.4byte	.LASF75
 2423 0650 01       		.byte	0x1
 2424 0651 81       		.byte	0x81
 2425 0652 EF000000 		.4byte	0xef
 2426 0656 76010000 		.4byte	.LLST13
 2427 065a 1E       		.uleb128 0x1e
 2428 065b 6D00     		.ascii	"m\000"
 2429 065d 01       		.byte	0x1
 2430 065e 82       		.byte	0x82
 2431 065f EF000000 		.4byte	0xef
 2432 0663 01       		.byte	0x1
 2433 0664 54       		.byte	0x54
 2434 0665 1F       		.uleb128 0x1f
 2435 0666 18000000 		.4byte	.Ldebug_ranges0+0x18
 2436 066a 7E060000 		.4byte	0x67e
 2437 066e 1A       		.uleb128 0x1a
 2438 066f 746D7000 		.ascii	"tmp\000"
 2439 0673 01       		.byte	0x1
 2440 0674 84       		.byte	0x84
 2441 0675 70000000 		.4byte	0x70
 2442 0679 94010000 		.4byte	.LLST14
 2443 067d 00       		.byte	0
 2444 067e 1B       		.uleb128 0x1b
 2445 067f 26000000 		.4byte	.LBB9
 2446 0683 2C000000 		.4byte	.LBE9
 2447 0687 1A       		.uleb128 0x1a
 2448 0688 746D7000 		.ascii	"tmp\000"
 2449 068c 01       		.byte	0x1
 2450 068d 89       		.byte	0x89
 2451 068e 70000000 		.4byte	0x70
 2452 0692 A7010000 		.4byte	.LLST15
 2453 0696 00       		.byte	0
 2454 0697 00       		.byte	0
 2455 0698 1D       		.uleb128 0x1d
 2456 0699 01       		.byte	0x1
 2457 069a 39000000 		.4byte	.LASF79
 2458 069e 01       		.byte	0x1
 2459 069f 96       		.byte	0x96
 2460 06a0 01       		.byte	0x1
 2461 06a1 EF000000 		.4byte	0xef
 2462 06a5 00000000 		.4byte	.LFB10
 2463 06a9 2C000000 		.4byte	.LFE10
 2464 06ad BA010000 		.4byte	.LLST16
 2465 06b1 F7060000 		.4byte	0x6f7
 2466 06b5 18       		.uleb128 0x18
 2467 06b6 72010000 		.4byte	.LASF75
 2468 06ba 01       		.byte	0x1
 2469 06bb 96       		.byte	0x96
ARM GAS  /tmp/ccXG8rbk.s 			page 45


 2470 06bc EF000000 		.4byte	0xef
 2471 06c0 DA010000 		.4byte	.LLST17
 2472 06c4 1F       		.uleb128 0x1f
 2473 06c5 30000000 		.4byte	.Ldebug_ranges0+0x30
 2474 06c9 DD060000 		.4byte	0x6dd
 2475 06cd 1A       		.uleb128 0x1a
 2476 06ce 746D7000 		.ascii	"tmp\000"
 2477 06d2 01       		.byte	0x1
 2478 06d3 98       		.byte	0x98
 2479 06d4 70000000 		.4byte	0x70
 2480 06d8 03020000 		.4byte	.LLST18
 2481 06dc 00       		.byte	0
 2482 06dd 1B       		.uleb128 0x1b
 2483 06de 22000000 		.4byte	.LBB12
 2484 06e2 28000000 		.4byte	.LBE12
 2485 06e6 1A       		.uleb128 0x1a
 2486 06e7 746D7000 		.ascii	"tmp\000"
 2487 06eb 01       		.byte	0x1
 2488 06ec 9C       		.byte	0x9c
 2489 06ed 70000000 		.4byte	0x70
 2490 06f1 16020000 		.4byte	.LLST19
 2491 06f5 00       		.byte	0
 2492 06f6 00       		.byte	0
 2493 06f7 16       		.uleb128 0x16
 2494 06f8 01       		.byte	0x1
 2495 06f9 4D010000 		.4byte	.LASF80
 2496 06fd 01       		.byte	0x1
 2497 06fe B1       		.byte	0xb1
 2498 06ff 01       		.byte	0x1
 2499 0700 00000000 		.4byte	.LFB11
 2500 0704 8C000000 		.4byte	.LFE11
 2501 0708 29020000 		.4byte	.LLST20
 2502 070c 84070000 		.4byte	0x784
 2503 0710 17       		.uleb128 0x17
 2504 0711 65737000 		.ascii	"esp\000"
 2505 0715 01       		.byte	0x1
 2506 0716 B1       		.byte	0xb1
 2507 0717 B1050000 		.4byte	0x5b1
 2508 071b 49020000 		.4byte	.LLST21
 2509 071f 18       		.uleb128 0x18
 2510 0720 08040000 		.4byte	.LASF81
 2511 0724 01       		.byte	0x1
 2512 0725 B1       		.byte	0xb1
 2513 0726 FA000000 		.4byte	0xfa
 2514 072a 67020000 		.4byte	.LLST22
 2515 072e 1A       		.uleb128 0x1a
 2516 072f 656C7000 		.ascii	"elp\000"
 2517 0733 01       		.byte	0x1
 2518 0734 B2       		.byte	0xb2
 2519 0735 74040000 		.4byte	0x474
 2520 0739 85020000 		.4byte	.LLST23
 2521 073d 20       		.uleb128 0x20
 2522 073e 10050000 		.4byte	0x510
 2523 0742 16000000 		.4byte	.LBB17
 2524 0746 48000000 		.4byte	.Ldebug_ranges0+0x48
 2525 074a 01       		.byte	0x1
 2526 074b BA       		.byte	0xba
ARM GAS  /tmp/ccXG8rbk.s 			page 46


 2527 074c 21       		.uleb128 0x21
 2528 074d 28050000 		.4byte	0x528
 2529 0751 A4020000 		.4byte	.LLST24
 2530 0755 21       		.uleb128 0x21
 2531 0756 1E050000 		.4byte	0x51e
 2532 075a CE020000 		.4byte	.LLST25
 2533 075e 20       		.uleb128 0x20
 2534 075f 10050000 		.4byte	0x510
 2535 0763 16000000 		.4byte	.LBB19
 2536 0767 68000000 		.4byte	.Ldebug_ranges0+0x68
 2537 076b 01       		.byte	0x1
 2538 076c B1       		.byte	0xb1
 2539 076d 21       		.uleb128 0x21
 2540 076e 1E050000 		.4byte	0x51e
 2541 0772 03030000 		.4byte	.LLST26
 2542 0776 1C       		.uleb128 0x1c
 2543 0777 88000000 		.4byte	.Ldebug_ranges0+0x88
 2544 077b 22       		.uleb128 0x22
 2545 077c 28050000 		.4byte	0x528
 2546 0780 00       		.byte	0
 2547 0781 00       		.byte	0
 2548 0782 00       		.byte	0
 2549 0783 00       		.byte	0
 2550 0784 1D       		.uleb128 0x1d
 2551 0785 01       		.byte	0x1
 2552 0786 46040000 		.4byte	.LASF82
 2553 078a 01       		.byte	0x1
 2554 078b CA       		.byte	0xca
 2555 078c 01       		.byte	0x1
 2556 078d FA000000 		.4byte	0xfa
 2557 0791 00000000 		.4byte	.LFB12
 2558 0795 22000000 		.4byte	.LFE12
 2559 0799 21030000 		.4byte	.LLST27
 2560 079d F2070000 		.4byte	0x7f2
 2561 07a1 17       		.uleb128 0x17
 2562 07a2 656C7000 		.ascii	"elp\000"
 2563 07a6 01       		.byte	0x1
 2564 07a7 CA       		.byte	0xca
 2565 07a8 74040000 		.4byte	0x474
 2566 07ac 41030000 		.4byte	.LLST28
 2567 07b0 23       		.uleb128 0x23
 2568 07b1 08040000 		.4byte	.LASF81
 2569 07b5 01       		.byte	0x1
 2570 07b6 CB       		.byte	0xcb
 2571 07b7 FA000000 		.4byte	0xfa
 2572 07bb 5F030000 		.4byte	.LLST29
 2573 07bf 1F       		.uleb128 0x1f
 2574 07c0 A8000000 		.4byte	.Ldebug_ranges0+0xa8
 2575 07c4 D8070000 		.4byte	0x7d8
 2576 07c8 1A       		.uleb128 0x1a
 2577 07c9 746D7000 		.ascii	"tmp\000"
 2578 07cd 01       		.byte	0x1
 2579 07ce CD       		.byte	0xcd
 2580 07cf 70000000 		.4byte	0x70
 2581 07d3 7E030000 		.4byte	.LLST30
 2582 07d7 00       		.byte	0
 2583 07d8 1B       		.uleb128 0x1b
ARM GAS  /tmp/ccXG8rbk.s 			page 47


 2584 07d9 18000000 		.4byte	.LBB31
 2585 07dd 1E000000 		.4byte	.LBE31
 2586 07e1 1A       		.uleb128 0x1a
 2587 07e2 746D7000 		.ascii	"tmp\000"
 2588 07e6 01       		.byte	0x1
 2589 07e7 D2       		.byte	0xd2
 2590 07e8 70000000 		.4byte	0x70
 2591 07ec 91030000 		.4byte	.LLST31
 2592 07f0 00       		.byte	0
 2593 07f1 00       		.byte	0
 2594 07f2 16       		.uleb128 0x16
 2595 07f3 01       		.byte	0x1
 2596 07f4 16000000 		.4byte	.LASF83
 2597 07f8 01       		.byte	0x1
 2598 07f9 DE       		.byte	0xde
 2599 07fa 01       		.byte	0x1
 2600 07fb 00000000 		.4byte	.LFB13
 2601 07ff 8C000000 		.4byte	.LFE13
 2602 0803 A4030000 		.4byte	.LLST32
 2603 0807 A5080000 		.4byte	0x8a5
 2604 080b 17       		.uleb128 0x17
 2605 080c 747000   		.ascii	"tp\000"
 2606 080f 01       		.byte	0x1
 2607 0810 DE       		.byte	0xde
 2608 0811 73020000 		.4byte	0x273
 2609 0815 C4030000 		.4byte	.LLST33
 2610 0819 18       		.uleb128 0x18
 2611 081a 72010000 		.4byte	.LASF75
 2612 081e 01       		.byte	0x1
 2613 081f DE       		.byte	0xde
 2614 0820 EF000000 		.4byte	0xef
 2615 0824 E2030000 		.4byte	.LLST34
 2616 0828 19       		.uleb128 0x19
 2617 0829 0A000000 		.4byte	.LBB38
 2618 082d 10000000 		.4byte	.LBE38
 2619 0831 45080000 		.4byte	0x845
 2620 0835 1A       		.uleb128 0x1a
 2621 0836 746D7000 		.ascii	"tmp\000"
 2622 083a 01       		.byte	0x1
 2623 083b E2       		.byte	0xe2
 2624 083c 70000000 		.4byte	0x70
 2625 0840 16040000 		.4byte	.LLST35
 2626 0844 00       		.byte	0
 2627 0845 24       		.uleb128 0x24
 2628 0846 10050000 		.4byte	0x510
 2629 084a 14000000 		.4byte	.LBB39
 2630 084e C0000000 		.4byte	.Ldebug_ranges0+0xc0
 2631 0852 01       		.byte	0x1
 2632 0853 E3       		.byte	0xe3
 2633 0854 8F080000 		.4byte	0x88f
 2634 0858 21       		.uleb128 0x21
 2635 0859 28050000 		.4byte	0x528
 2636 085d 29040000 		.4byte	.LLST36
 2637 0861 21       		.uleb128 0x21
 2638 0862 1E050000 		.4byte	0x51e
 2639 0866 47040000 		.4byte	.LLST37
 2640 086a 20       		.uleb128 0x20
ARM GAS  /tmp/ccXG8rbk.s 			page 48


 2641 086b 10050000 		.4byte	0x510
 2642 086f 46000000 		.4byte	.LBB41
 2643 0873 E8000000 		.4byte	.Ldebug_ranges0+0xe8
 2644 0877 01       		.byte	0x1
 2645 0878 DE       		.byte	0xde
 2646 0879 21       		.uleb128 0x21
 2647 087a 1E050000 		.4byte	0x51e
 2648 087e 65040000 		.4byte	.LLST38
 2649 0882 1C       		.uleb128 0x1c
 2650 0883 00010000 		.4byte	.Ldebug_ranges0+0x100
 2651 0887 22       		.uleb128 0x22
 2652 0888 28050000 		.4byte	0x528
 2653 088c 00       		.byte	0
 2654 088d 00       		.byte	0
 2655 088e 00       		.byte	0
 2656 088f 1C       		.uleb128 0x1c
 2657 0890 18010000 		.4byte	.Ldebug_ranges0+0x118
 2658 0894 1A       		.uleb128 0x1a
 2659 0895 746D7000 		.ascii	"tmp\000"
 2660 0899 01       		.byte	0x1
 2661 089a E5       		.byte	0xe5
 2662 089b 70000000 		.4byte	0x70
 2663 089f 83040000 		.4byte	.LLST39
 2664 08a3 00       		.byte	0
 2665 08a4 00       		.byte	0
 2666 08a5 25       		.uleb128 0x25
 2667 08a6 10050000 		.4byte	0x510
 2668 08aa 00000000 		.4byte	.LFB14
 2669 08ae 48000000 		.4byte	.LFE14
 2670 08b2 A1040000 		.4byte	.LLST40
 2671 08b6 F5080000 		.4byte	0x8f5
 2672 08ba 21       		.uleb128 0x21
 2673 08bb 1E050000 		.4byte	0x51e
 2674 08bf C1040000 		.4byte	.LLST41
 2675 08c3 21       		.uleb128 0x21
 2676 08c4 28050000 		.4byte	0x528
 2677 08c8 DF040000 		.4byte	.LLST42
 2678 08cc 26       		.uleb128 0x26
 2679 08cd 10050000 		.4byte	0x510
 2680 08d1 28000000 		.4byte	.LBB55
 2681 08d5 34000000 		.4byte	.LBE55
 2682 08d9 01       		.byte	0x1
 2683 08da F4       		.byte	0xf4
 2684 08db 21       		.uleb128 0x21
 2685 08dc 1E050000 		.4byte	0x51e
 2686 08e0 08050000 		.4byte	.LLST43
 2687 08e4 1B       		.uleb128 0x1b
 2688 08e5 28000000 		.4byte	.LBB56
 2689 08e9 34000000 		.4byte	.LBE56
 2690 08ed 22       		.uleb128 0x22
 2691 08ee 28050000 		.4byte	0x528
 2692 08f2 00       		.byte	0
 2693 08f3 00       		.byte	0
 2694 08f4 00       		.byte	0
 2695 08f5 27       		.uleb128 0x27
 2696 08f6 01       		.byte	0x1
 2697 08f7 80010000 		.4byte	.LASF84
ARM GAS  /tmp/ccXG8rbk.s 			page 49


 2698 08fb 01       		.byte	0x1
 2699 08fc 0F01     		.2byte	0x10f
 2700 08fe 01       		.byte	0x1
 2701 08ff 00000000 		.4byte	.LFB15
 2702 0903 28000000 		.4byte	.LFE15
 2703 0907 1B050000 		.4byte	.LLST44
 2704 090b 68090000 		.4byte	0x968
 2705 090f 28       		.uleb128 0x28
 2706 0910 65737000 		.ascii	"esp\000"
 2707 0914 01       		.byte	0x1
 2708 0915 0F01     		.2byte	0x10f
 2709 0917 B1050000 		.4byte	0x5b1
 2710 091b 3B050000 		.4byte	.LLST45
 2711 091f 29       		.uleb128 0x29
 2712 0920 08040000 		.4byte	.LASF81
 2713 0924 01       		.byte	0x1
 2714 0925 0F01     		.2byte	0x10f
 2715 0927 FA000000 		.4byte	0xfa
 2716 092b 59050000 		.4byte	.LLST46
 2717 092f 19       		.uleb128 0x19
 2718 0930 06000000 		.4byte	.LBB57
 2719 0934 0C000000 		.4byte	.LBE57
 2720 0938 4D090000 		.4byte	0x94d
 2721 093c 2A       		.uleb128 0x2a
 2722 093d 746D7000 		.ascii	"tmp\000"
 2723 0941 01       		.byte	0x1
 2724 0942 1101     		.2byte	0x111
 2725 0944 70000000 		.4byte	0x70
 2726 0948 77050000 		.4byte	.LLST47
 2727 094c 00       		.byte	0
 2728 094d 1B       		.uleb128 0x1b
 2729 094e 20000000 		.4byte	.LBB58
 2730 0952 26000000 		.4byte	.LBE58
 2731 0956 2A       		.uleb128 0x2a
 2732 0957 746D7000 		.ascii	"tmp\000"
 2733 095b 01       		.byte	0x1
 2734 095c 1401     		.2byte	0x114
 2735 095e 70000000 		.4byte	0x70
 2736 0962 8A050000 		.4byte	.LLST48
 2737 0966 00       		.byte	0
 2738 0967 00       		.byte	0
 2739 0968 2B       		.uleb128 0x2b
 2740 0969 01       		.byte	0x1
 2741 096a 53030000 		.4byte	.LASF85
 2742 096e 01       		.byte	0x1
 2743 096f 2201     		.2byte	0x122
 2744 0971 01       		.byte	0x1
 2745 0972 FA000000 		.4byte	0xfa
 2746 0976 00000000 		.4byte	.LFB16
 2747 097a 0A000000 		.4byte	.LFE16
 2748 097e 02       		.byte	0x2
 2749 097f 7D       		.byte	0x7d
 2750 0980 00       		.sleb128 0
 2751 0981 A5090000 		.4byte	0x9a5
 2752 0985 28       		.uleb128 0x28
 2753 0986 656C7000 		.ascii	"elp\000"
 2754 098a 01       		.byte	0x1
ARM GAS  /tmp/ccXG8rbk.s 			page 50


 2755 098b 2201     		.2byte	0x122
 2756 098d 74040000 		.4byte	0x474
 2757 0991 9D050000 		.4byte	.LLST49
 2758 0995 2C       		.uleb128 0x2c
 2759 0996 08040000 		.4byte	.LASF81
 2760 099a 01       		.byte	0x1
 2761 099b 2301     		.2byte	0x123
 2762 099d FA000000 		.4byte	0xfa
 2763 09a1 02       		.byte	0x2
 2764 09a2 73       		.byte	0x73
 2765 09a3 0C       		.sleb128 12
 2766 09a4 00       		.byte	0
 2767 09a5 27       		.uleb128 0x27
 2768 09a6 01       		.byte	0x1
 2769 09a7 73020000 		.4byte	.LASF86
 2770 09ab 01       		.byte	0x1
 2771 09ac 3401     		.2byte	0x134
 2772 09ae 01       		.byte	0x1
 2773 09af 00000000 		.4byte	.LFB17
 2774 09b3 50000000 		.4byte	.LFE17
 2775 09b7 BB050000 		.4byte	.LLST50
 2776 09bb F0090000 		.4byte	0x9f0
 2777 09bf 29       		.uleb128 0x29
 2778 09c0 C8020000 		.4byte	.LASF87
 2779 09c4 01       		.byte	0x1
 2780 09c5 3401     		.2byte	0x134
 2781 09c7 F0090000 		.4byte	0x9f0
 2782 09cb DB050000 		.4byte	.LLST51
 2783 09cf 29       		.uleb128 0x29
 2784 09d0 72010000 		.4byte	.LASF75
 2785 09d4 01       		.byte	0x1
 2786 09d5 3401     		.2byte	0x134
 2787 09d7 EF000000 		.4byte	0xef
 2788 09db F9050000 		.4byte	.LLST52
 2789 09df 2A       		.uleb128 0x2a
 2790 09e0 65696400 		.ascii	"eid\000"
 2791 09e4 01       		.byte	0x1
 2792 09e5 3501     		.2byte	0x135
 2793 09e7 E4000000 		.4byte	0xe4
 2794 09eb 38060000 		.4byte	.LLST53
 2795 09ef 00       		.byte	0
 2796 09f0 09       		.uleb128 0x9
 2797 09f1 04       		.byte	0x4
 2798 09f2 F6090000 		.4byte	0x9f6
 2799 09f6 12       		.uleb128 0x12
 2800 09f7 A0040000 		.4byte	0x4a0
 2801 09fb 2D       		.uleb128 0x2d
 2802 09fc 01       		.byte	0x1
 2803 09fd 04030000 		.4byte	.LASF88
 2804 0a01 01       		.byte	0x1
 2805 0a02 5701     		.2byte	0x157
 2806 0a04 01       		.byte	0x1
 2807 0a05 EF000000 		.4byte	0xef
 2808 0a09 00000000 		.4byte	.LFB18
 2809 0a0d 44000000 		.4byte	.LFE18
 2810 0a11 57060000 		.4byte	.LLST54
 2811 0a15 800A0000 		.4byte	0xa80
ARM GAS  /tmp/ccXG8rbk.s 			page 51


 2812 0a19 29       		.uleb128 0x29
 2813 0a1a 72010000 		.4byte	.LASF75
 2814 0a1e 01       		.byte	0x1
 2815 0a1f 5701     		.2byte	0x157
 2816 0a21 EF000000 		.4byte	0xef
 2817 0a25 77060000 		.4byte	.LLST55
 2818 0a29 2A       		.uleb128 0x2a
 2819 0a2a 63747000 		.ascii	"ctp\000"
 2820 0a2e 01       		.byte	0x1
 2821 0a2f 5801     		.2byte	0x158
 2822 0a31 73020000 		.4byte	0x273
 2823 0a35 95060000 		.4byte	.LLST56
 2824 0a39 2A       		.uleb128 0x2a
 2825 0a3a 6D00     		.ascii	"m\000"
 2826 0a3c 01       		.byte	0x1
 2827 0a3d 5901     		.2byte	0x159
 2828 0a3f EF000000 		.4byte	0xef
 2829 0a43 B4060000 		.4byte	.LLST57
 2830 0a47 19       		.uleb128 0x19
 2831 0a48 08000000 		.4byte	.LBB59
 2832 0a4c 0E000000 		.4byte	.LBE59
 2833 0a50 650A0000 		.4byte	0xa65
 2834 0a54 2A       		.uleb128 0x2a
 2835 0a55 746D7000 		.ascii	"tmp\000"
 2836 0a59 01       		.byte	0x1
 2837 0a5a 5B01     		.2byte	0x15b
 2838 0a5c 70000000 		.4byte	0x70
 2839 0a60 E3060000 		.4byte	.LLST58
 2840 0a64 00       		.byte	0
 2841 0a65 1B       		.uleb128 0x1b
 2842 0a66 36000000 		.4byte	.LBB60
 2843 0a6a 3C000000 		.4byte	.LBE60
 2844 0a6e 2A       		.uleb128 0x2a
 2845 0a6f 746D7000 		.ascii	"tmp\000"
 2846 0a73 01       		.byte	0x1
 2847 0a74 6501     		.2byte	0x165
 2848 0a76 70000000 		.4byte	0x70
 2849 0a7a F6060000 		.4byte	.LLST59
 2850 0a7e 00       		.byte	0
 2851 0a7f 00       		.byte	0
 2852 0a80 2D       		.uleb128 0x2d
 2853 0a81 01       		.byte	0x1
 2854 0a82 40010000 		.4byte	.LASF89
 2855 0a86 01       		.byte	0x1
 2856 0a87 7401     		.2byte	0x174
 2857 0a89 01       		.byte	0x1
 2858 0a8a EF000000 		.4byte	0xef
 2859 0a8e 00000000 		.4byte	.LFB19
 2860 0a92 40000000 		.4byte	.LFE19
 2861 0a96 09070000 		.4byte	.LLST60
 2862 0a9a 050B0000 		.4byte	0xb05
 2863 0a9e 29       		.uleb128 0x29
 2864 0a9f 72010000 		.4byte	.LASF75
 2865 0aa3 01       		.byte	0x1
 2866 0aa4 7401     		.2byte	0x174
 2867 0aa6 EF000000 		.4byte	0xef
 2868 0aaa 29070000 		.4byte	.LLST61
ARM GAS  /tmp/ccXG8rbk.s 			page 52


 2869 0aae 2A       		.uleb128 0x2a
 2870 0aaf 63747000 		.ascii	"ctp\000"
 2871 0ab3 01       		.byte	0x1
 2872 0ab4 7501     		.2byte	0x175
 2873 0ab6 73020000 		.4byte	0x273
 2874 0aba 47070000 		.4byte	.LLST62
 2875 0abe 2A       		.uleb128 0x2a
 2876 0abf 6D00     		.ascii	"m\000"
 2877 0ac1 01       		.byte	0x1
 2878 0ac2 7601     		.2byte	0x176
 2879 0ac4 EF000000 		.4byte	0xef
 2880 0ac8 66070000 		.4byte	.LLST63
 2881 0acc 19       		.uleb128 0x19
 2882 0acd 08000000 		.4byte	.LBB61
 2883 0ad1 0E000000 		.4byte	.LBE61
 2884 0ad5 EA0A0000 		.4byte	0xaea
 2885 0ad9 2A       		.uleb128 0x2a
 2886 0ada 746D7000 		.ascii	"tmp\000"
 2887 0ade 01       		.byte	0x1
 2888 0adf 7801     		.2byte	0x178
 2889 0ae1 70000000 		.4byte	0x70
 2890 0ae5 8A070000 		.4byte	.LLST64
 2891 0ae9 00       		.byte	0
 2892 0aea 1B       		.uleb128 0x1b
 2893 0aeb 32000000 		.4byte	.LBB62
 2894 0aef 38000000 		.4byte	.LBE62
 2895 0af3 2A       		.uleb128 0x2a
 2896 0af4 746D7000 		.ascii	"tmp\000"
 2897 0af8 01       		.byte	0x1
 2898 0af9 8101     		.2byte	0x181
 2899 0afb 70000000 		.4byte	0x70
 2900 0aff 9D070000 		.4byte	.LLST65
 2901 0b03 00       		.byte	0
 2902 0b04 00       		.byte	0
 2903 0b05 2D       		.uleb128 0x2d
 2904 0b06 01       		.byte	0x1
 2905 0b07 A1020000 		.4byte	.LASF90
 2906 0b0b 01       		.byte	0x1
 2907 0b0c 9001     		.2byte	0x190
 2908 0b0e 01       		.byte	0x1
 2909 0b0f EF000000 		.4byte	0xef
 2910 0b13 00000000 		.4byte	.LFB20
 2911 0b17 40000000 		.4byte	.LFE20
 2912 0b1b B0070000 		.4byte	.LLST66
 2913 0b1f 7C0B0000 		.4byte	0xb7c
 2914 0b23 29       		.uleb128 0x29
 2915 0b24 72010000 		.4byte	.LASF75
 2916 0b28 01       		.byte	0x1
 2917 0b29 9001     		.2byte	0x190
 2918 0b2b EF000000 		.4byte	0xef
 2919 0b2f D0070000 		.4byte	.LLST67
 2920 0b33 2A       		.uleb128 0x2a
 2921 0b34 63747000 		.ascii	"ctp\000"
 2922 0b38 01       		.byte	0x1
 2923 0b39 9101     		.2byte	0x191
 2924 0b3b 73020000 		.4byte	0x273
 2925 0b3f EE070000 		.4byte	.LLST68
ARM GAS  /tmp/ccXG8rbk.s 			page 53


 2926 0b43 19       		.uleb128 0x19
 2927 0b44 08000000 		.4byte	.LBB63
 2928 0b48 0E000000 		.4byte	.LBE63
 2929 0b4c 610B0000 		.4byte	0xb61
 2930 0b50 2A       		.uleb128 0x2a
 2931 0b51 746D7000 		.ascii	"tmp\000"
 2932 0b55 01       		.byte	0x1
 2933 0b56 9301     		.2byte	0x193
 2934 0b58 70000000 		.4byte	0x70
 2935 0b5c 0D080000 		.4byte	.LLST69
 2936 0b60 00       		.byte	0
 2937 0b61 1B       		.uleb128 0x1b
 2938 0b62 30000000 		.4byte	.LBB64
 2939 0b66 36000000 		.4byte	.LBE64
 2940 0b6a 2A       		.uleb128 0x2a
 2941 0b6b 746D7000 		.ascii	"tmp\000"
 2942 0b6f 01       		.byte	0x1
 2943 0b70 9B01     		.2byte	0x19b
 2944 0b72 70000000 		.4byte	0x70
 2945 0b76 20080000 		.4byte	.LLST70
 2946 0b7a 00       		.byte	0
 2947 0b7b 00       		.byte	0
 2948 0b7c 2D       		.uleb128 0x2d
 2949 0b7d 01       		.byte	0x1
 2950 0b7e 1C040000 		.4byte	.LASF91
 2951 0b82 01       		.byte	0x1
 2952 0b83 B701     		.2byte	0x1b7
 2953 0b85 01       		.byte	0x1
 2954 0b86 EF000000 		.4byte	0xef
 2955 0b8a 00000000 		.4byte	.LFB21
 2956 0b8e 5C000000 		.4byte	.LFE21
 2957 0b92 33080000 		.4byte	.LLST71
 2958 0b96 2F0C0000 		.4byte	0xc2f
 2959 0b9a 29       		.uleb128 0x29
 2960 0b9b 72010000 		.4byte	.LASF75
 2961 0b9f 01       		.byte	0x1
 2962 0ba0 B701     		.2byte	0x1b7
 2963 0ba2 EF000000 		.4byte	0xef
 2964 0ba6 53080000 		.4byte	.LLST72
 2965 0baa 29       		.uleb128 0x29
 2966 0bab 9C020000 		.4byte	.LASF92
 2967 0baf 01       		.byte	0x1
 2968 0bb0 B701     		.2byte	0x1b7
 2969 0bb2 05010000 		.4byte	0x105
 2970 0bb6 71080000 		.4byte	.LLST73
 2971 0bba 2A       		.uleb128 0x2a
 2972 0bbb 63747000 		.ascii	"ctp\000"
 2973 0bbf 01       		.byte	0x1
 2974 0bc0 B801     		.2byte	0x1b8
 2975 0bc2 73020000 		.4byte	0x273
 2976 0bc6 8F080000 		.4byte	.LLST74
 2977 0bca 2A       		.uleb128 0x2a
 2978 0bcb 6D00     		.ascii	"m\000"
 2979 0bcd 01       		.byte	0x1
 2980 0bce B901     		.2byte	0x1b9
 2981 0bd0 EF000000 		.4byte	0xef
 2982 0bd4 AE080000 		.4byte	.LLST75
ARM GAS  /tmp/ccXG8rbk.s 			page 54


 2983 0bd8 19       		.uleb128 0x19
 2984 0bd9 0A000000 		.4byte	.LBB65
 2985 0bdd 10000000 		.4byte	.LBE65
 2986 0be1 F60B0000 		.4byte	0xbf6
 2987 0be5 2A       		.uleb128 0x2a
 2988 0be6 746D7000 		.ascii	"tmp\000"
 2989 0bea 01       		.byte	0x1
 2990 0beb BB01     		.2byte	0x1bb
 2991 0bed 70000000 		.4byte	0x70
 2992 0bf1 D2080000 		.4byte	.LLST76
 2993 0bf5 00       		.byte	0
 2994 0bf6 19       		.uleb128 0x19
 2995 0bf7 40000000 		.4byte	.LBB66
 2996 0bfb 46000000 		.4byte	.LBE66
 2997 0bff 140C0000 		.4byte	0xc14
 2998 0c03 2A       		.uleb128 0x2a
 2999 0c04 746D7000 		.ascii	"tmp\000"
 3000 0c08 01       		.byte	0x1
 3001 0c09 CC01     		.2byte	0x1cc
 3002 0c0b 70000000 		.4byte	0x70
 3003 0c0f E5080000 		.4byte	.LLST77
 3004 0c13 00       		.byte	0
 3005 0c14 1B       		.uleb128 0x1b
 3006 0c15 4E000000 		.4byte	.LBB67
 3007 0c19 54000000 		.4byte	.LBE67
 3008 0c1d 2A       		.uleb128 0x2a
 3009 0c1e 746D7000 		.ascii	"tmp\000"
 3010 0c22 01       		.byte	0x1
 3011 0c23 C401     		.2byte	0x1c4
 3012 0c25 70000000 		.4byte	0x70
 3013 0c29 F8080000 		.4byte	.LLST78
 3014 0c2d 00       		.byte	0
 3015 0c2e 00       		.byte	0
 3016 0c2f 2D       		.uleb128 0x2d
 3017 0c30 01       		.byte	0x1
 3018 0c31 51000000 		.4byte	.LASF93
 3019 0c35 01       		.byte	0x1
 3020 0c36 E201     		.2byte	0x1e2
 3021 0c38 01       		.byte	0x1
 3022 0c39 EF000000 		.4byte	0xef
 3023 0c3d 00000000 		.4byte	.LFB22
 3024 0c41 58000000 		.4byte	.LFE22
 3025 0c45 0B090000 		.4byte	.LLST79
 3026 0c49 E20C0000 		.4byte	0xce2
 3027 0c4d 29       		.uleb128 0x29
 3028 0c4e 72010000 		.4byte	.LASF75
 3029 0c52 01       		.byte	0x1
 3030 0c53 E201     		.2byte	0x1e2
 3031 0c55 EF000000 		.4byte	0xef
 3032 0c59 2B090000 		.4byte	.LLST80
 3033 0c5d 29       		.uleb128 0x29
 3034 0c5e 9C020000 		.4byte	.LASF92
 3035 0c62 01       		.byte	0x1
 3036 0c63 E201     		.2byte	0x1e2
 3037 0c65 05010000 		.4byte	0x105
 3038 0c69 49090000 		.4byte	.LLST81
 3039 0c6d 2A       		.uleb128 0x2a
ARM GAS  /tmp/ccXG8rbk.s 			page 55


 3040 0c6e 63747000 		.ascii	"ctp\000"
 3041 0c72 01       		.byte	0x1
 3042 0c73 E301     		.2byte	0x1e3
 3043 0c75 73020000 		.4byte	0x273
 3044 0c79 67090000 		.4byte	.LLST82
 3045 0c7d 2A       		.uleb128 0x2a
 3046 0c7e 6D00     		.ascii	"m\000"
 3047 0c80 01       		.byte	0x1
 3048 0c81 E401     		.2byte	0x1e4
 3049 0c83 EF000000 		.4byte	0xef
 3050 0c87 86090000 		.4byte	.LLST83
 3051 0c8b 19       		.uleb128 0x19
 3052 0c8c 0A000000 		.4byte	.LBB68
 3053 0c90 10000000 		.4byte	.LBE68
 3054 0c94 A90C0000 		.4byte	0xca9
 3055 0c98 2A       		.uleb128 0x2a
 3056 0c99 746D7000 		.ascii	"tmp\000"
 3057 0c9d 01       		.byte	0x1
 3058 0c9e E601     		.2byte	0x1e6
 3059 0ca0 70000000 		.4byte	0x70
 3060 0ca4 AA090000 		.4byte	.LLST84
 3061 0ca8 00       		.byte	0
 3062 0ca9 19       		.uleb128 0x19
 3063 0caa 3C000000 		.4byte	.LBB69
 3064 0cae 42000000 		.4byte	.LBE69
 3065 0cb2 C70C0000 		.4byte	0xcc7
 3066 0cb6 2A       		.uleb128 0x2a
 3067 0cb7 746D7000 		.ascii	"tmp\000"
 3068 0cbb 01       		.byte	0x1
 3069 0cbc F601     		.2byte	0x1f6
 3070 0cbe 70000000 		.4byte	0x70
 3071 0cc2 BD090000 		.4byte	.LLST85
 3072 0cc6 00       		.byte	0
 3073 0cc7 1B       		.uleb128 0x1b
 3074 0cc8 4A000000 		.4byte	.LBB70
 3075 0ccc 50000000 		.4byte	.LBE70
 3076 0cd0 2A       		.uleb128 0x2a
 3077 0cd1 746D7000 		.ascii	"tmp\000"
 3078 0cd5 01       		.byte	0x1
 3079 0cd6 EF01     		.2byte	0x1ef
 3080 0cd8 70000000 		.4byte	0x70
 3081 0cdc D0090000 		.4byte	.LLST86
 3082 0ce0 00       		.byte	0
 3083 0ce1 00       		.byte	0
 3084 0ce2 2D       		.uleb128 0x2d
 3085 0ce3 01       		.byte	0x1
 3086 0ce4 86000000 		.4byte	.LASF94
 3087 0ce8 01       		.byte	0x1
 3088 0ce9 0B02     		.2byte	0x20b
 3089 0ceb 01       		.byte	0x1
 3090 0cec EF000000 		.4byte	0xef
 3091 0cf0 00000000 		.4byte	.LFB23
 3092 0cf4 68000000 		.4byte	.LFE23
 3093 0cf8 E3090000 		.4byte	.LLST87
 3094 0cfc A50D0000 		.4byte	0xda5
 3095 0d00 29       		.uleb128 0x29
 3096 0d01 72010000 		.4byte	.LASF75
ARM GAS  /tmp/ccXG8rbk.s 			page 56


 3097 0d05 01       		.byte	0x1
 3098 0d06 0B02     		.2byte	0x20b
 3099 0d08 EF000000 		.4byte	0xef
 3100 0d0c 030A0000 		.4byte	.LLST88
 3101 0d10 29       		.uleb128 0x29
 3102 0d11 9C020000 		.4byte	.LASF92
 3103 0d15 01       		.byte	0x1
 3104 0d16 0B02     		.2byte	0x20b
 3105 0d18 05010000 		.4byte	0x105
 3106 0d1c 370A0000 		.4byte	.LLST89
 3107 0d20 2A       		.uleb128 0x2a
 3108 0d21 63747000 		.ascii	"ctp\000"
 3109 0d25 01       		.byte	0x1
 3110 0d26 0C02     		.2byte	0x20c
 3111 0d28 73020000 		.4byte	0x273
 3112 0d2c 550A0000 		.4byte	.LLST90
 3113 0d30 19       		.uleb128 0x19
 3114 0d31 0A000000 		.4byte	.LBB71
 3115 0d35 10000000 		.4byte	.LBE71
 3116 0d39 4E0D0000 		.4byte	0xd4e
 3117 0d3d 2A       		.uleb128 0x2a
 3118 0d3e 746D7000 		.ascii	"tmp\000"
 3119 0d42 01       		.byte	0x1
 3120 0d43 0E02     		.2byte	0x20e
 3121 0d45 70000000 		.4byte	0x70
 3122 0d49 740A0000 		.4byte	.LLST91
 3123 0d4d 00       		.byte	0
 3124 0d4e 19       		.uleb128 0x19
 3125 0d4f 3A000000 		.4byte	.LBB72
 3126 0d53 40000000 		.4byte	.LBE72
 3127 0d57 6C0D0000 		.4byte	0xd6c
 3128 0d5b 2A       		.uleb128 0x2a
 3129 0d5c 746D7000 		.ascii	"tmp\000"
 3130 0d60 01       		.byte	0x1
 3131 0d61 1D02     		.2byte	0x21d
 3132 0d63 70000000 		.4byte	0x70
 3133 0d67 870A0000 		.4byte	.LLST92
 3134 0d6b 00       		.byte	0
 3135 0d6c 19       		.uleb128 0x19
 3136 0d6d 48000000 		.4byte	.LBB73
 3137 0d71 4E000000 		.4byte	.LBE73
 3138 0d75 8A0D0000 		.4byte	0xd8a
 3139 0d79 2A       		.uleb128 0x2a
 3140 0d7a 746D7000 		.ascii	"tmp\000"
 3141 0d7e 01       		.byte	0x1
 3142 0d7f 1202     		.2byte	0x212
 3143 0d81 70000000 		.4byte	0x70
 3144 0d85 9A0A0000 		.4byte	.LLST93
 3145 0d89 00       		.byte	0
 3146 0d8a 1B       		.uleb128 0x1b
 3147 0d8b 58000000 		.4byte	.LBB74
 3148 0d8f 5E000000 		.4byte	.LBE74
 3149 0d93 2A       		.uleb128 0x2a
 3150 0d94 746D7000 		.ascii	"tmp\000"
 3151 0d98 01       		.byte	0x1
 3152 0d99 1702     		.2byte	0x217
 3153 0d9b 70000000 		.4byte	0x70
ARM GAS  /tmp/ccXG8rbk.s 			page 57


 3154 0d9f AD0A0000 		.4byte	.LLST94
 3155 0da3 00       		.byte	0
 3156 0da4 00       		.byte	0
 3157 0da5 2E       		.uleb128 0x2e
 3158 0da6 FA030000 		.4byte	.LASF95
 3159 0daa 07       		.byte	0x7
 3160 0dab 68       		.byte	0x68
 3161 0dac D1030000 		.4byte	0x3d1
 3162 0db0 01       		.byte	0x1
 3163 0db1 01       		.byte	0x1
 3164 0db2 2E       		.uleb128 0x2e
 3165 0db3 FA030000 		.4byte	.LASF95
 3166 0db7 07       		.byte	0x7
 3167 0db8 68       		.byte	0x68
 3168 0db9 D1030000 		.4byte	0x3d1
 3169 0dbd 01       		.byte	0x1
 3170 0dbe 01       		.byte	0x1
 3171 0dbf 00       		.byte	0
 3172              		.section	.debug_abbrev,"",%progbits
 3173              	.Ldebug_abbrev0:
 3174 0000 01       		.uleb128 0x1
 3175 0001 11       		.uleb128 0x11
 3176 0002 01       		.byte	0x1
 3177 0003 25       		.uleb128 0x25
 3178 0004 0E       		.uleb128 0xe
 3179 0005 13       		.uleb128 0x13
 3180 0006 0B       		.uleb128 0xb
 3181 0007 03       		.uleb128 0x3
 3182 0008 0E       		.uleb128 0xe
 3183 0009 1B       		.uleb128 0x1b
 3184 000a 0E       		.uleb128 0xe
 3185 000b 11       		.uleb128 0x11
 3186 000c 01       		.uleb128 0x1
 3187 000d 52       		.uleb128 0x52
 3188 000e 01       		.uleb128 0x1
 3189 000f 55       		.uleb128 0x55
 3190 0010 06       		.uleb128 0x6
 3191 0011 10       		.uleb128 0x10
 3192 0012 06       		.uleb128 0x6
 3193 0013 00       		.byte	0
 3194 0014 00       		.byte	0
 3195 0015 02       		.uleb128 0x2
 3196 0016 24       		.uleb128 0x24
 3197 0017 00       		.byte	0
 3198 0018 0B       		.uleb128 0xb
 3199 0019 0B       		.uleb128 0xb
 3200 001a 3E       		.uleb128 0x3e
 3201 001b 0B       		.uleb128 0xb
 3202 001c 03       		.uleb128 0x3
 3203 001d 08       		.uleb128 0x8
 3204 001e 00       		.byte	0
 3205 001f 00       		.byte	0
 3206 0020 03       		.uleb128 0x3
 3207 0021 24       		.uleb128 0x24
 3208 0022 00       		.byte	0
 3209 0023 0B       		.uleb128 0xb
 3210 0024 0B       		.uleb128 0xb
ARM GAS  /tmp/ccXG8rbk.s 			page 58


 3211 0025 3E       		.uleb128 0x3e
 3212 0026 0B       		.uleb128 0xb
 3213 0027 03       		.uleb128 0x3
 3214 0028 0E       		.uleb128 0xe
 3215 0029 00       		.byte	0
 3216 002a 00       		.byte	0
 3217 002b 04       		.uleb128 0x4
 3218 002c 16       		.uleb128 0x16
 3219 002d 00       		.byte	0
 3220 002e 03       		.uleb128 0x3
 3221 002f 0E       		.uleb128 0xe
 3222 0030 3A       		.uleb128 0x3a
 3223 0031 0B       		.uleb128 0xb
 3224 0032 3B       		.uleb128 0x3b
 3225 0033 0B       		.uleb128 0xb
 3226 0034 49       		.uleb128 0x49
 3227 0035 13       		.uleb128 0x13
 3228 0036 00       		.byte	0
 3229 0037 00       		.byte	0
 3230 0038 05       		.uleb128 0x5
 3231 0039 13       		.uleb128 0x13
 3232 003a 01       		.byte	0x1
 3233 003b 03       		.uleb128 0x3
 3234 003c 0E       		.uleb128 0xe
 3235 003d 0B       		.uleb128 0xb
 3236 003e 0B       		.uleb128 0xb
 3237 003f 3A       		.uleb128 0x3a
 3238 0040 0B       		.uleb128 0xb
 3239 0041 3B       		.uleb128 0x3b
 3240 0042 0B       		.uleb128 0xb
 3241 0043 01       		.uleb128 0x1
 3242 0044 13       		.uleb128 0x13
 3243 0045 00       		.byte	0
 3244 0046 00       		.byte	0
 3245 0047 06       		.uleb128 0x6
 3246 0048 0D       		.uleb128 0xd
 3247 0049 00       		.byte	0
 3248 004a 03       		.uleb128 0x3
 3249 004b 0E       		.uleb128 0xe
 3250 004c 3A       		.uleb128 0x3a
 3251 004d 0B       		.uleb128 0xb
 3252 004e 3B       		.uleb128 0x3b
 3253 004f 0B       		.uleb128 0xb
 3254 0050 49       		.uleb128 0x49
 3255 0051 13       		.uleb128 0x13
 3256 0052 38       		.uleb128 0x38
 3257 0053 0A       		.uleb128 0xa
 3258 0054 00       		.byte	0
 3259 0055 00       		.byte	0
 3260 0056 07       		.uleb128 0x7
 3261 0057 0D       		.uleb128 0xd
 3262 0058 00       		.byte	0
 3263 0059 03       		.uleb128 0x3
 3264 005a 08       		.uleb128 0x8
 3265 005b 3A       		.uleb128 0x3a
 3266 005c 0B       		.uleb128 0xb
 3267 005d 3B       		.uleb128 0x3b
ARM GAS  /tmp/ccXG8rbk.s 			page 59


 3268 005e 0B       		.uleb128 0xb
 3269 005f 49       		.uleb128 0x49
 3270 0060 13       		.uleb128 0x13
 3271 0061 38       		.uleb128 0x38
 3272 0062 0A       		.uleb128 0xa
 3273 0063 00       		.byte	0
 3274 0064 00       		.byte	0
 3275 0065 08       		.uleb128 0x8
 3276 0066 13       		.uleb128 0x13
 3277 0067 01       		.byte	0x1
 3278 0068 0B       		.uleb128 0xb
 3279 0069 0B       		.uleb128 0xb
 3280 006a 3A       		.uleb128 0x3a
 3281 006b 0B       		.uleb128 0xb
 3282 006c 3B       		.uleb128 0x3b
 3283 006d 0B       		.uleb128 0xb
 3284 006e 01       		.uleb128 0x1
 3285 006f 13       		.uleb128 0x13
 3286 0070 00       		.byte	0
 3287 0071 00       		.byte	0
 3288 0072 09       		.uleb128 0x9
 3289 0073 0F       		.uleb128 0xf
 3290 0074 00       		.byte	0
 3291 0075 0B       		.uleb128 0xb
 3292 0076 0B       		.uleb128 0xb
 3293 0077 49       		.uleb128 0x49
 3294 0078 13       		.uleb128 0x13
 3295 0079 00       		.byte	0
 3296 007a 00       		.byte	0
 3297 007b 0A       		.uleb128 0xa
 3298 007c 0F       		.uleb128 0xf
 3299 007d 00       		.byte	0
 3300 007e 0B       		.uleb128 0xb
 3301 007f 0B       		.uleb128 0xb
 3302 0080 00       		.byte	0
 3303 0081 00       		.byte	0
 3304 0082 0B       		.uleb128 0xb
 3305 0083 13       		.uleb128 0x13
 3306 0084 01       		.byte	0x1
 3307 0085 03       		.uleb128 0x3
 3308 0086 0E       		.uleb128 0xe
 3309 0087 0B       		.uleb128 0xb
 3310 0088 0B       		.uleb128 0xb
 3311 0089 3A       		.uleb128 0x3a
 3312 008a 0B       		.uleb128 0xb
 3313 008b 3B       		.uleb128 0x3b
 3314 008c 05       		.uleb128 0x5
 3315 008d 01       		.uleb128 0x1
 3316 008e 13       		.uleb128 0x13
 3317 008f 00       		.byte	0
 3318 0090 00       		.byte	0
 3319 0091 0C       		.uleb128 0xc
 3320 0092 0D       		.uleb128 0xd
 3321 0093 00       		.byte	0
 3322 0094 03       		.uleb128 0x3
 3323 0095 08       		.uleb128 0x8
 3324 0096 3A       		.uleb128 0x3a
ARM GAS  /tmp/ccXG8rbk.s 			page 60


 3325 0097 0B       		.uleb128 0xb
 3326 0098 3B       		.uleb128 0x3b
 3327 0099 05       		.uleb128 0x5
 3328 009a 49       		.uleb128 0x49
 3329 009b 13       		.uleb128 0x13
 3330 009c 38       		.uleb128 0x38
 3331 009d 0A       		.uleb128 0xa
 3332 009e 00       		.byte	0
 3333 009f 00       		.byte	0
 3334 00a0 0D       		.uleb128 0xd
 3335 00a1 35       		.uleb128 0x35
 3336 00a2 00       		.byte	0
 3337 00a3 49       		.uleb128 0x49
 3338 00a4 13       		.uleb128 0x13
 3339 00a5 00       		.byte	0
 3340 00a6 00       		.byte	0
 3341 00a7 0E       		.uleb128 0xe
 3342 00a8 15       		.uleb128 0x15
 3343 00a9 01       		.byte	0x1
 3344 00aa 27       		.uleb128 0x27
 3345 00ab 0C       		.uleb128 0xc
 3346 00ac 01       		.uleb128 0x1
 3347 00ad 13       		.uleb128 0x13
 3348 00ae 00       		.byte	0
 3349 00af 00       		.byte	0
 3350 00b0 0F       		.uleb128 0xf
 3351 00b1 05       		.uleb128 0x5
 3352 00b2 00       		.byte	0
 3353 00b3 49       		.uleb128 0x49
 3354 00b4 13       		.uleb128 0x13
 3355 00b5 00       		.byte	0
 3356 00b6 00       		.byte	0
 3357 00b7 10       		.uleb128 0x10
 3358 00b8 17       		.uleb128 0x17
 3359 00b9 01       		.byte	0x1
 3360 00ba 0B       		.uleb128 0xb
 3361 00bb 0B       		.uleb128 0xb
 3362 00bc 3A       		.uleb128 0x3a
 3363 00bd 0B       		.uleb128 0xb
 3364 00be 3B       		.uleb128 0x3b
 3365 00bf 0B       		.uleb128 0xb
 3366 00c0 01       		.uleb128 0x1
 3367 00c1 13       		.uleb128 0x13
 3368 00c2 00       		.byte	0
 3369 00c3 00       		.byte	0
 3370 00c4 11       		.uleb128 0x11
 3371 00c5 0D       		.uleb128 0xd
 3372 00c6 00       		.byte	0
 3373 00c7 03       		.uleb128 0x3
 3374 00c8 0E       		.uleb128 0xe
 3375 00c9 3A       		.uleb128 0x3a
 3376 00ca 0B       		.uleb128 0xb
 3377 00cb 3B       		.uleb128 0x3b
 3378 00cc 0B       		.uleb128 0xb
 3379 00cd 49       		.uleb128 0x49
 3380 00ce 13       		.uleb128 0x13
 3381 00cf 00       		.byte	0
ARM GAS  /tmp/ccXG8rbk.s 			page 61


 3382 00d0 00       		.byte	0
 3383 00d1 12       		.uleb128 0x12
 3384 00d2 26       		.uleb128 0x26
 3385 00d3 00       		.byte	0
 3386 00d4 49       		.uleb128 0x49
 3387 00d5 13       		.uleb128 0x13
 3388 00d6 00       		.byte	0
 3389 00d7 00       		.byte	0
 3390 00d8 13       		.uleb128 0x13
 3391 00d9 2E       		.uleb128 0x2e
 3392 00da 01       		.byte	0x1
 3393 00db 3F       		.uleb128 0x3f
 3394 00dc 0C       		.uleb128 0xc
 3395 00dd 03       		.uleb128 0x3
 3396 00de 0E       		.uleb128 0xe
 3397 00df 3A       		.uleb128 0x3a
 3398 00e0 0B       		.uleb128 0xb
 3399 00e1 3B       		.uleb128 0x3b
 3400 00e2 0B       		.uleb128 0xb
 3401 00e3 27       		.uleb128 0x27
 3402 00e4 0C       		.uleb128 0xc
 3403 00e5 20       		.uleb128 0x20
 3404 00e6 0B       		.uleb128 0xb
 3405 00e7 01       		.uleb128 0x1
 3406 00e8 13       		.uleb128 0x13
 3407 00e9 00       		.byte	0
 3408 00ea 00       		.byte	0
 3409 00eb 14       		.uleb128 0x14
 3410 00ec 05       		.uleb128 0x5
 3411 00ed 00       		.byte	0
 3412 00ee 03       		.uleb128 0x3
 3413 00ef 08       		.uleb128 0x8
 3414 00f0 3A       		.uleb128 0x3a
 3415 00f1 0B       		.uleb128 0xb
 3416 00f2 3B       		.uleb128 0x3b
 3417 00f3 0B       		.uleb128 0xb
 3418 00f4 49       		.uleb128 0x49
 3419 00f5 13       		.uleb128 0x13
 3420 00f6 00       		.byte	0
 3421 00f7 00       		.byte	0
 3422 00f8 15       		.uleb128 0x15
 3423 00f9 05       		.uleb128 0x5
 3424 00fa 00       		.byte	0
 3425 00fb 03       		.uleb128 0x3
 3426 00fc 0E       		.uleb128 0xe
 3427 00fd 3A       		.uleb128 0x3a
 3428 00fe 0B       		.uleb128 0xb
 3429 00ff 3B       		.uleb128 0x3b
 3430 0100 0B       		.uleb128 0xb
 3431 0101 49       		.uleb128 0x49
 3432 0102 13       		.uleb128 0x13
 3433 0103 00       		.byte	0
 3434 0104 00       		.byte	0
 3435 0105 16       		.uleb128 0x16
 3436 0106 2E       		.uleb128 0x2e
 3437 0107 01       		.byte	0x1
 3438 0108 3F       		.uleb128 0x3f
ARM GAS  /tmp/ccXG8rbk.s 			page 62


 3439 0109 0C       		.uleb128 0xc
 3440 010a 03       		.uleb128 0x3
 3441 010b 0E       		.uleb128 0xe
 3442 010c 3A       		.uleb128 0x3a
 3443 010d 0B       		.uleb128 0xb
 3444 010e 3B       		.uleb128 0x3b
 3445 010f 0B       		.uleb128 0xb
 3446 0110 27       		.uleb128 0x27
 3447 0111 0C       		.uleb128 0xc
 3448 0112 11       		.uleb128 0x11
 3449 0113 01       		.uleb128 0x1
 3450 0114 12       		.uleb128 0x12
 3451 0115 01       		.uleb128 0x1
 3452 0116 40       		.uleb128 0x40
 3453 0117 06       		.uleb128 0x6
 3454 0118 01       		.uleb128 0x1
 3455 0119 13       		.uleb128 0x13
 3456 011a 00       		.byte	0
 3457 011b 00       		.byte	0
 3458 011c 17       		.uleb128 0x17
 3459 011d 05       		.uleb128 0x5
 3460 011e 00       		.byte	0
 3461 011f 03       		.uleb128 0x3
 3462 0120 08       		.uleb128 0x8
 3463 0121 3A       		.uleb128 0x3a
 3464 0122 0B       		.uleb128 0xb
 3465 0123 3B       		.uleb128 0x3b
 3466 0124 0B       		.uleb128 0xb
 3467 0125 49       		.uleb128 0x49
 3468 0126 13       		.uleb128 0x13
 3469 0127 02       		.uleb128 0x2
 3470 0128 06       		.uleb128 0x6
 3471 0129 00       		.byte	0
 3472 012a 00       		.byte	0
 3473 012b 18       		.uleb128 0x18
 3474 012c 05       		.uleb128 0x5
 3475 012d 00       		.byte	0
 3476 012e 03       		.uleb128 0x3
 3477 012f 0E       		.uleb128 0xe
 3478 0130 3A       		.uleb128 0x3a
 3479 0131 0B       		.uleb128 0xb
 3480 0132 3B       		.uleb128 0x3b
 3481 0133 0B       		.uleb128 0xb
 3482 0134 49       		.uleb128 0x49
 3483 0135 13       		.uleb128 0x13
 3484 0136 02       		.uleb128 0x2
 3485 0137 06       		.uleb128 0x6
 3486 0138 00       		.byte	0
 3487 0139 00       		.byte	0
 3488 013a 19       		.uleb128 0x19
 3489 013b 0B       		.uleb128 0xb
 3490 013c 01       		.byte	0x1
 3491 013d 11       		.uleb128 0x11
 3492 013e 01       		.uleb128 0x1
 3493 013f 12       		.uleb128 0x12
 3494 0140 01       		.uleb128 0x1
 3495 0141 01       		.uleb128 0x1
ARM GAS  /tmp/ccXG8rbk.s 			page 63


 3496 0142 13       		.uleb128 0x13
 3497 0143 00       		.byte	0
 3498 0144 00       		.byte	0
 3499 0145 1A       		.uleb128 0x1a
 3500 0146 34       		.uleb128 0x34
 3501 0147 00       		.byte	0
 3502 0148 03       		.uleb128 0x3
 3503 0149 08       		.uleb128 0x8
 3504 014a 3A       		.uleb128 0x3a
 3505 014b 0B       		.uleb128 0xb
 3506 014c 3B       		.uleb128 0x3b
 3507 014d 0B       		.uleb128 0xb
 3508 014e 49       		.uleb128 0x49
 3509 014f 13       		.uleb128 0x13
 3510 0150 02       		.uleb128 0x2
 3511 0151 06       		.uleb128 0x6
 3512 0152 00       		.byte	0
 3513 0153 00       		.byte	0
 3514 0154 1B       		.uleb128 0x1b
 3515 0155 0B       		.uleb128 0xb
 3516 0156 01       		.byte	0x1
 3517 0157 11       		.uleb128 0x11
 3518 0158 01       		.uleb128 0x1
 3519 0159 12       		.uleb128 0x12
 3520 015a 01       		.uleb128 0x1
 3521 015b 00       		.byte	0
 3522 015c 00       		.byte	0
 3523 015d 1C       		.uleb128 0x1c
 3524 015e 0B       		.uleb128 0xb
 3525 015f 01       		.byte	0x1
 3526 0160 55       		.uleb128 0x55
 3527 0161 06       		.uleb128 0x6
 3528 0162 00       		.byte	0
 3529 0163 00       		.byte	0
 3530 0164 1D       		.uleb128 0x1d
 3531 0165 2E       		.uleb128 0x2e
 3532 0166 01       		.byte	0x1
 3533 0167 3F       		.uleb128 0x3f
 3534 0168 0C       		.uleb128 0xc
 3535 0169 03       		.uleb128 0x3
 3536 016a 0E       		.uleb128 0xe
 3537 016b 3A       		.uleb128 0x3a
 3538 016c 0B       		.uleb128 0xb
 3539 016d 3B       		.uleb128 0x3b
 3540 016e 0B       		.uleb128 0xb
 3541 016f 27       		.uleb128 0x27
 3542 0170 0C       		.uleb128 0xc
 3543 0171 49       		.uleb128 0x49
 3544 0172 13       		.uleb128 0x13
 3545 0173 11       		.uleb128 0x11
 3546 0174 01       		.uleb128 0x1
 3547 0175 12       		.uleb128 0x12
 3548 0176 01       		.uleb128 0x1
 3549 0177 40       		.uleb128 0x40
 3550 0178 06       		.uleb128 0x6
 3551 0179 01       		.uleb128 0x1
 3552 017a 13       		.uleb128 0x13
ARM GAS  /tmp/ccXG8rbk.s 			page 64


 3553 017b 00       		.byte	0
 3554 017c 00       		.byte	0
 3555 017d 1E       		.uleb128 0x1e
 3556 017e 34       		.uleb128 0x34
 3557 017f 00       		.byte	0
 3558 0180 03       		.uleb128 0x3
 3559 0181 08       		.uleb128 0x8
 3560 0182 3A       		.uleb128 0x3a
 3561 0183 0B       		.uleb128 0xb
 3562 0184 3B       		.uleb128 0x3b
 3563 0185 0B       		.uleb128 0xb
 3564 0186 49       		.uleb128 0x49
 3565 0187 13       		.uleb128 0x13
 3566 0188 02       		.uleb128 0x2
 3567 0189 0A       		.uleb128 0xa
 3568 018a 00       		.byte	0
 3569 018b 00       		.byte	0
 3570 018c 1F       		.uleb128 0x1f
 3571 018d 0B       		.uleb128 0xb
 3572 018e 01       		.byte	0x1
 3573 018f 55       		.uleb128 0x55
 3574 0190 06       		.uleb128 0x6
 3575 0191 01       		.uleb128 0x1
 3576 0192 13       		.uleb128 0x13
 3577 0193 00       		.byte	0
 3578 0194 00       		.byte	0
 3579 0195 20       		.uleb128 0x20
 3580 0196 1D       		.uleb128 0x1d
 3581 0197 01       		.byte	0x1
 3582 0198 31       		.uleb128 0x31
 3583 0199 13       		.uleb128 0x13
 3584 019a 52       		.uleb128 0x52
 3585 019b 01       		.uleb128 0x1
 3586 019c 55       		.uleb128 0x55
 3587 019d 06       		.uleb128 0x6
 3588 019e 58       		.uleb128 0x58
 3589 019f 0B       		.uleb128 0xb
 3590 01a0 59       		.uleb128 0x59
 3591 01a1 0B       		.uleb128 0xb
 3592 01a2 00       		.byte	0
 3593 01a3 00       		.byte	0
 3594 01a4 21       		.uleb128 0x21
 3595 01a5 05       		.uleb128 0x5
 3596 01a6 00       		.byte	0
 3597 01a7 31       		.uleb128 0x31
 3598 01a8 13       		.uleb128 0x13
 3599 01a9 02       		.uleb128 0x2
 3600 01aa 06       		.uleb128 0x6
 3601 01ab 00       		.byte	0
 3602 01ac 00       		.byte	0
 3603 01ad 22       		.uleb128 0x22
 3604 01ae 05       		.uleb128 0x5
 3605 01af 00       		.byte	0
 3606 01b0 31       		.uleb128 0x31
 3607 01b1 13       		.uleb128 0x13
 3608 01b2 00       		.byte	0
 3609 01b3 00       		.byte	0
ARM GAS  /tmp/ccXG8rbk.s 			page 65


 3610 01b4 23       		.uleb128 0x23
 3611 01b5 34       		.uleb128 0x34
 3612 01b6 00       		.byte	0
 3613 01b7 03       		.uleb128 0x3
 3614 01b8 0E       		.uleb128 0xe
 3615 01b9 3A       		.uleb128 0x3a
 3616 01ba 0B       		.uleb128 0xb
 3617 01bb 3B       		.uleb128 0x3b
 3618 01bc 0B       		.uleb128 0xb
 3619 01bd 49       		.uleb128 0x49
 3620 01be 13       		.uleb128 0x13
 3621 01bf 02       		.uleb128 0x2
 3622 01c0 06       		.uleb128 0x6
 3623 01c1 00       		.byte	0
 3624 01c2 00       		.byte	0
 3625 01c3 24       		.uleb128 0x24
 3626 01c4 1D       		.uleb128 0x1d
 3627 01c5 01       		.byte	0x1
 3628 01c6 31       		.uleb128 0x31
 3629 01c7 13       		.uleb128 0x13
 3630 01c8 52       		.uleb128 0x52
 3631 01c9 01       		.uleb128 0x1
 3632 01ca 55       		.uleb128 0x55
 3633 01cb 06       		.uleb128 0x6
 3634 01cc 58       		.uleb128 0x58
 3635 01cd 0B       		.uleb128 0xb
 3636 01ce 59       		.uleb128 0x59
 3637 01cf 0B       		.uleb128 0xb
 3638 01d0 01       		.uleb128 0x1
 3639 01d1 13       		.uleb128 0x13
 3640 01d2 00       		.byte	0
 3641 01d3 00       		.byte	0
 3642 01d4 25       		.uleb128 0x25
 3643 01d5 2E       		.uleb128 0x2e
 3644 01d6 01       		.byte	0x1
 3645 01d7 31       		.uleb128 0x31
 3646 01d8 13       		.uleb128 0x13
 3647 01d9 11       		.uleb128 0x11
 3648 01da 01       		.uleb128 0x1
 3649 01db 12       		.uleb128 0x12
 3650 01dc 01       		.uleb128 0x1
 3651 01dd 40       		.uleb128 0x40
 3652 01de 06       		.uleb128 0x6
 3653 01df 01       		.uleb128 0x1
 3654 01e0 13       		.uleb128 0x13
 3655 01e1 00       		.byte	0
 3656 01e2 00       		.byte	0
 3657 01e3 26       		.uleb128 0x26
 3658 01e4 1D       		.uleb128 0x1d
 3659 01e5 01       		.byte	0x1
 3660 01e6 31       		.uleb128 0x31
 3661 01e7 13       		.uleb128 0x13
 3662 01e8 11       		.uleb128 0x11
 3663 01e9 01       		.uleb128 0x1
 3664 01ea 12       		.uleb128 0x12
 3665 01eb 01       		.uleb128 0x1
 3666 01ec 58       		.uleb128 0x58
ARM GAS  /tmp/ccXG8rbk.s 			page 66


 3667 01ed 0B       		.uleb128 0xb
 3668 01ee 59       		.uleb128 0x59
 3669 01ef 0B       		.uleb128 0xb
 3670 01f0 00       		.byte	0
 3671 01f1 00       		.byte	0
 3672 01f2 27       		.uleb128 0x27
 3673 01f3 2E       		.uleb128 0x2e
 3674 01f4 01       		.byte	0x1
 3675 01f5 3F       		.uleb128 0x3f
 3676 01f6 0C       		.uleb128 0xc
 3677 01f7 03       		.uleb128 0x3
 3678 01f8 0E       		.uleb128 0xe
 3679 01f9 3A       		.uleb128 0x3a
 3680 01fa 0B       		.uleb128 0xb
 3681 01fb 3B       		.uleb128 0x3b
 3682 01fc 05       		.uleb128 0x5
 3683 01fd 27       		.uleb128 0x27
 3684 01fe 0C       		.uleb128 0xc
 3685 01ff 11       		.uleb128 0x11
 3686 0200 01       		.uleb128 0x1
 3687 0201 12       		.uleb128 0x12
 3688 0202 01       		.uleb128 0x1
 3689 0203 40       		.uleb128 0x40
 3690 0204 06       		.uleb128 0x6
 3691 0205 01       		.uleb128 0x1
 3692 0206 13       		.uleb128 0x13
 3693 0207 00       		.byte	0
 3694 0208 00       		.byte	0
 3695 0209 28       		.uleb128 0x28
 3696 020a 05       		.uleb128 0x5
 3697 020b 00       		.byte	0
 3698 020c 03       		.uleb128 0x3
 3699 020d 08       		.uleb128 0x8
 3700 020e 3A       		.uleb128 0x3a
 3701 020f 0B       		.uleb128 0xb
 3702 0210 3B       		.uleb128 0x3b
 3703 0211 05       		.uleb128 0x5
 3704 0212 49       		.uleb128 0x49
 3705 0213 13       		.uleb128 0x13
 3706 0214 02       		.uleb128 0x2
 3707 0215 06       		.uleb128 0x6
 3708 0216 00       		.byte	0
 3709 0217 00       		.byte	0
 3710 0218 29       		.uleb128 0x29
 3711 0219 05       		.uleb128 0x5
 3712 021a 00       		.byte	0
 3713 021b 03       		.uleb128 0x3
 3714 021c 0E       		.uleb128 0xe
 3715 021d 3A       		.uleb128 0x3a
 3716 021e 0B       		.uleb128 0xb
 3717 021f 3B       		.uleb128 0x3b
 3718 0220 05       		.uleb128 0x5
 3719 0221 49       		.uleb128 0x49
 3720 0222 13       		.uleb128 0x13
 3721 0223 02       		.uleb128 0x2
 3722 0224 06       		.uleb128 0x6
 3723 0225 00       		.byte	0
ARM GAS  /tmp/ccXG8rbk.s 			page 67


 3724 0226 00       		.byte	0
 3725 0227 2A       		.uleb128 0x2a
 3726 0228 34       		.uleb128 0x34
 3727 0229 00       		.byte	0
 3728 022a 03       		.uleb128 0x3
 3729 022b 08       		.uleb128 0x8
 3730 022c 3A       		.uleb128 0x3a
 3731 022d 0B       		.uleb128 0xb
 3732 022e 3B       		.uleb128 0x3b
 3733 022f 05       		.uleb128 0x5
 3734 0230 49       		.uleb128 0x49
 3735 0231 13       		.uleb128 0x13
 3736 0232 02       		.uleb128 0x2
 3737 0233 06       		.uleb128 0x6
 3738 0234 00       		.byte	0
 3739 0235 00       		.byte	0
 3740 0236 2B       		.uleb128 0x2b
 3741 0237 2E       		.uleb128 0x2e
 3742 0238 01       		.byte	0x1
 3743 0239 3F       		.uleb128 0x3f
 3744 023a 0C       		.uleb128 0xc
 3745 023b 03       		.uleb128 0x3
 3746 023c 0E       		.uleb128 0xe
 3747 023d 3A       		.uleb128 0x3a
 3748 023e 0B       		.uleb128 0xb
 3749 023f 3B       		.uleb128 0x3b
 3750 0240 05       		.uleb128 0x5
 3751 0241 27       		.uleb128 0x27
 3752 0242 0C       		.uleb128 0xc
 3753 0243 49       		.uleb128 0x49
 3754 0244 13       		.uleb128 0x13
 3755 0245 11       		.uleb128 0x11
 3756 0246 01       		.uleb128 0x1
 3757 0247 12       		.uleb128 0x12
 3758 0248 01       		.uleb128 0x1
 3759 0249 40       		.uleb128 0x40
 3760 024a 0A       		.uleb128 0xa
 3761 024b 01       		.uleb128 0x1
 3762 024c 13       		.uleb128 0x13
 3763 024d 00       		.byte	0
 3764 024e 00       		.byte	0
 3765 024f 2C       		.uleb128 0x2c
 3766 0250 34       		.uleb128 0x34
 3767 0251 00       		.byte	0
 3768 0252 03       		.uleb128 0x3
 3769 0253 0E       		.uleb128 0xe
 3770 0254 3A       		.uleb128 0x3a
 3771 0255 0B       		.uleb128 0xb
 3772 0256 3B       		.uleb128 0x3b
 3773 0257 05       		.uleb128 0x5
 3774 0258 49       		.uleb128 0x49
 3775 0259 13       		.uleb128 0x13
 3776 025a 02       		.uleb128 0x2
 3777 025b 0A       		.uleb128 0xa
 3778 025c 00       		.byte	0
 3779 025d 00       		.byte	0
 3780 025e 2D       		.uleb128 0x2d
ARM GAS  /tmp/ccXG8rbk.s 			page 68


 3781 025f 2E       		.uleb128 0x2e
 3782 0260 01       		.byte	0x1
 3783 0261 3F       		.uleb128 0x3f
 3784 0262 0C       		.uleb128 0xc
 3785 0263 03       		.uleb128 0x3
 3786 0264 0E       		.uleb128 0xe
 3787 0265 3A       		.uleb128 0x3a
 3788 0266 0B       		.uleb128 0xb
 3789 0267 3B       		.uleb128 0x3b
 3790 0268 05       		.uleb128 0x5
 3791 0269 27       		.uleb128 0x27
 3792 026a 0C       		.uleb128 0xc
 3793 026b 49       		.uleb128 0x49
 3794 026c 13       		.uleb128 0x13
 3795 026d 11       		.uleb128 0x11
 3796 026e 01       		.uleb128 0x1
 3797 026f 12       		.uleb128 0x12
 3798 0270 01       		.uleb128 0x1
 3799 0271 40       		.uleb128 0x40
 3800 0272 06       		.uleb128 0x6
 3801 0273 01       		.uleb128 0x1
 3802 0274 13       		.uleb128 0x13
 3803 0275 00       		.byte	0
 3804 0276 00       		.byte	0
 3805 0277 2E       		.uleb128 0x2e
 3806 0278 34       		.uleb128 0x34
 3807 0279 00       		.byte	0
 3808 027a 03       		.uleb128 0x3
 3809 027b 0E       		.uleb128 0xe
 3810 027c 3A       		.uleb128 0x3a
 3811 027d 0B       		.uleb128 0xb
 3812 027e 3B       		.uleb128 0x3b
 3813 027f 0B       		.uleb128 0xb
 3814 0280 49       		.uleb128 0x49
 3815 0281 13       		.uleb128 0x13
 3816 0282 3F       		.uleb128 0x3f
 3817 0283 0C       		.uleb128 0xc
 3818 0284 3C       		.uleb128 0x3c
 3819 0285 0C       		.uleb128 0xc
 3820 0286 00       		.byte	0
 3821 0287 00       		.byte	0
 3822 0288 00       		.byte	0
 3823              		.section	.debug_loc,"",%progbits
 3824              	.Ldebug_loc0:
 3825              	.LLST0:
 3826 0000 00000000 		.4byte	.LFB7
 3827 0004 02000000 		.4byte	.LCFI0
 3828 0008 0200     		.2byte	0x2
 3829 000a 7D       		.byte	0x7d
 3830 000b 00       		.sleb128 0
 3831 000c 02000000 		.4byte	.LCFI0
 3832 0010 44000000 		.4byte	.LFE7
 3833 0014 0200     		.2byte	0x2
 3834 0016 7D       		.byte	0x7d
 3835 0017 18       		.sleb128 24
 3836 0018 00000000 		.4byte	0
 3837 001c 00000000 		.4byte	0
ARM GAS  /tmp/ccXG8rbk.s 			page 69


 3838              	.LLST1:
 3839 0020 00000000 		.4byte	.LVL0
 3840 0024 0C000000 		.4byte	.LVL1
 3841 0028 0100     		.2byte	0x1
 3842 002a 50       		.byte	0x50
 3843 002b 0C000000 		.4byte	.LVL1
 3844 002f 44000000 		.4byte	.LFE7
 3845 0033 0100     		.2byte	0x1
 3846 0035 54       		.byte	0x54
 3847 0036 00000000 		.4byte	0
 3848 003a 00000000 		.4byte	0
 3849              	.LLST2:
 3850 003e 00000000 		.4byte	.LVL0
 3851 0042 0C000000 		.4byte	.LVL1
 3852 0046 0100     		.2byte	0x1
 3853 0048 51       		.byte	0x51
 3854 0049 0C000000 		.4byte	.LVL1
 3855 004d 44000000 		.4byte	.LFE7
 3856 0051 0100     		.2byte	0x1
 3857 0053 55       		.byte	0x55
 3858 0054 00000000 		.4byte	0
 3859 0058 00000000 		.4byte	0
 3860              	.LLST3:
 3861 005c 00000000 		.4byte	.LVL0
 3862 0060 0C000000 		.4byte	.LVL1
 3863 0064 0100     		.2byte	0x1
 3864 0066 52       		.byte	0x52
 3865 0067 0C000000 		.4byte	.LVL1
 3866 006b 44000000 		.4byte	.LFE7
 3867 006f 0100     		.2byte	0x1
 3868 0071 56       		.byte	0x56
 3869 0072 00000000 		.4byte	0
 3870 0076 00000000 		.4byte	0
 3871              	.LLST4:
 3872 007a 12000000 		.4byte	.LVL3
 3873 007e 15000000 		.4byte	.LVL4-1
 3874 0082 0100     		.2byte	0x1
 3875 0084 53       		.byte	0x53
 3876 0085 00000000 		.4byte	0
 3877 0089 00000000 		.4byte	0
 3878              	.LLST5:
 3879 008d 32000000 		.4byte	.LVL6
 3880 0091 34000000 		.4byte	.LVL7
 3881 0095 0100     		.2byte	0x1
 3882 0097 53       		.byte	0x53
 3883 0098 00000000 		.4byte	0
 3884 009c 00000000 		.4byte	0
 3885              	.LLST6:
 3886 00a0 00000000 		.4byte	.LFB8
 3887 00a4 02000000 		.4byte	.LCFI1
 3888 00a8 0200     		.2byte	0x2
 3889 00aa 7D       		.byte	0x7d
 3890 00ab 00       		.sleb128 0
 3891 00ac 02000000 		.4byte	.LCFI1
 3892 00b0 4C000000 		.4byte	.LFE8
 3893 00b4 0200     		.2byte	0x2
 3894 00b6 7D       		.byte	0x7d
ARM GAS  /tmp/ccXG8rbk.s 			page 70


 3895 00b7 10       		.sleb128 16
 3896 00b8 00000000 		.4byte	0
 3897 00bc 00000000 		.4byte	0
 3898              	.LLST7:
 3899 00c0 00000000 		.4byte	.LVL8
 3900 00c4 0A000000 		.4byte	.LVL9
 3901 00c8 0100     		.2byte	0x1
 3902 00ca 50       		.byte	0x50
 3903 00cb 0A000000 		.4byte	.LVL9
 3904 00cf 4C000000 		.4byte	.LFE8
 3905 00d3 0100     		.2byte	0x1
 3906 00d5 54       		.byte	0x54
 3907 00d6 00000000 		.4byte	0
 3908 00da 00000000 		.4byte	0
 3909              	.LLST8:
 3910 00de 00000000 		.4byte	.LVL8
 3911 00e2 0A000000 		.4byte	.LVL9
 3912 00e6 0100     		.2byte	0x1
 3913 00e8 51       		.byte	0x51
 3914 00e9 0A000000 		.4byte	.LVL9
 3915 00ed 4C000000 		.4byte	.LFE8
 3916 00f1 0100     		.2byte	0x1
 3917 00f3 55       		.byte	0x55
 3918 00f4 00000000 		.4byte	0
 3919 00f8 00000000 		.4byte	0
 3920              	.LLST9:
 3921 00fc 0A000000 		.4byte	.LVL9
 3922 0100 18000000 		.4byte	.LVL13
 3923 0104 0100     		.2byte	0x1
 3924 0106 54       		.byte	0x54
 3925 0107 18000000 		.4byte	.LVL13
 3926 010b 27000000 		.4byte	.LVL15-1
 3927 010f 0100     		.2byte	0x1
 3928 0111 52       		.byte	0x52
 3929 0112 30000000 		.4byte	.LVL18
 3930 0116 37000000 		.4byte	.LVL19-1
 3931 011a 0100     		.2byte	0x1
 3932 011c 52       		.byte	0x52
 3933 011d 00000000 		.4byte	0
 3934 0121 00000000 		.4byte	0
 3935              	.LLST10:
 3936 0125 10000000 		.4byte	.LVL11
 3937 0129 13000000 		.4byte	.LVL12-1
 3938 012d 0100     		.2byte	0x1
 3939 012f 53       		.byte	0x53
 3940 0130 00000000 		.4byte	0
 3941 0134 00000000 		.4byte	0
 3942              	.LLST11:
 3943 0138 2E000000 		.4byte	.LVL17
 3944 013c 30000000 		.4byte	.LVL18
 3945 0140 0100     		.2byte	0x1
 3946 0142 53       		.byte	0x53
 3947 0143 3E000000 		.4byte	.LVL20
 3948 0147 40000000 		.4byte	.LVL21
 3949 014b 0100     		.2byte	0x1
 3950 014d 53       		.byte	0x53
 3951 014e 00000000 		.4byte	0
ARM GAS  /tmp/ccXG8rbk.s 			page 71


 3952 0152 00000000 		.4byte	0
 3953              	.LLST12:
 3954 0156 00000000 		.4byte	.LFB9
 3955 015a 02000000 		.4byte	.LCFI2
 3956 015e 0200     		.2byte	0x2
 3957 0160 7D       		.byte	0x7d
 3958 0161 00       		.sleb128 0
 3959 0162 02000000 		.4byte	.LCFI2
 3960 0166 30000000 		.4byte	.LFE9
 3961 016a 0200     		.2byte	0x2
 3962 016c 7D       		.byte	0x7d
 3963 016d 08       		.sleb128 8
 3964 016e 00000000 		.4byte	0
 3965 0172 00000000 		.4byte	0
 3966              	.LLST13:
 3967 0176 00000000 		.4byte	.LVL22
 3968 017a 0D000000 		.4byte	.LVL25-1
 3969 017e 0100     		.2byte	0x1
 3970 0180 50       		.byte	0x50
 3971 0181 0D000000 		.4byte	.LVL25-1
 3972 0185 22000000 		.4byte	.LVL26
 3973 0189 0100     		.2byte	0x1
 3974 018b 54       		.byte	0x54
 3975 018c 00000000 		.4byte	0
 3976 0190 00000000 		.4byte	0
 3977              	.LLST14:
 3978 0194 0A000000 		.4byte	.LVL24
 3979 0198 0D000000 		.4byte	.LVL25-1
 3980 019c 0100     		.2byte	0x1
 3981 019e 53       		.byte	0x53
 3982 019f 00000000 		.4byte	0
 3983 01a3 00000000 		.4byte	0
 3984              	.LLST15:
 3985 01a7 2C000000 		.4byte	.LVL28
 3986 01ab 30000000 		.4byte	.LFE9
 3987 01af 0100     		.2byte	0x1
 3988 01b1 53       		.byte	0x53
 3989 01b2 00000000 		.4byte	0
 3990 01b6 00000000 		.4byte	0
 3991              	.LLST16:
 3992 01ba 00000000 		.4byte	.LFB10
 3993 01be 02000000 		.4byte	.LCFI3
 3994 01c2 0200     		.2byte	0x2
 3995 01c4 7D       		.byte	0x7d
 3996 01c5 00       		.sleb128 0
 3997 01c6 02000000 		.4byte	.LCFI3
 3998 01ca 2C000000 		.4byte	.LFE10
 3999 01ce 0200     		.2byte	0x2
 4000 01d0 7D       		.byte	0x7d
 4001 01d1 08       		.sleb128 8
 4002 01d2 00000000 		.4byte	0
 4003 01d6 00000000 		.4byte	0
 4004              	.LLST17:
 4005 01da 00000000 		.4byte	.LVL29
 4006 01de 0D000000 		.4byte	.LVL32-1
 4007 01e2 0100     		.2byte	0x1
 4008 01e4 50       		.byte	0x50
ARM GAS  /tmp/ccXG8rbk.s 			page 72


 4009 01e5 0D000000 		.4byte	.LVL32-1
 4010 01e9 1C000000 		.4byte	.LVL33
 4011 01ed 0100     		.2byte	0x1
 4012 01ef 54       		.byte	0x54
 4013 01f0 1E000000 		.4byte	.LVL34
 4014 01f4 2C000000 		.4byte	.LFE10
 4015 01f8 0100     		.2byte	0x1
 4016 01fa 54       		.byte	0x54
 4017 01fb 00000000 		.4byte	0
 4018 01ff 00000000 		.4byte	0
 4019              	.LLST18:
 4020 0203 0A000000 		.4byte	.LVL31
 4021 0207 0D000000 		.4byte	.LVL32-1
 4022 020b 0100     		.2byte	0x1
 4023 020d 53       		.byte	0x53
 4024 020e 00000000 		.4byte	0
 4025 0212 00000000 		.4byte	0
 4026              	.LLST19:
 4027 0216 28000000 		.4byte	.LVL36
 4028 021a 2C000000 		.4byte	.LFE10
 4029 021e 0100     		.2byte	0x1
 4030 0220 53       		.byte	0x53
 4031 0221 00000000 		.4byte	0
 4032 0225 00000000 		.4byte	0
 4033              	.LLST20:
 4034 0229 00000000 		.4byte	.LFB11
 4035 022d 04000000 		.4byte	.LCFI4
 4036 0231 0200     		.2byte	0x2
 4037 0233 7D       		.byte	0x7d
 4038 0234 00       		.sleb128 0
 4039 0235 04000000 		.4byte	.LCFI4
 4040 0239 8C000000 		.4byte	.LFE11
 4041 023d 0200     		.2byte	0x2
 4042 023f 7D       		.byte	0x7d
 4043 0240 20       		.sleb128 32
 4044 0241 00000000 		.4byte	0
 4045 0245 00000000 		.4byte	0
 4046              	.LLST21:
 4047 0249 00000000 		.4byte	.LVL37
 4048 024d 0B000000 		.4byte	.LVL38-1
 4049 0251 0100     		.2byte	0x1
 4050 0253 50       		.byte	0x50
 4051 0254 0B000000 		.4byte	.LVL38-1
 4052 0258 8C000000 		.4byte	.LFE11
 4053 025c 0100     		.2byte	0x1
 4054 025e 54       		.byte	0x54
 4055 025f 00000000 		.4byte	0
 4056 0263 00000000 		.4byte	0
 4057              	.LLST22:
 4058 0267 00000000 		.4byte	.LVL37
 4059 026b 0B000000 		.4byte	.LVL38-1
 4060 026f 0100     		.2byte	0x1
 4061 0271 51       		.byte	0x51
 4062 0272 0B000000 		.4byte	.LVL38-1
 4063 0276 8C000000 		.4byte	.LFE11
 4064 027a 0100     		.2byte	0x1
 4065 027c 58       		.byte	0x58
ARM GAS  /tmp/ccXG8rbk.s 			page 73


 4066 027d 00000000 		.4byte	0
 4067 0281 00000000 		.4byte	0
 4068              	.LLST23:
 4069 0285 12000000 		.4byte	.LVL39
 4070 0289 1C000000 		.4byte	.LVL40
 4071 028d 0200     		.2byte	0x2
 4072 028f 74       		.byte	0x74
 4073 0290 00       		.sleb128 0
 4074 0291 1C000000 		.4byte	.LVL40
 4075 0295 7C000000 		.4byte	.LVL52
 4076 0299 0100     		.2byte	0x1
 4077 029b 55       		.byte	0x55
 4078 029c 00000000 		.4byte	0
 4079 02a0 00000000 		.4byte	0
 4080              	.LLST24:
 4081 02a4 2E000000 		.4byte	.LVL43
 4082 02a8 31000000 		.4byte	.LVL44-1
 4083 02ac 0200     		.2byte	0x2
 4084 02ae 75       		.byte	0x75
 4085 02af 08       		.sleb128 8
 4086 02b0 31000000 		.4byte	.LVL44-1
 4087 02b4 3C000000 		.4byte	.LVL45
 4088 02b8 0100     		.2byte	0x1
 4089 02ba 57       		.byte	0x57
 4090 02bb 74000000 		.4byte	.LVL51
 4091 02bf 7C000000 		.4byte	.LVL52
 4092 02c3 0100     		.2byte	0x1
 4093 02c5 57       		.byte	0x57
 4094 02c6 00000000 		.4byte	0
 4095 02ca 00000000 		.4byte	0
 4096              	.LLST25:
 4097 02ce 1C000000 		.4byte	.LVL40
 4098 02d2 22000000 		.4byte	.LVL42
 4099 02d6 0100     		.2byte	0x1
 4100 02d8 56       		.byte	0x56
 4101 02d9 2E000000 		.4byte	.LVL43
 4102 02dd 31000000 		.4byte	.LVL44-1
 4103 02e1 0200     		.2byte	0x2
 4104 02e3 75       		.byte	0x75
 4105 02e4 04       		.sleb128 4
 4106 02e5 31000000 		.4byte	.LVL44-1
 4107 02e9 5E000000 		.4byte	.LVL48
 4108 02ed 0100     		.2byte	0x1
 4109 02ef 56       		.byte	0x56
 4110 02f0 62000000 		.4byte	.LVL49
 4111 02f4 7C000000 		.4byte	.LVL52
 4112 02f8 0100     		.2byte	0x1
 4113 02fa 56       		.byte	0x56
 4114 02fb 00000000 		.4byte	0
 4115 02ff 00000000 		.4byte	0
 4116              	.LLST26:
 4117 0303 4E000000 		.4byte	.LVL46
 4118 0307 5E000000 		.4byte	.LVL48
 4119 030b 0100     		.2byte	0x1
 4120 030d 56       		.byte	0x56
 4121 030e 68000000 		.4byte	.LVL50
 4122 0312 74000000 		.4byte	.LVL51
ARM GAS  /tmp/ccXG8rbk.s 			page 74


 4123 0316 0100     		.2byte	0x1
 4124 0318 56       		.byte	0x56
 4125 0319 00000000 		.4byte	0
 4126 031d 00000000 		.4byte	0
 4127              	.LLST27:
 4128 0321 00000000 		.4byte	.LFB12
 4129 0325 02000000 		.4byte	.LCFI5
 4130 0329 0200     		.2byte	0x2
 4131 032b 7D       		.byte	0x7d
 4132 032c 00       		.sleb128 0
 4133 032d 02000000 		.4byte	.LCFI5
 4134 0331 22000000 		.4byte	.LFE12
 4135 0335 0200     		.2byte	0x2
 4136 0337 7D       		.byte	0x7d
 4137 0338 10       		.sleb128 16
 4138 0339 00000000 		.4byte	0
 4139 033d 00000000 		.4byte	0
 4140              	.LLST28:
 4141 0341 00000000 		.4byte	.LVL53
 4142 0345 0F000000 		.4byte	.LVL56-1
 4143 0349 0100     		.2byte	0x1
 4144 034b 50       		.byte	0x50
 4145 034c 0F000000 		.4byte	.LVL56-1
 4146 0350 22000000 		.4byte	.LFE12
 4147 0354 0100     		.2byte	0x1
 4148 0356 54       		.byte	0x54
 4149 0357 00000000 		.4byte	0
 4150 035b 00000000 		.4byte	0
 4151              	.LLST29:
 4152 035f 12000000 		.4byte	.LVL57
 4153 0363 17000000 		.4byte	.LVL58-1
 4154 0367 0200     		.2byte	0x2
 4155 0369 74       		.byte	0x74
 4156 036a 0C       		.sleb128 12
 4157 036b 17000000 		.4byte	.LVL58-1
 4158 036f 22000000 		.4byte	.LFE12
 4159 0373 0100     		.2byte	0x1
 4160 0375 55       		.byte	0x55
 4161 0376 00000000 		.4byte	0
 4162 037a 00000000 		.4byte	0
 4163              	.LLST30:
 4164 037e 0A000000 		.4byte	.LVL55
 4165 0382 0F000000 		.4byte	.LVL56-1
 4166 0386 0100     		.2byte	0x1
 4167 0388 53       		.byte	0x53
 4168 0389 00000000 		.4byte	0
 4169 038d 00000000 		.4byte	0
 4170              	.LLST31:
 4171 0391 1E000000 		.4byte	.LVL60
 4172 0395 22000000 		.4byte	.LFE12
 4173 0399 0100     		.2byte	0x1
 4174 039b 53       		.byte	0x53
 4175 039c 00000000 		.4byte	0
 4176 03a0 00000000 		.4byte	0
 4177              	.LLST32:
 4178 03a4 00000000 		.4byte	.LFB13
 4179 03a8 02000000 		.4byte	.LCFI6
ARM GAS  /tmp/ccXG8rbk.s 			page 75


 4180 03ac 0200     		.2byte	0x2
 4181 03ae 7D       		.byte	0x7d
 4182 03af 00       		.sleb128 0
 4183 03b0 02000000 		.4byte	.LCFI6
 4184 03b4 8C000000 		.4byte	.LFE13
 4185 03b8 0200     		.2byte	0x2
 4186 03ba 7D       		.byte	0x7d
 4187 03bb 10       		.sleb128 16
 4188 03bc 00000000 		.4byte	0
 4189 03c0 00000000 		.4byte	0
 4190              	.LLST33:
 4191 03c4 00000000 		.4byte	.LVL61
 4192 03c8 0A000000 		.4byte	.LVL62
 4193 03cc 0100     		.2byte	0x1
 4194 03ce 50       		.byte	0x50
 4195 03cf 0A000000 		.4byte	.LVL62
 4196 03d3 8C000000 		.4byte	.LFE13
 4197 03d7 0100     		.2byte	0x1
 4198 03d9 54       		.byte	0x54
 4199 03da 00000000 		.4byte	0
 4200 03de 00000000 		.4byte	0
 4201              	.LLST34:
 4202 03e2 00000000 		.4byte	.LVL61
 4203 03e6 0A000000 		.4byte	.LVL62
 4204 03ea 0100     		.2byte	0x1
 4205 03ec 51       		.byte	0x51
 4206 03ed 0A000000 		.4byte	.LVL62
 4207 03f1 24000000 		.4byte	.LVL66
 4208 03f5 0100     		.2byte	0x1
 4209 03f7 55       		.byte	0x55
 4210 03f8 72000000 		.4byte	.LVL74
 4211 03fc 77000000 		.4byte	.LVL75-1
 4212 0400 0100     		.2byte	0x1
 4213 0402 51       		.byte	0x51
 4214 0403 77000000 		.4byte	.LVL75-1
 4215 0407 8C000000 		.4byte	.LFE13
 4216 040b 0100     		.2byte	0x1
 4217 040d 55       		.byte	0x55
 4218 040e 00000000 		.4byte	0
 4219 0412 00000000 		.4byte	0
 4220              	.LLST35:
 4221 0416 10000000 		.4byte	.LVL64
 4222 041a 13000000 		.4byte	.LVL65-1
 4223 041e 0100     		.2byte	0x1
 4224 0420 53       		.byte	0x53
 4225 0421 00000000 		.4byte	0
 4226 0425 00000000 		.4byte	0
 4227              	.LLST36:
 4228 0429 14000000 		.4byte	.LVL65
 4229 042d 24000000 		.4byte	.LVL66
 4230 0431 0100     		.2byte	0x1
 4231 0433 55       		.byte	0x55
 4232 0434 7A000000 		.4byte	.LVL76
 4233 0438 8C000000 		.4byte	.LFE13
 4234 043c 0100     		.2byte	0x1
 4235 043e 55       		.byte	0x55
 4236 043f 00000000 		.4byte	0
ARM GAS  /tmp/ccXG8rbk.s 			page 76


 4237 0443 00000000 		.4byte	0
 4238              	.LLST37:
 4239 0447 14000000 		.4byte	.LVL65
 4240 044b 72000000 		.4byte	.LVL74
 4241 044f 0100     		.2byte	0x1
 4242 0451 54       		.byte	0x54
 4243 0452 7A000000 		.4byte	.LVL76
 4244 0456 8C000000 		.4byte	.LFE13
 4245 045a 0100     		.2byte	0x1
 4246 045c 54       		.byte	0x54
 4247 045d 00000000 		.4byte	0
 4248 0461 00000000 		.4byte	0
 4249              	.LLST38:
 4250 0465 46000000 		.4byte	.LVL70
 4251 0469 60000000 		.4byte	.LVL72
 4252 046d 0100     		.2byte	0x1
 4253 046f 54       		.byte	0x54
 4254 0470 66000000 		.4byte	.LVL73
 4255 0474 72000000 		.4byte	.LVL74
 4256 0478 0100     		.2byte	0x1
 4257 047a 54       		.byte	0x54
 4258 047b 00000000 		.4byte	0
 4259 047f 00000000 		.4byte	0
 4260              	.LLST39:
 4261 0483 3C000000 		.4byte	.LVL68
 4262 0487 3E000000 		.4byte	.LVL69
 4263 048b 0100     		.2byte	0x1
 4264 048d 53       		.byte	0x53
 4265 048e 5E000000 		.4byte	.LVL71
 4266 0492 60000000 		.4byte	.LVL72
 4267 0496 0100     		.2byte	0x1
 4268 0498 53       		.byte	0x53
 4269 0499 00000000 		.4byte	0
 4270 049d 00000000 		.4byte	0
 4271              	.LLST40:
 4272 04a1 00000000 		.4byte	.LFB14
 4273 04a5 02000000 		.4byte	.LCFI7
 4274 04a9 0200     		.2byte	0x2
 4275 04ab 7D       		.byte	0x7d
 4276 04ac 00       		.sleb128 0
 4277 04ad 02000000 		.4byte	.LCFI7
 4278 04b1 48000000 		.4byte	.LFE14
 4279 04b5 0200     		.2byte	0x2
 4280 04b7 7D       		.byte	0x7d
 4281 04b8 10       		.sleb128 16
 4282 04b9 00000000 		.4byte	0
 4283 04bd 00000000 		.4byte	0
 4284              	.LLST41:
 4285 04c1 00000000 		.4byte	.LVL77
 4286 04c5 09000000 		.4byte	.LVL78-1
 4287 04c9 0100     		.2byte	0x1
 4288 04cb 50       		.byte	0x50
 4289 04cc 09000000 		.4byte	.LVL78-1
 4290 04d0 48000000 		.4byte	.LFE14
 4291 04d4 0100     		.2byte	0x1
 4292 04d6 54       		.byte	0x54
 4293 04d7 00000000 		.4byte	0
ARM GAS  /tmp/ccXG8rbk.s 			page 77


 4294 04db 00000000 		.4byte	0
 4295              	.LLST42:
 4296 04df 00000000 		.4byte	.LVL77
 4297 04e3 09000000 		.4byte	.LVL78-1
 4298 04e7 0100     		.2byte	0x1
 4299 04e9 51       		.byte	0x51
 4300 04ea 09000000 		.4byte	.LVL78-1
 4301 04ee 14000000 		.4byte	.LVL79
 4302 04f2 0100     		.2byte	0x1
 4303 04f4 55       		.byte	0x55
 4304 04f5 3C000000 		.4byte	.LVL82
 4305 04f9 48000000 		.4byte	.LFE14
 4306 04fd 0100     		.2byte	0x1
 4307 04ff 55       		.byte	0x55
 4308 0500 00000000 		.4byte	0
 4309 0504 00000000 		.4byte	0
 4310              	.LLST43:
 4311 0508 28000000 		.4byte	.LVL80
 4312 050c 34000000 		.4byte	.LVL81
 4313 0510 0100     		.2byte	0x1
 4314 0512 54       		.byte	0x54
 4315 0513 00000000 		.4byte	0
 4316 0517 00000000 		.4byte	0
 4317              	.LLST44:
 4318 051b 00000000 		.4byte	.LFB15
 4319 051f 02000000 		.4byte	.LCFI8
 4320 0523 0200     		.2byte	0x2
 4321 0525 7D       		.byte	0x7d
 4322 0526 00       		.sleb128 0
 4323 0527 02000000 		.4byte	.LCFI8
 4324 052b 28000000 		.4byte	.LFE15
 4325 052f 0200     		.2byte	0x2
 4326 0531 7D       		.byte	0x7d
 4327 0532 10       		.sleb128 16
 4328 0533 00000000 		.4byte	0
 4329 0537 00000000 		.4byte	0
 4330              	.LLST45:
 4331 053b 00000000 		.4byte	.LVL83
 4332 053f 0F000000 		.4byte	.LVL86-1
 4333 0543 0100     		.2byte	0x1
 4334 0545 50       		.byte	0x50
 4335 0546 0F000000 		.4byte	.LVL86-1
 4336 054a 28000000 		.4byte	.LFE15
 4337 054e 0100     		.2byte	0x1
 4338 0550 55       		.byte	0x55
 4339 0551 00000000 		.4byte	0
 4340 0555 00000000 		.4byte	0
 4341              	.LLST46:
 4342 0559 00000000 		.4byte	.LVL83
 4343 055d 0F000000 		.4byte	.LVL86-1
 4344 0561 0100     		.2byte	0x1
 4345 0563 51       		.byte	0x51
 4346 0564 0F000000 		.4byte	.LVL86-1
 4347 0568 28000000 		.4byte	.LFE15
 4348 056c 0100     		.2byte	0x1
 4349 056e 54       		.byte	0x54
 4350 056f 00000000 		.4byte	0
ARM GAS  /tmp/ccXG8rbk.s 			page 78


 4351 0573 00000000 		.4byte	0
 4352              	.LLST47:
 4353 0577 0C000000 		.4byte	.LVL85
 4354 057b 0F000000 		.4byte	.LVL86-1
 4355 057f 0100     		.2byte	0x1
 4356 0581 53       		.byte	0x53
 4357 0582 00000000 		.4byte	0
 4358 0586 00000000 		.4byte	0
 4359              	.LLST48:
 4360 058a 26000000 		.4byte	.LVL88
 4361 058e 28000000 		.4byte	.LFE15
 4362 0592 0100     		.2byte	0x1
 4363 0594 53       		.byte	0x53
 4364 0595 00000000 		.4byte	0
 4365 0599 00000000 		.4byte	0
 4366              	.LLST49:
 4367 059d 00000000 		.4byte	.LVL89
 4368 05a1 06000000 		.4byte	.LVL90
 4369 05a5 0100     		.2byte	0x1
 4370 05a7 50       		.byte	0x50
 4371 05a8 06000000 		.4byte	.LVL90
 4372 05ac 0A000000 		.4byte	.LFE16
 4373 05b0 0100     		.2byte	0x1
 4374 05b2 53       		.byte	0x53
 4375 05b3 00000000 		.4byte	0
 4376 05b7 00000000 		.4byte	0
 4377              	.LLST50:
 4378 05bb 00000000 		.4byte	.LFB17
 4379 05bf 04000000 		.4byte	.LCFI9
 4380 05c3 0200     		.2byte	0x2
 4381 05c5 7D       		.byte	0x7d
 4382 05c6 00       		.sleb128 0
 4383 05c7 04000000 		.4byte	.LCFI9
 4384 05cb 50000000 		.4byte	.LFE17
 4385 05cf 0200     		.2byte	0x2
 4386 05d1 7D       		.byte	0x7d
 4387 05d2 18       		.sleb128 24
 4388 05d3 00000000 		.4byte	0
 4389 05d7 00000000 		.4byte	0
 4390              	.LLST51:
 4391 05db 00000000 		.4byte	.LVL91
 4392 05df 0A000000 		.4byte	.LVL92
 4393 05e3 0100     		.2byte	0x1
 4394 05e5 50       		.byte	0x50
 4395 05e6 0A000000 		.4byte	.LVL92
 4396 05ea 50000000 		.4byte	.LFE17
 4397 05ee 0100     		.2byte	0x1
 4398 05f0 54       		.byte	0x54
 4399 05f1 00000000 		.4byte	0
 4400 05f5 00000000 		.4byte	0
 4401              	.LLST52:
 4402 05f9 00000000 		.4byte	.LVL91
 4403 05fd 0A000000 		.4byte	.LVL92
 4404 0601 0100     		.2byte	0x1
 4405 0603 51       		.byte	0x51
 4406 0604 0A000000 		.4byte	.LVL92
 4407 0608 20000000 		.4byte	.LVL94
ARM GAS  /tmp/ccXG8rbk.s 			page 79


 4408 060c 0100     		.2byte	0x1
 4409 060e 56       		.byte	0x56
 4410 060f 24000000 		.4byte	.LVL95
 4411 0613 34000000 		.4byte	.LVL98
 4412 0617 0100     		.2byte	0x1
 4413 0619 56       		.byte	0x56
 4414 061a 3E000000 		.4byte	.LVL99
 4415 061e 43000000 		.4byte	.LVL100-1
 4416 0622 0100     		.2byte	0x1
 4417 0624 51       		.byte	0x51
 4418 0625 43000000 		.4byte	.LVL100-1
 4419 0629 50000000 		.4byte	.LFE17
 4420 062d 0100     		.2byte	0x1
 4421 062f 56       		.byte	0x56
 4422 0630 00000000 		.4byte	0
 4423 0634 00000000 		.4byte	0
 4424              	.LLST53:
 4425 0638 0A000000 		.4byte	.LVL92
 4426 063c 14000000 		.4byte	.LVL93
 4427 0640 0200     		.2byte	0x2
 4428 0642 30       		.byte	0x30
 4429 0643 9F       		.byte	0x9f
 4430 0644 2A000000 		.4byte	.LVL96
 4431 0648 30000000 		.4byte	.LVL97
 4432 064c 0100     		.2byte	0x1
 4433 064e 55       		.byte	0x55
 4434 064f 00000000 		.4byte	0
 4435 0653 00000000 		.4byte	0
 4436              	.LLST54:
 4437 0657 00000000 		.4byte	.LFB18
 4438 065b 02000000 		.4byte	.LCFI10
 4439 065f 0200     		.2byte	0x2
 4440 0661 7D       		.byte	0x7d
 4441 0662 00       		.sleb128 0
 4442 0663 02000000 		.4byte	.LCFI10
 4443 0667 44000000 		.4byte	.LFE18
 4444 066b 0200     		.2byte	0x2
 4445 066d 7D       		.byte	0x7d
 4446 066e 10       		.sleb128 16
 4447 066f 00000000 		.4byte	0
 4448 0673 00000000 		.4byte	0
 4449              	.LLST55:
 4450 0677 00000000 		.4byte	.LVL101
 4451 067b 11000000 		.4byte	.LVL105-1
 4452 067f 0100     		.2byte	0x1
 4453 0681 50       		.byte	0x50
 4454 0682 11000000 		.4byte	.LVL105-1
 4455 0686 2A000000 		.4byte	.LVL109
 4456 068a 0100     		.2byte	0x1
 4457 068c 55       		.byte	0x55
 4458 068d 00000000 		.4byte	0
 4459 0691 00000000 		.4byte	0
 4460              	.LLST56:
 4461 0695 08000000 		.4byte	.LVL102
 4462 0699 0A000000 		.4byte	.LVL103
 4463 069d 0200     		.2byte	0x2
 4464 069f 73       		.byte	0x73
ARM GAS  /tmp/ccXG8rbk.s 			page 80


 4465 06a0 18       		.sleb128 24
 4466 06a1 11000000 		.4byte	.LVL105-1
 4467 06a5 44000000 		.4byte	.LFE18
 4468 06a9 0100     		.2byte	0x1
 4469 06ab 54       		.byte	0x54
 4470 06ac 00000000 		.4byte	0
 4471 06b0 00000000 		.4byte	0
 4472              	.LLST57:
 4473 06b4 14000000 		.4byte	.LVL106
 4474 06b8 21000000 		.4byte	.LVL107-1
 4475 06bc 0700     		.2byte	0x7
 4476 06be 75       		.byte	0x75
 4477 06bf 00       		.sleb128 0
 4478 06c0 74       		.byte	0x74
 4479 06c1 3C       		.sleb128 60
 4480 06c2 06       		.byte	0x6
 4481 06c3 1A       		.byte	0x1a
 4482 06c4 9F       		.byte	0x9f
 4483 06c5 28000000 		.4byte	.LVL108
 4484 06c9 2C000000 		.4byte	.LVL110
 4485 06cd 0100     		.2byte	0x1
 4486 06cf 52       		.byte	0x52
 4487 06d0 2C000000 		.4byte	.LVL110
 4488 06d4 44000000 		.4byte	.LFE18
 4489 06d8 0100     		.2byte	0x1
 4490 06da 55       		.byte	0x55
 4491 06db 00000000 		.4byte	0
 4492 06df 00000000 		.4byte	0
 4493              	.LLST58:
 4494 06e3 0E000000 		.4byte	.LVL104
 4495 06e7 11000000 		.4byte	.LVL105-1
 4496 06eb 0100     		.2byte	0x1
 4497 06ed 53       		.byte	0x53
 4498 06ee 00000000 		.4byte	0
 4499 06f2 00000000 		.4byte	0
 4500              	.LLST59:
 4501 06f6 3C000000 		.4byte	.LVL112
 4502 06fa 44000000 		.4byte	.LFE18
 4503 06fe 0100     		.2byte	0x1
 4504 0700 53       		.byte	0x53
 4505 0701 00000000 		.4byte	0
 4506 0705 00000000 		.4byte	0
 4507              	.LLST60:
 4508 0709 00000000 		.4byte	.LFB19
 4509 070d 04000000 		.4byte	.LCFI11
 4510 0711 0200     		.2byte	0x2
 4511 0713 7D       		.byte	0x7d
 4512 0714 00       		.sleb128 0
 4513 0715 04000000 		.4byte	.LCFI11
 4514 0719 40000000 		.4byte	.LFE19
 4515 071d 0200     		.2byte	0x2
 4516 071f 7D       		.byte	0x7d
 4517 0720 10       		.sleb128 16
 4518 0721 00000000 		.4byte	0
 4519 0725 00000000 		.4byte	0
 4520              	.LLST61:
 4521 0729 00000000 		.4byte	.LVL113
ARM GAS  /tmp/ccXG8rbk.s 			page 81


 4522 072d 11000000 		.4byte	.LVL117-1
 4523 0731 0100     		.2byte	0x1
 4524 0733 50       		.byte	0x50
 4525 0734 11000000 		.4byte	.LVL117-1
 4526 0738 40000000 		.4byte	.LFE19
 4527 073c 0100     		.2byte	0x1
 4528 073e 55       		.byte	0x55
 4529 073f 00000000 		.4byte	0
 4530 0743 00000000 		.4byte	0
 4531              	.LLST62:
 4532 0747 06000000 		.4byte	.LVL114
 4533 074b 0A000000 		.4byte	.LVL115
 4534 074f 0200     		.2byte	0x2
 4535 0751 73       		.byte	0x73
 4536 0752 18       		.sleb128 24
 4537 0753 11000000 		.4byte	.LVL117-1
 4538 0757 40000000 		.4byte	.LFE19
 4539 075b 0100     		.2byte	0x1
 4540 075d 54       		.byte	0x54
 4541 075e 00000000 		.4byte	0
 4542 0762 00000000 		.4byte	0
 4543              	.LLST63:
 4544 0766 14000000 		.4byte	.LVL118
 4545 076a 21000000 		.4byte	.LVL119-1
 4546 076e 0700     		.2byte	0x7
 4547 0770 75       		.byte	0x75
 4548 0771 00       		.sleb128 0
 4549 0772 74       		.byte	0x74
 4550 0773 3C       		.sleb128 60
 4551 0774 06       		.byte	0x6
 4552 0775 1A       		.byte	0x1a
 4553 0776 9F       		.byte	0x9f
 4554 0777 21000000 		.4byte	.LVL119-1
 4555 077b 40000000 		.4byte	.LFE19
 4556 077f 0100     		.2byte	0x1
 4557 0781 56       		.byte	0x56
 4558 0782 00000000 		.4byte	0
 4559 0786 00000000 		.4byte	0
 4560              	.LLST64:
 4561 078a 0E000000 		.4byte	.LVL116
 4562 078e 11000000 		.4byte	.LVL117-1
 4563 0792 0100     		.2byte	0x1
 4564 0794 53       		.byte	0x53
 4565 0795 00000000 		.4byte	0
 4566 0799 00000000 		.4byte	0
 4567              	.LLST65:
 4568 079d 38000000 		.4byte	.LVL122
 4569 07a1 40000000 		.4byte	.LFE19
 4570 07a5 0100     		.2byte	0x1
 4571 07a7 53       		.byte	0x53
 4572 07a8 00000000 		.4byte	0
 4573 07ac 00000000 		.4byte	0
 4574              	.LLST66:
 4575 07b0 00000000 		.4byte	.LFB20
 4576 07b4 02000000 		.4byte	.LCFI12
 4577 07b8 0200     		.2byte	0x2
 4578 07ba 7D       		.byte	0x7d
ARM GAS  /tmp/ccXG8rbk.s 			page 82


 4579 07bb 00       		.sleb128 0
 4580 07bc 02000000 		.4byte	.LCFI12
 4581 07c0 40000000 		.4byte	.LFE20
 4582 07c4 0200     		.2byte	0x2
 4583 07c6 7D       		.byte	0x7d
 4584 07c7 10       		.sleb128 16
 4585 07c8 00000000 		.4byte	0
 4586 07cc 00000000 		.4byte	0
 4587              	.LLST67:
 4588 07d0 00000000 		.4byte	.LVL123
 4589 07d4 11000000 		.4byte	.LVL127-1
 4590 07d8 0100     		.2byte	0x1
 4591 07da 50       		.byte	0x50
 4592 07db 11000000 		.4byte	.LVL127-1
 4593 07df 40000000 		.4byte	.LFE20
 4594 07e3 0100     		.2byte	0x1
 4595 07e5 54       		.byte	0x54
 4596 07e6 00000000 		.4byte	0
 4597 07ea 00000000 		.4byte	0
 4598              	.LLST68:
 4599 07ee 08000000 		.4byte	.LVL124
 4600 07f2 0A000000 		.4byte	.LVL125
 4601 07f6 0200     		.2byte	0x2
 4602 07f8 73       		.byte	0x73
 4603 07f9 18       		.sleb128 24
 4604 07fa 11000000 		.4byte	.LVL127-1
 4605 07fe 40000000 		.4byte	.LFE20
 4606 0802 0100     		.2byte	0x1
 4607 0804 55       		.byte	0x55
 4608 0805 00000000 		.4byte	0
 4609 0809 00000000 		.4byte	0
 4610              	.LLST69:
 4611 080d 0E000000 		.4byte	.LVL126
 4612 0811 11000000 		.4byte	.LVL127-1
 4613 0815 0100     		.2byte	0x1
 4614 0817 53       		.byte	0x53
 4615 0818 00000000 		.4byte	0
 4616 081c 00000000 		.4byte	0
 4617              	.LLST70:
 4618 0820 36000000 		.4byte	.LVL129
 4619 0824 40000000 		.4byte	.LFE20
 4620 0828 0100     		.2byte	0x1
 4621 082a 53       		.byte	0x53
 4622 082b 00000000 		.4byte	0
 4623 082f 00000000 		.4byte	0
 4624              	.LLST71:
 4625 0833 00000000 		.4byte	.LFB21
 4626 0837 02000000 		.4byte	.LCFI13
 4627 083b 0200     		.2byte	0x2
 4628 083d 7D       		.byte	0x7d
 4629 083e 00       		.sleb128 0
 4630 083f 02000000 		.4byte	.LCFI13
 4631 0843 5C000000 		.4byte	.LFE21
 4632 0847 0200     		.2byte	0x2
 4633 0849 7D       		.byte	0x7d
 4634 084a 18       		.sleb128 24
 4635 084b 00000000 		.4byte	0
ARM GAS  /tmp/ccXG8rbk.s 			page 83


 4636 084f 00000000 		.4byte	0
 4637              	.LLST72:
 4638 0853 00000000 		.4byte	.LVL130
 4639 0857 13000000 		.4byte	.LVL134-1
 4640 085b 0100     		.2byte	0x1
 4641 085d 50       		.byte	0x50
 4642 085e 13000000 		.4byte	.LVL134-1
 4643 0862 5C000000 		.4byte	.LFE21
 4644 0866 0100     		.2byte	0x1
 4645 0868 55       		.byte	0x55
 4646 0869 00000000 		.4byte	0
 4647 086d 00000000 		.4byte	0
 4648              	.LLST73:
 4649 0871 00000000 		.4byte	.LVL130
 4650 0875 13000000 		.4byte	.LVL134-1
 4651 0879 0100     		.2byte	0x1
 4652 087b 51       		.byte	0x51
 4653 087c 13000000 		.4byte	.LVL134-1
 4654 0880 5C000000 		.4byte	.LFE21
 4655 0884 0100     		.2byte	0x1
 4656 0886 57       		.byte	0x57
 4657 0887 00000000 		.4byte	0
 4658 088b 00000000 		.4byte	0
 4659              	.LLST74:
 4660 088f 08000000 		.4byte	.LVL131
 4661 0893 0C000000 		.4byte	.LVL132
 4662 0897 0200     		.2byte	0x2
 4663 0899 73       		.byte	0x73
 4664 089a 18       		.sleb128 24
 4665 089b 13000000 		.4byte	.LVL134-1
 4666 089f 5C000000 		.4byte	.LFE21
 4667 08a3 0100     		.2byte	0x1
 4668 08a5 56       		.byte	0x56
 4669 08a6 00000000 		.4byte	0
 4670 08aa 00000000 		.4byte	0
 4671              	.LLST75:
 4672 08ae 16000000 		.4byte	.LVL135
 4673 08b2 27000000 		.4byte	.LVL136-1
 4674 08b6 0700     		.2byte	0x7
 4675 08b8 75       		.byte	0x75
 4676 08b9 00       		.sleb128 0
 4677 08ba 76       		.byte	0x76
 4678 08bb 3C       		.sleb128 60
 4679 08bc 06       		.byte	0x6
 4680 08bd 1A       		.byte	0x1a
 4681 08be 9F       		.byte	0x9f
 4682 08bf 27000000 		.4byte	.LVL136-1
 4683 08c3 5C000000 		.4byte	.LFE21
 4684 08c7 0100     		.2byte	0x1
 4685 08c9 54       		.byte	0x54
 4686 08ca 00000000 		.4byte	0
 4687 08ce 00000000 		.4byte	0
 4688              	.LLST76:
 4689 08d2 10000000 		.4byte	.LVL133
 4690 08d6 13000000 		.4byte	.LVL134-1
 4691 08da 0100     		.2byte	0x1
 4692 08dc 53       		.byte	0x53
ARM GAS  /tmp/ccXG8rbk.s 			page 84


 4693 08dd 00000000 		.4byte	0
 4694 08e1 00000000 		.4byte	0
 4695              	.LLST77:
 4696 08e5 46000000 		.4byte	.LVL140
 4697 08e9 4A000000 		.4byte	.LVL141
 4698 08ed 0100     		.2byte	0x1
 4699 08ef 53       		.byte	0x53
 4700 08f0 00000000 		.4byte	0
 4701 08f4 00000000 		.4byte	0
 4702              	.LLST78:
 4703 08f8 54000000 		.4byte	.LVL143
 4704 08fc 5C000000 		.4byte	.LFE21
 4705 0900 0100     		.2byte	0x1
 4706 0902 53       		.byte	0x53
 4707 0903 00000000 		.4byte	0
 4708 0907 00000000 		.4byte	0
 4709              	.LLST79:
 4710 090b 00000000 		.4byte	.LFB22
 4711 090f 02000000 		.4byte	.LCFI14
 4712 0913 0200     		.2byte	0x2
 4713 0915 7D       		.byte	0x7d
 4714 0916 00       		.sleb128 0
 4715 0917 02000000 		.4byte	.LCFI14
 4716 091b 58000000 		.4byte	.LFE22
 4717 091f 0200     		.2byte	0x2
 4718 0921 7D       		.byte	0x7d
 4719 0922 18       		.sleb128 24
 4720 0923 00000000 		.4byte	0
 4721 0927 00000000 		.4byte	0
 4722              	.LLST80:
 4723 092b 00000000 		.4byte	.LVL144
 4724 092f 13000000 		.4byte	.LVL148-1
 4725 0933 0100     		.2byte	0x1
 4726 0935 50       		.byte	0x50
 4727 0936 13000000 		.4byte	.LVL148-1
 4728 093a 58000000 		.4byte	.LFE22
 4729 093e 0100     		.2byte	0x1
 4730 0940 54       		.byte	0x54
 4731 0941 00000000 		.4byte	0
 4732 0945 00000000 		.4byte	0
 4733              	.LLST81:
 4734 0949 00000000 		.4byte	.LVL144
 4735 094d 13000000 		.4byte	.LVL148-1
 4736 0951 0100     		.2byte	0x1
 4737 0953 51       		.byte	0x51
 4738 0954 13000000 		.4byte	.LVL148-1
 4739 0958 58000000 		.4byte	.LFE22
 4740 095c 0100     		.2byte	0x1
 4741 095e 57       		.byte	0x57
 4742 095f 00000000 		.4byte	0
 4743 0963 00000000 		.4byte	0
 4744              	.LLST82:
 4745 0967 08000000 		.4byte	.LVL145
 4746 096b 0C000000 		.4byte	.LVL146
 4747 096f 0200     		.2byte	0x2
 4748 0971 73       		.byte	0x73
 4749 0972 18       		.sleb128 24
ARM GAS  /tmp/ccXG8rbk.s 			page 85


 4750 0973 13000000 		.4byte	.LVL148-1
 4751 0977 58000000 		.4byte	.LFE22
 4752 097b 0100     		.2byte	0x1
 4753 097d 55       		.byte	0x55
 4754 097e 00000000 		.4byte	0
 4755 0982 00000000 		.4byte	0
 4756              	.LLST83:
 4757 0986 16000000 		.4byte	.LVL149
 4758 098a 27000000 		.4byte	.LVL150-1
 4759 098e 0700     		.2byte	0x7
 4760 0990 74       		.byte	0x74
 4761 0991 00       		.sleb128 0
 4762 0992 75       		.byte	0x75
 4763 0993 3C       		.sleb128 60
 4764 0994 06       		.byte	0x6
 4765 0995 1A       		.byte	0x1a
 4766 0996 9F       		.byte	0x9f
 4767 0997 27000000 		.4byte	.LVL150-1
 4768 099b 58000000 		.4byte	.LFE22
 4769 099f 0100     		.2byte	0x1
 4770 09a1 56       		.byte	0x56
 4771 09a2 00000000 		.4byte	0
 4772 09a6 00000000 		.4byte	0
 4773              	.LLST84:
 4774 09aa 10000000 		.4byte	.LVL147
 4775 09ae 13000000 		.4byte	.LVL148-1
 4776 09b2 0100     		.2byte	0x1
 4777 09b4 53       		.byte	0x53
 4778 09b5 00000000 		.4byte	0
 4779 09b9 00000000 		.4byte	0
 4780              	.LLST85:
 4781 09bd 42000000 		.4byte	.LVL153
 4782 09c1 46000000 		.4byte	.LVL154
 4783 09c5 0100     		.2byte	0x1
 4784 09c7 53       		.byte	0x53
 4785 09c8 00000000 		.4byte	0
 4786 09cc 00000000 		.4byte	0
 4787              	.LLST86:
 4788 09d0 50000000 		.4byte	.LVL156
 4789 09d4 58000000 		.4byte	.LFE22
 4790 09d8 0100     		.2byte	0x1
 4791 09da 53       		.byte	0x53
 4792 09db 00000000 		.4byte	0
 4793 09df 00000000 		.4byte	0
 4794              	.LLST87:
 4795 09e3 00000000 		.4byte	.LFB23
 4796 09e7 04000000 		.4byte	.LCFI15
 4797 09eb 0200     		.2byte	0x2
 4798 09ed 7D       		.byte	0x7d
 4799 09ee 00       		.sleb128 0
 4800 09ef 04000000 		.4byte	.LCFI15
 4801 09f3 68000000 		.4byte	.LFE23
 4802 09f7 0200     		.2byte	0x2
 4803 09f9 7D       		.byte	0x7d
 4804 09fa 10       		.sleb128 16
 4805 09fb 00000000 		.4byte	0
 4806 09ff 00000000 		.4byte	0
ARM GAS  /tmp/ccXG8rbk.s 			page 86


 4807              	.LLST88:
 4808 0a03 00000000 		.4byte	.LVL157
 4809 0a07 13000000 		.4byte	.LVL161-1
 4810 0a0b 0100     		.2byte	0x1
 4811 0a0d 50       		.byte	0x50
 4812 0a0e 13000000 		.4byte	.LVL161-1
 4813 0a12 40000000 		.4byte	.LVL163
 4814 0a16 0100     		.2byte	0x1
 4815 0a18 54       		.byte	0x54
 4816 0a19 44000000 		.4byte	.LVL164
 4817 0a1d 50000000 		.4byte	.LVL167
 4818 0a21 0100     		.2byte	0x1
 4819 0a23 54       		.byte	0x54
 4820 0a24 54000000 		.4byte	.LVL168
 4821 0a28 60000000 		.4byte	.LVL170
 4822 0a2c 0100     		.2byte	0x1
 4823 0a2e 54       		.byte	0x54
 4824 0a2f 00000000 		.4byte	0
 4825 0a33 00000000 		.4byte	0
 4826              	.LLST89:
 4827 0a37 00000000 		.4byte	.LVL157
 4828 0a3b 13000000 		.4byte	.LVL161-1
 4829 0a3f 0100     		.2byte	0x1
 4830 0a41 51       		.byte	0x51
 4831 0a42 13000000 		.4byte	.LVL161-1
 4832 0a46 68000000 		.4byte	.LFE23
 4833 0a4a 0100     		.2byte	0x1
 4834 0a4c 56       		.byte	0x56
 4835 0a4d 00000000 		.4byte	0
 4836 0a51 00000000 		.4byte	0
 4837              	.LLST90:
 4838 0a55 06000000 		.4byte	.LVL158
 4839 0a59 0C000000 		.4byte	.LVL159
 4840 0a5d 0200     		.2byte	0x2
 4841 0a5f 73       		.byte	0x73
 4842 0a60 18       		.sleb128 24
 4843 0a61 13000000 		.4byte	.LVL161-1
 4844 0a65 68000000 		.4byte	.LFE23
 4845 0a69 0100     		.2byte	0x1
 4846 0a6b 55       		.byte	0x55
 4847 0a6c 00000000 		.4byte	0
 4848 0a70 00000000 		.4byte	0
 4849              	.LLST91:
 4850 0a74 10000000 		.4byte	.LVL160
 4851 0a78 13000000 		.4byte	.LVL161-1
 4852 0a7c 0100     		.2byte	0x1
 4853 0a7e 53       		.byte	0x53
 4854 0a7f 00000000 		.4byte	0
 4855 0a83 00000000 		.4byte	0
 4856              	.LLST92:
 4857 0a87 40000000 		.4byte	.LVL163
 4858 0a8b 44000000 		.4byte	.LVL164
 4859 0a8f 0100     		.2byte	0x1
 4860 0a91 53       		.byte	0x53
 4861 0a92 00000000 		.4byte	0
 4862 0a96 00000000 		.4byte	0
 4863              	.LLST93:
ARM GAS  /tmp/ccXG8rbk.s 			page 87


 4864 0a9a 4E000000 		.4byte	.LVL166
 4865 0a9e 54000000 		.4byte	.LVL168
 4866 0aa2 0100     		.2byte	0x1
 4867 0aa4 53       		.byte	0x53
 4868 0aa5 00000000 		.4byte	0
 4869 0aa9 00000000 		.4byte	0
 4870              	.LLST94:
 4871 0aad 40000000 		.4byte	.LVL163
 4872 0ab1 44000000 		.4byte	.LVL164
 4873 0ab5 0100     		.2byte	0x1
 4874 0ab7 53       		.byte	0x53
 4875 0ab8 5E000000 		.4byte	.LVL169
 4876 0abc 68000000 		.4byte	.LFE23
 4877 0ac0 0100     		.2byte	0x1
 4878 0ac2 53       		.byte	0x53
 4879 0ac3 00000000 		.4byte	0
 4880 0ac7 00000000 		.4byte	0
 4881              		.section	.debug_aranges,"",%progbits
 4882 0000 9C000000 		.4byte	0x9c
 4883 0004 0200     		.2byte	0x2
 4884 0006 00000000 		.4byte	.Ldebug_info0
 4885 000a 04       		.byte	0x4
 4886 000b 00       		.byte	0
 4887 000c 0000     		.2byte	0
 4888 000e 0000     		.2byte	0
 4889 0010 00000000 		.4byte	.LFB7
 4890 0014 44000000 		.4byte	.LFE7-.LFB7
 4891 0018 00000000 		.4byte	.LFB8
 4892 001c 4C000000 		.4byte	.LFE8-.LFB8
 4893 0020 00000000 		.4byte	.LFB9
 4894 0024 30000000 		.4byte	.LFE9-.LFB9
 4895 0028 00000000 		.4byte	.LFB10
 4896 002c 2C000000 		.4byte	.LFE10-.LFB10
 4897 0030 00000000 		.4byte	.LFB11
 4898 0034 8C000000 		.4byte	.LFE11-.LFB11
 4899 0038 00000000 		.4byte	.LFB12
 4900 003c 22000000 		.4byte	.LFE12-.LFB12
 4901 0040 00000000 		.4byte	.LFB13
 4902 0044 8C000000 		.4byte	.LFE13-.LFB13
 4903 0048 00000000 		.4byte	.LFB14
 4904 004c 48000000 		.4byte	.LFE14-.LFB14
 4905 0050 00000000 		.4byte	.LFB15
 4906 0054 28000000 		.4byte	.LFE15-.LFB15
 4907 0058 00000000 		.4byte	.LFB16
 4908 005c 0A000000 		.4byte	.LFE16-.LFB16
 4909 0060 00000000 		.4byte	.LFB17
 4910 0064 50000000 		.4byte	.LFE17-.LFB17
 4911 0068 00000000 		.4byte	.LFB18
 4912 006c 44000000 		.4byte	.LFE18-.LFB18
 4913 0070 00000000 		.4byte	.LFB19
 4914 0074 40000000 		.4byte	.LFE19-.LFB19
 4915 0078 00000000 		.4byte	.LFB20
 4916 007c 40000000 		.4byte	.LFE20-.LFB20
 4917 0080 00000000 		.4byte	.LFB21
 4918 0084 5C000000 		.4byte	.LFE21-.LFB21
 4919 0088 00000000 		.4byte	.LFB22
 4920 008c 58000000 		.4byte	.LFE22-.LFB22
ARM GAS  /tmp/ccXG8rbk.s 			page 88


 4921 0090 00000000 		.4byte	.LFB23
 4922 0094 68000000 		.4byte	.LFE23-.LFB23
 4923 0098 00000000 		.4byte	0
 4924 009c 00000000 		.4byte	0
 4925              		.section	.debug_ranges,"",%progbits
 4926              	.Ldebug_ranges0:
 4927 0000 28000000 		.4byte	.LBB5
 4928 0004 2E000000 		.4byte	.LBE5
 4929 0008 38000000 		.4byte	.LBB6
 4930 000c 3E000000 		.4byte	.LBE6
 4931 0010 00000000 		.4byte	0
 4932 0014 00000000 		.4byte	0
 4933 0018 02000000 		.4byte	.LBB7
 4934 001c 04000000 		.4byte	.LBE7
 4935 0020 06000000 		.4byte	.LBB8
 4936 0024 0A000000 		.4byte	.LBE8
 4937 0028 00000000 		.4byte	0
 4938 002c 00000000 		.4byte	0
 4939 0030 02000000 		.4byte	.LBB10
 4940 0034 04000000 		.4byte	.LBE10
 4941 0038 06000000 		.4byte	.LBB11
 4942 003c 0A000000 		.4byte	.LBE11
 4943 0040 00000000 		.4byte	0
 4944 0044 00000000 		.4byte	0
 4945 0048 16000000 		.4byte	.LBB17
 4946 004c 1C000000 		.4byte	.LBE17
 4947 0050 2E000000 		.4byte	.LBB27
 4948 0054 58000000 		.4byte	.LBE27
 4949 0058 62000000 		.4byte	.LBB28
 4950 005c 7C000000 		.4byte	.LBE28
 4951 0060 00000000 		.4byte	0
 4952 0064 00000000 		.4byte	0
 4953 0068 16000000 		.4byte	.LBB19
 4954 006c 1C000000 		.4byte	.LBE19
 4955 0070 4E000000 		.4byte	.LBB23
 4956 0074 58000000 		.4byte	.LBE23
 4957 0078 68000000 		.4byte	.LBB24
 4958 007c 74000000 		.4byte	.LBE24
 4959 0080 00000000 		.4byte	0
 4960 0084 00000000 		.4byte	0
 4961 0088 16000000 		.4byte	.LBB20
 4962 008c 1C000000 		.4byte	.LBE20
 4963 0090 4E000000 		.4byte	.LBB21
 4964 0094 58000000 		.4byte	.LBE21
 4965 0098 68000000 		.4byte	.LBB22
 4966 009c 74000000 		.4byte	.LBE22
 4967 00a0 00000000 		.4byte	0
 4968 00a4 00000000 		.4byte	0
 4969 00a8 02000000 		.4byte	.LBB29
 4970 00ac 04000000 		.4byte	.LBE29
 4971 00b0 06000000 		.4byte	.LBB30
 4972 00b4 0A000000 		.4byte	.LBE30
 4973 00b8 00000000 		.4byte	0
 4974 00bc 00000000 		.4byte	0
 4975 00c0 14000000 		.4byte	.LBB39
 4976 00c4 2E000000 		.4byte	.LBE39
 4977 00c8 3E000000 		.4byte	.LBB49
ARM GAS  /tmp/ccXG8rbk.s 			page 89


 4978 00cc 50000000 		.4byte	.LBE49
 4979 00d0 60000000 		.4byte	.LBB51
 4980 00d4 72000000 		.4byte	.LBE51
 4981 00d8 7A000000 		.4byte	.LBB52
 4982 00dc 8C000000 		.4byte	.LBE52
 4983 00e0 00000000 		.4byte	0
 4984 00e4 00000000 		.4byte	0
 4985 00e8 46000000 		.4byte	.LBB41
 4986 00ec 50000000 		.4byte	.LBE41
 4987 00f0 66000000 		.4byte	.LBB44
 4988 00f4 72000000 		.4byte	.LBE44
 4989 00f8 00000000 		.4byte	0
 4990 00fc 00000000 		.4byte	0
 4991 0100 46000000 		.4byte	.LBB42
 4992 0104 50000000 		.4byte	.LBE42
 4993 0108 66000000 		.4byte	.LBB43
 4994 010c 72000000 		.4byte	.LBE43
 4995 0110 00000000 		.4byte	0
 4996 0114 00000000 		.4byte	0
 4997 0118 36000000 		.4byte	.LBB48
 4998 011c 3C000000 		.4byte	.LBE48
 4999 0120 58000000 		.4byte	.LBB50
 5000 0124 5E000000 		.4byte	.LBE50
 5001 0128 00000000 		.4byte	0
 5002 012c 00000000 		.4byte	0
 5003 0130 00000000 		.4byte	.LFB7
 5004 0134 44000000 		.4byte	.LFE7
 5005 0138 00000000 		.4byte	.LFB8
 5006 013c 4C000000 		.4byte	.LFE8
 5007 0140 00000000 		.4byte	.LFB9
 5008 0144 30000000 		.4byte	.LFE9
 5009 0148 00000000 		.4byte	.LFB10
 5010 014c 2C000000 		.4byte	.LFE10
 5011 0150 00000000 		.4byte	.LFB11
 5012 0154 8C000000 		.4byte	.LFE11
 5013 0158 00000000 		.4byte	.LFB12
 5014 015c 22000000 		.4byte	.LFE12
 5015 0160 00000000 		.4byte	.LFB13
 5016 0164 8C000000 		.4byte	.LFE13
 5017 0168 00000000 		.4byte	.LFB14
 5018 016c 48000000 		.4byte	.LFE14
 5019 0170 00000000 		.4byte	.LFB15
 5020 0174 28000000 		.4byte	.LFE15
 5021 0178 00000000 		.4byte	.LFB16
 5022 017c 0A000000 		.4byte	.LFE16
 5023 0180 00000000 		.4byte	.LFB17
 5024 0184 50000000 		.4byte	.LFE17
 5025 0188 00000000 		.4byte	.LFB18
 5026 018c 44000000 		.4byte	.LFE18
 5027 0190 00000000 		.4byte	.LFB19
 5028 0194 40000000 		.4byte	.LFE19
 5029 0198 00000000 		.4byte	.LFB20
 5030 019c 40000000 		.4byte	.LFE20
 5031 01a0 00000000 		.4byte	.LFB21
 5032 01a4 5C000000 		.4byte	.LFE21
 5033 01a8 00000000 		.4byte	.LFB22
 5034 01ac 58000000 		.4byte	.LFE22
ARM GAS  /tmp/ccXG8rbk.s 			page 90


 5035 01b0 00000000 		.4byte	.LFB23
 5036 01b4 68000000 		.4byte	.LFE23
 5037 01b8 00000000 		.4byte	0
 5038 01bc 00000000 		.4byte	0
 5039              		.section	.debug_line,"",%progbits
 5040              	.Ldebug_line0:
 5041 0000 DD030000 		.section	.debug_str,"MS",%progbits,1
 5041      02006D01 
 5041      00000201 
 5041      FB0E0D00 
 5041      01010101 
 5042              	.LASF40:
 5043 0000 705F6D73 		.ascii	"p_msg\000"
 5043      6700
 5044              	.LASF70:
 5045 0006 7264796D 		.ascii	"rdymsg\000"
 5045      736700
 5046              	.LASF11:
 5047 000d 75696E74 		.ascii	"uint64_t\000"
 5047      36345F74 
 5047      00
 5048              	.LASF83:
 5049 0016 63684576 		.ascii	"chEvtSignal\000"
 5049      74536967 
 5049      6E616C00 
 5050              	.LASF12:
 5051 0022 6C6F6E67 		.ascii	"long long unsigned int\000"
 5051      206C6F6E 
 5051      6720756E 
 5051      7369676E 
 5051      65642069 
 5052              	.LASF79:
 5053 0039 63684576 		.ascii	"chEvtAddEvents\000"
 5053      74416464 
 5053      4576656E 
 5053      747300
 5054              	.LASF71:
 5055 0048 65786974 		.ascii	"exitcode\000"
 5055      636F6465 
 5055      00
 5056              	.LASF93:
 5057 0051 63684576 		.ascii	"chEvtWaitAnyTimeout\000"
 5057      74576169 
 5057      74416E79 
 5057      54696D65 
 5057      6F757400 
 5058              	.LASF27:
 5059 0065 705F7072 		.ascii	"p_prio\000"
 5059      696F00
 5060              	.LASF10:
 5061 006c 6C6F6E67 		.ascii	"long long int\000"
 5061      206C6F6E 
 5061      6720696E 
 5061      7400
 5062              	.LASF1:
 5063 007a 7369676E 		.ascii	"signed char\000"
 5063      65642063 
ARM GAS  /tmp/ccXG8rbk.s 			page 91


 5063      68617200 
 5064              	.LASF94:
 5065 0086 63684576 		.ascii	"chEvtWaitAllTimeout\000"
 5065      74576169 
 5065      74416C6C 
 5065      54696D65 
 5065      6F757400 
 5066              	.LASF44:
 5067 009a 705F6D70 		.ascii	"p_mpool\000"
 5067      6F6F6C00 
 5068              	.LASF59:
 5069 00a2 6D5F7175 		.ascii	"m_queue\000"
 5069      65756500 
 5070              	.LASF17:
 5071 00aa 74736C69 		.ascii	"tslices_t\000"
 5071      6365735F 
 5071      7400
 5072              	.LASF7:
 5073 00b4 6C6F6E67 		.ascii	"long int\000"
 5073      20696E74 
 5073      00
 5074              	.LASF96:
 5075 00bd 474E5520 		.ascii	"GNU C 4.6.2 20120613 (release) [ARM/embedded-4_6-br"
 5075      4320342E 
 5075      362E3220 
 5075      32303132 
 5075      30363133 
 5076 00f0 616E6368 		.ascii	"anch revision 188521]\000"
 5076      20726576 
 5076      6973696F 
 5076      6E203138 
 5076      38353231 
 5077              	.LASF98:
 5078 0106 2F686F6D 		.ascii	"/home/tino/workspace/openrobots/R2P_IR_module/fw\000"
 5078      652F7469 
 5078      6E6F2F77 
 5078      6F726B73 
 5078      70616365 
 5079              	.LASF15:
 5080 0137 74737461 		.ascii	"tstate_t\000"
 5080      74655F74 
 5080      00
 5081              	.LASF89:
 5082 0140 63684576 		.ascii	"chEvtWaitAny\000"
 5082      74576169 
 5082      74416E79 
 5082      00
 5083              	.LASF80:
 5084 014d 63684576 		.ascii	"chEvtBroadcastFlagsI\000"
 5084      7442726F 
 5084      61646361 
 5084      7374466C 
 5084      61677349 
 5085              	.LASF29:
 5086 0162 705F6E65 		.ascii	"p_newer\000"
 5086      77657200 
 5087              	.LASF54:
ARM GAS  /tmp/ccXG8rbk.s 			page 92


 5088 016a 725F6E65 		.ascii	"r_newer\000"
 5088      77657200 
 5089              	.LASF75:
 5090 0172 6D61736B 		.ascii	"mask\000"
 5090      00
 5091              	.LASF47:
 5092 0177 72656761 		.ascii	"regarm_t\000"
 5092      726D5F74 
 5092      00
 5093              	.LASF84:
 5094 0180 63684576 		.ascii	"chEvtBroadcastFlags\000"
 5094      7442726F 
 5094      61646361 
 5094      7374466C 
 5094      61677300 
 5095              	.LASF20:
 5096 0194 6576656E 		.ascii	"eventid_t\000"
 5096      7469645F 
 5096      7400
 5097              	.LASF67:
 5098 019e 4576656E 		.ascii	"EventSource\000"
 5098      74536F75 
 5098      72636500 
 5099              	.LASF69:
 5100 01aa 65766861 		.ascii	"evhandler_t\000"
 5100      6E646C65 
 5100      725F7400 
 5101              	.LASF32:
 5102 01b6 705F7374 		.ascii	"p_stklimit\000"
 5102      6B6C696D 
 5102      697400
 5103              	.LASF0:
 5104 01c1 756E7369 		.ascii	"unsigned int\000"
 5104      676E6564 
 5104      20696E74 
 5104      00
 5105              	.LASF9:
 5106 01ce 6C6F6E67 		.ascii	"long unsigned int\000"
 5106      20756E73 
 5106      69676E65 
 5106      6420696E 
 5106      7400
 5107              	.LASF78:
 5108 01e0 63684576 		.ascii	"chEvtGetAndClearEvents\000"
 5108      74476574 
 5108      416E6443 
 5108      6C656172 
 5108      4576656E 
 5109              	.LASF50:
 5110 01f7 636F6E74 		.ascii	"context\000"
 5110      65787400 
 5111              	.LASF4:
 5112 01ff 73686F72 		.ascii	"short unsigned int\000"
 5112      7420756E 
 5112      7369676E 
 5112      65642069 
 5112      6E7400
ARM GAS  /tmp/ccXG8rbk.s 			page 93


 5113              	.LASF76:
 5114 0212 63684576 		.ascii	"chEvtRegisterMask\000"
 5114      74526567 
 5114      69737465 
 5114      724D6173 
 5114      6B00
 5115              	.LASF19:
 5116 0224 6D73675F 		.ascii	"msg_t\000"
 5116      7400
 5117              	.LASF63:
 5118 022a 656C5F6E 		.ascii	"el_next\000"
 5118      65787400 
 5119              	.LASF77:
 5120 0232 63684576 		.ascii	"chEvtUnregister\000"
 5120      74556E72 
 5120      65676973 
 5120      74657200 
 5121              	.LASF14:
 5122 0242 746D6F64 		.ascii	"tmode_t\000"
 5122      655F7400 
 5123              	.LASF46:
 5124 024a 54687265 		.ascii	"ThreadsList\000"
 5124      6164734C 
 5124      69737400 
 5125              	.LASF21:
 5126 0256 6576656E 		.ascii	"eventmask_t\000"
 5126      746D6173 
 5126      6B5F7400 
 5127              	.LASF58:
 5128 0262 4D757465 		.ascii	"Mutex\000"
 5128      7800
 5129              	.LASF48:
 5130 0268 73746B61 		.ascii	"stkalign_t\000"
 5130      6C69676E 
 5130      5F7400
 5131              	.LASF86:
 5132 0273 63684576 		.ascii	"chEvtDispatch\000"
 5132      74446973 
 5132      70617463 
 5132      6800
 5133              	.LASF30:
 5134 0281 705F6F6C 		.ascii	"p_older\000"
 5134      64657200 
 5135              	.LASF53:
 5136 0289 725F6374 		.ascii	"r_ctx\000"
 5136      7800
 5137              	.LASF45:
 5138 028f 54687265 		.ascii	"ThreadsQueue\000"
 5138      61647351 
 5138      75657565 
 5138      00
 5139              	.LASF92:
 5140 029c 74696D65 		.ascii	"time\000"
 5140      00
 5141              	.LASF90:
 5142 02a1 63684576 		.ascii	"chEvtWaitAll\000"
 5142      74576169 
ARM GAS  /tmp/ccXG8rbk.s 			page 94


 5142      74416C6C 
 5142      00
 5143              	.LASF56:
 5144 02ae 725F6375 		.ascii	"r_current\000"
 5144      7272656E 
 5144      7400
 5145              	.LASF55:
 5146 02b8 725F6F6C 		.ascii	"r_older\000"
 5146      64657200 
 5147              	.LASF65:
 5148 02c0 656C5F6D 		.ascii	"el_mask\000"
 5148      61736B00 
 5149              	.LASF87:
 5150 02c8 68616E64 		.ascii	"handlers\000"
 5150      6C657273 
 5150      00
 5151              	.LASF16:
 5152 02d1 74726566 		.ascii	"trefs_t\000"
 5152      735F7400 
 5153              	.LASF26:
 5154 02d9 705F7072 		.ascii	"p_prev\000"
 5154      657600
 5155              	.LASF18:
 5156 02e0 74707269 		.ascii	"tprio_t\000"
 5156      6F5F7400 
 5157              	.LASF13:
 5158 02e8 5F426F6F 		.ascii	"_Bool\000"
 5158      6C00
 5159              	.LASF6:
 5160 02ee 696E7433 		.ascii	"int32_t\000"
 5160      325F7400 
 5161              	.LASF2:
 5162 02f6 756E7369 		.ascii	"unsigned char\000"
 5162      676E6564 
 5162      20636861 
 5162      7200
 5163              	.LASF88:
 5164 0304 63684576 		.ascii	"chEvtWaitOne\000"
 5164      74576169 
 5164      744F6E65 
 5164      00
 5165              	.LASF64:
 5166 0311 656C5F6C 		.ascii	"el_listener\000"
 5166      69737465 
 5166      6E657200 
 5167              	.LASF66:
 5168 031d 656C5F66 		.ascii	"el_flags\000"
 5168      6C616773 
 5168      00
 5169              	.LASF42:
 5170 0326 705F6D74 		.ascii	"p_mtxlist\000"
 5170      786C6973 
 5170      7400
 5171              	.LASF3:
 5172 0330 73686F72 		.ascii	"short int\000"
 5172      7420696E 
 5172      7400
ARM GAS  /tmp/ccXG8rbk.s 			page 95


 5173              	.LASF33:
 5174 033a 705F7374 		.ascii	"p_state\000"
 5174      61746500 
 5175              	.LASF36:
 5176 0342 705F7072 		.ascii	"p_preempt\000"
 5176      65656D70 
 5176      7400
 5177              	.LASF52:
 5178 034c 725F7072 		.ascii	"r_prio\000"
 5178      696F00
 5179              	.LASF85:
 5180 0353 63684576 		.ascii	"chEvtGetAndClearFlagsI\000"
 5180      74476574 
 5180      416E6443 
 5180      6C656172 
 5180      466C6167 
 5181              	.LASF73:
 5182 036a 65776D61 		.ascii	"ewmask\000"
 5182      736B00
 5183              	.LASF25:
 5184 0371 705F6E65 		.ascii	"p_next\000"
 5184      787400
 5185              	.LASF34:
 5186 0378 705F666C 		.ascii	"p_flags\000"
 5186      61677300 
 5187              	.LASF24:
 5188 0380 54687265 		.ascii	"Thread\000"
 5188      616400
 5189              	.LASF41:
 5190 0387 705F6570 		.ascii	"p_epending\000"
 5190      656E6469 
 5190      6E6700
 5191              	.LASF8:
 5192 0392 75696E74 		.ascii	"uint32_t\000"
 5192      33325F74 
 5192      00
 5193              	.LASF51:
 5194 039b 725F7175 		.ascii	"r_queue\000"
 5194      65756500 
 5195              	.LASF74:
 5196 03a3 63686172 		.ascii	"char\000"
 5196      00
 5197              	.LASF61:
 5198 03a8 6D5F6E65 		.ascii	"m_next\000"
 5198      787400
 5199              	.LASF23:
 5200 03af 73797374 		.ascii	"systime_t\000"
 5200      696D655F 
 5200      7400
 5201              	.LASF43:
 5202 03b9 705F7265 		.ascii	"p_realprio\000"
 5202      616C7072 
 5202      696F00
 5203              	.LASF37:
 5204 03c4 705F7469 		.ascii	"p_time\000"
 5204      6D6500
 5205              	.LASF49:
ARM GAS  /tmp/ccXG8rbk.s 			page 96


 5206 03cb 696E7463 		.ascii	"intctx\000"
 5206      747800
 5207              	.LASF39:
 5208 03d2 705F6D73 		.ascii	"p_msgqueue\000"
 5208      67717565 
 5208      756500
 5209              	.LASF22:
 5210 03dd 666C6167 		.ascii	"flagsmask_t\000"
 5210      736D6173 
 5210      6B5F7400 
 5211              	.LASF35:
 5212 03e9 705F7265 		.ascii	"p_refs\000"
 5212      667300
 5213              	.LASF57:
 5214 03f0 52656164 		.ascii	"ReadyList\000"
 5214      794C6973 
 5214      7400
 5215              	.LASF95:
 5216 03fa 726C6973 		.ascii	"rlist\000"
 5216      7400
 5217              	.LASF5:
 5218 0400 75696E74 		.ascii	"uint8_t\000"
 5218      385F7400 
 5219              	.LASF81:
 5220 0408 666C6167 		.ascii	"flags\000"
 5220      7300
 5221              	.LASF62:
 5222 040e 4576656E 		.ascii	"EventListener\000"
 5222      744C6973 
 5222      74656E65 
 5222      7200
 5223              	.LASF91:
 5224 041c 63684576 		.ascii	"chEvtWaitOneTimeout\000"
 5224      74576169 
 5224      744F6E65 
 5224      54696D65 
 5224      6F757400 
 5225              	.LASF72:
 5226 0430 77746F62 		.ascii	"wtobjp\000"
 5226      6A7000
 5227              	.LASF31:
 5228 0437 705F6E61 		.ascii	"p_name\000"
 5228      6D6500
 5229              	.LASF68:
 5230 043e 65735F6E 		.ascii	"es_next\000"
 5230      65787400 
 5231              	.LASF82:
 5232 0446 63684576 		.ascii	"chEvtGetAndClearFlags\000"
 5232      74476574 
 5232      416E6443 
 5232      6C656172 
 5232      466C6167 
 5233              	.LASF97:
 5234 045c 2E2E2F2E 		.ascii	"../../ChibiOS/os/kernel/src/chevents.c\000"
 5234      2E2F4368 
 5234      6962694F 
 5234      532F6F73 
ARM GAS  /tmp/ccXG8rbk.s 			page 97


 5234      2F6B6572 
 5235              	.LASF60:
 5236 0483 6D5F6F77 		.ascii	"m_owner\000"
 5236      6E657200 
 5237              	.LASF28:
 5238 048b 705F6374 		.ascii	"p_ctx\000"
 5238      7800
 5239              	.LASF38:
 5240 0491 705F7761 		.ascii	"p_waiting\000"
 5240      6974696E 
 5240      6700
 5241              	.LASF99:
 5242 049b 63684576 		.ascii	"chEvtSignalI\000"
 5242      74536967 
 5242      6E616C49 
 5242      00
 5243              		.ident	"GCC: (GNU Tools for ARM Embedded Processors) 4.6.2 20120613 (release) [ARM/embedded-4_6-br
ARM GAS  /tmp/ccXG8rbk.s 			page 98


DEFINED SYMBOLS
                            *ABS*:00000000 chevents.c
     /tmp/ccXG8rbk.s:19     .text.chEvtRegisterMask:00000000 $t
     /tmp/ccXG8rbk.s:25     .text.chEvtRegisterMask:00000000 chEvtRegisterMask
     /tmp/ccXG8rbk.s:104    .text.chEvtRegisterMask:0000003c $d
     /tmp/ccXG8rbk.s:110    .text.chEvtUnregister:00000000 $t
     /tmp/ccXG8rbk.s:116    .text.chEvtUnregister:00000000 chEvtUnregister
     /tmp/ccXG8rbk.s:207    .text.chEvtUnregister:00000048 $d
     /tmp/ccXG8rbk.s:212    .text.chEvtGetAndClearEvents:00000000 $t
     /tmp/ccXG8rbk.s:218    .text.chEvtGetAndClearEvents:00000000 chEvtGetAndClearEvents
     /tmp/ccXG8rbk.s:276    .text.chEvtAddEvents:00000000 $t
     /tmp/ccXG8rbk.s:282    .text.chEvtAddEvents:00000000 chEvtAddEvents
     /tmp/ccXG8rbk.s:338    .text.chEvtBroadcastFlagsI:00000000 $t
     /tmp/ccXG8rbk.s:344    .text.chEvtBroadcastFlagsI:00000000 chEvtBroadcastFlagsI
     /tmp/ccXG8rbk.s:496    .text.chEvtBroadcastFlagsI:00000084 $d
     /tmp/ccXG8rbk.s:502    .text.chEvtGetAndClearFlags:00000000 $t
     /tmp/ccXG8rbk.s:508    .text.chEvtGetAndClearFlags:00000000 chEvtGetAndClearFlags
     /tmp/ccXG8rbk.s:566    .text.chEvtSignal:00000000 $t
     /tmp/ccXG8rbk.s:572    .text.chEvtSignal:00000000 chEvtSignal
     /tmp/ccXG8rbk.s:725    .text.chEvtSignal:00000084 $d
     /tmp/ccXG8rbk.s:733    .text.chEvtSignalI:00000000 $t
     /tmp/ccXG8rbk.s:739    .text.chEvtSignalI:00000000 chEvtSignalI
     /tmp/ccXG8rbk.s:816    .text.chEvtSignalI:00000044 $d
     /tmp/ccXG8rbk.s:821    .text.chEvtBroadcastFlags:00000000 $t
     /tmp/ccXG8rbk.s:827    .text.chEvtBroadcastFlags:00000000 chEvtBroadcastFlags
     /tmp/ccXG8rbk.s:879    .text.chEvtGetAndClearFlagsI:00000000 $t
     /tmp/ccXG8rbk.s:885    .text.chEvtGetAndClearFlagsI:00000000 chEvtGetAndClearFlagsI
     /tmp/ccXG8rbk.s:908    .text.chEvtDispatch:00000000 $t
     /tmp/ccXG8rbk.s:914    .text.chEvtDispatch:00000000 chEvtDispatch
     /tmp/ccXG8rbk.s:988    .text.chEvtDispatch:00000048 $d
     /tmp/ccXG8rbk.s:994    .text.chEvtWaitOne:00000000 $t
     /tmp/ccXG8rbk.s:1000   .text.chEvtWaitOne:00000000 chEvtWaitOne
     /tmp/ccXG8rbk.s:1074   .text.chEvtWaitOne:00000040 $d
     /tmp/ccXG8rbk.s:1079   .text.chEvtWaitAny:00000000 $t
     /tmp/ccXG8rbk.s:1085   .text.chEvtWaitAny:00000000 chEvtWaitAny
     /tmp/ccXG8rbk.s:1155   .text.chEvtWaitAny:0000003c $d
     /tmp/ccXG8rbk.s:1160   .text.chEvtWaitAll:00000000 $t
     /tmp/ccXG8rbk.s:1166   .text.chEvtWaitAll:00000000 chEvtWaitAll
     /tmp/ccXG8rbk.s:1231   .text.chEvtWaitAll:0000003c $d
     /tmp/ccXG8rbk.s:1236   .text.chEvtWaitOneTimeout:00000000 $t
     /tmp/ccXG8rbk.s:1242   .text.chEvtWaitOneTimeout:00000000 chEvtWaitOneTimeout
     /tmp/ccXG8rbk.s:1341   .text.chEvtWaitOneTimeout:00000058 $d
     /tmp/ccXG8rbk.s:1346   .text.chEvtWaitAnyTimeout:00000000 $t
     /tmp/ccXG8rbk.s:1352   .text.chEvtWaitAnyTimeout:00000000 chEvtWaitAnyTimeout
     /tmp/ccXG8rbk.s:1447   .text.chEvtWaitAnyTimeout:00000054 $d
     /tmp/ccXG8rbk.s:1452   .text.chEvtWaitAllTimeout:00000000 $t
     /tmp/ccXG8rbk.s:1458   .text.chEvtWaitAllTimeout:00000000 chEvtWaitAllTimeout
     /tmp/ccXG8rbk.s:1567   .text.chEvtWaitAllTimeout:00000064 $d
     /tmp/ccXG8rbk.s:1572   .rodata.str1.4:00000000 $d
                     .debug_frame:00000010 $d
     /tmp/ccXG8rbk.s:109    .text.chEvtRegisterMask:00000044 $t
     /tmp/ccXG8rbk.s:211    .text.chEvtUnregister:0000004c $t
     /tmp/ccXG8rbk.s:501    .text.chEvtBroadcastFlagsI:0000008c $t
     /tmp/ccXG8rbk.s:732    .text.chEvtSignal:0000008c $t
     /tmp/ccXG8rbk.s:820    .text.chEvtSignalI:00000048 $t
     /tmp/ccXG8rbk.s:1078   .text.chEvtWaitOne:00000044 $t
     /tmp/ccXG8rbk.s:1345   .text.chEvtWaitOneTimeout:0000005c $t
ARM GAS  /tmp/ccXG8rbk.s 			page 99


     /tmp/ccXG8rbk.s:1451   .text.chEvtWaitAnyTimeout:00000058 $t
     /tmp/ccXG8rbk.s:1571   .text.chEvtWaitAllTimeout:00000068 $t

UNDEFINED SYMBOLS
dbg_check_lock
dbg_check_unlock
chDbgPanic
rlist
chDbgCheckClassI
chSchReadyI
chSchRescheduleS
chSchGoSleepS
chSchGoSleepTimeoutS
