ARM GAS  /tmp/ccfni7Yz.s 			page 1


   1              		.syntax unified
   2              		.cpu cortex-m3
   3              		.fpu softvfp
   4              		.eabi_attribute 20, 1
   5              		.eabi_attribute 21, 1
   6              		.eabi_attribute 23, 3
   7              		.eabi_attribute 24, 1
   8              		.eabi_attribute 25, 1
   9              		.eabi_attribute 26, 1
  10              		.eabi_attribute 30, 2
  11              		.eabi_attribute 34, 1
  12              		.eabi_attribute 18, 4
  13              		.thumb
  14              		.file	"chheap.c"
  15              		.text
  16              	.Ltext0:
  17              		.cfi_sections	.debug_frame
  18              		.section	.text._heap_init,"ax",%progbits
  19              		.align	2
  20              		.p2align 4,,15
  21              		.global	_heap_init
  22              		.thumb
  23              		.thumb_func
  24              		.type	_heap_init, %function
  25              	_heap_init:
  26              	.LFB7:
  27              		.file 1 "../../ChibiOS/os/kernel/src/chheap.c"
  28              		.loc 1 68 0
  29              		.cfi_startproc
  30              		@ args = 0, pretend = 0, frame = 0
  31              		@ frame_needed = 0, uses_anonymous_args = 0
  32              		@ link register save eliminated.
  33              		.loc 1 69 0
  34 0000 40F20003 		movw	r3, #:lower16:.LANCHOR0
  35 0004 C0F20003 		movt	r3, #:upper16:.LANCHOR0
  36 0008 40F20001 		movw	r1, #:lower16:chCoreAlloc
  37              		.loc 1 70 0
  38 000c 0022     		movs	r2, #0
  39              		.loc 1 69 0
  40 000e C0F20001 		movt	r1, #:upper16:chCoreAlloc
  41              		.loc 1 73 0
  42 0012 03F11000 		add	r0, r3, #16
  43              		.loc 1 69 0
  44 0016 1960     		str	r1, [r3, #0]
  45              		.loc 1 70 0
  46 0018 9A60     		str	r2, [r3, #8]
  47              		.loc 1 71 0
  48 001a DA60     		str	r2, [r3, #12]
  49              		.loc 1 77 0
  50              		.loc 1 73 0
  51 001c FFF7FEBF 		b	chMtxInit
  52              		.cfi_endproc
  53              	.LFE7:
  54              		.size	_heap_init, .-_heap_init
  55              		.section	.text.chHeapInit,"ax",%progbits
  56              		.align	2
  57              		.p2align 4,,15
ARM GAS  /tmp/ccfni7Yz.s 			page 2


  58              		.global	chHeapInit
  59              		.thumb
  60              		.thumb_func
  61              		.type	chHeapInit, %function
  62              	chHeapInit:
  63              	.LFB8:
  64              		.loc 1 92 0
  65              		.cfi_startproc
  66              		@ args = 0, pretend = 0, frame = 0
  67              		@ frame_needed = 0, uses_anonymous_args = 0
  68              	.LVL0:
  69 0000 70B5     		push	{r4, r5, r6, lr}
  70              	.LCFI0:
  71              		.cfi_def_cfa_offset 16
  72              		.cfi_offset 14, -4
  73              		.cfi_offset 6, -8
  74              		.cfi_offset 5, -12
  75              		.cfi_offset 4, -16
  76              		.loc 1 92 0
  77 0002 1646     		mov	r6, r2
  78              		.loc 1 95 0
  79 0004 4A07     		lsls	r2, r1, #29
  80              	.LVL1:
  81              		.loc 1 92 0
  82 0006 0C46     		mov	r4, r1
  83 0008 0546     		mov	r5, r0
  84              		.loc 1 95 0
  85 000a 01D1     		bne	.L3
  86              		.loc 1 95 0 is_stmt 0 discriminator 2
  87 000c 7307     		lsls	r3, r6, #29
  88 000e 02D0     		beq	.L4
  89              	.L3:
  90              		.loc 1 95 0 discriminator 1
  91 0010 0748     		ldr	r0, .L6
  92              	.LVL2:
  93 0012 FFF7FEFF 		bl	chDbgPanic
  94              	.LVL3:
  95              	.L4:
  96              		.loc 1 97 0 is_stmt 1
  97 0016 0023     		movs	r3, #0
  98              		.loc 1 101 0
  99 0018 083E     		subs	r6, r6, #8
 100              	.LVL4:
 101              		.loc 1 103 0
 102 001a 05F11000 		add	r0, r5, #16
 103              		.loc 1 97 0
 104 001e 2B60     		str	r3, [r5, #0]
 105              	.LVL5:
 106              		.loc 1 98 0
 107 0020 AC60     		str	r4, [r5, #8]
 108              		.loc 1 99 0
 109 0022 EB60     		str	r3, [r5, #12]
 110              		.loc 1 101 0
 111 0024 84E84800 		stmia	r4, {r3, r6}
 112              		.loc 1 107 0
 113 0028 BDE87040 		pop	{r4, r5, r6, lr}
 114              		.loc 1 103 0
ARM GAS  /tmp/ccfni7Yz.s 			page 3


 115 002c FFF7FEBF 		b	chMtxInit
 116              	.L7:
 117              		.align	2
 118              	.L6:
 119 0030 00000000 		.word	.LC0
 120              		.cfi_endproc
 121              	.LFE8:
 122              		.size	chHeapInit, .-chHeapInit
 123 0034 AFF30080 		.section	.text.chHeapAlloc,"ax",%progbits
 123      AFF30080 
 123      AFF30080 
 124              		.align	2
 125              		.p2align 4,,15
 126              		.global	chHeapAlloc
 127              		.thumb
 128              		.thumb_func
 129              		.type	chHeapAlloc, %function
 130              	chHeapAlloc:
 131              	.LFB9:
 132              		.loc 1 125 0
 133              		.cfi_startproc
 134              		@ args = 0, pretend = 0, frame = 0
 135              		@ frame_needed = 0, uses_anonymous_args = 0
 136              	.LVL6:
 137 0000 F8B5     		push	{r3, r4, r5, r6, r7, lr}
 138              	.LCFI1:
 139              		.cfi_def_cfa_offset 24
 140              		.cfi_offset 14, -4
 141              		.cfi_offset 7, -8
 142              		.cfi_offset 6, -12
 143              		.cfi_offset 5, -16
 144              		.cfi_offset 4, -20
 145              		.cfi_offset 3, -24
 146              		.loc 1 129 0
 147 0002 214C     		ldr	r4, .L20
 148              		.loc 1 131 0
 149 0004 CE1D     		adds	r6, r1, #7
 150              		.loc 1 129 0
 151 0006 0028     		cmp	r0, #0
 152 0008 18BF     		it	ne
 153 000a 0446     		movne	r4, r0
 154              		.loc 1 133 0
 155 000c 04F11000 		add	r0, r4, #16
 156              	.LVL7:
 157              		.loc 1 131 0
 158 0010 26F00706 		bic	r6, r6, #7
 159              	.LVL8:
 160              		.loc 1 132 0
 161 0014 04F10805 		add	r5, r4, #8
 162              	.LVL9:
 163              		.loc 1 133 0
 164 0018 FFF7FEFF 		bl	chMtxLock
 165              		.loc 1 135 0
 166 001c 00E0     		b	.L10
 167              	.LVL10:
 168              	.L16:
 169              		.loc 1 137 0
ARM GAS  /tmp/ccfni7Yz.s 			page 4


 170 001e 1D46     		mov	r5, r3
 171              	.LVL11:
 172              	.L10:
 173              		.loc 1 135 0 discriminator 1
 174 0020 2B68     		ldr	r3, [r5, #0]
 175 0022 03B3     		cbz	r3, .L18
 176              	.LVL12:
 177              		.loc 1 137 0
 178 0024 5A68     		ldr	r2, [r3, #4]
 179 0026 9642     		cmp	r6, r2
 180 0028 F9D8     		bhi	.L16
 181              		.loc 1 138 0
 182 002a 06F10801 		add	r1, r6, #8
 183 002e 9142     		cmp	r1, r2
 184 0030 16D8     		bhi	.L19
 185              		.loc 1 148 0
 186 0032 4FF6F877 		movw	r7, #65528
 187 0036 CFF6FF77 		movt	r7, 65535
 188              		.loc 1 147 0
 189 003a D3F800E0 		ldr	lr, [r3, #0]
 190              		.loc 1 148 0
 191 003e C6EB070C 		rsb	ip, r6, r7
 192 0042 0CEB0200 		add	r0, ip, r2
 193              		.loc 1 146 0
 194 0046 5F18     		adds	r7, r3, r1
 195              	.LVL13:
 196              		.loc 1 147 0
 197 0048 43F801E0 		str	lr, [r3, r1]
 198              		.loc 1 148 0
 199 004c 7860     		str	r0, [r7, #4]
 200              		.loc 1 149 0
 201 004e 2F60     		str	r7, [r5, #0]
 202              		.loc 1 150 0
 203 0050 5E60     		str	r6, [r3, #4]
 204              	.LVL14:
 205              	.L12:
 206              		.loc 1 152 0
 207 0052 1D46     		mov	r5, r3
 208              	.LVL15:
 209 0054 45F8084B 		str	r4, [r5], #8
 210              		.loc 1 154 0
 211 0058 FFF7FEFF 		bl	chMtxUnlock
 212              	.LVL16:
 213              	.L13:
 214              		.loc 1 174 0
 215 005c 2846     		mov	r0, r5
 216 005e F8BD     		pop	{r3, r4, r5, r6, r7, pc}
 217              	.LVL17:
 218              	.L19:
 219              		.loc 1 142 0
 220 0060 1A68     		ldr	r2, [r3, #0]
 221 0062 2A60     		str	r2, [r5, #0]
 222 0064 F5E7     		b	.L12
 223              	.LVL18:
 224              	.L18:
 225              		.loc 1 160 0
 226 0066 FFF7FEFF 		bl	chMtxUnlock
ARM GAS  /tmp/ccfni7Yz.s 			page 5


 227              		.loc 1 164 0
 228 006a 2568     		ldr	r5, [r4, #0]
 229              	.LVL19:
 230 006c 002D     		cmp	r5, #0
 231 006e F5D0     		beq	.L13
 232              		.loc 1 165 0
 233 0070 06F10800 		add	r0, r6, #8
 234 0074 A847     		blx	r5
 235 0076 0546     		mov	r5, r0
 236              	.LVL20:
 237              		.loc 1 166 0
 238 0078 0028     		cmp	r0, #0
 239 007a EFD0     		beq	.L13
 240              		.loc 1 170 0
 241 007c 0835     		adds	r5, r5, #8
 242              		.loc 1 168 0
 243 007e 80E85000 		stmia	r0, {r4, r6}
 244              	.LVL21:
 245              		.loc 1 174 0
 246 0082 2846     		mov	r0, r5
 247 0084 F8BD     		pop	{r3, r4, r5, r6, r7, pc}
 248              	.L21:
 249 0086 00BF     		.align	2
 250              	.L20:
 251 0088 00000000 		.word	.LANCHOR0
 252              		.cfi_endproc
 253              	.LFE9:
 254              		.size	chHeapAlloc, .-chHeapAlloc
 255 008c AFF30080 		.section	.text.chHeapFree,"ax",%progbits
 256              		.align	2
 257              		.p2align 4,,15
 258              		.global	chHeapFree
 259              		.thumb
 260              		.thumb_func
 261              		.type	chHeapFree, %function
 262              	chHeapFree:
 263              	.LFB10:
 264              		.loc 1 187 0
 265              		.cfi_startproc
 266              		@ args = 0, pretend = 0, frame = 0
 267              		@ frame_needed = 0, uses_anonymous_args = 0
 268              	.LVL22:
 269 0000 F8B5     		push	{r3, r4, r5, r6, r7, lr}
 270              	.LCFI2:
 271              		.cfi_def_cfa_offset 24
 272              		.cfi_offset 14, -4
 273              		.cfi_offset 7, -8
 274              		.cfi_offset 6, -12
 275              		.cfi_offset 5, -16
 276              		.cfi_offset 4, -20
 277              		.cfi_offset 3, -24
 278              		.loc 1 187 0
 279 0002 0746     		mov	r7, r0
 280              		.loc 1 191 0
 281 0004 0028     		cmp	r0, #0
 282 0006 46D0     		beq	.L32
 283              	.LVL23:
ARM GAS  /tmp/ccfni7Yz.s 			page 6


 284              	.L23:
 285              		.loc 1 194 0
 286 0008 57F8086C 		ldr	r6, [r7, #-8]
 287              		.loc 1 193 0
 288 000c A7F10805 		sub	r5, r7, #8
 289              	.LVL24:
 290              		.loc 1 196 0
 291 0010 06F11000 		add	r0, r6, #16
 292 0014 FFF7FEFF 		bl	chMtxLock
 293              	.LVL25:
 294              		.loc 1 195 0
 295 0018 0836     		adds	r6, r6, #8
 296              	.LVL26:
 297 001a 3446     		mov	r4, r6
 298              	.LVL27:
 299              	.L31:
 300              		.loc 1 199 0
 301 001c AC42     		cmp	r4, r5
 302 001e 04D8     		bhi	.L24
 303              		.loc 1 199 0 is_stmt 0 discriminator 1
 304 0020 6068     		ldr	r0, [r4, #4]
 305 0022 0830     		adds	r0, r0, #8
 306 0024 2318     		adds	r3, r4, r0
 307 0026 9D42     		cmp	r5, r3
 308 0028 1FD3     		bcc	.L33
 309              	.L24:
 310              		.loc 1 203 0 is_stmt 1
 311 002a B442     		cmp	r4, r6
 312              		.loc 1 204 0
 313 002c 2368     		ldr	r3, [r4, #0]
 314              		.loc 1 203 0
 315 002e 01D0     		beq	.L25
 316              		.loc 1 203 0 is_stmt 0 discriminator 2
 317 0030 AC42     		cmp	r4, r5
 318 0032 02D2     		bcs	.L28
 319              	.L25:
 320              		.loc 1 203 0 discriminator 1
 321 0034 1BB1     		cbz	r3, .L27
 322              		.loc 1 204 0 is_stmt 1
 323 0036 9D42     		cmp	r5, r3
 324 0038 01D3     		bcc	.L27
 325              	.L28:
 326              	.LVL28:
 327              		.loc 1 221 0
 328 003a 1C46     		mov	r4, r3
 329              	.LVL29:
 330              		.loc 1 222 0
 331 003c EEE7     		b	.L31
 332              	.LVL30:
 333              	.L27:
 334              		.loc 1 209 0
 335 003e 57F8042C 		ldr	r2, [r7, #-4]
 336              		.loc 1 206 0
 337 0042 47F8083C 		str	r3, [r7, #-8]
 338              		.loc 1 207 0
 339 0046 2560     		str	r5, [r4, #0]
 340              		.loc 1 209 0
ARM GAS  /tmp/ccfni7Yz.s 			page 7


 341 0048 02F10800 		add	r0, r2, #8
 342 004c 57F8083C 		ldr	r3, [r7, #-8]
 343 0050 2918     		adds	r1, r5, r0
 344 0052 9942     		cmp	r1, r3
 345 0054 0DD0     		beq	.L34
 346              		.loc 1 214 0
 347 0056 6168     		ldr	r1, [r4, #4]
 348 0058 0831     		adds	r1, r1, #8
 349 005a 04EB010C 		add	ip, r4, r1
 350 005e 6545     		cmp	r5, ip
 351 0060 15D0     		beq	.L35
 352              	.L30:
 353              		.loc 1 226 0
 354 0062 BDE8F840 		pop	{r3, r4, r5, r6, r7, lr}
 355              		.loc 1 224 0
 356 0066 FFF7FEBF 		b	chMtxUnlock
 357              	.L33:
 358              		.loc 1 199 0 discriminator 2
 359 006a 0D48     		ldr	r0, .L36
 360 006c FFF7FEFF 		bl	chDbgPanic
 361 0070 DBE7     		b	.L24
 362              	.L34:
 363              		.loc 1 211 0
 364 0072 5968     		ldr	r1, [r3, #4]
 365              		.loc 1 212 0
 366 0074 1B68     		ldr	r3, [r3, #0]
 367              		.loc 1 211 0
 368 0076 5218     		adds	r2, r2, r1
 369 0078 0832     		adds	r2, r2, #8
 370 007a 47F8042C 		str	r2, [r7, #-4]
 371              		.loc 1 214 0
 372 007e 6168     		ldr	r1, [r4, #4]
 373              		.loc 1 212 0
 374 0080 47F8083C 		str	r3, [r7, #-8]
 375              		.loc 1 214 0
 376 0084 0831     		adds	r1, r1, #8
 377 0086 04EB010C 		add	ip, r4, r1
 378 008a 6545     		cmp	r5, ip
 379 008c E9D1     		bne	.L30
 380              	.L35:
 381              		.loc 1 216 0
 382 008e 8A18     		adds	r2, r1, r2
 383 0090 6260     		str	r2, [r4, #4]
 384              		.loc 1 217 0
 385 0092 2360     		str	r3, [r4, #0]
 386 0094 E5E7     		b	.L30
 387              	.LVL31:
 388              	.L32:
 389              		.loc 1 191 0 discriminator 1
 390 0096 0348     		ldr	r0, .L36+4
 391 0098 FFF7FEFF 		bl	chDbgPanic
 392 009c B4E7     		b	.L23
 393              	.L37:
 394 009e 00BF     		.align	2
 395              	.L36:
 396 00a0 20000000 		.word	.LC2
 397 00a4 10000000 		.word	.LC1
ARM GAS  /tmp/ccfni7Yz.s 			page 8


 398              		.cfi_endproc
 399              	.LFE10:
 400              		.size	chHeapFree, .-chHeapFree
 401 00a8 AFF30080 		.section	.text.chHeapStatus,"ax",%progbits
 401      AFF30080 
 402              		.align	2
 403              		.p2align 4,,15
 404              		.global	chHeapStatus
 405              		.thumb
 406              		.thumb_func
 407              		.type	chHeapStatus, %function
 408              	chHeapStatus:
 409              	.LFB11:
 410              		.loc 1 243 0
 411              		.cfi_startproc
 412              		@ args = 0, pretend = 0, frame = 0
 413              		@ frame_needed = 0, uses_anonymous_args = 0
 414              	.LVL32:
 415 0000 38B5     		push	{r3, r4, r5, lr}
 416              	.LCFI3:
 417              		.cfi_def_cfa_offset 16
 418              		.cfi_offset 14, -4
 419              		.cfi_offset 5, -8
 420              		.cfi_offset 4, -12
 421              		.cfi_offset 3, -16
 422              		.loc 1 248 0
 423 0002 0E4C     		ldr	r4, .L46
 424              		.loc 1 243 0
 425 0004 0D46     		mov	r5, r1
 426              		.loc 1 248 0
 427 0006 0028     		cmp	r0, #0
 428 0008 18BF     		it	ne
 429 000a 0446     		movne	r4, r0
 430              		.loc 1 250 0
 431 000c 04F11000 		add	r0, r4, #16
 432              	.LVL33:
 433 0010 FFF7FEFF 		bl	chMtxLock
 434              	.LVL34:
 435              		.loc 1 253 0
 436 0014 A368     		ldr	r3, [r4, #8]
 437 0016 6BB1     		cbz	r3, .L44
 438 0018 0022     		movs	r2, #0
 439 001a 1446     		mov	r4, r2
 440              	.LVL35:
 441              	.L41:
 442              		.loc 1 254 0 discriminator 2
 443 001c 5968     		ldr	r1, [r3, #4]
 444              		.loc 1 253 0 discriminator 2
 445 001e 1B68     		ldr	r3, [r3, #0]
 446              		.loc 1 254 0 discriminator 2
 447 0020 5218     		adds	r2, r2, r1
 448              	.LVL36:
 449              		.loc 1 253 0 discriminator 2
 450 0022 0134     		adds	r4, r4, #1
 451              	.LVL37:
 452 0024 002B     		cmp	r3, #0
 453 0026 F9D1     		bne	.L41
ARM GAS  /tmp/ccfni7Yz.s 			page 9


 454              	.LVL38:
 455              	.L40:
 456              		.loc 1 255 0
 457 0028 05B1     		cbz	r5, .L42
 458              		.loc 1 256 0
 459 002a 2A60     		str	r2, [r5, #0]
 460              	.L42:
 461              		.loc 1 258 0
 462 002c FFF7FEFF 		bl	chMtxUnlock
 463              		.loc 1 260 0
 464 0030 2046     		mov	r0, r4
 465 0032 38BD     		pop	{r3, r4, r5, pc}
 466              	.LVL39:
 467              	.L44:
 468              		.loc 1 252 0
 469 0034 1A46     		mov	r2, r3
 470              		.loc 1 253 0
 471 0036 1C46     		mov	r4, r3
 472 0038 F6E7     		b	.L40
 473              	.L47:
 474 003a 00BF     		.align	2
 475              	.L46:
 476 003c 00000000 		.word	.LANCHOR0
 477              		.cfi_endproc
 478              	.LFE11:
 479              		.size	chHeapStatus, .-chHeapStatus
 480              		.section	.rodata.str1.4,"aMS",%progbits,1
 481              		.align	2
 482              	.LC0:
 483 0000 22636848 		.ascii	"\"chHeapInit\"()\000"
 483      65617049 
 483      6E697422 
 483      282900
 484 000f 00       		.space	1
 485              	.LC1:
 486 0010 22636848 		.ascii	"\"chHeapFree\"()\000"
 486      65617046 
 486      72656522 
 486      282900
 487 001f 00       		.space	1
 488              	.LC2:
 489 0020 63684865 		.ascii	"chHeapFree(), #1\000"
 489      61704672 
 489      65652829 
 489      2C202331 
 489      00
 490 0031 000000   		.section	.bss.default_heap,"aw",%nobits
 491              		.align	3
 492              		.set	.LANCHOR0,. + 0
 493              		.type	default_heap, %object
 494              		.size	default_heap, 32
 495              	default_heap:
 496 0000 00000000 		.space	32
 496      00000000 
 496      00000000 
 496      00000000 
 496      00000000 
ARM GAS  /tmp/ccfni7Yz.s 			page 10


 497              		.text
 498              	.Letext0:
 499              		.file 2 "/home/tino/ChibiStudio/tools/GNU Tools ARM Embedded/4.6 2012q2/bin/../lib/gcc/arm-none-ea
 500              		.file 3 "/home/tino/ChibiStudio/tools/GNU Tools ARM Embedded/4.6 2012q2/bin/../lib/gcc/arm-none-ea
 501              		.file 4 "../../ChibiOS/os/ports/GCC/ARMCMx/chtypes.h"
 502              		.file 5 "../../ChibiOS/os/kernel/include/chlists.h"
 503              		.file 6 "../../ChibiOS/os/kernel/include/chthreads.h"
 504              		.file 7 "../../ChibiOS/os/ports/GCC/ARMCMx/chcore_v7m.h"
 505              		.file 8 "../../ChibiOS/os/kernel/include/chmtx.h"
 506              		.file 9 "../../ChibiOS/os/kernel/include/chmemcore.h"
 507              		.file 10 "../../ChibiOS/os/kernel/include/chheap.h"