ARM GAS  /tmp/ccMLpdil.s 			page 1


   1              		.syntax unified
   2              		.cpu cortex-m3
   3              		.fpu softvfp
   4              		.eabi_attribute 20, 1
   5              		.eabi_attribute 21, 1
   6              		.eabi_attribute 23, 3
   7              		.eabi_attribute 24, 1
   8              		.eabi_attribute 25, 1
   9              		.eabi_attribute 26, 1
  10              		.eabi_attribute 30, 2
  11              		.eabi_attribute 34, 1
  12              		.eabi_attribute 18, 4
  13              		.thumb
  14              		.file	"chmboxes.c"
  15              		.text
  16              	.Ltext0:
  17              		.cfi_sections	.debug_frame
  18              		.section	.text.chMBInit,"ax",%progbits
  19              		.align	2
  20              		.p2align 4,,15
  21              		.global	chMBInit
  22              		.thumb
  23              		.thumb_func
  24              		.type	chMBInit, %function
  25              	chMBInit:
  26              	.LFB7:
  27              		.file 1 "../../ChibiOS/os/kernel/src/chmboxes.c"
  28              		.loc 1 65 0
  29              		.cfi_startproc
  30              		@ args = 0, pretend = 0, frame = 0
  31              		@ frame_needed = 0, uses_anonymous_args = 0
  32              	.LVL0:
  33 0000 70B5     		push	{r4, r5, r6, lr}
  34              	.LCFI0:
  35              		.cfi_def_cfa_offset 16
  36              		.cfi_offset 14, -4
  37              		.cfi_offset 6, -8
  38              		.cfi_offset 5, -12
  39              		.cfi_offset 4, -16
  40              		.loc 1 65 0
  41 0002 0446     		mov	r4, r0
  42 0004 0D46     		mov	r5, r1
  43 0006 1646     		mov	r6, r2
  44              		.loc 1 67 0
  45 0008 A0B1     		cbz	r0, .L2
  46              		.loc 1 67 0 is_stmt 0 discriminator 2
  47 000a 99B1     		cbz	r1, .L2
  48              		.loc 1 67 0 discriminator 3
  49 000c 002A     		cmp	r2, #0
  50 000e 11DD     		ble	.L2
  51              	.LVL1:
  52              	.L3:
  53              		.loc 1 70 0 is_stmt 1
  54 0010 05EB8603 		add	r3, r5, r6, lsl #2
  55              		.loc 1 71 0
  56 0014 04F11C00 		add	r0, r4, #28
  57 0018 3146     		mov	r1, r6
ARM GAS  /tmp/ccMLpdil.s 			page 2


  58              		.loc 1 69 0
  59 001a E560     		str	r5, [r4, #12]
  60 001c A560     		str	r5, [r4, #8]
  61 001e 2560     		str	r5, [r4, #0]
  62              		.loc 1 70 0
  63 0020 6360     		str	r3, [r4, #4]
  64              		.loc 1 71 0
  65 0022 FFF7FEFF 		bl	chSemInit
  66              		.loc 1 72 0
  67 0026 04F11000 		add	r0, r4, #16
  68 002a 0021     		movs	r1, #0
  69              		.loc 1 73 0
  70 002c BDE87040 		pop	{r4, r5, r6, lr}
  71              		.loc 1 72 0
  72 0030 FFF7FEBF 		b	chSemInit
  73              	.L2:
  74              		.loc 1 67 0 discriminator 1
  75 0034 0148     		ldr	r0, .L5
  76 0036 FFF7FEFF 		bl	chDbgPanic
  77 003a E9E7     		b	.L3
  78              	.L6:
  79              		.align	2
  80              	.L5:
  81 003c 00000000 		.word	.LC0
  82              		.cfi_endproc
  83              	.LFE7:
  84              		.size	chMBInit, .-chMBInit
  85              		.section	.text.chMBReset,"ax",%progbits
  86              		.align	2
  87              		.p2align 4,,15
  88              		.global	chMBReset
  89              		.thumb
  90              		.thumb_func
  91              		.type	chMBReset, %function
  92              	chMBReset:
  93              	.LFB8:
  94              		.loc 1 84 0
  95              		.cfi_startproc
  96              		@ args = 0, pretend = 0, frame = 0
  97              		@ frame_needed = 0, uses_anonymous_args = 0
  98              	.LVL2:
  99 0000 10B5     		push	{r4, lr}
 100              	.LCFI1:
 101              		.cfi_def_cfa_offset 8
 102              		.cfi_offset 14, -4
 103              		.cfi_offset 4, -8
 104              		.loc 1 84 0
 105 0002 0446     		mov	r4, r0
 106              		.loc 1 86 0
 107 0004 D8B1     		cbz	r0, .L9
 108              	.LVL3:
 109              	.L8:
 110              	.LBB2:
 111              		.loc 1 88 0
 112 0006 2023     		movs	r3, #32
 113              	.LVL4:
 114              	@ 88 "../../ChibiOS/os/kernel/src/chmboxes.c" 1
ARM GAS  /tmp/ccMLpdil.s 			page 3


 115 0008 83F31188 		msr     BASEPRI, r3
 116              	@ 0 "" 2
 117              	.LVL5:
 118              		.thumb
 119              	.LBE2:
 120 000c FFF7FEFF 		bl	dbg_check_lock
 121              	.LVL6:
 122              		.loc 1 89 0
 123 0010 2368     		ldr	r3, [r4, #0]
 124              		.loc 1 90 0
 125 0012 6268     		ldr	r2, [r4, #4]
 126              		.loc 1 89 0
 127 0014 E360     		str	r3, [r4, #12]
 128              		.loc 1 90 0
 129 0016 D11A     		subs	r1, r2, r3
 130              		.loc 1 89 0
 131 0018 A360     		str	r3, [r4, #8]
 132              		.loc 1 90 0
 133 001a 04F11C00 		add	r0, r4, #28
 134 001e 8910     		asrs	r1, r1, #2
 135 0020 FFF7FEFF 		bl	chSemResetI
 136              		.loc 1 91 0
 137 0024 04F11000 		add	r0, r4, #16
 138 0028 0021     		movs	r1, #0
 139 002a FFF7FEFF 		bl	chSemResetI
 140              		.loc 1 92 0
 141 002e FFF7FEFF 		bl	chSchRescheduleS
 142              		.loc 1 93 0
 143 0032 FFF7FEFF 		bl	dbg_check_unlock
 144              	.LBB3:
 145 0036 0023     		movs	r3, #0
 146              	.LVL7:
 147              	@ 93 "../../ChibiOS/os/kernel/src/chmboxes.c" 1
 148 0038 83F31188 		msr     BASEPRI, r3
 149              	@ 0 "" 2
 150              	.LVL8:
 151              		.thumb
 152              	.LBE3:
 153              		.loc 1 94 0
 154 003c 10BD     		pop	{r4, pc}
 155              	.LVL9:
 156              	.L9:
 157              		.loc 1 86 0 discriminator 1
 158 003e 0248     		ldr	r0, .L10
 159 0040 FFF7FEFF 		bl	chDbgPanic
 160 0044 DFE7     		b	.L8
 161              	.L11:
 162 0046 00BF     		.align	2
 163              	.L10:
 164 0048 10000000 		.word	.LC1
 165              		.cfi_endproc
 166              	.LFE8:
 167              		.size	chMBReset, .-chMBReset
 168 004c AFF30080 		.section	.text.chMBPost,"ax",%progbits
 169              		.align	2
 170              		.p2align 4,,15
 171              		.global	chMBPost
ARM GAS  /tmp/ccMLpdil.s 			page 4


 172              		.thumb
 173              		.thumb_func
 174              		.type	chMBPost, %function
 175              	chMBPost:
 176              	.LFB9:
 177              		.loc 1 115 0
 178              		.cfi_startproc
 179              		@ args = 0, pretend = 0, frame = 0
 180              		@ frame_needed = 0, uses_anonymous_args = 0
 181              	.LVL10:
 182 0000 70B5     		push	{r4, r5, r6, lr}
 183              	.LCFI2:
 184              		.cfi_def_cfa_offset 16
 185              		.cfi_offset 14, -4
 186              		.cfi_offset 6, -8
 187              		.cfi_offset 5, -12
 188              		.cfi_offset 4, -16
 189              	.LBB8:
 190              		.loc 1 118 0
 191 0002 2023     		movs	r3, #32
 192              	.LVL11:
 193              	.LBE8:
 194              		.loc 1 115 0
 195 0004 0446     		mov	r4, r0
 196 0006 0D46     		mov	r5, r1
 197 0008 1646     		mov	r6, r2
 198              	.LBB9:
 199              		.loc 1 118 0
 200              	@ 118 "../../ChibiOS/os/kernel/src/chmboxes.c" 1
 201 000a 83F31188 		msr     BASEPRI, r3
 202              	@ 0 "" 2
 203              	.LVL12:
 204              		.thumb
 205              	.LBE9:
 206 000e FFF7FEFF 		bl	dbg_check_lock
 207              	.LVL13:
 208              	.LBB10:
 209              	.LBB11:
 210              		.loc 1 146 0
 211 0012 FFF7FEFF 		bl	chDbgCheckClassS
 212              		.loc 1 147 0
 213 0016 ECB1     		cbz	r4, .L16
 214              	.L13:
 215              		.loc 1 149 0
 216 0018 3146     		mov	r1, r6
 217 001a 04F11C00 		add	r0, r4, #28
 218 001e FFF7FEFF 		bl	chSemWaitTimeoutS
 219 0022 0646     		mov	r6, r0
 220              	.LVL14:
 221              		.loc 1 150 0
 222 0024 78B9     		cbnz	r0, .L14
 223              		.loc 1 151 0
 224 0026 A368     		ldr	r3, [r4, #8]
 225              		.loc 1 152 0
 226 0028 6268     		ldr	r2, [r4, #4]
 227              		.loc 1 151 0
 228 002a 43F8045B 		str	r5, [r3], #4
ARM GAS  /tmp/ccMLpdil.s 			page 5


 229              		.loc 1 152 0
 230 002e 9342     		cmp	r3, r2
 231              		.loc 1 151 0
 232 0030 A360     		str	r3, [r4, #8]
 233              		.loc 1 153 0
 234 0032 28BF     		it	cs
 235 0034 2368     		ldrcs	r3, [r4, #0]
 236              		.loc 1 154 0
 237 0036 04F11000 		add	r0, r4, #16
 238              	.LVL15:
 239              		.loc 1 153 0
 240 003a 28BF     		it	cs
 241 003c A360     		strcs	r3, [r4, #8]
 242              		.loc 1 154 0
 243 003e FFF7FEFF 		bl	chSemSignalI
 244              		.loc 1 155 0
 245 0042 FFF7FEFF 		bl	chSchRescheduleS
 246              	.L14:
 247              	.LBE11:
 248              	.LBE10:
 249              		.loc 1 120 0
 250 0046 FFF7FEFF 		bl	dbg_check_unlock
 251              	.LBB13:
 252 004a 0023     		movs	r3, #0
 253              	.LVL16:
 254              	@ 120 "../../ChibiOS/os/kernel/src/chmboxes.c" 1
 255 004c 83F31188 		msr     BASEPRI, r3
 256              	@ 0 "" 2
 257              	.LVL17:
 258              		.thumb
 259              	.LBE13:
 260              		.loc 1 122 0
 261 0050 3046     		mov	r0, r6
 262 0052 70BD     		pop	{r4, r5, r6, pc}
 263              	.LVL18:
 264              	.L16:
 265              	.LBB14:
 266              	.LBB12:
 267              		.loc 1 147 0
 268 0054 0148     		ldr	r0, .L17
 269 0056 FFF7FEFF 		bl	chDbgPanic
 270 005a DDE7     		b	.L13
 271              	.L18:
 272              		.align	2
 273              	.L17:
 274 005c 20000000 		.word	.LC2
 275              	.LBE12:
 276              	.LBE14:
 277              		.cfi_endproc
 278              	.LFE9:
 279              		.size	chMBPost, .-chMBPost
 280              		.section	.text.chMBPostS,"ax",%progbits
 281              		.align	2
 282              		.p2align 4,,15
 283              		.global	chMBPostS
 284              		.thumb
 285              		.thumb_func
ARM GAS  /tmp/ccMLpdil.s 			page 6


 286              		.type	chMBPostS, %function
 287              	chMBPostS:
 288              	.LFB10:
 289              		.loc 1 143 0
 290              		.cfi_startproc
 291              		@ args = 0, pretend = 0, frame = 0
 292              		@ frame_needed = 0, uses_anonymous_args = 0
 293              	.LVL19:
 294 0000 70B5     		push	{r4, r5, r6, lr}
 295              	.LCFI3:
 296              		.cfi_def_cfa_offset 16
 297              		.cfi_offset 14, -4
 298              		.cfi_offset 6, -8
 299              		.cfi_offset 5, -12
 300              		.cfi_offset 4, -16
 301              		.loc 1 143 0
 302 0002 0446     		mov	r4, r0
 303 0004 0D46     		mov	r5, r1
 304 0006 1646     		mov	r6, r2
 305              		.loc 1 146 0
 306 0008 FFF7FEFF 		bl	chDbgCheckClassS
 307              	.LVL20:
 308              		.loc 1 147 0
 309 000c C4B1     		cbz	r4, .L23
 310              	.L20:
 311              		.loc 1 149 0
 312 000e 3146     		mov	r1, r6
 313 0010 04F11C00 		add	r0, r4, #28
 314 0014 FFF7FEFF 		bl	chSemWaitTimeoutS
 315 0018 0646     		mov	r6, r0
 316              	.LVL21:
 317              		.loc 1 150 0
 318 001a 78B9     		cbnz	r0, .L21
 319              		.loc 1 151 0
 320 001c A368     		ldr	r3, [r4, #8]
 321              		.loc 1 152 0
 322 001e 6268     		ldr	r2, [r4, #4]
 323              		.loc 1 151 0
 324 0020 43F8045B 		str	r5, [r3], #4
 325              		.loc 1 152 0
 326 0024 9342     		cmp	r3, r2
 327              		.loc 1 151 0
 328 0026 A360     		str	r3, [r4, #8]
 329              		.loc 1 153 0
 330 0028 28BF     		it	cs
 331 002a 2368     		ldrcs	r3, [r4, #0]
 332              		.loc 1 154 0
 333 002c 04F11000 		add	r0, r4, #16
 334              	.LVL22:
 335              		.loc 1 153 0
 336 0030 28BF     		it	cs
 337 0032 A360     		strcs	r3, [r4, #8]
 338              		.loc 1 154 0
 339 0034 FFF7FEFF 		bl	chSemSignalI
 340              		.loc 1 155 0
 341 0038 FFF7FEFF 		bl	chSchRescheduleS
 342              	.L21:
ARM GAS  /tmp/ccMLpdil.s 			page 7


 343              		.loc 1 158 0
 344 003c 3046     		mov	r0, r6
 345 003e 70BD     		pop	{r4, r5, r6, pc}
 346              	.LVL23:
 347              	.L23:
 348              		.loc 1 147 0 discriminator 1
 349 0040 0148     		ldr	r0, .L24
 350 0042 FFF7FEFF 		bl	chDbgPanic
 351 0046 E2E7     		b	.L20
 352              	.L25:
 353              		.align	2
 354              	.L24:
 355 0048 20000000 		.word	.LC2
 356              		.cfi_endproc
 357              	.LFE10:
 358              		.size	chMBPostS, .-chMBPostS
 359 004c AFF30080 		.section	.text.chMBPostI,"ax",%progbits
 360              		.align	2
 361              		.p2align 4,,15
 362              		.global	chMBPostI
 363              		.thumb
 364              		.thumb_func
 365              		.type	chMBPostI, %function
 366              	chMBPostI:
 367              	.LFB11:
 368              		.loc 1 174 0
 369              		.cfi_startproc
 370              		@ args = 0, pretend = 0, frame = 0
 371              		@ frame_needed = 0, uses_anonymous_args = 0
 372              	.LVL24:
 373 0000 38B5     		push	{r3, r4, r5, lr}
 374              	.LCFI4:
 375              		.cfi_def_cfa_offset 16
 376              		.cfi_offset 14, -4
 377              		.cfi_offset 5, -8
 378              		.cfi_offset 4, -12
 379              		.cfi_offset 3, -16
 380              		.loc 1 174 0
 381 0002 0446     		mov	r4, r0
 382 0004 0D46     		mov	r5, r1
 383              		.loc 1 176 0
 384 0006 FFF7FEFF 		bl	chDbgCheckClassI
 385              	.LVL25:
 386              		.loc 1 177 0
 387 000a A4B1     		cbz	r4, .L31
 388              	.L27:
 389              		.loc 1 179 0
 390 000c 636A     		ldr	r3, [r4, #36]
 391 000e 002B     		cmp	r3, #0
 392 0010 15DD     		ble	.L30
 393              		.loc 1 182 0
 394 0012 A268     		ldr	r2, [r4, #8]
 395              		.loc 1 181 0
 396 0014 013B     		subs	r3, r3, #1
 397              		.loc 1 183 0
 398 0016 6168     		ldr	r1, [r4, #4]
 399              		.loc 1 181 0
ARM GAS  /tmp/ccMLpdil.s 			page 8


 400 0018 6362     		str	r3, [r4, #36]
 401              		.loc 1 182 0
 402 001a 42F8045B 		str	r5, [r2], #4
 403              		.loc 1 183 0
 404 001e 8A42     		cmp	r2, r1
 405              		.loc 1 184 0
 406 0020 28BF     		it	cs
 407 0022 2368     		ldrcs	r3, [r4, #0]
 408              		.loc 1 182 0
 409 0024 A260     		str	r2, [r4, #8]
 410              		.loc 1 185 0
 411 0026 04F11000 		add	r0, r4, #16
 412              		.loc 1 184 0
 413 002a 28BF     		it	cs
 414 002c A360     		strcs	r3, [r4, #8]
 415              		.loc 1 185 0
 416 002e FFF7FEFF 		bl	chSemSignalI
 417              		.loc 1 186 0
 418 0032 0020     		movs	r0, #0
 419 0034 38BD     		pop	{r3, r4, r5, pc}
 420              	.L31:
 421              		.loc 1 177 0 discriminator 1
 422 0036 0348     		ldr	r0, .L32
 423 0038 FFF7FEFF 		bl	chDbgPanic
 424 003c E6E7     		b	.L27
 425              	.L30:
 426              		.loc 1 180 0
 427 003e 4FF0FF30 		mov	r0, #-1
 428              		.loc 1 187 0
 429 0042 38BD     		pop	{r3, r4, r5, pc}
 430              	.L33:
 431              		.align	2
 432              	.L32:
 433 0044 30000000 		.word	.LC3
 434              		.cfi_endproc
 435              	.LFE11:
 436              		.size	chMBPostI, .-chMBPostI
 437 0048 AFF30080 		.section	.text.chMBPostAhead,"ax",%progbits
 437      AFF30080 
 438              		.align	2
 439              		.p2align 4,,15
 440              		.global	chMBPostAhead
 441              		.thumb
 442              		.thumb_func
 443              		.type	chMBPostAhead, %function
 444              	chMBPostAhead:
 445              	.LFB12:
 446              		.loc 1 208 0
 447              		.cfi_startproc
 448              		@ args = 0, pretend = 0, frame = 0
 449              		@ frame_needed = 0, uses_anonymous_args = 0
 450              	.LVL26:
 451 0000 70B5     		push	{r4, r5, r6, lr}
 452              	.LCFI5:
 453              		.cfi_def_cfa_offset 16
 454              		.cfi_offset 14, -4
 455              		.cfi_offset 6, -8
ARM GAS  /tmp/ccMLpdil.s 			page 9


 456              		.cfi_offset 5, -12
 457              		.cfi_offset 4, -16
 458              	.LBB19:
 459              		.loc 1 211 0
 460 0002 2023     		movs	r3, #32
 461              	.LVL27:
 462              	.LBE19:
 463              		.loc 1 208 0
 464 0004 0446     		mov	r4, r0
 465 0006 0D46     		mov	r5, r1
 466 0008 1646     		mov	r6, r2
 467              	.LBB20:
 468              		.loc 1 211 0
 469              	@ 211 "../../ChibiOS/os/kernel/src/chmboxes.c" 1
 470 000a 83F31188 		msr     BASEPRI, r3
 471              	@ 0 "" 2
 472              	.LVL28:
 473              		.thumb
 474              	.LBE20:
 475 000e FFF7FEFF 		bl	dbg_check_lock
 476              	.LVL29:
 477              	.LBB21:
 478              	.LBB22:
 479              		.loc 1 239 0
 480 0012 FFF7FEFF 		bl	chDbgCheckClassS
 481              		.loc 1 240 0
 482 0016 F4B1     		cbz	r4, .L38
 483              	.L35:
 484              		.loc 1 242 0
 485 0018 3146     		mov	r1, r6
 486 001a 04F11C00 		add	r0, r4, #28
 487 001e FFF7FEFF 		bl	chSemWaitTimeoutS
 488 0022 0646     		mov	r6, r0
 489              	.LVL30:
 490              		.loc 1 243 0
 491 0024 60B9     		cbnz	r0, .L36
 492              		.loc 1 244 0
 493 0026 E368     		ldr	r3, [r4, #12]
 494 0028 2268     		ldr	r2, [r4, #0]
 495 002a 043B     		subs	r3, r3, #4
 496 002c 9342     		cmp	r3, r2
 497 002e E360     		str	r3, [r4, #12]
 498 0030 0DD3     		bcc	.L39
 499              	.LVL31:
 500              	.L37:
 501              		.loc 1 247 0
 502 0032 04F11000 		add	r0, r4, #16
 503              		.loc 1 246 0
 504 0036 1D60     		str	r5, [r3, #0]
 505              		.loc 1 247 0
 506 0038 FFF7FEFF 		bl	chSemSignalI
 507              		.loc 1 248 0
 508 003c FFF7FEFF 		bl	chSchRescheduleS
 509              	.L36:
 510              	.LBE22:
 511              	.LBE21:
 512              		.loc 1 213 0
ARM GAS  /tmp/ccMLpdil.s 			page 10


 513 0040 FFF7FEFF 		bl	dbg_check_unlock
 514              	.LBB24:
 515 0044 0023     		movs	r3, #0
 516              	.LVL32:
 517              	@ 213 "../../ChibiOS/os/kernel/src/chmboxes.c" 1
 518 0046 83F31188 		msr     BASEPRI, r3
 519              	@ 0 "" 2
 520              	.LVL33:
 521              		.thumb
 522              	.LBE24:
 523              		.loc 1 215 0
 524 004a 3046     		mov	r0, r6
 525 004c 70BD     		pop	{r4, r5, r6, pc}
 526              	.LVL34:
 527              	.L39:
 528              	.LBB25:
 529              	.LBB23:
 530              		.loc 1 245 0
 531 004e 6068     		ldr	r0, [r4, #4]
 532 0050 031F     		subs	r3, r0, #4
 533 0052 E360     		str	r3, [r4, #12]
 534 0054 EDE7     		b	.L37
 535              	.LVL35:
 536              	.L38:
 537              		.loc 1 240 0
 538 0056 0248     		ldr	r0, .L40
 539 0058 FFF7FEFF 		bl	chDbgPanic
 540 005c DCE7     		b	.L35
 541              	.L41:
 542 005e 00BF     		.align	2
 543              	.L40:
 544 0060 40000000 		.word	.LC4
 545              	.LBE23:
 546              	.LBE25:
 547              		.cfi_endproc
 548              	.LFE12:
 549              		.size	chMBPostAhead, .-chMBPostAhead
 550 0064 AFF30080 		.section	.text.chMBPostAheadS,"ax",%progbits
 550      AFF30080 
 550      AFF30080 
 551              		.align	2
 552              		.p2align 4,,15
 553              		.global	chMBPostAheadS
 554              		.thumb
 555              		.thumb_func
 556              		.type	chMBPostAheadS, %function
 557              	chMBPostAheadS:
 558              	.LFB13:
 559              		.loc 1 236 0
 560              		.cfi_startproc
 561              		@ args = 0, pretend = 0, frame = 0
 562              		@ frame_needed = 0, uses_anonymous_args = 0
 563              	.LVL36:
 564 0000 70B5     		push	{r4, r5, r6, lr}
 565              	.LCFI6:
 566              		.cfi_def_cfa_offset 16
 567              		.cfi_offset 14, -4
ARM GAS  /tmp/ccMLpdil.s 			page 11


 568              		.cfi_offset 6, -8
 569              		.cfi_offset 5, -12
 570              		.cfi_offset 4, -16
 571              		.loc 1 236 0
 572 0002 0446     		mov	r4, r0
 573 0004 0D46     		mov	r5, r1
 574 0006 1646     		mov	r6, r2
 575              		.loc 1 239 0
 576 0008 FFF7FEFF 		bl	chDbgCheckClassS
 577              	.LVL37:
 578              		.loc 1 240 0
 579 000c CCB1     		cbz	r4, .L46
 580              	.L43:
 581              		.loc 1 242 0
 582 000e 3146     		mov	r1, r6
 583 0010 04F11C00 		add	r0, r4, #28
 584 0014 FFF7FEFF 		bl	chSemWaitTimeoutS
 585 0018 0646     		mov	r6, r0
 586              	.LVL38:
 587              		.loc 1 243 0
 588 001a 60B9     		cbnz	r0, .L44
 589              		.loc 1 244 0
 590 001c E368     		ldr	r3, [r4, #12]
 591 001e 2268     		ldr	r2, [r4, #0]
 592 0020 043B     		subs	r3, r3, #4
 593 0022 9342     		cmp	r3, r2
 594 0024 E360     		str	r3, [r4, #12]
 595 0026 08D3     		bcc	.L47
 596              	.LVL39:
 597              	.L45:
 598              		.loc 1 247 0
 599 0028 04F11000 		add	r0, r4, #16
 600              		.loc 1 246 0
 601 002c 1D60     		str	r5, [r3, #0]
 602              		.loc 1 247 0
 603 002e FFF7FEFF 		bl	chSemSignalI
 604              		.loc 1 248 0
 605 0032 FFF7FEFF 		bl	chSchRescheduleS
 606              	.L44:
 607              		.loc 1 251 0
 608 0036 3046     		mov	r0, r6
 609 0038 70BD     		pop	{r4, r5, r6, pc}
 610              	.L47:
 611              		.loc 1 245 0
 612 003a 6068     		ldr	r0, [r4, #4]
 613 003c 031F     		subs	r3, r0, #4
 614 003e E360     		str	r3, [r4, #12]
 615 0040 F2E7     		b	.L45
 616              	.LVL40:
 617              	.L46:
 618              		.loc 1 240 0 discriminator 1
 619 0042 0248     		ldr	r0, .L48
 620 0044 FFF7FEFF 		bl	chDbgPanic
 621 0048 E1E7     		b	.L43
 622              	.L49:
 623 004a 00BF     		.align	2
 624              	.L48:
ARM GAS  /tmp/ccMLpdil.s 			page 12


 625 004c 40000000 		.word	.LC4
 626              		.cfi_endproc
 627              	.LFE13:
 628              		.size	chMBPostAheadS, .-chMBPostAheadS
 629              		.section	.text.chMBPostAheadI,"ax",%progbits
 630              		.align	2
 631              		.p2align 4,,15
 632              		.global	chMBPostAheadI
 633              		.thumb
 634              		.thumb_func
 635              		.type	chMBPostAheadI, %function
 636              	chMBPostAheadI:
 637              	.LFB14:
 638              		.loc 1 267 0
 639              		.cfi_startproc
 640              		@ args = 0, pretend = 0, frame = 0
 641              		@ frame_needed = 0, uses_anonymous_args = 0
 642              	.LVL41:
 643 0000 38B5     		push	{r3, r4, r5, lr}
 644              	.LCFI7:
 645              		.cfi_def_cfa_offset 16
 646              		.cfi_offset 14, -4
 647              		.cfi_offset 5, -8
 648              		.cfi_offset 4, -12
 649              		.cfi_offset 3, -16
 650              		.loc 1 267 0
 651 0002 0446     		mov	r4, r0
 652 0004 0D46     		mov	r5, r1
 653              		.loc 1 269 0
 654 0006 FFF7FEFF 		bl	chDbgCheckClassI
 655              	.LVL42:
 656              		.loc 1 270 0
 657 000a A4B1     		cbz	r4, .L55
 658              	.L51:
 659              		.loc 1 272 0
 660 000c 636A     		ldr	r3, [r4, #36]
 661 000e 002B     		cmp	r3, #0
 662 0010 15DD     		ble	.L54
 663              		.loc 1 275 0
 664 0012 E268     		ldr	r2, [r4, #12]
 665 0014 2168     		ldr	r1, [r4, #0]
 666 0016 043A     		subs	r2, r2, #4
 667              		.loc 1 274 0
 668 0018 013B     		subs	r3, r3, #1
 669              		.loc 1 275 0
 670 001a 8A42     		cmp	r2, r1
 671              		.loc 1 274 0
 672 001c 6362     		str	r3, [r4, #36]
 673              		.loc 1 275 0
 674 001e E260     		str	r2, [r4, #12]
 675 0020 02D2     		bcs	.L53
 676              		.loc 1 276 0
 677 0022 6068     		ldr	r0, [r4, #4]
 678 0024 021F     		subs	r2, r0, #4
 679 0026 E260     		str	r2, [r4, #12]
 680              	.L53:
 681              		.loc 1 278 0
ARM GAS  /tmp/ccMLpdil.s 			page 13


 682 0028 04F11000 		add	r0, r4, #16
 683              		.loc 1 277 0
 684 002c 1560     		str	r5, [r2, #0]
 685              		.loc 1 278 0
 686 002e FFF7FEFF 		bl	chSemSignalI
 687              		.loc 1 279 0
 688 0032 0020     		movs	r0, #0
 689 0034 38BD     		pop	{r3, r4, r5, pc}
 690              	.L55:
 691              		.loc 1 270 0 discriminator 1
 692 0036 0348     		ldr	r0, .L56
 693 0038 FFF7FEFF 		bl	chDbgPanic
 694 003c E6E7     		b	.L51
 695              	.L54:
 696              		.loc 1 273 0
 697 003e 4FF0FF30 		mov	r0, #-1
 698              		.loc 1 280 0
 699 0042 38BD     		pop	{r3, r4, r5, pc}
 700              	.L57:
 701              		.align	2
 702              	.L56:
 703 0044 54000000 		.word	.LC5
 704              		.cfi_endproc
 705              	.LFE14:
 706              		.size	chMBPostAheadI, .-chMBPostAheadI
 707 0048 AFF30080 		.section	.text.chMBFetch,"ax",%progbits
 707      AFF30080 
 708              		.align	2
 709              		.p2align 4,,15
 710              		.global	chMBFetch
 711              		.thumb
 712              		.thumb_func
 713              		.type	chMBFetch, %function
 714              	chMBFetch:
 715              	.LFB15:
 716              		.loc 1 301 0
 717              		.cfi_startproc
 718              		@ args = 0, pretend = 0, frame = 0
 719              		@ frame_needed = 0, uses_anonymous_args = 0
 720              	.LVL43:
 721 0000 70B5     		push	{r4, r5, r6, lr}
 722              	.LCFI8:
 723              		.cfi_def_cfa_offset 16
 724              		.cfi_offset 14, -4
 725              		.cfi_offset 6, -8
 726              		.cfi_offset 5, -12
 727              		.cfi_offset 4, -16
 728              	.LBB30:
 729              		.loc 1 304 0
 730 0002 2023     		movs	r3, #32
 731              	.LVL44:
 732              	.LBE30:
 733              		.loc 1 301 0
 734 0004 0446     		mov	r4, r0
 735 0006 0D46     		mov	r5, r1
 736 0008 1646     		mov	r6, r2
 737              	.LBB31:
ARM GAS  /tmp/ccMLpdil.s 			page 14


 738              		.loc 1 304 0
 739              	@ 304 "../../ChibiOS/os/kernel/src/chmboxes.c" 1
 740 000a 83F31188 		msr     BASEPRI, r3
 741              	@ 0 "" 2
 742              	.LVL45:
 743              		.thumb
 744              	.LBE31:
 745 000e FFF7FEFF 		bl	dbg_check_lock
 746              	.LVL46:
 747              	.LBB32:
 748              	.LBB33:
 749              		.loc 1 332 0
 750 0012 FFF7FEFF 		bl	chDbgCheckClassS
 751              		.loc 1 333 0
 752 0016 F4B1     		cbz	r4, .L59
 753 0018 EDB1     		cbz	r5, .L59
 754              	.L60:
 755              		.loc 1 335 0
 756 001a 3146     		mov	r1, r6
 757 001c 04F11000 		add	r0, r4, #16
 758 0020 FFF7FEFF 		bl	chSemWaitTimeoutS
 759 0024 0646     		mov	r6, r0
 760              	.LVL47:
 761              		.loc 1 336 0
 762 0026 78B9     		cbnz	r0, .L61
 763              		.loc 1 337 0
 764 0028 E368     		ldr	r3, [r4, #12]
 765              		.loc 1 338 0
 766 002a 6268     		ldr	r2, [r4, #4]
 767              		.loc 1 337 0
 768 002c 53F8041B 		ldr	r1, [r3], #4
 769              		.loc 1 340 0
 770 0030 04F11C00 		add	r0, r4, #28
 771              	.LVL48:
 772              		.loc 1 338 0
 773 0034 9342     		cmp	r3, r2
 774              		.loc 1 337 0
 775 0036 2960     		str	r1, [r5, #0]
 776 0038 E360     		str	r3, [r4, #12]
 777              		.loc 1 339 0
 778 003a 24BF     		itt	cs
 779 003c 2368     		ldrcs	r3, [r4, #0]
 780 003e E360     		strcs	r3, [r4, #12]
 781              		.loc 1 340 0
 782 0040 FFF7FEFF 		bl	chSemSignalI
 783              		.loc 1 341 0
 784 0044 FFF7FEFF 		bl	chSchRescheduleS
 785              	.L61:
 786              	.LBE33:
 787              	.LBE32:
 788              		.loc 1 306 0
 789 0048 FFF7FEFF 		bl	dbg_check_unlock
 790              	.LBB35:
 791 004c 0023     		movs	r3, #0
 792              	.LVL49:
 793              	@ 306 "../../ChibiOS/os/kernel/src/chmboxes.c" 1
 794 004e 83F31188 		msr     BASEPRI, r3
ARM GAS  /tmp/ccMLpdil.s 			page 15


 795              	@ 0 "" 2
 796              	.LVL50:
 797              		.thumb
 798              	.LBE35:
 799              		.loc 1 308 0
 800 0052 3046     		mov	r0, r6
 801 0054 70BD     		pop	{r4, r5, r6, pc}
 802              	.LVL51:
 803              	.L59:
 804              	.LBB36:
 805              	.LBB34:
 806              		.loc 1 333 0
 807 0056 0248     		ldr	r0, .L63
 808 0058 FFF7FEFF 		bl	chDbgPanic
 809 005c DDE7     		b	.L60
 810              	.L64:
 811 005e 00BF     		.align	2
 812              	.L63:
 813 0060 68000000 		.word	.LC6
 814              	.LBE34:
 815              	.LBE36:
 816              		.cfi_endproc
 817              	.LFE15:
 818              		.size	chMBFetch, .-chMBFetch
 819 0064 AFF30080 		.section	.text.chMBFetchS,"ax",%progbits
 819      AFF30080 
 819      AFF30080 
 820              		.align	2
 821              		.p2align 4,,15
 822              		.global	chMBFetchS
 823              		.thumb
 824              		.thumb_func
 825              		.type	chMBFetchS, %function
 826              	chMBFetchS:
 827              	.LFB16:
 828              		.loc 1 329 0
 829              		.cfi_startproc
 830              		@ args = 0, pretend = 0, frame = 0
 831              		@ frame_needed = 0, uses_anonymous_args = 0
 832              	.LVL52:
 833 0000 70B5     		push	{r4, r5, r6, lr}
 834              	.LCFI9:
 835              		.cfi_def_cfa_offset 16
 836              		.cfi_offset 14, -4
 837              		.cfi_offset 6, -8
 838              		.cfi_offset 5, -12
 839              		.cfi_offset 4, -16
 840              		.loc 1 329 0
 841 0002 0446     		mov	r4, r0
 842 0004 0D46     		mov	r5, r1
 843 0006 1646     		mov	r6, r2
 844              		.loc 1 332 0
 845 0008 FFF7FEFF 		bl	chDbgCheckClassS
 846              	.LVL53:
 847              		.loc 1 333 0
 848 000c CCB1     		cbz	r4, .L66
 849              		.loc 1 333 0 is_stmt 0 discriminator 2
ARM GAS  /tmp/ccMLpdil.s 			page 16


 850 000e C5B1     		cbz	r5, .L66
 851              	.L67:
 852              		.loc 1 335 0 is_stmt 1
 853 0010 3146     		mov	r1, r6
 854 0012 04F11000 		add	r0, r4, #16
 855 0016 FFF7FEFF 		bl	chSemWaitTimeoutS
 856 001a 0646     		mov	r6, r0
 857              	.LVL54:
 858              		.loc 1 336 0
 859 001c 78B9     		cbnz	r0, .L68
 860              		.loc 1 337 0
 861 001e E368     		ldr	r3, [r4, #12]
 862              		.loc 1 338 0
 863 0020 6268     		ldr	r2, [r4, #4]
 864              		.loc 1 337 0
 865 0022 53F8041B 		ldr	r1, [r3], #4
 866              		.loc 1 340 0
 867 0026 04F11C00 		add	r0, r4, #28
 868              	.LVL55:
 869              		.loc 1 338 0
 870 002a 9342     		cmp	r3, r2
 871              		.loc 1 337 0
 872 002c 2960     		str	r1, [r5, #0]
 873 002e E360     		str	r3, [r4, #12]
 874              		.loc 1 339 0
 875 0030 24BF     		itt	cs
 876 0032 2368     		ldrcs	r3, [r4, #0]
 877 0034 E360     		strcs	r3, [r4, #12]
 878              		.loc 1 340 0
 879 0036 FFF7FEFF 		bl	chSemSignalI
 880              		.loc 1 341 0
 881 003a FFF7FEFF 		bl	chSchRescheduleS
 882              	.L68:
 883              		.loc 1 344 0
 884 003e 3046     		mov	r0, r6
 885 0040 70BD     		pop	{r4, r5, r6, pc}
 886              	.LVL56:
 887              	.L66:
 888              		.loc 1 333 0 discriminator 1
 889 0042 0248     		ldr	r0, .L70
 890 0044 FFF7FEFF 		bl	chDbgPanic
 891 0048 E2E7     		b	.L67
 892              	.L71:
 893 004a 00BF     		.align	2
 894              	.L70:
 895 004c 68000000 		.word	.LC6
 896              		.cfi_endproc
 897              	.LFE16:
 898              		.size	chMBFetchS, .-chMBFetchS
 899              		.section	.text.chMBFetchI,"ax",%progbits
 900              		.align	2
 901              		.p2align 4,,15
 902              		.global	chMBFetchI
 903              		.thumb
 904              		.thumb_func
 905              		.type	chMBFetchI, %function
 906              	chMBFetchI:
ARM GAS  /tmp/ccMLpdil.s 			page 17


 907              	.LFB17:
 908              		.loc 1 360 0
 909              		.cfi_startproc
 910              		@ args = 0, pretend = 0, frame = 0
 911              		@ frame_needed = 0, uses_anonymous_args = 0
 912              	.LVL57:
 913 0000 38B5     		push	{r3, r4, r5, lr}
 914              	.LCFI10:
 915              		.cfi_def_cfa_offset 16
 916              		.cfi_offset 14, -4
 917              		.cfi_offset 5, -8
 918              		.cfi_offset 4, -12
 919              		.cfi_offset 3, -16
 920              		.loc 1 360 0
 921 0002 0446     		mov	r4, r0
 922 0004 0D46     		mov	r5, r1
 923              		.loc 1 362 0
 924 0006 FFF7FEFF 		bl	chDbgCheckClassI
 925              	.LVL58:
 926              		.loc 1 363 0
 927 000a B4B1     		cbz	r4, .L73
 928              		.loc 1 363 0 is_stmt 0 discriminator 2
 929 000c ADB1     		cbz	r5, .L73
 930              	.L74:
 931              		.loc 1 365 0 is_stmt 1
 932 000e A369     		ldr	r3, [r4, #24]
 933 0010 002B     		cmp	r3, #0
 934 0012 16DD     		ble	.L77
 935              		.loc 1 368 0
 936 0014 E268     		ldr	r2, [r4, #12]
 937              		.loc 1 367 0
 938 0016 581E     		subs	r0, r3, #1
 939 0018 A061     		str	r0, [r4, #24]
 940              		.loc 1 368 0
 941 001a 52F8041B 		ldr	r1, [r2], #4
 942              		.loc 1 369 0
 943 001e 6368     		ldr	r3, [r4, #4]
 944              		.loc 1 371 0
 945 0020 04F11C00 		add	r0, r4, #28
 946              		.loc 1 369 0
 947 0024 9A42     		cmp	r2, r3
 948              		.loc 1 370 0
 949 0026 28BF     		it	cs
 950 0028 2368     		ldrcs	r3, [r4, #0]
 951              		.loc 1 368 0
 952 002a 2960     		str	r1, [r5, #0]
 953 002c E260     		str	r2, [r4, #12]
 954              		.loc 1 370 0
 955 002e 28BF     		it	cs
 956 0030 E360     		strcs	r3, [r4, #12]
 957              		.loc 1 371 0
 958 0032 FFF7FEFF 		bl	chSemSignalI
 959              		.loc 1 372 0
 960 0036 0020     		movs	r0, #0
 961 0038 38BD     		pop	{r3, r4, r5, pc}
 962              	.L73:
 963              		.loc 1 363 0 discriminator 1
ARM GAS  /tmp/ccMLpdil.s 			page 18


 964 003a 0348     		ldr	r0, .L78
 965 003c FFF7FEFF 		bl	chDbgPanic
 966 0040 E5E7     		b	.L74
 967              	.L77:
 968              		.loc 1 366 0
 969 0042 4FF0FF30 		mov	r0, #-1
 970              		.loc 1 373 0
 971 0046 38BD     		pop	{r3, r4, r5, pc}
 972              	.L79:
 973              		.align	2
 974              	.L78:
 975 0048 78000000 		.word	.LC7
 976              		.cfi_endproc
 977              	.LFE17:
 978              		.size	chMBFetchI, .-chMBFetchI
 979 004c AFF30080 		.section	.rodata.str1.4,"aMS",%progbits,1
 980              		.align	2
 981              	.LC0:
 982 0000 2263684D 		.ascii	"\"chMBInit\"()\000"
 982      42496E69 
 982      74222829 
 982      00
 983 000d 000000   		.space	3
 984              	.LC1:
 985 0010 2263684D 		.ascii	"\"chMBReset\"()\000"
 985      42526573 
 985      65742228 
 985      2900
 986 001e 0000     		.space	2
 987              	.LC2:
 988 0020 2263684D 		.ascii	"\"chMBPostS\"()\000"
 988      42506F73 
 988      74532228 
 988      2900
 989 002e 0000     		.space	2
 990              	.LC3:
 991 0030 2263684D 		.ascii	"\"chMBPostI\"()\000"
 991      42506F73 
 991      74492228 
 991      2900
 992 003e 0000     		.space	2
 993              	.LC4:
 994 0040 2263684D 		.ascii	"\"chMBPostAheadS\"()\000"
 994      42506F73 
 994      74416865 
 994      61645322 
 994      282900
 995 0053 00       		.space	1
 996              	.LC5:
 997 0054 2263684D 		.ascii	"\"chMBPostAheadI\"()\000"
 997      42506F73 
 997      74416865 
 997      61644922 
 997      282900
 998 0067 00       		.space	1
 999              	.LC6:
 1000 0068 2263684D 		.ascii	"\"chMBFetchS\"()\000"
ARM GAS  /tmp/ccMLpdil.s 			page 19


 1000      42466574 
 1000      63685322 
 1000      282900
 1001 0077 00       		.space	1
 1002              	.LC7:
 1003 0078 2263684D 		.ascii	"\"chMBFetchI\"()\000"
 1003      42466574 
 1003      63684922 
 1003      282900
 1004 0087 00       		.text
 1005              	.Letext0:
 1006              		.file 2 "/home/tino/ChibiStudio/tools/GNU Tools ARM Embedded/4.6 2012q2/bin/../lib/gcc/arm-none-ea
 1007              		.file 3 "../../ChibiOS/os/ports/GCC/ARMCMx/chtypes.h"
 1008              		.file 4 "../../ChibiOS/os/kernel/include/chlists.h"
 1009              		.file 5 "../../ChibiOS/os/kernel/include/chthreads.h"
 1010              		.file 6 "../../ChibiOS/os/ports/GCC/ARMCMx/chcore_v7m.h"
 1011              		.file 7 "../../ChibiOS/os/kernel/include/chsem.h"
 1012              		.file 8 "../../ChibiOS/os/kernel/include/chmtx.h"
 1013              		.file 9 "../../ChibiOS/os/kernel/include/chmboxes.h"
 1014              		.section	.debug_info,"",%progbits
 1015              	.Ldebug_info0:
 1016 0000 C7090000 		.4byte	0x9c7
 1017 0004 0200     		.2byte	0x2
 1018 0006 00000000 		.4byte	.Ldebug_abbrev0
 1019 000a 04       		.byte	0x4
 1020 000b 01       		.uleb128 0x1
 1021 000c BD000000 		.4byte	.LASF82
 1022 0010 01       		.byte	0x1
 1023 0011 59010000 		.4byte	.LASF83
 1024 0015 06010000 		.4byte	.LASF84
 1025 0019 00000000 		.4byte	0
 1026 001d 00000000 		.4byte	0
 1027 0021 D8000000 		.4byte	.Ldebug_ranges0+0xd8
 1028 0025 00000000 		.4byte	.Ldebug_line0
 1029 0029 02       		.uleb128 0x2
 1030 002a 04       		.byte	0x4
 1031 002b 05       		.byte	0x5
 1032 002c 696E7400 		.ascii	"int\000"
 1033 0030 03       		.uleb128 0x3
 1034 0031 04       		.byte	0x4
 1035 0032 07       		.byte	0x7
 1036 0033 91010000 		.4byte	.LASF0
 1037 0037 03       		.uleb128 0x3
 1038 0038 01       		.byte	0x1
 1039 0039 06       		.byte	0x6
 1040 003a 8E000000 		.4byte	.LASF1
 1041 003e 04       		.uleb128 0x4
 1042 003f 77030000 		.4byte	.LASF5
 1043 0043 02       		.byte	0x2
 1044 0044 2A       		.byte	0x2a
 1045 0045 49000000 		.4byte	0x49
 1046 0049 03       		.uleb128 0x3
 1047 004a 01       		.byte	0x1
 1048 004b 08       		.byte	0x8
 1049 004c 94020000 		.4byte	.LASF2
 1050 0050 03       		.uleb128 0x3
 1051 0051 02       		.byte	0x2
ARM GAS  /tmp/ccMLpdil.s 			page 20


 1052 0052 05       		.byte	0x5
 1053 0053 B3020000 		.4byte	.LASF3
 1054 0057 03       		.uleb128 0x3
 1055 0058 02       		.byte	0x2
 1056 0059 07       		.byte	0x7
 1057 005a D3010000 		.4byte	.LASF4
 1058 005e 04       		.uleb128 0x4
 1059 005f 8C020000 		.4byte	.LASF6
 1060 0063 02       		.byte	0x2
 1061 0064 4F       		.byte	0x4f
 1062 0065 69000000 		.4byte	0x69
 1063 0069 03       		.uleb128 0x3
 1064 006a 04       		.byte	0x4
 1065 006b 05       		.byte	0x5
 1066 006c B4000000 		.4byte	.LASF7
 1067 0070 04       		.uleb128 0x4
 1068 0071 00030000 		.4byte	.LASF8
 1069 0075 02       		.byte	0x2
 1070 0076 50       		.byte	0x50
 1071 0077 7B000000 		.4byte	0x7b
 1072 007b 03       		.uleb128 0x3
 1073 007c 04       		.byte	0x4
 1074 007d 07       		.byte	0x7
 1075 007e A7010000 		.4byte	.LASF9
 1076 0082 03       		.uleb128 0x3
 1077 0083 08       		.byte	0x8
 1078 0084 05       		.byte	0x5
 1079 0085 80000000 		.4byte	.LASF10
 1080 0089 04       		.uleb128 0x4
 1081 008a 0D000000 		.4byte	.LASF11
 1082 008e 02       		.byte	0x2
 1083 008f 78       		.byte	0x78
 1084 0090 94000000 		.4byte	0x94
 1085 0094 03       		.uleb128 0x3
 1086 0095 08       		.byte	0x8
 1087 0096 07       		.byte	0x7
 1088 0097 41000000 		.4byte	.LASF12
 1089 009b 03       		.uleb128 0x3
 1090 009c 01       		.byte	0x1
 1091 009d 02       		.byte	0x2
 1092 009e 86020000 		.4byte	.LASF13
 1093 00a2 04       		.uleb128 0x4
 1094 00a3 02020000 		.4byte	.LASF14
 1095 00a7 03       		.byte	0x3
 1096 00a8 25       		.byte	0x25
 1097 00a9 3E000000 		.4byte	0x3e
 1098 00ad 04       		.uleb128 0x4
 1099 00ae 37010000 		.4byte	.LASF15
 1100 00b2 03       		.byte	0x3
 1101 00b3 26       		.byte	0x26
 1102 00b4 3E000000 		.4byte	0x3e
 1103 00b8 04       		.uleb128 0x4
 1104 00b9 6F020000 		.4byte	.LASF16
 1105 00bd 03       		.byte	0x3
 1106 00be 27       		.byte	0x27
 1107 00bf 3E000000 		.4byte	0x3e
 1108 00c3 04       		.uleb128 0x4
ARM GAS  /tmp/ccMLpdil.s 			page 21


 1109 00c4 AA000000 		.4byte	.LASF17
 1110 00c8 03       		.byte	0x3
 1111 00c9 28       		.byte	0x28
 1112 00ca 3E000000 		.4byte	0x3e
 1113 00ce 04       		.uleb128 0x4
 1114 00cf 7E020000 		.4byte	.LASF18
 1115 00d3 03       		.byte	0x3
 1116 00d4 29       		.byte	0x29
 1117 00d5 70000000 		.4byte	0x70
 1118 00d9 04       		.uleb128 0x4
 1119 00da F1010000 		.4byte	.LASF19
 1120 00de 03       		.byte	0x3
 1121 00df 2A       		.byte	0x2a
 1122 00e0 5E000000 		.4byte	0x5e
 1123 00e4 04       		.uleb128 0x4
 1124 00e5 16020000 		.4byte	.LASF20
 1125 00e9 03       		.byte	0x3
 1126 00ea 2C       		.byte	0x2c
 1127 00eb 70000000 		.4byte	0x70
 1128 00ef 04       		.uleb128 0x4
 1129 00f0 15030000 		.4byte	.LASF21
 1130 00f4 03       		.byte	0x3
 1131 00f5 2E       		.byte	0x2e
 1132 00f6 70000000 		.4byte	0x70
 1133 00fa 04       		.uleb128 0x4
 1134 00fb 80010000 		.4byte	.LASF22
 1135 00ff 03       		.byte	0x3
 1136 0100 2F       		.byte	0x2f
 1137 0101 5E000000 		.4byte	0x5e
 1138 0105 04       		.uleb128 0x4
 1139 0106 EE020000 		.4byte	.LASF23
 1140 010a 04       		.byte	0x4
 1141 010b 23       		.byte	0x23
 1142 010c 10010000 		.4byte	0x110
 1143 0110 05       		.uleb128 0x5
 1144 0111 EE020000 		.4byte	.LASF23
 1145 0115 4C       		.byte	0x4c
 1146 0116 05       		.byte	0x5
 1147 0117 57       		.byte	0x57
 1148 0118 43020000 		.4byte	0x243
 1149 011c 06       		.uleb128 0x6
 1150 011d D6020000 		.4byte	.LASF24
 1151 0121 05       		.byte	0x5
 1152 0122 58       		.byte	0x58
 1153 0123 68020000 		.4byte	0x268
 1154 0127 02       		.byte	0x2
 1155 0128 23       		.byte	0x23
 1156 0129 00       		.uleb128 0
 1157 012a 06       		.uleb128 0x6
 1158 012b 77020000 		.4byte	.LASF25
 1159 012f 05       		.byte	0x5
 1160 0130 5A       		.byte	0x5a
 1161 0131 68020000 		.4byte	0x268
 1162 0135 02       		.byte	0x2
 1163 0136 23       		.byte	0x23
 1164 0137 04       		.uleb128 0x4
 1165 0138 06       		.uleb128 0x6
ARM GAS  /tmp/ccMLpdil.s 			page 22


 1166 0139 79000000 		.4byte	.LASF26
 1167 013d 05       		.byte	0x5
 1168 013e 5C       		.byte	0x5c
 1169 013f CE000000 		.4byte	0xce
 1170 0143 02       		.byte	0x2
 1171 0144 23       		.byte	0x23
 1172 0145 08       		.uleb128 0x8
 1173 0146 06       		.uleb128 0x6
 1174 0147 95030000 		.4byte	.LASF27
 1175 014b 05       		.byte	0x5
 1176 014c 5D       		.byte	0x5d
 1177 014d 41030000 		.4byte	0x341
 1178 0151 02       		.byte	0x2
 1179 0152 23       		.byte	0x23
 1180 0153 0C       		.uleb128 0xc
 1181 0154 06       		.uleb128 0x6
 1182 0155 40010000 		.4byte	.LASF28
 1183 0159 05       		.byte	0x5
 1184 015a 5F       		.byte	0x5f
 1185 015b 68020000 		.4byte	0x268
 1186 015f 02       		.byte	0x2
 1187 0160 23       		.byte	0x23
 1188 0161 10       		.uleb128 0x10
 1189 0162 06       		.uleb128 0x6
 1190 0163 4B020000 		.4byte	.LASF29
 1191 0167 05       		.byte	0x5
 1192 0168 60       		.byte	0x60
 1193 0169 68020000 		.4byte	0x268
 1194 016d 02       		.byte	0x2
 1195 016e 23       		.byte	0x23
 1196 016f 14       		.uleb128 0x14
 1197 0170 06       		.uleb128 0x6
 1198 0171 86030000 		.4byte	.LASF30
 1199 0175 05       		.byte	0x5
 1200 0176 67       		.byte	0x67
 1201 0177 88040000 		.4byte	0x488
 1202 017b 02       		.byte	0x2
 1203 017c 23       		.byte	0x23
 1204 017d 18       		.uleb128 0x18
 1205 017e 06       		.uleb128 0x6
 1206 017f 86010000 		.4byte	.LASF31
 1207 0183 05       		.byte	0x5
 1208 0184 6D       		.byte	0x6d
 1209 0185 9A040000 		.4byte	0x49a
 1210 0189 02       		.byte	0x2
 1211 018a 23       		.byte	0x23
 1212 018b 1C       		.uleb128 0x1c
 1213 018c 06       		.uleb128 0x6
 1214 018d BD020000 		.4byte	.LASF32
 1215 0191 05       		.byte	0x5
 1216 0192 72       		.byte	0x72
 1217 0193 AD000000 		.4byte	0xad
 1218 0197 02       		.byte	0x2
 1219 0198 23       		.byte	0x23
 1220 0199 20       		.uleb128 0x20
 1221 019a 06       		.uleb128 0x6
 1222 019b DD020000 		.4byte	.LASF33
ARM GAS  /tmp/ccMLpdil.s 			page 23


 1223 019f 05       		.byte	0x5
 1224 01a0 76       		.byte	0x76
 1225 01a1 A2000000 		.4byte	0xa2
 1226 01a5 02       		.byte	0x2
 1227 01a6 23       		.byte	0x23
 1228 01a7 21       		.uleb128 0x21
 1229 01a8 06       		.uleb128 0x6
 1230 01a9 70030000 		.4byte	.LASF34
 1231 01ad 05       		.byte	0x5
 1232 01ae 7B       		.byte	0x7b
 1233 01af B8000000 		.4byte	0xb8
 1234 01b3 02       		.byte	0x2
 1235 01b4 23       		.byte	0x23
 1236 01b5 22       		.uleb128 0x22
 1237 01b6 06       		.uleb128 0x6
 1238 01b7 C5020000 		.4byte	.LASF35
 1239 01bb 05       		.byte	0x5
 1240 01bc 81       		.byte	0x81
 1241 01bd C3000000 		.4byte	0xc3
 1242 01c1 02       		.byte	0x2
 1243 01c2 23       		.byte	0x23
 1244 01c3 23       		.uleb128 0x23
 1245 01c4 06       		.uleb128 0x6
 1246 01c5 2A030000 		.4byte	.LASF36
 1247 01c9 05       		.byte	0x5
 1248 01ca 88       		.byte	0x88
 1249 01cb 64030000 		.4byte	0x364
 1250 01cf 02       		.byte	0x2
 1251 01d0 23       		.byte	0x23
 1252 01d1 24       		.uleb128 0x24
 1253 01d2 07       		.uleb128 0x7
 1254 01d3 705F7500 		.ascii	"p_u\000"
 1255 01d7 05       		.byte	0x5
 1256 01d8 AD       		.byte	0xad
 1257 01d9 53040000 		.4byte	0x453
 1258 01dd 02       		.byte	0x2
 1259 01de 23       		.byte	0x23
 1260 01df 28       		.uleb128 0x28
 1261 01e0 06       		.uleb128 0x6
 1262 01e1 9B030000 		.4byte	.LASF37
 1263 01e5 05       		.byte	0x5
 1264 01e6 B2       		.byte	0xb2
 1265 01e7 90020000 		.4byte	0x290
 1266 01eb 02       		.byte	0x2
 1267 01ec 23       		.byte	0x23
 1268 01ed 2C       		.uleb128 0x2c
 1269 01ee 06       		.uleb128 0x6
 1270 01ef 46030000 		.4byte	.LASF38
 1271 01f3 05       		.byte	0x5
 1272 01f4 B8       		.byte	0xb8
 1273 01f5 6E020000 		.4byte	0x26e
 1274 01f9 02       		.byte	0x2
 1275 01fa 23       		.byte	0x23
 1276 01fb 30       		.uleb128 0x30
 1277 01fc 06       		.uleb128 0x6
 1278 01fd 00000000 		.4byte	.LASF39
 1279 0201 05       		.byte	0x5
ARM GAS  /tmp/ccMLpdil.s 			page 24


 1280 0202 BC       		.byte	0xbc
 1281 0203 D9000000 		.4byte	0xd9
 1282 0207 02       		.byte	0x2
 1283 0208 23       		.byte	0x23
 1284 0209 38       		.uleb128 0x38
 1285 020a 06       		.uleb128 0x6
 1286 020b F5020000 		.4byte	.LASF40
 1287 020f 05       		.byte	0x5
 1288 0210 C2       		.byte	0xc2
 1289 0211 E4000000 		.4byte	0xe4
 1290 0215 02       		.byte	0x2
 1291 0216 23       		.byte	0x23
 1292 0217 3C       		.uleb128 0x3c
 1293 0218 06       		.uleb128 0x6
 1294 0219 A9020000 		.4byte	.LASF41
 1295 021d 05       		.byte	0x5
 1296 021e C9       		.byte	0xc9
 1297 021f A0040000 		.4byte	0x4a0
 1298 0223 02       		.byte	0x2
 1299 0224 23       		.byte	0x23
 1300 0225 40       		.uleb128 0x40
 1301 0226 06       		.uleb128 0x6
 1302 0227 1F030000 		.4byte	.LASF42
 1303 022b 05       		.byte	0x5
 1304 022c CD       		.byte	0xcd
 1305 022d CE000000 		.4byte	0xce
 1306 0231 02       		.byte	0x2
 1307 0232 23       		.byte	0x23
 1308 0233 44       		.uleb128 0x44
 1309 0234 06       		.uleb128 0x6
 1310 0235 9A000000 		.4byte	.LASF43
 1311 0239 05       		.byte	0x5
 1312 023a D3       		.byte	0xd3
 1313 023b A6020000 		.4byte	0x2a6
 1314 023f 02       		.byte	0x2
 1315 0240 23       		.byte	0x23
 1316 0241 48       		.uleb128 0x48
 1317 0242 00       		.byte	0
 1318 0243 08       		.uleb128 0x8
 1319 0244 08       		.byte	0x8
 1320 0245 04       		.byte	0x4
 1321 0246 5A       		.byte	0x5a
 1322 0247 68020000 		.4byte	0x268
 1323 024b 06       		.uleb128 0x6
 1324 024c D6020000 		.4byte	.LASF24
 1325 0250 04       		.byte	0x4
 1326 0251 5B       		.byte	0x5b
 1327 0252 68020000 		.4byte	0x268
 1328 0256 02       		.byte	0x2
 1329 0257 23       		.byte	0x23
 1330 0258 00       		.uleb128 0
 1331 0259 06       		.uleb128 0x6
 1332 025a 77020000 		.4byte	.LASF25
 1333 025e 04       		.byte	0x4
 1334 025f 5D       		.byte	0x5d
 1335 0260 68020000 		.4byte	0x268
 1336 0264 02       		.byte	0x2
ARM GAS  /tmp/ccMLpdil.s 			page 25


 1337 0265 23       		.byte	0x23
 1338 0266 04       		.uleb128 0x4
 1339 0267 00       		.byte	0
 1340 0268 09       		.uleb128 0x9
 1341 0269 04       		.byte	0x4
 1342 026a 05010000 		.4byte	0x105
 1343 026e 04       		.uleb128 0x4
 1344 026f 53020000 		.4byte	.LASF44
 1345 0273 04       		.byte	0x4
 1346 0274 5F       		.byte	0x5f
 1347 0275 43020000 		.4byte	0x243
 1348 0279 08       		.uleb128 0x8
 1349 027a 04       		.byte	0x4
 1350 027b 04       		.byte	0x4
 1351 027c 64       		.byte	0x64
 1352 027d 90020000 		.4byte	0x290
 1353 0281 06       		.uleb128 0x6
 1354 0282 D6020000 		.4byte	.LASF24
 1355 0286 04       		.byte	0x4
 1356 0287 66       		.byte	0x66
 1357 0288 68020000 		.4byte	0x268
 1358 028c 02       		.byte	0x2
 1359 028d 23       		.byte	0x23
 1360 028e 00       		.uleb128 0
 1361 028f 00       		.byte	0
 1362 0290 04       		.uleb128 0x4
 1363 0291 0A020000 		.4byte	.LASF45
 1364 0295 04       		.byte	0x4
 1365 0296 69       		.byte	0x69
 1366 0297 79020000 		.4byte	0x279
 1367 029b 04       		.uleb128 0x4
 1368 029c 50010000 		.4byte	.LASF46
 1369 02a0 06       		.byte	0x6
 1370 02a1 DE       		.byte	0xde
 1371 02a2 A6020000 		.4byte	0x2a6
 1372 02a6 0A       		.uleb128 0xa
 1373 02a7 04       		.byte	0x4
 1374 02a8 04       		.uleb128 0x4
 1375 02a9 2D020000 		.4byte	.LASF47
 1376 02ad 06       		.byte	0x6
 1377 02ae E4       		.byte	0xe4
 1378 02af 89000000 		.4byte	0x89
 1379 02b3 0B       		.uleb128 0xb
 1380 02b4 3F030000 		.4byte	.LASF48
 1381 02b8 24       		.byte	0x24
 1382 02b9 06       		.byte	0x6
 1383 02ba 0501     		.2byte	0x105
 1384 02bc 41030000 		.4byte	0x341
 1385 02c0 0C       		.uleb128 0xc
 1386 02c1 723400   		.ascii	"r4\000"
 1387 02c4 06       		.byte	0x6
 1388 02c5 1801     		.2byte	0x118
 1389 02c7 9B020000 		.4byte	0x29b
 1390 02cb 02       		.byte	0x2
 1391 02cc 23       		.byte	0x23
 1392 02cd 00       		.uleb128 0
 1393 02ce 0C       		.uleb128 0xc
ARM GAS  /tmp/ccMLpdil.s 			page 26


 1394 02cf 723500   		.ascii	"r5\000"
 1395 02d2 06       		.byte	0x6
 1396 02d3 1901     		.2byte	0x119
 1397 02d5 9B020000 		.4byte	0x29b
 1398 02d9 02       		.byte	0x2
 1399 02da 23       		.byte	0x23
 1400 02db 04       		.uleb128 0x4
 1401 02dc 0C       		.uleb128 0xc
 1402 02dd 723600   		.ascii	"r6\000"
 1403 02e0 06       		.byte	0x6
 1404 02e1 1A01     		.2byte	0x11a
 1405 02e3 9B020000 		.4byte	0x29b
 1406 02e7 02       		.byte	0x2
 1407 02e8 23       		.byte	0x23
 1408 02e9 08       		.uleb128 0x8
 1409 02ea 0C       		.uleb128 0xc
 1410 02eb 723700   		.ascii	"r7\000"
 1411 02ee 06       		.byte	0x6
 1412 02ef 1B01     		.2byte	0x11b
 1413 02f1 9B020000 		.4byte	0x29b
 1414 02f5 02       		.byte	0x2
 1415 02f6 23       		.byte	0x23
 1416 02f7 0C       		.uleb128 0xc
 1417 02f8 0C       		.uleb128 0xc
 1418 02f9 723800   		.ascii	"r8\000"
 1419 02fc 06       		.byte	0x6
 1420 02fd 1C01     		.2byte	0x11c
 1421 02ff 9B020000 		.4byte	0x29b
 1422 0303 02       		.byte	0x2
 1423 0304 23       		.byte	0x23
 1424 0305 10       		.uleb128 0x10
 1425 0306 0C       		.uleb128 0xc
 1426 0307 723900   		.ascii	"r9\000"
 1427 030a 06       		.byte	0x6
 1428 030b 1D01     		.2byte	0x11d
 1429 030d 9B020000 		.4byte	0x29b
 1430 0311 02       		.byte	0x2
 1431 0312 23       		.byte	0x23
 1432 0313 14       		.uleb128 0x14
 1433 0314 0C       		.uleb128 0xc
 1434 0315 72313000 		.ascii	"r10\000"
 1435 0319 06       		.byte	0x6
 1436 031a 1E01     		.2byte	0x11e
 1437 031c 9B020000 		.4byte	0x29b
 1438 0320 02       		.byte	0x2
 1439 0321 23       		.byte	0x23
 1440 0322 18       		.uleb128 0x18
 1441 0323 0C       		.uleb128 0xc
 1442 0324 72313100 		.ascii	"r11\000"
 1443 0328 06       		.byte	0x6
 1444 0329 1F01     		.2byte	0x11f
 1445 032b 9B020000 		.4byte	0x29b
 1446 032f 02       		.byte	0x2
 1447 0330 23       		.byte	0x23
 1448 0331 1C       		.uleb128 0x1c
 1449 0332 0C       		.uleb128 0xc
 1450 0333 6C7200   		.ascii	"lr\000"
ARM GAS  /tmp/ccMLpdil.s 			page 27


 1451 0336 06       		.byte	0x6
 1452 0337 2001     		.2byte	0x120
 1453 0339 9B020000 		.4byte	0x29b
 1454 033d 02       		.byte	0x2
 1455 033e 23       		.byte	0x23
 1456 033f 20       		.uleb128 0x20
 1457 0340 00       		.byte	0
 1458 0341 0B       		.uleb128 0xb
 1459 0342 CB010000 		.4byte	.LASF49
 1460 0346 04       		.byte	0x4
 1461 0347 06       		.byte	0x6
 1462 0348 2A01     		.2byte	0x12a
 1463 034a 5E030000 		.4byte	0x35e
 1464 034e 0C       		.uleb128 0xc
 1465 034f 72313300 		.ascii	"r13\000"
 1466 0353 06       		.byte	0x6
 1467 0354 2B01     		.2byte	0x12b
 1468 0356 5E030000 		.4byte	0x35e
 1469 035a 02       		.byte	0x2
 1470 035b 23       		.byte	0x23
 1471 035c 00       		.uleb128 0
 1472 035d 00       		.byte	0
 1473 035e 09       		.uleb128 0x9
 1474 035f 04       		.byte	0x4
 1475 0360 B3020000 		.4byte	0x2b3
 1476 0364 0D       		.uleb128 0xd
 1477 0365 EF000000 		.4byte	0xef
 1478 0369 05       		.uleb128 0x5
 1479 036a 5B030000 		.4byte	.LASF50
 1480 036e 0C       		.byte	0xc
 1481 036f 07       		.byte	0x7
 1482 0370 25       		.byte	0x25
 1483 0371 92030000 		.4byte	0x392
 1484 0375 06       		.uleb128 0x6
 1485 0376 48010000 		.4byte	.LASF51
 1486 037a 07       		.byte	0x7
 1487 037b 26       		.byte	0x26
 1488 037c 6E020000 		.4byte	0x26e
 1489 0380 02       		.byte	0x2
 1490 0381 23       		.byte	0x23
 1491 0382 00       		.uleb128 0
 1492 0383 06       		.uleb128 0x6
 1493 0384 C5010000 		.4byte	.LASF52
 1494 0388 07       		.byte	0x7
 1495 0389 28       		.byte	0x28
 1496 038a FA000000 		.4byte	0xfa
 1497 038e 02       		.byte	0x2
 1498 038f 23       		.byte	0x23
 1499 0390 08       		.uleb128 0x8
 1500 0391 00       		.byte	0
 1501 0392 04       		.uleb128 0x4
 1502 0393 5B030000 		.4byte	.LASF50
 1503 0397 07       		.byte	0x7
 1504 0398 29       		.byte	0x29
 1505 0399 69030000 		.4byte	0x369
 1506 039d 05       		.uleb128 0x5
 1507 039e 22020000 		.4byte	.LASF53
ARM GAS  /tmp/ccMLpdil.s 			page 28


 1508 03a2 10       		.byte	0x10
 1509 03a3 08       		.byte	0x8
 1510 03a4 25       		.byte	0x25
 1511 03a5 D4030000 		.4byte	0x3d4
 1512 03a9 06       		.uleb128 0x6
 1513 03aa A2000000 		.4byte	.LASF54
 1514 03ae 08       		.byte	0x8
 1515 03af 26       		.byte	0x26
 1516 03b0 6E020000 		.4byte	0x26e
 1517 03b4 02       		.byte	0x2
 1518 03b5 23       		.byte	0x23
 1519 03b6 00       		.uleb128 0
 1520 03b7 06       		.uleb128 0x6
 1521 03b8 8D030000 		.4byte	.LASF55
 1522 03bc 08       		.byte	0x8
 1523 03bd 28       		.byte	0x28
 1524 03be 68020000 		.4byte	0x268
 1525 03c2 02       		.byte	0x2
 1526 03c3 23       		.byte	0x23
 1527 03c4 08       		.uleb128 0x8
 1528 03c5 06       		.uleb128 0x6
 1529 03c6 0E030000 		.4byte	.LASF56
 1530 03ca 08       		.byte	0x8
 1531 03cb 2A       		.byte	0x2a
 1532 03cc D4030000 		.4byte	0x3d4
 1533 03d0 02       		.byte	0x2
 1534 03d1 23       		.byte	0x23
 1535 03d2 0C       		.uleb128 0xc
 1536 03d3 00       		.byte	0
 1537 03d4 09       		.uleb128 0x9
 1538 03d5 04       		.byte	0x4
 1539 03d6 9D030000 		.4byte	0x39d
 1540 03da 04       		.uleb128 0x4
 1541 03db 22020000 		.4byte	.LASF53
 1542 03df 08       		.byte	0x8
 1543 03e0 2C       		.byte	0x2c
 1544 03e1 9D030000 		.4byte	0x39d
 1545 03e5 08       		.uleb128 0x8
 1546 03e6 28       		.byte	0x28
 1547 03e7 09       		.byte	0x9
 1548 03e8 2C       		.byte	0x2c
 1549 03e9 42040000 		.4byte	0x442
 1550 03ed 06       		.uleb128 0x6
 1551 03ee 60020000 		.4byte	.LASF57
 1552 03f2 09       		.byte	0x9
 1553 03f3 2D       		.byte	0x2d
 1554 03f4 42040000 		.4byte	0x442
 1555 03f8 02       		.byte	0x2
 1556 03f9 23       		.byte	0x23
 1557 03fa 00       		.uleb128 0
 1558 03fb 06       		.uleb128 0x6
 1559 03fc A2020000 		.4byte	.LASF58
 1560 0400 09       		.byte	0x9
 1561 0401 2F       		.byte	0x2f
 1562 0402 42040000 		.4byte	0x442
 1563 0406 02       		.byte	0x2
 1564 0407 23       		.byte	0x23
ARM GAS  /tmp/ccMLpdil.s 			page 29


 1565 0408 04       		.uleb128 0x4
 1566 0409 06       		.uleb128 0x6
 1567 040a 70000000 		.4byte	.LASF59
 1568 040e 09       		.byte	0x9
 1569 040f 31       		.byte	0x31
 1570 0410 42040000 		.4byte	0x442
 1571 0414 02       		.byte	0x2
 1572 0415 23       		.byte	0x23
 1573 0416 08       		.uleb128 0x8
 1574 0417 06       		.uleb128 0x6
 1575 0418 38020000 		.4byte	.LASF60
 1576 041c 09       		.byte	0x9
 1577 041d 32       		.byte	0x32
 1578 041e 42040000 		.4byte	0x442
 1579 0422 02       		.byte	0x2
 1580 0423 23       		.byte	0x23
 1581 0424 0C       		.uleb128 0xc
 1582 0425 06       		.uleb128 0x6
 1583 0426 65030000 		.4byte	.LASF61
 1584 042a 09       		.byte	0x9
 1585 042b 33       		.byte	0x33
 1586 042c 92030000 		.4byte	0x392
 1587 0430 02       		.byte	0x2
 1588 0431 23       		.byte	0x23
 1589 0432 10       		.uleb128 0x10
 1590 0433 06       		.uleb128 0x6
 1591 0434 B9010000 		.4byte	.LASF62
 1592 0438 09       		.byte	0x9
 1593 0439 35       		.byte	0x35
 1594 043a 92030000 		.4byte	0x392
 1595 043e 02       		.byte	0x2
 1596 043f 23       		.byte	0x23
 1597 0440 1C       		.uleb128 0x1c
 1598 0441 00       		.byte	0
 1599 0442 09       		.uleb128 0x9
 1600 0443 04       		.byte	0x4
 1601 0444 D9000000 		.4byte	0xd9
 1602 0448 04       		.uleb128 0x4
 1603 0449 2A000000 		.4byte	.LASF63
 1604 044d 09       		.byte	0x9
 1605 044e 37       		.byte	0x37
 1606 044f E5030000 		.4byte	0x3e5
 1607 0453 0E       		.uleb128 0xe
 1608 0454 04       		.byte	0x4
 1609 0455 05       		.byte	0x5
 1610 0456 8F       		.byte	0x8f
 1611 0457 88040000 		.4byte	0x488
 1612 045b 0F       		.uleb128 0xf
 1613 045c 06000000 		.4byte	.LASF64
 1614 0460 05       		.byte	0x5
 1615 0461 96       		.byte	0x96
 1616 0462 D9000000 		.4byte	0xd9
 1617 0466 0F       		.uleb128 0xf
 1618 0467 58000000 		.4byte	.LASF65
 1619 046b 05       		.byte	0x5
 1620 046c 9D       		.byte	0x9d
 1621 046d D9000000 		.4byte	0xd9
ARM GAS  /tmp/ccMLpdil.s 			page 30


 1622 0471 0F       		.uleb128 0xf
 1623 0472 7F030000 		.4byte	.LASF66
 1624 0476 05       		.byte	0x5
 1625 0477 A4       		.byte	0xa4
 1626 0478 A6020000 		.4byte	0x2a6
 1627 047c 0F       		.uleb128 0xf
 1628 047d CF020000 		.4byte	.LASF67
 1629 0481 05       		.byte	0x5
 1630 0482 AB       		.byte	0xab
 1631 0483 E4000000 		.4byte	0xe4
 1632 0487 00       		.byte	0
 1633 0488 09       		.uleb128 0x9
 1634 0489 04       		.byte	0x4
 1635 048a 8E040000 		.4byte	0x48e
 1636 048e 10       		.uleb128 0x10
 1637 048f 93040000 		.4byte	0x493
 1638 0493 03       		.uleb128 0x3
 1639 0494 01       		.byte	0x1
 1640 0495 08       		.byte	0x8
 1641 0496 09030000 		.4byte	.LASF68
 1642 049a 09       		.uleb128 0x9
 1643 049b 04       		.byte	0x4
 1644 049c A8020000 		.4byte	0x2a8
 1645 04a0 09       		.uleb128 0x9
 1646 04a1 04       		.byte	0x4
 1647 04a2 DA030000 		.4byte	0x3da
 1648 04a6 11       		.uleb128 0x11
 1649 04a7 01       		.byte	0x1
 1650 04a8 9E010000 		.4byte	.LASF69
 1651 04ac 01       		.byte	0x1
 1652 04ad 41       		.byte	0x41
 1653 04ae 01       		.byte	0x1
 1654 04af 00000000 		.4byte	.LFB7
 1655 04b3 40000000 		.4byte	.LFE7
 1656 04b7 00000000 		.4byte	.LLST0
 1657 04bb EB040000 		.4byte	0x4eb
 1658 04bf 12       		.uleb128 0x12
 1659 04c0 6D627000 		.ascii	"mbp\000"
 1660 04c4 01       		.byte	0x1
 1661 04c5 41       		.byte	0x41
 1662 04c6 EB040000 		.4byte	0x4eb
 1663 04ca 20000000 		.4byte	.LLST1
 1664 04ce 12       		.uleb128 0x12
 1665 04cf 62756600 		.ascii	"buf\000"
 1666 04d3 01       		.byte	0x1
 1667 04d4 41       		.byte	0x41
 1668 04d5 42040000 		.4byte	0x442
 1669 04d9 3E000000 		.4byte	.LLST2
 1670 04dd 12       		.uleb128 0x12
 1671 04de 6E00     		.ascii	"n\000"
 1672 04e0 01       		.byte	0x1
 1673 04e1 41       		.byte	0x41
 1674 04e2 FA000000 		.4byte	0xfa
 1675 04e6 5C000000 		.4byte	.LLST3
 1676 04ea 00       		.byte	0
 1677 04eb 09       		.uleb128 0x9
 1678 04ec 04       		.byte	0x4
ARM GAS  /tmp/ccMLpdil.s 			page 31


 1679 04ed 48040000 		.4byte	0x448
 1680 04f1 11       		.uleb128 0x11
 1681 04f2 01       		.byte	0x1
 1682 04f3 41020000 		.4byte	.LASF70
 1683 04f7 01       		.byte	0x1
 1684 04f8 54       		.byte	0x54
 1685 04f9 01       		.byte	0x1
 1686 04fa 00000000 		.4byte	.LFB8
 1687 04fe 4C000000 		.4byte	.LFE8
 1688 0502 7A000000 		.4byte	.LLST4
 1689 0506 50050000 		.4byte	0x550
 1690 050a 12       		.uleb128 0x12
 1691 050b 6D627000 		.ascii	"mbp\000"
 1692 050f 01       		.byte	0x1
 1693 0510 54       		.byte	0x54
 1694 0511 EB040000 		.4byte	0x4eb
 1695 0515 9A000000 		.4byte	.LLST5
 1696 0519 13       		.uleb128 0x13
 1697 051a 06000000 		.4byte	.LBB2
 1698 051e 0C000000 		.4byte	.LBE2
 1699 0522 36050000 		.4byte	0x536
 1700 0526 14       		.uleb128 0x14
 1701 0527 746D7000 		.ascii	"tmp\000"
 1702 052b 01       		.byte	0x1
 1703 052c 58       		.byte	0x58
 1704 052d 70000000 		.4byte	0x70
 1705 0531 B8000000 		.4byte	.LLST6
 1706 0535 00       		.byte	0
 1707 0536 15       		.uleb128 0x15
 1708 0537 36000000 		.4byte	.LBB3
 1709 053b 3C000000 		.4byte	.LBE3
 1710 053f 14       		.uleb128 0x14
 1711 0540 746D7000 		.ascii	"tmp\000"
 1712 0544 01       		.byte	0x1
 1713 0545 5D       		.byte	0x5d
 1714 0546 70000000 		.4byte	0x70
 1715 054a CB000000 		.4byte	.LLST7
 1716 054e 00       		.byte	0
 1717 054f 00       		.byte	0
 1718 0550 16       		.uleb128 0x16
 1719 0551 01       		.byte	0x1
 1720 0552 20000000 		.4byte	.LASF74
 1721 0556 01       		.byte	0x1
 1722 0557 8F       		.byte	0x8f
 1723 0558 01       		.byte	0x1
 1724 0559 D9000000 		.4byte	0xd9
 1725 055d 01       		.byte	0x1
 1726 055e 8F050000 		.4byte	0x58f
 1727 0562 17       		.uleb128 0x17
 1728 0563 6D627000 		.ascii	"mbp\000"
 1729 0567 01       		.byte	0x1
 1730 0568 8F       		.byte	0x8f
 1731 0569 EB040000 		.4byte	0x4eb
 1732 056d 17       		.uleb128 0x17
 1733 056e 6D736700 		.ascii	"msg\000"
 1734 0572 01       		.byte	0x1
 1735 0573 8F       		.byte	0x8f
ARM GAS  /tmp/ccMLpdil.s 			page 32


 1736 0574 D9000000 		.4byte	0xd9
 1737 0578 18       		.uleb128 0x18
 1738 0579 6A020000 		.4byte	.LASF71
 1739 057d 01       		.byte	0x1
 1740 057e 8F       		.byte	0x8f
 1741 057f EF000000 		.4byte	0xef
 1742 0583 19       		.uleb128 0x19
 1743 0584 06000000 		.4byte	.LASF64
 1744 0588 01       		.byte	0x1
 1745 0589 90       		.byte	0x90
 1746 058a D9000000 		.4byte	0xd9
 1747 058e 00       		.byte	0
 1748 058f 1A       		.uleb128 0x1a
 1749 0590 01       		.byte	0x1
 1750 0591 E5020000 		.4byte	.LASF72
 1751 0595 01       		.byte	0x1
 1752 0596 73       		.byte	0x73
 1753 0597 01       		.byte	0x1
 1754 0598 D9000000 		.4byte	0xd9
 1755 059c 00000000 		.4byte	.LFB9
 1756 05a0 60000000 		.4byte	.LFE9
 1757 05a4 DE000000 		.4byte	.LLST8
 1758 05a8 53060000 		.4byte	0x653
 1759 05ac 12       		.uleb128 0x12
 1760 05ad 6D627000 		.ascii	"mbp\000"
 1761 05b1 01       		.byte	0x1
 1762 05b2 73       		.byte	0x73
 1763 05b3 EB040000 		.4byte	0x4eb
 1764 05b7 FE000000 		.4byte	.LLST9
 1765 05bb 12       		.uleb128 0x12
 1766 05bc 6D736700 		.ascii	"msg\000"
 1767 05c0 01       		.byte	0x1
 1768 05c1 73       		.byte	0x73
 1769 05c2 D9000000 		.4byte	0xd9
 1770 05c6 1C010000 		.4byte	.LLST10
 1771 05ca 1B       		.uleb128 0x1b
 1772 05cb 6A020000 		.4byte	.LASF71
 1773 05cf 01       		.byte	0x1
 1774 05d0 73       		.byte	0x73
 1775 05d1 EF000000 		.4byte	0xef
 1776 05d5 3A010000 		.4byte	.LLST11
 1777 05d9 1C       		.uleb128 0x1c
 1778 05da 06000000 		.4byte	.LASF64
 1779 05de 01       		.byte	0x1
 1780 05df 74       		.byte	0x74
 1781 05e0 D9000000 		.4byte	0xd9
 1782 05e4 01       		.byte	0x1
 1783 05e5 56       		.byte	0x56
 1784 05e6 1D       		.uleb128 0x1d
 1785 05e7 00000000 		.4byte	.Ldebug_ranges0+0
 1786 05eb FF050000 		.4byte	0x5ff
 1787 05ef 14       		.uleb128 0x14
 1788 05f0 746D7000 		.ascii	"tmp\000"
 1789 05f4 01       		.byte	0x1
 1790 05f5 76       		.byte	0x76
 1791 05f6 70000000 		.4byte	0x70
 1792 05fa 63010000 		.4byte	.LLST12
ARM GAS  /tmp/ccMLpdil.s 			page 33


 1793 05fe 00       		.byte	0
 1794 05ff 1E       		.uleb128 0x1e
 1795 0600 50050000 		.4byte	0x550
 1796 0604 12000000 		.4byte	.LBB10
 1797 0608 18000000 		.4byte	.Ldebug_ranges0+0x18
 1798 060c 01       		.byte	0x1
 1799 060d 77       		.byte	0x77
 1800 060e 39060000 		.4byte	0x639
 1801 0612 1F       		.uleb128 0x1f
 1802 0613 78050000 		.4byte	0x578
 1803 0617 76010000 		.4byte	.LLST13
 1804 061b 20       		.uleb128 0x20
 1805 061c 6D050000 		.4byte	0x56d
 1806 0620 01       		.byte	0x1
 1807 0621 55       		.byte	0x55
 1808 0622 20       		.uleb128 0x20
 1809 0623 62050000 		.4byte	0x562
 1810 0627 01       		.byte	0x1
 1811 0628 54       		.byte	0x54
 1812 0629 21       		.uleb128 0x21
 1813 062a 30000000 		.4byte	.Ldebug_ranges0+0x30
 1814 062e 22       		.uleb128 0x22
 1815 062f 83050000 		.4byte	0x583
 1816 0633 94010000 		.4byte	.LLST14
 1817 0637 00       		.byte	0
 1818 0638 00       		.byte	0
 1819 0639 15       		.uleb128 0x15
 1820 063a 4A000000 		.4byte	.LBB13
 1821 063e 50000000 		.4byte	.LBE13
 1822 0642 14       		.uleb128 0x14
 1823 0643 746D7000 		.ascii	"tmp\000"
 1824 0647 01       		.byte	0x1
 1825 0648 78       		.byte	0x78
 1826 0649 70000000 		.4byte	0x70
 1827 064d B2010000 		.4byte	.LLST15
 1828 0651 00       		.byte	0
 1829 0652 00       		.byte	0
 1830 0653 23       		.uleb128 0x23
 1831 0654 50050000 		.4byte	0x550
 1832 0658 00000000 		.4byte	.LFB10
 1833 065c 4C000000 		.4byte	.LFE10
 1834 0660 C5010000 		.4byte	.LLST16
 1835 0664 8D060000 		.4byte	0x68d
 1836 0668 1F       		.uleb128 0x1f
 1837 0669 62050000 		.4byte	0x562
 1838 066d E5010000 		.4byte	.LLST17
 1839 0671 1F       		.uleb128 0x1f
 1840 0672 6D050000 		.4byte	0x56d
 1841 0676 03020000 		.4byte	.LLST18
 1842 067a 1F       		.uleb128 0x1f
 1843 067b 78050000 		.4byte	0x578
 1844 067f 21020000 		.4byte	.LLST19
 1845 0683 22       		.uleb128 0x22
 1846 0684 83050000 		.4byte	0x583
 1847 0688 4A020000 		.4byte	.LLST20
 1848 068c 00       		.byte	0
 1849 068d 1A       		.uleb128 0x1a
ARM GAS  /tmp/ccMLpdil.s 			page 34


 1850 068e 01       		.byte	0x1
 1851 068f 16000000 		.4byte	.LASF73
 1852 0693 01       		.byte	0x1
 1853 0694 AE       		.byte	0xae
 1854 0695 01       		.byte	0x1
 1855 0696 D9000000 		.4byte	0xd9
 1856 069a 00000000 		.4byte	.LFB11
 1857 069e 48000000 		.4byte	.LFE11
 1858 06a2 68020000 		.4byte	.LLST21
 1859 06a6 C9060000 		.4byte	0x6c9
 1860 06aa 12       		.uleb128 0x12
 1861 06ab 6D627000 		.ascii	"mbp\000"
 1862 06af 01       		.byte	0x1
 1863 06b0 AE       		.byte	0xae
 1864 06b1 EB040000 		.4byte	0x4eb
 1865 06b5 88020000 		.4byte	.LLST22
 1866 06b9 12       		.uleb128 0x12
 1867 06ba 6D736700 		.ascii	"msg\000"
 1868 06be 01       		.byte	0x1
 1869 06bf AE       		.byte	0xae
 1870 06c0 D9000000 		.4byte	0xd9
 1871 06c4 A6020000 		.4byte	.LLST23
 1872 06c8 00       		.byte	0
 1873 06c9 16       		.uleb128 0x16
 1874 06ca 01       		.byte	0x1
 1875 06cb 61000000 		.4byte	.LASF75
 1876 06cf 01       		.byte	0x1
 1877 06d0 EC       		.byte	0xec
 1878 06d1 01       		.byte	0x1
 1879 06d2 D9000000 		.4byte	0xd9
 1880 06d6 01       		.byte	0x1
 1881 06d7 08070000 		.4byte	0x708
 1882 06db 17       		.uleb128 0x17
 1883 06dc 6D627000 		.ascii	"mbp\000"
 1884 06e0 01       		.byte	0x1
 1885 06e1 EC       		.byte	0xec
 1886 06e2 EB040000 		.4byte	0x4eb
 1887 06e6 17       		.uleb128 0x17
 1888 06e7 6D736700 		.ascii	"msg\000"
 1889 06eb 01       		.byte	0x1
 1890 06ec EC       		.byte	0xec
 1891 06ed D9000000 		.4byte	0xd9
 1892 06f1 18       		.uleb128 0x18
 1893 06f2 6A020000 		.4byte	.LASF71
 1894 06f6 01       		.byte	0x1
 1895 06f7 EC       		.byte	0xec
 1896 06f8 EF000000 		.4byte	0xef
 1897 06fc 19       		.uleb128 0x19
 1898 06fd 06000000 		.4byte	.LASF64
 1899 0701 01       		.byte	0x1
 1900 0702 ED       		.byte	0xed
 1901 0703 D9000000 		.4byte	0xd9
 1902 0707 00       		.byte	0
 1903 0708 1A       		.uleb128 0x1a
 1904 0709 01       		.byte	0x1
 1905 070a 31030000 		.4byte	.LASF76
 1906 070e 01       		.byte	0x1
ARM GAS  /tmp/ccMLpdil.s 			page 35


 1907 070f D0       		.byte	0xd0
 1908 0710 01       		.byte	0x1
 1909 0711 D9000000 		.4byte	0xd9
 1910 0715 00000000 		.4byte	.LFB12
 1911 0719 64000000 		.4byte	.LFE12
 1912 071d C4020000 		.4byte	.LLST24
 1913 0721 CC070000 		.4byte	0x7cc
 1914 0725 12       		.uleb128 0x12
 1915 0726 6D627000 		.ascii	"mbp\000"
 1916 072a 01       		.byte	0x1
 1917 072b D0       		.byte	0xd0
 1918 072c EB040000 		.4byte	0x4eb
 1919 0730 E4020000 		.4byte	.LLST25
 1920 0734 12       		.uleb128 0x12
 1921 0735 6D736700 		.ascii	"msg\000"
 1922 0739 01       		.byte	0x1
 1923 073a D0       		.byte	0xd0
 1924 073b D9000000 		.4byte	0xd9
 1925 073f 02030000 		.4byte	.LLST26
 1926 0743 1B       		.uleb128 0x1b
 1927 0744 6A020000 		.4byte	.LASF71
 1928 0748 01       		.byte	0x1
 1929 0749 D0       		.byte	0xd0
 1930 074a EF000000 		.4byte	0xef
 1931 074e 20030000 		.4byte	.LLST27
 1932 0752 1C       		.uleb128 0x1c
 1933 0753 06000000 		.4byte	.LASF64
 1934 0757 01       		.byte	0x1
 1935 0758 D1       		.byte	0xd1
 1936 0759 D9000000 		.4byte	0xd9
 1937 075d 01       		.byte	0x1
 1938 075e 56       		.byte	0x56
 1939 075f 1D       		.uleb128 0x1d
 1940 0760 48000000 		.4byte	.Ldebug_ranges0+0x48
 1941 0764 78070000 		.4byte	0x778
 1942 0768 14       		.uleb128 0x14
 1943 0769 746D7000 		.ascii	"tmp\000"
 1944 076d 01       		.byte	0x1
 1945 076e D3       		.byte	0xd3
 1946 076f 70000000 		.4byte	0x70
 1947 0773 49030000 		.4byte	.LLST28
 1948 0777 00       		.byte	0
 1949 0778 1E       		.uleb128 0x1e
 1950 0779 C9060000 		.4byte	0x6c9
 1951 077d 12000000 		.4byte	.LBB21
 1952 0781 60000000 		.4byte	.Ldebug_ranges0+0x60
 1953 0785 01       		.byte	0x1
 1954 0786 D4       		.byte	0xd4
 1955 0787 B2070000 		.4byte	0x7b2
 1956 078b 1F       		.uleb128 0x1f
 1957 078c F1060000 		.4byte	0x6f1
 1958 0790 5C030000 		.4byte	.LLST29
 1959 0794 20       		.uleb128 0x20
 1960 0795 E6060000 		.4byte	0x6e6
 1961 0799 01       		.byte	0x1
 1962 079a 55       		.byte	0x55
 1963 079b 20       		.uleb128 0x20
ARM GAS  /tmp/ccMLpdil.s 			page 36


 1964 079c DB060000 		.4byte	0x6db
 1965 07a0 01       		.byte	0x1
 1966 07a1 54       		.byte	0x54
 1967 07a2 21       		.uleb128 0x21
 1968 07a3 78000000 		.4byte	.Ldebug_ranges0+0x78
 1969 07a7 22       		.uleb128 0x22
 1970 07a8 FC060000 		.4byte	0x6fc
 1971 07ac 7A030000 		.4byte	.LLST30
 1972 07b0 00       		.byte	0
 1973 07b1 00       		.byte	0
 1974 07b2 15       		.uleb128 0x15
 1975 07b3 44000000 		.4byte	.LBB24
 1976 07b7 4A000000 		.4byte	.LBE24
 1977 07bb 14       		.uleb128 0x14
 1978 07bc 746D7000 		.ascii	"tmp\000"
 1979 07c0 01       		.byte	0x1
 1980 07c1 D5       		.byte	0xd5
 1981 07c2 70000000 		.4byte	0x70
 1982 07c6 98030000 		.4byte	.LLST31
 1983 07ca 00       		.byte	0
 1984 07cb 00       		.byte	0
 1985 07cc 23       		.uleb128 0x23
 1986 07cd C9060000 		.4byte	0x6c9
 1987 07d1 00000000 		.4byte	.LFB13
 1988 07d5 50000000 		.4byte	.LFE13
 1989 07d9 AB030000 		.4byte	.LLST32
 1990 07dd 06080000 		.4byte	0x806
 1991 07e1 1F       		.uleb128 0x1f
 1992 07e2 DB060000 		.4byte	0x6db
 1993 07e6 CB030000 		.4byte	.LLST33
 1994 07ea 1F       		.uleb128 0x1f
 1995 07eb E6060000 		.4byte	0x6e6
 1996 07ef E9030000 		.4byte	.LLST34
 1997 07f3 1F       		.uleb128 0x1f
 1998 07f4 F1060000 		.4byte	0x6f1
 1999 07f8 07040000 		.4byte	.LLST35
 2000 07fc 22       		.uleb128 0x22
 2001 07fd FC060000 		.4byte	0x6fc
 2002 0801 30040000 		.4byte	.LLST36
 2003 0805 00       		.byte	0
 2004 0806 24       		.uleb128 0x24
 2005 0807 01       		.byte	0x1
 2006 0808 32000000 		.4byte	.LASF77
 2007 080c 01       		.byte	0x1
 2008 080d 0B01     		.2byte	0x10b
 2009 080f 01       		.byte	0x1
 2010 0810 D9000000 		.4byte	0xd9
 2011 0814 00000000 		.4byte	.LFB14
 2012 0818 48000000 		.4byte	.LFE14
 2013 081c 4E040000 		.4byte	.LLST37
 2014 0820 45080000 		.4byte	0x845
 2015 0824 25       		.uleb128 0x25
 2016 0825 6D627000 		.ascii	"mbp\000"
 2017 0829 01       		.byte	0x1
 2018 082a 0B01     		.2byte	0x10b
 2019 082c EB040000 		.4byte	0x4eb
 2020 0830 6E040000 		.4byte	.LLST38
ARM GAS  /tmp/ccMLpdil.s 			page 37


 2021 0834 25       		.uleb128 0x25
 2022 0835 6D736700 		.ascii	"msg\000"
 2023 0839 01       		.byte	0x1
 2024 083a 0B01     		.2byte	0x10b
 2025 083c D9000000 		.4byte	0xd9
 2026 0840 8C040000 		.4byte	.LLST39
 2027 0844 00       		.byte	0
 2028 0845 26       		.uleb128 0x26
 2029 0846 01       		.byte	0x1
 2030 0847 F7010000 		.4byte	.LASF78
 2031 084b 01       		.byte	0x1
 2032 084c 4901     		.2byte	0x149
 2033 084e 01       		.byte	0x1
 2034 084f D9000000 		.4byte	0xd9
 2035 0853 01       		.byte	0x1
 2036 0854 89080000 		.4byte	0x889
 2037 0858 27       		.uleb128 0x27
 2038 0859 6D627000 		.ascii	"mbp\000"
 2039 085d 01       		.byte	0x1
 2040 085e 4901     		.2byte	0x149
 2041 0860 EB040000 		.4byte	0x4eb
 2042 0864 28       		.uleb128 0x28
 2043 0865 28020000 		.4byte	.LASF79
 2044 0869 01       		.byte	0x1
 2045 086a 4901     		.2byte	0x149
 2046 086c 42040000 		.4byte	0x442
 2047 0870 28       		.uleb128 0x28
 2048 0871 6A020000 		.4byte	.LASF71
 2049 0875 01       		.byte	0x1
 2050 0876 4901     		.2byte	0x149
 2051 0878 EF000000 		.4byte	0xef
 2052 087c 29       		.uleb128 0x29
 2053 087d 06000000 		.4byte	.LASF64
 2054 0881 01       		.byte	0x1
 2055 0882 4A01     		.2byte	0x14a
 2056 0884 D9000000 		.4byte	0xd9
 2057 0888 00       		.byte	0
 2058 0889 24       		.uleb128 0x24
 2059 088a 01       		.byte	0x1
 2060 088b 51030000 		.4byte	.LASF80
 2061 088f 01       		.byte	0x1
 2062 0890 2D01     		.2byte	0x12d
 2063 0892 01       		.byte	0x1
 2064 0893 D9000000 		.4byte	0xd9
 2065 0897 00000000 		.4byte	.LFB15
 2066 089b 64000000 		.4byte	.LFE15
 2067 089f AA040000 		.4byte	.LLST40
 2068 08a3 55090000 		.4byte	0x955
 2069 08a7 25       		.uleb128 0x25
 2070 08a8 6D627000 		.ascii	"mbp\000"
 2071 08ac 01       		.byte	0x1
 2072 08ad 2D01     		.2byte	0x12d
 2073 08af EB040000 		.4byte	0x4eb
 2074 08b3 CA040000 		.4byte	.LLST41
 2075 08b7 2A       		.uleb128 0x2a
 2076 08b8 28020000 		.4byte	.LASF79
 2077 08bc 01       		.byte	0x1
ARM GAS  /tmp/ccMLpdil.s 			page 38


 2078 08bd 2D01     		.2byte	0x12d
 2079 08bf 42040000 		.4byte	0x442
 2080 08c3 E8040000 		.4byte	.LLST42
 2081 08c7 2A       		.uleb128 0x2a
 2082 08c8 6A020000 		.4byte	.LASF71
 2083 08cc 01       		.byte	0x1
 2084 08cd 2D01     		.2byte	0x12d
 2085 08cf EF000000 		.4byte	0xef
 2086 08d3 06050000 		.4byte	.LLST43
 2087 08d7 2B       		.uleb128 0x2b
 2088 08d8 06000000 		.4byte	.LASF64
 2089 08dc 01       		.byte	0x1
 2090 08dd 2E01     		.2byte	0x12e
 2091 08df D9000000 		.4byte	0xd9
 2092 08e3 01       		.byte	0x1
 2093 08e4 56       		.byte	0x56
 2094 08e5 1D       		.uleb128 0x1d
 2095 08e6 90000000 		.4byte	.Ldebug_ranges0+0x90
 2096 08ea FF080000 		.4byte	0x8ff
 2097 08ee 2C       		.uleb128 0x2c
 2098 08ef 746D7000 		.ascii	"tmp\000"
 2099 08f3 01       		.byte	0x1
 2100 08f4 3001     		.2byte	0x130
 2101 08f6 70000000 		.4byte	0x70
 2102 08fa 2F050000 		.4byte	.LLST44
 2103 08fe 00       		.byte	0
 2104 08ff 2D       		.uleb128 0x2d
 2105 0900 45080000 		.4byte	0x845
 2106 0904 12000000 		.4byte	.LBB32
 2107 0908 A8000000 		.4byte	.Ldebug_ranges0+0xa8
 2108 090c 01       		.byte	0x1
 2109 090d 3101     		.2byte	0x131
 2110 090f 3A090000 		.4byte	0x93a
 2111 0913 1F       		.uleb128 0x1f
 2112 0914 70080000 		.4byte	0x870
 2113 0918 42050000 		.4byte	.LLST45
 2114 091c 20       		.uleb128 0x20
 2115 091d 64080000 		.4byte	0x864
 2116 0921 01       		.byte	0x1
 2117 0922 55       		.byte	0x55
 2118 0923 20       		.uleb128 0x20
 2119 0924 58080000 		.4byte	0x858
 2120 0928 01       		.byte	0x1
 2121 0929 54       		.byte	0x54
 2122 092a 21       		.uleb128 0x21
 2123 092b C0000000 		.4byte	.Ldebug_ranges0+0xc0
 2124 092f 22       		.uleb128 0x22
 2125 0930 7C080000 		.4byte	0x87c
 2126 0934 60050000 		.4byte	.LLST46
 2127 0938 00       		.byte	0
 2128 0939 00       		.byte	0
 2129 093a 15       		.uleb128 0x15
 2130 093b 4C000000 		.4byte	.LBB35
 2131 093f 52000000 		.4byte	.LBE35
 2132 0943 2C       		.uleb128 0x2c
 2133 0944 746D7000 		.ascii	"tmp\000"
 2134 0948 01       		.byte	0x1
ARM GAS  /tmp/ccMLpdil.s 			page 39


 2135 0949 3201     		.2byte	0x132
 2136 094b 70000000 		.4byte	0x70
 2137 094f 7E050000 		.4byte	.LLST47
 2138 0953 00       		.byte	0
 2139 0954 00       		.byte	0
 2140 0955 23       		.uleb128 0x23
 2141 0956 45080000 		.4byte	0x845
 2142 095a 00000000 		.4byte	.LFB16
 2143 095e 50000000 		.4byte	.LFE16
 2144 0962 91050000 		.4byte	.LLST48
 2145 0966 8F090000 		.4byte	0x98f
 2146 096a 1F       		.uleb128 0x1f
 2147 096b 58080000 		.4byte	0x858
 2148 096f B1050000 		.4byte	.LLST49
 2149 0973 1F       		.uleb128 0x1f
 2150 0974 64080000 		.4byte	0x864
 2151 0978 CF050000 		.4byte	.LLST50
 2152 097c 1F       		.uleb128 0x1f
 2153 097d 70080000 		.4byte	0x870
 2154 0981 ED050000 		.4byte	.LLST51
 2155 0985 22       		.uleb128 0x22
 2156 0986 7C080000 		.4byte	0x87c
 2157 098a 16060000 		.4byte	.LLST52
 2158 098e 00       		.byte	0
 2159 098f 2E       		.uleb128 0x2e
 2160 0990 01       		.byte	0x1
 2161 0991 E6010000 		.4byte	.LASF81
 2162 0995 01       		.byte	0x1
 2163 0996 6801     		.2byte	0x168
 2164 0998 01       		.byte	0x1
 2165 0999 D9000000 		.4byte	0xd9
 2166 099d 00000000 		.4byte	.LFB17
 2167 09a1 4C000000 		.4byte	.LFE17
 2168 09a5 34060000 		.4byte	.LLST53
 2169 09a9 25       		.uleb128 0x25
 2170 09aa 6D627000 		.ascii	"mbp\000"
 2171 09ae 01       		.byte	0x1
 2172 09af 6801     		.2byte	0x168
 2173 09b1 EB040000 		.4byte	0x4eb
 2174 09b5 54060000 		.4byte	.LLST54
 2175 09b9 2A       		.uleb128 0x2a
 2176 09ba 28020000 		.4byte	.LASF79
 2177 09be 01       		.byte	0x1
 2178 09bf 6801     		.2byte	0x168
 2179 09c1 42040000 		.4byte	0x442
 2180 09c5 72060000 		.4byte	.LLST55
 2181 09c9 00       		.byte	0
 2182 09ca 00       		.byte	0
 2183              		.section	.debug_abbrev,"",%progbits
 2184              	.Ldebug_abbrev0:
 2185 0000 01       		.uleb128 0x1
 2186 0001 11       		.uleb128 0x11
 2187 0002 01       		.byte	0x1
 2188 0003 25       		.uleb128 0x25
 2189 0004 0E       		.uleb128 0xe
 2190 0005 13       		.uleb128 0x13
 2191 0006 0B       		.uleb128 0xb
ARM GAS  /tmp/ccMLpdil.s 			page 40


 2192 0007 03       		.uleb128 0x3
 2193 0008 0E       		.uleb128 0xe
 2194 0009 1B       		.uleb128 0x1b
 2195 000a 0E       		.uleb128 0xe
 2196 000b 11       		.uleb128 0x11
 2197 000c 01       		.uleb128 0x1
 2198 000d 52       		.uleb128 0x52
 2199 000e 01       		.uleb128 0x1
 2200 000f 55       		.uleb128 0x55
 2201 0010 06       		.uleb128 0x6
 2202 0011 10       		.uleb128 0x10
 2203 0012 06       		.uleb128 0x6
 2204 0013 00       		.byte	0
 2205 0014 00       		.byte	0
 2206 0015 02       		.uleb128 0x2
 2207 0016 24       		.uleb128 0x24
 2208 0017 00       		.byte	0
 2209 0018 0B       		.uleb128 0xb
 2210 0019 0B       		.uleb128 0xb
 2211 001a 3E       		.uleb128 0x3e
 2212 001b 0B       		.uleb128 0xb
 2213 001c 03       		.uleb128 0x3
 2214 001d 08       		.uleb128 0x8
 2215 001e 00       		.byte	0
 2216 001f 00       		.byte	0
 2217 0020 03       		.uleb128 0x3
 2218 0021 24       		.uleb128 0x24
 2219 0022 00       		.byte	0
 2220 0023 0B       		.uleb128 0xb
 2221 0024 0B       		.uleb128 0xb
 2222 0025 3E       		.uleb128 0x3e
 2223 0026 0B       		.uleb128 0xb
 2224 0027 03       		.uleb128 0x3
 2225 0028 0E       		.uleb128 0xe
 2226 0029 00       		.byte	0
 2227 002a 00       		.byte	0
 2228 002b 04       		.uleb128 0x4
 2229 002c 16       		.uleb128 0x16
 2230 002d 00       		.byte	0
 2231 002e 03       		.uleb128 0x3
 2232 002f 0E       		.uleb128 0xe
 2233 0030 3A       		.uleb128 0x3a
 2234 0031 0B       		.uleb128 0xb
 2235 0032 3B       		.uleb128 0x3b
 2236 0033 0B       		.uleb128 0xb
 2237 0034 49       		.uleb128 0x49
 2238 0035 13       		.uleb128 0x13
 2239 0036 00       		.byte	0
 2240 0037 00       		.byte	0
 2241 0038 05       		.uleb128 0x5
 2242 0039 13       		.uleb128 0x13
 2243 003a 01       		.byte	0x1
 2244 003b 03       		.uleb128 0x3
 2245 003c 0E       		.uleb128 0xe
 2246 003d 0B       		.uleb128 0xb
 2247 003e 0B       		.uleb128 0xb
 2248 003f 3A       		.uleb128 0x3a
ARM GAS  /tmp/ccMLpdil.s 			page 41


 2249 0040 0B       		.uleb128 0xb
 2250 0041 3B       		.uleb128 0x3b
 2251 0042 0B       		.uleb128 0xb
 2252 0043 01       		.uleb128 0x1
 2253 0044 13       		.uleb128 0x13
 2254 0045 00       		.byte	0
 2255 0046 00       		.byte	0
 2256 0047 06       		.uleb128 0x6
 2257 0048 0D       		.uleb128 0xd
 2258 0049 00       		.byte	0
 2259 004a 03       		.uleb128 0x3
 2260 004b 0E       		.uleb128 0xe
 2261 004c 3A       		.uleb128 0x3a
 2262 004d 0B       		.uleb128 0xb
 2263 004e 3B       		.uleb128 0x3b
 2264 004f 0B       		.uleb128 0xb
 2265 0050 49       		.uleb128 0x49
 2266 0051 13       		.uleb128 0x13
 2267 0052 38       		.uleb128 0x38
 2268 0053 0A       		.uleb128 0xa
 2269 0054 00       		.byte	0
 2270 0055 00       		.byte	0
 2271 0056 07       		.uleb128 0x7
 2272 0057 0D       		.uleb128 0xd
 2273 0058 00       		.byte	0
 2274 0059 03       		.uleb128 0x3
 2275 005a 08       		.uleb128 0x8
 2276 005b 3A       		.uleb128 0x3a
 2277 005c 0B       		.uleb128 0xb
 2278 005d 3B       		.uleb128 0x3b
 2279 005e 0B       		.uleb128 0xb
 2280 005f 49       		.uleb128 0x49
 2281 0060 13       		.uleb128 0x13
 2282 0061 38       		.uleb128 0x38
 2283 0062 0A       		.uleb128 0xa
 2284 0063 00       		.byte	0
 2285 0064 00       		.byte	0
 2286 0065 08       		.uleb128 0x8
 2287 0066 13       		.uleb128 0x13
 2288 0067 01       		.byte	0x1
 2289 0068 0B       		.uleb128 0xb
 2290 0069 0B       		.uleb128 0xb
 2291 006a 3A       		.uleb128 0x3a
 2292 006b 0B       		.uleb128 0xb
 2293 006c 3B       		.uleb128 0x3b
 2294 006d 0B       		.uleb128 0xb
 2295 006e 01       		.uleb128 0x1
 2296 006f 13       		.uleb128 0x13
 2297 0070 00       		.byte	0
 2298 0071 00       		.byte	0
 2299 0072 09       		.uleb128 0x9
 2300 0073 0F       		.uleb128 0xf
 2301 0074 00       		.byte	0
 2302 0075 0B       		.uleb128 0xb
 2303 0076 0B       		.uleb128 0xb
 2304 0077 49       		.uleb128 0x49
 2305 0078 13       		.uleb128 0x13
ARM GAS  /tmp/ccMLpdil.s 			page 42


 2306 0079 00       		.byte	0
 2307 007a 00       		.byte	0
 2308 007b 0A       		.uleb128 0xa
 2309 007c 0F       		.uleb128 0xf
 2310 007d 00       		.byte	0
 2311 007e 0B       		.uleb128 0xb
 2312 007f 0B       		.uleb128 0xb
 2313 0080 00       		.byte	0
 2314 0081 00       		.byte	0
 2315 0082 0B       		.uleb128 0xb
 2316 0083 13       		.uleb128 0x13
 2317 0084 01       		.byte	0x1
 2318 0085 03       		.uleb128 0x3
 2319 0086 0E       		.uleb128 0xe
 2320 0087 0B       		.uleb128 0xb
 2321 0088 0B       		.uleb128 0xb
 2322 0089 3A       		.uleb128 0x3a
 2323 008a 0B       		.uleb128 0xb
 2324 008b 3B       		.uleb128 0x3b
 2325 008c 05       		.uleb128 0x5
 2326 008d 01       		.uleb128 0x1
 2327 008e 13       		.uleb128 0x13
 2328 008f 00       		.byte	0
 2329 0090 00       		.byte	0
 2330 0091 0C       		.uleb128 0xc
 2331 0092 0D       		.uleb128 0xd
 2332 0093 00       		.byte	0
 2333 0094 03       		.uleb128 0x3
 2334 0095 08       		.uleb128 0x8
 2335 0096 3A       		.uleb128 0x3a
 2336 0097 0B       		.uleb128 0xb
 2337 0098 3B       		.uleb128 0x3b
 2338 0099 05       		.uleb128 0x5
 2339 009a 49       		.uleb128 0x49
 2340 009b 13       		.uleb128 0x13
 2341 009c 38       		.uleb128 0x38
 2342 009d 0A       		.uleb128 0xa
 2343 009e 00       		.byte	0
 2344 009f 00       		.byte	0
 2345 00a0 0D       		.uleb128 0xd
 2346 00a1 35       		.uleb128 0x35
 2347 00a2 00       		.byte	0
 2348 00a3 49       		.uleb128 0x49
 2349 00a4 13       		.uleb128 0x13
 2350 00a5 00       		.byte	0
 2351 00a6 00       		.byte	0
 2352 00a7 0E       		.uleb128 0xe
 2353 00a8 17       		.uleb128 0x17
 2354 00a9 01       		.byte	0x1
 2355 00aa 0B       		.uleb128 0xb
 2356 00ab 0B       		.uleb128 0xb
 2357 00ac 3A       		.uleb128 0x3a
 2358 00ad 0B       		.uleb128 0xb
 2359 00ae 3B       		.uleb128 0x3b
 2360 00af 0B       		.uleb128 0xb
 2361 00b0 01       		.uleb128 0x1
 2362 00b1 13       		.uleb128 0x13
ARM GAS  /tmp/ccMLpdil.s 			page 43


 2363 00b2 00       		.byte	0
 2364 00b3 00       		.byte	0
 2365 00b4 0F       		.uleb128 0xf
 2366 00b5 0D       		.uleb128 0xd
 2367 00b6 00       		.byte	0
 2368 00b7 03       		.uleb128 0x3
 2369 00b8 0E       		.uleb128 0xe
 2370 00b9 3A       		.uleb128 0x3a
 2371 00ba 0B       		.uleb128 0xb
 2372 00bb 3B       		.uleb128 0x3b
 2373 00bc 0B       		.uleb128 0xb
 2374 00bd 49       		.uleb128 0x49
 2375 00be 13       		.uleb128 0x13
 2376 00bf 00       		.byte	0
 2377 00c0 00       		.byte	0
 2378 00c1 10       		.uleb128 0x10
 2379 00c2 26       		.uleb128 0x26
 2380 00c3 00       		.byte	0
 2381 00c4 49       		.uleb128 0x49
 2382 00c5 13       		.uleb128 0x13
 2383 00c6 00       		.byte	0
 2384 00c7 00       		.byte	0
 2385 00c8 11       		.uleb128 0x11
 2386 00c9 2E       		.uleb128 0x2e
 2387 00ca 01       		.byte	0x1
 2388 00cb 3F       		.uleb128 0x3f
 2389 00cc 0C       		.uleb128 0xc
 2390 00cd 03       		.uleb128 0x3
 2391 00ce 0E       		.uleb128 0xe
 2392 00cf 3A       		.uleb128 0x3a
 2393 00d0 0B       		.uleb128 0xb
 2394 00d1 3B       		.uleb128 0x3b
 2395 00d2 0B       		.uleb128 0xb
 2396 00d3 27       		.uleb128 0x27
 2397 00d4 0C       		.uleb128 0xc
 2398 00d5 11       		.uleb128 0x11
 2399 00d6 01       		.uleb128 0x1
 2400 00d7 12       		.uleb128 0x12
 2401 00d8 01       		.uleb128 0x1
 2402 00d9 40       		.uleb128 0x40
 2403 00da 06       		.uleb128 0x6
 2404 00db 01       		.uleb128 0x1
 2405 00dc 13       		.uleb128 0x13
 2406 00dd 00       		.byte	0
 2407 00de 00       		.byte	0
 2408 00df 12       		.uleb128 0x12
 2409 00e0 05       		.uleb128 0x5
 2410 00e1 00       		.byte	0
 2411 00e2 03       		.uleb128 0x3
 2412 00e3 08       		.uleb128 0x8
 2413 00e4 3A       		.uleb128 0x3a
 2414 00e5 0B       		.uleb128 0xb
 2415 00e6 3B       		.uleb128 0x3b
 2416 00e7 0B       		.uleb128 0xb
 2417 00e8 49       		.uleb128 0x49
 2418 00e9 13       		.uleb128 0x13
 2419 00ea 02       		.uleb128 0x2
ARM GAS  /tmp/ccMLpdil.s 			page 44


 2420 00eb 06       		.uleb128 0x6
 2421 00ec 00       		.byte	0
 2422 00ed 00       		.byte	0
 2423 00ee 13       		.uleb128 0x13
 2424 00ef 0B       		.uleb128 0xb
 2425 00f0 01       		.byte	0x1
 2426 00f1 11       		.uleb128 0x11
 2427 00f2 01       		.uleb128 0x1
 2428 00f3 12       		.uleb128 0x12
 2429 00f4 01       		.uleb128 0x1
 2430 00f5 01       		.uleb128 0x1
 2431 00f6 13       		.uleb128 0x13
 2432 00f7 00       		.byte	0
 2433 00f8 00       		.byte	0
 2434 00f9 14       		.uleb128 0x14
 2435 00fa 34       		.uleb128 0x34
 2436 00fb 00       		.byte	0
 2437 00fc 03       		.uleb128 0x3
 2438 00fd 08       		.uleb128 0x8
 2439 00fe 3A       		.uleb128 0x3a
 2440 00ff 0B       		.uleb128 0xb
 2441 0100 3B       		.uleb128 0x3b
 2442 0101 0B       		.uleb128 0xb
 2443 0102 49       		.uleb128 0x49
 2444 0103 13       		.uleb128 0x13
 2445 0104 02       		.uleb128 0x2
 2446 0105 06       		.uleb128 0x6
 2447 0106 00       		.byte	0
 2448 0107 00       		.byte	0
 2449 0108 15       		.uleb128 0x15
 2450 0109 0B       		.uleb128 0xb
 2451 010a 01       		.byte	0x1
 2452 010b 11       		.uleb128 0x11
 2453 010c 01       		.uleb128 0x1
 2454 010d 12       		.uleb128 0x12
 2455 010e 01       		.uleb128 0x1
 2456 010f 00       		.byte	0
 2457 0110 00       		.byte	0
 2458 0111 16       		.uleb128 0x16
 2459 0112 2E       		.uleb128 0x2e
 2460 0113 01       		.byte	0x1
 2461 0114 3F       		.uleb128 0x3f
 2462 0115 0C       		.uleb128 0xc
 2463 0116 03       		.uleb128 0x3
 2464 0117 0E       		.uleb128 0xe
 2465 0118 3A       		.uleb128 0x3a
 2466 0119 0B       		.uleb128 0xb
 2467 011a 3B       		.uleb128 0x3b
 2468 011b 0B       		.uleb128 0xb
 2469 011c 27       		.uleb128 0x27
 2470 011d 0C       		.uleb128 0xc
 2471 011e 49       		.uleb128 0x49
 2472 011f 13       		.uleb128 0x13
 2473 0120 20       		.uleb128 0x20
 2474 0121 0B       		.uleb128 0xb
 2475 0122 01       		.uleb128 0x1
 2476 0123 13       		.uleb128 0x13
ARM GAS  /tmp/ccMLpdil.s 			page 45


 2477 0124 00       		.byte	0
 2478 0125 00       		.byte	0
 2479 0126 17       		.uleb128 0x17
 2480 0127 05       		.uleb128 0x5
 2481 0128 00       		.byte	0
 2482 0129 03       		.uleb128 0x3
 2483 012a 08       		.uleb128 0x8
 2484 012b 3A       		.uleb128 0x3a
 2485 012c 0B       		.uleb128 0xb
 2486 012d 3B       		.uleb128 0x3b
 2487 012e 0B       		.uleb128 0xb
 2488 012f 49       		.uleb128 0x49
 2489 0130 13       		.uleb128 0x13
 2490 0131 00       		.byte	0
 2491 0132 00       		.byte	0
 2492 0133 18       		.uleb128 0x18
 2493 0134 05       		.uleb128 0x5
 2494 0135 00       		.byte	0
 2495 0136 03       		.uleb128 0x3
 2496 0137 0E       		.uleb128 0xe
 2497 0138 3A       		.uleb128 0x3a
 2498 0139 0B       		.uleb128 0xb
 2499 013a 3B       		.uleb128 0x3b
 2500 013b 0B       		.uleb128 0xb
 2501 013c 49       		.uleb128 0x49
 2502 013d 13       		.uleb128 0x13
 2503 013e 00       		.byte	0
 2504 013f 00       		.byte	0
 2505 0140 19       		.uleb128 0x19
 2506 0141 34       		.uleb128 0x34
 2507 0142 00       		.byte	0
 2508 0143 03       		.uleb128 0x3
 2509 0144 0E       		.uleb128 0xe
 2510 0145 3A       		.uleb128 0x3a
 2511 0146 0B       		.uleb128 0xb
 2512 0147 3B       		.uleb128 0x3b
 2513 0148 0B       		.uleb128 0xb
 2514 0149 49       		.uleb128 0x49
 2515 014a 13       		.uleb128 0x13
 2516 014b 00       		.byte	0
 2517 014c 00       		.byte	0
 2518 014d 1A       		.uleb128 0x1a
 2519 014e 2E       		.uleb128 0x2e
 2520 014f 01       		.byte	0x1
 2521 0150 3F       		.uleb128 0x3f
 2522 0151 0C       		.uleb128 0xc
 2523 0152 03       		.uleb128 0x3
 2524 0153 0E       		.uleb128 0xe
 2525 0154 3A       		.uleb128 0x3a
 2526 0155 0B       		.uleb128 0xb
 2527 0156 3B       		.uleb128 0x3b
 2528 0157 0B       		.uleb128 0xb
 2529 0158 27       		.uleb128 0x27
 2530 0159 0C       		.uleb128 0xc
 2531 015a 49       		.uleb128 0x49
 2532 015b 13       		.uleb128 0x13
 2533 015c 11       		.uleb128 0x11
ARM GAS  /tmp/ccMLpdil.s 			page 46


 2534 015d 01       		.uleb128 0x1
 2535 015e 12       		.uleb128 0x12
 2536 015f 01       		.uleb128 0x1
 2537 0160 40       		.uleb128 0x40
 2538 0161 06       		.uleb128 0x6
 2539 0162 01       		.uleb128 0x1
 2540 0163 13       		.uleb128 0x13
 2541 0164 00       		.byte	0
 2542 0165 00       		.byte	0
 2543 0166 1B       		.uleb128 0x1b
 2544 0167 05       		.uleb128 0x5
 2545 0168 00       		.byte	0
 2546 0169 03       		.uleb128 0x3
 2547 016a 0E       		.uleb128 0xe
 2548 016b 3A       		.uleb128 0x3a
 2549 016c 0B       		.uleb128 0xb
 2550 016d 3B       		.uleb128 0x3b
 2551 016e 0B       		.uleb128 0xb
 2552 016f 49       		.uleb128 0x49
 2553 0170 13       		.uleb128 0x13
 2554 0171 02       		.uleb128 0x2
 2555 0172 06       		.uleb128 0x6
 2556 0173 00       		.byte	0
 2557 0174 00       		.byte	0
 2558 0175 1C       		.uleb128 0x1c
 2559 0176 34       		.uleb128 0x34
 2560 0177 00       		.byte	0
 2561 0178 03       		.uleb128 0x3
 2562 0179 0E       		.uleb128 0xe
 2563 017a 3A       		.uleb128 0x3a
 2564 017b 0B       		.uleb128 0xb
 2565 017c 3B       		.uleb128 0x3b
 2566 017d 0B       		.uleb128 0xb
 2567 017e 49       		.uleb128 0x49
 2568 017f 13       		.uleb128 0x13
 2569 0180 02       		.uleb128 0x2
 2570 0181 0A       		.uleb128 0xa
 2571 0182 00       		.byte	0
 2572 0183 00       		.byte	0
 2573 0184 1D       		.uleb128 0x1d
 2574 0185 0B       		.uleb128 0xb
 2575 0186 01       		.byte	0x1
 2576 0187 55       		.uleb128 0x55
 2577 0188 06       		.uleb128 0x6
 2578 0189 01       		.uleb128 0x1
 2579 018a 13       		.uleb128 0x13
 2580 018b 00       		.byte	0
 2581 018c 00       		.byte	0
 2582 018d 1E       		.uleb128 0x1e
 2583 018e 1D       		.uleb128 0x1d
 2584 018f 01       		.byte	0x1
 2585 0190 31       		.uleb128 0x31
 2586 0191 13       		.uleb128 0x13
 2587 0192 52       		.uleb128 0x52
 2588 0193 01       		.uleb128 0x1
 2589 0194 55       		.uleb128 0x55
 2590 0195 06       		.uleb128 0x6
ARM GAS  /tmp/ccMLpdil.s 			page 47


 2591 0196 58       		.uleb128 0x58
 2592 0197 0B       		.uleb128 0xb
 2593 0198 59       		.uleb128 0x59
 2594 0199 0B       		.uleb128 0xb
 2595 019a 01       		.uleb128 0x1
 2596 019b 13       		.uleb128 0x13
 2597 019c 00       		.byte	0
 2598 019d 00       		.byte	0
 2599 019e 1F       		.uleb128 0x1f
 2600 019f 05       		.uleb128 0x5
 2601 01a0 00       		.byte	0
 2602 01a1 31       		.uleb128 0x31
 2603 01a2 13       		.uleb128 0x13
 2604 01a3 02       		.uleb128 0x2
 2605 01a4 06       		.uleb128 0x6
 2606 01a5 00       		.byte	0
 2607 01a6 00       		.byte	0
 2608 01a7 20       		.uleb128 0x20
 2609 01a8 05       		.uleb128 0x5
 2610 01a9 00       		.byte	0
 2611 01aa 31       		.uleb128 0x31
 2612 01ab 13       		.uleb128 0x13
 2613 01ac 02       		.uleb128 0x2
 2614 01ad 0A       		.uleb128 0xa
 2615 01ae 00       		.byte	0
 2616 01af 00       		.byte	0
 2617 01b0 21       		.uleb128 0x21
 2618 01b1 0B       		.uleb128 0xb
 2619 01b2 01       		.byte	0x1
 2620 01b3 55       		.uleb128 0x55
 2621 01b4 06       		.uleb128 0x6
 2622 01b5 00       		.byte	0
 2623 01b6 00       		.byte	0
 2624 01b7 22       		.uleb128 0x22
 2625 01b8 34       		.uleb128 0x34
 2626 01b9 00       		.byte	0
 2627 01ba 31       		.uleb128 0x31
 2628 01bb 13       		.uleb128 0x13
 2629 01bc 02       		.uleb128 0x2
 2630 01bd 06       		.uleb128 0x6
 2631 01be 00       		.byte	0
 2632 01bf 00       		.byte	0
 2633 01c0 23       		.uleb128 0x23
 2634 01c1 2E       		.uleb128 0x2e
 2635 01c2 01       		.byte	0x1
 2636 01c3 31       		.uleb128 0x31
 2637 01c4 13       		.uleb128 0x13
 2638 01c5 11       		.uleb128 0x11
 2639 01c6 01       		.uleb128 0x1
 2640 01c7 12       		.uleb128 0x12
 2641 01c8 01       		.uleb128 0x1
 2642 01c9 40       		.uleb128 0x40
 2643 01ca 06       		.uleb128 0x6
 2644 01cb 01       		.uleb128 0x1
 2645 01cc 13       		.uleb128 0x13
 2646 01cd 00       		.byte	0
 2647 01ce 00       		.byte	0
ARM GAS  /tmp/ccMLpdil.s 			page 48


 2648 01cf 24       		.uleb128 0x24
 2649 01d0 2E       		.uleb128 0x2e
 2650 01d1 01       		.byte	0x1
 2651 01d2 3F       		.uleb128 0x3f
 2652 01d3 0C       		.uleb128 0xc
 2653 01d4 03       		.uleb128 0x3
 2654 01d5 0E       		.uleb128 0xe
 2655 01d6 3A       		.uleb128 0x3a
 2656 01d7 0B       		.uleb128 0xb
 2657 01d8 3B       		.uleb128 0x3b
 2658 01d9 05       		.uleb128 0x5
 2659 01da 27       		.uleb128 0x27
 2660 01db 0C       		.uleb128 0xc
 2661 01dc 49       		.uleb128 0x49
 2662 01dd 13       		.uleb128 0x13
 2663 01de 11       		.uleb128 0x11
 2664 01df 01       		.uleb128 0x1
 2665 01e0 12       		.uleb128 0x12
 2666 01e1 01       		.uleb128 0x1
 2667 01e2 40       		.uleb128 0x40
 2668 01e3 06       		.uleb128 0x6
 2669 01e4 01       		.uleb128 0x1
 2670 01e5 13       		.uleb128 0x13
 2671 01e6 00       		.byte	0
 2672 01e7 00       		.byte	0
 2673 01e8 25       		.uleb128 0x25
 2674 01e9 05       		.uleb128 0x5
 2675 01ea 00       		.byte	0
 2676 01eb 03       		.uleb128 0x3
 2677 01ec 08       		.uleb128 0x8
 2678 01ed 3A       		.uleb128 0x3a
 2679 01ee 0B       		.uleb128 0xb
 2680 01ef 3B       		.uleb128 0x3b
 2681 01f0 05       		.uleb128 0x5
 2682 01f1 49       		.uleb128 0x49
 2683 01f2 13       		.uleb128 0x13
 2684 01f3 02       		.uleb128 0x2
 2685 01f4 06       		.uleb128 0x6
 2686 01f5 00       		.byte	0
 2687 01f6 00       		.byte	0
 2688 01f7 26       		.uleb128 0x26
 2689 01f8 2E       		.uleb128 0x2e
 2690 01f9 01       		.byte	0x1
 2691 01fa 3F       		.uleb128 0x3f
 2692 01fb 0C       		.uleb128 0xc
 2693 01fc 03       		.uleb128 0x3
 2694 01fd 0E       		.uleb128 0xe
 2695 01fe 3A       		.uleb128 0x3a
 2696 01ff 0B       		.uleb128 0xb
 2697 0200 3B       		.uleb128 0x3b
 2698 0201 05       		.uleb128 0x5
 2699 0202 27       		.uleb128 0x27
 2700 0203 0C       		.uleb128 0xc
 2701 0204 49       		.uleb128 0x49
 2702 0205 13       		.uleb128 0x13
 2703 0206 20       		.uleb128 0x20
 2704 0207 0B       		.uleb128 0xb
ARM GAS  /tmp/ccMLpdil.s 			page 49


 2705 0208 01       		.uleb128 0x1
 2706 0209 13       		.uleb128 0x13
 2707 020a 00       		.byte	0
 2708 020b 00       		.byte	0
 2709 020c 27       		.uleb128 0x27
 2710 020d 05       		.uleb128 0x5
 2711 020e 00       		.byte	0
 2712 020f 03       		.uleb128 0x3
 2713 0210 08       		.uleb128 0x8
 2714 0211 3A       		.uleb128 0x3a
 2715 0212 0B       		.uleb128 0xb
 2716 0213 3B       		.uleb128 0x3b
 2717 0214 05       		.uleb128 0x5
 2718 0215 49       		.uleb128 0x49
 2719 0216 13       		.uleb128 0x13
 2720 0217 00       		.byte	0
 2721 0218 00       		.byte	0
 2722 0219 28       		.uleb128 0x28
 2723 021a 05       		.uleb128 0x5
 2724 021b 00       		.byte	0
 2725 021c 03       		.uleb128 0x3
 2726 021d 0E       		.uleb128 0xe
 2727 021e 3A       		.uleb128 0x3a
 2728 021f 0B       		.uleb128 0xb
 2729 0220 3B       		.uleb128 0x3b
 2730 0221 05       		.uleb128 0x5
 2731 0222 49       		.uleb128 0x49
 2732 0223 13       		.uleb128 0x13
 2733 0224 00       		.byte	0
 2734 0225 00       		.byte	0
 2735 0226 29       		.uleb128 0x29
 2736 0227 34       		.uleb128 0x34
 2737 0228 00       		.byte	0
 2738 0229 03       		.uleb128 0x3
 2739 022a 0E       		.uleb128 0xe
 2740 022b 3A       		.uleb128 0x3a
 2741 022c 0B       		.uleb128 0xb
 2742 022d 3B       		.uleb128 0x3b
 2743 022e 05       		.uleb128 0x5
 2744 022f 49       		.uleb128 0x49
 2745 0230 13       		.uleb128 0x13
 2746 0231 00       		.byte	0
 2747 0232 00       		.byte	0
 2748 0233 2A       		.uleb128 0x2a
 2749 0234 05       		.uleb128 0x5
 2750 0235 00       		.byte	0
 2751 0236 03       		.uleb128 0x3
 2752 0237 0E       		.uleb128 0xe
 2753 0238 3A       		.uleb128 0x3a
 2754 0239 0B       		.uleb128 0xb
 2755 023a 3B       		.uleb128 0x3b
 2756 023b 05       		.uleb128 0x5
 2757 023c 49       		.uleb128 0x49
 2758 023d 13       		.uleb128 0x13
 2759 023e 02       		.uleb128 0x2
 2760 023f 06       		.uleb128 0x6
 2761 0240 00       		.byte	0
ARM GAS  /tmp/ccMLpdil.s 			page 50


 2762 0241 00       		.byte	0
 2763 0242 2B       		.uleb128 0x2b
 2764 0243 34       		.uleb128 0x34
 2765 0244 00       		.byte	0
 2766 0245 03       		.uleb128 0x3
 2767 0246 0E       		.uleb128 0xe
 2768 0247 3A       		.uleb128 0x3a
 2769 0248 0B       		.uleb128 0xb
 2770 0249 3B       		.uleb128 0x3b
 2771 024a 05       		.uleb128 0x5
 2772 024b 49       		.uleb128 0x49
 2773 024c 13       		.uleb128 0x13
 2774 024d 02       		.uleb128 0x2
 2775 024e 0A       		.uleb128 0xa
 2776 024f 00       		.byte	0
 2777 0250 00       		.byte	0
 2778 0251 2C       		.uleb128 0x2c
 2779 0252 34       		.uleb128 0x34
 2780 0253 00       		.byte	0
 2781 0254 03       		.uleb128 0x3
 2782 0255 08       		.uleb128 0x8
 2783 0256 3A       		.uleb128 0x3a
 2784 0257 0B       		.uleb128 0xb
 2785 0258 3B       		.uleb128 0x3b
 2786 0259 05       		.uleb128 0x5
 2787 025a 49       		.uleb128 0x49
 2788 025b 13       		.uleb128 0x13
 2789 025c 02       		.uleb128 0x2
 2790 025d 06       		.uleb128 0x6
 2791 025e 00       		.byte	0
 2792 025f 00       		.byte	0
 2793 0260 2D       		.uleb128 0x2d
 2794 0261 1D       		.uleb128 0x1d
 2795 0262 01       		.byte	0x1
 2796 0263 31       		.uleb128 0x31
 2797 0264 13       		.uleb128 0x13
 2798 0265 52       		.uleb128 0x52
 2799 0266 01       		.uleb128 0x1
 2800 0267 55       		.uleb128 0x55
 2801 0268 06       		.uleb128 0x6
 2802 0269 58       		.uleb128 0x58
 2803 026a 0B       		.uleb128 0xb
 2804 026b 59       		.uleb128 0x59
 2805 026c 05       		.uleb128 0x5
 2806 026d 01       		.uleb128 0x1
 2807 026e 13       		.uleb128 0x13
 2808 026f 00       		.byte	0
 2809 0270 00       		.byte	0
 2810 0271 2E       		.uleb128 0x2e
 2811 0272 2E       		.uleb128 0x2e
 2812 0273 01       		.byte	0x1
 2813 0274 3F       		.uleb128 0x3f
 2814 0275 0C       		.uleb128 0xc
 2815 0276 03       		.uleb128 0x3
 2816 0277 0E       		.uleb128 0xe
 2817 0278 3A       		.uleb128 0x3a
 2818 0279 0B       		.uleb128 0xb
ARM GAS  /tmp/ccMLpdil.s 			page 51


 2819 027a 3B       		.uleb128 0x3b
 2820 027b 05       		.uleb128 0x5
 2821 027c 27       		.uleb128 0x27
 2822 027d 0C       		.uleb128 0xc
 2823 027e 49       		.uleb128 0x49
 2824 027f 13       		.uleb128 0x13
 2825 0280 11       		.uleb128 0x11
 2826 0281 01       		.uleb128 0x1
 2827 0282 12       		.uleb128 0x12
 2828 0283 01       		.uleb128 0x1
 2829 0284 40       		.uleb128 0x40
 2830 0285 06       		.uleb128 0x6
 2831 0286 00       		.byte	0
 2832 0287 00       		.byte	0
 2833 0288 00       		.byte	0
 2834              		.section	.debug_loc,"",%progbits
 2835              	.Ldebug_loc0:
 2836              	.LLST0:
 2837 0000 00000000 		.4byte	.LFB7
 2838 0004 02000000 		.4byte	.LCFI0
 2839 0008 0200     		.2byte	0x2
 2840 000a 7D       		.byte	0x7d
 2841 000b 00       		.sleb128 0
 2842 000c 02000000 		.4byte	.LCFI0
 2843 0010 40000000 		.4byte	.LFE7
 2844 0014 0200     		.2byte	0x2
 2845 0016 7D       		.byte	0x7d
 2846 0017 10       		.sleb128 16
 2847 0018 00000000 		.4byte	0
 2848 001c 00000000 		.4byte	0
 2849              	.LLST1:
 2850 0020 00000000 		.4byte	.LVL0
 2851 0024 10000000 		.4byte	.LVL1
 2852 0028 0100     		.2byte	0x1
 2853 002a 50       		.byte	0x50
 2854 002b 10000000 		.4byte	.LVL1
 2855 002f 40000000 		.4byte	.LFE7
 2856 0033 0100     		.2byte	0x1
 2857 0035 54       		.byte	0x54
 2858 0036 00000000 		.4byte	0
 2859 003a 00000000 		.4byte	0
 2860              	.LLST2:
 2861 003e 00000000 		.4byte	.LVL0
 2862 0042 10000000 		.4byte	.LVL1
 2863 0046 0100     		.2byte	0x1
 2864 0048 51       		.byte	0x51
 2865 0049 10000000 		.4byte	.LVL1
 2866 004d 40000000 		.4byte	.LFE7
 2867 0051 0100     		.2byte	0x1
 2868 0053 55       		.byte	0x55
 2869 0054 00000000 		.4byte	0
 2870 0058 00000000 		.4byte	0
 2871              	.LLST3:
 2872 005c 00000000 		.4byte	.LVL0
 2873 0060 10000000 		.4byte	.LVL1
 2874 0064 0100     		.2byte	0x1
 2875 0066 52       		.byte	0x52
ARM GAS  /tmp/ccMLpdil.s 			page 52


 2876 0067 10000000 		.4byte	.LVL1
 2877 006b 40000000 		.4byte	.LFE7
 2878 006f 0100     		.2byte	0x1
 2879 0071 56       		.byte	0x56
 2880 0072 00000000 		.4byte	0
 2881 0076 00000000 		.4byte	0
 2882              	.LLST4:
 2883 007a 00000000 		.4byte	.LFB8
 2884 007e 02000000 		.4byte	.LCFI1
 2885 0082 0200     		.2byte	0x2
 2886 0084 7D       		.byte	0x7d
 2887 0085 00       		.sleb128 0
 2888 0086 02000000 		.4byte	.LCFI1
 2889 008a 4C000000 		.4byte	.LFE8
 2890 008e 0200     		.2byte	0x2
 2891 0090 7D       		.byte	0x7d
 2892 0091 08       		.sleb128 8
 2893 0092 00000000 		.4byte	0
 2894 0096 00000000 		.4byte	0
 2895              	.LLST5:
 2896 009a 00000000 		.4byte	.LVL2
 2897 009e 06000000 		.4byte	.LVL3
 2898 00a2 0100     		.2byte	0x1
 2899 00a4 50       		.byte	0x50
 2900 00a5 06000000 		.4byte	.LVL3
 2901 00a9 4C000000 		.4byte	.LFE8
 2902 00ad 0100     		.2byte	0x1
 2903 00af 54       		.byte	0x54
 2904 00b0 00000000 		.4byte	0
 2905 00b4 00000000 		.4byte	0
 2906              	.LLST6:
 2907 00b8 0C000000 		.4byte	.LVL5
 2908 00bc 0F000000 		.4byte	.LVL6-1
 2909 00c0 0100     		.2byte	0x1
 2910 00c2 53       		.byte	0x53
 2911 00c3 00000000 		.4byte	0
 2912 00c7 00000000 		.4byte	0
 2913              	.LLST7:
 2914 00cb 3C000000 		.4byte	.LVL8
 2915 00cf 3E000000 		.4byte	.LVL9
 2916 00d3 0100     		.2byte	0x1
 2917 00d5 53       		.byte	0x53
 2918 00d6 00000000 		.4byte	0
 2919 00da 00000000 		.4byte	0
 2920              	.LLST8:
 2921 00de 00000000 		.4byte	.LFB9
 2922 00e2 02000000 		.4byte	.LCFI2
 2923 00e6 0200     		.2byte	0x2
 2924 00e8 7D       		.byte	0x7d
 2925 00e9 00       		.sleb128 0
 2926 00ea 02000000 		.4byte	.LCFI2
 2927 00ee 60000000 		.4byte	.LFE9
 2928 00f2 0200     		.2byte	0x2
 2929 00f4 7D       		.byte	0x7d
 2930 00f5 10       		.sleb128 16
 2931 00f6 00000000 		.4byte	0
 2932 00fa 00000000 		.4byte	0
ARM GAS  /tmp/ccMLpdil.s 			page 53


 2933              	.LLST9:
 2934 00fe 00000000 		.4byte	.LVL10
 2935 0102 11000000 		.4byte	.LVL13-1
 2936 0106 0100     		.2byte	0x1
 2937 0108 50       		.byte	0x50
 2938 0109 11000000 		.4byte	.LVL13-1
 2939 010d 60000000 		.4byte	.LFE9
 2940 0111 0100     		.2byte	0x1
 2941 0113 54       		.byte	0x54
 2942 0114 00000000 		.4byte	0
 2943 0118 00000000 		.4byte	0
 2944              	.LLST10:
 2945 011c 00000000 		.4byte	.LVL10
 2946 0120 11000000 		.4byte	.LVL13-1
 2947 0124 0100     		.2byte	0x1
 2948 0126 51       		.byte	0x51
 2949 0127 11000000 		.4byte	.LVL13-1
 2950 012b 60000000 		.4byte	.LFE9
 2951 012f 0100     		.2byte	0x1
 2952 0131 55       		.byte	0x55
 2953 0132 00000000 		.4byte	0
 2954 0136 00000000 		.4byte	0
 2955              	.LLST11:
 2956 013a 00000000 		.4byte	.LVL10
 2957 013e 11000000 		.4byte	.LVL13-1
 2958 0142 0100     		.2byte	0x1
 2959 0144 52       		.byte	0x52
 2960 0145 11000000 		.4byte	.LVL13-1
 2961 0149 24000000 		.4byte	.LVL14
 2962 014d 0100     		.2byte	0x1
 2963 014f 56       		.byte	0x56
 2964 0150 54000000 		.4byte	.LVL18
 2965 0154 60000000 		.4byte	.LFE9
 2966 0158 0100     		.2byte	0x1
 2967 015a 56       		.byte	0x56
 2968 015b 00000000 		.4byte	0
 2969 015f 00000000 		.4byte	0
 2970              	.LLST12:
 2971 0163 0E000000 		.4byte	.LVL12
 2972 0167 11000000 		.4byte	.LVL13-1
 2973 016b 0100     		.2byte	0x1
 2974 016d 53       		.byte	0x53
 2975 016e 00000000 		.4byte	0
 2976 0172 00000000 		.4byte	0
 2977              	.LLST13:
 2978 0176 12000000 		.4byte	.LVL13
 2979 017a 24000000 		.4byte	.LVL14
 2980 017e 0100     		.2byte	0x1
 2981 0180 56       		.byte	0x56
 2982 0181 54000000 		.4byte	.LVL18
 2983 0185 60000000 		.4byte	.LFE9
 2984 0189 0100     		.2byte	0x1
 2985 018b 56       		.byte	0x56
 2986 018c 00000000 		.4byte	0
 2987 0190 00000000 		.4byte	0
 2988              	.LLST14:
 2989 0194 24000000 		.4byte	.LVL14
ARM GAS  /tmp/ccMLpdil.s 			page 54


 2990 0198 3A000000 		.4byte	.LVL15
 2991 019c 0100     		.2byte	0x1
 2992 019e 50       		.byte	0x50
 2993 019f 3A000000 		.4byte	.LVL15
 2994 01a3 54000000 		.4byte	.LVL18
 2995 01a7 0100     		.2byte	0x1
 2996 01a9 56       		.byte	0x56
 2997 01aa 00000000 		.4byte	0
 2998 01ae 00000000 		.4byte	0
 2999              	.LLST15:
 3000 01b2 50000000 		.4byte	.LVL17
 3001 01b6 54000000 		.4byte	.LVL18
 3002 01ba 0100     		.2byte	0x1
 3003 01bc 53       		.byte	0x53
 3004 01bd 00000000 		.4byte	0
 3005 01c1 00000000 		.4byte	0
 3006              	.LLST16:
 3007 01c5 00000000 		.4byte	.LFB10
 3008 01c9 02000000 		.4byte	.LCFI3
 3009 01cd 0200     		.2byte	0x2
 3010 01cf 7D       		.byte	0x7d
 3011 01d0 00       		.sleb128 0
 3012 01d1 02000000 		.4byte	.LCFI3
 3013 01d5 4C000000 		.4byte	.LFE10
 3014 01d9 0200     		.2byte	0x2
 3015 01db 7D       		.byte	0x7d
 3016 01dc 10       		.sleb128 16
 3017 01dd 00000000 		.4byte	0
 3018 01e1 00000000 		.4byte	0
 3019              	.LLST17:
 3020 01e5 00000000 		.4byte	.LVL19
 3021 01e9 0B000000 		.4byte	.LVL20-1
 3022 01ed 0100     		.2byte	0x1
 3023 01ef 50       		.byte	0x50
 3024 01f0 0B000000 		.4byte	.LVL20-1
 3025 01f4 4C000000 		.4byte	.LFE10
 3026 01f8 0100     		.2byte	0x1
 3027 01fa 54       		.byte	0x54
 3028 01fb 00000000 		.4byte	0
 3029 01ff 00000000 		.4byte	0
 3030              	.LLST18:
 3031 0203 00000000 		.4byte	.LVL19
 3032 0207 0B000000 		.4byte	.LVL20-1
 3033 020b 0100     		.2byte	0x1
 3034 020d 51       		.byte	0x51
 3035 020e 0B000000 		.4byte	.LVL20-1
 3036 0212 4C000000 		.4byte	.LFE10
 3037 0216 0100     		.2byte	0x1
 3038 0218 55       		.byte	0x55
 3039 0219 00000000 		.4byte	0
 3040 021d 00000000 		.4byte	0
 3041              	.LLST19:
 3042 0221 00000000 		.4byte	.LVL19
 3043 0225 0B000000 		.4byte	.LVL20-1
 3044 0229 0100     		.2byte	0x1
 3045 022b 52       		.byte	0x52
 3046 022c 0B000000 		.4byte	.LVL20-1
ARM GAS  /tmp/ccMLpdil.s 			page 55


 3047 0230 1A000000 		.4byte	.LVL21
 3048 0234 0100     		.2byte	0x1
 3049 0236 56       		.byte	0x56
 3050 0237 40000000 		.4byte	.LVL23
 3051 023b 4C000000 		.4byte	.LFE10
 3052 023f 0100     		.2byte	0x1
 3053 0241 56       		.byte	0x56
 3054 0242 00000000 		.4byte	0
 3055 0246 00000000 		.4byte	0
 3056              	.LLST20:
 3057 024a 1A000000 		.4byte	.LVL21
 3058 024e 30000000 		.4byte	.LVL22
 3059 0252 0100     		.2byte	0x1
 3060 0254 50       		.byte	0x50
 3061 0255 30000000 		.4byte	.LVL22
 3062 0259 40000000 		.4byte	.LVL23
 3063 025d 0100     		.2byte	0x1
 3064 025f 56       		.byte	0x56
 3065 0260 00000000 		.4byte	0
 3066 0264 00000000 		.4byte	0
 3067              	.LLST21:
 3068 0268 00000000 		.4byte	.LFB11
 3069 026c 02000000 		.4byte	.LCFI4
 3070 0270 0200     		.2byte	0x2
 3071 0272 7D       		.byte	0x7d
 3072 0273 00       		.sleb128 0
 3073 0274 02000000 		.4byte	.LCFI4
 3074 0278 48000000 		.4byte	.LFE11
 3075 027c 0200     		.2byte	0x2
 3076 027e 7D       		.byte	0x7d
 3077 027f 10       		.sleb128 16
 3078 0280 00000000 		.4byte	0
 3079 0284 00000000 		.4byte	0
 3080              	.LLST22:
 3081 0288 00000000 		.4byte	.LVL24
 3082 028c 09000000 		.4byte	.LVL25-1
 3083 0290 0100     		.2byte	0x1
 3084 0292 50       		.byte	0x50
 3085 0293 09000000 		.4byte	.LVL25-1
 3086 0297 48000000 		.4byte	.LFE11
 3087 029b 0100     		.2byte	0x1
 3088 029d 54       		.byte	0x54
 3089 029e 00000000 		.4byte	0
 3090 02a2 00000000 		.4byte	0
 3091              	.LLST23:
 3092 02a6 00000000 		.4byte	.LVL24
 3093 02aa 09000000 		.4byte	.LVL25-1
 3094 02ae 0100     		.2byte	0x1
 3095 02b0 51       		.byte	0x51
 3096 02b1 09000000 		.4byte	.LVL25-1
 3097 02b5 48000000 		.4byte	.LFE11
 3098 02b9 0100     		.2byte	0x1
 3099 02bb 55       		.byte	0x55
 3100 02bc 00000000 		.4byte	0
 3101 02c0 00000000 		.4byte	0
 3102              	.LLST24:
 3103 02c4 00000000 		.4byte	.LFB12
ARM GAS  /tmp/ccMLpdil.s 			page 56


 3104 02c8 02000000 		.4byte	.LCFI5
 3105 02cc 0200     		.2byte	0x2
 3106 02ce 7D       		.byte	0x7d
 3107 02cf 00       		.sleb128 0
 3108 02d0 02000000 		.4byte	.LCFI5
 3109 02d4 64000000 		.4byte	.LFE12
 3110 02d8 0200     		.2byte	0x2
 3111 02da 7D       		.byte	0x7d
 3112 02db 10       		.sleb128 16
 3113 02dc 00000000 		.4byte	0
 3114 02e0 00000000 		.4byte	0
 3115              	.LLST25:
 3116 02e4 00000000 		.4byte	.LVL26
 3117 02e8 11000000 		.4byte	.LVL29-1
 3118 02ec 0100     		.2byte	0x1
 3119 02ee 50       		.byte	0x50
 3120 02ef 11000000 		.4byte	.LVL29-1
 3121 02f3 64000000 		.4byte	.LFE12
 3122 02f7 0100     		.2byte	0x1
 3123 02f9 54       		.byte	0x54
 3124 02fa 00000000 		.4byte	0
 3125 02fe 00000000 		.4byte	0
 3126              	.LLST26:
 3127 0302 00000000 		.4byte	.LVL26
 3128 0306 11000000 		.4byte	.LVL29-1
 3129 030a 0100     		.2byte	0x1
 3130 030c 51       		.byte	0x51
 3131 030d 11000000 		.4byte	.LVL29-1
 3132 0311 64000000 		.4byte	.LFE12
 3133 0315 0100     		.2byte	0x1
 3134 0317 55       		.byte	0x55
 3135 0318 00000000 		.4byte	0
 3136 031c 00000000 		.4byte	0
 3137              	.LLST27:
 3138 0320 00000000 		.4byte	.LVL26
 3139 0324 11000000 		.4byte	.LVL29-1
 3140 0328 0100     		.2byte	0x1
 3141 032a 52       		.byte	0x52
 3142 032b 11000000 		.4byte	.LVL29-1
 3143 032f 24000000 		.4byte	.LVL30
 3144 0333 0100     		.2byte	0x1
 3145 0335 56       		.byte	0x56
 3146 0336 56000000 		.4byte	.LVL35
 3147 033a 64000000 		.4byte	.LFE12
 3148 033e 0100     		.2byte	0x1
 3149 0340 56       		.byte	0x56
 3150 0341 00000000 		.4byte	0
 3151 0345 00000000 		.4byte	0
 3152              	.LLST28:
 3153 0349 0E000000 		.4byte	.LVL28
 3154 034d 11000000 		.4byte	.LVL29-1
 3155 0351 0100     		.2byte	0x1
 3156 0353 53       		.byte	0x53
 3157 0354 00000000 		.4byte	0
 3158 0358 00000000 		.4byte	0
 3159              	.LLST29:
 3160 035c 12000000 		.4byte	.LVL29
ARM GAS  /tmp/ccMLpdil.s 			page 57


 3161 0360 24000000 		.4byte	.LVL30
 3162 0364 0100     		.2byte	0x1
 3163 0366 56       		.byte	0x56
 3164 0367 56000000 		.4byte	.LVL35
 3165 036b 64000000 		.4byte	.LFE12
 3166 036f 0100     		.2byte	0x1
 3167 0371 56       		.byte	0x56
 3168 0372 00000000 		.4byte	0
 3169 0376 00000000 		.4byte	0
 3170              	.LLST30:
 3171 037a 24000000 		.4byte	.LVL30
 3172 037e 32000000 		.4byte	.LVL31
 3173 0382 0100     		.2byte	0x1
 3174 0384 50       		.byte	0x50
 3175 0385 32000000 		.4byte	.LVL31
 3176 0389 56000000 		.4byte	.LVL35
 3177 038d 0100     		.2byte	0x1
 3178 038f 56       		.byte	0x56
 3179 0390 00000000 		.4byte	0
 3180 0394 00000000 		.4byte	0
 3181              	.LLST31:
 3182 0398 4A000000 		.4byte	.LVL33
 3183 039c 4E000000 		.4byte	.LVL34
 3184 03a0 0100     		.2byte	0x1
 3185 03a2 53       		.byte	0x53
 3186 03a3 00000000 		.4byte	0
 3187 03a7 00000000 		.4byte	0
 3188              	.LLST32:
 3189 03ab 00000000 		.4byte	.LFB13
 3190 03af 02000000 		.4byte	.LCFI6
 3191 03b3 0200     		.2byte	0x2
 3192 03b5 7D       		.byte	0x7d
 3193 03b6 00       		.sleb128 0
 3194 03b7 02000000 		.4byte	.LCFI6
 3195 03bb 50000000 		.4byte	.LFE13
 3196 03bf 0200     		.2byte	0x2
 3197 03c1 7D       		.byte	0x7d
 3198 03c2 10       		.sleb128 16
 3199 03c3 00000000 		.4byte	0
 3200 03c7 00000000 		.4byte	0
 3201              	.LLST33:
 3202 03cb 00000000 		.4byte	.LVL36
 3203 03cf 0B000000 		.4byte	.LVL37-1
 3204 03d3 0100     		.2byte	0x1
 3205 03d5 50       		.byte	0x50
 3206 03d6 0B000000 		.4byte	.LVL37-1
 3207 03da 50000000 		.4byte	.LFE13
 3208 03de 0100     		.2byte	0x1
 3209 03e0 54       		.byte	0x54
 3210 03e1 00000000 		.4byte	0
 3211 03e5 00000000 		.4byte	0
 3212              	.LLST34:
 3213 03e9 00000000 		.4byte	.LVL36
 3214 03ed 0B000000 		.4byte	.LVL37-1
 3215 03f1 0100     		.2byte	0x1
 3216 03f3 51       		.byte	0x51
 3217 03f4 0B000000 		.4byte	.LVL37-1
ARM GAS  /tmp/ccMLpdil.s 			page 58


 3218 03f8 50000000 		.4byte	.LFE13
 3219 03fc 0100     		.2byte	0x1
 3220 03fe 55       		.byte	0x55
 3221 03ff 00000000 		.4byte	0
 3222 0403 00000000 		.4byte	0
 3223              	.LLST35:
 3224 0407 00000000 		.4byte	.LVL36
 3225 040b 0B000000 		.4byte	.LVL37-1
 3226 040f 0100     		.2byte	0x1
 3227 0411 52       		.byte	0x52
 3228 0412 0B000000 		.4byte	.LVL37-1
 3229 0416 1A000000 		.4byte	.LVL38
 3230 041a 0100     		.2byte	0x1
 3231 041c 56       		.byte	0x56
 3232 041d 42000000 		.4byte	.LVL40
 3233 0421 50000000 		.4byte	.LFE13
 3234 0425 0100     		.2byte	0x1
 3235 0427 56       		.byte	0x56
 3236 0428 00000000 		.4byte	0
 3237 042c 00000000 		.4byte	0
 3238              	.LLST36:
 3239 0430 1A000000 		.4byte	.LVL38
 3240 0434 28000000 		.4byte	.LVL39
 3241 0438 0100     		.2byte	0x1
 3242 043a 50       		.byte	0x50
 3243 043b 28000000 		.4byte	.LVL39
 3244 043f 42000000 		.4byte	.LVL40
 3245 0443 0100     		.2byte	0x1
 3246 0445 56       		.byte	0x56
 3247 0446 00000000 		.4byte	0
 3248 044a 00000000 		.4byte	0
 3249              	.LLST37:
 3250 044e 00000000 		.4byte	.LFB14
 3251 0452 02000000 		.4byte	.LCFI7
 3252 0456 0200     		.2byte	0x2
 3253 0458 7D       		.byte	0x7d
 3254 0459 00       		.sleb128 0
 3255 045a 02000000 		.4byte	.LCFI7
 3256 045e 48000000 		.4byte	.LFE14
 3257 0462 0200     		.2byte	0x2
 3258 0464 7D       		.byte	0x7d
 3259 0465 10       		.sleb128 16
 3260 0466 00000000 		.4byte	0
 3261 046a 00000000 		.4byte	0
 3262              	.LLST38:
 3263 046e 00000000 		.4byte	.LVL41
 3264 0472 09000000 		.4byte	.LVL42-1
 3265 0476 0100     		.2byte	0x1
 3266 0478 50       		.byte	0x50
 3267 0479 09000000 		.4byte	.LVL42-1
 3268 047d 48000000 		.4byte	.LFE14
 3269 0481 0100     		.2byte	0x1
 3270 0483 54       		.byte	0x54
 3271 0484 00000000 		.4byte	0
 3272 0488 00000000 		.4byte	0
 3273              	.LLST39:
 3274 048c 00000000 		.4byte	.LVL41
ARM GAS  /tmp/ccMLpdil.s 			page 59


 3275 0490 09000000 		.4byte	.LVL42-1
 3276 0494 0100     		.2byte	0x1
 3277 0496 51       		.byte	0x51
 3278 0497 09000000 		.4byte	.LVL42-1
 3279 049b 48000000 		.4byte	.LFE14
 3280 049f 0100     		.2byte	0x1
 3281 04a1 55       		.byte	0x55
 3282 04a2 00000000 		.4byte	0
 3283 04a6 00000000 		.4byte	0
 3284              	.LLST40:
 3285 04aa 00000000 		.4byte	.LFB15
 3286 04ae 02000000 		.4byte	.LCFI8
 3287 04b2 0200     		.2byte	0x2
 3288 04b4 7D       		.byte	0x7d
 3289 04b5 00       		.sleb128 0
 3290 04b6 02000000 		.4byte	.LCFI8
 3291 04ba 64000000 		.4byte	.LFE15
 3292 04be 0200     		.2byte	0x2
 3293 04c0 7D       		.byte	0x7d
 3294 04c1 10       		.sleb128 16
 3295 04c2 00000000 		.4byte	0
 3296 04c6 00000000 		.4byte	0
 3297              	.LLST41:
 3298 04ca 00000000 		.4byte	.LVL43
 3299 04ce 11000000 		.4byte	.LVL46-1
 3300 04d2 0100     		.2byte	0x1
 3301 04d4 50       		.byte	0x50
 3302 04d5 11000000 		.4byte	.LVL46-1
 3303 04d9 64000000 		.4byte	.LFE15
 3304 04dd 0100     		.2byte	0x1
 3305 04df 54       		.byte	0x54
 3306 04e0 00000000 		.4byte	0
 3307 04e4 00000000 		.4byte	0
 3308              	.LLST42:
 3309 04e8 00000000 		.4byte	.LVL43
 3310 04ec 11000000 		.4byte	.LVL46-1
 3311 04f0 0100     		.2byte	0x1
 3312 04f2 51       		.byte	0x51
 3313 04f3 11000000 		.4byte	.LVL46-1
 3314 04f7 64000000 		.4byte	.LFE15
 3315 04fb 0100     		.2byte	0x1
 3316 04fd 55       		.byte	0x55
 3317 04fe 00000000 		.4byte	0
 3318 0502 00000000 		.4byte	0
 3319              	.LLST43:
 3320 0506 00000000 		.4byte	.LVL43
 3321 050a 11000000 		.4byte	.LVL46-1
 3322 050e 0100     		.2byte	0x1
 3323 0510 52       		.byte	0x52
 3324 0511 11000000 		.4byte	.LVL46-1
 3325 0515 26000000 		.4byte	.LVL47
 3326 0519 0100     		.2byte	0x1
 3327 051b 56       		.byte	0x56
 3328 051c 56000000 		.4byte	.LVL51
 3329 0520 64000000 		.4byte	.LFE15
 3330 0524 0100     		.2byte	0x1
 3331 0526 56       		.byte	0x56
ARM GAS  /tmp/ccMLpdil.s 			page 60


 3332 0527 00000000 		.4byte	0
 3333 052b 00000000 		.4byte	0
 3334              	.LLST44:
 3335 052f 0E000000 		.4byte	.LVL45
 3336 0533 11000000 		.4byte	.LVL46-1
 3337 0537 0100     		.2byte	0x1
 3338 0539 53       		.byte	0x53
 3339 053a 00000000 		.4byte	0
 3340 053e 00000000 		.4byte	0
 3341              	.LLST45:
 3342 0542 12000000 		.4byte	.LVL46
 3343 0546 26000000 		.4byte	.LVL47
 3344 054a 0100     		.2byte	0x1
 3345 054c 56       		.byte	0x56
 3346 054d 56000000 		.4byte	.LVL51
 3347 0551 64000000 		.4byte	.LFE15
 3348 0555 0100     		.2byte	0x1
 3349 0557 56       		.byte	0x56
 3350 0558 00000000 		.4byte	0
 3351 055c 00000000 		.4byte	0
 3352              	.LLST46:
 3353 0560 26000000 		.4byte	.LVL47
 3354 0564 34000000 		.4byte	.LVL48
 3355 0568 0100     		.2byte	0x1
 3356 056a 50       		.byte	0x50
 3357 056b 34000000 		.4byte	.LVL48
 3358 056f 56000000 		.4byte	.LVL51
 3359 0573 0100     		.2byte	0x1
 3360 0575 56       		.byte	0x56
 3361 0576 00000000 		.4byte	0
 3362 057a 00000000 		.4byte	0
 3363              	.LLST47:
 3364 057e 52000000 		.4byte	.LVL50
 3365 0582 56000000 		.4byte	.LVL51
 3366 0586 0100     		.2byte	0x1
 3367 0588 53       		.byte	0x53
 3368 0589 00000000 		.4byte	0
 3369 058d 00000000 		.4byte	0
 3370              	.LLST48:
 3371 0591 00000000 		.4byte	.LFB16
 3372 0595 02000000 		.4byte	.LCFI9
 3373 0599 0200     		.2byte	0x2
 3374 059b 7D       		.byte	0x7d
 3375 059c 00       		.sleb128 0
 3376 059d 02000000 		.4byte	.LCFI9
 3377 05a1 50000000 		.4byte	.LFE16
 3378 05a5 0200     		.2byte	0x2
 3379 05a7 7D       		.byte	0x7d
 3380 05a8 10       		.sleb128 16
 3381 05a9 00000000 		.4byte	0
 3382 05ad 00000000 		.4byte	0
 3383              	.LLST49:
 3384 05b1 00000000 		.4byte	.LVL52
 3385 05b5 0B000000 		.4byte	.LVL53-1
 3386 05b9 0100     		.2byte	0x1
 3387 05bb 50       		.byte	0x50
 3388 05bc 0B000000 		.4byte	.LVL53-1
ARM GAS  /tmp/ccMLpdil.s 			page 61


 3389 05c0 50000000 		.4byte	.LFE16
 3390 05c4 0100     		.2byte	0x1
 3391 05c6 54       		.byte	0x54
 3392 05c7 00000000 		.4byte	0
 3393 05cb 00000000 		.4byte	0
 3394              	.LLST50:
 3395 05cf 00000000 		.4byte	.LVL52
 3396 05d3 0B000000 		.4byte	.LVL53-1
 3397 05d7 0100     		.2byte	0x1
 3398 05d9 51       		.byte	0x51
 3399 05da 0B000000 		.4byte	.LVL53-1
 3400 05de 50000000 		.4byte	.LFE16
 3401 05e2 0100     		.2byte	0x1
 3402 05e4 55       		.byte	0x55
 3403 05e5 00000000 		.4byte	0
 3404 05e9 00000000 		.4byte	0
 3405              	.LLST51:
 3406 05ed 00000000 		.4byte	.LVL52
 3407 05f1 0B000000 		.4byte	.LVL53-1
 3408 05f5 0100     		.2byte	0x1
 3409 05f7 52       		.byte	0x52
 3410 05f8 0B000000 		.4byte	.LVL53-1
 3411 05fc 1C000000 		.4byte	.LVL54
 3412 0600 0100     		.2byte	0x1
 3413 0602 56       		.byte	0x56
 3414 0603 42000000 		.4byte	.LVL56
 3415 0607 50000000 		.4byte	.LFE16
 3416 060b 0100     		.2byte	0x1
 3417 060d 56       		.byte	0x56
 3418 060e 00000000 		.4byte	0
 3419 0612 00000000 		.4byte	0
 3420              	.LLST52:
 3421 0616 1C000000 		.4byte	.LVL54
 3422 061a 2A000000 		.4byte	.LVL55
 3423 061e 0100     		.2byte	0x1
 3424 0620 50       		.byte	0x50
 3425 0621 2A000000 		.4byte	.LVL55
 3426 0625 42000000 		.4byte	.LVL56
 3427 0629 0100     		.2byte	0x1
 3428 062b 56       		.byte	0x56
 3429 062c 00000000 		.4byte	0
 3430 0630 00000000 		.4byte	0
 3431              	.LLST53:
 3432 0634 00000000 		.4byte	.LFB17
 3433 0638 02000000 		.4byte	.LCFI10
 3434 063c 0200     		.2byte	0x2
 3435 063e 7D       		.byte	0x7d
 3436 063f 00       		.sleb128 0
 3437 0640 02000000 		.4byte	.LCFI10
 3438 0644 4C000000 		.4byte	.LFE17
 3439 0648 0200     		.2byte	0x2
 3440 064a 7D       		.byte	0x7d
 3441 064b 10       		.sleb128 16
 3442 064c 00000000 		.4byte	0
 3443 0650 00000000 		.4byte	0
 3444              	.LLST54:
 3445 0654 00000000 		.4byte	.LVL57
ARM GAS  /tmp/ccMLpdil.s 			page 62


 3446 0658 09000000 		.4byte	.LVL58-1
 3447 065c 0100     		.2byte	0x1
 3448 065e 50       		.byte	0x50
 3449 065f 09000000 		.4byte	.LVL58-1
 3450 0663 4C000000 		.4byte	.LFE17
 3451 0667 0100     		.2byte	0x1
 3452 0669 54       		.byte	0x54
 3453 066a 00000000 		.4byte	0
 3454 066e 00000000 		.4byte	0
 3455              	.LLST55:
 3456 0672 00000000 		.4byte	.LVL57
 3457 0676 09000000 		.4byte	.LVL58-1
 3458 067a 0100     		.2byte	0x1
 3459 067c 51       		.byte	0x51
 3460 067d 09000000 		.4byte	.LVL58-1
 3461 0681 4C000000 		.4byte	.LFE17
 3462 0685 0100     		.2byte	0x1
 3463 0687 55       		.byte	0x55
 3464 0688 00000000 		.4byte	0
 3465 068c 00000000 		.4byte	0
 3466              		.section	.debug_aranges,"",%progbits
 3467 0000 6C000000 		.4byte	0x6c
 3468 0004 0200     		.2byte	0x2
 3469 0006 00000000 		.4byte	.Ldebug_info0
 3470 000a 04       		.byte	0x4
 3471 000b 00       		.byte	0
 3472 000c 0000     		.2byte	0
 3473 000e 0000     		.2byte	0
 3474 0010 00000000 		.4byte	.LFB7
 3475 0014 40000000 		.4byte	.LFE7-.LFB7
 3476 0018 00000000 		.4byte	.LFB8
 3477 001c 4C000000 		.4byte	.LFE8-.LFB8
 3478 0020 00000000 		.4byte	.LFB9
 3479 0024 60000000 		.4byte	.LFE9-.LFB9
 3480 0028 00000000 		.4byte	.LFB10
 3481 002c 4C000000 		.4byte	.LFE10-.LFB10
 3482 0030 00000000 		.4byte	.LFB11
 3483 0034 48000000 		.4byte	.LFE11-.LFB11
 3484 0038 00000000 		.4byte	.LFB12
 3485 003c 64000000 		.4byte	.LFE12-.LFB12
 3486 0040 00000000 		.4byte	.LFB13
 3487 0044 50000000 		.4byte	.LFE13-.LFB13
 3488 0048 00000000 		.4byte	.LFB14
 3489 004c 48000000 		.4byte	.LFE14-.LFB14
 3490 0050 00000000 		.4byte	.LFB15
 3491 0054 64000000 		.4byte	.LFE15-.LFB15
 3492 0058 00000000 		.4byte	.LFB16
 3493 005c 50000000 		.4byte	.LFE16-.LFB16
 3494 0060 00000000 		.4byte	.LFB17
 3495 0064 4C000000 		.4byte	.LFE17-.LFB17
 3496 0068 00000000 		.4byte	0
 3497 006c 00000000 		.4byte	0
 3498              		.section	.debug_ranges,"",%progbits
 3499              	.Ldebug_ranges0:
 3500 0000 02000000 		.4byte	.LBB8
 3501 0004 04000000 		.4byte	.LBE8
 3502 0008 0A000000 		.4byte	.LBB9
ARM GAS  /tmp/ccMLpdil.s 			page 63


 3503 000c 0E000000 		.4byte	.LBE9
 3504 0010 00000000 		.4byte	0
 3505 0014 00000000 		.4byte	0
 3506 0018 12000000 		.4byte	.LBB10
 3507 001c 46000000 		.4byte	.LBE10
 3508 0020 54000000 		.4byte	.LBB14
 3509 0024 60000000 		.4byte	.LBE14
 3510 0028 00000000 		.4byte	0
 3511 002c 00000000 		.4byte	0
 3512 0030 12000000 		.4byte	.LBB11
 3513 0034 46000000 		.4byte	.LBE11
 3514 0038 54000000 		.4byte	.LBB12
 3515 003c 60000000 		.4byte	.LBE12
 3516 0040 00000000 		.4byte	0
 3517 0044 00000000 		.4byte	0
 3518 0048 02000000 		.4byte	.LBB19
 3519 004c 04000000 		.4byte	.LBE19
 3520 0050 0A000000 		.4byte	.LBB20
 3521 0054 0E000000 		.4byte	.LBE20
 3522 0058 00000000 		.4byte	0
 3523 005c 00000000 		.4byte	0
 3524 0060 12000000 		.4byte	.LBB21
 3525 0064 40000000 		.4byte	.LBE21
 3526 0068 4E000000 		.4byte	.LBB25
 3527 006c 64000000 		.4byte	.LBE25
 3528 0070 00000000 		.4byte	0
 3529 0074 00000000 		.4byte	0
 3530 0078 12000000 		.4byte	.LBB22
 3531 007c 40000000 		.4byte	.LBE22
 3532 0080 4E000000 		.4byte	.LBB23
 3533 0084 64000000 		.4byte	.LBE23
 3534 0088 00000000 		.4byte	0
 3535 008c 00000000 		.4byte	0
 3536 0090 02000000 		.4byte	.LBB30
 3537 0094 04000000 		.4byte	.LBE30
 3538 0098 0A000000 		.4byte	.LBB31
 3539 009c 0E000000 		.4byte	.LBE31
 3540 00a0 00000000 		.4byte	0
 3541 00a4 00000000 		.4byte	0
 3542 00a8 12000000 		.4byte	.LBB32
 3543 00ac 48000000 		.4byte	.LBE32
 3544 00b0 56000000 		.4byte	.LBB36
 3545 00b4 64000000 		.4byte	.LBE36
 3546 00b8 00000000 		.4byte	0
 3547 00bc 00000000 		.4byte	0
 3548 00c0 12000000 		.4byte	.LBB33
 3549 00c4 48000000 		.4byte	.LBE33
 3550 00c8 56000000 		.4byte	.LBB34
 3551 00cc 64000000 		.4byte	.LBE34
 3552 00d0 00000000 		.4byte	0
 3553 00d4 00000000 		.4byte	0
 3554 00d8 00000000 		.4byte	.LFB7
 3555 00dc 40000000 		.4byte	.LFE7
 3556 00e0 00000000 		.4byte	.LFB8
 3557 00e4 4C000000 		.4byte	.LFE8
 3558 00e8 00000000 		.4byte	.LFB9
 3559 00ec 60000000 		.4byte	.LFE9
ARM GAS  /tmp/ccMLpdil.s 			page 64


 3560 00f0 00000000 		.4byte	.LFB10
 3561 00f4 4C000000 		.4byte	.LFE10
 3562 00f8 00000000 		.4byte	.LFB11
 3563 00fc 48000000 		.4byte	.LFE11
 3564 0100 00000000 		.4byte	.LFB12
 3565 0104 64000000 		.4byte	.LFE12
 3566 0108 00000000 		.4byte	.LFB13
 3567 010c 50000000 		.4byte	.LFE13
 3568 0110 00000000 		.4byte	.LFB14
 3569 0114 48000000 		.4byte	.LFE14
 3570 0118 00000000 		.4byte	.LFB15
 3571 011c 64000000 		.4byte	.LFE15
 3572 0120 00000000 		.4byte	.LFB16
 3573 0124 50000000 		.4byte	.LFE16
 3574 0128 00000000 		.4byte	.LFB17
 3575 012c 4C000000 		.4byte	.LFE17
 3576 0130 00000000 		.4byte	0
 3577 0134 00000000 		.4byte	0
 3578              		.section	.debug_line,"",%progbits
 3579              	.Ldebug_line0:
 3580 0000 30030000 		.section	.debug_str,"MS",%progbits,1
 3580      02006C01 
 3580      00000201 
 3580      FB0E0D00 
 3580      01010101 
 3581              	.LASF39:
 3582 0000 705F6D73 		.ascii	"p_msg\000"
 3582      6700
 3583              	.LASF64:
 3584 0006 7264796D 		.ascii	"rdymsg\000"
 3584      736700
 3585              	.LASF11:
 3586 000d 75696E74 		.ascii	"uint64_t\000"
 3586      36345F74 
 3586      00
 3587              	.LASF73:
 3588 0016 63684D42 		.ascii	"chMBPostI\000"
 3588      506F7374 
 3588      4900
 3589              	.LASF74:
 3590 0020 63684D42 		.ascii	"chMBPostS\000"
 3590      506F7374 
 3590      5300
 3591              	.LASF63:
 3592 002a 4D61696C 		.ascii	"Mailbox\000"
 3592      626F7800 
 3593              	.LASF77:
 3594 0032 63684D42 		.ascii	"chMBPostAheadI\000"
 3594      506F7374 
 3594      41686561 
 3594      644900
 3595              	.LASF12:
 3596 0041 6C6F6E67 		.ascii	"long long unsigned int\000"
 3596      206C6F6E 
 3596      6720756E 
 3596      7369676E 
 3596      65642069 
ARM GAS  /tmp/ccMLpdil.s 			page 65


 3597              	.LASF65:
 3598 0058 65786974 		.ascii	"exitcode\000"
 3598      636F6465 
 3598      00
 3599              	.LASF75:
 3600 0061 63684D42 		.ascii	"chMBPostAheadS\000"
 3600      506F7374 
 3600      41686561 
 3600      645300
 3601              	.LASF59:
 3602 0070 6D625F77 		.ascii	"mb_wrptr\000"
 3602      72707472 
 3602      00
 3603              	.LASF26:
 3604 0079 705F7072 		.ascii	"p_prio\000"
 3604      696F00
 3605              	.LASF10:
 3606 0080 6C6F6E67 		.ascii	"long long int\000"
 3606      206C6F6E 
 3606      6720696E 
 3606      7400
 3607              	.LASF1:
 3608 008e 7369676E 		.ascii	"signed char\000"
 3608      65642063 
 3608      68617200 
 3609              	.LASF43:
 3610 009a 705F6D70 		.ascii	"p_mpool\000"
 3610      6F6F6C00 
 3611              	.LASF54:
 3612 00a2 6D5F7175 		.ascii	"m_queue\000"
 3612      65756500 
 3613              	.LASF17:
 3614 00aa 74736C69 		.ascii	"tslices_t\000"
 3614      6365735F 
 3614      7400
 3615              	.LASF7:
 3616 00b4 6C6F6E67 		.ascii	"long int\000"
 3616      20696E74 
 3616      00
 3617              	.LASF82:
 3618 00bd 474E5520 		.ascii	"GNU C 4.6.2 20120613 (release) [ARM/embedded-4_6-br"
 3618      4320342E 
 3618      362E3220 
 3618      32303132 
 3618      30363133 
 3619 00f0 616E6368 		.ascii	"anch revision 188521]\000"
 3619      20726576 
 3619      6973696F 
 3619      6E203138 
 3619      38353231 
 3620              	.LASF84:
 3621 0106 2F686F6D 		.ascii	"/home/tino/workspace/openrobots/R2P_IR_module/fw\000"
 3621      652F7469 
 3621      6E6F2F77 
 3621      6F726B73 
 3621      70616365 
 3622              	.LASF15:
ARM GAS  /tmp/ccMLpdil.s 			page 66


 3623 0137 74737461 		.ascii	"tstate_t\000"
 3623      74655F74 
 3623      00
 3624              	.LASF28:
 3625 0140 705F6E65 		.ascii	"p_newer\000"
 3625      77657200 
 3626              	.LASF51:
 3627 0148 735F7175 		.ascii	"s_queue\000"
 3627      65756500 
 3628              	.LASF46:
 3629 0150 72656761 		.ascii	"regarm_t\000"
 3629      726D5F74 
 3629      00
 3630              	.LASF83:
 3631 0159 2E2E2F2E 		.ascii	"../../ChibiOS/os/kernel/src/chmboxes.c\000"
 3631      2E2F4368 
 3631      6962694F 
 3631      532F6F73 
 3631      2F6B6572 
 3632              	.LASF22:
 3633 0180 636E745F 		.ascii	"cnt_t\000"
 3633      7400
 3634              	.LASF31:
 3635 0186 705F7374 		.ascii	"p_stklimit\000"
 3635      6B6C696D 
 3635      697400
 3636              	.LASF0:
 3637 0191 756E7369 		.ascii	"unsigned int\000"
 3637      676E6564 
 3637      20696E74 
 3637      00
 3638              	.LASF69:
 3639 019e 63684D42 		.ascii	"chMBInit\000"
 3639      496E6974 
 3639      00
 3640              	.LASF9:
 3641 01a7 6C6F6E67 		.ascii	"long unsigned int\000"
 3641      20756E73 
 3641      69676E65 
 3641      6420696E 
 3641      7400
 3642              	.LASF62:
 3643 01b9 6D625F65 		.ascii	"mb_emptysem\000"
 3643      6D707479 
 3643      73656D00 
 3644              	.LASF52:
 3645 01c5 735F636E 		.ascii	"s_cnt\000"
 3645      7400
 3646              	.LASF49:
 3647 01cb 636F6E74 		.ascii	"context\000"
 3647      65787400 
 3648              	.LASF4:
 3649 01d3 73686F72 		.ascii	"short unsigned int\000"
 3649      7420756E 
 3649      7369676E 
 3649      65642069 
 3649      6E7400
ARM GAS  /tmp/ccMLpdil.s 			page 67


 3650              	.LASF81:
 3651 01e6 63684D42 		.ascii	"chMBFetchI\000"
 3651      46657463 
 3651      684900
 3652              	.LASF19:
 3653 01f1 6D73675F 		.ascii	"msg_t\000"
 3653      7400
 3654              	.LASF78:
 3655 01f7 63684D42 		.ascii	"chMBFetchS\000"
 3655      46657463 
 3655      685300
 3656              	.LASF14:
 3657 0202 746D6F64 		.ascii	"tmode_t\000"
 3657      655F7400 
 3658              	.LASF45:
 3659 020a 54687265 		.ascii	"ThreadsList\000"
 3659      6164734C 
 3659      69737400 
 3660              	.LASF20:
 3661 0216 6576656E 		.ascii	"eventmask_t\000"
 3661      746D6173 
 3661      6B5F7400 
 3662              	.LASF53:
 3663 0222 4D757465 		.ascii	"Mutex\000"
 3663      7800
 3664              	.LASF79:
 3665 0228 6D736770 		.ascii	"msgp\000"
 3665      00
 3666              	.LASF47:
 3667 022d 73746B61 		.ascii	"stkalign_t\000"
 3667      6C69676E 
 3667      5F7400
 3668              	.LASF60:
 3669 0238 6D625F72 		.ascii	"mb_rdptr\000"
 3669      64707472 
 3669      00
 3670              	.LASF70:
 3671 0241 63684D42 		.ascii	"chMBReset\000"
 3671      52657365 
 3671      7400
 3672              	.LASF29:
 3673 024b 705F6F6C 		.ascii	"p_older\000"
 3673      64657200 
 3674              	.LASF44:
 3675 0253 54687265 		.ascii	"ThreadsQueue\000"
 3675      61647351 
 3675      75657565 
 3675      00
 3676              	.LASF57:
 3677 0260 6D625F62 		.ascii	"mb_buffer\000"
 3677      75666665 
 3677      7200
 3678              	.LASF71:
 3679 026a 74696D65 		.ascii	"time\000"
 3679      00
 3680              	.LASF16:
 3681 026f 74726566 		.ascii	"trefs_t\000"
ARM GAS  /tmp/ccMLpdil.s 			page 68


 3681      735F7400 
 3682              	.LASF25:
 3683 0277 705F7072 		.ascii	"p_prev\000"
 3683      657600
 3684              	.LASF18:
 3685 027e 74707269 		.ascii	"tprio_t\000"
 3685      6F5F7400 
 3686              	.LASF13:
 3687 0286 5F426F6F 		.ascii	"_Bool\000"
 3687      6C00
 3688              	.LASF6:
 3689 028c 696E7433 		.ascii	"int32_t\000"
 3689      325F7400 
 3690              	.LASF2:
 3691 0294 756E7369 		.ascii	"unsigned char\000"
 3691      676E6564 
 3691      20636861 
 3691      7200
 3692              	.LASF58:
 3693 02a2 6D625F74 		.ascii	"mb_top\000"
 3693      6F7000
 3694              	.LASF41:
 3695 02a9 705F6D74 		.ascii	"p_mtxlist\000"
 3695      786C6973 
 3695      7400
 3696              	.LASF3:
 3697 02b3 73686F72 		.ascii	"short int\000"
 3697      7420696E 
 3697      7400
 3698              	.LASF32:
 3699 02bd 705F7374 		.ascii	"p_state\000"
 3699      61746500 
 3700              	.LASF35:
 3701 02c5 705F7072 		.ascii	"p_preempt\000"
 3701      65656D70 
 3701      7400
 3702              	.LASF67:
 3703 02cf 65776D61 		.ascii	"ewmask\000"
 3703      736B00
 3704              	.LASF24:
 3705 02d6 705F6E65 		.ascii	"p_next\000"
 3705      787400
 3706              	.LASF33:
 3707 02dd 705F666C 		.ascii	"p_flags\000"
 3707      61677300 
 3708              	.LASF72:
 3709 02e5 63684D42 		.ascii	"chMBPost\000"
 3709      506F7374 
 3709      00
 3710              	.LASF23:
 3711 02ee 54687265 		.ascii	"Thread\000"
 3711      616400
 3712              	.LASF40:
 3713 02f5 705F6570 		.ascii	"p_epending\000"
 3713      656E6469 
 3713      6E6700
 3714              	.LASF8:
ARM GAS  /tmp/ccMLpdil.s 			page 69


 3715 0300 75696E74 		.ascii	"uint32_t\000"
 3715      33325F74 
 3715      00
 3716              	.LASF68:
 3717 0309 63686172 		.ascii	"char\000"
 3717      00
 3718              	.LASF56:
 3719 030e 6D5F6E65 		.ascii	"m_next\000"
 3719      787400
 3720              	.LASF21:
 3721 0315 73797374 		.ascii	"systime_t\000"
 3721      696D655F 
 3721      7400
 3722              	.LASF42:
 3723 031f 705F7265 		.ascii	"p_realprio\000"
 3723      616C7072 
 3723      696F00
 3724              	.LASF36:
 3725 032a 705F7469 		.ascii	"p_time\000"
 3725      6D6500
 3726              	.LASF76:
 3727 0331 63684D42 		.ascii	"chMBPostAhead\000"
 3727      506F7374 
 3727      41686561 
 3727      6400
 3728              	.LASF48:
 3729 033f 696E7463 		.ascii	"intctx\000"
 3729      747800
 3730              	.LASF38:
 3731 0346 705F6D73 		.ascii	"p_msgqueue\000"
 3731      67717565 
 3731      756500
 3732              	.LASF80:
 3733 0351 63684D42 		.ascii	"chMBFetch\000"
 3733      46657463 
 3733      6800
 3734              	.LASF50:
 3735 035b 53656D61 		.ascii	"Semaphore\000"
 3735      70686F72 
 3735      6500
 3736              	.LASF61:
 3737 0365 6D625F66 		.ascii	"mb_fullsem\000"
 3737      756C6C73 
 3737      656D00
 3738              	.LASF34:
 3739 0370 705F7265 		.ascii	"p_refs\000"
 3739      667300
 3740              	.LASF5:
 3741 0377 75696E74 		.ascii	"uint8_t\000"
 3741      385F7400 
 3742              	.LASF66:
 3743 037f 77746F62 		.ascii	"wtobjp\000"
 3743      6A7000
 3744              	.LASF30:
 3745 0386 705F6E61 		.ascii	"p_name\000"
 3745      6D6500
 3746              	.LASF55:
ARM GAS  /tmp/ccMLpdil.s 			page 70


 3747 038d 6D5F6F77 		.ascii	"m_owner\000"
 3747      6E657200 
 3748              	.LASF27:
 3749 0395 705F6374 		.ascii	"p_ctx\000"
 3749      7800
 3750              	.LASF37:
 3751 039b 705F7761 		.ascii	"p_waiting\000"
 3751      6974696E 
 3751      6700
 3752              		.ident	"GCC: (GNU Tools for ARM Embedded Processors) 4.6.2 20120613 (release) [ARM/embedded-4_6-br
ARM GAS  /tmp/ccMLpdil.s 			page 71


DEFINED SYMBOLS
                            *ABS*:00000000 chmboxes.c
     /tmp/ccMLpdil.s:19     .text.chMBInit:00000000 $t
     /tmp/ccMLpdil.s:25     .text.chMBInit:00000000 chMBInit
     /tmp/ccMLpdil.s:81     .text.chMBInit:0000003c $d
     /tmp/ccMLpdil.s:86     .text.chMBReset:00000000 $t
     /tmp/ccMLpdil.s:92     .text.chMBReset:00000000 chMBReset
     /tmp/ccMLpdil.s:164    .text.chMBReset:00000048 $d
     /tmp/ccMLpdil.s:169    .text.chMBPost:00000000 $t
     /tmp/ccMLpdil.s:175    .text.chMBPost:00000000 chMBPost
     /tmp/ccMLpdil.s:274    .text.chMBPost:0000005c $d
     /tmp/ccMLpdil.s:281    .text.chMBPostS:00000000 $t
     /tmp/ccMLpdil.s:287    .text.chMBPostS:00000000 chMBPostS
     /tmp/ccMLpdil.s:355    .text.chMBPostS:00000048 $d
     /tmp/ccMLpdil.s:360    .text.chMBPostI:00000000 $t
     /tmp/ccMLpdil.s:366    .text.chMBPostI:00000000 chMBPostI
     /tmp/ccMLpdil.s:433    .text.chMBPostI:00000044 $d
     /tmp/ccMLpdil.s:438    .text.chMBPostAhead:00000000 $t
     /tmp/ccMLpdil.s:444    .text.chMBPostAhead:00000000 chMBPostAhead
     /tmp/ccMLpdil.s:544    .text.chMBPostAhead:00000060 $d
     /tmp/ccMLpdil.s:551    .text.chMBPostAheadS:00000000 $t
     /tmp/ccMLpdil.s:557    .text.chMBPostAheadS:00000000 chMBPostAheadS
     /tmp/ccMLpdil.s:625    .text.chMBPostAheadS:0000004c $d
     /tmp/ccMLpdil.s:630    .text.chMBPostAheadI:00000000 $t
     /tmp/ccMLpdil.s:636    .text.chMBPostAheadI:00000000 chMBPostAheadI
     /tmp/ccMLpdil.s:703    .text.chMBPostAheadI:00000044 $d
     /tmp/ccMLpdil.s:708    .text.chMBFetch:00000000 $t
     /tmp/ccMLpdil.s:714    .text.chMBFetch:00000000 chMBFetch
     /tmp/ccMLpdil.s:813    .text.chMBFetch:00000060 $d
     /tmp/ccMLpdil.s:820    .text.chMBFetchS:00000000 $t
     /tmp/ccMLpdil.s:826    .text.chMBFetchS:00000000 chMBFetchS
     /tmp/ccMLpdil.s:895    .text.chMBFetchS:0000004c $d
     /tmp/ccMLpdil.s:900    .text.chMBFetchI:00000000 $t
     /tmp/ccMLpdil.s:906    .text.chMBFetchI:00000000 chMBFetchI
     /tmp/ccMLpdil.s:975    .text.chMBFetchI:00000048 $d
     /tmp/ccMLpdil.s:980    .rodata.str1.4:00000000 $d
                     .debug_frame:00000010 $d
     /tmp/ccMLpdil.s:168    .text.chMBReset:0000004c $t
     /tmp/ccMLpdil.s:359    .text.chMBPostS:0000004c $t
     /tmp/ccMLpdil.s:437    .text.chMBPostI:00000048 $t
     /tmp/ccMLpdil.s:550    .text.chMBPostAhead:00000064 $t
     /tmp/ccMLpdil.s:707    .text.chMBPostAheadI:00000048 $t
     /tmp/ccMLpdil.s:819    .text.chMBFetch:00000064 $t
     /tmp/ccMLpdil.s:979    .text.chMBFetchI:0000004c $t

UNDEFINED SYMBOLS
chSemInit
chDbgPanic
dbg_check_lock
chSemResetI
chSchRescheduleS
dbg_check_unlock
chDbgCheckClassS
chSemWaitTimeoutS
chSemSignalI
chDbgCheckClassI
