ARM GAS  /tmp/ccMLpdil.s 			page 1


   1              		.syntax unified
   2              		.cpu cortex-m3
   3              		.fpu softvfp
   4              		.eabi_attribute 20, 1
   5              		.eabi_attribute 21, 1
   6              		.eabi_attribute 23, 3
   7              		.eabi_attribute 24, 1
   8              		.eabi_attribute 25, 1
   9              		.eabi_attribute 26, 1
  10              		.eabi_attribute 30, 2
  11              		.eabi_attribute 34, 1
  12              		.eabi_attribute 18, 4
  13              		.thumb
  14              		.file	"chmboxes.c"
  15              		.text
  16              	.Ltext0:
  17              		.cfi_sections	.debug_frame
  18              		.section	.text.chMBInit,"ax",%progbits
  19              		.align	2
  20              		.p2align 4,,15
  21              		.global	chMBInit
  22              		.thumb
  23              		.thumb_func
  24              		.type	chMBInit, %function
  25              	chMBInit:
  26              	.LFB7:
  27              		.file 1 "../../ChibiOS/os/kernel/src/chmboxes.c"
  28              		.loc 1 65 0
  29              		.cfi_startproc
  30              		@ args = 0, pretend = 0, frame = 0
  31              		@ frame_needed = 0, uses_anonymous_args = 0
  32              	.LVL0:
  33 0000 70B5     		push	{r4, r5, r6, lr}
  34              	.LCFI0:
  35              		.cfi_def_cfa_offset 16
  36              		.cfi_offset 14, -4
  37              		.cfi_offset 6, -8
  38              		.cfi_offset 5, -12
  39              		.cfi_offset 4, -16
  40              		.loc 1 65 0
  41 0002 0446     		mov	r4, r0
  42 0004 0D46     		mov	r5, r1
  43 0006 1646     		mov	r6, r2
  44              		.loc 1 67 0
  45 0008 A0B1     		cbz	r0, .L2
  46              		.loc 1 67 0 is_stmt 0 discriminator 2
  47 000a 99B1     		cbz	r1, .L2
  48              		.loc 1 67 0 discriminator 3
  49 000c 002A     		cmp	r2, #0
  50 000e 11DD     		ble	.L2
  51              	.LVL1:
  52              	.L3:
  53              		.loc 1 70 0 is_stmt 1
  54 0010 05EB8603 		add	r3, r5, r6, lsl #2
  55              		.loc 1 71 0
  56 0014 04F11C00 		add	r0, r4, #28
  57 0018 3146     		mov	r1, r6
ARM GAS  /tmp/ccMLpdil.s 			page 2


  58              		.loc 1 69 0
  59 001a E560     		str	r5, [r4, #12]
  60 001c A560     		str	r5, [r4, #8]
  61 001e 2560     		str	r5, [r4, #0]
  62              		.loc 1 70 0
  63 0020 6360     		str	r3, [r4, #4]
  64              		.loc 1 71 0
  65 0022 FFF7FEFF 		bl	chSemInit
  66              		.loc 1 72 0
  67 0026 04F11000 		add	r0, r4, #16
  68 002a 0021     		movs	r1, #0
  69              		.loc 1 73 0
  70 002c BDE87040 		pop	{r4, r5, r6, lr}
  71              		.loc 1 72 0
  72 0030 FFF7FEBF 		b	chSemInit
  73              	.L2:
  74              		.loc 1 67 0 discriminator 1
  75 0034 0148     		ldr	r0, .L5
  76 0036 FFF7FEFF 		bl	chDbgPanic
  77 003a E9E7     		b	.L3
  78              	.L6:
  79              		.align	2
  80              	.L5:
  81 003c 00000000 		.word	.LC0
  82              		.cfi_endproc
  83              	.LFE7:
  84              		.size	chMBInit, .-chMBInit
  85              		.section	.text.chMBReset,"ax",%progbits
  86              		.align	2
  87              		.p2align 4,,15
  88              		.global	chMBReset
  89              		.thumb
  90              		.thumb_func
  91              		.type	chMBReset, %function
  92              	chMBReset:
  93              	.LFB8:
  94              		.loc 1 84 0
  95              		.cfi_startproc
  96              		@ args = 0, pretend = 0, frame = 0
  97              		@ frame_needed = 0, uses_anonymous_args = 0
  98              	.LVL2:
  99 0000 10B5     		push	{r4, lr}
 100              	.LCFI1:
 101              		.cfi_def_cfa_offset 8
 102              		.cfi_offset 14, -4
 103              		.cfi_offset 4, -8
 104              		.loc 1 84 0
 105 0002 0446     		mov	r4, r0
 106              		.loc 1 86 0
 107 0004 D8B1     		cbz	r0, .L9
 108              	.LVL3:
 109              	.L8:
 110              	.LBB2:
 111              		.loc 1 88 0
 112 0006 2023     		movs	r3, #32
 113              	.LVL4:
 114              	@ 88 "../../ChibiOS/os/kernel/src/chmboxes.c" 1
ARM GAS  /tmp/ccMLpdil.s 			page 3


 115 0008 83F31188 		msr     BASEPRI, r3
 116              	@ 0 "" 2
 117              	.LVL5:
 118              		.thumb
 119              	.LBE2:
 120 000c FFF7FEFF 		bl	dbg_check_lock
 121              	.LVL6:
 122              		.loc 1 89 0
 123 0010 2368     		ldr	r3, [r4, #0]
 124              		.loc 1 90 0
 125 0012 6268     		ldr	r2, [r4, #4]
 126              		.loc 1 89 0
 127 0014 E360     		str	r3, [r4, #12]
 128              		.loc 1 90 0
 129 0016 D11A     		subs	r1, r2, r3
 130              		.loc 1 89 0
 131 0018 A360     		str	r3, [r4, #8]
 132              		.loc 1 90 0
 133 001a 04F11C00 		add	r0, r4, #28
 134 001e 8910     		asrs	r1, r1, #2
 135 0020 FFF7FEFF 		bl	chSemResetI
 136              		.loc 1 91 0
 137 0024 04F11000 		add	r0, r4, #16
 138 0028 0021     		movs	r1, #0
 139 002a FFF7FEFF 		bl	chSemResetI
 140              		.loc 1 92 0
 141 002e FFF7FEFF 		bl	chSchRescheduleS
 142              		.loc 1 93 0
 143 0032 FFF7FEFF 		bl	dbg_check_unlock
 144              	.LBB3:
 145 0036 0023     		movs	r3, #0
 146              	.LVL7:
 147              	@ 93 "../../ChibiOS/os/kernel/src/chmboxes.c" 1
 148 0038 83F31188 		msr     BASEPRI, r3
 149              	@ 0 "" 2
 150              	.LVL8:
 151              		.thumb
 152              	.LBE3:
 153              		.loc 1 94 0
 154 003c 10BD     		pop	{r4, pc}
 155              	.LVL9:
 156              	.L9:
 157              		.loc 1 86 0 discriminator 1
 158 003e 0248     		ldr	r0, .L10
 159 0040 FFF7FEFF 		bl	chDbgPanic
 160 0044 DFE7     		b	.L8
 161              	.L11:
 162 0046 00BF     		.align	2
 163              	.L10:
 164 0048 10000000 		.word	.LC1
 165              		.cfi_endproc
 166              	.LFE8:
 167              		.size	chMBReset, .-chMBReset
 168 004c AFF30080 		.section	.text.chMBPost,"ax",%progbits
 169              		.align	2
 170              		.p2align 4,,15
 171              		.global	chMBPost
ARM GAS  /tmp/ccMLpdil.s 			page 4


 172              		.thumb
 173              		.thumb_func
 174              		.type	chMBPost, %function
 175              	chMBPost:
 176              	.LFB9:
 177              		.loc 1 115 0
 178              		.cfi_startproc
 179              		@ args = 0, pretend = 0, frame = 0
 180              		@ frame_needed = 0, uses_anonymous_args = 0
 181              	.LVL10:
 182 0000 70B5     		push	{r4, r5, r6, lr}
 183              	.LCFI2:
 184              		.cfi_def_cfa_offset 16
 185              		.cfi_offset 14, -4
 186              		.cfi_offset 6, -8
 187              		.cfi_offset 5, -12
 188              		.cfi_offset 4, -16
 189              	.LBB8:
 190              		.loc 1 118 0
 191 0002 2023     		movs	r3, #32
 192              	.LVL11:
 193              	.LBE8:
 194              		.loc 1 115 0
 195 0004 0446     		mov	r4, r0
 196 0006 0D46     		mov	r5, r1
 197 0008 1646     		mov	r6, r2
 198              	.LBB9:
 199              		.loc 1 118 0
 200              	@ 118 "../../ChibiOS/os/kernel/src/chmboxes.c" 1
 201 000a 83F31188 		msr     BASEPRI, r3
 202              	@ 0 "" 2
 203              	.LVL12:
 204              		.thumb
 205              	.LBE9:
 206 000e FFF7FEFF 		bl	dbg_check_lock
 207              	.LVL13:
 208              	.LBB10:
 209              	.LBB11:
 210              		.loc 1 146 0
 211 0012 FFF7FEFF 		bl	chDbgCheckClassS
 212              		.loc 1 147 0
 213 0016 ECB1     		cbz	r4, .L16
 214              	.L13:
 215              		.loc 1 149 0
 216 0018 3146     		mov	r1, r6
 217 001a 04F11C00 		add	r0, r4, #28
 218 001e FFF7FEFF 		bl	chSemWaitTimeoutS
 219 0022 0646     		mov	r6, r0
 220              	.LVL14:
 221              		.loc 1 150 0
 222 0024 78B9     		cbnz	r0, .L14
 223              		.loc 1 151 0
 224 0026 A368     		ldr	r3, [r4, #8]
 225              		.loc 1 152 0
 226 0028 6268     		ldr	r2, [r4, #4]
 227              		.loc 1 151 0
 228 002a 43F8045B 		str	r5, [r3], #4
ARM GAS  /tmp/ccMLpdil.s 			page 5


 229              		.loc 1 152 0
 230 002e 9342     		cmp	r3, r2
 231              		.loc 1 151 0
 232 0030 A360     		str	r3, [r4, #8]
 233              		.loc 1 153 0
 234 0032 28BF     		it	cs
 235 0034 2368     		ldrcs	r3, [r4, #0]
 236              		.loc 1 154 0
 237 0036 04F11000 		add	r0, r4, #16
 238              	.LVL15:
 239              		.loc 1 153 0
 240 003a 28BF     		it	cs
 241 003c A360     		strcs	r3, [r4, #8]
 242              		.loc 1 154 0
 243 003e FFF7FEFF 		bl	chSemSignalI
 244              		.loc 1 155 0
 245 0042 FFF7FEFF 		bl	chSchRescheduleS
 246              	.L14:
 247              	.LBE11:
 248              	.LBE10:
 249              		.loc 1 120 0
 250 0046 FFF7FEFF 		bl	dbg_check_unlock
 251              	.LBB13:
 252 004a 0023     		movs	r3, #0
 253              	.LVL16:
 254              	@ 120 "../../ChibiOS/os/kernel/src/chmboxes.c" 1
 255 004c 83F31188 		msr     BASEPRI, r3
 256              	@ 0 "" 2
 257              	.LVL17:
 258              		.thumb
 259              	.LBE13:
 260              		.loc 1 122 0
 261 0050 3046     		mov	r0, r6
 262 0052 70BD     		pop	{r4, r5, r6, pc}
 263              	.LVL18:
 264              	.L16:
 265              	.LBB14:
 266              	.LBB12:
 267              		.loc 1 147 0
 268 0054 0148     		ldr	r0, .L17
 269 0056 FFF7FEFF 		bl	chDbgPanic
 270 005a DDE7     		b	.L13
 271              	.L18:
 272              		.align	2
 273              	.L17:
 274 005c 20000000 		.word	.LC2
 275              	.LBE12:
 276              	.LBE14:
 277              		.cfi_endproc
 278              	.LFE9:
 279              		.size	chMBPost, .-chMBPost
 280              		.section	.text.chMBPostS,"ax",%progbits
 281              		.align	2
 282              		.p2align 4,,15
 283              		.global	chMBPostS
 284              		.thumb
 285              		.thumb_func
ARM GAS  /tmp/ccMLpdil.s 			page 6


 286              		.type	chMBPostS, %function
 287              	chMBPostS:
 288              	.LFB10:
 289              		.loc 1 143 0
 290              		.cfi_startproc
 291              		@ args = 0, pretend = 0, frame = 0
 292              		@ frame_needed = 0, uses_anonymous_args = 0
 293              	.LVL19:
 294 0000 70B5     		push	{r4, r5, r6, lr}
 295              	.LCFI3:
 296              		.cfi_def_cfa_offset 16
 297              		.cfi_offset 14, -4
 298              		.cfi_offset 6, -8
 299              		.cfi_offset 5, -12
 300              		.cfi_offset 4, -16
 301              		.loc 1 143 0
 302 0002 0446     		mov	r4, r0
 303 0004 0D46     		mov	r5, r1
 304 0006 1646     		mov	r6, r2
 305              		.loc 1 146 0
 306 0008 FFF7FEFF 		bl	chDbgCheckClassS
 307              	.LVL20:
 308              		.loc 1 147 0
 309 000c C4B1     		cbz	r4, .L23
 310              	.L20:
 311              		.loc 1 149 0
 312 000e 3146     		mov	r1, r6
 313 0010 04F11C00 		add	r0, r4, #28
 314 0014 FFF7FEFF 		bl	chSemWaitTimeoutS
 315 0018 0646     		mov	r6, r0
 316              	.LVL21:
 317              		.loc 1 150 0
 318 001a 78B9     		cbnz	r0, .L21
 319              		.loc 1 151 0
 320 001c A368     		ldr	r3, [r4, #8]
 321              		.loc 1 152 0
 322 001e 6268     		ldr	r2, [r4, #4]
 323              		.loc 1 151 0
 324 0020 43F8045B 		str	r5, [r3], #4
 325              		.loc 1 152 0
 326 0024 9342     		cmp	r3, r2
 327              		.loc 1 151 0
 328 0026 A360     		str	r3, [r4, #8]
 329              		.loc 1 153 0
 330 0028 28BF     		it	cs
 331 002a 2368     		ldrcs	r3, [r4, #0]
 332              		.loc 1 154 0
 333 002c 04F11000 		add	r0, r4, #16
 334              	.LVL22:
 335              		.loc 1 153 0
 336 0030 28BF     		it	cs
 337 0032 A360     		strcs	r3, [r4, #8]
 338              		.loc 1 154 0
 339 0034 FFF7FEFF 		bl	chSemSignalI
 340              		.loc 1 155 0
 341 0038 FFF7FEFF 		bl	chSchRescheduleS
 342              	.L21:
ARM GAS  /tmp/ccMLpdil.s 			page 7


 343              		.loc 1 158 0
 344 003c 3046     		mov	r0, r6
 345 003e 70BD     		pop	{r4, r5, r6, pc}
 346              	.LVL23:
 347              	.L23:
 348              		.loc 1 147 0 discriminator 1
 349 0040 0148     		ldr	r0, .L24
 350 0042 FFF7FEFF 		bl	chDbgPanic
 351 0046 E2E7     		b	.L20
 352              	.L25:
 353              		.align	2
 354              	.L24:
 355 0048 20000000 		.word	.LC2
 356              		.cfi_endproc
 357              	.LFE10:
 358              		.size	chMBPostS, .-chMBPostS
 359 004c AFF30080 		.section	.text.chMBPostI,"ax",%progbits
 360              		.align	2
 361              		.p2align 4,,15
 362              		.global	chMBPostI
 363              		.thumb
 364              		.thumb_func
 365              		.type	chMBPostI, %function
 366              	chMBPostI:
 367              	.LFB11:
 368              		.loc 1 174 0
 369              		.cfi_startproc
 370              		@ args = 0, pretend = 0, frame = 0
 371              		@ frame_needed = 0, uses_anonymous_args = 0
 372              	.LVL24:
 373 0000 38B5     		push	{r3, r4, r5, lr}
 374              	.LCFI4:
 375              		.cfi_def_cfa_offset 16
 376              		.cfi_offset 14, -4
 377              		.cfi_offset 5, -8
 378              		.cfi_offset 4, -12
 379              		.cfi_offset 3, -16
 380              		.loc 1 174 0
 381 0002 0446     		mov	r4, r0
 382 0004 0D46     		mov	r5, r1
 383              		.loc 1 176 0
 384 0006 FFF7FEFF 		bl	chDbgCheckClassI
 385              	.LVL25:
 386              		.loc 1 177 0
 387 000a A4B1     		cbz	r4, .L31
 388              	.L27:
 389              		.loc 1 179 0
 390 000c 636A     		ldr	r3, [r4, #36]
 391 000e 002B     		cmp	r3, #0
 392 0010 15DD     		ble	.L30
 393              		.loc 1 182 0
 394 0012 A268     		ldr	r2, [r4, #8]
 395              		.loc 1 181 0
 396 0014 013B     		subs	r3, r3, #1
 397              		.loc 1 183 0
 398 0016 6168     		ldr	r1, [r4, #4]
 399              		.loc 1 181 0
ARM GAS  /tmp/ccMLpdil.s 			page 8


 400 0018 6362     		str	r3, [r4, #36]
 401              		.loc 1 182 0
 402 001a 42F8045B 		str	r5, [r2], #4
 403              		.loc 1 183 0
 404 001e 8A42     		cmp	r2, r1
 405              		.loc 1 184 0
 406 0020 28BF     		it	cs
 407 0022 2368     		ldrcs	r3, [r4, #0]
 408              		.loc 1 182 0
 409 0024 A260     		str	r2, [r4, #8]
 410              		.loc 1 185 0
 411 0026 04F11000 		add	r0, r4, #16
 412              		.loc 1 184 0
 413 002a 28BF     		it	cs
 414 002c A360     		strcs	r3, [r4, #8]
 415              		.loc 1 185 0
 416 002e FFF7FEFF 		bl	chSemSignalI
 417              		.loc 1 186 0
 418 0032 0020     		movs	r0, #0
 419 0034 38BD     		pop	{r3, r4, r5, pc}
 420              	.L31:
 421              		.loc 1 177 0 discriminator 1
 422 0036 0348     		ldr	r0, .L32
 423 0038 FFF7FEFF 		bl	chDbgPanic
 424 003c E6E7     		b	.L27
 425              	.L30:
 426              		.loc 1 180 0
 427 003e 4FF0FF30 		mov	r0, #-1
 428              		.loc 1 187 0
 429 0042 38BD     		pop	{r3, r4, r5, pc}
 430              	.L33:
 431              		.align	2
 432              	.L32:
 433 0044 30000000 		.word	.LC3
 434              		.cfi_endproc
 435              	.LFE11:
 436              		.size	chMBPostI, .-chMBPostI
 437 0048 AFF30080 		.section	.text.chMBPostAhead,"ax",%progbits
 437      AFF30080 
 438              		.align	2
 439              		.p2align 4,,15
 440              		.global	chMBPostAhead
 441              		.thumb
 442              		.thumb_func
 443              		.type	chMBPostAhead, %function
 444              	chMBPostAhead:
 445              	.LFB12:
 446              		.loc 1 208 0
 447              		.cfi_startproc
 448              		@ args = 0, pretend = 0, frame = 0
 449              		@ frame_needed = 0, uses_anonymous_args = 0
 450              	.LVL26:
 451 0000 70B5     		push	{r4, r5, r6, lr}
 452              	.LCFI5:
 453              		.cfi_def_cfa_offset 16
 454              		.cfi_offset 14, -4
 455              		.cfi_offset 6, -8
ARM GAS  /tmp/ccMLpdil.s 			page 9


 456              		.cfi_offset 5, -12
 457              		.cfi_offset 4, -16
 458              	.LBB19:
 459              		.loc 1 211 0
 460 0002 2023     		movs	r3, #32
 461              	.LVL27:
 462              	.LBE19:
 463              		.loc 1 208 0
 464 0004 0446     		mov	r4, r0
 465 0006 0D46     		mov	r5, r1
 466 0008 1646     		mov	r6, r2
 467              	.LBB20:
 468              		.loc 1 211 0
 469              	@ 211 "../../ChibiOS/os/kernel/src/chmboxes.c" 1
 470 000a 83F31188 		msr     BASEPRI, r3
 471              	@ 0 "" 2
 472              	.LVL28:
 473              		.thumb
 474              	.LBE20:
 475 000e FFF7FEFF 		bl	dbg_check_lock
 476              	.LVL29:
 477              	.LBB21:
 478              	.LBB22:
 479              		.loc 1 239 0
 480 0012 FFF7FEFF 		bl	chDbgCheckClassS
 481              		.loc 1 240 0
 482 0016 F4B1     		cbz	r4, .L38
 483              	.L35:
 484              		.loc 1 242 0
 485 0018 3146     		mov	r1, r6
 486 001a 04F11C00 		add	r0, r4, #28
 487 001e FFF7FEFF 		bl	chSemWaitTimeoutS
 488 0022 0646     		mov	r6, r0
 489              	.LVL30:
 490              		.loc 1 243 0
 491 0024 60B9     		cbnz	r0, .L36
 492              		.loc 1 244 0
 493 0026 E368     		ldr	r3, [r4, #12]
 494 0028 2268     		ldr	r2, [r4, #0]
 495 002a 043B     		subs	r3, r3, #4
 496 002c 9342     		cmp	r3, r2
 497 002e E360     		str	r3, [r4, #12]
 498 0030 0DD3     		bcc	.L39
 499              	.LVL31:
 500              	.L37:
 501              		.loc 1 247 0
 502 0032 04F11000 		add	r0, r4, #16
 503              		.loc 1 246 0
 504 0036 1D60     		str	r5, [r3, #0]
 505              		.loc 1 247 0
 506 0038 FFF7FEFF 		bl	chSemSignalI
 507              		.loc 1 248 0
 508 003c FFF7FEFF 		bl	chSchRescheduleS
 509              	.L36:
 510              	.LBE22:
 511              	.LBE21:
 512              		.loc 1 213 0
ARM GAS  /tmp/ccMLpdil.s 			page 10


 513 0040 FFF7FEFF 		bl	dbg_check_unlock
 514              	.LBB24:
 515 0044 0023     		movs	r3, #0
 516              	.LVL32:
 517              	@ 213 "../../ChibiOS/os/kernel/src/chmboxes.c" 1
 518 0046 83F31188 		msr     BASEPRI, r3
 519              	@ 0 "" 2
 520              	.LVL33:
 521              		.thumb
 522              	.LBE24:
 523              		.loc 1 215 0
 524 004a 3046     		mov	r0, r6
 525 004c 70BD     		pop	{r4, r5, r6, pc}
 526              	.LVL34:
 527              	.L39:
 528              	.LBB25:
 529              	.LBB23:
 530              		.loc 1 245 0
 531 004e 6068     		ldr	r0, [r4, #4]
 532 0050 031F     		subs	r3, r0, #4
 533 0052 E360     		str	r3, [r4, #12]
 534 0054 EDE7     		b	.L37
 535              	.LVL35:
 536              	.L38:
 537              		.loc 1 240 0
 538 0056 0248     		ldr	r0, .L40
 539 0058 FFF7FEFF 		bl	chDbgPanic
 540 005c DCE7     		b	.L35
 541              	.L41:
 542 005e 00BF     		.align	2
 543              	.L40:
 544 0060 40000000 		.word	.LC4
 545              	.LBE23:
 546              	.LBE25:
 547              		.cfi_endproc
 548              	.LFE12:
 549              		.size	chMBPostAhead, .-chMBPostAhead
 550 0064 AFF30080 		.section	.text.chMBPostAheadS,"ax",%progbits
 550      AFF30080 
 550      AFF30080 
 551              		.align	2
 552              		.p2align 4,,15
 553              		.global	chMBPostAheadS
 554              		.thumb
 555              		.thumb_func
 556              		.type	chMBPostAheadS, %function
 557              	chMBPostAheadS:
 558              	.LFB13:
 559              		.loc 1 236 0
 560              		.cfi_startproc
 561              		@ args = 0, pretend = 0, frame = 0
 562              		@ frame_needed = 0, uses_anonymous_args = 0
 563              	.LVL36:
 564 0000 70B5     		push	{r4, r5, r6, lr}
 565              	.LCFI6:
 566              		.cfi_def_cfa_offset 16
 567              		.cfi_offset 14, -4
ARM GAS  /tmp/ccMLpdil.s 			page 11


 568              		.cfi_offset 6, -8
 569              		.cfi_offset 5, -12
 570              		.cfi_offset 4, -16
 571              		.loc 1 236 0
 572 0002 0446     		mov	r4, r0
 573 0004 0D46     		mov	r5, r1
 574 0006 1646     		mov	r6, r2
 575              		.loc 1 239 0
 576 0008 FFF7FEFF 		bl	chDbgCheckClassS
 577              	.LVL37:
 578              		.loc 1 240 0
 579 000c CCB1     		cbz	r4, .L46
 580              	.L43:
 581              		.loc 1 242 0
 582 000e 3146     		mov	r1, r6
 583 0010 04F11C00 		add	r0, r4, #28
 584 0014 FFF7FEFF 		bl	chSemWaitTimeoutS
 585 0018 0646     		mov	r6, r0
 586              	.LVL38:
 587              		.loc 1 243 0
 588 001a 60B9     		cbnz	r0, .L44
 589              		.loc 1 244 0
 590 001c E368     		ldr	r3, [r4, #12]
 591 001e 2268     		ldr	r2, [r4, #0]
 592 0020 043B     		subs	r3, r3, #4
 593 0022 9342     		cmp	r3, r2
 594 0024 E360     		str	r3, [r4, #12]
 595 0026 08D3     		bcc	.L47
 596              	.LVL39:
 597              	.L45:
 598              		.loc 1 247 0
 599 0028 04F11000 		add	r0, r4, #16
 600              		.loc 1 246 0
 601 002c 1D60     		str	r5, [r3, #0]
 602              		.loc 1 247 0
 603 002e FFF7FEFF 		bl	chSemSignalI
 604              		.loc 1 248 0
 605 0032 FFF7FEFF 		bl	chSchRescheduleS
 606              	.L44:
 607              		.loc 1 251 0
 608 0036 3046     		mov	r0, r6
 609 0038 70BD     		pop	{r4, r5, r6, pc}
 610              	.L47:
 611              		.loc 1 245 0
 612 003a 6068     		ldr	r0, [r4, #4]
 613 003c 031F     		subs	r3, r0, #4
 614 003e E360     		str	r3, [r4, #12]
 615 0040 F2E7     		b	.L45
 616              	.LVL40:
 617              	.L46:
 618              		.loc 1 240 0 discriminator 1
 619 0042 0248     		ldr	r0, .L48
 620 0044 FFF7FEFF 		bl	chDbgPanic
 621 0048 E1E7     		b	.L43
 622              	.L49:
 623 004a 00BF     		.align	2
 624              	.L48:
ARM GAS  /tmp/ccMLpdil.s 			page 12


 625 004c 40000000 		.word	.LC4
 626              		.cfi_endproc
 627              	.LFE13:
 628              		.size	chMBPostAheadS, .-chMBPostAheadS
 629              		.section	.text.chMBPostAheadI,"ax",%progbits
 630              		.align	2
 631              		.p2align 4,,15
 632              		.global	chMBPostAheadI
 633              		.thumb
 634              		.thumb_func
 635              		.type	chMBPostAheadI, %function
 636              	chMBPostAheadI:
 637              	.LFB14:
 638              		.loc 1 267 0
 639              		.cfi_startproc
 640              		@ args = 0, pretend = 0, frame = 0
 641              		@ frame_needed = 0, uses_anonymous_args = 0
 642              	.LVL41:
 643 0000 38B5     		push	{r3, r4, r5, lr}
 644              	.LCFI7:
 645              		.cfi_def_cfa_offset 16
 646              		.cfi_offset 14, -4
 647              		.cfi_offset 5, -8
 648              		.cfi_offset 4, -12
 649              		.cfi_offset 3, -16
 650              		.loc 1 267 0
 651 0002 0446     		mov	r4, r0
 652 0004 0D46     		mov	r5, r1
 653              		.loc 1 269 0
 654 0006 FFF7FEFF 		bl	chDbgCheckClassI
 655              	.LVL42:
 656              		.loc 1 270 0
 657 000a A4B1     		cbz	r4, .L55
 658              	.L51:
 659              		.loc 1 272 0
 660 000c 636A     		ldr	r3, [r4, #36]
 661 000e 002B     		cmp	r3, #0
 662 0010 15DD     		ble	.L54
 663              		.loc 1 275 0
 664 0012 E268     		ldr	r2, [r4, #12]
 665 0014 2168     		ldr	r1, [r4, #0]
 666 0016 043A     		subs	r2, r2, #4
 667              		.loc 1 274 0
 668 0018 013B     		subs	r3, r3, #1
 669              		.loc 1 275 0
 670 001a 8A42     		cmp	r2, r1
 671              		.loc 1 274 0
 672 001c 6362     		str	r3, [r4, #36]
 673              		.loc 1 275 0
 674 001e E260     		str	r2, [r4, #12]
 675 0020 02D2     		bcs	.L53
 676              		.loc 1 276 0
 677 0022 6068     		ldr	r0, [r4, #4]
 678 0024 021F     		subs	r2, r0, #4
 679 0026 E260     		str	r2, [r4, #12]
 680              	.L53:
 681              		.loc 1 278 0
ARM GAS  /tmp/ccMLpdil.s 			page 13


 682 0028 04F11000 		add	r0, r4, #16
 683              		.loc 1 277 0
 684 002c 1560     		str	r5, [r2, #0]
 685              		.loc 1 278 0
 686 002e FFF7FEFF 		bl	chSemSignalI
 687              		.loc 1 279 0
 688 0032 0020     		movs	r0, #0
 689 0034 38BD     		pop	{r3, r4, r5, pc}
 690              	.L55:
 691              		.loc 1 270 0 discriminator 1
 692 0036 0348     		ldr	r0, .L56
 693 0038 FFF7FEFF 		bl	chDbgPanic
 694 003c E6E7     		b	.L51
 695              	.L54:
 696              		.loc 1 273 0
 697 003e 4FF0FF30 		mov	r0, #-1
 698              		.loc 1 280 0
 699 0042 38BD     		pop	{r3, r4, r5, pc}
 700              	.L57:
 701              		.align	2
 702              	.L56:
 703 0044 54000000 		.word	.LC5
 704              		.cfi_endproc
 705              	.LFE14:
 706              		.size	chMBPostAheadI, .-chMBPostAheadI
 707 0048 AFF30080 		.section	.text.chMBFetch,"ax",%progbits
 707      AFF30080 
 708              		.align	2
 709              		.p2align 4,,15
 710              		.global	chMBFetch
 711              		.thumb
 712              		.thumb_func
 713              		.type	chMBFetch, %function
 714              	chMBFetch:
 715              	.LFB15:
 716              		.loc 1 301 0
 717              		.cfi_startproc
 718              		@ args = 0, pretend = 0, frame = 0
 719              		@ frame_needed = 0, uses_anonymous_args = 0
 720              	.LVL43:
 721 0000 70B5     		push	{r4, r5, r6, lr}
 722              	.LCFI8:
 723              		.cfi_def_cfa_offset 16
 724              		.cfi_offset 14, -4
 725              		.cfi_offset 6, -8
 726              		.cfi_offset 5, -12
 727              		.cfi_offset 4, -16
 728              	.LBB30:
 729              		.loc 1 304 0
 730 0002 2023     		movs	r3, #32
 731              	.LVL44:
 732              	.LBE30:
 733              		.loc 1 301 0
 734 0004 0446     		mov	r4, r0
 735 0006 0D46     		mov	r5, r1
 736 0008 1646     		mov	r6, r2
 737              	.LBB31:
ARM GAS  /tmp/ccMLpdil.s 			page 14


 738              		.loc 1 304 0
 739              	@ 304 "../../ChibiOS/os/kernel/src/chmboxes.c" 1
 740 000a 83F31188 		msr     BASEPRI, r3
 741              	@ 0 "" 2
 742              	.LVL45:
 743              		.thumb
 744              	.LBE31:
 745 000e FFF7FEFF 		bl	dbg_check_lock
 746              	.LVL46:
 747              	.LBB32:
 748              	.LBB33:
 749              		.loc 1 332 0
 750 0012 FFF7FEFF 		bl	chDbgCheckClassS
 751              		.loc 1 333 0
 752 0016 F4B1     		cbz	r4, .L59
 753 0018 EDB1     		cbz	r5, .L59
 754              	.L60:
 755              		.loc 1 335 0
 756 001a 3146     		mov	r1, r6
 757 001c 04F11000 		add	r0, r4, #16
 758 0020 FFF7FEFF 		bl	chSemWaitTimeoutS
 759 0024 0646     		mov	r6, r0
 760              	.LVL47:
 761              		.loc 1 336 0
 762 0026 78B9     		cbnz	r0, .L61
 763              		.loc 1 337 0
 764 0028 E368     		ldr	r3, [r4, #12]
 765              		.loc 1 338 0
 766 002a 6268     		ldr	r2, [r4, #4]
 767              		.loc 1 337 0
 768 002c 53F8041B 		ldr	r1, [r3], #4
 769              		.loc 1 340 0
 770 0030 04F11C00 		add	r0, r4, #28
 771              	.LVL48:
 772              		.loc 1 338 0
 773 0034 9342     		cmp	r3, r2
 774              		.loc 1 337 0
 775 0036 2960     		str	r1, [r5, #0]
 776 0038 E360     		str	r3, [r4, #12]
 777              		.loc 1 339 0
 778 003a 24BF     		itt	cs
 779 003c 2368     		ldrcs	r3, [r4, #0]
 780 003e E360     		strcs	r3, [r4, #12]
 781              		.loc 1 340 0
 782 0040 FFF7FEFF 		bl	chSemSignalI
 783              		.loc 1 341 0
 784 0044 FFF7FEFF 		bl	chSchRescheduleS
 785              	.L61:
 786              	.LBE33:
 787              	.LBE32:
 788              		.loc 1 306 0
 789 0048 FFF7FEFF 		bl	dbg_check_unlock
 790              	.LBB35:
 791 004c 0023     		movs	r3, #0
 792              	.LVL49:
 793              	@ 306 "../../ChibiOS/os/kernel/src/chmboxes.c" 1
 794 004e 83F31188 		msr     BASEPRI, r3
ARM GAS  /tmp/ccMLpdil.s 			page 15


 795              	@ 0 "" 2
 796              	.LVL50:
 797              		.thumb
 798              	.LBE35:
 799              		.loc 1 308 0
 800 0052 3046     		mov	r0, r6
 801 0054 70BD     		pop	{r4, r5, r6, pc}
 802              	.LVL51:
 803              	.L59:
 804              	.LBB36:
 805              	.LBB34:
 806              		.loc 1 333 0
 807 0056 0248     		ldr	r0, .L63
 808 0058 FFF7FEFF 		bl	chDbgPanic
 809 005c DDE7     		b	.L60
 810              	.L64:
 811 005e 00BF     		.align	2
 812              	.L63:
 813 0060 68000000 		.word	.LC6
 814              	.LBE34:
 815              	.LBE36:
 816              		.cfi_endproc
 817              	.LFE15:
 818              		.size	chMBFetch, .-chMBFetch
 819 0064 AFF30080 		.section	.text.chMBFetchS,"ax",%progbits
 819      AFF30080 
 819      AFF30080 
 820              		.align	2
 821              		.p2align 4,,15
 822              		.global	chMBFetchS
 823              		.thumb
 824              		.thumb_func
 825              		.type	chMBFetchS, %function
 826              	chMBFetchS:
 827              	.LFB16:
 828              		.loc 1 329 0
 829              		.cfi_startproc
 830              		@ args = 0, pretend = 0, frame = 0
 831              		@ frame_needed = 0, uses_anonymous_args = 0
 832              	.LVL52:
 833 0000 70B5     		push	{r4, r5, r6, lr}
 834              	.LCFI9:
 835              		.cfi_def_cfa_offset 16
 836              		.cfi_offset 14, -4
 837              		.cfi_offset 6, -8
 838              		.cfi_offset 5, -12
 839              		.cfi_offset 4, -16
 840              		.loc 1 329 0
 841 0002 0446     		mov	r4, r0
 842 0004 0D46     		mov	r5, r1
 843 0006 1646     		mov	r6, r2
 844              		.loc 1 332 0
 845 0008 FFF7FEFF 		bl	chDbgCheckClassS
 846              	.LVL53:
 847              		.loc 1 333 0
 848 000c CCB1     		cbz	r4, .L66
 849              		.loc 1 333 0 is_stmt 0 discriminator 2
ARM GAS  /tmp/ccMLpdil.s 			page 16


 850 000e C5B1     		cbz	r5, .L66
 851              	.L67:
 852              		.loc 1 335 0 is_stmt 1
 853 0010 3146     		mov	r1, r6
 854 0012 04F11000 		add	r0, r4, #16
 855 0016 FFF7FEFF 		bl	chSemWaitTimeoutS
 856 001a 0646     		mov	r6, r0
 857              	.LVL54:
 858              		.loc 1 336 0
 859 001c 78B9     		cbnz	r0, .L68
 860              		.loc 1 337 0
 861 001e E368     		ldr	r3, [r4, #12]
 862              		.loc 1 338 0
 863 0020 6268     		ldr	r2, [r4, #4]
 864              		.loc 1 337 0
 865 0022 53F8041B 		ldr	r1, [r3], #4
 866              		.loc 1 340 0
 867 0026 04F11C00 		add	r0, r4, #28
 868              	.LVL55:
 869              		.loc 1 338 0
 870 002a 9342     		cmp	r3, r2
 871              		.loc 1 337 0
 872 002c 2960     		str	r1, [r5, #0]
 873 002e E360     		str	r3, [r4, #12]
 874              		.loc 1 339 0
 875 0030 24BF     		itt	cs
 876 0032 2368     		ldrcs	r3, [r4, #0]
 877 0034 E360     		strcs	r3, [r4, #12]
 878              		.loc 1 340 0
 879 0036 FFF7FEFF 		bl	chSemSignalI
 880              		.loc 1 341 0
 881 003a FFF7FEFF 		bl	chSchRescheduleS
 882              	.L68:
 883              		.loc 1 344 0
 884 003e 3046     		mov	r0, r6
 885 0040 70BD     		pop	{r4, r5, r6, pc}
 886              	.LVL56:
 887              	.L66:
 888              		.loc 1 333 0 discriminator 1
 889 0042 0248     		ldr	r0, .L70
 890 0044 FFF7FEFF 		bl	chDbgPanic
 891 0048 E2E7     		b	.L67
 892              	.L71:
 893 004a 00BF     		.align	2
 894              	.L70:
 895 004c 68000000 		.word	.LC6
 896              		.cfi_endproc
 897              	.LFE16:
 898              		.size	chMBFetchS, .-chMBFetchS
 899              		.section	.text.chMBFetchI,"ax",%progbits
 900              		.align	2
 901              		.p2align 4,,15
 902              		.global	chMBFetchI
 903              		.thumb
 904              		.thumb_func
 905              		.type	chMBFetchI, %function
 906              	chMBFetchI:
ARM GAS  /tmp/ccMLpdil.s 			page 17


 907              	.LFB17:
 908              		.loc 1 360 0
 909              		.cfi_startproc
 910              		@ args = 0, pretend = 0, frame = 0
 911              		@ frame_needed = 0, uses_anonymous_args = 0
 912              	.LVL57:
 913 0000 38B5     		push	{r3, r4, r5, lr}
 914              	.LCFI10:
 915              		.cfi_def_cfa_offset 16
 916              		.cfi_offset 14, -4
 917              		.cfi_offset 5, -8
 918              		.cfi_offset 4, -12
 919              		.cfi_offset 3, -16
 920              		.loc 1 360 0
 921 0002 0446     		mov	r4, r0
 922 0004 0D46     		mov	r5, r1
 923              		.loc 1 362 0
 924 0006 FFF7FEFF 		bl	chDbgCheckClassI
 925              	.LVL58:
 926              		.loc 1 363 0
 927 000a B4B1     		cbz	r4, .L73
 928              		.loc 1 363 0 is_stmt 0 discriminator 2
 929 000c ADB1     		cbz	r5, .L73
 930              	.L74:
 931              		.loc 1 365 0 is_stmt 1
 932 000e A369     		ldr	r3, [r4, #24]
 933 0010 002B     		cmp	r3, #0
 934 0012 16DD     		ble	.L77
 935              		.loc 1 368 0
 936 0014 E268     		ldr	r2, [r4, #12]
 937              		.loc 1 367 0
 938 0016 581E     		subs	r0, r3, #1
 939 0018 A061     		str	r0, [r4, #24]
 940              		.loc 1 368 0
 941 001a 52F8041B 		ldr	r1, [r2], #4
 942              		.loc 1 369 0
 943 001e 6368     		ldr	r3, [r4, #4]
 944              		.loc 1 371 0
 945 0020 04F11C00 		add	r0, r4, #28
 946              		.loc 1 369 0
 947 0024 9A42     		cmp	r2, r3
 948              		.loc 1 370 0
 949 0026 28BF     		it	cs
 950 0028 2368     		ldrcs	r3, [r4, #0]
 951              		.loc 1 368 0
 952 002a 2960     		str	r1, [r5, #0]
 953 002c E260     		str	r2, [r4, #12]
 954              		.loc 1 370 0
 955 002e 28BF     		it	cs
 956 0030 E360     		strcs	r3, [r4, #12]
 957              		.loc 1 371 0
 958 0032 FFF7FEFF 		bl	chSemSignalI
 959              		.loc 1 372 0
 960 0036 0020     		movs	r0, #0
 961 0038 38BD     		pop	{r3, r4, r5, pc}
 962              	.L73:
 963              		.loc 1 363 0 discriminator 1
ARM GAS  /tmp/ccMLpdil.s 			page 18


 964 003a 0348     		ldr	r0, .L78
 965 003c FFF7FEFF 		bl	chDbgPanic
 966 0040 E5E7     		b	.L74
 967              	.L77:
 968              		.loc 1 366 0
 969 0042 4FF0FF30 		mov	r0, #-1
 970              		.loc 1 373 0
 971 0046 38BD     		pop	{r3, r4, r5, pc}
 972              	.L79:
 973              		.align	2
 974              	.L78:
 975 0048 78000000 		.word	.LC7
 976              		.cfi_endproc
 977              	.LFE17:
 978              		.size	chMBFetchI, .-chMBFetchI
 979 004c AFF30080 		.section	.rodata.str1.4,"aMS",%progbits,1
 980              		.align	2
 981              	.LC0:
 982 0000 2263684D 		.ascii	"\"chMBInit\"()\000"
 982      42496E69 
 982      74222829 
 982      00
 983 000d 000000   		.space	3
 984              	.LC1:
 985 0010 2263684D 		.ascii	"\"chMBReset\"()\000"
 985      42526573 
 985      65742228 
 985      2900
 986 001e 0000     		.space	2
 987              	.LC2:
 988 0020 2263684D 		.ascii	"\"chMBPostS\"()\000"
 988      42506F73 
 988      74532228 
 988      2900
 989 002e 0000     		.space	2
 990              	.LC3:
 991 0030 2263684D 		.ascii	"\"chMBPostI\"()\000"
 991      42506F73 
 991      74492228 
 991      2900
 992 003e 0000     		.space	2
 993              	.LC4:
 994 0040 2263684D 		.ascii	"\"chMBPostAheadS\"()\000"
 994      42506F73 
 994      74416865 
 994      61645322 
 994      282900
 995 0053 00       		.space	1
 996              	.LC5:
 997 0054 2263684D 		.ascii	"\"chMBPostAheadI\"()\000"
 997      42506F73 
 997      74416865 
 997      61644922 
 997      282900
 998 0067 00       		.space	1
 999              	.LC6:
 1000 0068 2263684D 		.ascii	"\"chMBFetchS\"()\000"
ARM GAS  /tmp/ccMLpdil.s 			page 19


 1000      42466574 
 1000      63685322 
 1000      282900
 1001 0077 00       		.space	1
 1002              	.LC7:
 1003 0078 2263684D 		.ascii	"\"chMBFetchI\"()\000"
 1003      42466574 
 1003      63684922 
 1003      282900
 1004 0087 00       		.text
 1005              	.Letext0:
 1006              		.file 2 "/home/tino/ChibiStudio/tools/GNU Tools ARM Embedded/4.6 2012q2/bin/../lib/gcc/arm-none-ea
 1007              		.file 3 "../../ChibiOS/os/ports/GCC/ARMCMx/chtypes.h"
 1008              		.file 4 "../../ChibiOS/os/kernel/include/chlists.h"
 1009              		.file 5 "../../ChibiOS/os/kernel/include/chthreads.h"
 1010              		.file 6 "../../ChibiOS/os/ports/GCC/ARMCMx/chcore_v7m.h"
 1011              		.file 7 "../../ChibiOS/os/kernel/include/chsem.h"
 1012              		.file 8 "../../ChibiOS/os/kernel/include/chmtx.h"
 1013              		.file 9 "../../ChibiOS/os/kernel/include/chmboxes.h"