ARM GAS  /tmp/ccAXZcSG.s 			page 1


   1              		.syntax unified
   2              		.cpu cortex-m3
   3              		.fpu softvfp
   4              		.eabi_attribute 20, 1
   5              		.eabi_attribute 21, 1
   6              		.eabi_attribute 23, 3
   7              		.eabi_attribute 24, 1
   8              		.eabi_attribute 25, 1
   9              		.eabi_attribute 26, 1
  10              		.eabi_attribute 30, 2
  11              		.eabi_attribute 34, 1
  12              		.eabi_attribute 18, 4
  13              		.thumb
  14              		.file	"chmempools.c"
  15              		.text
  16              	.Ltext0:
  17              		.cfi_sections	.debug_frame
  18              		.section	.text.chPoolInit,"ax",%progbits
  19              		.align	2
  20              		.p2align 4,,15
  21              		.global	chPoolInit
  22              		.thumb
  23              		.thumb_func
  24              		.type	chPoolInit, %function
  25              	chPoolInit:
  26              	.LFB7:
  27              		.file 1 "../../ChibiOS/os/kernel/src/chmempools.c"
  28              		.loc 1 55 0
  29              		.cfi_startproc
  30              		@ args = 0, pretend = 0, frame = 0
  31              		@ frame_needed = 0, uses_anonymous_args = 0
  32              	.LVL0:
  33 0000 70B5     		push	{r4, r5, r6, lr}
  34              	.LCFI0:
  35              		.cfi_def_cfa_offset 16
  36              		.cfi_offset 14, -4
  37              		.cfi_offset 6, -8
  38              		.cfi_offset 5, -12
  39              		.cfi_offset 4, -16
  40              		.loc 1 55 0
  41 0002 0446     		mov	r4, r0
  42 0004 0D46     		mov	r5, r1
  43 0006 1646     		mov	r6, r2
  44              		.loc 1 57 0
  45 0008 08B1     		cbz	r0, .L2
  46              		.loc 1 57 0 is_stmt 0 discriminator 2
  47 000a 0329     		cmp	r1, #3
  48 000c 02D8     		bhi	.L3
  49              	.L2:
  50              		.loc 1 57 0 discriminator 1
  51 000e 0348     		ldr	r0, .L5
  52              	.LVL1:
  53 0010 FFF7FEFF 		bl	chDbgPanic
  54              	.LVL2:
  55              	.L3:
  56              		.loc 1 59 0 is_stmt 1
  57 0014 0023     		movs	r3, #0
ARM GAS  /tmp/ccAXZcSG.s 			page 2


  58              		.loc 1 61 0
  59 0016 84E86800 		stmia	r4, {r3, r5, r6}
  60              		.loc 1 62 0
  61 001a 70BD     		pop	{r4, r5, r6, pc}
  62              	.L6:
  63              		.align	2
  64              	.L5:
  65 001c 00000000 		.word	.LC0
  66              		.cfi_endproc
  67              	.LFE7:
  68              		.size	chPoolInit, .-chPoolInit
  69              		.section	.text.chPoolLoadArray,"ax",%progbits
  70              		.align	2
  71              		.p2align 4,,15
  72              		.global	chPoolLoadArray
  73              		.thumb
  74              		.thumb_func
  75              		.type	chPoolLoadArray, %function
  76              	chPoolLoadArray:
  77              	.LFB8:
  78              		.loc 1 77 0
  79              		.cfi_startproc
  80              		@ args = 0, pretend = 0, frame = 0
  81              		@ frame_needed = 0, uses_anonymous_args = 0
  82              	.LVL3:
  83 0000 2DE9F041 		push	{r4, r5, r6, r7, r8, lr}
  84              	.LCFI1:
  85              		.cfi_def_cfa_offset 24
  86              		.cfi_offset 14, -4
  87              		.cfi_offset 8, -8
  88              		.cfi_offset 7, -12
  89              		.cfi_offset 6, -16
  90              		.cfi_offset 5, -20
  91              		.cfi_offset 4, -24
  92              		.loc 1 77 0
  93 0004 0446     		mov	r4, r0
  94 0006 0D46     		mov	r5, r1
  95 0008 1646     		mov	r6, r2
  96              		.loc 1 79 0
  97 000a 0028     		cmp	r0, #0
  98 000c 74D0     		beq	.L8
  99              		.loc 1 79 0 is_stmt 0 discriminator 2
 100 000e 002A     		cmp	r2, #0
 101 0010 61D0     		beq	.L9
 102 0012 571E     		subs	r7, r2, #1
 103 0014 07F00107 		and	r7, r7, #1
 104              	.LVL4:
 105              	.LBB8:
 106              	.LBB9:
 107              	.LBB10:
 108              		.loc 1 166 0 is_stmt 1
 109 0018 2023     		movs	r3, #32
 110              	.LVL5:
 111              	@ 166 "../../ChibiOS/os/kernel/src/chmempools.c" 1
 112 001a 83F31188 		msr     BASEPRI, r3
 113              	@ 0 "" 2
 114              	.LVL6:
ARM GAS  /tmp/ccAXZcSG.s 			page 3


 115              		.thumb
 116              	.LBE10:
 117 001e FFF7FEFF 		bl	dbg_check_lock
 118              	.LVL7:
 119              	.LBB11:
 120              	.LBB12:
 121              		.loc 1 145 0
 122 0022 FFF7FEFF 		bl	chDbgCheckClassI
 123              		.loc 1 146 0
 124 0026 002D     		cmp	r5, #0
 125 0028 5CD0     		beq	.L33
 126              	.L22:
 127              		.loc 1 148 0
 128 002a 2368     		ldr	r3, [r4, #0]
 129 002c 2B60     		str	r3, [r5, #0]
 130              		.loc 1 149 0
 131 002e 2560     		str	r5, [r4, #0]
 132              	.LBE12:
 133              	.LBE11:
 134              		.loc 1 168 0
 135 0030 FFF7FEFF 		bl	dbg_check_unlock
 136              	.LBB22:
 137 0034 0023     		movs	r3, #0
 138              	.LVL8:
 139              	@ 168 "../../ChibiOS/os/kernel/src/chmempools.c" 1
 140 0036 83F31188 		msr     BASEPRI, r3
 141              	@ 0 "" 2
 142              	.LVL9:
 143              		.thumb
 144              	.LBE22:
 145              	.LBE9:
 146              	.LBE8:
 147              		.loc 1 83 0
 148 003a 6268     		ldr	r2, [r4, #4]
 149              		.loc 1 81 0
 150 003c 013E     		subs	r6, r6, #1
 151              	.LVL10:
 152              		.loc 1 83 0
 153 003e 1544     		add	r5, r5, r2
 154              	.LVL11:
 155              		.loc 1 81 0
 156 0040 47D0     		beq	.L7
 157 0042 002F     		cmp	r7, #0
 158 0044 34D0     		beq	.L15
 159              	.LBB55:
 160              	.LBB46:
 161              	.LBB23:
 162              		.loc 1 166 0
 163 0046 2023     		movs	r3, #32
 164              	.LVL12:
 165              	@ 166 "../../ChibiOS/os/kernel/src/chmempools.c" 1
 166 0048 83F31188 		msr     BASEPRI, r3
 167              	@ 0 "" 2
 168              	.LVL13:
 169              		.thumb
 170              	.LBE23:
 171 004c FFF7FEFF 		bl	dbg_check_lock
ARM GAS  /tmp/ccAXZcSG.s 			page 4


 172              	.LVL14:
 173              	.LBB24:
 174              	.LBB13:
 175              		.loc 1 145 0
 176 0050 FFF7FEFF 		bl	chDbgCheckClassI
 177              		.loc 1 146 0
 178 0054 002D     		cmp	r5, #0
 179 0056 49D0     		beq	.L34
 180              	.L24:
 181              		.loc 1 148 0
 182 0058 2168     		ldr	r1, [r4, #0]
 183 005a 2960     		str	r1, [r5, #0]
 184              		.loc 1 149 0
 185 005c 2560     		str	r5, [r4, #0]
 186              	.LBE13:
 187              	.LBE24:
 188              		.loc 1 168 0
 189 005e FFF7FEFF 		bl	dbg_check_unlock
 190              	.LBB25:
 191 0062 0023     		movs	r3, #0
 192              	@ 168 "../../ChibiOS/os/kernel/src/chmempools.c" 1
 193 0064 83F31188 		msr     BASEPRI, r3
 194              	@ 0 "" 2
 195              	.LVL15:
 196              		.thumb
 197              	.LBE25:
 198              	.LBE46:
 199              	.LBE55:
 200              		.loc 1 83 0
 201 0068 6068     		ldr	r0, [r4, #4]
 202              		.loc 1 81 0
 203 006a 013E     		subs	r6, r6, #1
 204              		.loc 1 83 0
 205 006c 0544     		add	r5, r5, r0
 206              		.loc 1 81 0
 207 006e 1FD1     		bne	.L15
 208 0070 40E0     		b	.L40
 209              	.LVL16:
 210              	.L10:
 211              	.LBB56:
 212              	.LBB47:
 213              	.LBB26:
 214              	.LBB14:
 215              		.loc 1 148 0
 216 0072 2068     		ldr	r0, [r4, #0]
 217 0074 2860     		str	r0, [r5, #0]
 218              		.loc 1 149 0
 219 0076 2560     		str	r5, [r4, #0]
 220              	.LBE14:
 221              	.LBE26:
 222              		.loc 1 168 0
 223 0078 FFF7FEFF 		bl	dbg_check_unlock
 224              	.LBB27:
 225 007c 0023     		movs	r3, #0
 226              	@ 168 "../../ChibiOS/os/kernel/src/chmempools.c" 1
 227 007e 83F31188 		msr     BASEPRI, r3
 228              	@ 0 "" 2
ARM GAS  /tmp/ccAXZcSG.s 			page 5


 229              	.LVL17:
 230              		.thumb
 231              	.LBE27:
 232              	.LBE47:
 233              	.LBE56:
 234              		.loc 1 83 0
 235 0082 6368     		ldr	r3, [r4, #4]
 236              	.LVL18:
 237              		.loc 1 84 0
 238 0084 013E     		subs	r6, r6, #1
 239              		.loc 1 83 0
 240 0086 ED18     		adds	r5, r5, r3
 241              	.LBB57:
 242              	.LBB48:
 243              	.LBB28:
 244              		.loc 1 166 0
 245 0088 2023     		movs	r3, #32
 246              	@ 166 "../../ChibiOS/os/kernel/src/chmempools.c" 1
 247 008a 83F31188 		msr     BASEPRI, r3
 248              	@ 0 "" 2
 249              	.LVL19:
 250              		.thumb
 251              	.LBE28:
 252 008e FFF7FEFF 		bl	dbg_check_lock
 253              	.LVL20:
 254              	.LBB29:
 255              	.LBB15:
 256              		.loc 1 145 0
 257 0092 FFF7FEFF 		bl	chDbgCheckClassI
 258              		.loc 1 146 0
 259 0096 C5B1     		cbz	r5, .L36
 260              	.L27:
 261              		.loc 1 148 0
 262 0098 2368     		ldr	r3, [r4, #0]
 263 009a 2B60     		str	r3, [r5, #0]
 264              		.loc 1 149 0
 265 009c 2560     		str	r5, [r4, #0]
 266              	.LBE15:
 267              	.LBE29:
 268              		.loc 1 168 0
 269 009e FFF7FEFF 		bl	dbg_check_unlock
 270              	.LBB30:
 271 00a2 0023     		movs	r3, #0
 272              	@ 168 "../../ChibiOS/os/kernel/src/chmempools.c" 1
 273 00a4 83F31188 		msr     BASEPRI, r3
 274              	@ 0 "" 2
 275              	.LVL21:
 276              		.thumb
 277              	.LBE30:
 278              	.LBE48:
 279              	.LBE57:
 280              		.loc 1 83 0
 281 00a8 6268     		ldr	r2, [r4, #4]
 282              		.loc 1 81 0
 283 00aa 013E     		subs	r6, r6, #1
 284              		.loc 1 83 0
 285 00ac 1544     		add	r5, r5, r2
ARM GAS  /tmp/ccAXZcSG.s 			page 6


 286              		.loc 1 81 0
 287 00ae 17D0     		beq	.L37
 288              	.L15:
 289              	.LBB58:
 290              	.LBB49:
 291              	.LBB31:
 292              		.loc 1 166 0
 293 00b0 2023     		movs	r3, #32
 294              	.LVL22:
 295              	@ 166 "../../ChibiOS/os/kernel/src/chmempools.c" 1
 296 00b2 83F31188 		msr     BASEPRI, r3
 297              	@ 0 "" 2
 298              	.LVL23:
 299              		.thumb
 300              	.LBE31:
 301 00b6 FFF7FEFF 		bl	dbg_check_lock
 302              	.LVL24:
 303              	.LBB32:
 304              	.LBB16:
 305              		.loc 1 145 0
 306 00ba FFF7FEFF 		bl	chDbgCheckClassI
 307              		.loc 1 146 0
 308 00be 002D     		cmp	r5, #0
 309 00c0 D7D1     		bne	.L10
 310 00c2 4248     		ldr	r0, .L41
 311 00c4 FFF7FEFF 		bl	chDbgPanic
 312 00c8 D3E7     		b	.L10
 313              	.L36:
 314 00ca 4048     		ldr	r0, .L41
 315 00cc FFF7FEFF 		bl	chDbgPanic
 316 00d0 E2E7     		b	.L27
 317              	.LVL25:
 318              	.L7:
 319 00d2 BDE8F081 		pop	{r4, r5, r6, r7, r8, pc}
 320              	.LVL26:
 321              	.L9:
 322              	.LBE16:
 323              	.LBE32:
 324              	.LBE49:
 325              	.LBE58:
 326              		.loc 1 79 0
 327 00d6 3E48     		ldr	r0, .L41+4
 328              		.loc 1 86 0
 329 00d8 BDE8F041 		pop	{r4, r5, r6, r7, r8, lr}
 330              		.loc 1 79 0
 331 00dc FFF7FEBF 		b	chDbgPanic
 332              	.LVL27:
 333              	.L37:
 334 00e0 BDE8F081 		pop	{r4, r5, r6, r7, r8, pc}
 335              	.LVL28:
 336              	.L33:
 337              	.LBB59:
 338              	.LBB50:
 339              	.LBB33:
 340              	.LBB17:
 341              		.loc 1 146 0
 342 00e4 3948     		ldr	r0, .L41
ARM GAS  /tmp/ccAXZcSG.s 			page 7


 343 00e6 FFF7FEFF 		bl	chDbgPanic
 344 00ea 9EE7     		b	.L22
 345              	.LVL29:
 346              	.L34:
 347 00ec 3748     		ldr	r0, .L41
 348 00ee FFF7FEFF 		bl	chDbgPanic
 349 00f2 B1E7     		b	.L24
 350              	.LVL30:
 351              	.L40:
 352 00f4 BDE8F081 		pop	{r4, r5, r6, r7, r8, pc}
 353              	.LVL31:
 354              	.L8:
 355              	.LBE17:
 356              	.LBE33:
 357              	.LBE50:
 358              	.LBE59:
 359              		.loc 1 79 0 discriminator 1
 360 00f8 3548     		ldr	r0, .L41+4
 361 00fa FFF7FEFF 		bl	chDbgPanic
 362              	.LVL32:
 363              		.loc 1 81 0 discriminator 1
 364 00fe 002E     		cmp	r6, #0
 365 0100 E7D0     		beq	.L7
 366 0102 013E     		subs	r6, r6, #1
 367              	.LVL33:
 368 0104 06F00107 		and	r7, r6, #1
 369              	.LVL34:
 370              	.LBB60:
 371              	.LBB51:
 372              	.LBB34:
 373              		.loc 1 166 0
 374 0108 2023     		movs	r3, #32
 375              	@ 166 "../../ChibiOS/os/kernel/src/chmempools.c" 1
 376 010a 83F31188 		msr     BASEPRI, r3
 377              	@ 0 "" 2
 378              	.LVL35:
 379              		.thumb
 380              	.LBE34:
 381 010e FFF7FEFF 		bl	dbg_check_lock
 382              	.LVL36:
 383              	.LBB35:
 384              	.LBB18:
 385              		.loc 1 145 0
 386 0112 FFF7FEFF 		bl	chDbgCheckClassI
 387              		.loc 1 146 0
 388 0116 2D48     		ldr	r0, .L41
 389 0118 FFF7FEFF 		bl	chDbgPanic
 390              		.loc 1 148 0
 391 011c 2268     		ldr	r2, [r4, #0]
 392 011e 2A60     		str	r2, [r5, #0]
 393              		.loc 1 149 0
 394 0120 2560     		str	r5, [r4, #0]
 395              	.LBE18:
 396              	.LBE35:
 397              		.loc 1 168 0
 398 0122 FFF7FEFF 		bl	dbg_check_unlock
 399              	.LBB36:
ARM GAS  /tmp/ccAXZcSG.s 			page 8


 400 0126 2346     		mov	r3, r4
 401              	@ 168 "../../ChibiOS/os/kernel/src/chmempools.c" 1
 402 0128 83F31188 		msr     BASEPRI, r3
 403              	@ 0 "" 2
 404              	.LVL37:
 405              		.thumb
 406              	.LBE36:
 407              	.LBE51:
 408              	.LBE60:
 409              		.loc 1 83 0
 410 012c 6168     		ldr	r1, [r4, #4]
 411 012e 6D18     		adds	r5, r5, r1
 412              	.LVL38:
 413              		.loc 1 81 0
 414 0130 002E     		cmp	r6, #0
 415 0132 48D0     		beq	.L38
 416 0134 AFB1     		cbz	r7, .L14
 417              	.LBB61:
 418              	.LBB52:
 419              	.LBB37:
 420              		.loc 1 166 0
 421 0136 2023     		movs	r3, #32
 422              	.LVL39:
 423              	@ 166 "../../ChibiOS/os/kernel/src/chmempools.c" 1
 424 0138 83F31188 		msr     BASEPRI, r3
 425              	@ 0 "" 2
 426              	.LVL40:
 427              		.thumb
 428              	.LBE37:
 429 013c FFF7FEFF 		bl	dbg_check_lock
 430              	.LVL41:
 431              	.LBB38:
 432              	.LBB19:
 433              		.loc 1 145 0
 434 0140 FFF7FEFF 		bl	chDbgCheckClassI
 435              		.loc 1 146 0
 436 0144 2148     		ldr	r0, .L41
 437 0146 FFF7FEFF 		bl	chDbgPanic
 438              		.loc 1 148 0
 439 014a 2168     		ldr	r1, [r4, #0]
 440 014c 2960     		str	r1, [r5, #0]
 441              		.loc 1 149 0
 442 014e 2560     		str	r5, [r4, #0]
 443              	.LBE19:
 444              	.LBE38:
 445              		.loc 1 168 0
 446 0150 FFF7FEFF 		bl	dbg_check_unlock
 447              	.LBB39:
 448 0154 2346     		mov	r3, r4
 449              	@ 168 "../../ChibiOS/os/kernel/src/chmempools.c" 1
 450 0156 83F31188 		msr     BASEPRI, r3
 451              	@ 0 "" 2
 452              	.LVL42:
 453              		.thumb
 454              	.LBE39:
 455              	.LBE52:
 456              	.LBE61:
ARM GAS  /tmp/ccAXZcSG.s 			page 9


 457              		.loc 1 83 0
 458 015a 6068     		ldr	r0, [r4, #4]
 459              		.loc 1 81 0
 460 015c 013E     		subs	r6, r6, #1
 461              	.LVL43:
 462              		.loc 1 83 0
 463 015e 0544     		add	r5, r5, r0
 464              	.LVL44:
 465              		.loc 1 81 0
 466 0160 2FD0     		beq	.L39
 467              	.L14:
 468              	.LBB62:
 469              	.LBB53:
 470              	.LBB40:
 471              		.loc 1 166 0
 472 0162 2023     		movs	r3, #32
 473              	.LVL45:
 474              	@ 166 "../../ChibiOS/os/kernel/src/chmempools.c" 1
 475 0164 83F31188 		msr     BASEPRI, r3
 476              	@ 0 "" 2
 477              	.LVL46:
 478              		.thumb
 479              	.LBE40:
 480 0168 FFF7FEFF 		bl	dbg_check_lock
 481              	.LVL47:
 482              	.LBB41:
 483              	.LBB20:
 484              		.loc 1 145 0
 485 016c FFF7FEFF 		bl	chDbgCheckClassI
 486              		.loc 1 146 0
 487 0170 1648     		ldr	r0, .L41
 488 0172 FFF7FEFF 		bl	chDbgPanic
 489              		.loc 1 148 0
 490 0176 2768     		ldr	r7, [r4, #0]
 491 0178 2F60     		str	r7, [r5, #0]
 492              		.loc 1 149 0
 493 017a 2560     		str	r5, [r4, #0]
 494              	.LBE20:
 495              	.LBE41:
 496              		.loc 1 168 0
 497 017c FFF7FEFF 		bl	dbg_check_unlock
 498              	.LBB42:
 499 0180 0023     		movs	r3, #0
 500              	@ 168 "../../ChibiOS/os/kernel/src/chmempools.c" 1
 501 0182 83F31188 		msr     BASEPRI, r3
 502              	@ 0 "" 2
 503              	.LVL48:
 504              		.thumb
 505              	.LBE42:
 506              	.LBE53:
 507              	.LBE62:
 508              		.loc 1 83 0
 509 0186 D4F80480 		ldr	r8, [r4, #4]
 510              		.loc 1 84 0
 511 018a 013E     		subs	r6, r6, #1
 512              		.loc 1 83 0
 513 018c 05EB0807 		add	r7, r5, r8
ARM GAS  /tmp/ccAXZcSG.s 			page 10


 514              	.LBB63:
 515              	.LBB54:
 516              	.LBB43:
 517              		.loc 1 166 0
 518 0190 2023     		movs	r3, #32
 519              	.LVL49:
 520              	@ 166 "../../ChibiOS/os/kernel/src/chmempools.c" 1
 521 0192 83F31188 		msr     BASEPRI, r3
 522              	@ 0 "" 2
 523              	.LVL50:
 524              		.thumb
 525              	.LBE43:
 526 0196 FFF7FEFF 		bl	dbg_check_lock
 527              	.LVL51:
 528              	.LBB44:
 529              	.LBB21:
 530              		.loc 1 145 0
 531 019a FFF7FEFF 		bl	chDbgCheckClassI
 532              		.loc 1 146 0
 533 019e 0B48     		ldr	r0, .L41
 534 01a0 FFF7FEFF 		bl	chDbgPanic
 535              		.loc 1 148 0
 536 01a4 2368     		ldr	r3, [r4, #0]
 537 01a6 45F80830 		str	r3, [r5, r8]
 538              		.loc 1 149 0
 539 01aa 2760     		str	r7, [r4, #0]
 540              	.LBE21:
 541              	.LBE44:
 542              		.loc 1 168 0
 543 01ac FFF7FEFF 		bl	dbg_check_unlock
 544              	.LBB45:
 545 01b0 0023     		movs	r3, #0
 546              	@ 168 "../../ChibiOS/os/kernel/src/chmempools.c" 1
 547 01b2 83F31188 		msr     BASEPRI, r3
 548              	@ 0 "" 2
 549              	.LVL52:
 550              		.thumb
 551              	.LBE45:
 552              	.LBE54:
 553              	.LBE63:
 554              		.loc 1 83 0
 555 01b6 6568     		ldr	r5, [r4, #4]
 556              		.loc 1 81 0
 557 01b8 013E     		subs	r6, r6, #1
 558              		.loc 1 83 0
 559 01ba 3D44     		add	r5, r7, r5
 560              		.loc 1 81 0
 561 01bc D1D1     		bne	.L14
 562 01be BDE8F081 		pop	{r4, r5, r6, r7, r8, pc}
 563              	.L39:
 564 01c2 BDE8F081 		pop	{r4, r5, r6, r7, r8, pc}
 565              	.LVL53:
 566              	.L38:
 567 01c6 BDE8F081 		pop	{r4, r5, r6, r7, r8, pc}
 568              	.L42:
 569 01ca 00BF     		.align	2
 570              	.L41:
ARM GAS  /tmp/ccAXZcSG.s 			page 11


 571 01cc 10000000 		.word	.LC1
 572 01d0 20000000 		.word	.LC2
 573              		.cfi_endproc
 574              	.LFE8:
 575              		.size	chPoolLoadArray, .-chPoolLoadArray
 576 01d4 AFF30080 		.section	.text.chPoolAllocI,"ax",%progbits
 576      AFF30080 
 576      AFF30080 
 577              		.align	2
 578              		.p2align 4,,15
 579              		.global	chPoolAllocI
 580              		.thumb
 581              		.thumb_func
 582              		.type	chPoolAllocI, %function
 583              	chPoolAllocI:
 584              	.LFB9:
 585              		.loc 1 98 0
 586              		.cfi_startproc
 587              		@ args = 0, pretend = 0, frame = 0
 588              		@ frame_needed = 0, uses_anonymous_args = 0
 589              	.LVL54:
 590 0000 10B5     		push	{r4, lr}
 591              	.LCFI2:
 592              		.cfi_def_cfa_offset 8
 593              		.cfi_offset 14, -4
 594              		.cfi_offset 4, -8
 595              		.loc 1 98 0
 596 0002 0446     		mov	r4, r0
 597              		.loc 1 101 0
 598 0004 FFF7FEFF 		bl	chDbgCheckClassI
 599              	.LVL55:
 600              		.loc 1 102 0
 601 0008 4CB1     		cbz	r4, .L47
 602              	.L44:
 603              		.loc 1 104 0
 604 000a 2068     		ldr	r0, [r4, #0]
 605              	.LVL56:
 606 000c 10B1     		cbz	r0, .L45
 607              		.loc 1 105 0
 608 000e 0368     		ldr	r3, [r0, #0]
 609 0010 2360     		str	r3, [r4, #0]
 610 0012 10BD     		pop	{r4, pc}
 611              	.L45:
 612              		.loc 1 106 0
 613 0014 A368     		ldr	r3, [r4, #8]
 614 0016 0BB1     		cbz	r3, .L46
 615              		.loc 1 107 0
 616 0018 6068     		ldr	r0, [r4, #4]
 617 001a 9847     		blx	r3
 618              	.LVL57:
 619              	.L46:
 620              		.loc 1 109 0
 621 001c 10BD     		pop	{r4, pc}
 622              	.LVL58:
 623              	.L47:
 624              		.loc 1 102 0 discriminator 1
 625 001e 0248     		ldr	r0, .L48
ARM GAS  /tmp/ccAXZcSG.s 			page 12


 626 0020 FFF7FEFF 		bl	chDbgPanic
 627 0024 F1E7     		b	.L44
 628              	.L49:
 629 0026 00BF     		.align	2
 630              	.L48:
 631 0028 34000000 		.word	.LC3
 632              		.cfi_endproc
 633              	.LFE9:
 634              		.size	chPoolAllocI, .-chPoolAllocI
 635 002c AFF30080 		.section	.text.chPoolAlloc,"ax",%progbits
 636              		.align	2
 637              		.p2align 4,,15
 638              		.global	chPoolAlloc
 639              		.thumb
 640              		.thumb_func
 641              		.type	chPoolAlloc, %function
 642              	chPoolAlloc:
 643              	.LFB10:
 644              		.loc 1 121 0
 645              		.cfi_startproc
 646              		@ args = 0, pretend = 0, frame = 0
 647              		@ frame_needed = 0, uses_anonymous_args = 0
 648              	.LVL59:
 649 0000 38B5     		push	{r3, r4, r5, lr}
 650              	.LCFI3:
 651              		.cfi_def_cfa_offset 16
 652              		.cfi_offset 14, -4
 653              		.cfi_offset 5, -8
 654              		.cfi_offset 4, -12
 655              		.cfi_offset 3, -16
 656              		.loc 1 121 0
 657 0002 0446     		mov	r4, r0
 658              	.LBB68:
 659              		.loc 1 124 0
 660 0004 2023     		movs	r3, #32
 661              	.LVL60:
 662              	@ 124 "../../ChibiOS/os/kernel/src/chmempools.c" 1
 663 0006 83F31188 		msr     BASEPRI, r3
 664              	@ 0 "" 2
 665              	.LVL61:
 666              		.thumb
 667              	.LBE68:
 668 000a FFF7FEFF 		bl	dbg_check_lock
 669              	.LVL62:
 670              	.LBB69:
 671              	.LBB70:
 672              		.loc 1 101 0
 673 000e FFF7FEFF 		bl	chDbgCheckClassI
 674              		.loc 1 102 0
 675 0012 BCB1     		cbz	r4, .L54
 676              	.L51:
 677              		.loc 1 104 0
 678 0014 2568     		ldr	r5, [r4, #0]
 679              	.LVL63:
 680 0016 45B1     		cbz	r5, .L52
 681              		.loc 1 105 0
 682 0018 2B68     		ldr	r3, [r5, #0]
ARM GAS  /tmp/ccAXZcSG.s 			page 13


 683 001a 2360     		str	r3, [r4, #0]
 684              	.L53:
 685              	.LBE70:
 686              	.LBE69:
 687              		.loc 1 126 0
 688 001c FFF7FEFF 		bl	dbg_check_unlock
 689              	.LVL64:
 690              	.LBB73:
 691 0020 0023     		movs	r3, #0
 692              	.LVL65:
 693              	@ 126 "../../ChibiOS/os/kernel/src/chmempools.c" 1
 694 0022 83F31188 		msr     BASEPRI, r3
 695              	@ 0 "" 2
 696              	.LVL66:
 697              		.thumb
 698              	.LBE73:
 699              		.loc 1 128 0
 700 0026 2846     		mov	r0, r5
 701 0028 38BD     		pop	{r3, r4, r5, pc}
 702              	.LVL67:
 703              	.L52:
 704              	.LBB74:
 705              	.LBB71:
 706              		.loc 1 106 0
 707 002a A368     		ldr	r3, [r4, #8]
 708 002c 002B     		cmp	r3, #0
 709 002e F5D0     		beq	.L53
 710              		.loc 1 107 0
 711 0030 6068     		ldr	r0, [r4, #4]
 712 0032 9847     		blx	r3
 713 0034 0546     		mov	r5, r0
 714              	.LVL68:
 715              	.LBE71:
 716              	.LBE74:
 717              		.loc 1 126 0
 718 0036 FFF7FEFF 		bl	dbg_check_unlock
 719              	.LVL69:
 720              	.LBB75:
 721 003a 0023     		movs	r3, #0
 722              	@ 126 "../../ChibiOS/os/kernel/src/chmempools.c" 1
 723 003c 83F31188 		msr     BASEPRI, r3
 724              	@ 0 "" 2
 725              	.LVL70:
 726              		.thumb
 727              	.LBE75:
 728              		.loc 1 128 0
 729 0040 2846     		mov	r0, r5
 730 0042 38BD     		pop	{r3, r4, r5, pc}
 731              	.LVL71:
 732              	.L54:
 733              	.LBB76:
 734              	.LBB72:
 735              		.loc 1 102 0
 736 0044 0148     		ldr	r0, .L55
 737 0046 FFF7FEFF 		bl	chDbgPanic
 738 004a E3E7     		b	.L51
 739              	.L56:
ARM GAS  /tmp/ccAXZcSG.s 			page 14


 740              		.align	2
 741              	.L55:
 742 004c 34000000 		.word	.LC3
 743              	.LBE72:
 744              	.LBE76:
 745              		.cfi_endproc
 746              	.LFE10:
 747              		.size	chPoolAlloc, .-chPoolAlloc
 748              		.section	.text.chPoolFreeI,"ax",%progbits
 749              		.align	2
 750              		.p2align 4,,15
 751              		.global	chPoolFreeI
 752              		.thumb
 753              		.thumb_func
 754              		.type	chPoolFreeI, %function
 755              	chPoolFreeI:
 756              	.LFB11:
 757              		.loc 1 142 0
 758              		.cfi_startproc
 759              		@ args = 0, pretend = 0, frame = 0
 760              		@ frame_needed = 0, uses_anonymous_args = 0
 761              	.LVL72:
 762 0000 38B5     		push	{r3, r4, r5, lr}
 763              	.LCFI4:
 764              		.cfi_def_cfa_offset 16
 765              		.cfi_offset 14, -4
 766              		.cfi_offset 5, -8
 767              		.cfi_offset 4, -12
 768              		.cfi_offset 3, -16
 769              		.loc 1 142 0
 770 0002 0446     		mov	r4, r0
 771 0004 0D46     		mov	r5, r1
 772              	.LVL73:
 773              		.loc 1 145 0
 774 0006 FFF7FEFF 		bl	chDbgCheckClassI
 775              	.LVL74:
 776              		.loc 1 146 0
 777 000a 24B1     		cbz	r4, .L58
 778              		.loc 1 146 0 is_stmt 0 discriminator 2
 779 000c 1DB1     		cbz	r5, .L58
 780              		.loc 1 148 0 is_stmt 1
 781 000e 2368     		ldr	r3, [r4, #0]
 782 0010 2B60     		str	r3, [r5, #0]
 783              		.loc 1 149 0
 784 0012 2560     		str	r5, [r4, #0]
 785              		.loc 1 150 0
 786 0014 38BD     		pop	{r3, r4, r5, pc}
 787              	.L58:
 788              		.loc 1 146 0 discriminator 1
 789 0016 0348     		ldr	r0, .L60
 790 0018 FFF7FEFF 		bl	chDbgPanic
 791              		.loc 1 148 0 discriminator 1
 792 001c 2368     		ldr	r3, [r4, #0]
 793 001e 2B60     		str	r3, [r5, #0]
 794              		.loc 1 149 0 discriminator 1
 795 0020 2560     		str	r5, [r4, #0]
 796              		.loc 1 150 0 discriminator 1
ARM GAS  /tmp/ccAXZcSG.s 			page 15


 797 0022 38BD     		pop	{r3, r4, r5, pc}
 798              	.L61:
 799              		.align	2
 800              	.L60:
 801 0024 10000000 		.word	.LC1
 802              		.cfi_endproc
 803              	.LFE11:
 804              		.size	chPoolFreeI, .-chPoolFreeI
 805 0028 AFF30080 		.section	.text.chPoolFree,"ax",%progbits
 805      AFF30080 
 806              		.align	2
 807              		.p2align 4,,15
 808              		.global	chPoolFree
 809              		.thumb
 810              		.thumb_func
 811              		.type	chPoolFree, %function
 812              	chPoolFree:
 813              	.LFB12:
 814              		.loc 1 164 0
 815              		.cfi_startproc
 816              		@ args = 0, pretend = 0, frame = 0
 817              		@ frame_needed = 0, uses_anonymous_args = 0
 818              	.LVL75:
 819 0000 38B5     		push	{r3, r4, r5, lr}
 820              	.LCFI5:
 821              		.cfi_def_cfa_offset 16
 822              		.cfi_offset 14, -4
 823              		.cfi_offset 5, -8
 824              		.cfi_offset 4, -12
 825              		.cfi_offset 3, -16
 826              		.loc 1 164 0
 827 0002 0446     		mov	r4, r0
 828 0004 0D46     		mov	r5, r1
 829              	.LBB81:
 830              		.loc 1 166 0
 831 0006 2023     		movs	r3, #32
 832              	.LVL76:
 833              	@ 166 "../../ChibiOS/os/kernel/src/chmempools.c" 1
 834 0008 83F31188 		msr     BASEPRI, r3
 835              	@ 0 "" 2
 836              	.LVL77:
 837              		.thumb
 838              	.LBE81:
 839 000c FFF7FEFF 		bl	dbg_check_lock
 840              	.LVL78:
 841              	.LBB82:
 842              	.LBB83:
 843              		.loc 1 145 0
 844 0010 FFF7FEFF 		bl	chDbgCheckClassI
 845              		.loc 1 146 0
 846 0014 4CB1     		cbz	r4, .L63
 847 0016 45B1     		cbz	r5, .L63
 848              	.L64:
 849              		.loc 1 148 0
 850 0018 2368     		ldr	r3, [r4, #0]
 851 001a 2B60     		str	r3, [r5, #0]
 852              		.loc 1 149 0
ARM GAS  /tmp/ccAXZcSG.s 			page 16


 853 001c 2560     		str	r5, [r4, #0]
 854              	.LBE83:
 855              	.LBE82:
 856              		.loc 1 168 0
 857 001e FFF7FEFF 		bl	dbg_check_unlock
 858              	.LBB85:
 859 0022 0023     		movs	r3, #0
 860              	.LVL79:
 861              	@ 168 "../../ChibiOS/os/kernel/src/chmempools.c" 1
 862 0024 83F31188 		msr     BASEPRI, r3
 863              	@ 0 "" 2
 864              	.LVL80:
 865              		.thumb
 866              	.LBE85:
 867              		.loc 1 169 0
 868 0028 38BD     		pop	{r3, r4, r5, pc}
 869              	.LVL81:
 870              	.L63:
 871              	.LBB86:
 872              	.LBB84:
 873              		.loc 1 146 0
 874 002a 0248     		ldr	r0, .L65
 875 002c FFF7FEFF 		bl	chDbgPanic
 876 0030 F2E7     		b	.L64
 877              	.L66:
 878 0032 00BF     		.align	2
 879              	.L65:
 880 0034 10000000 		.word	.LC1
 881              	.LBE84:
 882              	.LBE86:
 883              		.cfi_endproc
 884              	.LFE12:
 885              		.size	chPoolFree, .-chPoolFree
 886 0038 AFF30080 		.section	.rodata.str1.4,"aMS",%progbits,1
 886      AFF30080 
 887              		.align	2
 888              	.LC0:
 889 0000 22636850 		.ascii	"\"chPoolInit\"()\000"
 889      6F6F6C49 
 889      6E697422 
 889      282900
 890 000f 00       		.space	1
 891              	.LC1:
 892 0010 22636850 		.ascii	"\"chPoolFreeI\"()\000"
 892      6F6F6C46 
 892      72656549 
 892      22282900 
 893              	.LC2:
 894 0020 22636850 		.ascii	"\"chPoolLoadArray\"()\000"
 894      6F6F6C4C 
 894      6F616441 
 894      72726179 
 894      22282900 
 895              	.LC3:
 896 0034 22636850 		.ascii	"\"chPoolAllocI\"()\000"
 896      6F6F6C41 
 896      6C6C6F63 
ARM GAS  /tmp/ccAXZcSG.s 			page 17


 896      49222829 
 896      00
 897 0045 000000   		.text
 898              	.Letext0:
 899              		.file 2 "/home/tino/ChibiStudio/tools/GNU Tools ARM Embedded/4.6 2012q2/bin/../lib/gcc/arm-none-ea
 900              		.file 3 "/home/tino/ChibiStudio/tools/GNU Tools ARM Embedded/4.6 2012q2/bin/../lib/gcc/arm-none-ea
 901              		.file 4 "../../ChibiOS/os/kernel/include/chmemcore.h"
 902              		.file 5 "../../ChibiOS/os/kernel/include/chmempools.h"
 903              		.section	.debug_info,"",%progbits
 904              	.Ldebug_info0:
 905 0000 22040000 		.4byte	0x422
 906 0004 0200     		.2byte	0x2
 907 0006 00000000 		.4byte	.Ldebug_abbrev0
 908 000a 04       		.byte	0x4
 909 000b 01       		.uleb128 0x1
 910 000c 3A000000 		.4byte	.LASF27
 911 0010 01       		.byte	0x1
 912 0011 17010000 		.4byte	.LASF28
 913 0015 40010000 		.4byte	.LASF29
 914 0019 00000000 		.4byte	0
 915 001d 00000000 		.4byte	0
 916 0021 20020000 		.4byte	.Ldebug_ranges0+0x220
 917 0025 00000000 		.4byte	.Ldebug_line0
 918 0029 02       		.uleb128 0x2
 919 002a 04       		.byte	0x4
 920 002b 05       		.byte	0x5
 921 002c 696E7400 		.ascii	"int\000"
 922 0030 03       		.uleb128 0x3
 923 0031 00000000 		.4byte	.LASF2
 924 0035 02       		.byte	0x2
 925 0036 D4       		.byte	0xd4
 926 0037 3B000000 		.4byte	0x3b
 927 003b 04       		.uleb128 0x4
 928 003c 04       		.byte	0x4
 929 003d 07       		.byte	0x7
 930 003e F3000000 		.4byte	.LASF0
 931 0042 04       		.uleb128 0x4
 932 0043 01       		.byte	0x1
 933 0044 06       		.byte	0x6
 934 0045 CD010000 		.4byte	.LASF1
 935 0049 03       		.uleb128 0x3
 936 004a 16000000 		.4byte	.LASF3
 937 004e 03       		.byte	0x3
 938 004f 2A       		.byte	0x2a
 939 0050 54000000 		.4byte	0x54
 940 0054 04       		.uleb128 0x4
 941 0055 01       		.byte	0x1
 942 0056 08       		.byte	0x8
 943 0057 BD000000 		.4byte	.LASF4
 944 005b 04       		.uleb128 0x4
 945 005c 02       		.byte	0x2
 946 005d 05       		.byte	0x5
 947 005e A5010000 		.4byte	.LASF5
 948 0062 04       		.uleb128 0x4
 949 0063 02       		.byte	0x2
 950 0064 07       		.byte	0x7
 951 0065 95000000 		.4byte	.LASF6
ARM GAS  /tmp/ccAXZcSG.s 			page 18


 952 0069 04       		.uleb128 0x4
 953 006a 04       		.byte	0x4
 954 006b 05       		.byte	0x5
 955 006c C4010000 		.4byte	.LASF7
 956 0070 03       		.uleb128 0x3
 957 0071 BB010000 		.4byte	.LASF8
 958 0075 03       		.byte	0x3
 959 0076 50       		.byte	0x50
 960 0077 7B000000 		.4byte	0x7b
 961 007b 04       		.uleb128 0x4
 962 007c 04       		.byte	0x4
 963 007d 07       		.byte	0x7
 964 007e 83000000 		.4byte	.LASF9
 965 0082 04       		.uleb128 0x4
 966 0083 08       		.byte	0x8
 967 0084 05       		.byte	0x5
 968 0085 79010000 		.4byte	.LASF10
 969 0089 04       		.uleb128 0x4
 970 008a 08       		.byte	0x8
 971 008b 07       		.byte	0x7
 972 008c 00010000 		.4byte	.LASF11
 973 0090 04       		.uleb128 0x4
 974 0091 01       		.byte	0x1
 975 0092 02       		.byte	0x2
 976 0093 E6010000 		.4byte	.LASF12
 977 0097 05       		.uleb128 0x5
 978 0098 04       		.byte	0x4
 979 0099 03       		.uleb128 0x3
 980 009a 8C010000 		.4byte	.LASF13
 981 009e 04       		.byte	0x4
 982 009f 25       		.byte	0x25
 983 00a0 A4000000 		.4byte	0xa4
 984 00a4 06       		.uleb128 0x6
 985 00a5 04       		.byte	0x4
 986 00a6 AA000000 		.4byte	0xaa
 987 00aa 07       		.uleb128 0x7
 988 00ab 01       		.byte	0x1
 989 00ac 97000000 		.4byte	0x97
 990 00b0 BA000000 		.4byte	0xba
 991 00b4 08       		.uleb128 0x8
 992 00b5 30000000 		.4byte	0x30
 993 00b9 00       		.byte	0
 994 00ba 09       		.uleb128 0x9
 995 00bb 2E000000 		.4byte	.LASF30
 996 00bf 04       		.byte	0x4
 997 00c0 05       		.byte	0x5
 998 00c1 25       		.byte	0x25
 999 00c2 D5000000 		.4byte	0xd5
 1000 00c6 0A       		.uleb128 0xa
 1001 00c7 71010000 		.4byte	.LASF14
 1002 00cb 05       		.byte	0x5
 1003 00cc 26       		.byte	0x26
 1004 00cd D5000000 		.4byte	0xd5
 1005 00d1 02       		.byte	0x2
 1006 00d2 23       		.byte	0x23
 1007 00d3 00       		.uleb128 0
 1008 00d4 00       		.byte	0
ARM GAS  /tmp/ccAXZcSG.s 			page 19


 1009 00d5 06       		.uleb128 0x6
 1010 00d6 04       		.byte	0x4
 1011 00d7 BA000000 		.4byte	0xba
 1012 00db 0B       		.uleb128 0xb
 1013 00dc 0C       		.byte	0xc
 1014 00dd 05       		.byte	0x5
 1015 00de 2D       		.byte	0x2d
 1016 00df 0E010000 		.4byte	0x10e
 1017 00e3 0A       		.uleb128 0xa
 1018 00e4 D9010000 		.4byte	.LASF15
 1019 00e8 05       		.byte	0x5
 1020 00e9 2E       		.byte	0x2e
 1021 00ea D5000000 		.4byte	0xd5
 1022 00ee 02       		.byte	0x2
 1023 00ef 23       		.byte	0x23
 1024 00f0 00       		.uleb128 0
 1025 00f1 0A       		.uleb128 0xa
 1026 00f2 07000000 		.4byte	.LASF16
 1027 00f6 05       		.byte	0x5
 1028 00f7 2F       		.byte	0x2f
 1029 00f8 30000000 		.4byte	0x30
 1030 00fc 02       		.byte	0x2
 1031 00fd 23       		.byte	0x23
 1032 00fe 04       		.uleb128 0x4
 1033 00ff 0A       		.uleb128 0xa
 1034 0100 99010000 		.4byte	.LASF17
 1035 0104 05       		.byte	0x5
 1036 0105 31       		.byte	0x31
 1037 0106 99000000 		.4byte	0x99
 1038 010a 02       		.byte	0x2
 1039 010b 23       		.byte	0x23
 1040 010c 08       		.uleb128 0x8
 1041 010d 00       		.byte	0
 1042 010e 03       		.uleb128 0x3
 1043 010f D6000000 		.4byte	.LASF18
 1044 0113 05       		.byte	0x5
 1045 0114 33       		.byte	0x33
 1046 0115 DB000000 		.4byte	0xdb
 1047 0119 04       		.uleb128 0x4
 1048 011a 01       		.byte	0x1
 1049 011b 08       		.byte	0x8
 1050 011c 87010000 		.4byte	.LASF19
 1051 0120 0C       		.uleb128 0xc
 1052 0121 01       		.byte	0x1
 1053 0122 EC010000 		.4byte	.LASF25
 1054 0126 01       		.byte	0x1
 1055 0127 37       		.byte	0x37
 1056 0128 01       		.byte	0x1
 1057 0129 00000000 		.4byte	.LFB7
 1058 012d 20000000 		.4byte	.LFE7
 1059 0131 00000000 		.4byte	.LLST0
 1060 0135 66010000 		.4byte	0x166
 1061 0139 0D       		.uleb128 0xd
 1062 013a 6D7000   		.ascii	"mp\000"
 1063 013d 01       		.byte	0x1
 1064 013e 37       		.byte	0x37
 1065 013f 66010000 		.4byte	0x166
ARM GAS  /tmp/ccAXZcSG.s 			page 20


 1066 0143 20000000 		.4byte	.LLST1
 1067 0147 0E       		.uleb128 0xe
 1068 0148 E1010000 		.4byte	.LASF20
 1069 014c 01       		.byte	0x1
 1070 014d 37       		.byte	0x37
 1071 014e 30000000 		.4byte	0x30
 1072 0152 3E000000 		.4byte	.LLST2
 1073 0156 0E       		.uleb128 0xe
 1074 0157 A8000000 		.4byte	.LASF21
 1075 015b 01       		.byte	0x1
 1076 015c 37       		.byte	0x37
 1077 015d 99000000 		.4byte	0x99
 1078 0161 5C000000 		.4byte	.LLST3
 1079 0165 00       		.byte	0
 1080 0166 06       		.uleb128 0x6
 1081 0167 04       		.byte	0x4
 1082 0168 0E010000 		.4byte	0x10e
 1083 016c 0F       		.uleb128 0xf
 1084 016d 01       		.byte	0x1
 1085 016e CB000000 		.4byte	.LASF23
 1086 0172 01       		.byte	0x1
 1087 0173 A4       		.byte	0xa4
 1088 0174 01       		.byte	0x1
 1089 0175 01       		.byte	0x1
 1090 0176 AE010000 		.4byte	0x1ae
 1091 017a 10       		.uleb128 0x10
 1092 017b 6D7000   		.ascii	"mp\000"
 1093 017e 01       		.byte	0x1
 1094 017f A4       		.byte	0xa4
 1095 0180 66010000 		.4byte	0x166
 1096 0184 11       		.uleb128 0x11
 1097 0185 E1000000 		.4byte	.LASF22
 1098 0189 01       		.byte	0x1
 1099 018a A4       		.byte	0xa4
 1100 018b 97000000 		.4byte	0x97
 1101 018f 12       		.uleb128 0x12
 1102 0190 A0010000 		.4byte	0x1a0
 1103 0194 13       		.uleb128 0x13
 1104 0195 746D7000 		.ascii	"tmp\000"
 1105 0199 01       		.byte	0x1
 1106 019a A6       		.byte	0xa6
 1107 019b 70000000 		.4byte	0x70
 1108 019f 00       		.byte	0
 1109 01a0 14       		.uleb128 0x14
 1110 01a1 13       		.uleb128 0x13
 1111 01a2 746D7000 		.ascii	"tmp\000"
 1112 01a6 01       		.byte	0x1
 1113 01a7 A8       		.byte	0xa8
 1114 01a8 70000000 		.4byte	0x70
 1115 01ac 00       		.byte	0
 1116 01ad 00       		.byte	0
 1117 01ae 0F       		.uleb128 0xf
 1118 01af 01       		.byte	0x1
 1119 01b0 B1000000 		.4byte	.LASF24
 1120 01b4 01       		.byte	0x1
 1121 01b5 8E       		.byte	0x8e
 1122 01b6 01       		.byte	0x1
ARM GAS  /tmp/ccAXZcSG.s 			page 21


 1123 01b7 01       		.byte	0x1
 1124 01b8 DD010000 		.4byte	0x1dd
 1125 01bc 10       		.uleb128 0x10
 1126 01bd 6D7000   		.ascii	"mp\000"
 1127 01c0 01       		.byte	0x1
 1128 01c1 8E       		.byte	0x8e
 1129 01c2 66010000 		.4byte	0x166
 1130 01c6 11       		.uleb128 0x11
 1131 01c7 E1000000 		.4byte	.LASF22
 1132 01cb 01       		.byte	0x1
 1133 01cc 8E       		.byte	0x8e
 1134 01cd 97000000 		.4byte	0x97
 1135 01d1 13       		.uleb128 0x13
 1136 01d2 70687000 		.ascii	"php\000"
 1137 01d6 01       		.byte	0x1
 1138 01d7 8F       		.byte	0x8f
 1139 01d8 D5000000 		.4byte	0xd5
 1140 01dc 00       		.byte	0
 1141 01dd 0C       		.uleb128 0xc
 1142 01de 01       		.byte	0x1
 1143 01df 1E000000 		.4byte	.LASF26
 1144 01e3 01       		.byte	0x1
 1145 01e4 4D       		.byte	0x4d
 1146 01e5 01       		.byte	0x1
 1147 01e6 00000000 		.4byte	.LFB8
 1148 01ea D4010000 		.4byte	.LFE8
 1149 01ee 7A000000 		.4byte	.LLST4
 1150 01f2 92020000 		.4byte	0x292
 1151 01f6 0D       		.uleb128 0xd
 1152 01f7 6D7000   		.ascii	"mp\000"
 1153 01fa 01       		.byte	0x1
 1154 01fb 4D       		.byte	0x4d
 1155 01fc 66010000 		.4byte	0x166
 1156 0200 9A000000 		.4byte	.LLST5
 1157 0204 0D       		.uleb128 0xd
 1158 0205 7000     		.ascii	"p\000"
 1159 0207 01       		.byte	0x1
 1160 0208 4D       		.byte	0x4d
 1161 0209 97000000 		.4byte	0x97
 1162 020d B8000000 		.4byte	.LLST6
 1163 0211 0D       		.uleb128 0xd
 1164 0212 6E00     		.ascii	"n\000"
 1165 0214 01       		.byte	0x1
 1166 0215 4D       		.byte	0x4d
 1167 0216 30000000 		.4byte	0x30
 1168 021a 0D010000 		.4byte	.LLST7
 1169 021e 15       		.uleb128 0x15
 1170 021f 6C010000 		.4byte	0x16c
 1171 0223 18000000 		.4byte	.LBB8
 1172 0227 00000000 		.4byte	.Ldebug_ranges0+0
 1173 022b 01       		.byte	0x1
 1174 022c 52       		.byte	0x52
 1175 022d 16       		.uleb128 0x16
 1176 022e 84010000 		.4byte	0x184
 1177 0232 96010000 		.4byte	.LLST8
 1178 0236 17       		.uleb128 0x17
 1179 0237 7A010000 		.4byte	0x17a
ARM GAS  /tmp/ccAXZcSG.s 			page 22


 1180 023b 00       		.byte	0
 1181 023c 18       		.uleb128 0x18
 1182 023d 58000000 		.4byte	.Ldebug_ranges0+0x58
 1183 0241 4F020000 		.4byte	0x24f
 1184 0245 19       		.uleb128 0x19
 1185 0246 94010000 		.4byte	0x194
 1186 024a CA010000 		.4byte	.LLST9
 1187 024e 00       		.byte	0
 1188 024f 1A       		.uleb128 0x1a
 1189 0250 AE010000 		.4byte	0x1ae
 1190 0254 22000000 		.4byte	.LBB11
 1191 0258 A0000000 		.4byte	.Ldebug_ranges0+0xa0
 1192 025c 01       		.byte	0x1
 1193 025d A7       		.byte	0xa7
 1194 025e 81020000 		.4byte	0x281
 1195 0262 16       		.uleb128 0x16
 1196 0263 C6010000 		.4byte	0x1c6
 1197 0267 2A020000 		.4byte	.LLST10
 1198 026b 17       		.uleb128 0x17
 1199 026c BC010000 		.4byte	0x1bc
 1200 0270 00       		.byte	0
 1201 0271 1B       		.uleb128 0x1b
 1202 0272 F8000000 		.4byte	.Ldebug_ranges0+0xf8
 1203 0276 19       		.uleb128 0x19
 1204 0277 D1010000 		.4byte	0x1d1
 1205 027b 2A020000 		.4byte	.LLST10
 1206 027f 00       		.byte	0
 1207 0280 00       		.byte	0
 1208 0281 1B       		.uleb128 0x1b
 1209 0282 50010000 		.4byte	.Ldebug_ranges0+0x150
 1210 0286 19       		.uleb128 0x19
 1211 0287 A1010000 		.4byte	0x1a1
 1212 028b 53020000 		.4byte	.LLST12
 1213 028f 00       		.byte	0
 1214 0290 00       		.byte	0
 1215 0291 00       		.byte	0
 1216 0292 1C       		.uleb128 0x1c
 1217 0293 01       		.byte	0x1
 1218 0294 E6000000 		.4byte	.LASF31
 1219 0298 01       		.byte	0x1
 1220 0299 62       		.byte	0x62
 1221 029a 01       		.byte	0x1
 1222 029b 97000000 		.4byte	0x97
 1223 029f 01       		.byte	0x1
 1224 02a0 BA020000 		.4byte	0x2ba
 1225 02a4 10       		.uleb128 0x10
 1226 02a5 6D7000   		.ascii	"mp\000"
 1227 02a8 01       		.byte	0x1
 1228 02a9 62       		.byte	0x62
 1229 02aa 66010000 		.4byte	0x166
 1230 02ae 1D       		.uleb128 0x1d
 1231 02af E1000000 		.4byte	.LASF22
 1232 02b3 01       		.byte	0x1
 1233 02b4 63       		.byte	0x63
 1234 02b5 97000000 		.4byte	0x97
 1235 02b9 00       		.byte	0
 1236 02ba 1E       		.uleb128 0x1e
ARM GAS  /tmp/ccAXZcSG.s 			page 23


 1237 02bb 92020000 		.4byte	0x292
 1238 02bf 00000000 		.4byte	.LFB9
 1239 02c3 2C000000 		.4byte	.LFE9
 1240 02c7 D4020000 		.4byte	.LLST13
 1241 02cb E2020000 		.4byte	0x2e2
 1242 02cf 16       		.uleb128 0x16
 1243 02d0 A4020000 		.4byte	0x2a4
 1244 02d4 F4020000 		.4byte	.LLST14
 1245 02d8 19       		.uleb128 0x19
 1246 02d9 AE020000 		.4byte	0x2ae
 1247 02dd 12030000 		.4byte	.LLST15
 1248 02e1 00       		.byte	0
 1249 02e2 1F       		.uleb128 0x1f
 1250 02e3 01       		.byte	0x1
 1251 02e4 AF010000 		.4byte	.LASF32
 1252 02e8 01       		.byte	0x1
 1253 02e9 79       		.byte	0x79
 1254 02ea 01       		.byte	0x1
 1255 02eb 97000000 		.4byte	0x97
 1256 02ef 00000000 		.4byte	.LFB10
 1257 02f3 50000000 		.4byte	.LFE10
 1258 02f7 31030000 		.4byte	.LLST16
 1259 02fb 77030000 		.4byte	0x377
 1260 02ff 0D       		.uleb128 0xd
 1261 0300 6D7000   		.ascii	"mp\000"
 1262 0303 01       		.byte	0x1
 1263 0304 79       		.byte	0x79
 1264 0305 66010000 		.4byte	0x166
 1265 0309 51030000 		.4byte	.LLST17
 1266 030d 20       		.uleb128 0x20
 1267 030e E1000000 		.4byte	.LASF22
 1268 0312 01       		.byte	0x1
 1269 0313 7A       		.byte	0x7a
 1270 0314 97000000 		.4byte	0x97
 1271 0318 01       		.byte	0x1
 1272 0319 55       		.byte	0x55
 1273 031a 21       		.uleb128 0x21
 1274 031b 04000000 		.4byte	.LBB68
 1275 031f 0A000000 		.4byte	.LBE68
 1276 0323 37030000 		.4byte	0x337
 1277 0327 22       		.uleb128 0x22
 1278 0328 746D7000 		.ascii	"tmp\000"
 1279 032c 01       		.byte	0x1
 1280 032d 7C       		.byte	0x7c
 1281 032e 70000000 		.4byte	0x70
 1282 0332 6F030000 		.4byte	.LLST18
 1283 0336 00       		.byte	0
 1284 0337 1A       		.uleb128 0x1a
 1285 0338 92020000 		.4byte	0x292
 1286 033c 0E000000 		.4byte	.LBB69
 1287 0340 98010000 		.4byte	.Ldebug_ranges0+0x198
 1288 0344 01       		.byte	0x1
 1289 0345 7D       		.byte	0x7d
 1290 0346 61030000 		.4byte	0x361
 1291 034a 23       		.uleb128 0x23
 1292 034b A4020000 		.4byte	0x2a4
 1293 034f 01       		.byte	0x1
ARM GAS  /tmp/ccAXZcSG.s 			page 24


 1294 0350 54       		.byte	0x54
 1295 0351 1B       		.uleb128 0x1b
 1296 0352 B8010000 		.4byte	.Ldebug_ranges0+0x1b8
 1297 0356 19       		.uleb128 0x19
 1298 0357 AE020000 		.4byte	0x2ae
 1299 035b 82030000 		.4byte	.LLST19
 1300 035f 00       		.byte	0
 1301 0360 00       		.byte	0
 1302 0361 1B       		.uleb128 0x1b
 1303 0362 D8010000 		.4byte	.Ldebug_ranges0+0x1d8
 1304 0366 22       		.uleb128 0x22
 1305 0367 746D7000 		.ascii	"tmp\000"
 1306 036b 01       		.byte	0x1
 1307 036c 7E       		.byte	0x7e
 1308 036d 70000000 		.4byte	0x70
 1309 0371 B7030000 		.4byte	.LLST20
 1310 0375 00       		.byte	0
 1311 0376 00       		.byte	0
 1312 0377 1E       		.uleb128 0x1e
 1313 0378 AE010000 		.4byte	0x1ae
 1314 037c 00000000 		.4byte	.LFB11
 1315 0380 28000000 		.4byte	.LFE11
 1316 0384 D5030000 		.4byte	.LLST21
 1317 0388 A8030000 		.4byte	0x3a8
 1318 038c 16       		.uleb128 0x16
 1319 038d BC010000 		.4byte	0x1bc
 1320 0391 F5030000 		.4byte	.LLST22
 1321 0395 16       		.uleb128 0x16
 1322 0396 C6010000 		.4byte	0x1c6
 1323 039a 13040000 		.4byte	.LLST23
 1324 039e 19       		.uleb128 0x19
 1325 039f D1010000 		.4byte	0x1d1
 1326 03a3 31040000 		.4byte	.LLST24
 1327 03a7 00       		.byte	0
 1328 03a8 24       		.uleb128 0x24
 1329 03a9 6C010000 		.4byte	0x16c
 1330 03ad 00000000 		.4byte	.LFB12
 1331 03b1 38000000 		.4byte	.LFE12
 1332 03b5 4F040000 		.4byte	.LLST25
 1333 03b9 16       		.uleb128 0x16
 1334 03ba 7A010000 		.4byte	0x17a
 1335 03be 6F040000 		.4byte	.LLST26
 1336 03c2 16       		.uleb128 0x16
 1337 03c3 84010000 		.4byte	0x184
 1338 03c7 8D040000 		.4byte	.LLST27
 1339 03cb 21       		.uleb128 0x21
 1340 03cc 06000000 		.4byte	.LBB81
 1341 03d0 0C000000 		.4byte	.LBE81
 1342 03d4 E2030000 		.4byte	0x3e2
 1343 03d8 19       		.uleb128 0x19
 1344 03d9 94010000 		.4byte	0x194
 1345 03dd AB040000 		.4byte	.LLST28
 1346 03e1 00       		.byte	0
 1347 03e2 1A       		.uleb128 0x1a
 1348 03e3 AE010000 		.4byte	0x1ae
 1349 03e7 10000000 		.4byte	.LBB82
 1350 03eb F0010000 		.4byte	.Ldebug_ranges0+0x1f0
ARM GAS  /tmp/ccAXZcSG.s 			page 25


 1351 03ef 01       		.byte	0x1
 1352 03f0 A7       		.byte	0xa7
 1353 03f1 11040000 		.4byte	0x411
 1354 03f5 23       		.uleb128 0x23
 1355 03f6 C6010000 		.4byte	0x1c6
 1356 03fa 01       		.byte	0x1
 1357 03fb 55       		.byte	0x55
 1358 03fc 23       		.uleb128 0x23
 1359 03fd BC010000 		.4byte	0x1bc
 1360 0401 01       		.byte	0x1
 1361 0402 54       		.byte	0x54
 1362 0403 1B       		.uleb128 0x1b
 1363 0404 08020000 		.4byte	.Ldebug_ranges0+0x208
 1364 0408 25       		.uleb128 0x25
 1365 0409 D1010000 		.4byte	0x1d1
 1366 040d 01       		.byte	0x1
 1367 040e 55       		.byte	0x55
 1368 040f 00       		.byte	0
 1369 0410 00       		.byte	0
 1370 0411 26       		.uleb128 0x26
 1371 0412 22000000 		.4byte	.LBB85
 1372 0416 28000000 		.4byte	.LBE85
 1373 041a 19       		.uleb128 0x19
 1374 041b A1010000 		.4byte	0x1a1
 1375 041f BE040000 		.4byte	.LLST29
 1376 0423 00       		.byte	0
 1377 0424 00       		.byte	0
 1378 0425 00       		.byte	0
 1379              		.section	.debug_abbrev,"",%progbits
 1380              	.Ldebug_abbrev0:
 1381 0000 01       		.uleb128 0x1
 1382 0001 11       		.uleb128 0x11
 1383 0002 01       		.byte	0x1
 1384 0003 25       		.uleb128 0x25
 1385 0004 0E       		.uleb128 0xe
 1386 0005 13       		.uleb128 0x13
 1387 0006 0B       		.uleb128 0xb
 1388 0007 03       		.uleb128 0x3
 1389 0008 0E       		.uleb128 0xe
 1390 0009 1B       		.uleb128 0x1b
 1391 000a 0E       		.uleb128 0xe
 1392 000b 11       		.uleb128 0x11
 1393 000c 01       		.uleb128 0x1
 1394 000d 52       		.uleb128 0x52
 1395 000e 01       		.uleb128 0x1
 1396 000f 55       		.uleb128 0x55
 1397 0010 06       		.uleb128 0x6
 1398 0011 10       		.uleb128 0x10
 1399 0012 06       		.uleb128 0x6
 1400 0013 00       		.byte	0
 1401 0014 00       		.byte	0
 1402 0015 02       		.uleb128 0x2
 1403 0016 24       		.uleb128 0x24
 1404 0017 00       		.byte	0
 1405 0018 0B       		.uleb128 0xb
 1406 0019 0B       		.uleb128 0xb
 1407 001a 3E       		.uleb128 0x3e
ARM GAS  /tmp/ccAXZcSG.s 			page 26


 1408 001b 0B       		.uleb128 0xb
 1409 001c 03       		.uleb128 0x3
 1410 001d 08       		.uleb128 0x8
 1411 001e 00       		.byte	0
 1412 001f 00       		.byte	0
 1413 0020 03       		.uleb128 0x3
 1414 0021 16       		.uleb128 0x16
 1415 0022 00       		.byte	0
 1416 0023 03       		.uleb128 0x3
 1417 0024 0E       		.uleb128 0xe
 1418 0025 3A       		.uleb128 0x3a
 1419 0026 0B       		.uleb128 0xb
 1420 0027 3B       		.uleb128 0x3b
 1421 0028 0B       		.uleb128 0xb
 1422 0029 49       		.uleb128 0x49
 1423 002a 13       		.uleb128 0x13
 1424 002b 00       		.byte	0
 1425 002c 00       		.byte	0
 1426 002d 04       		.uleb128 0x4
 1427 002e 24       		.uleb128 0x24
 1428 002f 00       		.byte	0
 1429 0030 0B       		.uleb128 0xb
 1430 0031 0B       		.uleb128 0xb
 1431 0032 3E       		.uleb128 0x3e
 1432 0033 0B       		.uleb128 0xb
 1433 0034 03       		.uleb128 0x3
 1434 0035 0E       		.uleb128 0xe
 1435 0036 00       		.byte	0
 1436 0037 00       		.byte	0
 1437 0038 05       		.uleb128 0x5
 1438 0039 0F       		.uleb128 0xf
 1439 003a 00       		.byte	0
 1440 003b 0B       		.uleb128 0xb
 1441 003c 0B       		.uleb128 0xb
 1442 003d 00       		.byte	0
 1443 003e 00       		.byte	0
 1444 003f 06       		.uleb128 0x6
 1445 0040 0F       		.uleb128 0xf
 1446 0041 00       		.byte	0
 1447 0042 0B       		.uleb128 0xb
 1448 0043 0B       		.uleb128 0xb
 1449 0044 49       		.uleb128 0x49
 1450 0045 13       		.uleb128 0x13
 1451 0046 00       		.byte	0
 1452 0047 00       		.byte	0
 1453 0048 07       		.uleb128 0x7
 1454 0049 15       		.uleb128 0x15
 1455 004a 01       		.byte	0x1
 1456 004b 27       		.uleb128 0x27
 1457 004c 0C       		.uleb128 0xc
 1458 004d 49       		.uleb128 0x49
 1459 004e 13       		.uleb128 0x13
 1460 004f 01       		.uleb128 0x1
 1461 0050 13       		.uleb128 0x13
 1462 0051 00       		.byte	0
 1463 0052 00       		.byte	0
 1464 0053 08       		.uleb128 0x8
ARM GAS  /tmp/ccAXZcSG.s 			page 27


 1465 0054 05       		.uleb128 0x5
 1466 0055 00       		.byte	0
 1467 0056 49       		.uleb128 0x49
 1468 0057 13       		.uleb128 0x13
 1469 0058 00       		.byte	0
 1470 0059 00       		.byte	0
 1471 005a 09       		.uleb128 0x9
 1472 005b 13       		.uleb128 0x13
 1473 005c 01       		.byte	0x1
 1474 005d 03       		.uleb128 0x3
 1475 005e 0E       		.uleb128 0xe
 1476 005f 0B       		.uleb128 0xb
 1477 0060 0B       		.uleb128 0xb
 1478 0061 3A       		.uleb128 0x3a
 1479 0062 0B       		.uleb128 0xb
 1480 0063 3B       		.uleb128 0x3b
 1481 0064 0B       		.uleb128 0xb
 1482 0065 01       		.uleb128 0x1
 1483 0066 13       		.uleb128 0x13
 1484 0067 00       		.byte	0
 1485 0068 00       		.byte	0
 1486 0069 0A       		.uleb128 0xa
 1487 006a 0D       		.uleb128 0xd
 1488 006b 00       		.byte	0
 1489 006c 03       		.uleb128 0x3
 1490 006d 0E       		.uleb128 0xe
 1491 006e 3A       		.uleb128 0x3a
 1492 006f 0B       		.uleb128 0xb
 1493 0070 3B       		.uleb128 0x3b
 1494 0071 0B       		.uleb128 0xb
 1495 0072 49       		.uleb128 0x49
 1496 0073 13       		.uleb128 0x13
 1497 0074 38       		.uleb128 0x38
 1498 0075 0A       		.uleb128 0xa
 1499 0076 00       		.byte	0
 1500 0077 00       		.byte	0
 1501 0078 0B       		.uleb128 0xb
 1502 0079 13       		.uleb128 0x13
 1503 007a 01       		.byte	0x1
 1504 007b 0B       		.uleb128 0xb
 1505 007c 0B       		.uleb128 0xb
 1506 007d 3A       		.uleb128 0x3a
 1507 007e 0B       		.uleb128 0xb
 1508 007f 3B       		.uleb128 0x3b
 1509 0080 0B       		.uleb128 0xb
 1510 0081 01       		.uleb128 0x1
 1511 0082 13       		.uleb128 0x13
 1512 0083 00       		.byte	0
 1513 0084 00       		.byte	0
 1514 0085 0C       		.uleb128 0xc
 1515 0086 2E       		.uleb128 0x2e
 1516 0087 01       		.byte	0x1
 1517 0088 3F       		.uleb128 0x3f
 1518 0089 0C       		.uleb128 0xc
 1519 008a 03       		.uleb128 0x3
 1520 008b 0E       		.uleb128 0xe
 1521 008c 3A       		.uleb128 0x3a
ARM GAS  /tmp/ccAXZcSG.s 			page 28


 1522 008d 0B       		.uleb128 0xb
 1523 008e 3B       		.uleb128 0x3b
 1524 008f 0B       		.uleb128 0xb
 1525 0090 27       		.uleb128 0x27
 1526 0091 0C       		.uleb128 0xc
 1527 0092 11       		.uleb128 0x11
 1528 0093 01       		.uleb128 0x1
 1529 0094 12       		.uleb128 0x12
 1530 0095 01       		.uleb128 0x1
 1531 0096 40       		.uleb128 0x40
 1532 0097 06       		.uleb128 0x6
 1533 0098 01       		.uleb128 0x1
 1534 0099 13       		.uleb128 0x13
 1535 009a 00       		.byte	0
 1536 009b 00       		.byte	0
 1537 009c 0D       		.uleb128 0xd
 1538 009d 05       		.uleb128 0x5
 1539 009e 00       		.byte	0
 1540 009f 03       		.uleb128 0x3
 1541 00a0 08       		.uleb128 0x8
 1542 00a1 3A       		.uleb128 0x3a
 1543 00a2 0B       		.uleb128 0xb
 1544 00a3 3B       		.uleb128 0x3b
 1545 00a4 0B       		.uleb128 0xb
 1546 00a5 49       		.uleb128 0x49
 1547 00a6 13       		.uleb128 0x13
 1548 00a7 02       		.uleb128 0x2
 1549 00a8 06       		.uleb128 0x6
 1550 00a9 00       		.byte	0
 1551 00aa 00       		.byte	0
 1552 00ab 0E       		.uleb128 0xe
 1553 00ac 05       		.uleb128 0x5
 1554 00ad 00       		.byte	0
 1555 00ae 03       		.uleb128 0x3
 1556 00af 0E       		.uleb128 0xe
 1557 00b0 3A       		.uleb128 0x3a
 1558 00b1 0B       		.uleb128 0xb
 1559 00b2 3B       		.uleb128 0x3b
 1560 00b3 0B       		.uleb128 0xb
 1561 00b4 49       		.uleb128 0x49
 1562 00b5 13       		.uleb128 0x13
 1563 00b6 02       		.uleb128 0x2
 1564 00b7 06       		.uleb128 0x6
 1565 00b8 00       		.byte	0
 1566 00b9 00       		.byte	0
 1567 00ba 0F       		.uleb128 0xf
 1568 00bb 2E       		.uleb128 0x2e
 1569 00bc 01       		.byte	0x1
 1570 00bd 3F       		.uleb128 0x3f
 1571 00be 0C       		.uleb128 0xc
 1572 00bf 03       		.uleb128 0x3
 1573 00c0 0E       		.uleb128 0xe
 1574 00c1 3A       		.uleb128 0x3a
 1575 00c2 0B       		.uleb128 0xb
 1576 00c3 3B       		.uleb128 0x3b
 1577 00c4 0B       		.uleb128 0xb
 1578 00c5 27       		.uleb128 0x27
ARM GAS  /tmp/ccAXZcSG.s 			page 29


 1579 00c6 0C       		.uleb128 0xc
 1580 00c7 20       		.uleb128 0x20
 1581 00c8 0B       		.uleb128 0xb
 1582 00c9 01       		.uleb128 0x1
 1583 00ca 13       		.uleb128 0x13
 1584 00cb 00       		.byte	0
 1585 00cc 00       		.byte	0
 1586 00cd 10       		.uleb128 0x10
 1587 00ce 05       		.uleb128 0x5
 1588 00cf 00       		.byte	0
 1589 00d0 03       		.uleb128 0x3
 1590 00d1 08       		.uleb128 0x8
 1591 00d2 3A       		.uleb128 0x3a
 1592 00d3 0B       		.uleb128 0xb
 1593 00d4 3B       		.uleb128 0x3b
 1594 00d5 0B       		.uleb128 0xb
 1595 00d6 49       		.uleb128 0x49
 1596 00d7 13       		.uleb128 0x13
 1597 00d8 00       		.byte	0
 1598 00d9 00       		.byte	0
 1599 00da 11       		.uleb128 0x11
 1600 00db 05       		.uleb128 0x5
 1601 00dc 00       		.byte	0
 1602 00dd 03       		.uleb128 0x3
 1603 00de 0E       		.uleb128 0xe
 1604 00df 3A       		.uleb128 0x3a
 1605 00e0 0B       		.uleb128 0xb
 1606 00e1 3B       		.uleb128 0x3b
 1607 00e2 0B       		.uleb128 0xb
 1608 00e3 49       		.uleb128 0x49
 1609 00e4 13       		.uleb128 0x13
 1610 00e5 00       		.byte	0
 1611 00e6 00       		.byte	0
 1612 00e7 12       		.uleb128 0x12
 1613 00e8 0B       		.uleb128 0xb
 1614 00e9 01       		.byte	0x1
 1615 00ea 01       		.uleb128 0x1
 1616 00eb 13       		.uleb128 0x13
 1617 00ec 00       		.byte	0
 1618 00ed 00       		.byte	0
 1619 00ee 13       		.uleb128 0x13
 1620 00ef 34       		.uleb128 0x34
 1621 00f0 00       		.byte	0
 1622 00f1 03       		.uleb128 0x3
 1623 00f2 08       		.uleb128 0x8
 1624 00f3 3A       		.uleb128 0x3a
 1625 00f4 0B       		.uleb128 0xb
 1626 00f5 3B       		.uleb128 0x3b
 1627 00f6 0B       		.uleb128 0xb
 1628 00f7 49       		.uleb128 0x49
 1629 00f8 13       		.uleb128 0x13
 1630 00f9 00       		.byte	0
 1631 00fa 00       		.byte	0
 1632 00fb 14       		.uleb128 0x14
 1633 00fc 0B       		.uleb128 0xb
 1634 00fd 01       		.byte	0x1
 1635 00fe 00       		.byte	0
ARM GAS  /tmp/ccAXZcSG.s 			page 30


 1636 00ff 00       		.byte	0
 1637 0100 15       		.uleb128 0x15
 1638 0101 1D       		.uleb128 0x1d
 1639 0102 01       		.byte	0x1
 1640 0103 31       		.uleb128 0x31
 1641 0104 13       		.uleb128 0x13
 1642 0105 52       		.uleb128 0x52
 1643 0106 01       		.uleb128 0x1
 1644 0107 55       		.uleb128 0x55
 1645 0108 06       		.uleb128 0x6
 1646 0109 58       		.uleb128 0x58
 1647 010a 0B       		.uleb128 0xb
 1648 010b 59       		.uleb128 0x59
 1649 010c 0B       		.uleb128 0xb
 1650 010d 00       		.byte	0
 1651 010e 00       		.byte	0
 1652 010f 16       		.uleb128 0x16
 1653 0110 05       		.uleb128 0x5
 1654 0111 00       		.byte	0
 1655 0112 31       		.uleb128 0x31
 1656 0113 13       		.uleb128 0x13
 1657 0114 02       		.uleb128 0x2
 1658 0115 06       		.uleb128 0x6
 1659 0116 00       		.byte	0
 1660 0117 00       		.byte	0
 1661 0118 17       		.uleb128 0x17
 1662 0119 05       		.uleb128 0x5
 1663 011a 00       		.byte	0
 1664 011b 31       		.uleb128 0x31
 1665 011c 13       		.uleb128 0x13
 1666 011d 1C       		.uleb128 0x1c
 1667 011e 0B       		.uleb128 0xb
 1668 011f 00       		.byte	0
 1669 0120 00       		.byte	0
 1670 0121 18       		.uleb128 0x18
 1671 0122 0B       		.uleb128 0xb
 1672 0123 01       		.byte	0x1
 1673 0124 55       		.uleb128 0x55
 1674 0125 06       		.uleb128 0x6
 1675 0126 01       		.uleb128 0x1
 1676 0127 13       		.uleb128 0x13
 1677 0128 00       		.byte	0
 1678 0129 00       		.byte	0
 1679 012a 19       		.uleb128 0x19
 1680 012b 34       		.uleb128 0x34
 1681 012c 00       		.byte	0
 1682 012d 31       		.uleb128 0x31
 1683 012e 13       		.uleb128 0x13
 1684 012f 02       		.uleb128 0x2
 1685 0130 06       		.uleb128 0x6
 1686 0131 00       		.byte	0
 1687 0132 00       		.byte	0
 1688 0133 1A       		.uleb128 0x1a
 1689 0134 1D       		.uleb128 0x1d
 1690 0135 01       		.byte	0x1
 1691 0136 31       		.uleb128 0x31
 1692 0137 13       		.uleb128 0x13
ARM GAS  /tmp/ccAXZcSG.s 			page 31


 1693 0138 52       		.uleb128 0x52
 1694 0139 01       		.uleb128 0x1
 1695 013a 55       		.uleb128 0x55
 1696 013b 06       		.uleb128 0x6
 1697 013c 58       		.uleb128 0x58
 1698 013d 0B       		.uleb128 0xb
 1699 013e 59       		.uleb128 0x59
 1700 013f 0B       		.uleb128 0xb
 1701 0140 01       		.uleb128 0x1
 1702 0141 13       		.uleb128 0x13
 1703 0142 00       		.byte	0
 1704 0143 00       		.byte	0
 1705 0144 1B       		.uleb128 0x1b
 1706 0145 0B       		.uleb128 0xb
 1707 0146 01       		.byte	0x1
 1708 0147 55       		.uleb128 0x55
 1709 0148 06       		.uleb128 0x6
 1710 0149 00       		.byte	0
 1711 014a 00       		.byte	0
 1712 014b 1C       		.uleb128 0x1c
 1713 014c 2E       		.uleb128 0x2e
 1714 014d 01       		.byte	0x1
 1715 014e 3F       		.uleb128 0x3f
 1716 014f 0C       		.uleb128 0xc
 1717 0150 03       		.uleb128 0x3
 1718 0151 0E       		.uleb128 0xe
 1719 0152 3A       		.uleb128 0x3a
 1720 0153 0B       		.uleb128 0xb
 1721 0154 3B       		.uleb128 0x3b
 1722 0155 0B       		.uleb128 0xb
 1723 0156 27       		.uleb128 0x27
 1724 0157 0C       		.uleb128 0xc
 1725 0158 49       		.uleb128 0x49
 1726 0159 13       		.uleb128 0x13
 1727 015a 20       		.uleb128 0x20
 1728 015b 0B       		.uleb128 0xb
 1729 015c 01       		.uleb128 0x1
 1730 015d 13       		.uleb128 0x13
 1731 015e 00       		.byte	0
 1732 015f 00       		.byte	0
 1733 0160 1D       		.uleb128 0x1d
 1734 0161 34       		.uleb128 0x34
 1735 0162 00       		.byte	0
 1736 0163 03       		.uleb128 0x3
 1737 0164 0E       		.uleb128 0xe
 1738 0165 3A       		.uleb128 0x3a
 1739 0166 0B       		.uleb128 0xb
 1740 0167 3B       		.uleb128 0x3b
 1741 0168 0B       		.uleb128 0xb
 1742 0169 49       		.uleb128 0x49
 1743 016a 13       		.uleb128 0x13
 1744 016b 00       		.byte	0
 1745 016c 00       		.byte	0
 1746 016d 1E       		.uleb128 0x1e
 1747 016e 2E       		.uleb128 0x2e
 1748 016f 01       		.byte	0x1
 1749 0170 31       		.uleb128 0x31
ARM GAS  /tmp/ccAXZcSG.s 			page 32


 1750 0171 13       		.uleb128 0x13
 1751 0172 11       		.uleb128 0x11
 1752 0173 01       		.uleb128 0x1
 1753 0174 12       		.uleb128 0x12
 1754 0175 01       		.uleb128 0x1
 1755 0176 40       		.uleb128 0x40
 1756 0177 06       		.uleb128 0x6
 1757 0178 01       		.uleb128 0x1
 1758 0179 13       		.uleb128 0x13
 1759 017a 00       		.byte	0
 1760 017b 00       		.byte	0
 1761 017c 1F       		.uleb128 0x1f
 1762 017d 2E       		.uleb128 0x2e
 1763 017e 01       		.byte	0x1
 1764 017f 3F       		.uleb128 0x3f
 1765 0180 0C       		.uleb128 0xc
 1766 0181 03       		.uleb128 0x3
 1767 0182 0E       		.uleb128 0xe
 1768 0183 3A       		.uleb128 0x3a
 1769 0184 0B       		.uleb128 0xb
 1770 0185 3B       		.uleb128 0x3b
 1771 0186 0B       		.uleb128 0xb
 1772 0187 27       		.uleb128 0x27
 1773 0188 0C       		.uleb128 0xc
 1774 0189 49       		.uleb128 0x49
 1775 018a 13       		.uleb128 0x13
 1776 018b 11       		.uleb128 0x11
 1777 018c 01       		.uleb128 0x1
 1778 018d 12       		.uleb128 0x12
 1779 018e 01       		.uleb128 0x1
 1780 018f 40       		.uleb128 0x40
 1781 0190 06       		.uleb128 0x6
 1782 0191 01       		.uleb128 0x1
 1783 0192 13       		.uleb128 0x13
 1784 0193 00       		.byte	0
 1785 0194 00       		.byte	0
 1786 0195 20       		.uleb128 0x20
 1787 0196 34       		.uleb128 0x34
 1788 0197 00       		.byte	0
 1789 0198 03       		.uleb128 0x3
 1790 0199 0E       		.uleb128 0xe
 1791 019a 3A       		.uleb128 0x3a
 1792 019b 0B       		.uleb128 0xb
 1793 019c 3B       		.uleb128 0x3b
 1794 019d 0B       		.uleb128 0xb
 1795 019e 49       		.uleb128 0x49
 1796 019f 13       		.uleb128 0x13
 1797 01a0 02       		.uleb128 0x2
 1798 01a1 0A       		.uleb128 0xa
 1799 01a2 00       		.byte	0
 1800 01a3 00       		.byte	0
 1801 01a4 21       		.uleb128 0x21
 1802 01a5 0B       		.uleb128 0xb
 1803 01a6 01       		.byte	0x1
 1804 01a7 11       		.uleb128 0x11
 1805 01a8 01       		.uleb128 0x1
 1806 01a9 12       		.uleb128 0x12
ARM GAS  /tmp/ccAXZcSG.s 			page 33


 1807 01aa 01       		.uleb128 0x1
 1808 01ab 01       		.uleb128 0x1
 1809 01ac 13       		.uleb128 0x13
 1810 01ad 00       		.byte	0
 1811 01ae 00       		.byte	0
 1812 01af 22       		.uleb128 0x22
 1813 01b0 34       		.uleb128 0x34
 1814 01b1 00       		.byte	0
 1815 01b2 03       		.uleb128 0x3
 1816 01b3 08       		.uleb128 0x8
 1817 01b4 3A       		.uleb128 0x3a
 1818 01b5 0B       		.uleb128 0xb
 1819 01b6 3B       		.uleb128 0x3b
 1820 01b7 0B       		.uleb128 0xb
 1821 01b8 49       		.uleb128 0x49
 1822 01b9 13       		.uleb128 0x13
 1823 01ba 02       		.uleb128 0x2
 1824 01bb 06       		.uleb128 0x6
 1825 01bc 00       		.byte	0
 1826 01bd 00       		.byte	0
 1827 01be 23       		.uleb128 0x23
 1828 01bf 05       		.uleb128 0x5
 1829 01c0 00       		.byte	0
 1830 01c1 31       		.uleb128 0x31
 1831 01c2 13       		.uleb128 0x13
 1832 01c3 02       		.uleb128 0x2
 1833 01c4 0A       		.uleb128 0xa
 1834 01c5 00       		.byte	0
 1835 01c6 00       		.byte	0
 1836 01c7 24       		.uleb128 0x24
 1837 01c8 2E       		.uleb128 0x2e
 1838 01c9 01       		.byte	0x1
 1839 01ca 31       		.uleb128 0x31
 1840 01cb 13       		.uleb128 0x13
 1841 01cc 11       		.uleb128 0x11
 1842 01cd 01       		.uleb128 0x1
 1843 01ce 12       		.uleb128 0x12
 1844 01cf 01       		.uleb128 0x1
 1845 01d0 40       		.uleb128 0x40
 1846 01d1 06       		.uleb128 0x6
 1847 01d2 00       		.byte	0
 1848 01d3 00       		.byte	0
 1849 01d4 25       		.uleb128 0x25
 1850 01d5 34       		.uleb128 0x34
 1851 01d6 00       		.byte	0
 1852 01d7 31       		.uleb128 0x31
 1853 01d8 13       		.uleb128 0x13
 1854 01d9 02       		.uleb128 0x2
 1855 01da 0A       		.uleb128 0xa
 1856 01db 00       		.byte	0
 1857 01dc 00       		.byte	0
 1858 01dd 26       		.uleb128 0x26
 1859 01de 0B       		.uleb128 0xb
 1860 01df 01       		.byte	0x1
 1861 01e0 11       		.uleb128 0x11
 1862 01e1 01       		.uleb128 0x1
 1863 01e2 12       		.uleb128 0x12
ARM GAS  /tmp/ccAXZcSG.s 			page 34


 1864 01e3 01       		.uleb128 0x1
 1865 01e4 00       		.byte	0
 1866 01e5 00       		.byte	0
 1867 01e6 00       		.byte	0
 1868              		.section	.debug_loc,"",%progbits
 1869              	.Ldebug_loc0:
 1870              	.LLST0:
 1871 0000 00000000 		.4byte	.LFB7
 1872 0004 02000000 		.4byte	.LCFI0
 1873 0008 0200     		.2byte	0x2
 1874 000a 7D       		.byte	0x7d
 1875 000b 00       		.sleb128 0
 1876 000c 02000000 		.4byte	.LCFI0
 1877 0010 20000000 		.4byte	.LFE7
 1878 0014 0200     		.2byte	0x2
 1879 0016 7D       		.byte	0x7d
 1880 0017 10       		.sleb128 16
 1881 0018 00000000 		.4byte	0
 1882 001c 00000000 		.4byte	0
 1883              	.LLST1:
 1884 0020 00000000 		.4byte	.LVL0
 1885 0024 10000000 		.4byte	.LVL1
 1886 0028 0100     		.2byte	0x1
 1887 002a 50       		.byte	0x50
 1888 002b 10000000 		.4byte	.LVL1
 1889 002f 20000000 		.4byte	.LFE7
 1890 0033 0100     		.2byte	0x1
 1891 0035 54       		.byte	0x54
 1892 0036 00000000 		.4byte	0
 1893 003a 00000000 		.4byte	0
 1894              	.LLST2:
 1895 003e 00000000 		.4byte	.LVL0
 1896 0042 13000000 		.4byte	.LVL2-1
 1897 0046 0100     		.2byte	0x1
 1898 0048 51       		.byte	0x51
 1899 0049 13000000 		.4byte	.LVL2-1
 1900 004d 20000000 		.4byte	.LFE7
 1901 0051 0100     		.2byte	0x1
 1902 0053 55       		.byte	0x55
 1903 0054 00000000 		.4byte	0
 1904 0058 00000000 		.4byte	0
 1905              	.LLST3:
 1906 005c 00000000 		.4byte	.LVL0
 1907 0060 13000000 		.4byte	.LVL2-1
 1908 0064 0100     		.2byte	0x1
 1909 0066 52       		.byte	0x52
 1910 0067 13000000 		.4byte	.LVL2-1
 1911 006b 20000000 		.4byte	.LFE7
 1912 006f 0100     		.2byte	0x1
 1913 0071 56       		.byte	0x56
 1914 0072 00000000 		.4byte	0
 1915 0076 00000000 		.4byte	0
 1916              	.LLST4:
 1917 007a 00000000 		.4byte	.LFB8
 1918 007e 04000000 		.4byte	.LCFI1
 1919 0082 0200     		.2byte	0x2
 1920 0084 7D       		.byte	0x7d
ARM GAS  /tmp/ccAXZcSG.s 			page 35


 1921 0085 00       		.sleb128 0
 1922 0086 04000000 		.4byte	.LCFI1
 1923 008a D4010000 		.4byte	.LFE8
 1924 008e 0200     		.2byte	0x2
 1925 0090 7D       		.byte	0x7d
 1926 0091 18       		.sleb128 24
 1927 0092 00000000 		.4byte	0
 1928 0096 00000000 		.4byte	0
 1929              	.LLST5:
 1930 009a 00000000 		.4byte	.LVL3
 1931 009e 21000000 		.4byte	.LVL7-1
 1932 00a2 0100     		.2byte	0x1
 1933 00a4 50       		.byte	0x50
 1934 00a5 21000000 		.4byte	.LVL7-1
 1935 00a9 D4010000 		.4byte	.LFE8
 1936 00ad 0100     		.2byte	0x1
 1937 00af 54       		.byte	0x54
 1938 00b0 00000000 		.4byte	0
 1939 00b4 00000000 		.4byte	0
 1940              	.LLST6:
 1941 00b8 00000000 		.4byte	.LVL3
 1942 00bc 21000000 		.4byte	.LVL7-1
 1943 00c0 0100     		.2byte	0x1
 1944 00c2 51       		.byte	0x51
 1945 00c3 21000000 		.4byte	.LVL7-1
 1946 00c7 40000000 		.4byte	.LVL11
 1947 00cb 0100     		.2byte	0x1
 1948 00cd 55       		.byte	0x55
 1949 00ce D6000000 		.4byte	.LVL26
 1950 00d2 DF000000 		.4byte	.LVL27-1
 1951 00d6 0100     		.2byte	0x1
 1952 00d8 51       		.byte	0x51
 1953 00d9 DF000000 		.4byte	.LVL27-1
 1954 00dd E0000000 		.4byte	.LVL27
 1955 00e1 0100     		.2byte	0x1
 1956 00e3 55       		.byte	0x55
 1957 00e4 E4000000 		.4byte	.LVL28
 1958 00e8 EC000000 		.4byte	.LVL29
 1959 00ec 0100     		.2byte	0x1
 1960 00ee 55       		.byte	0x55
 1961 00ef F8000000 		.4byte	.LVL31
 1962 00f3 FD000000 		.4byte	.LVL32-1
 1963 00f7 0100     		.2byte	0x1
 1964 00f9 51       		.byte	0x51
 1965 00fa FD000000 		.4byte	.LVL32-1
 1966 00fe 30010000 		.4byte	.LVL38
 1967 0102 0100     		.2byte	0x1
 1968 0104 55       		.byte	0x55
 1969 0105 00000000 		.4byte	0
 1970 0109 00000000 		.4byte	0
 1971              	.LLST7:
 1972 010d 00000000 		.4byte	.LVL3
 1973 0111 21000000 		.4byte	.LVL7-1
 1974 0115 0100     		.2byte	0x1
 1975 0117 52       		.byte	0x52
 1976 0118 21000000 		.4byte	.LVL7-1
 1977 011c 3E000000 		.4byte	.LVL10
ARM GAS  /tmp/ccAXZcSG.s 			page 36


 1978 0120 0100     		.2byte	0x1
 1979 0122 56       		.byte	0x56
 1980 0123 3E000000 		.4byte	.LVL10
 1981 0127 40000000 		.4byte	.LVL11
 1982 012b 0300     		.2byte	0x3
 1983 012d 76       		.byte	0x76
 1984 012e 01       		.sleb128 1
 1985 012f 9F       		.byte	0x9f
 1986 0130 D6000000 		.4byte	.LVL26
 1987 0134 DF000000 		.4byte	.LVL27-1
 1988 0138 0100     		.2byte	0x1
 1989 013a 52       		.byte	0x52
 1990 013b DF000000 		.4byte	.LVL27-1
 1991 013f E0000000 		.4byte	.LVL27
 1992 0143 0100     		.2byte	0x1
 1993 0145 56       		.byte	0x56
 1994 0146 E4000000 		.4byte	.LVL28
 1995 014a EC000000 		.4byte	.LVL29
 1996 014e 0100     		.2byte	0x1
 1997 0150 56       		.byte	0x56
 1998 0151 F8000000 		.4byte	.LVL31
 1999 0155 FD000000 		.4byte	.LVL32-1
 2000 0159 0100     		.2byte	0x1
 2001 015b 52       		.byte	0x52
 2002 015c FD000000 		.4byte	.LVL32-1
 2003 0160 04010000 		.4byte	.LVL33
 2004 0164 0100     		.2byte	0x1
 2005 0166 56       		.byte	0x56
 2006 0167 04010000 		.4byte	.LVL33
 2007 016b 5E010000 		.4byte	.LVL43
 2008 016f 0300     		.2byte	0x3
 2009 0171 76       		.byte	0x76
 2010 0172 01       		.sleb128 1
 2011 0173 9F       		.byte	0x9f
 2012 0174 5E010000 		.4byte	.LVL43
 2013 0178 60010000 		.4byte	.LVL44
 2014 017c 0300     		.2byte	0x3
 2015 017e 76       		.byte	0x76
 2016 017f 02       		.sleb128 2
 2017 0180 9F       		.byte	0x9f
 2018 0181 C6010000 		.4byte	.LVL53
 2019 0185 D4010000 		.4byte	.LFE8
 2020 0189 0300     		.2byte	0x3
 2021 018b 76       		.byte	0x76
 2022 018c 01       		.sleb128 1
 2023 018d 9F       		.byte	0x9f
 2024 018e 00000000 		.4byte	0
 2025 0192 00000000 		.4byte	0
 2026              	.LLST8:
 2027 0196 18000000 		.4byte	.LVL4
 2028 019a 21000000 		.4byte	.LVL7-1
 2029 019e 0100     		.2byte	0x1
 2030 01a0 51       		.byte	0x51
 2031 01a1 21000000 		.4byte	.LVL7-1
 2032 01a5 40000000 		.4byte	.LVL11
 2033 01a9 0100     		.2byte	0x1
 2034 01ab 55       		.byte	0x55
ARM GAS  /tmp/ccAXZcSG.s 			page 37


 2035 01ac E4000000 		.4byte	.LVL28
 2036 01b0 EC000000 		.4byte	.LVL29
 2037 01b4 0100     		.2byte	0x1
 2038 01b6 55       		.byte	0x55
 2039 01b7 08010000 		.4byte	.LVL34
 2040 01bb 30010000 		.4byte	.LVL38
 2041 01bf 0100     		.2byte	0x1
 2042 01c1 55       		.byte	0x55
 2043 01c2 00000000 		.4byte	0
 2044 01c6 00000000 		.4byte	0
 2045              	.LLST9:
 2046 01ca 1E000000 		.4byte	.LVL6
 2047 01ce 21000000 		.4byte	.LVL7-1
 2048 01d2 0100     		.2byte	0x1
 2049 01d4 53       		.byte	0x53
 2050 01d5 4C000000 		.4byte	.LVL13
 2051 01d9 4F000000 		.4byte	.LVL14-1
 2052 01dd 0100     		.2byte	0x1
 2053 01df 53       		.byte	0x53
 2054 01e0 8E000000 		.4byte	.LVL19
 2055 01e4 91000000 		.4byte	.LVL20-1
 2056 01e8 0100     		.2byte	0x1
 2057 01ea 53       		.byte	0x53
 2058 01eb B6000000 		.4byte	.LVL23
 2059 01ef B9000000 		.4byte	.LVL24-1
 2060 01f3 0100     		.2byte	0x1
 2061 01f5 53       		.byte	0x53
 2062 01f6 0E010000 		.4byte	.LVL35
 2063 01fa 11010000 		.4byte	.LVL36-1
 2064 01fe 0100     		.2byte	0x1
 2065 0200 53       		.byte	0x53
 2066 0201 3C010000 		.4byte	.LVL40
 2067 0205 3F010000 		.4byte	.LVL41-1
 2068 0209 0100     		.2byte	0x1
 2069 020b 53       		.byte	0x53
 2070 020c 68010000 		.4byte	.LVL46
 2071 0210 6B010000 		.4byte	.LVL47-1
 2072 0214 0100     		.2byte	0x1
 2073 0216 53       		.byte	0x53
 2074 0217 96010000 		.4byte	.LVL50
 2075 021b 99010000 		.4byte	.LVL51-1
 2076 021f 0100     		.2byte	0x1
 2077 0221 53       		.byte	0x53
 2078 0222 00000000 		.4byte	0
 2079 0226 00000000 		.4byte	0
 2080              	.LLST10:
 2081 022a 22000000 		.4byte	.LVL7
 2082 022e 40000000 		.4byte	.LVL11
 2083 0232 0100     		.2byte	0x1
 2084 0234 55       		.byte	0x55
 2085 0235 E4000000 		.4byte	.LVL28
 2086 0239 EC000000 		.4byte	.LVL29
 2087 023d 0100     		.2byte	0x1
 2088 023f 55       		.byte	0x55
 2089 0240 12010000 		.4byte	.LVL36
 2090 0244 30010000 		.4byte	.LVL38
 2091 0248 0100     		.2byte	0x1
ARM GAS  /tmp/ccAXZcSG.s 			page 38


 2092 024a 55       		.byte	0x55
 2093 024b 00000000 		.4byte	0
 2094 024f 00000000 		.4byte	0
 2095              	.LLST12:
 2096 0253 3A000000 		.4byte	.LVL9
 2097 0257 48000000 		.4byte	.LVL12
 2098 025b 0100     		.2byte	0x1
 2099 025d 53       		.byte	0x53
 2100 025e 68000000 		.4byte	.LVL15
 2101 0262 72000000 		.4byte	.LVL16
 2102 0266 0100     		.2byte	0x1
 2103 0268 53       		.byte	0x53
 2104 0269 82000000 		.4byte	.LVL17
 2105 026d 84000000 		.4byte	.LVL18
 2106 0271 0100     		.2byte	0x1
 2107 0273 53       		.byte	0x53
 2108 0274 A8000000 		.4byte	.LVL21
 2109 0278 B2000000 		.4byte	.LVL22
 2110 027c 0100     		.2byte	0x1
 2111 027e 53       		.byte	0x53
 2112 027f D2000000 		.4byte	.LVL25
 2113 0283 D6000000 		.4byte	.LVL26
 2114 0287 0100     		.2byte	0x1
 2115 0289 53       		.byte	0x53
 2116 028a E0000000 		.4byte	.LVL27
 2117 028e E4000000 		.4byte	.LVL28
 2118 0292 0100     		.2byte	0x1
 2119 0294 53       		.byte	0x53
 2120 0295 F4000000 		.4byte	.LVL30
 2121 0299 F8000000 		.4byte	.LVL31
 2122 029d 0100     		.2byte	0x1
 2123 029f 53       		.byte	0x53
 2124 02a0 2C010000 		.4byte	.LVL37
 2125 02a4 38010000 		.4byte	.LVL39
 2126 02a8 0100     		.2byte	0x1
 2127 02aa 53       		.byte	0x53
 2128 02ab 5A010000 		.4byte	.LVL42
 2129 02af 64010000 		.4byte	.LVL45
 2130 02b3 0100     		.2byte	0x1
 2131 02b5 53       		.byte	0x53
 2132 02b6 86010000 		.4byte	.LVL48
 2133 02ba 92010000 		.4byte	.LVL49
 2134 02be 0100     		.2byte	0x1
 2135 02c0 53       		.byte	0x53
 2136 02c1 B6010000 		.4byte	.LVL52
 2137 02c5 D4010000 		.4byte	.LFE8
 2138 02c9 0100     		.2byte	0x1
 2139 02cb 53       		.byte	0x53
 2140 02cc 00000000 		.4byte	0
 2141 02d0 00000000 		.4byte	0
 2142              	.LLST13:
 2143 02d4 00000000 		.4byte	.LFB9
 2144 02d8 02000000 		.4byte	.LCFI2
 2145 02dc 0200     		.2byte	0x2
 2146 02de 7D       		.byte	0x7d
 2147 02df 00       		.sleb128 0
 2148 02e0 02000000 		.4byte	.LCFI2
ARM GAS  /tmp/ccAXZcSG.s 			page 39


 2149 02e4 2C000000 		.4byte	.LFE9
 2150 02e8 0200     		.2byte	0x2
 2151 02ea 7D       		.byte	0x7d
 2152 02eb 08       		.sleb128 8
 2153 02ec 00000000 		.4byte	0
 2154 02f0 00000000 		.4byte	0
 2155              	.LLST14:
 2156 02f4 00000000 		.4byte	.LVL54
 2157 02f8 07000000 		.4byte	.LVL55-1
 2158 02fc 0100     		.2byte	0x1
 2159 02fe 50       		.byte	0x50
 2160 02ff 07000000 		.4byte	.LVL55-1
 2161 0303 2C000000 		.4byte	.LFE9
 2162 0307 0100     		.2byte	0x1
 2163 0309 54       		.byte	0x54
 2164 030a 00000000 		.4byte	0
 2165 030e 00000000 		.4byte	0
 2166              	.LLST15:
 2167 0312 0C000000 		.4byte	.LVL56
 2168 0316 1B000000 		.4byte	.LVL57-1
 2169 031a 0200     		.2byte	0x2
 2170 031c 74       		.byte	0x74
 2171 031d 00       		.sleb128 0
 2172 031e 1C000000 		.4byte	.LVL57
 2173 0322 1E000000 		.4byte	.LVL58
 2174 0326 0100     		.2byte	0x1
 2175 0328 50       		.byte	0x50
 2176 0329 00000000 		.4byte	0
 2177 032d 00000000 		.4byte	0
 2178              	.LLST16:
 2179 0331 00000000 		.4byte	.LFB10
 2180 0335 02000000 		.4byte	.LCFI3
 2181 0339 0200     		.2byte	0x2
 2182 033b 7D       		.byte	0x7d
 2183 033c 00       		.sleb128 0
 2184 033d 02000000 		.4byte	.LCFI3
 2185 0341 50000000 		.4byte	.LFE10
 2186 0345 0200     		.2byte	0x2
 2187 0347 7D       		.byte	0x7d
 2188 0348 10       		.sleb128 16
 2189 0349 00000000 		.4byte	0
 2190 034d 00000000 		.4byte	0
 2191              	.LLST17:
 2192 0351 00000000 		.4byte	.LVL59
 2193 0355 0D000000 		.4byte	.LVL62-1
 2194 0359 0100     		.2byte	0x1
 2195 035b 50       		.byte	0x50
 2196 035c 0D000000 		.4byte	.LVL62-1
 2197 0360 50000000 		.4byte	.LFE10
 2198 0364 0100     		.2byte	0x1
 2199 0366 54       		.byte	0x54
 2200 0367 00000000 		.4byte	0
 2201 036b 00000000 		.4byte	0
 2202              	.LLST18:
 2203 036f 0A000000 		.4byte	.LVL61
 2204 0373 0D000000 		.4byte	.LVL62-1
 2205 0377 0100     		.2byte	0x1
ARM GAS  /tmp/ccAXZcSG.s 			page 40


 2206 0379 53       		.byte	0x53
 2207 037a 00000000 		.4byte	0
 2208 037e 00000000 		.4byte	0
 2209              	.LLST19:
 2210 0382 16000000 		.4byte	.LVL63
 2211 0386 1F000000 		.4byte	.LVL64-1
 2212 038a 0200     		.2byte	0x2
 2213 038c 74       		.byte	0x74
 2214 038d 00       		.sleb128 0
 2215 038e 1F000000 		.4byte	.LVL64-1
 2216 0392 36000000 		.4byte	.LVL68
 2217 0396 0100     		.2byte	0x1
 2218 0398 55       		.byte	0x55
 2219 0399 36000000 		.4byte	.LVL68
 2220 039d 39000000 		.4byte	.LVL69-1
 2221 03a1 0100     		.2byte	0x1
 2222 03a3 50       		.byte	0x50
 2223 03a4 39000000 		.4byte	.LVL69-1
 2224 03a8 44000000 		.4byte	.LVL71
 2225 03ac 0100     		.2byte	0x1
 2226 03ae 55       		.byte	0x55
 2227 03af 00000000 		.4byte	0
 2228 03b3 00000000 		.4byte	0
 2229              	.LLST20:
 2230 03b7 26000000 		.4byte	.LVL66
 2231 03bb 2A000000 		.4byte	.LVL67
 2232 03bf 0100     		.2byte	0x1
 2233 03c1 53       		.byte	0x53
 2234 03c2 40000000 		.4byte	.LVL70
 2235 03c6 44000000 		.4byte	.LVL71
 2236 03ca 0100     		.2byte	0x1
 2237 03cc 53       		.byte	0x53
 2238 03cd 00000000 		.4byte	0
 2239 03d1 00000000 		.4byte	0
 2240              	.LLST21:
 2241 03d5 00000000 		.4byte	.LFB11
 2242 03d9 02000000 		.4byte	.LCFI4
 2243 03dd 0200     		.2byte	0x2
 2244 03df 7D       		.byte	0x7d
 2245 03e0 00       		.sleb128 0
 2246 03e1 02000000 		.4byte	.LCFI4
 2247 03e5 28000000 		.4byte	.LFE11
 2248 03e9 0200     		.2byte	0x2
 2249 03eb 7D       		.byte	0x7d
 2250 03ec 10       		.sleb128 16
 2251 03ed 00000000 		.4byte	0
 2252 03f1 00000000 		.4byte	0
 2253              	.LLST22:
 2254 03f5 00000000 		.4byte	.LVL72
 2255 03f9 09000000 		.4byte	.LVL74-1
 2256 03fd 0100     		.2byte	0x1
 2257 03ff 50       		.byte	0x50
 2258 0400 09000000 		.4byte	.LVL74-1
 2259 0404 28000000 		.4byte	.LFE11
 2260 0408 0100     		.2byte	0x1
 2261 040a 54       		.byte	0x54
 2262 040b 00000000 		.4byte	0
ARM GAS  /tmp/ccAXZcSG.s 			page 41


 2263 040f 00000000 		.4byte	0
 2264              	.LLST23:
 2265 0413 00000000 		.4byte	.LVL72
 2266 0417 09000000 		.4byte	.LVL74-1
 2267 041b 0100     		.2byte	0x1
 2268 041d 51       		.byte	0x51
 2269 041e 09000000 		.4byte	.LVL74-1
 2270 0422 28000000 		.4byte	.LFE11
 2271 0426 0100     		.2byte	0x1
 2272 0428 55       		.byte	0x55
 2273 0429 00000000 		.4byte	0
 2274 042d 00000000 		.4byte	0
 2275              	.LLST24:
 2276 0431 06000000 		.4byte	.LVL73
 2277 0435 09000000 		.4byte	.LVL74-1
 2278 0439 0100     		.2byte	0x1
 2279 043b 51       		.byte	0x51
 2280 043c 09000000 		.4byte	.LVL74-1
 2281 0440 28000000 		.4byte	.LFE11
 2282 0444 0100     		.2byte	0x1
 2283 0446 55       		.byte	0x55
 2284 0447 00000000 		.4byte	0
 2285 044b 00000000 		.4byte	0
 2286              	.LLST25:
 2287 044f 00000000 		.4byte	.LFB12
 2288 0453 02000000 		.4byte	.LCFI5
 2289 0457 0200     		.2byte	0x2
 2290 0459 7D       		.byte	0x7d
 2291 045a 00       		.sleb128 0
 2292 045b 02000000 		.4byte	.LCFI5
 2293 045f 38000000 		.4byte	.LFE12
 2294 0463 0200     		.2byte	0x2
 2295 0465 7D       		.byte	0x7d
 2296 0466 10       		.sleb128 16
 2297 0467 00000000 		.4byte	0
 2298 046b 00000000 		.4byte	0
 2299              	.LLST26:
 2300 046f 00000000 		.4byte	.LVL75
 2301 0473 0F000000 		.4byte	.LVL78-1
 2302 0477 0100     		.2byte	0x1
 2303 0479 50       		.byte	0x50
 2304 047a 0F000000 		.4byte	.LVL78-1
 2305 047e 38000000 		.4byte	.LFE12
 2306 0482 0100     		.2byte	0x1
 2307 0484 54       		.byte	0x54
 2308 0485 00000000 		.4byte	0
 2309 0489 00000000 		.4byte	0
 2310              	.LLST27:
 2311 048d 00000000 		.4byte	.LVL75
 2312 0491 0F000000 		.4byte	.LVL78-1
 2313 0495 0100     		.2byte	0x1
 2314 0497 51       		.byte	0x51
 2315 0498 0F000000 		.4byte	.LVL78-1
 2316 049c 38000000 		.4byte	.LFE12
 2317 04a0 0100     		.2byte	0x1
 2318 04a2 55       		.byte	0x55
 2319 04a3 00000000 		.4byte	0
ARM GAS  /tmp/ccAXZcSG.s 			page 42


 2320 04a7 00000000 		.4byte	0
 2321              	.LLST28:
 2322 04ab 0C000000 		.4byte	.LVL77
 2323 04af 0F000000 		.4byte	.LVL78-1
 2324 04b3 0100     		.2byte	0x1
 2325 04b5 53       		.byte	0x53
 2326 04b6 00000000 		.4byte	0
 2327 04ba 00000000 		.4byte	0
 2328              	.LLST29:
 2329 04be 28000000 		.4byte	.LVL80
 2330 04c2 2A000000 		.4byte	.LVL81
 2331 04c6 0100     		.2byte	0x1
 2332 04c8 53       		.byte	0x53
 2333 04c9 00000000 		.4byte	0
 2334 04cd 00000000 		.4byte	0
 2335              		.section	.debug_aranges,"",%progbits
 2336 0000 44000000 		.4byte	0x44
 2337 0004 0200     		.2byte	0x2
 2338 0006 00000000 		.4byte	.Ldebug_info0
 2339 000a 04       		.byte	0x4
 2340 000b 00       		.byte	0
 2341 000c 0000     		.2byte	0
 2342 000e 0000     		.2byte	0
 2343 0010 00000000 		.4byte	.LFB7
 2344 0014 20000000 		.4byte	.LFE7-.LFB7
 2345 0018 00000000 		.4byte	.LFB8
 2346 001c D4010000 		.4byte	.LFE8-.LFB8
 2347 0020 00000000 		.4byte	.LFB9
 2348 0024 2C000000 		.4byte	.LFE9-.LFB9
 2349 0028 00000000 		.4byte	.LFB10
 2350 002c 50000000 		.4byte	.LFE10-.LFB10
 2351 0030 00000000 		.4byte	.LFB11
 2352 0034 28000000 		.4byte	.LFE11-.LFB11
 2353 0038 00000000 		.4byte	.LFB12
 2354 003c 38000000 		.4byte	.LFE12-.LFB12
 2355 0040 00000000 		.4byte	0
 2356 0044 00000000 		.4byte	0
 2357              		.section	.debug_ranges,"",%progbits
 2358              	.Ldebug_ranges0:
 2359 0000 18000000 		.4byte	.LBB8
 2360 0004 3A000000 		.4byte	.LBE8
 2361 0008 46000000 		.4byte	.LBB55
 2362 000c 68000000 		.4byte	.LBE55
 2363 0010 72000000 		.4byte	.LBB56
 2364 0014 82000000 		.4byte	.LBE56
 2365 0018 88000000 		.4byte	.LBB57
 2366 001c A8000000 		.4byte	.LBE57
 2367 0020 B0000000 		.4byte	.LBB58
 2368 0024 D6000000 		.4byte	.LBE58
 2369 0028 E4000000 		.4byte	.LBB59
 2370 002c F8000000 		.4byte	.LBE59
 2371 0030 08010000 		.4byte	.LBB60
 2372 0034 2C010000 		.4byte	.LBE60
 2373 0038 36010000 		.4byte	.LBB61
 2374 003c 5A010000 		.4byte	.LBE61
 2375 0040 62010000 		.4byte	.LBB62
 2376 0044 86010000 		.4byte	.LBE62
ARM GAS  /tmp/ccAXZcSG.s 			page 43


 2377 0048 90010000 		.4byte	.LBB63
 2378 004c B6010000 		.4byte	.LBE63
 2379 0050 00000000 		.4byte	0
 2380 0054 00000000 		.4byte	0
 2381 0058 18000000 		.4byte	.LBB10
 2382 005c 1E000000 		.4byte	.LBE10
 2383 0060 46000000 		.4byte	.LBB23
 2384 0064 4C000000 		.4byte	.LBE23
 2385 0068 88000000 		.4byte	.LBB28
 2386 006c 8E000000 		.4byte	.LBE28
 2387 0070 B0000000 		.4byte	.LBB31
 2388 0074 B6000000 		.4byte	.LBE31
 2389 0078 08010000 		.4byte	.LBB34
 2390 007c 0E010000 		.4byte	.LBE34
 2391 0080 36010000 		.4byte	.LBB37
 2392 0084 3C010000 		.4byte	.LBE37
 2393 0088 62010000 		.4byte	.LBB40
 2394 008c 68010000 		.4byte	.LBE40
 2395 0090 90010000 		.4byte	.LBB43
 2396 0094 96010000 		.4byte	.LBE43
 2397 0098 00000000 		.4byte	0
 2398 009c 00000000 		.4byte	0
 2399 00a0 22000000 		.4byte	.LBB11
 2400 00a4 30000000 		.4byte	.LBE11
 2401 00a8 50000000 		.4byte	.LBB24
 2402 00ac 5E000000 		.4byte	.LBE24
 2403 00b0 72000000 		.4byte	.LBB26
 2404 00b4 78000000 		.4byte	.LBE26
 2405 00b8 92000000 		.4byte	.LBB29
 2406 00bc 9E000000 		.4byte	.LBE29
 2407 00c0 BA000000 		.4byte	.LBB32
 2408 00c4 D6000000 		.4byte	.LBE32
 2409 00c8 E4000000 		.4byte	.LBB33
 2410 00cc F8000000 		.4byte	.LBE33
 2411 00d0 12010000 		.4byte	.LBB35
 2412 00d4 22010000 		.4byte	.LBE35
 2413 00d8 40010000 		.4byte	.LBB38
 2414 00dc 50010000 		.4byte	.LBE38
 2415 00e0 6C010000 		.4byte	.LBB41
 2416 00e4 7C010000 		.4byte	.LBE41
 2417 00e8 9A010000 		.4byte	.LBB44
 2418 00ec AC010000 		.4byte	.LBE44
 2419 00f0 00000000 		.4byte	0
 2420 00f4 00000000 		.4byte	0
 2421 00f8 22000000 		.4byte	.LBB12
 2422 00fc 30000000 		.4byte	.LBE12
 2423 0100 50000000 		.4byte	.LBB13
 2424 0104 5E000000 		.4byte	.LBE13
 2425 0108 72000000 		.4byte	.LBB14
 2426 010c 78000000 		.4byte	.LBE14
 2427 0110 92000000 		.4byte	.LBB15
 2428 0114 9E000000 		.4byte	.LBE15
 2429 0118 BA000000 		.4byte	.LBB16
 2430 011c D6000000 		.4byte	.LBE16
 2431 0120 E4000000 		.4byte	.LBB17
 2432 0124 F8000000 		.4byte	.LBE17
 2433 0128 12010000 		.4byte	.LBB18
ARM GAS  /tmp/ccAXZcSG.s 			page 44


 2434 012c 22010000 		.4byte	.LBE18
 2435 0130 40010000 		.4byte	.LBB19
 2436 0134 50010000 		.4byte	.LBE19
 2437 0138 6C010000 		.4byte	.LBB20
 2438 013c 7C010000 		.4byte	.LBE20
 2439 0140 9A010000 		.4byte	.LBB21
 2440 0144 AC010000 		.4byte	.LBE21
 2441 0148 00000000 		.4byte	0
 2442 014c 00000000 		.4byte	0
 2443 0150 34000000 		.4byte	.LBB22
 2444 0154 3A000000 		.4byte	.LBE22
 2445 0158 62000000 		.4byte	.LBB25
 2446 015c 68000000 		.4byte	.LBE25
 2447 0160 7C000000 		.4byte	.LBB27
 2448 0164 82000000 		.4byte	.LBE27
 2449 0168 A2000000 		.4byte	.LBB30
 2450 016c A8000000 		.4byte	.LBE30
 2451 0170 26010000 		.4byte	.LBB36
 2452 0174 2C010000 		.4byte	.LBE36
 2453 0178 54010000 		.4byte	.LBB39
 2454 017c 5A010000 		.4byte	.LBE39
 2455 0180 80010000 		.4byte	.LBB42
 2456 0184 86010000 		.4byte	.LBE42
 2457 0188 B0010000 		.4byte	.LBB45
 2458 018c B6010000 		.4byte	.LBE45
 2459 0190 00000000 		.4byte	0
 2460 0194 00000000 		.4byte	0
 2461 0198 0E000000 		.4byte	.LBB69
 2462 019c 1C000000 		.4byte	.LBE69
 2463 01a0 2A000000 		.4byte	.LBB74
 2464 01a4 36000000 		.4byte	.LBE74
 2465 01a8 44000000 		.4byte	.LBB76
 2466 01ac 50000000 		.4byte	.LBE76
 2467 01b0 00000000 		.4byte	0
 2468 01b4 00000000 		.4byte	0
 2469 01b8 0E000000 		.4byte	.LBB70
 2470 01bc 1C000000 		.4byte	.LBE70
 2471 01c0 2A000000 		.4byte	.LBB71
 2472 01c4 36000000 		.4byte	.LBE71
 2473 01c8 44000000 		.4byte	.LBB72
 2474 01cc 50000000 		.4byte	.LBE72
 2475 01d0 00000000 		.4byte	0
 2476 01d4 00000000 		.4byte	0
 2477 01d8 20000000 		.4byte	.LBB73
 2478 01dc 26000000 		.4byte	.LBE73
 2479 01e0 3A000000 		.4byte	.LBB75
 2480 01e4 40000000 		.4byte	.LBE75
 2481 01e8 00000000 		.4byte	0
 2482 01ec 00000000 		.4byte	0
 2483 01f0 10000000 		.4byte	.LBB82
 2484 01f4 1E000000 		.4byte	.LBE82
 2485 01f8 2A000000 		.4byte	.LBB86
 2486 01fc 38000000 		.4byte	.LBE86
 2487 0200 00000000 		.4byte	0
 2488 0204 00000000 		.4byte	0
 2489 0208 10000000 		.4byte	.LBB83
 2490 020c 1E000000 		.4byte	.LBE83
ARM GAS  /tmp/ccAXZcSG.s 			page 45


 2491 0210 2A000000 		.4byte	.LBB84
 2492 0214 38000000 		.4byte	.LBE84
 2493 0218 00000000 		.4byte	0
 2494 021c 00000000 		.4byte	0
 2495 0220 00000000 		.4byte	.LFB7
 2496 0224 20000000 		.4byte	.LFE7
 2497 0228 00000000 		.4byte	.LFB8
 2498 022c D4010000 		.4byte	.LFE8
 2499 0230 00000000 		.4byte	.LFB9
 2500 0234 2C000000 		.4byte	.LFE9
 2501 0238 00000000 		.4byte	.LFB10
 2502 023c 50000000 		.4byte	.LFE10
 2503 0240 00000000 		.4byte	.LFB11
 2504 0244 28000000 		.4byte	.LFE11
 2505 0248 00000000 		.4byte	.LFB12
 2506 024c 38000000 		.4byte	.LFE12
 2507 0250 00000000 		.4byte	0
 2508 0254 00000000 		.4byte	0
 2509              		.section	.debug_line,"",%progbits
 2510              	.Ldebug_line0:
 2511 0000 11030000 		.section	.debug_str,"MS",%progbits,1
 2511      02008401 
 2511      00000201 
 2511      FB0E0D00 
 2511      01010101 
 2512              	.LASF2:
 2513 0000 73697A65 		.ascii	"size_t\000"
 2513      5F7400
 2514              	.LASF16:
 2515 0007 6D705F6F 		.ascii	"mp_object_size\000"
 2515      626A6563 
 2515      745F7369 
 2515      7A6500
 2516              	.LASF3:
 2517 0016 75696E74 		.ascii	"uint8_t\000"
 2517      385F7400 
 2518              	.LASF26:
 2519 001e 6368506F 		.ascii	"chPoolLoadArray\000"
 2519      6F6C4C6F 
 2519      61644172 
 2519      72617900 
 2520              	.LASF30:
 2521 002e 706F6F6C 		.ascii	"pool_header\000"
 2521      5F686561 
 2521      64657200 
 2522              	.LASF27:
 2523 003a 474E5520 		.ascii	"GNU C 4.6.2 20120613 (release) [ARM/embedded-4_6-br"
 2523      4320342E 
 2523      362E3220 
 2523      32303132 
 2523      30363133 
 2524 006d 616E6368 		.ascii	"anch revision 188521]\000"
 2524      20726576 
 2524      6973696F 
 2524      6E203138 
 2524      38353231 
 2525              	.LASF9:
ARM GAS  /tmp/ccAXZcSG.s 			page 46


 2526 0083 6C6F6E67 		.ascii	"long unsigned int\000"
 2526      20756E73 
 2526      69676E65 
 2526      6420696E 
 2526      7400
 2527              	.LASF6:
 2528 0095 73686F72 		.ascii	"short unsigned int\000"
 2528      7420756E 
 2528      7369676E 
 2528      65642069 
 2528      6E7400
 2529              	.LASF21:
 2530 00a8 70726F76 		.ascii	"provider\000"
 2530      69646572 
 2530      00
 2531              	.LASF24:
 2532 00b1 6368506F 		.ascii	"chPoolFreeI\000"
 2532      6F6C4672 
 2532      65654900 
 2533              	.LASF4:
 2534 00bd 756E7369 		.ascii	"unsigned char\000"
 2534      676E6564 
 2534      20636861 
 2534      7200
 2535              	.LASF23:
 2536 00cb 6368506F 		.ascii	"chPoolFree\000"
 2536      6F6C4672 
 2536      656500
 2537              	.LASF18:
 2538 00d6 4D656D6F 		.ascii	"MemoryPool\000"
 2538      7279506F 
 2538      6F6C00
 2539              	.LASF22:
 2540 00e1 6F626A70 		.ascii	"objp\000"
 2540      00
 2541              	.LASF31:
 2542 00e6 6368506F 		.ascii	"chPoolAllocI\000"
 2542      6F6C416C 
 2542      6C6F6349 
 2542      00
 2543              	.LASF0:
 2544 00f3 756E7369 		.ascii	"unsigned int\000"
 2544      676E6564 
 2544      20696E74 
 2544      00
 2545              	.LASF11:
 2546 0100 6C6F6E67 		.ascii	"long long unsigned int\000"
 2546      206C6F6E 
 2546      6720756E 
 2546      7369676E 
 2546      65642069 
 2547              	.LASF28:
 2548 0117 2E2E2F2E 		.ascii	"../../ChibiOS/os/kernel/src/chmempools.c\000"
 2548      2E2F4368 
 2548      6962694F 
 2548      532F6F73 
 2548      2F6B6572 
ARM GAS  /tmp/ccAXZcSG.s 			page 47


 2549              	.LASF29:
 2550 0140 2F686F6D 		.ascii	"/home/tino/workspace/openrobots/R2P_IR_module/fw\000"
 2550      652F7469 
 2550      6E6F2F77 
 2550      6F726B73 
 2550      70616365 
 2551              	.LASF14:
 2552 0171 70685F6E 		.ascii	"ph_next\000"
 2552      65787400 
 2553              	.LASF10:
 2554 0179 6C6F6E67 		.ascii	"long long int\000"
 2554      206C6F6E 
 2554      6720696E 
 2554      7400
 2555              	.LASF19:
 2556 0187 63686172 		.ascii	"char\000"
 2556      00
 2557              	.LASF13:
 2558 018c 6D656D67 		.ascii	"memgetfunc_t\000"
 2558      65746675 
 2558      6E635F74 
 2558      00
 2559              	.LASF17:
 2560 0199 6D705F70 		.ascii	"mp_provider\000"
 2560      726F7669 
 2560      64657200 
 2561              	.LASF5:
 2562 01a5 73686F72 		.ascii	"short int\000"
 2562      7420696E 
 2562      7400
 2563              	.LASF32:
 2564 01af 6368506F 		.ascii	"chPoolAlloc\000"
 2564      6F6C416C 
 2564      6C6F6300 
 2565              	.LASF8:
 2566 01bb 75696E74 		.ascii	"uint32_t\000"
 2566      33325F74 
 2566      00
 2567              	.LASF7:
 2568 01c4 6C6F6E67 		.ascii	"long int\000"
 2568      20696E74 
 2568      00
 2569              	.LASF1:
 2570 01cd 7369676E 		.ascii	"signed char\000"
 2570      65642063 
 2570      68617200 
 2571              	.LASF15:
 2572 01d9 6D705F6E 		.ascii	"mp_next\000"
 2572      65787400 
 2573              	.LASF20:
 2574 01e1 73697A65 		.ascii	"size\000"
 2574      00
 2575              	.LASF12:
 2576 01e6 5F426F6F 		.ascii	"_Bool\000"
 2576      6C00
 2577              	.LASF25:
 2578 01ec 6368506F 		.ascii	"chPoolInit\000"
ARM GAS  /tmp/ccAXZcSG.s 			page 48


 2578      6F6C496E 
 2578      697400
 2579              		.ident	"GCC: (GNU Tools for ARM Embedded Processors) 4.6.2 20120613 (release) [ARM/embedded-4_6-br
ARM GAS  /tmp/ccAXZcSG.s 			page 49


DEFINED SYMBOLS
                            *ABS*:00000000 chmempools.c
     /tmp/ccAXZcSG.s:19     .text.chPoolInit:00000000 $t
     /tmp/ccAXZcSG.s:25     .text.chPoolInit:00000000 chPoolInit
     /tmp/ccAXZcSG.s:65     .text.chPoolInit:0000001c $d
     /tmp/ccAXZcSG.s:70     .text.chPoolLoadArray:00000000 $t
     /tmp/ccAXZcSG.s:76     .text.chPoolLoadArray:00000000 chPoolLoadArray
     /tmp/ccAXZcSG.s:571    .text.chPoolLoadArray:000001cc $d
     /tmp/ccAXZcSG.s:577    .text.chPoolAllocI:00000000 $t
     /tmp/ccAXZcSG.s:583    .text.chPoolAllocI:00000000 chPoolAllocI
     /tmp/ccAXZcSG.s:631    .text.chPoolAllocI:00000028 $d
     /tmp/ccAXZcSG.s:636    .text.chPoolAlloc:00000000 $t
     /tmp/ccAXZcSG.s:642    .text.chPoolAlloc:00000000 chPoolAlloc
     /tmp/ccAXZcSG.s:742    .text.chPoolAlloc:0000004c $d
     /tmp/ccAXZcSG.s:749    .text.chPoolFreeI:00000000 $t
     /tmp/ccAXZcSG.s:755    .text.chPoolFreeI:00000000 chPoolFreeI
     /tmp/ccAXZcSG.s:801    .text.chPoolFreeI:00000024 $d
     /tmp/ccAXZcSG.s:806    .text.chPoolFree:00000000 $t
     /tmp/ccAXZcSG.s:812    .text.chPoolFree:00000000 chPoolFree
     /tmp/ccAXZcSG.s:880    .text.chPoolFree:00000034 $d
     /tmp/ccAXZcSG.s:887    .rodata.str1.4:00000000 $d
                     .debug_frame:00000010 $d
     /tmp/ccAXZcSG.s:576    .text.chPoolLoadArray:000001d4 $t
     /tmp/ccAXZcSG.s:635    .text.chPoolAllocI:0000002c $t
     /tmp/ccAXZcSG.s:805    .text.chPoolFreeI:00000028 $t
     /tmp/ccAXZcSG.s:886    .text.chPoolFree:00000038 $t

UNDEFINED SYMBOLS
chDbgPanic
dbg_check_lock
chDbgCheckClassI
dbg_check_unlock
