ARM GAS  /tmp/cccgKN1v.s 			page 1


   1              		.syntax unified
   2              		.cpu cortex-m3
   3              		.fpu softvfp
   4              		.eabi_attribute 20, 1
   5              		.eabi_attribute 21, 1
   6              		.eabi_attribute 23, 3
   7              		.eabi_attribute 24, 1
   8              		.eabi_attribute 25, 1
   9              		.eabi_attribute 26, 1
  10              		.eabi_attribute 30, 2
  11              		.eabi_attribute 34, 1
  12              		.eabi_attribute 18, 4
  13              		.thumb
  14              		.file	"chmemcore.c"
  15              		.text
  16              	.Ltext0:
  17              		.cfi_sections	.debug_frame
  18              		.section	.text._core_init,"ax",%progbits
  19              		.align	2
  20              		.p2align 4,,15
  21              		.global	_core_init
  22              		.thumb
  23              		.thumb_func
  24              		.type	_core_init, %function
  25              	_core_init:
  26              	.LFB7:
  27              		.file 1 "../../ChibiOS/os/kernel/src/chmemcore.c"
  28              		.loc 1 59 0
  29              		.cfi_startproc
  30              		@ args = 0, pretend = 0, frame = 0
  31              		@ frame_needed = 0, uses_anonymous_args = 0
  32              		@ link register save eliminated.
  33 0000 10B4     		push	{r4}
  34              	.LCFI0:
  35              		.cfi_def_cfa_offset 4
  36              		.cfi_offset 4, -4
  37              		.loc 1 64 0
  38 0002 40F2000C 		movw	ip, #:lower16:__heap_end__
  39              		.loc 1 63 0
  40 0006 0C4C     		ldr	r4, .L2
  41 0008 40F20001 		movw	r1, #:lower16:.LANCHOR0
  42              		.loc 1 64 0
  43 000c C0F2000C 		movt	ip, #:upper16:__heap_end__
  44 0010 40F20002 		movw	r2, #:lower16:.LANCHOR1
  45              		.loc 1 70 0
  46 0014 40F20003 		movw	r3, #:lower16:.LANCHOR2
  47              		.loc 1 64 0
  48 0018 2CF00700 		bic	r0, ip, #7
  49              		.loc 1 63 0
  50 001c C0F20001 		movt	r1, #:upper16:.LANCHOR0
  51 0020 24F00704 		bic	r4, r4, #7
  52              		.loc 1 64 0
  53 0024 C0F20002 		movt	r2, #:upper16:.LANCHOR1
  54              		.loc 1 70 0
  55 0028 C0F20003 		movt	r3, #:upper16:.LANCHOR2
  56              		.loc 1 63 0
  57 002c 0C60     		str	r4, [r1, #0]
ARM GAS  /tmp/cccgKN1v.s 			page 2


  58              		.loc 1 64 0
  59 002e 1060     		str	r0, [r2, #0]
  60              		.loc 1 70 0
  61 0030 1860     		str	r0, [r3, #0]
  62              		.loc 1 71 0
  63 0032 10BC     		pop	{r4}
  64 0034 7047     		bx	lr
  65              	.L3:
  66 0036 00BF     		.align	2
  67              	.L2:
  68 0038 07000000 		.word	__heap_base__+7
  69              		.cfi_endproc
  70              	.LFE7:
  71              		.size	_core_init, .-_core_init
  72 003c AFF30080 		.section	.text.chCoreAlloc,"ax",%progbits
  73              		.align	2
  74              		.p2align 4,,15
  75              		.global	chCoreAlloc
  76              		.thumb
  77              		.thumb_func
  78              		.type	chCoreAlloc, %function
  79              	chCoreAlloc:
  80              	.LFB8:
  81              		.loc 1 85 0
  82              		.cfi_startproc
  83              		@ args = 0, pretend = 0, frame = 0
  84              		@ frame_needed = 0, uses_anonymous_args = 0
  85              	.LVL0:
  86 0000 38B5     		push	{r3, r4, r5, lr}
  87              	.LCFI1:
  88              		.cfi_def_cfa_offset 16
  89              		.cfi_offset 14, -4
  90              		.cfi_offset 5, -8
  91              		.cfi_offset 4, -12
  92              		.cfi_offset 3, -16
  93              		.loc 1 85 0
  94 0002 0546     		mov	r5, r0
  95              	.LBB6:
  96              		.loc 1 88 0
  97 0004 2023     		movs	r3, #32
  98              	.LVL1:
  99              	@ 88 "../../ChibiOS/os/kernel/src/chmemcore.c" 1
 100 0006 83F31188 		msr     BASEPRI, r3
 101              	@ 0 "" 2
 102              	.LVL2:
 103              		.thumb
 104              	.LBE6:
 105 000a FFF7FEFF 		bl	dbg_check_lock
 106              	.LVL3:
 107              	.LBB7:
 108              	.LBB8:
 109              		.loc 1 109 0
 110 000e FFF7FEFF 		bl	chDbgCheckClassI
 111              		.loc 1 112 0
 112 0012 0A4B     		ldr	r3, .L7
 113 0014 0A49     		ldr	r1, .L7+4
 114 0016 1C68     		ldr	r4, [r3, #0]
ARM GAS  /tmp/cccgKN1v.s 			page 3


 115 0018 0868     		ldr	r0, [r1, #0]
 116              		.loc 1 111 0
 117 001a 0735     		adds	r5, r5, #7
 118              	.LVL4:
 119 001c 25F00705 		bic	r5, r5, #7
 120              	.LVL5:
 121              		.loc 1 112 0
 122 0020 021B     		subs	r2, r0, r4
 123 0022 9542     		cmp	r5, r2
 124              	.LVL6:
 125              		.loc 1 115 0
 126 0024 9ABF     		itte	ls
 127 0026 6519     		addls	r5, r4, r5
 128              	.LVL7:
 129 0028 1D60     		strls	r5, [r3, #0]
 130              		.loc 1 113 0
 131 002a 0024     		movhi	r4, #0
 132              	.LBE8:
 133              	.LBE7:
 134              		.loc 1 90 0
 135 002c FFF7FEFF 		bl	dbg_check_unlock
 136              	.LVL8:
 137              	.LBB9:
 138 0030 0023     		movs	r3, #0
 139              	.LVL9:
 140              	@ 90 "../../ChibiOS/os/kernel/src/chmemcore.c" 1
 141 0032 83F31188 		msr     BASEPRI, r3
 142              	@ 0 "" 2
 143              	.LVL10:
 144              		.thumb
 145              	.LBE9:
 146              		.loc 1 92 0
 147 0036 2046     		mov	r0, r4
 148 0038 38BD     		pop	{r3, r4, r5, pc}
 149              	.L8:
 150 003a 00BF     		.align	2
 151              	.L7:
 152 003c 00000000 		.word	.LANCHOR0
 153 0040 00000000 		.word	.LANCHOR1
 154              		.cfi_endproc
 155              	.LFE8:
 156              		.size	chCoreAlloc, .-chCoreAlloc
 157 0044 AFF30080 		.section	.text.chCoreAllocI,"ax",%progbits
 157      AFF30080 
 157      AFF30080 
 158              		.align	2
 159              		.p2align 4,,15
 160              		.global	chCoreAllocI
 161              		.thumb
 162              		.thumb_func
 163              		.type	chCoreAllocI, %function
 164              	chCoreAllocI:
 165              	.LFB9:
 166              		.loc 1 106 0
 167              		.cfi_startproc
 168              		@ args = 0, pretend = 0, frame = 0
 169              		@ frame_needed = 0, uses_anonymous_args = 0
ARM GAS  /tmp/cccgKN1v.s 			page 4


 170              	.LVL11:
 171 0000 10B5     		push	{r4, lr}
 172              	.LCFI2:
 173              		.cfi_def_cfa_offset 8
 174              		.cfi_offset 14, -4
 175              		.cfi_offset 4, -8
 176              		.loc 1 106 0
 177 0002 0446     		mov	r4, r0
 178              		.loc 1 109 0
 179 0004 FFF7FEFF 		bl	chDbgCheckClassI
 180              	.LVL12:
 181              		.loc 1 112 0
 182 0008 074A     		ldr	r2, .L12
 183 000a 0849     		ldr	r1, .L12+4
 184 000c 1368     		ldr	r3, [r2, #0]
 185 000e 0968     		ldr	r1, [r1, #0]
 186              		.loc 1 111 0
 187 0010 E01D     		adds	r0, r4, #7
 188 0012 20F00700 		bic	r0, r0, #7
 189              	.LVL13:
 190              		.loc 1 112 0
 191 0016 C91A     		subs	r1, r1, r3
 192 0018 8842     		cmp	r0, r1
 193              	.LVL14:
 194              		.loc 1 115 0
 195 001a 9ABF     		itte	ls
 196 001c 1818     		addls	r0, r3, r0
 197              	.LVL15:
 198 001e 1060     		strls	r0, [r2, #0]
 199              		.loc 1 113 0
 200 0020 0023     		movhi	r3, #0
 201              		.loc 1 117 0
 202 0022 1846     		mov	r0, r3
 203 0024 10BD     		pop	{r4, pc}
 204              	.L13:
 205 0026 00BF     		.align	2
 206              	.L12:
 207 0028 00000000 		.word	.LANCHOR0
 208 002c 00000000 		.word	.LANCHOR1
 209              		.cfi_endproc
 210              	.LFE9:
 211              		.size	chCoreAllocI, .-chCoreAllocI
 212              		.section	.text.chCoreStatus,"ax",%progbits
 213              		.align	2
 214              		.p2align 4,,15
 215              		.global	chCoreStatus
 216              		.thumb
 217              		.thumb_func
 218              		.type	chCoreStatus, %function
 219              	chCoreStatus:
 220              	.LFB10:
 221              		.loc 1 126 0
 222              		.cfi_startproc
 223              		@ args = 0, pretend = 0, frame = 0
 224              		@ frame_needed = 0, uses_anonymous_args = 0
 225              		@ link register save eliminated.
 226              		.loc 1 128 0
ARM GAS  /tmp/cccgKN1v.s 			page 5


 227 0000 40F20002 		movw	r2, #:lower16:.LANCHOR1
 228 0004 40F20001 		movw	r1, #:lower16:.LANCHOR0
 229 0008 C0F20002 		movt	r2, #:upper16:.LANCHOR1
 230 000c C0F20001 		movt	r1, #:upper16:.LANCHOR0
 231 0010 1068     		ldr	r0, [r2, #0]
 232 0012 0B68     		ldr	r3, [r1, #0]
 233 0014 C01A     		subs	r0, r0, r3
 234              		.loc 1 129 0
 235 0016 7047     		bx	lr
 236              		.cfi_endproc
 237              	.LFE10:
 238              		.size	chCoreStatus, .-chCoreStatus
 239 0018 AFF30080 		.section	.text.chCoreTrim,"ax",%progbits
 239      AFF30080 
 240              		.align	2
 241              		.p2align 4,,15
 242              		.global	chCoreTrim
 243              		.thumb
 244              		.thumb_func
 245              		.type	chCoreTrim, %function
 246              	chCoreTrim:
 247              	.LFB11:
 248              		.loc 1 131 0
 249              		.cfi_startproc
 250              		@ args = 0, pretend = 0, frame = 0
 251              		@ frame_needed = 0, uses_anonymous_args = 0
 252              	.LVL16:
 253 0000 10B5     		push	{r4, lr}
 254              	.LCFI3:
 255              		.cfi_def_cfa_offset 8
 256              		.cfi_offset 14, -4
 257              		.cfi_offset 4, -8
 258              	.LBB14:
 259              		.loc 1 134 0
 260 0002 2023     		movs	r3, #32
 261              	.LVL17:
 262              	.LBE14:
 263              		.loc 1 131 0
 264 0004 0446     		mov	r4, r0
 265              	.LBB15:
 266              		.loc 1 134 0
 267              	@ 134 "../../ChibiOS/os/kernel/src/chmemcore.c" 1
 268 0006 83F31188 		msr     BASEPRI, r3
 269              	@ 0 "" 2
 270              	.LVL18:
 271              		.thumb
 272              	.LBE15:
 273 000a FFF7FEFF 		bl	dbg_check_lock
 274              	.LVL19:
 275              	.LBB16:
 276              	.LBB17:
 277              		.loc 1 143 0
 278 000e FFF7FEFF 		bl	chDbgCheckClassI
 279              		.loc 1 145 0
 280 0012 094B     		ldr	r3, .L18
 281              		.loc 1 146 0
 282 0014 0948     		ldr	r0, .L18+4
ARM GAS  /tmp/cccgKN1v.s 			page 6


 283              		.loc 1 145 0
 284 0016 1968     		ldr	r1, [r3, #0]
 285              		.loc 1 146 0
 286 0018 0268     		ldr	r2, [r0, #0]
 287              		.loc 1 145 0
 288 001a 0C1B     		subs	r4, r1, r4
 289              	.LVL20:
 290 001c 24F00704 		bic	r4, r4, #7
 291              	.LVL21:
 292              		.loc 1 146 0
 293 0020 9442     		cmp	r4, r2
 294              		.loc 1 148 0
 295 0022 2CBF     		ite	cs
 296 0024 1C60     		strcs	r4, [r3, #0]
 297              		.loc 1 147 0
 298 0026 0024     		movcc	r4, #0
 299              	.LVL22:
 300              	.LBE17:
 301              	.LBE16:
 302              		.loc 1 136 0
 303 0028 FFF7FEFF 		bl	dbg_check_unlock
 304              	.LBB18:
 305 002c 0023     		movs	r3, #0
 306              	.LVL23:
 307              	@ 136 "../../ChibiOS/os/kernel/src/chmemcore.c" 1
 308 002e 83F31188 		msr     BASEPRI, r3
 309              	@ 0 "" 2
 310              	.LVL24:
 311              		.thumb
 312              	.LBE18:
 313              		.loc 1 138 0
 314 0032 2046     		mov	r0, r4
 315 0034 10BD     		pop	{r4, pc}
 316              	.L19:
 317 0036 00BF     		.align	2
 318              	.L18:
 319 0038 00000000 		.word	.LANCHOR1
 320 003c 00000000 		.word	.LANCHOR0
 321              		.cfi_endproc
 322              	.LFE11:
 323              		.size	chCoreTrim, .-chCoreTrim
 324              		.section	.text.chCoreTrimI,"ax",%progbits
 325              		.align	2
 326              		.p2align 4,,15
 327              		.global	chCoreTrimI
 328              		.thumb
 329              		.thumb_func
 330              		.type	chCoreTrimI, %function
 331              	chCoreTrimI:
 332              	.LFB12:
 333              		.loc 1 140 0
 334              		.cfi_startproc
 335              		@ args = 0, pretend = 0, frame = 0
 336              		@ frame_needed = 0, uses_anonymous_args = 0
 337              	.LVL25:
 338 0000 10B5     		push	{r4, lr}
 339              	.LCFI4:
ARM GAS  /tmp/cccgKN1v.s 			page 7


 340              		.cfi_def_cfa_offset 8
 341              		.cfi_offset 14, -4
 342              		.cfi_offset 4, -8
 343              		.loc 1 140 0
 344 0002 0446     		mov	r4, r0
 345              		.loc 1 143 0
 346 0004 FFF7FEFF 		bl	chDbgCheckClassI
 347              	.LVL26:
 348              		.loc 1 145 0
 349 0008 054B     		ldr	r3, .L23
 350              		.loc 1 146 0
 351 000a 064A     		ldr	r2, .L23+4
 352              		.loc 1 145 0
 353 000c 1968     		ldr	r1, [r3, #0]
 354              		.loc 1 146 0
 355 000e 1268     		ldr	r2, [r2, #0]
 356              		.loc 1 145 0
 357 0010 081B     		subs	r0, r1, r4
 358 0012 20F00700 		bic	r0, r0, #7
 359              	.LVL27:
 360              		.loc 1 146 0
 361 0016 9042     		cmp	r0, r2
 362              		.loc 1 148 0
 363 0018 2CBF     		ite	cs
 364 001a 1860     		strcs	r0, [r3, #0]
 365              		.loc 1 147 0
 366 001c 0020     		movcc	r0, #0
 367              	.LVL28:
 368              		.loc 1 150 0
 369 001e 10BD     		pop	{r4, pc}
 370              	.L24:
 371              		.align	2
 372              	.L23:
 373 0020 00000000 		.word	.LANCHOR1
 374 0024 00000000 		.word	.LANCHOR0
 375              		.cfi_endproc
 376              	.LFE12:
 377              		.size	chCoreTrimI, .-chCoreTrimI
 378 0028 AFF30080 		.section	.text.chCoreGrow,"ax",%progbits
 378      AFF30080 
 379              		.align	2
 380              		.p2align 4,,15
 381              		.global	chCoreGrow
 382              		.thumb
 383              		.thumb_func
 384              		.type	chCoreGrow, %function
 385              	chCoreGrow:
 386              	.LFB13:
 387              		.loc 1 152 0
 388              		.cfi_startproc
 389              		@ args = 0, pretend = 0, frame = 0
 390              		@ frame_needed = 0, uses_anonymous_args = 0
 391              	.LVL29:
 392 0000 38B5     		push	{r3, r4, r5, lr}
 393              	.LCFI5:
 394              		.cfi_def_cfa_offset 16
 395              		.cfi_offset 14, -4
ARM GAS  /tmp/cccgKN1v.s 			page 8


 396              		.cfi_offset 5, -8
 397              		.cfi_offset 4, -12
 398              		.cfi_offset 3, -16
 399              		.loc 1 152 0
 400 0002 0546     		mov	r5, r0
 401              	.LBB23:
 402              		.loc 1 154 0
 403 0004 2023     		movs	r3, #32
 404              	.LVL30:
 405              	@ 154 "../../ChibiOS/os/kernel/src/chmemcore.c" 1
 406 0006 83F31188 		msr     BASEPRI, r3
 407              	@ 0 "" 2
 408              	.LVL31:
 409              		.thumb
 410              	.LBE23:
 411              	.LBB24:
 412              	.LBB25:
 413              		.loc 1 163 0
 414 000a 0D4C     		ldr	r4, .L28
 415              	.LBE25:
 416              	.LBE24:
 417              		.loc 1 154 0
 418 000c FFF7FEFF 		bl	dbg_check_lock
 419              	.LVL32:
 420              	.LBB27:
 421              	.LBB26:
 422              		.loc 1 161 0
 423 0010 FFF7FEFF 		bl	chDbgCheckClassI
 424              		.loc 1 163 0
 425 0014 0B48     		ldr	r0, .L28+4
 426              		.loc 1 162 0
 427 0016 0735     		adds	r5, r5, #7
 428              	.LVL33:
 429              		.loc 1 163 0
 430 0018 2368     		ldr	r3, [r4, #0]
 431              		.loc 1 162 0
 432 001a 25F00705 		bic	r5, r5, #7
 433              	.LVL34:
 434              		.loc 1 163 0
 435 001e 0268     		ldr	r2, [r0, #0]
 436 0020 5B19     		adds	r3, r3, r5
 437 0022 9342     		cmp	r3, r2
 438 0024 04D9     		bls	.L26
 439 0026 0848     		ldr	r0, .L28+8
 440 0028 FFF7FEFF 		bl	chDbgPanic
 441 002c 2168     		ldr	r1, [r4, #0]
 442 002e 4B19     		adds	r3, r1, r5
 443              	.L26:
 444              		.loc 1 164 0
 445 0030 2360     		str	r3, [r4, #0]
 446              	.LBE26:
 447              	.LBE27:
 448              		.loc 1 156 0
 449 0032 FFF7FEFF 		bl	dbg_check_unlock
 450              	.LBB28:
 451 0036 0023     		movs	r3, #0
 452              	.LVL35:
ARM GAS  /tmp/cccgKN1v.s 			page 9


 453              	@ 156 "../../ChibiOS/os/kernel/src/chmemcore.c" 1
 454 0038 83F31188 		msr     BASEPRI, r3
 455              	@ 0 "" 2
 456              	.LVL36:
 457              		.thumb
 458              	.LBE28:
 459              		.loc 1 157 0
 460 003c 38BD     		pop	{r3, r4, r5, pc}
 461              	.L29:
 462 003e 00BF     		.align	2
 463              	.L28:
 464 0040 00000000 		.word	.LANCHOR1
 465 0044 00000000 		.word	.LANCHOR2
 466 0048 00000000 		.word	.LC0
 467              		.cfi_endproc
 468              	.LFE13:
 469              		.size	chCoreGrow, .-chCoreGrow
 470 004c AFF30080 		.section	.text.chCoreGrowI,"ax",%progbits
 471              		.align	2
 472              		.p2align 4,,15
 473              		.global	chCoreGrowI
 474              		.thumb
 475              		.thumb_func
 476              		.type	chCoreGrowI, %function
 477              	chCoreGrowI:
 478              	.LFB14:
 479              		.loc 1 159 0
 480              		.cfi_startproc
 481              		@ args = 0, pretend = 0, frame = 0
 482              		@ frame_needed = 0, uses_anonymous_args = 0
 483              	.LVL37:
 484 0000 38B5     		push	{r3, r4, r5, lr}
 485              	.LCFI6:
 486              		.cfi_def_cfa_offset 16
 487              		.cfi_offset 14, -4
 488              		.cfi_offset 5, -8
 489              		.cfi_offset 4, -12
 490              		.cfi_offset 3, -16
 491              		.loc 1 163 0
 492 0002 0A4C     		ldr	r4, .L32
 493              		.loc 1 159 0
 494 0004 0546     		mov	r5, r0
 495              		.loc 1 161 0
 496 0006 FFF7FEFF 		bl	chDbgCheckClassI
 497              	.LVL38:
 498              		.loc 1 163 0
 499 000a 0948     		ldr	r0, .L32+4
 500              		.loc 1 162 0
 501 000c 0735     		adds	r5, r5, #7
 502              	.LVL39:
 503              		.loc 1 163 0
 504 000e 2368     		ldr	r3, [r4, #0]
 505              		.loc 1 162 0
 506 0010 25F00705 		bic	r5, r5, #7
 507              	.LVL40:
 508              		.loc 1 163 0
 509 0014 0268     		ldr	r2, [r0, #0]
ARM GAS  /tmp/cccgKN1v.s 			page 10


 510 0016 5B19     		adds	r3, r3, r5
 511 0018 9342     		cmp	r3, r2
 512 001a 04D9     		bls	.L31
 513              		.loc 1 163 0 is_stmt 0 discriminator 1
 514 001c 0548     		ldr	r0, .L32+8
 515 001e FFF7FEFF 		bl	chDbgPanic
 516 0022 2168     		ldr	r1, [r4, #0]
 517 0024 4B19     		adds	r3, r1, r5
 518              	.L31:
 519              		.loc 1 164 0 is_stmt 1
 520 0026 2360     		str	r3, [r4, #0]
 521              		.loc 1 165 0
 522 0028 38BD     		pop	{r3, r4, r5, pc}
 523              	.L33:
 524 002a 00BF     		.align	2
 525              	.L32:
 526 002c 00000000 		.word	.LANCHOR1
 527 0030 00000000 		.word	.LANCHOR2
 528 0034 00000000 		.word	.LC0
 529              		.cfi_endproc
 530              	.LFE14:
 531              		.size	chCoreGrowI, .-chCoreGrowI
 532 0038 AFF30080 		.section	.bss.endmem,"aw",%nobits
 532      AFF30080 
 533              		.align	2
 534              		.set	.LANCHOR1,. + 0
 535              		.type	endmem, %object
 536              		.size	endmem, 4
 537              	endmem:
 538 0000 00000000 		.space	4
 539              		.section	.rodata.str1.4,"aMS",%progbits,1
 540              		.align	2
 541              	.LC0:
 542 0000 22636843 		.ascii	"\"chCoreGrowI\"()\000"
 542      6F726547 
 542      726F7749 
 542      22282900 
 543              		.section	.bss.realendmem,"aw",%nobits
 544              		.align	2
 545              		.set	.LANCHOR2,. + 0
 546              		.type	realendmem, %object
 547              		.size	realendmem, 4
 548              	realendmem:
 549 0000 00000000 		.space	4
 550              		.section	.bss.nextmem,"aw",%nobits
 551              		.align	2
 552              		.set	.LANCHOR0,. + 0
 553              		.type	nextmem, %object
 554              		.size	nextmem, 4
 555              	nextmem:
 556 0000 00000000 		.space	4
 557              		.text
 558              	.Letext0:
 559              		.file 2 "/home/tino/ChibiStudio/tools/GNU Tools ARM Embedded/4.6 2012q2/bin/../lib/gcc/arm-none-ea
 560              		.file 3 "/home/tino/ChibiStudio/tools/GNU Tools ARM Embedded/4.6 2012q2/bin/../lib/gcc/arm-none-ea