ARM GAS  /tmp/ccAXZcSG.s 			page 1


   1              		.syntax unified
   2              		.cpu cortex-m3
   3              		.fpu softvfp
   4              		.eabi_attribute 20, 1
   5              		.eabi_attribute 21, 1
   6              		.eabi_attribute 23, 3
   7              		.eabi_attribute 24, 1
   8              		.eabi_attribute 25, 1
   9              		.eabi_attribute 26, 1
  10              		.eabi_attribute 30, 2
  11              		.eabi_attribute 34, 1
  12              		.eabi_attribute 18, 4
  13              		.thumb
  14              		.file	"chmempools.c"
  15              		.text
  16              	.Ltext0:
  17              		.cfi_sections	.debug_frame
  18              		.section	.text.chPoolInit,"ax",%progbits
  19              		.align	2
  20              		.p2align 4,,15
  21              		.global	chPoolInit
  22              		.thumb
  23              		.thumb_func
  24              		.type	chPoolInit, %function
  25              	chPoolInit:
  26              	.LFB7:
  27              		.file 1 "../../ChibiOS/os/kernel/src/chmempools.c"
  28              		.loc 1 55 0
  29              		.cfi_startproc
  30              		@ args = 0, pretend = 0, frame = 0
  31              		@ frame_needed = 0, uses_anonymous_args = 0
  32              	.LVL0:
  33 0000 70B5     		push	{r4, r5, r6, lr}
  34              	.LCFI0:
  35              		.cfi_def_cfa_offset 16
  36              		.cfi_offset 14, -4
  37              		.cfi_offset 6, -8
  38              		.cfi_offset 5, -12
  39              		.cfi_offset 4, -16
  40              		.loc 1 55 0
  41 0002 0446     		mov	r4, r0
  42 0004 0D46     		mov	r5, r1
  43 0006 1646     		mov	r6, r2
  44              		.loc 1 57 0
  45 0008 08B1     		cbz	r0, .L2
  46              		.loc 1 57 0 is_stmt 0 discriminator 2
  47 000a 0329     		cmp	r1, #3
  48 000c 02D8     		bhi	.L3
  49              	.L2:
  50              		.loc 1 57 0 discriminator 1
  51 000e 0348     		ldr	r0, .L5
  52              	.LVL1:
  53 0010 FFF7FEFF 		bl	chDbgPanic
  54              	.LVL2:
  55              	.L3:
  56              		.loc 1 59 0 is_stmt 1
  57 0014 0023     		movs	r3, #0
ARM GAS  /tmp/ccAXZcSG.s 			page 2


  58              		.loc 1 61 0
  59 0016 84E86800 		stmia	r4, {r3, r5, r6}
  60              		.loc 1 62 0
  61 001a 70BD     		pop	{r4, r5, r6, pc}
  62              	.L6:
  63              		.align	2
  64              	.L5:
  65 001c 00000000 		.word	.LC0
  66              		.cfi_endproc
  67              	.LFE7:
  68              		.size	chPoolInit, .-chPoolInit
  69              		.section	.text.chPoolLoadArray,"ax",%progbits
  70              		.align	2
  71              		.p2align 4,,15
  72              		.global	chPoolLoadArray
  73              		.thumb
  74              		.thumb_func
  75              		.type	chPoolLoadArray, %function
  76              	chPoolLoadArray:
  77              	.LFB8:
  78              		.loc 1 77 0
  79              		.cfi_startproc
  80              		@ args = 0, pretend = 0, frame = 0
  81              		@ frame_needed = 0, uses_anonymous_args = 0
  82              	.LVL3:
  83 0000 2DE9F041 		push	{r4, r5, r6, r7, r8, lr}
  84              	.LCFI1:
  85              		.cfi_def_cfa_offset 24
  86              		.cfi_offset 14, -4
  87              		.cfi_offset 8, -8
  88              		.cfi_offset 7, -12
  89              		.cfi_offset 6, -16
  90              		.cfi_offset 5, -20
  91              		.cfi_offset 4, -24
  92              		.loc 1 77 0
  93 0004 0446     		mov	r4, r0
  94 0006 0D46     		mov	r5, r1
  95 0008 1646     		mov	r6, r2
  96              		.loc 1 79 0
  97 000a 0028     		cmp	r0, #0
  98 000c 74D0     		beq	.L8
  99              		.loc 1 79 0 is_stmt 0 discriminator 2
 100 000e 002A     		cmp	r2, #0
 101 0010 61D0     		beq	.L9
 102 0012 571E     		subs	r7, r2, #1
 103 0014 07F00107 		and	r7, r7, #1
 104              	.LVL4:
 105              	.LBB8:
 106              	.LBB9:
 107              	.LBB10:
 108              		.loc 1 166 0 is_stmt 1
 109 0018 2023     		movs	r3, #32
 110              	.LVL5:
 111              	@ 166 "../../ChibiOS/os/kernel/src/chmempools.c" 1
 112 001a 83F31188 		msr     BASEPRI, r3
 113              	@ 0 "" 2
 114              	.LVL6:
ARM GAS  /tmp/ccAXZcSG.s 			page 3


 115              		.thumb
 116              	.LBE10:
 117 001e FFF7FEFF 		bl	dbg_check_lock
 118              	.LVL7:
 119              	.LBB11:
 120              	.LBB12:
 121              		.loc 1 145 0
 122 0022 FFF7FEFF 		bl	chDbgCheckClassI
 123              		.loc 1 146 0
 124 0026 002D     		cmp	r5, #0
 125 0028 5CD0     		beq	.L33
 126              	.L22:
 127              		.loc 1 148 0
 128 002a 2368     		ldr	r3, [r4, #0]
 129 002c 2B60     		str	r3, [r5, #0]
 130              		.loc 1 149 0
 131 002e 2560     		str	r5, [r4, #0]
 132              	.LBE12:
 133              	.LBE11:
 134              		.loc 1 168 0
 135 0030 FFF7FEFF 		bl	dbg_check_unlock
 136              	.LBB22:
 137 0034 0023     		movs	r3, #0
 138              	.LVL8:
 139              	@ 168 "../../ChibiOS/os/kernel/src/chmempools.c" 1
 140 0036 83F31188 		msr     BASEPRI, r3
 141              	@ 0 "" 2
 142              	.LVL9:
 143              		.thumb
 144              	.LBE22:
 145              	.LBE9:
 146              	.LBE8:
 147              		.loc 1 83 0
 148 003a 6268     		ldr	r2, [r4, #4]
 149              		.loc 1 81 0
 150 003c 013E     		subs	r6, r6, #1
 151              	.LVL10:
 152              		.loc 1 83 0
 153 003e 1544     		add	r5, r5, r2
 154              	.LVL11:
 155              		.loc 1 81 0
 156 0040 47D0     		beq	.L7
 157 0042 002F     		cmp	r7, #0
 158 0044 34D0     		beq	.L15
 159              	.LBB55:
 160              	.LBB46:
 161              	.LBB23:
 162              		.loc 1 166 0
 163 0046 2023     		movs	r3, #32
 164              	.LVL12:
 165              	@ 166 "../../ChibiOS/os/kernel/src/chmempools.c" 1
 166 0048 83F31188 		msr     BASEPRI, r3
 167              	@ 0 "" 2
 168              	.LVL13:
 169              		.thumb
 170              	.LBE23:
 171 004c FFF7FEFF 		bl	dbg_check_lock
ARM GAS  /tmp/ccAXZcSG.s 			page 4


 172              	.LVL14:
 173              	.LBB24:
 174              	.LBB13:
 175              		.loc 1 145 0
 176 0050 FFF7FEFF 		bl	chDbgCheckClassI
 177              		.loc 1 146 0
 178 0054 002D     		cmp	r5, #0
 179 0056 49D0     		beq	.L34
 180              	.L24:
 181              		.loc 1 148 0
 182 0058 2168     		ldr	r1, [r4, #0]
 183 005a 2960     		str	r1, [r5, #0]
 184              		.loc 1 149 0
 185 005c 2560     		str	r5, [r4, #0]
 186              	.LBE13:
 187              	.LBE24:
 188              		.loc 1 168 0
 189 005e FFF7FEFF 		bl	dbg_check_unlock
 190              	.LBB25:
 191 0062 0023     		movs	r3, #0
 192              	@ 168 "../../ChibiOS/os/kernel/src/chmempools.c" 1
 193 0064 83F31188 		msr     BASEPRI, r3
 194              	@ 0 "" 2
 195              	.LVL15:
 196              		.thumb
 197              	.LBE25:
 198              	.LBE46:
 199              	.LBE55:
 200              		.loc 1 83 0
 201 0068 6068     		ldr	r0, [r4, #4]
 202              		.loc 1 81 0
 203 006a 013E     		subs	r6, r6, #1
 204              		.loc 1 83 0
 205 006c 0544     		add	r5, r5, r0
 206              		.loc 1 81 0
 207 006e 1FD1     		bne	.L15
 208 0070 40E0     		b	.L40
 209              	.LVL16:
 210              	.L10:
 211              	.LBB56:
 212              	.LBB47:
 213              	.LBB26:
 214              	.LBB14:
 215              		.loc 1 148 0
 216 0072 2068     		ldr	r0, [r4, #0]
 217 0074 2860     		str	r0, [r5, #0]
 218              		.loc 1 149 0
 219 0076 2560     		str	r5, [r4, #0]
 220              	.LBE14:
 221              	.LBE26:
 222              		.loc 1 168 0
 223 0078 FFF7FEFF 		bl	dbg_check_unlock
 224              	.LBB27:
 225 007c 0023     		movs	r3, #0
 226              	@ 168 "../../ChibiOS/os/kernel/src/chmempools.c" 1
 227 007e 83F31188 		msr     BASEPRI, r3
 228              	@ 0 "" 2
ARM GAS  /tmp/ccAXZcSG.s 			page 5


 229              	.LVL17:
 230              		.thumb
 231              	.LBE27:
 232              	.LBE47:
 233              	.LBE56:
 234              		.loc 1 83 0
 235 0082 6368     		ldr	r3, [r4, #4]
 236              	.LVL18:
 237              		.loc 1 84 0
 238 0084 013E     		subs	r6, r6, #1
 239              		.loc 1 83 0
 240 0086 ED18     		adds	r5, r5, r3
 241              	.LBB57:
 242              	.LBB48:
 243              	.LBB28:
 244              		.loc 1 166 0
 245 0088 2023     		movs	r3, #32
 246              	@ 166 "../../ChibiOS/os/kernel/src/chmempools.c" 1
 247 008a 83F31188 		msr     BASEPRI, r3
 248              	@ 0 "" 2
 249              	.LVL19:
 250              		.thumb
 251              	.LBE28:
 252 008e FFF7FEFF 		bl	dbg_check_lock
 253              	.LVL20:
 254              	.LBB29:
 255              	.LBB15:
 256              		.loc 1 145 0
 257 0092 FFF7FEFF 		bl	chDbgCheckClassI
 258              		.loc 1 146 0
 259 0096 C5B1     		cbz	r5, .L36
 260              	.L27:
 261              		.loc 1 148 0
 262 0098 2368     		ldr	r3, [r4, #0]
 263 009a 2B60     		str	r3, [r5, #0]
 264              		.loc 1 149 0
 265 009c 2560     		str	r5, [r4, #0]
 266              	.LBE15:
 267              	.LBE29:
 268              		.loc 1 168 0
 269 009e FFF7FEFF 		bl	dbg_check_unlock
 270              	.LBB30:
 271 00a2 0023     		movs	r3, #0
 272              	@ 168 "../../ChibiOS/os/kernel/src/chmempools.c" 1
 273 00a4 83F31188 		msr     BASEPRI, r3
 274              	@ 0 "" 2
 275              	.LVL21:
 276              		.thumb
 277              	.LBE30:
 278              	.LBE48:
 279              	.LBE57:
 280              		.loc 1 83 0
 281 00a8 6268     		ldr	r2, [r4, #4]
 282              		.loc 1 81 0
 283 00aa 013E     		subs	r6, r6, #1
 284              		.loc 1 83 0
 285 00ac 1544     		add	r5, r5, r2
ARM GAS  /tmp/ccAXZcSG.s 			page 6


 286              		.loc 1 81 0
 287 00ae 17D0     		beq	.L37
 288              	.L15:
 289              	.LBB58:
 290              	.LBB49:
 291              	.LBB31:
 292              		.loc 1 166 0
 293 00b0 2023     		movs	r3, #32
 294              	.LVL22:
 295              	@ 166 "../../ChibiOS/os/kernel/src/chmempools.c" 1
 296 00b2 83F31188 		msr     BASEPRI, r3
 297              	@ 0 "" 2
 298              	.LVL23:
 299              		.thumb
 300              	.LBE31:
 301 00b6 FFF7FEFF 		bl	dbg_check_lock
 302              	.LVL24:
 303              	.LBB32:
 304              	.LBB16:
 305              		.loc 1 145 0
 306 00ba FFF7FEFF 		bl	chDbgCheckClassI
 307              		.loc 1 146 0
 308 00be 002D     		cmp	r5, #0
 309 00c0 D7D1     		bne	.L10
 310 00c2 4248     		ldr	r0, .L41
 311 00c4 FFF7FEFF 		bl	chDbgPanic
 312 00c8 D3E7     		b	.L10
 313              	.L36:
 314 00ca 4048     		ldr	r0, .L41
 315 00cc FFF7FEFF 		bl	chDbgPanic
 316 00d0 E2E7     		b	.L27
 317              	.LVL25:
 318              	.L7:
 319 00d2 BDE8F081 		pop	{r4, r5, r6, r7, r8, pc}
 320              	.LVL26:
 321              	.L9:
 322              	.LBE16:
 323              	.LBE32:
 324              	.LBE49:
 325              	.LBE58:
 326              		.loc 1 79 0
 327 00d6 3E48     		ldr	r0, .L41+4
 328              		.loc 1 86 0
 329 00d8 BDE8F041 		pop	{r4, r5, r6, r7, r8, lr}
 330              		.loc 1 79 0
 331 00dc FFF7FEBF 		b	chDbgPanic
 332              	.LVL27:
 333              	.L37:
 334 00e0 BDE8F081 		pop	{r4, r5, r6, r7, r8, pc}
 335              	.LVL28:
 336              	.L33:
 337              	.LBB59:
 338              	.LBB50:
 339              	.LBB33:
 340              	.LBB17:
 341              		.loc 1 146 0
 342 00e4 3948     		ldr	r0, .L41
ARM GAS  /tmp/ccAXZcSG.s 			page 7


 343 00e6 FFF7FEFF 		bl	chDbgPanic
 344 00ea 9EE7     		b	.L22
 345              	.LVL29:
 346              	.L34:
 347 00ec 3748     		ldr	r0, .L41
 348 00ee FFF7FEFF 		bl	chDbgPanic
 349 00f2 B1E7     		b	.L24
 350              	.LVL30:
 351              	.L40:
 352 00f4 BDE8F081 		pop	{r4, r5, r6, r7, r8, pc}
 353              	.LVL31:
 354              	.L8:
 355              	.LBE17:
 356              	.LBE33:
 357              	.LBE50:
 358              	.LBE59:
 359              		.loc 1 79 0 discriminator 1
 360 00f8 3548     		ldr	r0, .L41+4
 361 00fa FFF7FEFF 		bl	chDbgPanic
 362              	.LVL32:
 363              		.loc 1 81 0 discriminator 1
 364 00fe 002E     		cmp	r6, #0
 365 0100 E7D0     		beq	.L7
 366 0102 013E     		subs	r6, r6, #1
 367              	.LVL33:
 368 0104 06F00107 		and	r7, r6, #1
 369              	.LVL34:
 370              	.LBB60:
 371              	.LBB51:
 372              	.LBB34:
 373              		.loc 1 166 0
 374 0108 2023     		movs	r3, #32
 375              	@ 166 "../../ChibiOS/os/kernel/src/chmempools.c" 1
 376 010a 83F31188 		msr     BASEPRI, r3
 377              	@ 0 "" 2
 378              	.LVL35:
 379              		.thumb
 380              	.LBE34:
 381 010e FFF7FEFF 		bl	dbg_check_lock
 382              	.LVL36:
 383              	.LBB35:
 384              	.LBB18:
 385              		.loc 1 145 0
 386 0112 FFF7FEFF 		bl	chDbgCheckClassI
 387              		.loc 1 146 0
 388 0116 2D48     		ldr	r0, .L41
 389 0118 FFF7FEFF 		bl	chDbgPanic
 390              		.loc 1 148 0
 391 011c 2268     		ldr	r2, [r4, #0]
 392 011e 2A60     		str	r2, [r5, #0]
 393              		.loc 1 149 0
 394 0120 2560     		str	r5, [r4, #0]
 395              	.LBE18:
 396              	.LBE35:
 397              		.loc 1 168 0
 398 0122 FFF7FEFF 		bl	dbg_check_unlock
 399              	.LBB36:
ARM GAS  /tmp/ccAXZcSG.s 			page 8


 400 0126 2346     		mov	r3, r4
 401              	@ 168 "../../ChibiOS/os/kernel/src/chmempools.c" 1
 402 0128 83F31188 		msr     BASEPRI, r3
 403              	@ 0 "" 2
 404              	.LVL37:
 405              		.thumb
 406              	.LBE36:
 407              	.LBE51:
 408              	.LBE60:
 409              		.loc 1 83 0
 410 012c 6168     		ldr	r1, [r4, #4]
 411 012e 6D18     		adds	r5, r5, r1
 412              	.LVL38:
 413              		.loc 1 81 0
 414 0130 002E     		cmp	r6, #0
 415 0132 48D0     		beq	.L38
 416 0134 AFB1     		cbz	r7, .L14
 417              	.LBB61:
 418              	.LBB52:
 419              	.LBB37:
 420              		.loc 1 166 0
 421 0136 2023     		movs	r3, #32
 422              	.LVL39:
 423              	@ 166 "../../ChibiOS/os/kernel/src/chmempools.c" 1
 424 0138 83F31188 		msr     BASEPRI, r3
 425              	@ 0 "" 2
 426              	.LVL40:
 427              		.thumb
 428              	.LBE37:
 429 013c FFF7FEFF 		bl	dbg_check_lock
 430              	.LVL41:
 431              	.LBB38:
 432              	.LBB19:
 433              		.loc 1 145 0
 434 0140 FFF7FEFF 		bl	chDbgCheckClassI
 435              		.loc 1 146 0
 436 0144 2148     		ldr	r0, .L41
 437 0146 FFF7FEFF 		bl	chDbgPanic
 438              		.loc 1 148 0
 439 014a 2168     		ldr	r1, [r4, #0]
 440 014c 2960     		str	r1, [r5, #0]
 441              		.loc 1 149 0
 442 014e 2560     		str	r5, [r4, #0]
 443              	.LBE19:
 444              	.LBE38:
 445              		.loc 1 168 0
 446 0150 FFF7FEFF 		bl	dbg_check_unlock
 447              	.LBB39:
 448 0154 2346     		mov	r3, r4
 449              	@ 168 "../../ChibiOS/os/kernel/src/chmempools.c" 1
 450 0156 83F31188 		msr     BASEPRI, r3
 451              	@ 0 "" 2
 452              	.LVL42:
 453              		.thumb
 454              	.LBE39:
 455              	.LBE52:
 456              	.LBE61:
ARM GAS  /tmp/ccAXZcSG.s 			page 9


 457              		.loc 1 83 0
 458 015a 6068     		ldr	r0, [r4, #4]
 459              		.loc 1 81 0
 460 015c 013E     		subs	r6, r6, #1
 461              	.LVL43:
 462              		.loc 1 83 0
 463 015e 0544     		add	r5, r5, r0
 464              	.LVL44:
 465              		.loc 1 81 0
 466 0160 2FD0     		beq	.L39
 467              	.L14:
 468              	.LBB62:
 469              	.LBB53:
 470              	.LBB40:
 471              		.loc 1 166 0
 472 0162 2023     		movs	r3, #32
 473              	.LVL45:
 474              	@ 166 "../../ChibiOS/os/kernel/src/chmempools.c" 1
 475 0164 83F31188 		msr     BASEPRI, r3
 476              	@ 0 "" 2
 477              	.LVL46:
 478              		.thumb
 479              	.LBE40:
 480 0168 FFF7FEFF 		bl	dbg_check_lock
 481              	.LVL47:
 482              	.LBB41:
 483              	.LBB20:
 484              		.loc 1 145 0
 485 016c FFF7FEFF 		bl	chDbgCheckClassI
 486              		.loc 1 146 0
 487 0170 1648     		ldr	r0, .L41
 488 0172 FFF7FEFF 		bl	chDbgPanic
 489              		.loc 1 148 0
 490 0176 2768     		ldr	r7, [r4, #0]
 491 0178 2F60     		str	r7, [r5, #0]
 492              		.loc 1 149 0
 493 017a 2560     		str	r5, [r4, #0]
 494              	.LBE20:
 495              	.LBE41:
 496              		.loc 1 168 0
 497 017c FFF7FEFF 		bl	dbg_check_unlock
 498              	.LBB42:
 499 0180 0023     		movs	r3, #0
 500              	@ 168 "../../ChibiOS/os/kernel/src/chmempools.c" 1
 501 0182 83F31188 		msr     BASEPRI, r3
 502              	@ 0 "" 2
 503              	.LVL48:
 504              		.thumb
 505              	.LBE42:
 506              	.LBE53:
 507              	.LBE62:
 508              		.loc 1 83 0
 509 0186 D4F80480 		ldr	r8, [r4, #4]
 510              		.loc 1 84 0
 511 018a 013E     		subs	r6, r6, #1
 512              		.loc 1 83 0
 513 018c 05EB0807 		add	r7, r5, r8
ARM GAS  /tmp/ccAXZcSG.s 			page 10


 514              	.LBB63:
 515              	.LBB54:
 516              	.LBB43:
 517              		.loc 1 166 0
 518 0190 2023     		movs	r3, #32
 519              	.LVL49:
 520              	@ 166 "../../ChibiOS/os/kernel/src/chmempools.c" 1
 521 0192 83F31188 		msr     BASEPRI, r3
 522              	@ 0 "" 2
 523              	.LVL50:
 524              		.thumb
 525              	.LBE43:
 526 0196 FFF7FEFF 		bl	dbg_check_lock
 527              	.LVL51:
 528              	.LBB44:
 529              	.LBB21:
 530              		.loc 1 145 0
 531 019a FFF7FEFF 		bl	chDbgCheckClassI
 532              		.loc 1 146 0
 533 019e 0B48     		ldr	r0, .L41
 534 01a0 FFF7FEFF 		bl	chDbgPanic
 535              		.loc 1 148 0
 536 01a4 2368     		ldr	r3, [r4, #0]
 537 01a6 45F80830 		str	r3, [r5, r8]
 538              		.loc 1 149 0
 539 01aa 2760     		str	r7, [r4, #0]
 540              	.LBE21:
 541              	.LBE44:
 542              		.loc 1 168 0
 543 01ac FFF7FEFF 		bl	dbg_check_unlock
 544              	.LBB45:
 545 01b0 0023     		movs	r3, #0
 546              	@ 168 "../../ChibiOS/os/kernel/src/chmempools.c" 1
 547 01b2 83F31188 		msr     BASEPRI, r3
 548              	@ 0 "" 2
 549              	.LVL52:
 550              		.thumb
 551              	.LBE45:
 552              	.LBE54:
 553              	.LBE63:
 554              		.loc 1 83 0
 555 01b6 6568     		ldr	r5, [r4, #4]
 556              		.loc 1 81 0
 557 01b8 013E     		subs	r6, r6, #1
 558              		.loc 1 83 0
 559 01ba 3D44     		add	r5, r7, r5
 560              		.loc 1 81 0
 561 01bc D1D1     		bne	.L14
 562 01be BDE8F081 		pop	{r4, r5, r6, r7, r8, pc}
 563              	.L39:
 564 01c2 BDE8F081 		pop	{r4, r5, r6, r7, r8, pc}
 565              	.LVL53:
 566              	.L38:
 567 01c6 BDE8F081 		pop	{r4, r5, r6, r7, r8, pc}
 568              	.L42:
 569 01ca 00BF     		.align	2
 570              	.L41:
ARM GAS  /tmp/ccAXZcSG.s 			page 11


 571 01cc 10000000 		.word	.LC1
 572 01d0 20000000 		.word	.LC2
 573              		.cfi_endproc
 574              	.LFE8:
 575              		.size	chPoolLoadArray, .-chPoolLoadArray
 576 01d4 AFF30080 		.section	.text.chPoolAllocI,"ax",%progbits
 576      AFF30080 
 576      AFF30080 
 577              		.align	2
 578              		.p2align 4,,15
 579              		.global	chPoolAllocI
 580              		.thumb
 581              		.thumb_func
 582              		.type	chPoolAllocI, %function
 583              	chPoolAllocI:
 584              	.LFB9:
 585              		.loc 1 98 0
 586              		.cfi_startproc
 587              		@ args = 0, pretend = 0, frame = 0
 588              		@ frame_needed = 0, uses_anonymous_args = 0
 589              	.LVL54:
 590 0000 10B5     		push	{r4, lr}
 591              	.LCFI2:
 592              		.cfi_def_cfa_offset 8
 593              		.cfi_offset 14, -4
 594              		.cfi_offset 4, -8
 595              		.loc 1 98 0
 596 0002 0446     		mov	r4, r0
 597              		.loc 1 101 0
 598 0004 FFF7FEFF 		bl	chDbgCheckClassI
 599              	.LVL55:
 600              		.loc 1 102 0
 601 0008 4CB1     		cbz	r4, .L47
 602              	.L44:
 603              		.loc 1 104 0
 604 000a 2068     		ldr	r0, [r4, #0]
 605              	.LVL56:
 606 000c 10B1     		cbz	r0, .L45
 607              		.loc 1 105 0
 608 000e 0368     		ldr	r3, [r0, #0]
 609 0010 2360     		str	r3, [r4, #0]
 610 0012 10BD     		pop	{r4, pc}
 611              	.L45:
 612              		.loc 1 106 0
 613 0014 A368     		ldr	r3, [r4, #8]
 614 0016 0BB1     		cbz	r3, .L46
 615              		.loc 1 107 0
 616 0018 6068     		ldr	r0, [r4, #4]
 617 001a 9847     		blx	r3
 618              	.LVL57:
 619              	.L46:
 620              		.loc 1 109 0
 621 001c 10BD     		pop	{r4, pc}
 622              	.LVL58:
 623              	.L47:
 624              		.loc 1 102 0 discriminator 1
 625 001e 0248     		ldr	r0, .L48
ARM GAS  /tmp/ccAXZcSG.s 			page 12


 626 0020 FFF7FEFF 		bl	chDbgPanic
 627 0024 F1E7     		b	.L44
 628              	.L49:
 629 0026 00BF     		.align	2
 630              	.L48:
 631 0028 34000000 		.word	.LC3
 632              		.cfi_endproc
 633              	.LFE9:
 634              		.size	chPoolAllocI, .-chPoolAllocI
 635 002c AFF30080 		.section	.text.chPoolAlloc,"ax",%progbits
 636              		.align	2
 637              		.p2align 4,,15
 638              		.global	chPoolAlloc
 639              		.thumb
 640              		.thumb_func
 641              		.type	chPoolAlloc, %function
 642              	chPoolAlloc:
 643              	.LFB10:
 644              		.loc 1 121 0
 645              		.cfi_startproc
 646              		@ args = 0, pretend = 0, frame = 0
 647              		@ frame_needed = 0, uses_anonymous_args = 0
 648              	.LVL59:
 649 0000 38B5     		push	{r3, r4, r5, lr}
 650              	.LCFI3:
 651              		.cfi_def_cfa_offset 16
 652              		.cfi_offset 14, -4
 653              		.cfi_offset 5, -8
 654              		.cfi_offset 4, -12
 655              		.cfi_offset 3, -16
 656              		.loc 1 121 0
 657 0002 0446     		mov	r4, r0
 658              	.LBB68:
 659              		.loc 1 124 0
 660 0004 2023     		movs	r3, #32
 661              	.LVL60:
 662              	@ 124 "../../ChibiOS/os/kernel/src/chmempools.c" 1
 663 0006 83F31188 		msr     BASEPRI, r3
 664              	@ 0 "" 2
 665              	.LVL61:
 666              		.thumb
 667              	.LBE68:
 668 000a FFF7FEFF 		bl	dbg_check_lock
 669              	.LVL62:
 670              	.LBB69:
 671              	.LBB70:
 672              		.loc 1 101 0
 673 000e FFF7FEFF 		bl	chDbgCheckClassI
 674              		.loc 1 102 0
 675 0012 BCB1     		cbz	r4, .L54
 676              	.L51:
 677              		.loc 1 104 0
 678 0014 2568     		ldr	r5, [r4, #0]
 679              	.LVL63:
 680 0016 45B1     		cbz	r5, .L52
 681              		.loc 1 105 0
 682 0018 2B68     		ldr	r3, [r5, #0]
ARM GAS  /tmp/ccAXZcSG.s 			page 13


 683 001a 2360     		str	r3, [r4, #0]
 684              	.L53:
 685              	.LBE70:
 686              	.LBE69:
 687              		.loc 1 126 0
 688 001c FFF7FEFF 		bl	dbg_check_unlock
 689              	.LVL64:
 690              	.LBB73:
 691 0020 0023     		movs	r3, #0
 692              	.LVL65:
 693              	@ 126 "../../ChibiOS/os/kernel/src/chmempools.c" 1
 694 0022 83F31188 		msr     BASEPRI, r3
 695              	@ 0 "" 2
 696              	.LVL66:
 697              		.thumb
 698              	.LBE73:
 699              		.loc 1 128 0
 700 0026 2846     		mov	r0, r5
 701 0028 38BD     		pop	{r3, r4, r5, pc}
 702              	.LVL67:
 703              	.L52:
 704              	.LBB74:
 705              	.LBB71:
 706              		.loc 1 106 0
 707 002a A368     		ldr	r3, [r4, #8]
 708 002c 002B     		cmp	r3, #0
 709 002e F5D0     		beq	.L53
 710              		.loc 1 107 0
 711 0030 6068     		ldr	r0, [r4, #4]
 712 0032 9847     		blx	r3
 713 0034 0546     		mov	r5, r0
 714              	.LVL68:
 715              	.LBE71:
 716              	.LBE74:
 717              		.loc 1 126 0
 718 0036 FFF7FEFF 		bl	dbg_check_unlock
 719              	.LVL69:
 720              	.LBB75:
 721 003a 0023     		movs	r3, #0
 722              	@ 126 "../../ChibiOS/os/kernel/src/chmempools.c" 1
 723 003c 83F31188 		msr     BASEPRI, r3
 724              	@ 0 "" 2
 725              	.LVL70:
 726              		.thumb
 727              	.LBE75:
 728              		.loc 1 128 0
 729 0040 2846     		mov	r0, r5
 730 0042 38BD     		pop	{r3, r4, r5, pc}
 731              	.LVL71:
 732              	.L54:
 733              	.LBB76:
 734              	.LBB72:
 735              		.loc 1 102 0
 736 0044 0148     		ldr	r0, .L55
 737 0046 FFF7FEFF 		bl	chDbgPanic
 738 004a E3E7     		b	.L51
 739              	.L56:
ARM GAS  /tmp/ccAXZcSG.s 			page 14


 740              		.align	2
 741              	.L55:
 742 004c 34000000 		.word	.LC3
 743              	.LBE72:
 744              	.LBE76:
 745              		.cfi_endproc
 746              	.LFE10:
 747              		.size	chPoolAlloc, .-chPoolAlloc
 748              		.section	.text.chPoolFreeI,"ax",%progbits
 749              		.align	2
 750              		.p2align 4,,15
 751              		.global	chPoolFreeI
 752              		.thumb
 753              		.thumb_func
 754              		.type	chPoolFreeI, %function
 755              	chPoolFreeI:
 756              	.LFB11:
 757              		.loc 1 142 0
 758              		.cfi_startproc
 759              		@ args = 0, pretend = 0, frame = 0
 760              		@ frame_needed = 0, uses_anonymous_args = 0
 761              	.LVL72:
 762 0000 38B5     		push	{r3, r4, r5, lr}
 763              	.LCFI4:
 764              		.cfi_def_cfa_offset 16
 765              		.cfi_offset 14, -4
 766              		.cfi_offset 5, -8
 767              		.cfi_offset 4, -12
 768              		.cfi_offset 3, -16
 769              		.loc 1 142 0
 770 0002 0446     		mov	r4, r0
 771 0004 0D46     		mov	r5, r1
 772              	.LVL73:
 773              		.loc 1 145 0
 774 0006 FFF7FEFF 		bl	chDbgCheckClassI
 775              	.LVL74:
 776              		.loc 1 146 0
 777 000a 24B1     		cbz	r4, .L58
 778              		.loc 1 146 0 is_stmt 0 discriminator 2
 779 000c 1DB1     		cbz	r5, .L58
 780              		.loc 1 148 0 is_stmt 1
 781 000e 2368     		ldr	r3, [r4, #0]
 782 0010 2B60     		str	r3, [r5, #0]
 783              		.loc 1 149 0
 784 0012 2560     		str	r5, [r4, #0]
 785              		.loc 1 150 0
 786 0014 38BD     		pop	{r3, r4, r5, pc}
 787              	.L58:
 788              		.loc 1 146 0 discriminator 1
 789 0016 0348     		ldr	r0, .L60
 790 0018 FFF7FEFF 		bl	chDbgPanic
 791              		.loc 1 148 0 discriminator 1
 792 001c 2368     		ldr	r3, [r4, #0]
 793 001e 2B60     		str	r3, [r5, #0]
 794              		.loc 1 149 0 discriminator 1
 795 0020 2560     		str	r5, [r4, #0]
 796              		.loc 1 150 0 discriminator 1
ARM GAS  /tmp/ccAXZcSG.s 			page 15


 797 0022 38BD     		pop	{r3, r4, r5, pc}
 798              	.L61:
 799              		.align	2
 800              	.L60:
 801 0024 10000000 		.word	.LC1
 802              		.cfi_endproc
 803              	.LFE11:
 804              		.size	chPoolFreeI, .-chPoolFreeI
 805 0028 AFF30080 		.section	.text.chPoolFree,"ax",%progbits
 805      AFF30080 
 806              		.align	2
 807              		.p2align 4,,15
 808              		.global	chPoolFree
 809              		.thumb
 810              		.thumb_func
 811              		.type	chPoolFree, %function
 812              	chPoolFree:
 813              	.LFB12:
 814              		.loc 1 164 0
 815              		.cfi_startproc
 816              		@ args = 0, pretend = 0, frame = 0
 817              		@ frame_needed = 0, uses_anonymous_args = 0
 818              	.LVL75:
 819 0000 38B5     		push	{r3, r4, r5, lr}
 820              	.LCFI5:
 821              		.cfi_def_cfa_offset 16
 822              		.cfi_offset 14, -4
 823              		.cfi_offset 5, -8
 824              		.cfi_offset 4, -12
 825              		.cfi_offset 3, -16
 826              		.loc 1 164 0
 827 0002 0446     		mov	r4, r0
 828 0004 0D46     		mov	r5, r1
 829              	.LBB81:
 830              		.loc 1 166 0
 831 0006 2023     		movs	r3, #32
 832              	.LVL76:
 833              	@ 166 "../../ChibiOS/os/kernel/src/chmempools.c" 1
 834 0008 83F31188 		msr     BASEPRI, r3
 835              	@ 0 "" 2
 836              	.LVL77:
 837              		.thumb
 838              	.LBE81:
 839 000c FFF7FEFF 		bl	dbg_check_lock
 840              	.LVL78:
 841              	.LBB82:
 842              	.LBB83:
 843              		.loc 1 145 0
 844 0010 FFF7FEFF 		bl	chDbgCheckClassI
 845              		.loc 1 146 0
 846 0014 4CB1     		cbz	r4, .L63
 847 0016 45B1     		cbz	r5, .L63
 848              	.L64:
 849              		.loc 1 148 0
 850 0018 2368     		ldr	r3, [r4, #0]
 851 001a 2B60     		str	r3, [r5, #0]
 852              		.loc 1 149 0
ARM GAS  /tmp/ccAXZcSG.s 			page 16


 853 001c 2560     		str	r5, [r4, #0]
 854              	.LBE83:
 855              	.LBE82:
 856              		.loc 1 168 0
 857 001e FFF7FEFF 		bl	dbg_check_unlock
 858              	.LBB85:
 859 0022 0023     		movs	r3, #0
 860              	.LVL79:
 861              	@ 168 "../../ChibiOS/os/kernel/src/chmempools.c" 1
 862 0024 83F31188 		msr     BASEPRI, r3
 863              	@ 0 "" 2
 864              	.LVL80:
 865              		.thumb
 866              	.LBE85:
 867              		.loc 1 169 0
 868 0028 38BD     		pop	{r3, r4, r5, pc}
 869              	.LVL81:
 870              	.L63:
 871              	.LBB86:
 872              	.LBB84:
 873              		.loc 1 146 0
 874 002a 0248     		ldr	r0, .L65
 875 002c FFF7FEFF 		bl	chDbgPanic
 876 0030 F2E7     		b	.L64
 877              	.L66:
 878 0032 00BF     		.align	2
 879              	.L65:
 880 0034 10000000 		.word	.LC1
 881              	.LBE84:
 882              	.LBE86:
 883              		.cfi_endproc
 884              	.LFE12:
 885              		.size	chPoolFree, .-chPoolFree
 886 0038 AFF30080 		.section	.rodata.str1.4,"aMS",%progbits,1
 886      AFF30080 
 887              		.align	2
 888              	.LC0:
 889 0000 22636850 		.ascii	"\"chPoolInit\"()\000"
 889      6F6F6C49 
 889      6E697422 
 889      282900
 890 000f 00       		.space	1
 891              	.LC1:
 892 0010 22636850 		.ascii	"\"chPoolFreeI\"()\000"
 892      6F6F6C46 
 892      72656549 
 892      22282900 
 893              	.LC2:
 894 0020 22636850 		.ascii	"\"chPoolLoadArray\"()\000"
 894      6F6F6C4C 
 894      6F616441 
 894      72726179 
 894      22282900 
 895              	.LC3:
 896 0034 22636850 		.ascii	"\"chPoolAllocI\"()\000"
 896      6F6F6C41 
 896      6C6C6F63 
ARM GAS  /tmp/ccAXZcSG.s 			page 17


 896      49222829 
 896      00
 897 0045 000000   		.text
 898              	.Letext0:
 899              		.file 2 "/home/tino/ChibiStudio/tools/GNU Tools ARM Embedded/4.6 2012q2/bin/../lib/gcc/arm-none-ea
 900              		.file 3 "/home/tino/ChibiStudio/tools/GNU Tools ARM Embedded/4.6 2012q2/bin/../lib/gcc/arm-none-ea
 901              		.file 4 "../../ChibiOS/os/kernel/include/chmemcore.h"
 902              		.file 5 "../../ChibiOS/os/kernel/include/chmempools.h"