ARM GAS  /tmp/cc3SEjWf.s 			page 1


   1              		.syntax unified
   2              		.cpu cortex-m3
   3              		.fpu softvfp
   4              		.eabi_attribute 20, 1
   5              		.eabi_attribute 21, 1
   6              		.eabi_attribute 23, 3
   7              		.eabi_attribute 24, 1
   8              		.eabi_attribute 25, 1
   9              		.eabi_attribute 26, 1
  10              		.eabi_attribute 30, 2
  11              		.eabi_attribute 34, 1
  12              		.eabi_attribute 18, 4
  13              		.thumb
  14              		.file	"chmsg.c"
  15              		.text
  16              	.Ltext0:
  17              		.cfi_sections	.debug_frame
  18              		.section	.text.chMsgSend,"ax",%progbits
  19              		.align	2
  20              		.p2align 4,,15
  21              		.global	chMsgSend
  22              		.thumb
  23              		.thumb_func
  24              		.type	chMsgSend, %function
  25              	chMsgSend:
  26              	.LFB7:
  27              		.file 1 "../../ChibiOS/os/kernel/src/chmsg.c"
  28              		.loc 1 68 0
  29              		.cfi_startproc
  30              		@ args = 0, pretend = 0, frame = 0
  31              		@ frame_needed = 0, uses_anonymous_args = 0
  32              	.LVL0:
  33              		.loc 1 69 0
  34 0000 154B     		ldr	r3, .L7
  35              		.loc 1 68 0
  36 0002 70B5     		push	{r4, r5, r6, lr}
  37              	.LCFI0:
  38              		.cfi_def_cfa_offset 16
  39              		.cfi_offset 14, -4
  40              		.cfi_offset 6, -8
  41              		.cfi_offset 5, -12
  42              		.cfi_offset 4, -16
  43              		.loc 1 68 0
  44 0004 0446     		mov	r4, r0
  45 0006 0E46     		mov	r6, r1
  46              		.loc 1 69 0
  47 0008 9D69     		ldr	r5, [r3, #24]
  48              	.LVL1:
  49              		.loc 1 71 0
  50 000a 00B3     		cbz	r0, .L5
  51              	.LVL2:
  52              	.L2:
  53              	.LBB10:
  54              		.loc 1 73 0
  55 000c 2023     		movs	r3, #32
  56              	.LVL3:
  57              	@ 73 "../../ChibiOS/os/kernel/src/chmsg.c" 1
ARM GAS  /tmp/cc3SEjWf.s 			page 2


  58 000e 83F31188 		msr     BASEPRI, r3
  59              	@ 0 "" 2
  60              	.LVL4:
  61              		.thumb
  62              	.LBE10:
  63 0012 FFF7FEFF 		bl	dbg_check_lock
  64              	.LVL5:
  65              		.loc 1 75 0
  66 0016 04F13002 		add	r2, r4, #48
  67 001a AA62     		str	r2, [r5, #40]
  68              	.LVL6:
  69              		.loc 1 77 0
  70 001c 94F82010 		ldrb	r1, [r4, #32]	@ zero_extendqisi2
  71              	.LBB11:
  72              	.LBB12:
  73              		.file 2 "../../ChibiOS/os/kernel/include/chinline.h"
  74              		.loc 2 48 0
  75 0020 606B     		ldr	r0, [r4, #52]
  76              	.LBE12:
  77              	.LBE11:
  78              		.loc 1 77 0
  79 0022 0C29     		cmp	r1, #12
  80              	.LBB15:
  81              	.LBB13:
  82              		.loc 2 47 0
  83 0024 2A60     		str	r2, [r5, #0]
  84              	.LBE13:
  85              	.LBE15:
  86              		.loc 1 74 0
  87 0026 AE63     		str	r6, [r5, #56]
  88              	.LBB16:
  89              	.LBB14:
  90              		.loc 2 48 0
  91 0028 6860     		str	r0, [r5, #4]
  92              		.loc 2 49 0
  93 002a 6563     		str	r5, [r4, #52]
  94 002c 0560     		str	r5, [r0, #0]
  95              	.LBE14:
  96              	.LBE16:
  97              		.loc 1 77 0
  98 002e 0AD0     		beq	.L6
  99              	.LVL7:
 100              	.L3:
 101              		.loc 1 79 0
 102 0030 0A20     		movs	r0, #10
 103 0032 FFF7FEFF 		bl	chSchGoSleepS
 104              		.loc 1 80 0
 105 0036 AC6A     		ldr	r4, [r5, #40]
 106              	.LVL8:
 107              		.loc 1 81 0
 108 0038 FFF7FEFF 		bl	dbg_check_unlock
 109              	.LVL9:
 110              	.LBB17:
 111 003c 0023     		movs	r3, #0
 112              	.LVL10:
 113              	@ 81 "../../ChibiOS/os/kernel/src/chmsg.c" 1
 114 003e 83F31188 		msr     BASEPRI, r3
ARM GAS  /tmp/cc3SEjWf.s 			page 3


 115              	@ 0 "" 2
 116              	.LVL11:
 117              		.thumb
 118              	.LBE17:
 119              		.loc 1 83 0
 120 0042 2046     		mov	r0, r4
 121 0044 70BD     		pop	{r4, r5, r6, pc}
 122              	.LVL12:
 123              	.L6:
 124              		.loc 1 78 0
 125 0046 2046     		mov	r0, r4
 126 0048 FFF7FEFF 		bl	chSchReadyI
 127              	.LVL13:
 128 004c F0E7     		b	.L3
 129              	.LVL14:
 130              	.L5:
 131              		.loc 1 71 0 discriminator 1
 132 004e 0348     		ldr	r0, .L7+4
 133 0050 FFF7FEFF 		bl	chDbgPanic
 134 0054 DAE7     		b	.L2
 135              	.L8:
 136 0056 00BF     		.align	2
 137              	.L7:
 138 0058 00000000 		.word	rlist
 139 005c 00000000 		.word	.LC0
 140              		.cfi_endproc
 141              	.LFE7:
 142              		.size	chMsgSend, .-chMsgSend
 143              		.section	.text.chMsgWait,"ax",%progbits
 144              		.align	2
 145              		.p2align 4,,15
 146              		.global	chMsgWait
 147              		.thumb
 148              		.thumb_func
 149              		.type	chMsgWait, %function
 150              	chMsgWait:
 151              	.LFB8:
 152              		.loc 1 99 0
 153              		.cfi_startproc
 154              		@ args = 0, pretend = 0, frame = 0
 155              		@ frame_needed = 0, uses_anonymous_args = 0
 156 0000 38B5     		push	{r3, r4, r5, lr}
 157              	.LCFI1:
 158              		.cfi_def_cfa_offset 16
 159              		.cfi_offset 14, -4
 160              		.cfi_offset 5, -8
 161              		.cfi_offset 4, -12
 162              		.cfi_offset 3, -16
 163              	.LBB18:
 164              		.loc 1 102 0
 165 0002 2023     		movs	r3, #32
 166              	.LVL15:
 167              	@ 102 "../../ChibiOS/os/kernel/src/chmsg.c" 1
 168 0004 83F31188 		msr     BASEPRI, r3
 169              	@ 0 "" 2
 170              	.LVL16:
 171              		.thumb
ARM GAS  /tmp/cc3SEjWf.s 			page 4


 172              	.LBE18:
 173              		.loc 1 103 0
 174 0008 0E4D     		ldr	r5, .L12
 175              		.loc 1 102 0
 176 000a FFF7FEFF 		bl	dbg_check_lock
 177              	.LVL17:
 178              		.loc 1 103 0
 179 000e AA69     		ldr	r2, [r5, #24]
 180 0010 1346     		mov	r3, r2
 181 0012 53F8304F 		ldr	r4, [r3, #48]!
 182 0016 9C42     		cmp	r4, r3
 183 0018 0CD0     		beq	.L11
 184              	.L10:
 185              	.LVL18:
 186              	.LBB19:
 187              	.LBB20:
 188              		.loc 2 55 0
 189 001a 2168     		ldr	r1, [r4, #0]
 190 001c 1163     		str	r1, [r2, #48]
 191 001e 4B60     		str	r3, [r1, #4]
 192              	.LBE20:
 193              	.LBE19:
 194              		.loc 1 106 0
 195 0020 0B23     		movs	r3, #11
 196 0022 84F82030 		strb	r3, [r4, #32]
 197              		.loc 1 107 0
 198 0026 FFF7FEFF 		bl	dbg_check_unlock
 199              	.LVL19:
 200              	.LBB21:
 201 002a 0023     		movs	r3, #0
 202              	.LVL20:
 203              	@ 107 "../../ChibiOS/os/kernel/src/chmsg.c" 1
 204 002c 83F31188 		msr     BASEPRI, r3
 205              	@ 0 "" 2
 206              	.LVL21:
 207              		.thumb
 208              	.LBE21:
 209              		.loc 1 109 0
 210 0030 2046     		mov	r0, r4
 211 0032 38BD     		pop	{r3, r4, r5, pc}
 212              	.LVL22:
 213              	.L11:
 214              		.loc 1 104 0
 215 0034 0C20     		movs	r0, #12
 216 0036 FFF7FEFF 		bl	chSchGoSleepS
 217 003a AA69     		ldr	r2, [r5, #24]
 218 003c 1346     		mov	r3, r2
 219 003e 53F8304F 		ldr	r4, [r3, #48]!
 220 0042 EAE7     		b	.L10
 221              	.L13:
 222              		.align	2
 223              	.L12:
 224 0044 00000000 		.word	rlist
 225              		.cfi_endproc
 226              	.LFE8:
 227              		.size	chMsgWait, .-chMsgWait
 228 0048 AFF30080 		.section	.text.chMsgRelease,"ax",%progbits
ARM GAS  /tmp/cc3SEjWf.s 			page 5


 228      AFF30080 
 229              		.align	2
 230              		.p2align 4,,15
 231              		.global	chMsgRelease
 232              		.thumb
 233              		.thumb_func
 234              		.type	chMsgRelease, %function
 235              	chMsgRelease:
 236              	.LFB9:
 237              		.loc 1 121 0
 238              		.cfi_startproc
 239              		@ args = 0, pretend = 0, frame = 0
 240              		@ frame_needed = 0, uses_anonymous_args = 0
 241              	.LVL23:
 242 0000 38B5     		push	{r3, r4, r5, lr}
 243              	.LCFI2:
 244              		.cfi_def_cfa_offset 16
 245              		.cfi_offset 14, -4
 246              		.cfi_offset 5, -8
 247              		.cfi_offset 4, -12
 248              		.cfi_offset 3, -16
 249              		.loc 1 121 0
 250 0002 0446     		mov	r4, r0
 251 0004 0D46     		mov	r5, r1
 252              	.LBB22:
 253              		.loc 1 123 0
 254 0006 2023     		movs	r3, #32
 255              	.LVL24:
 256              	@ 123 "../../ChibiOS/os/kernel/src/chmsg.c" 1
 257 0008 83F31188 		msr     BASEPRI, r3
 258              	@ 0 "" 2
 259              	.LVL25:
 260              		.thumb
 261              	.LBE22:
 262 000c FFF7FEFF 		bl	dbg_check_lock
 263              	.LVL26:
 264              		.loc 1 124 0
 265 0010 94F82030 		ldrb	r3, [r4, #32]	@ zero_extendqisi2
 266 0014 0B2B     		cmp	r3, #11
 267 0016 02D0     		beq	.L15
 268              		.loc 1 124 0 is_stmt 0 discriminator 1
 269 0018 0648     		ldr	r0, .L16
 270 001a FFF7FEFF 		bl	chDbgPanic
 271              	.L15:
 272              		.loc 1 126 0 is_stmt 1
 273 001e 2046     		mov	r0, r4
 274 0020 2946     		mov	r1, r5
 275 0022 FFF7FEFF 		bl	chSchWakeupS
 276              		.loc 1 127 0
 277 0026 FFF7FEFF 		bl	dbg_check_unlock
 278              	.LBB23:
 279 002a 0023     		movs	r3, #0
 280              	.LVL27:
 281              	@ 127 "../../ChibiOS/os/kernel/src/chmsg.c" 1
 282 002c 83F31188 		msr     BASEPRI, r3
 283              	@ 0 "" 2
 284              	.LVL28:
ARM GAS  /tmp/cc3SEjWf.s 			page 6


 285              		.thumb
 286              	.LBE23:
 287              		.loc 1 128 0
 288 0030 38BD     		pop	{r3, r4, r5, pc}
 289              	.L17:
 290 0032 00BF     		.align	2
 291              	.L16:
 292 0034 10000000 		.word	.LC1
 293              		.cfi_endproc
 294              	.LFE9:
 295              		.size	chMsgRelease, .-chMsgRelease
 296 0038 AFF30080 		.section	.rodata.str1.4,"aMS",%progbits,1
 296      AFF30080 
 297              		.align	2
 298              	.LC0:
 299 0000 2263684D 		.ascii	"\"chMsgSend\"()\000"
 299      73675365 
 299      6E642228 
 299      2900
 300 000e 0000     		.space	2
 301              	.LC1:
 302 0010 63684D73 		.ascii	"chMsgRelease(), #1\000"
 302      6752656C 
 302      65617365 
 302      28292C20 
 302      233100
 303 0023 00       		.text
 304              	.Letext0:
 305              		.file 3 "/home/tino/ChibiStudio/tools/GNU Tools ARM Embedded/4.6 2012q2/bin/../lib/gcc/arm-none-ea
 306              		.file 4 "../../ChibiOS/os/ports/GCC/ARMCMx/chtypes.h"
 307              		.file 5 "../../ChibiOS/os/kernel/include/chlists.h"
 308              		.file 6 "../../ChibiOS/os/kernel/include/chthreads.h"
 309              		.file 7 "../../ChibiOS/os/ports/GCC/ARMCMx/chcore_v7m.h"
 310              		.file 8 "../../ChibiOS/os/kernel/include/chschd.h"
 311              		.file 9 "../../ChibiOS/os/kernel/include/chmtx.h"
 312              		.section	.debug_info,"",%progbits
 313              	.Ldebug_info0:
 314 0000 69060000 		.4byte	0x669
 315 0004 0200     		.2byte	0x2
 316 0006 00000000 		.4byte	.Ldebug_abbrev0
 317 000a 04       		.byte	0x4
 318 000b 01       		.uleb128 0x1
 319 000c A4000000 		.4byte	.LASF68
 320 0010 01       		.byte	0x1
 321 0011 43000000 		.4byte	.LASF69
 322 0015 ED000000 		.4byte	.LASF70
 323 0019 00000000 		.4byte	0
 324 001d 00000000 		.4byte	0
 325 0021 20000000 		.4byte	.Ldebug_ranges0+0x20
 326 0025 00000000 		.4byte	.Ldebug_line0
 327 0029 02       		.uleb128 0x2
 328 002a 04       		.byte	0x4
 329 002b 05       		.byte	0x5
 330 002c 696E7400 		.ascii	"int\000"
 331 0030 03       		.uleb128 0x3
 332 0031 04       		.byte	0x4
 333 0032 07       		.byte	0x7
ARM GAS  /tmp/cc3SEjWf.s 			page 7


 334 0033 4B010000 		.4byte	.LASF0
 335 0037 03       		.uleb128 0x3
 336 0038 01       		.byte	0x1
 337 0039 06       		.byte	0x6
 338 003a 75000000 		.4byte	.LASF1
 339 003e 04       		.uleb128 0x4
 340 003f 07030000 		.4byte	.LASF5
 341 0043 03       		.byte	0x3
 342 0044 2A       		.byte	0x2a
 343 0045 49000000 		.4byte	0x49
 344 0049 03       		.uleb128 0x3
 345 004a 01       		.byte	0x1
 346 004b 08       		.byte	0x8
 347 004c 1F020000 		.4byte	.LASF2
 348 0050 03       		.uleb128 0x3
 349 0051 02       		.byte	0x2
 350 0052 05       		.byte	0x5
 351 0053 37020000 		.4byte	.LASF3
 352 0057 03       		.uleb128 0x3
 353 0058 02       		.byte	0x2
 354 0059 07       		.byte	0x7
 355 005a 7C010000 		.4byte	.LASF4
 356 005e 04       		.uleb128 0x4
 357 005f 17020000 		.4byte	.LASF6
 358 0063 03       		.byte	0x3
 359 0064 4F       		.byte	0x4f
 360 0065 69000000 		.4byte	0x69
 361 0069 03       		.uleb128 0x3
 362 006a 04       		.byte	0x4
 363 006b 05       		.byte	0x5
 364 006c 9B000000 		.4byte	.LASF7
 365 0070 04       		.uleb128 0x4
 366 0071 8F020000 		.4byte	.LASF8
 367 0075 03       		.byte	0x3
 368 0076 50       		.byte	0x50
 369 0077 7B000000 		.4byte	0x7b
 370 007b 03       		.uleb128 0x3
 371 007c 04       		.byte	0x4
 372 007d 07       		.byte	0x7
 373 007e 58010000 		.4byte	.LASF9
 374 0082 03       		.uleb128 0x3
 375 0083 08       		.byte	0x8
 376 0084 05       		.byte	0x5
 377 0085 67000000 		.4byte	.LASF10
 378 0089 04       		.uleb128 0x4
 379 008a 1A000000 		.4byte	.LASF11
 380 008e 03       		.byte	0x3
 381 008f 78       		.byte	0x78
 382 0090 94000000 		.4byte	0x94
 383 0094 03       		.uleb128 0x3
 384 0095 08       		.byte	0x8
 385 0096 07       		.byte	0x7
 386 0097 23000000 		.4byte	.LASF12
 387 009b 03       		.uleb128 0x3
 388 009c 01       		.byte	0x1
 389 009d 02       		.byte	0x2
 390 009e 11020000 		.4byte	.LASF13
ARM GAS  /tmp/cc3SEjWf.s 			page 8


 391 00a2 04       		.uleb128 0x4
 392 00a3 95010000 		.4byte	.LASF14
 393 00a7 04       		.byte	0x4
 394 00a8 25       		.byte	0x25
 395 00a9 3E000000 		.4byte	0x3e
 396 00ad 04       		.uleb128 0x4
 397 00ae 1E010000 		.4byte	.LASF15
 398 00b2 04       		.byte	0x4
 399 00b3 26       		.byte	0x26
 400 00b4 3E000000 		.4byte	0x3e
 401 00b8 04       		.uleb128 0x4
 402 00b9 FA010000 		.4byte	.LASF16
 403 00bd 04       		.byte	0x4
 404 00be 27       		.byte	0x27
 405 00bf 3E000000 		.4byte	0x3e
 406 00c3 04       		.uleb128 0x4
 407 00c4 91000000 		.4byte	.LASF17
 408 00c8 04       		.byte	0x4
 409 00c9 28       		.byte	0x28
 410 00ca 3E000000 		.4byte	0x3e
 411 00ce 04       		.uleb128 0x4
 412 00cf 09020000 		.4byte	.LASF18
 413 00d3 04       		.byte	0x4
 414 00d4 29       		.byte	0x29
 415 00d5 70000000 		.4byte	0x70
 416 00d9 04       		.uleb128 0x4
 417 00da 8F010000 		.4byte	.LASF19
 418 00de 04       		.byte	0x4
 419 00df 2A       		.byte	0x2a
 420 00e0 5E000000 		.4byte	0x5e
 421 00e4 04       		.uleb128 0x4
 422 00e5 A9010000 		.4byte	.LASF20
 423 00e9 04       		.byte	0x4
 424 00ea 2C       		.byte	0x2c
 425 00eb 70000000 		.4byte	0x70
 426 00ef 04       		.uleb128 0x4
 427 00f0 B8020000 		.4byte	.LASF21
 428 00f4 04       		.byte	0x4
 429 00f5 2E       		.byte	0x2e
 430 00f6 70000000 		.4byte	0x70
 431 00fa 04       		.uleb128 0x4
 432 00fb 70020000 		.4byte	.LASF22
 433 00ff 05       		.byte	0x5
 434 0100 23       		.byte	0x23
 435 0101 05010000 		.4byte	0x105
 436 0105 05       		.uleb128 0x5
 437 0106 70020000 		.4byte	.LASF22
 438 010a 4C       		.byte	0x4c
 439 010b 06       		.byte	0x6
 440 010c 57       		.byte	0x57
 441 010d 38020000 		.4byte	0x238
 442 0111 06       		.uleb128 0x6
 443 0112 61020000 		.4byte	.LASF23
 444 0116 06       		.byte	0x6
 445 0117 58       		.byte	0x58
 446 0118 5D020000 		.4byte	0x25d
 447 011c 02       		.byte	0x2
ARM GAS  /tmp/cc3SEjWf.s 			page 9


 448 011d 23       		.byte	0x23
 449 011e 00       		.uleb128 0
 450 011f 06       		.uleb128 0x6
 451 0120 02020000 		.4byte	.LASF24
 452 0124 06       		.byte	0x6
 453 0125 5A       		.byte	0x5a
 454 0126 5D020000 		.4byte	0x25d
 455 012a 02       		.byte	0x2
 456 012b 23       		.byte	0x23
 457 012c 04       		.uleb128 0x4
 458 012d 06       		.uleb128 0x6
 459 012e C6010000 		.4byte	.LASF25
 460 0132 06       		.byte	0x6
 461 0133 5C       		.byte	0x5c
 462 0134 CE000000 		.4byte	0xce
 463 0138 02       		.byte	0x2
 464 0139 23       		.byte	0x23
 465 013a 08       		.uleb128 0x8
 466 013b 06       		.uleb128 0x6
 467 013c 25030000 		.4byte	.LASF26
 468 0140 06       		.byte	0x6
 469 0141 5D       		.byte	0x5d
 470 0142 36030000 		.4byte	0x336
 471 0146 02       		.byte	0x2
 472 0147 23       		.byte	0x23
 473 0148 0C       		.uleb128 0xc
 474 0149 06       		.uleb128 0x6
 475 014a 27010000 		.4byte	.LASF27
 476 014e 06       		.byte	0x6
 477 014f 5F       		.byte	0x5f
 478 0150 5D020000 		.4byte	0x25d
 479 0154 02       		.byte	0x2
 480 0155 23       		.byte	0x23
 481 0156 10       		.uleb128 0x10
 482 0157 06       		.uleb128 0x6
 483 0158 CD010000 		.4byte	.LASF28
 484 015c 06       		.byte	0x6
 485 015d 60       		.byte	0x60
 486 015e 5D020000 		.4byte	0x25d
 487 0162 02       		.byte	0x2
 488 0163 23       		.byte	0x23
 489 0164 14       		.uleb128 0x14
 490 0165 06       		.uleb128 0x6
 491 0166 16030000 		.4byte	.LASF29
 492 016a 06       		.byte	0x6
 493 016b 67       		.byte	0x67
 494 016c 43040000 		.4byte	0x443
 495 0170 02       		.byte	0x2
 496 0171 23       		.byte	0x23
 497 0172 18       		.uleb128 0x18
 498 0173 06       		.uleb128 0x6
 499 0174 40010000 		.4byte	.LASF30
 500 0178 06       		.byte	0x6
 501 0179 6D       		.byte	0x6d
 502 017a 55040000 		.4byte	0x455
 503 017e 02       		.byte	0x2
 504 017f 23       		.byte	0x23
ARM GAS  /tmp/cc3SEjWf.s 			page 10


 505 0180 1C       		.uleb128 0x1c
 506 0181 06       		.uleb128 0x6
 507 0182 41020000 		.4byte	.LASF31
 508 0186 06       		.byte	0x6
 509 0187 72       		.byte	0x72
 510 0188 AD000000 		.4byte	0xad
 511 018c 02       		.byte	0x2
 512 018d 23       		.byte	0x23
 513 018e 20       		.uleb128 0x20
 514 018f 06       		.uleb128 0x6
 515 0190 68020000 		.4byte	.LASF32
 516 0194 06       		.byte	0x6
 517 0195 76       		.byte	0x76
 518 0196 A2000000 		.4byte	0xa2
 519 019a 02       		.byte	0x2
 520 019b 23       		.byte	0x23
 521 019c 21       		.uleb128 0x21
 522 019d 06       		.uleb128 0x6
 523 019e F0020000 		.4byte	.LASF33
 524 01a2 06       		.byte	0x6
 525 01a3 7B       		.byte	0x7b
 526 01a4 B8000000 		.4byte	0xb8
 527 01a8 02       		.byte	0x2
 528 01a9 23       		.byte	0x23
 529 01aa 22       		.uleb128 0x22
 530 01ab 06       		.uleb128 0x6
 531 01ac 49020000 		.4byte	.LASF34
 532 01b0 06       		.byte	0x6
 533 01b1 81       		.byte	0x81
 534 01b2 C3000000 		.4byte	0xc3
 535 01b6 02       		.byte	0x2
 536 01b7 23       		.byte	0x23
 537 01b8 23       		.uleb128 0x23
 538 01b9 06       		.uleb128 0x6
 539 01ba CD020000 		.4byte	.LASF35
 540 01be 06       		.byte	0x6
 541 01bf 88       		.byte	0x88
 542 01c0 59030000 		.4byte	0x359
 543 01c4 02       		.byte	0x2
 544 01c5 23       		.byte	0x23
 545 01c6 24       		.uleb128 0x24
 546 01c7 07       		.uleb128 0x7
 547 01c8 705F7500 		.ascii	"p_u\000"
 548 01cc 06       		.byte	0x6
 549 01cd AD       		.byte	0xad
 550 01ce 0E040000 		.4byte	0x40e
 551 01d2 02       		.byte	0x2
 552 01d3 23       		.byte	0x23
 553 01d4 28       		.uleb128 0x28
 554 01d5 06       		.uleb128 0x6
 555 01d6 2B030000 		.4byte	.LASF36
 556 01da 06       		.byte	0x6
 557 01db B2       		.byte	0xb2
 558 01dc 85020000 		.4byte	0x285
 559 01e0 02       		.byte	0x2
 560 01e1 23       		.byte	0x23
 561 01e2 2C       		.uleb128 0x2c
ARM GAS  /tmp/cc3SEjWf.s 			page 11


 562 01e3 06       		.uleb128 0x6
 563 01e4 DB020000 		.4byte	.LASF37
 564 01e8 06       		.byte	0x6
 565 01e9 B8       		.byte	0xb8
 566 01ea 63020000 		.4byte	0x263
 567 01ee 02       		.byte	0x2
 568 01ef 23       		.byte	0x23
 569 01f0 30       		.uleb128 0x30
 570 01f1 06       		.uleb128 0x6
 571 01f2 00000000 		.4byte	.LASF38
 572 01f6 06       		.byte	0x6
 573 01f7 BC       		.byte	0xbc
 574 01f8 D9000000 		.4byte	0xd9
 575 01fc 02       		.byte	0x2
 576 01fd 23       		.byte	0x23
 577 01fe 38       		.uleb128 0x38
 578 01ff 06       		.uleb128 0x6
 579 0200 84020000 		.4byte	.LASF39
 580 0204 06       		.byte	0x6
 581 0205 C2       		.byte	0xc2
 582 0206 E4000000 		.4byte	0xe4
 583 020a 02       		.byte	0x2
 584 020b 23       		.byte	0x23
 585 020c 3C       		.uleb128 0x3c
 586 020d 06       		.uleb128 0x6
 587 020e 2D020000 		.4byte	.LASF40
 588 0212 06       		.byte	0x6
 589 0213 C9       		.byte	0xc9
 590 0214 5B040000 		.4byte	0x45b
 591 0218 02       		.byte	0x2
 592 0219 23       		.byte	0x23
 593 021a 40       		.uleb128 0x40
 594 021b 06       		.uleb128 0x6
 595 021c C2020000 		.4byte	.LASF41
 596 0220 06       		.byte	0x6
 597 0221 CD       		.byte	0xcd
 598 0222 CE000000 		.4byte	0xce
 599 0226 02       		.byte	0x2
 600 0227 23       		.byte	0x23
 601 0228 44       		.uleb128 0x44
 602 0229 06       		.uleb128 0x6
 603 022a 81000000 		.4byte	.LASF42
 604 022e 06       		.byte	0x6
 605 022f D3       		.byte	0xd3
 606 0230 9B020000 		.4byte	0x29b
 607 0234 02       		.byte	0x2
 608 0235 23       		.byte	0x23
 609 0236 48       		.uleb128 0x48
 610 0237 00       		.byte	0
 611 0238 08       		.uleb128 0x8
 612 0239 08       		.byte	0x8
 613 023a 05       		.byte	0x5
 614 023b 5A       		.byte	0x5a
 615 023c 5D020000 		.4byte	0x25d
 616 0240 06       		.uleb128 0x6
 617 0241 61020000 		.4byte	.LASF23
 618 0245 05       		.byte	0x5
ARM GAS  /tmp/cc3SEjWf.s 			page 12


 619 0246 5B       		.byte	0x5b
 620 0247 5D020000 		.4byte	0x25d
 621 024b 02       		.byte	0x2
 622 024c 23       		.byte	0x23
 623 024d 00       		.uleb128 0
 624 024e 06       		.uleb128 0x6
 625 024f 02020000 		.4byte	.LASF24
 626 0253 05       		.byte	0x5
 627 0254 5D       		.byte	0x5d
 628 0255 5D020000 		.4byte	0x25d
 629 0259 02       		.byte	0x2
 630 025a 23       		.byte	0x23
 631 025b 04       		.uleb128 0x4
 632 025c 00       		.byte	0
 633 025d 09       		.uleb128 0x9
 634 025e 04       		.byte	0x4
 635 025f FA000000 		.4byte	0xfa
 636 0263 04       		.uleb128 0x4
 637 0264 DB010000 		.4byte	.LASF43
 638 0268 05       		.byte	0x5
 639 0269 5F       		.byte	0x5f
 640 026a 38020000 		.4byte	0x238
 641 026e 08       		.uleb128 0x8
 642 026f 04       		.byte	0x4
 643 0270 05       		.byte	0x5
 644 0271 64       		.byte	0x64
 645 0272 85020000 		.4byte	0x285
 646 0276 06       		.uleb128 0x6
 647 0277 61020000 		.4byte	.LASF23
 648 027b 05       		.byte	0x5
 649 027c 66       		.byte	0x66
 650 027d 5D020000 		.4byte	0x25d
 651 0281 02       		.byte	0x2
 652 0282 23       		.byte	0x23
 653 0283 00       		.uleb128 0
 654 0284 00       		.byte	0
 655 0285 04       		.uleb128 0x4
 656 0286 9D010000 		.4byte	.LASF44
 657 028a 05       		.byte	0x5
 658 028b 69       		.byte	0x69
 659 028c 6E020000 		.4byte	0x26e
 660 0290 04       		.uleb128 0x4
 661 0291 37010000 		.4byte	.LASF45
 662 0295 07       		.byte	0x7
 663 0296 DE       		.byte	0xde
 664 0297 9B020000 		.4byte	0x29b
 665 029b 0A       		.uleb128 0xa
 666 029c 04       		.byte	0x4
 667 029d 04       		.uleb128 0x4
 668 029e BB010000 		.4byte	.LASF46
 669 02a2 07       		.byte	0x7
 670 02a3 E4       		.byte	0xe4
 671 02a4 89000000 		.4byte	0x89
 672 02a8 0B       		.uleb128 0xb
 673 02a9 D4020000 		.4byte	.LASF47
 674 02ad 24       		.byte	0x24
 675 02ae 07       		.byte	0x7
ARM GAS  /tmp/cc3SEjWf.s 			page 13


 676 02af 0501     		.2byte	0x105
 677 02b1 36030000 		.4byte	0x336
 678 02b5 0C       		.uleb128 0xc
 679 02b6 723400   		.ascii	"r4\000"
 680 02b9 07       		.byte	0x7
 681 02ba 1801     		.2byte	0x118
 682 02bc 90020000 		.4byte	0x290
 683 02c0 02       		.byte	0x2
 684 02c1 23       		.byte	0x23
 685 02c2 00       		.uleb128 0
 686 02c3 0C       		.uleb128 0xc
 687 02c4 723500   		.ascii	"r5\000"
 688 02c7 07       		.byte	0x7
 689 02c8 1901     		.2byte	0x119
 690 02ca 90020000 		.4byte	0x290
 691 02ce 02       		.byte	0x2
 692 02cf 23       		.byte	0x23
 693 02d0 04       		.uleb128 0x4
 694 02d1 0C       		.uleb128 0xc
 695 02d2 723600   		.ascii	"r6\000"
 696 02d5 07       		.byte	0x7
 697 02d6 1A01     		.2byte	0x11a
 698 02d8 90020000 		.4byte	0x290
 699 02dc 02       		.byte	0x2
 700 02dd 23       		.byte	0x23
 701 02de 08       		.uleb128 0x8
 702 02df 0C       		.uleb128 0xc
 703 02e0 723700   		.ascii	"r7\000"
 704 02e3 07       		.byte	0x7
 705 02e4 1B01     		.2byte	0x11b
 706 02e6 90020000 		.4byte	0x290
 707 02ea 02       		.byte	0x2
 708 02eb 23       		.byte	0x23
 709 02ec 0C       		.uleb128 0xc
 710 02ed 0C       		.uleb128 0xc
 711 02ee 723800   		.ascii	"r8\000"
 712 02f1 07       		.byte	0x7
 713 02f2 1C01     		.2byte	0x11c
 714 02f4 90020000 		.4byte	0x290
 715 02f8 02       		.byte	0x2
 716 02f9 23       		.byte	0x23
 717 02fa 10       		.uleb128 0x10
 718 02fb 0C       		.uleb128 0xc
 719 02fc 723900   		.ascii	"r9\000"
 720 02ff 07       		.byte	0x7
 721 0300 1D01     		.2byte	0x11d
 722 0302 90020000 		.4byte	0x290
 723 0306 02       		.byte	0x2
 724 0307 23       		.byte	0x23
 725 0308 14       		.uleb128 0x14
 726 0309 0C       		.uleb128 0xc
 727 030a 72313000 		.ascii	"r10\000"
 728 030e 07       		.byte	0x7
 729 030f 1E01     		.2byte	0x11e
 730 0311 90020000 		.4byte	0x290
 731 0315 02       		.byte	0x2
 732 0316 23       		.byte	0x23
ARM GAS  /tmp/cc3SEjWf.s 			page 14


 733 0317 18       		.uleb128 0x18
 734 0318 0C       		.uleb128 0xc
 735 0319 72313100 		.ascii	"r11\000"
 736 031d 07       		.byte	0x7
 737 031e 1F01     		.2byte	0x11f
 738 0320 90020000 		.4byte	0x290
 739 0324 02       		.byte	0x2
 740 0325 23       		.byte	0x23
 741 0326 1C       		.uleb128 0x1c
 742 0327 0C       		.uleb128 0xc
 743 0328 6C7200   		.ascii	"lr\000"
 744 032b 07       		.byte	0x7
 745 032c 2001     		.2byte	0x120
 746 032e 90020000 		.4byte	0x290
 747 0332 02       		.byte	0x2
 748 0333 23       		.byte	0x23
 749 0334 20       		.uleb128 0x20
 750 0335 00       		.byte	0
 751 0336 0B       		.uleb128 0xb
 752 0337 74010000 		.4byte	.LASF48
 753 033b 04       		.byte	0x4
 754 033c 07       		.byte	0x7
 755 033d 2A01     		.2byte	0x12a
 756 033f 53030000 		.4byte	0x353
 757 0343 0C       		.uleb128 0xc
 758 0344 72313300 		.ascii	"r13\000"
 759 0348 07       		.byte	0x7
 760 0349 2B01     		.2byte	0x12b
 761 034b 53030000 		.4byte	0x353
 762 034f 02       		.byte	0x2
 763 0350 23       		.byte	0x23
 764 0351 00       		.uleb128 0
 765 0352 00       		.byte	0
 766 0353 09       		.uleb128 0x9
 767 0354 04       		.byte	0x4
 768 0355 A8020000 		.4byte	0x2a8
 769 0359 0D       		.uleb128 0xd
 770 035a EF000000 		.4byte	0xef
 771 035e 08       		.uleb128 0x8
 772 035f 1C       		.byte	0x1c
 773 0360 08       		.byte	0x8
 774 0361 57       		.byte	0x57
 775 0362 BB030000 		.4byte	0x3bb
 776 0366 06       		.uleb128 0x6
 777 0367 98020000 		.4byte	.LASF49
 778 036b 08       		.byte	0x8
 779 036c 58       		.byte	0x58
 780 036d 63020000 		.4byte	0x263
 781 0371 02       		.byte	0x2
 782 0372 23       		.byte	0x23
 783 0373 00       		.uleb128 0
 784 0374 06       		.uleb128 0x6
 785 0375 53020000 		.4byte	.LASF50
 786 0379 08       		.byte	0x8
 787 037a 59       		.byte	0x59
 788 037b CE000000 		.4byte	0xce
 789 037f 02       		.byte	0x2
ARM GAS  /tmp/cc3SEjWf.s 			page 15


 790 0380 23       		.byte	0x23
 791 0381 08       		.uleb128 0x8
 792 0382 06       		.uleb128 0x6
 793 0383 D5010000 		.4byte	.LASF51
 794 0387 08       		.byte	0x8
 795 0388 5B       		.byte	0x5b
 796 0389 36030000 		.4byte	0x336
 797 038d 02       		.byte	0x2
 798 038e 23       		.byte	0x23
 799 038f 0C       		.uleb128 0xc
 800 0390 06       		.uleb128 0x6
 801 0391 2F010000 		.4byte	.LASF52
 802 0395 08       		.byte	0x8
 803 0396 5E       		.byte	0x5e
 804 0397 5D020000 		.4byte	0x25d
 805 039b 02       		.byte	0x2
 806 039c 23       		.byte	0x23
 807 039d 10       		.uleb128 0x10
 808 039e 06       		.uleb128 0x6
 809 039f F2010000 		.4byte	.LASF53
 810 03a3 08       		.byte	0x8
 811 03a4 5F       		.byte	0x5f
 812 03a5 5D020000 		.4byte	0x25d
 813 03a9 02       		.byte	0x2
 814 03aa 23       		.byte	0x23
 815 03ab 14       		.uleb128 0x14
 816 03ac 06       		.uleb128 0x6
 817 03ad E8010000 		.4byte	.LASF54
 818 03b1 08       		.byte	0x8
 819 03b2 62       		.byte	0x62
 820 03b3 5D020000 		.4byte	0x25d
 821 03b7 02       		.byte	0x2
 822 03b8 23       		.byte	0x23
 823 03b9 18       		.uleb128 0x18
 824 03ba 00       		.byte	0
 825 03bb 04       		.uleb128 0x4
 826 03bc F7020000 		.4byte	.LASF55
 827 03c0 08       		.byte	0x8
 828 03c1 64       		.byte	0x64
 829 03c2 5E030000 		.4byte	0x35e
 830 03c6 05       		.uleb128 0x5
 831 03c7 B5010000 		.4byte	.LASF56
 832 03cb 10       		.byte	0x10
 833 03cc 09       		.byte	0x9
 834 03cd 25       		.byte	0x25
 835 03ce FD030000 		.4byte	0x3fd
 836 03d2 06       		.uleb128 0x6
 837 03d3 89000000 		.4byte	.LASF57
 838 03d7 09       		.byte	0x9
 839 03d8 26       		.byte	0x26
 840 03d9 63020000 		.4byte	0x263
 841 03dd 02       		.byte	0x2
 842 03de 23       		.byte	0x23
 843 03df 00       		.uleb128 0
 844 03e0 06       		.uleb128 0x6
 845 03e1 1D030000 		.4byte	.LASF58
 846 03e5 09       		.byte	0x9
ARM GAS  /tmp/cc3SEjWf.s 			page 16


 847 03e6 28       		.byte	0x28
 848 03e7 5D020000 		.4byte	0x25d
 849 03eb 02       		.byte	0x2
 850 03ec 23       		.byte	0x23
 851 03ed 08       		.uleb128 0x8
 852 03ee 06       		.uleb128 0x6
 853 03ef B1020000 		.4byte	.LASF59
 854 03f3 09       		.byte	0x9
 855 03f4 2A       		.byte	0x2a
 856 03f5 FD030000 		.4byte	0x3fd
 857 03f9 02       		.byte	0x2
 858 03fa 23       		.byte	0x23
 859 03fb 0C       		.uleb128 0xc
 860 03fc 00       		.byte	0
 861 03fd 09       		.uleb128 0x9
 862 03fe 04       		.byte	0x4
 863 03ff C6030000 		.4byte	0x3c6
 864 0403 04       		.uleb128 0x4
 865 0404 B5010000 		.4byte	.LASF56
 866 0408 09       		.byte	0x9
 867 0409 2C       		.byte	0x2c
 868 040a C6030000 		.4byte	0x3c6
 869 040e 0E       		.uleb128 0xe
 870 040f 04       		.byte	0x4
 871 0410 06       		.byte	0x6
 872 0411 8F       		.byte	0x8f
 873 0412 43040000 		.4byte	0x443
 874 0416 0F       		.uleb128 0xf
 875 0417 13000000 		.4byte	.LASF60
 876 041b 06       		.byte	0x6
 877 041c 96       		.byte	0x96
 878 041d D9000000 		.4byte	0xd9
 879 0421 0F       		.uleb128 0xf
 880 0422 3A000000 		.4byte	.LASF61
 881 0426 06       		.byte	0x6
 882 0427 9D       		.byte	0x9d
 883 0428 D9000000 		.4byte	0xd9
 884 042c 0F       		.uleb128 0xf
 885 042d 0F030000 		.4byte	.LASF62
 886 0431 06       		.byte	0x6
 887 0432 A4       		.byte	0xa4
 888 0433 9B020000 		.4byte	0x29b
 889 0437 0F       		.uleb128 0xf
 890 0438 5A020000 		.4byte	.LASF63
 891 043c 06       		.byte	0x6
 892 043d AB       		.byte	0xab
 893 043e E4000000 		.4byte	0xe4
 894 0442 00       		.byte	0
 895 0443 09       		.uleb128 0x9
 896 0444 04       		.byte	0x4
 897 0445 49040000 		.4byte	0x449
 898 0449 10       		.uleb128 0x10
 899 044a 4E040000 		.4byte	0x44e
 900 044e 03       		.uleb128 0x3
 901 044f 01       		.byte	0x1
 902 0450 08       		.byte	0x8
 903 0451 A0020000 		.4byte	.LASF64
ARM GAS  /tmp/cc3SEjWf.s 			page 17


 904 0455 09       		.uleb128 0x9
 905 0456 04       		.byte	0x4
 906 0457 9D020000 		.4byte	0x29d
 907 045b 09       		.uleb128 0x9
 908 045c 04       		.byte	0x4
 909 045d 03040000 		.4byte	0x403
 910 0461 11       		.uleb128 0x11
 911 0462 06000000 		.4byte	.LASF71
 912 0466 02       		.byte	0x2
 913 0467 2D       		.byte	0x2d
 914 0468 01       		.byte	0x1
 915 0469 03       		.byte	0x3
 916 046a 84040000 		.4byte	0x484
 917 046e 12       		.uleb128 0x12
 918 046f 747000   		.ascii	"tp\000"
 919 0472 02       		.byte	0x2
 920 0473 2D       		.byte	0x2d
 921 0474 5D020000 		.4byte	0x25d
 922 0478 12       		.uleb128 0x12
 923 0479 74717000 		.ascii	"tqp\000"
 924 047d 02       		.byte	0x2
 925 047e 2D       		.byte	0x2d
 926 047f 84040000 		.4byte	0x484
 927 0483 00       		.byte	0
 928 0484 09       		.uleb128 0x9
 929 0485 04       		.byte	0x4
 930 0486 63020000 		.4byte	0x263
 931 048a 13       		.uleb128 0x13
 932 048b A5020000 		.4byte	.LASF72
 933 048f 02       		.byte	0x2
 934 0490 34       		.byte	0x34
 935 0491 01       		.byte	0x1
 936 0492 5D020000 		.4byte	0x25d
 937 0496 03       		.byte	0x3
 938 0497 B1040000 		.4byte	0x4b1
 939 049b 12       		.uleb128 0x12
 940 049c 74717000 		.ascii	"tqp\000"
 941 04a0 02       		.byte	0x2
 942 04a1 34       		.byte	0x34
 943 04a2 84040000 		.4byte	0x484
 944 04a6 14       		.uleb128 0x14
 945 04a7 747000   		.ascii	"tp\000"
 946 04aa 02       		.byte	0x2
 947 04ab 35       		.byte	0x35
 948 04ac 5D020000 		.4byte	0x25d
 949 04b0 00       		.byte	0
 950 04b1 15       		.uleb128 0x15
 951 04b2 01       		.byte	0x1
 952 04b3 6A010000 		.4byte	.LASF65
 953 04b7 01       		.byte	0x1
 954 04b8 44       		.byte	0x44
 955 04b9 01       		.byte	0x1
 956 04ba D9000000 		.4byte	0xd9
 957 04be 00000000 		.4byte	.LFB7
 958 04c2 60000000 		.4byte	.LFE7
 959 04c6 00000000 		.4byte	.LLST0
 960 04ca 57050000 		.4byte	0x557
ARM GAS  /tmp/cc3SEjWf.s 			page 18


 961 04ce 16       		.uleb128 0x16
 962 04cf 747000   		.ascii	"tp\000"
 963 04d2 01       		.byte	0x1
 964 04d3 44       		.byte	0x44
 965 04d4 5D020000 		.4byte	0x25d
 966 04d8 20000000 		.4byte	.LLST1
 967 04dc 16       		.uleb128 0x16
 968 04dd 6D736700 		.ascii	"msg\000"
 969 04e1 01       		.byte	0x1
 970 04e2 44       		.byte	0x44
 971 04e3 D9000000 		.4byte	0xd9
 972 04e7 49000000 		.4byte	.LLST2
 973 04eb 17       		.uleb128 0x17
 974 04ec 63747000 		.ascii	"ctp\000"
 975 04f0 01       		.byte	0x1
 976 04f1 45       		.byte	0x45
 977 04f2 5D020000 		.4byte	0x25d
 978 04f6 89000000 		.4byte	.LLST3
 979 04fa 18       		.uleb128 0x18
 980 04fb 0C000000 		.4byte	.LBB10
 981 04ff 12000000 		.4byte	.LBE10
 982 0503 17050000 		.4byte	0x517
 983 0507 17       		.uleb128 0x17
 984 0508 746D7000 		.ascii	"tmp\000"
 985 050c 01       		.byte	0x1
 986 050d 49       		.byte	0x49
 987 050e 70000000 		.4byte	0x70
 988 0512 A8000000 		.4byte	.LLST4
 989 0516 00       		.byte	0
 990 0517 19       		.uleb128 0x19
 991 0518 61040000 		.4byte	0x461
 992 051c 20000000 		.4byte	.LBB11
 993 0520 00000000 		.4byte	.Ldebug_ranges0+0
 994 0524 01       		.byte	0x1
 995 0525 4C       		.byte	0x4c
 996 0526 3D050000 		.4byte	0x53d
 997 052a 1A       		.uleb128 0x1a
 998 052b 78040000 		.4byte	0x478
 999 052f BB000000 		.4byte	.LLST5
 1000 0533 1A       		.uleb128 0x1a
 1001 0534 6E040000 		.4byte	0x46e
 1002 0538 D9000000 		.4byte	.LLST6
 1003 053c 00       		.byte	0
 1004 053d 1B       		.uleb128 0x1b
 1005 053e 3C000000 		.4byte	.LBB17
 1006 0542 42000000 		.4byte	.LBE17
 1007 0546 17       		.uleb128 0x17
 1008 0547 746D7000 		.ascii	"tmp\000"
 1009 054b 01       		.byte	0x1
 1010 054c 51       		.byte	0x51
 1011 054d 70000000 		.4byte	0x70
 1012 0551 EC000000 		.4byte	.LLST7
 1013 0555 00       		.byte	0
 1014 0556 00       		.byte	0
 1015 0557 15       		.uleb128 0x15
 1016 0558 01       		.byte	0x1
 1017 0559 E6020000 		.4byte	.LASF66
ARM GAS  /tmp/cc3SEjWf.s 			page 19


 1018 055d 01       		.byte	0x1
 1019 055e 63       		.byte	0x63
 1020 055f 01       		.byte	0x1
 1021 0560 5D020000 		.4byte	0x25d
 1022 0564 00000000 		.4byte	.LFB8
 1023 0568 48000000 		.4byte	.LFE8
 1024 056c FF000000 		.4byte	.LLST8
 1025 0570 E5050000 		.4byte	0x5e5
 1026 0574 14       		.uleb128 0x14
 1027 0575 747000   		.ascii	"tp\000"
 1028 0578 01       		.byte	0x1
 1029 0579 64       		.byte	0x64
 1030 057a 5D020000 		.4byte	0x25d
 1031 057e 18       		.uleb128 0x18
 1032 057f 02000000 		.4byte	.LBB18
 1033 0583 08000000 		.4byte	.LBE18
 1034 0587 9B050000 		.4byte	0x59b
 1035 058b 17       		.uleb128 0x17
 1036 058c 746D7000 		.ascii	"tmp\000"
 1037 0590 01       		.byte	0x1
 1038 0591 66       		.byte	0x66
 1039 0592 70000000 		.4byte	0x70
 1040 0596 1F010000 		.4byte	.LLST9
 1041 059a 00       		.byte	0
 1042 059b 1C       		.uleb128 0x1c
 1043 059c 8A040000 		.4byte	0x48a
 1044 05a0 1A000000 		.4byte	.LBB19
 1045 05a4 20000000 		.4byte	.LBE19
 1046 05a8 01       		.byte	0x1
 1047 05a9 69       		.byte	0x69
 1048 05aa CB050000 		.4byte	0x5cb
 1049 05ae 1A       		.uleb128 0x1a
 1050 05af 9B040000 		.4byte	0x49b
 1051 05b3 32010000 		.4byte	.LLST10
 1052 05b7 1B       		.uleb128 0x1b
 1053 05b8 1A000000 		.4byte	.LBB20
 1054 05bc 20000000 		.4byte	.LBE20
 1055 05c0 1D       		.uleb128 0x1d
 1056 05c1 A6040000 		.4byte	0x4a6
 1057 05c5 47010000 		.4byte	.LLST11
 1058 05c9 00       		.byte	0
 1059 05ca 00       		.byte	0
 1060 05cb 1B       		.uleb128 0x1b
 1061 05cc 2A000000 		.4byte	.LBB21
 1062 05d0 30000000 		.4byte	.LBE21
 1063 05d4 17       		.uleb128 0x17
 1064 05d5 746D7000 		.ascii	"tmp\000"
 1065 05d9 01       		.byte	0x1
 1066 05da 6B       		.byte	0x6b
 1067 05db 70000000 		.4byte	0x70
 1068 05df 5A010000 		.4byte	.LLST12
 1069 05e3 00       		.byte	0
 1070 05e4 00       		.byte	0
 1071 05e5 1E       		.uleb128 0x1e
 1072 05e6 01       		.byte	0x1
 1073 05e7 77020000 		.4byte	.LASF73
 1074 05eb 01       		.byte	0x1
ARM GAS  /tmp/cc3SEjWf.s 			page 20


 1075 05ec 79       		.byte	0x79
 1076 05ed 01       		.byte	0x1
 1077 05ee 00000000 		.4byte	.LFB9
 1078 05f2 38000000 		.4byte	.LFE9
 1079 05f6 6D010000 		.4byte	.LLST13
 1080 05fa 52060000 		.4byte	0x652
 1081 05fe 16       		.uleb128 0x16
 1082 05ff 747000   		.ascii	"tp\000"
 1083 0602 01       		.byte	0x1
 1084 0603 79       		.byte	0x79
 1085 0604 5D020000 		.4byte	0x25d
 1086 0608 8D010000 		.4byte	.LLST14
 1087 060c 16       		.uleb128 0x16
 1088 060d 6D736700 		.ascii	"msg\000"
 1089 0611 01       		.byte	0x1
 1090 0612 79       		.byte	0x79
 1091 0613 D9000000 		.4byte	0xd9
 1092 0617 AB010000 		.4byte	.LLST15
 1093 061b 18       		.uleb128 0x18
 1094 061c 06000000 		.4byte	.LBB22
 1095 0620 0C000000 		.4byte	.LBE22
 1096 0624 38060000 		.4byte	0x638
 1097 0628 17       		.uleb128 0x17
 1098 0629 746D7000 		.ascii	"tmp\000"
 1099 062d 01       		.byte	0x1
 1100 062e 7B       		.byte	0x7b
 1101 062f 70000000 		.4byte	0x70
 1102 0633 C9010000 		.4byte	.LLST16
 1103 0637 00       		.byte	0
 1104 0638 1B       		.uleb128 0x1b
 1105 0639 2A000000 		.4byte	.LBB23
 1106 063d 30000000 		.4byte	.LBE23
 1107 0641 17       		.uleb128 0x17
 1108 0642 746D7000 		.ascii	"tmp\000"
 1109 0646 01       		.byte	0x1
 1110 0647 7F       		.byte	0x7f
 1111 0648 70000000 		.4byte	0x70
 1112 064c DC010000 		.4byte	.LLST17
 1113 0650 00       		.byte	0
 1114 0651 00       		.byte	0
 1115 0652 1F       		.uleb128 0x1f
 1116 0653 01030000 		.4byte	.LASF67
 1117 0657 08       		.byte	0x8
 1118 0658 68       		.byte	0x68
 1119 0659 BB030000 		.4byte	0x3bb
 1120 065d 01       		.byte	0x1
 1121 065e 01       		.byte	0x1
 1122 065f 1F       		.uleb128 0x1f
 1123 0660 01030000 		.4byte	.LASF67
 1124 0664 08       		.byte	0x8
 1125 0665 68       		.byte	0x68
 1126 0666 BB030000 		.4byte	0x3bb
 1127 066a 01       		.byte	0x1
 1128 066b 01       		.byte	0x1
 1129 066c 00       		.byte	0
 1130              		.section	.debug_abbrev,"",%progbits
 1131              	.Ldebug_abbrev0:
ARM GAS  /tmp/cc3SEjWf.s 			page 21


 1132 0000 01       		.uleb128 0x1
 1133 0001 11       		.uleb128 0x11
 1134 0002 01       		.byte	0x1
 1135 0003 25       		.uleb128 0x25
 1136 0004 0E       		.uleb128 0xe
 1137 0005 13       		.uleb128 0x13
 1138 0006 0B       		.uleb128 0xb
 1139 0007 03       		.uleb128 0x3
 1140 0008 0E       		.uleb128 0xe
 1141 0009 1B       		.uleb128 0x1b
 1142 000a 0E       		.uleb128 0xe
 1143 000b 11       		.uleb128 0x11
 1144 000c 01       		.uleb128 0x1
 1145 000d 52       		.uleb128 0x52
 1146 000e 01       		.uleb128 0x1
 1147 000f 55       		.uleb128 0x55
 1148 0010 06       		.uleb128 0x6
 1149 0011 10       		.uleb128 0x10
 1150 0012 06       		.uleb128 0x6
 1151 0013 00       		.byte	0
 1152 0014 00       		.byte	0
 1153 0015 02       		.uleb128 0x2
 1154 0016 24       		.uleb128 0x24
 1155 0017 00       		.byte	0
 1156 0018 0B       		.uleb128 0xb
 1157 0019 0B       		.uleb128 0xb
 1158 001a 3E       		.uleb128 0x3e
 1159 001b 0B       		.uleb128 0xb
 1160 001c 03       		.uleb128 0x3
 1161 001d 08       		.uleb128 0x8
 1162 001e 00       		.byte	0
 1163 001f 00       		.byte	0
 1164 0020 03       		.uleb128 0x3
 1165 0021 24       		.uleb128 0x24
 1166 0022 00       		.byte	0
 1167 0023 0B       		.uleb128 0xb
 1168 0024 0B       		.uleb128 0xb
 1169 0025 3E       		.uleb128 0x3e
 1170 0026 0B       		.uleb128 0xb
 1171 0027 03       		.uleb128 0x3
 1172 0028 0E       		.uleb128 0xe
 1173 0029 00       		.byte	0
 1174 002a 00       		.byte	0
 1175 002b 04       		.uleb128 0x4
 1176 002c 16       		.uleb128 0x16
 1177 002d 00       		.byte	0
 1178 002e 03       		.uleb128 0x3
 1179 002f 0E       		.uleb128 0xe
 1180 0030 3A       		.uleb128 0x3a
 1181 0031 0B       		.uleb128 0xb
 1182 0032 3B       		.uleb128 0x3b
 1183 0033 0B       		.uleb128 0xb
 1184 0034 49       		.uleb128 0x49
 1185 0035 13       		.uleb128 0x13
 1186 0036 00       		.byte	0
 1187 0037 00       		.byte	0
 1188 0038 05       		.uleb128 0x5
ARM GAS  /tmp/cc3SEjWf.s 			page 22


 1189 0039 13       		.uleb128 0x13
 1190 003a 01       		.byte	0x1
 1191 003b 03       		.uleb128 0x3
 1192 003c 0E       		.uleb128 0xe
 1193 003d 0B       		.uleb128 0xb
 1194 003e 0B       		.uleb128 0xb
 1195 003f 3A       		.uleb128 0x3a
 1196 0040 0B       		.uleb128 0xb
 1197 0041 3B       		.uleb128 0x3b
 1198 0042 0B       		.uleb128 0xb
 1199 0043 01       		.uleb128 0x1
 1200 0044 13       		.uleb128 0x13
 1201 0045 00       		.byte	0
 1202 0046 00       		.byte	0
 1203 0047 06       		.uleb128 0x6
 1204 0048 0D       		.uleb128 0xd
 1205 0049 00       		.byte	0
 1206 004a 03       		.uleb128 0x3
 1207 004b 0E       		.uleb128 0xe
 1208 004c 3A       		.uleb128 0x3a
 1209 004d 0B       		.uleb128 0xb
 1210 004e 3B       		.uleb128 0x3b
 1211 004f 0B       		.uleb128 0xb
 1212 0050 49       		.uleb128 0x49
 1213 0051 13       		.uleb128 0x13
 1214 0052 38       		.uleb128 0x38
 1215 0053 0A       		.uleb128 0xa
 1216 0054 00       		.byte	0
 1217 0055 00       		.byte	0
 1218 0056 07       		.uleb128 0x7
 1219 0057 0D       		.uleb128 0xd
 1220 0058 00       		.byte	0
 1221 0059 03       		.uleb128 0x3
 1222 005a 08       		.uleb128 0x8
 1223 005b 3A       		.uleb128 0x3a
 1224 005c 0B       		.uleb128 0xb
 1225 005d 3B       		.uleb128 0x3b
 1226 005e 0B       		.uleb128 0xb
 1227 005f 49       		.uleb128 0x49
 1228 0060 13       		.uleb128 0x13
 1229 0061 38       		.uleb128 0x38
 1230 0062 0A       		.uleb128 0xa
 1231 0063 00       		.byte	0
 1232 0064 00       		.byte	0
 1233 0065 08       		.uleb128 0x8
 1234 0066 13       		.uleb128 0x13
 1235 0067 01       		.byte	0x1
 1236 0068 0B       		.uleb128 0xb
 1237 0069 0B       		.uleb128 0xb
 1238 006a 3A       		.uleb128 0x3a
 1239 006b 0B       		.uleb128 0xb
 1240 006c 3B       		.uleb128 0x3b
 1241 006d 0B       		.uleb128 0xb
 1242 006e 01       		.uleb128 0x1
 1243 006f 13       		.uleb128 0x13
 1244 0070 00       		.byte	0
 1245 0071 00       		.byte	0
ARM GAS  /tmp/cc3SEjWf.s 			page 23


 1246 0072 09       		.uleb128 0x9
 1247 0073 0F       		.uleb128 0xf
 1248 0074 00       		.byte	0
 1249 0075 0B       		.uleb128 0xb
 1250 0076 0B       		.uleb128 0xb
 1251 0077 49       		.uleb128 0x49
 1252 0078 13       		.uleb128 0x13
 1253 0079 00       		.byte	0
 1254 007a 00       		.byte	0
 1255 007b 0A       		.uleb128 0xa
 1256 007c 0F       		.uleb128 0xf
 1257 007d 00       		.byte	0
 1258 007e 0B       		.uleb128 0xb
 1259 007f 0B       		.uleb128 0xb
 1260 0080 00       		.byte	0
 1261 0081 00       		.byte	0
 1262 0082 0B       		.uleb128 0xb
 1263 0083 13       		.uleb128 0x13
 1264 0084 01       		.byte	0x1
 1265 0085 03       		.uleb128 0x3
 1266 0086 0E       		.uleb128 0xe
 1267 0087 0B       		.uleb128 0xb
 1268 0088 0B       		.uleb128 0xb
 1269 0089 3A       		.uleb128 0x3a
 1270 008a 0B       		.uleb128 0xb
 1271 008b 3B       		.uleb128 0x3b
 1272 008c 05       		.uleb128 0x5
 1273 008d 01       		.uleb128 0x1
 1274 008e 13       		.uleb128 0x13
 1275 008f 00       		.byte	0
 1276 0090 00       		.byte	0
 1277 0091 0C       		.uleb128 0xc
 1278 0092 0D       		.uleb128 0xd
 1279 0093 00       		.byte	0
 1280 0094 03       		.uleb128 0x3
 1281 0095 08       		.uleb128 0x8
 1282 0096 3A       		.uleb128 0x3a
 1283 0097 0B       		.uleb128 0xb
 1284 0098 3B       		.uleb128 0x3b
 1285 0099 05       		.uleb128 0x5
 1286 009a 49       		.uleb128 0x49
 1287 009b 13       		.uleb128 0x13
 1288 009c 38       		.uleb128 0x38
 1289 009d 0A       		.uleb128 0xa
 1290 009e 00       		.byte	0
 1291 009f 00       		.byte	0
 1292 00a0 0D       		.uleb128 0xd
 1293 00a1 35       		.uleb128 0x35
 1294 00a2 00       		.byte	0
 1295 00a3 49       		.uleb128 0x49
 1296 00a4 13       		.uleb128 0x13
 1297 00a5 00       		.byte	0
 1298 00a6 00       		.byte	0
 1299 00a7 0E       		.uleb128 0xe
 1300 00a8 17       		.uleb128 0x17
 1301 00a9 01       		.byte	0x1
 1302 00aa 0B       		.uleb128 0xb
ARM GAS  /tmp/cc3SEjWf.s 			page 24


 1303 00ab 0B       		.uleb128 0xb
 1304 00ac 3A       		.uleb128 0x3a
 1305 00ad 0B       		.uleb128 0xb
 1306 00ae 3B       		.uleb128 0x3b
 1307 00af 0B       		.uleb128 0xb
 1308 00b0 01       		.uleb128 0x1
 1309 00b1 13       		.uleb128 0x13
 1310 00b2 00       		.byte	0
 1311 00b3 00       		.byte	0
 1312 00b4 0F       		.uleb128 0xf
 1313 00b5 0D       		.uleb128 0xd
 1314 00b6 00       		.byte	0
 1315 00b7 03       		.uleb128 0x3
 1316 00b8 0E       		.uleb128 0xe
 1317 00b9 3A       		.uleb128 0x3a
 1318 00ba 0B       		.uleb128 0xb
 1319 00bb 3B       		.uleb128 0x3b
 1320 00bc 0B       		.uleb128 0xb
 1321 00bd 49       		.uleb128 0x49
 1322 00be 13       		.uleb128 0x13
 1323 00bf 00       		.byte	0
 1324 00c0 00       		.byte	0
 1325 00c1 10       		.uleb128 0x10
 1326 00c2 26       		.uleb128 0x26
 1327 00c3 00       		.byte	0
 1328 00c4 49       		.uleb128 0x49
 1329 00c5 13       		.uleb128 0x13
 1330 00c6 00       		.byte	0
 1331 00c7 00       		.byte	0
 1332 00c8 11       		.uleb128 0x11
 1333 00c9 2E       		.uleb128 0x2e
 1334 00ca 01       		.byte	0x1
 1335 00cb 03       		.uleb128 0x3
 1336 00cc 0E       		.uleb128 0xe
 1337 00cd 3A       		.uleb128 0x3a
 1338 00ce 0B       		.uleb128 0xb
 1339 00cf 3B       		.uleb128 0x3b
 1340 00d0 0B       		.uleb128 0xb
 1341 00d1 27       		.uleb128 0x27
 1342 00d2 0C       		.uleb128 0xc
 1343 00d3 20       		.uleb128 0x20
 1344 00d4 0B       		.uleb128 0xb
 1345 00d5 01       		.uleb128 0x1
 1346 00d6 13       		.uleb128 0x13
 1347 00d7 00       		.byte	0
 1348 00d8 00       		.byte	0
 1349 00d9 12       		.uleb128 0x12
 1350 00da 05       		.uleb128 0x5
 1351 00db 00       		.byte	0
 1352 00dc 03       		.uleb128 0x3
 1353 00dd 08       		.uleb128 0x8
 1354 00de 3A       		.uleb128 0x3a
 1355 00df 0B       		.uleb128 0xb
 1356 00e0 3B       		.uleb128 0x3b
 1357 00e1 0B       		.uleb128 0xb
 1358 00e2 49       		.uleb128 0x49
 1359 00e3 13       		.uleb128 0x13
ARM GAS  /tmp/cc3SEjWf.s 			page 25


 1360 00e4 00       		.byte	0
 1361 00e5 00       		.byte	0
 1362 00e6 13       		.uleb128 0x13
 1363 00e7 2E       		.uleb128 0x2e
 1364 00e8 01       		.byte	0x1
 1365 00e9 03       		.uleb128 0x3
 1366 00ea 0E       		.uleb128 0xe
 1367 00eb 3A       		.uleb128 0x3a
 1368 00ec 0B       		.uleb128 0xb
 1369 00ed 3B       		.uleb128 0x3b
 1370 00ee 0B       		.uleb128 0xb
 1371 00ef 27       		.uleb128 0x27
 1372 00f0 0C       		.uleb128 0xc
 1373 00f1 49       		.uleb128 0x49
 1374 00f2 13       		.uleb128 0x13
 1375 00f3 20       		.uleb128 0x20
 1376 00f4 0B       		.uleb128 0xb
 1377 00f5 01       		.uleb128 0x1
 1378 00f6 13       		.uleb128 0x13
 1379 00f7 00       		.byte	0
 1380 00f8 00       		.byte	0
 1381 00f9 14       		.uleb128 0x14
 1382 00fa 34       		.uleb128 0x34
 1383 00fb 00       		.byte	0
 1384 00fc 03       		.uleb128 0x3
 1385 00fd 08       		.uleb128 0x8
 1386 00fe 3A       		.uleb128 0x3a
 1387 00ff 0B       		.uleb128 0xb
 1388 0100 3B       		.uleb128 0x3b
 1389 0101 0B       		.uleb128 0xb
 1390 0102 49       		.uleb128 0x49
 1391 0103 13       		.uleb128 0x13
 1392 0104 00       		.byte	0
 1393 0105 00       		.byte	0
 1394 0106 15       		.uleb128 0x15
 1395 0107 2E       		.uleb128 0x2e
 1396 0108 01       		.byte	0x1
 1397 0109 3F       		.uleb128 0x3f
 1398 010a 0C       		.uleb128 0xc
 1399 010b 03       		.uleb128 0x3
 1400 010c 0E       		.uleb128 0xe
 1401 010d 3A       		.uleb128 0x3a
 1402 010e 0B       		.uleb128 0xb
 1403 010f 3B       		.uleb128 0x3b
 1404 0110 0B       		.uleb128 0xb
 1405 0111 27       		.uleb128 0x27
 1406 0112 0C       		.uleb128 0xc
 1407 0113 49       		.uleb128 0x49
 1408 0114 13       		.uleb128 0x13
 1409 0115 11       		.uleb128 0x11
 1410 0116 01       		.uleb128 0x1
 1411 0117 12       		.uleb128 0x12
 1412 0118 01       		.uleb128 0x1
 1413 0119 40       		.uleb128 0x40
 1414 011a 06       		.uleb128 0x6
 1415 011b 01       		.uleb128 0x1
 1416 011c 13       		.uleb128 0x13
ARM GAS  /tmp/cc3SEjWf.s 			page 26


 1417 011d 00       		.byte	0
 1418 011e 00       		.byte	0
 1419 011f 16       		.uleb128 0x16
 1420 0120 05       		.uleb128 0x5
 1421 0121 00       		.byte	0
 1422 0122 03       		.uleb128 0x3
 1423 0123 08       		.uleb128 0x8
 1424 0124 3A       		.uleb128 0x3a
 1425 0125 0B       		.uleb128 0xb
 1426 0126 3B       		.uleb128 0x3b
 1427 0127 0B       		.uleb128 0xb
 1428 0128 49       		.uleb128 0x49
 1429 0129 13       		.uleb128 0x13
 1430 012a 02       		.uleb128 0x2
 1431 012b 06       		.uleb128 0x6
 1432 012c 00       		.byte	0
 1433 012d 00       		.byte	0
 1434 012e 17       		.uleb128 0x17
 1435 012f 34       		.uleb128 0x34
 1436 0130 00       		.byte	0
 1437 0131 03       		.uleb128 0x3
 1438 0132 08       		.uleb128 0x8
 1439 0133 3A       		.uleb128 0x3a
 1440 0134 0B       		.uleb128 0xb
 1441 0135 3B       		.uleb128 0x3b
 1442 0136 0B       		.uleb128 0xb
 1443 0137 49       		.uleb128 0x49
 1444 0138 13       		.uleb128 0x13
 1445 0139 02       		.uleb128 0x2
 1446 013a 06       		.uleb128 0x6
 1447 013b 00       		.byte	0
 1448 013c 00       		.byte	0
 1449 013d 18       		.uleb128 0x18
 1450 013e 0B       		.uleb128 0xb
 1451 013f 01       		.byte	0x1
 1452 0140 11       		.uleb128 0x11
 1453 0141 01       		.uleb128 0x1
 1454 0142 12       		.uleb128 0x12
 1455 0143 01       		.uleb128 0x1
 1456 0144 01       		.uleb128 0x1
 1457 0145 13       		.uleb128 0x13
 1458 0146 00       		.byte	0
 1459 0147 00       		.byte	0
 1460 0148 19       		.uleb128 0x19
 1461 0149 1D       		.uleb128 0x1d
 1462 014a 01       		.byte	0x1
 1463 014b 31       		.uleb128 0x31
 1464 014c 13       		.uleb128 0x13
 1465 014d 52       		.uleb128 0x52
 1466 014e 01       		.uleb128 0x1
 1467 014f 55       		.uleb128 0x55
 1468 0150 06       		.uleb128 0x6
 1469 0151 58       		.uleb128 0x58
 1470 0152 0B       		.uleb128 0xb
 1471 0153 59       		.uleb128 0x59
 1472 0154 0B       		.uleb128 0xb
 1473 0155 01       		.uleb128 0x1
ARM GAS  /tmp/cc3SEjWf.s 			page 27


 1474 0156 13       		.uleb128 0x13
 1475 0157 00       		.byte	0
 1476 0158 00       		.byte	0
 1477 0159 1A       		.uleb128 0x1a
 1478 015a 05       		.uleb128 0x5
 1479 015b 00       		.byte	0
 1480 015c 31       		.uleb128 0x31
 1481 015d 13       		.uleb128 0x13
 1482 015e 02       		.uleb128 0x2
 1483 015f 06       		.uleb128 0x6
 1484 0160 00       		.byte	0
 1485 0161 00       		.byte	0
 1486 0162 1B       		.uleb128 0x1b
 1487 0163 0B       		.uleb128 0xb
 1488 0164 01       		.byte	0x1
 1489 0165 11       		.uleb128 0x11
 1490 0166 01       		.uleb128 0x1
 1491 0167 12       		.uleb128 0x12
 1492 0168 01       		.uleb128 0x1
 1493 0169 00       		.byte	0
 1494 016a 00       		.byte	0
 1495 016b 1C       		.uleb128 0x1c
 1496 016c 1D       		.uleb128 0x1d
 1497 016d 01       		.byte	0x1
 1498 016e 31       		.uleb128 0x31
 1499 016f 13       		.uleb128 0x13
 1500 0170 11       		.uleb128 0x11
 1501 0171 01       		.uleb128 0x1
 1502 0172 12       		.uleb128 0x12
 1503 0173 01       		.uleb128 0x1
 1504 0174 58       		.uleb128 0x58
 1505 0175 0B       		.uleb128 0xb
 1506 0176 59       		.uleb128 0x59
 1507 0177 0B       		.uleb128 0xb
 1508 0178 01       		.uleb128 0x1
 1509 0179 13       		.uleb128 0x13
 1510 017a 00       		.byte	0
 1511 017b 00       		.byte	0
 1512 017c 1D       		.uleb128 0x1d
 1513 017d 34       		.uleb128 0x34
 1514 017e 00       		.byte	0
 1515 017f 31       		.uleb128 0x31
 1516 0180 13       		.uleb128 0x13
 1517 0181 02       		.uleb128 0x2
 1518 0182 06       		.uleb128 0x6
 1519 0183 00       		.byte	0
 1520 0184 00       		.byte	0
 1521 0185 1E       		.uleb128 0x1e
 1522 0186 2E       		.uleb128 0x2e
 1523 0187 01       		.byte	0x1
 1524 0188 3F       		.uleb128 0x3f
 1525 0189 0C       		.uleb128 0xc
 1526 018a 03       		.uleb128 0x3
 1527 018b 0E       		.uleb128 0xe
 1528 018c 3A       		.uleb128 0x3a
 1529 018d 0B       		.uleb128 0xb
 1530 018e 3B       		.uleb128 0x3b
ARM GAS  /tmp/cc3SEjWf.s 			page 28


 1531 018f 0B       		.uleb128 0xb
 1532 0190 27       		.uleb128 0x27
 1533 0191 0C       		.uleb128 0xc
 1534 0192 11       		.uleb128 0x11
 1535 0193 01       		.uleb128 0x1
 1536 0194 12       		.uleb128 0x12
 1537 0195 01       		.uleb128 0x1
 1538 0196 40       		.uleb128 0x40
 1539 0197 06       		.uleb128 0x6
 1540 0198 01       		.uleb128 0x1
 1541 0199 13       		.uleb128 0x13
 1542 019a 00       		.byte	0
 1543 019b 00       		.byte	0
 1544 019c 1F       		.uleb128 0x1f
 1545 019d 34       		.uleb128 0x34
 1546 019e 00       		.byte	0
 1547 019f 03       		.uleb128 0x3
 1548 01a0 0E       		.uleb128 0xe
 1549 01a1 3A       		.uleb128 0x3a
 1550 01a2 0B       		.uleb128 0xb
 1551 01a3 3B       		.uleb128 0x3b
 1552 01a4 0B       		.uleb128 0xb
 1553 01a5 49       		.uleb128 0x49
 1554 01a6 13       		.uleb128 0x13
 1555 01a7 3F       		.uleb128 0x3f
 1556 01a8 0C       		.uleb128 0xc
 1557 01a9 3C       		.uleb128 0x3c
 1558 01aa 0C       		.uleb128 0xc
 1559 01ab 00       		.byte	0
 1560 01ac 00       		.byte	0
 1561 01ad 00       		.byte	0
 1562              		.section	.debug_loc,"",%progbits
 1563              	.Ldebug_loc0:
 1564              	.LLST0:
 1565 0000 00000000 		.4byte	.LFB7
 1566 0004 04000000 		.4byte	.LCFI0
 1567 0008 0200     		.2byte	0x2
 1568 000a 7D       		.byte	0x7d
 1569 000b 00       		.sleb128 0
 1570 000c 04000000 		.4byte	.LCFI0
 1571 0010 60000000 		.4byte	.LFE7
 1572 0014 0200     		.2byte	0x2
 1573 0016 7D       		.byte	0x7d
 1574 0017 10       		.sleb128 16
 1575 0018 00000000 		.4byte	0
 1576 001c 00000000 		.4byte	0
 1577              	.LLST1:
 1578 0020 00000000 		.4byte	.LVL0
 1579 0024 0C000000 		.4byte	.LVL2
 1580 0028 0100     		.2byte	0x1
 1581 002a 50       		.byte	0x50
 1582 002b 0C000000 		.4byte	.LVL2
 1583 002f 38000000 		.4byte	.LVL8
 1584 0033 0100     		.2byte	0x1
 1585 0035 54       		.byte	0x54
 1586 0036 46000000 		.4byte	.LVL12
 1587 003a 60000000 		.4byte	.LFE7
ARM GAS  /tmp/cc3SEjWf.s 			page 29


 1588 003e 0100     		.2byte	0x1
 1589 0040 54       		.byte	0x54
 1590 0041 00000000 		.4byte	0
 1591 0045 00000000 		.4byte	0
 1592              	.LLST2:
 1593 0049 00000000 		.4byte	.LVL0
 1594 004d 0C000000 		.4byte	.LVL2
 1595 0051 0100     		.2byte	0x1
 1596 0053 51       		.byte	0x51
 1597 0054 0C000000 		.4byte	.LVL2
 1598 0058 38000000 		.4byte	.LVL8
 1599 005c 0100     		.2byte	0x1
 1600 005e 56       		.byte	0x56
 1601 005f 38000000 		.4byte	.LVL8
 1602 0063 3B000000 		.4byte	.LVL9-1
 1603 0067 0200     		.2byte	0x2
 1604 0069 75       		.byte	0x75
 1605 006a 28       		.sleb128 40
 1606 006b 3B000000 		.4byte	.LVL9-1
 1607 006f 46000000 		.4byte	.LVL12
 1608 0073 0100     		.2byte	0x1
 1609 0075 54       		.byte	0x54
 1610 0076 46000000 		.4byte	.LVL12
 1611 007a 60000000 		.4byte	.LFE7
 1612 007e 0100     		.2byte	0x1
 1613 0080 56       		.byte	0x56
 1614 0081 00000000 		.4byte	0
 1615 0085 00000000 		.4byte	0
 1616              	.LLST3:
 1617 0089 0A000000 		.4byte	.LVL1
 1618 008d 0C000000 		.4byte	.LVL2
 1619 0091 0200     		.2byte	0x2
 1620 0093 73       		.byte	0x73
 1621 0094 18       		.sleb128 24
 1622 0095 0C000000 		.4byte	.LVL2
 1623 0099 60000000 		.4byte	.LFE7
 1624 009d 0100     		.2byte	0x1
 1625 009f 55       		.byte	0x55
 1626 00a0 00000000 		.4byte	0
 1627 00a4 00000000 		.4byte	0
 1628              	.LLST4:
 1629 00a8 12000000 		.4byte	.LVL4
 1630 00ac 15000000 		.4byte	.LVL5-1
 1631 00b0 0100     		.2byte	0x1
 1632 00b2 53       		.byte	0x53
 1633 00b3 00000000 		.4byte	0
 1634 00b7 00000000 		.4byte	0
 1635              	.LLST5:
 1636 00bb 1C000000 		.4byte	.LVL6
 1637 00bf 30000000 		.4byte	.LVL7
 1638 00c3 0100     		.2byte	0x1
 1639 00c5 52       		.byte	0x52
 1640 00c6 46000000 		.4byte	.LVL12
 1641 00ca 4B000000 		.4byte	.LVL13-1
 1642 00ce 0100     		.2byte	0x1
 1643 00d0 52       		.byte	0x52
 1644 00d1 00000000 		.4byte	0
ARM GAS  /tmp/cc3SEjWf.s 			page 30


 1645 00d5 00000000 		.4byte	0
 1646              	.LLST6:
 1647 00d9 1C000000 		.4byte	.LVL6
 1648 00dd 4E000000 		.4byte	.LVL14
 1649 00e1 0100     		.2byte	0x1
 1650 00e3 55       		.byte	0x55
 1651 00e4 00000000 		.4byte	0
 1652 00e8 00000000 		.4byte	0
 1653              	.LLST7:
 1654 00ec 42000000 		.4byte	.LVL11
 1655 00f0 46000000 		.4byte	.LVL12
 1656 00f4 0100     		.2byte	0x1
 1657 00f6 53       		.byte	0x53
 1658 00f7 00000000 		.4byte	0
 1659 00fb 00000000 		.4byte	0
 1660              	.LLST8:
 1661 00ff 00000000 		.4byte	.LFB8
 1662 0103 02000000 		.4byte	.LCFI1
 1663 0107 0200     		.2byte	0x2
 1664 0109 7D       		.byte	0x7d
 1665 010a 00       		.sleb128 0
 1666 010b 02000000 		.4byte	.LCFI1
 1667 010f 48000000 		.4byte	.LFE8
 1668 0113 0200     		.2byte	0x2
 1669 0115 7D       		.byte	0x7d
 1670 0116 10       		.sleb128 16
 1671 0117 00000000 		.4byte	0
 1672 011b 00000000 		.4byte	0
 1673              	.LLST9:
 1674 011f 08000000 		.4byte	.LVL16
 1675 0123 0D000000 		.4byte	.LVL17-1
 1676 0127 0100     		.2byte	0x1
 1677 0129 53       		.byte	0x53
 1678 012a 00000000 		.4byte	0
 1679 012e 00000000 		.4byte	0
 1680              	.LLST10:
 1681 0132 1A000000 		.4byte	.LVL18
 1682 0136 29000000 		.4byte	.LVL19-1
 1683 013a 0300     		.2byte	0x3
 1684 013c 72       		.byte	0x72
 1685 013d 30       		.sleb128 48
 1686 013e 9F       		.byte	0x9f
 1687 013f 00000000 		.4byte	0
 1688 0143 00000000 		.4byte	0
 1689              	.LLST11:
 1690 0147 1A000000 		.4byte	.LVL18
 1691 014b 34000000 		.4byte	.LVL22
 1692 014f 0100     		.2byte	0x1
 1693 0151 54       		.byte	0x54
 1694 0152 00000000 		.4byte	0
 1695 0156 00000000 		.4byte	0
 1696              	.LLST12:
 1697 015a 30000000 		.4byte	.LVL21
 1698 015e 34000000 		.4byte	.LVL22
 1699 0162 0100     		.2byte	0x1
 1700 0164 53       		.byte	0x53
 1701 0165 00000000 		.4byte	0
ARM GAS  /tmp/cc3SEjWf.s 			page 31


 1702 0169 00000000 		.4byte	0
 1703              	.LLST13:
 1704 016d 00000000 		.4byte	.LFB9
 1705 0171 02000000 		.4byte	.LCFI2
 1706 0175 0200     		.2byte	0x2
 1707 0177 7D       		.byte	0x7d
 1708 0178 00       		.sleb128 0
 1709 0179 02000000 		.4byte	.LCFI2
 1710 017d 38000000 		.4byte	.LFE9
 1711 0181 0200     		.2byte	0x2
 1712 0183 7D       		.byte	0x7d
 1713 0184 10       		.sleb128 16
 1714 0185 00000000 		.4byte	0
 1715 0189 00000000 		.4byte	0
 1716              	.LLST14:
 1717 018d 00000000 		.4byte	.LVL23
 1718 0191 0F000000 		.4byte	.LVL26-1
 1719 0195 0100     		.2byte	0x1
 1720 0197 50       		.byte	0x50
 1721 0198 0F000000 		.4byte	.LVL26-1
 1722 019c 38000000 		.4byte	.LFE9
 1723 01a0 0100     		.2byte	0x1
 1724 01a2 54       		.byte	0x54
 1725 01a3 00000000 		.4byte	0
 1726 01a7 00000000 		.4byte	0
 1727              	.LLST15:
 1728 01ab 00000000 		.4byte	.LVL23
 1729 01af 0F000000 		.4byte	.LVL26-1
 1730 01b3 0100     		.2byte	0x1
 1731 01b5 51       		.byte	0x51
 1732 01b6 0F000000 		.4byte	.LVL26-1
 1733 01ba 38000000 		.4byte	.LFE9
 1734 01be 0100     		.2byte	0x1
 1735 01c0 55       		.byte	0x55
 1736 01c1 00000000 		.4byte	0
 1737 01c5 00000000 		.4byte	0
 1738              	.LLST16:
 1739 01c9 0C000000 		.4byte	.LVL25
 1740 01cd 0F000000 		.4byte	.LVL26-1
 1741 01d1 0100     		.2byte	0x1
 1742 01d3 53       		.byte	0x53
 1743 01d4 00000000 		.4byte	0
 1744 01d8 00000000 		.4byte	0
 1745              	.LLST17:
 1746 01dc 30000000 		.4byte	.LVL28
 1747 01e0 38000000 		.4byte	.LFE9
 1748 01e4 0100     		.2byte	0x1
 1749 01e6 53       		.byte	0x53
 1750 01e7 00000000 		.4byte	0
 1751 01eb 00000000 		.4byte	0
 1752              		.section	.debug_aranges,"",%progbits
 1753 0000 2C000000 		.4byte	0x2c
 1754 0004 0200     		.2byte	0x2
 1755 0006 00000000 		.4byte	.Ldebug_info0
 1756 000a 04       		.byte	0x4
 1757 000b 00       		.byte	0
 1758 000c 0000     		.2byte	0
ARM GAS  /tmp/cc3SEjWf.s 			page 32


 1759 000e 0000     		.2byte	0
 1760 0010 00000000 		.4byte	.LFB7
 1761 0014 60000000 		.4byte	.LFE7-.LFB7
 1762 0018 00000000 		.4byte	.LFB8
 1763 001c 48000000 		.4byte	.LFE8-.LFB8
 1764 0020 00000000 		.4byte	.LFB9
 1765 0024 38000000 		.4byte	.LFE9-.LFB9
 1766 0028 00000000 		.4byte	0
 1767 002c 00000000 		.4byte	0
 1768              		.section	.debug_ranges,"",%progbits
 1769              	.Ldebug_ranges0:
 1770 0000 20000000 		.4byte	.LBB11
 1771 0004 22000000 		.4byte	.LBE11
 1772 0008 24000000 		.4byte	.LBB15
 1773 000c 26000000 		.4byte	.LBE15
 1774 0010 28000000 		.4byte	.LBB16
 1775 0014 2E000000 		.4byte	.LBE16
 1776 0018 00000000 		.4byte	0
 1777 001c 00000000 		.4byte	0
 1778 0020 00000000 		.4byte	.LFB7
 1779 0024 60000000 		.4byte	.LFE7
 1780 0028 00000000 		.4byte	.LFB8
 1781 002c 48000000 		.4byte	.LFE8
 1782 0030 00000000 		.4byte	.LFB9
 1783 0034 38000000 		.4byte	.LFE9
 1784 0038 00000000 		.4byte	0
 1785 003c 00000000 		.4byte	0
 1786              		.section	.debug_line,"",%progbits
 1787              	.Ldebug_line0:
 1788 0000 F1010000 		.section	.debug_str,"MS",%progbits,1
 1788      02006A01 
 1788      00000201 
 1788      FB0E0D00 
 1788      01010101 
 1789              	.LASF38:
 1790 0000 705F6D73 		.ascii	"p_msg\000"
 1790      6700
 1791              	.LASF71:
 1792 0006 71756575 		.ascii	"queue_insert\000"
 1792      655F696E 
 1792      73657274 
 1792      00
 1793              	.LASF60:
 1794 0013 7264796D 		.ascii	"rdymsg\000"
 1794      736700
 1795              	.LASF11:
 1796 001a 75696E74 		.ascii	"uint64_t\000"
 1796      36345F74 
 1796      00
 1797              	.LASF12:
 1798 0023 6C6F6E67 		.ascii	"long long unsigned int\000"
 1798      206C6F6E 
 1798      6720756E 
 1798      7369676E 
 1798      65642069 
 1799              	.LASF61:
 1800 003a 65786974 		.ascii	"exitcode\000"
ARM GAS  /tmp/cc3SEjWf.s 			page 33


 1800      636F6465 
 1800      00
 1801              	.LASF69:
 1802 0043 2E2E2F2E 		.ascii	"../../ChibiOS/os/kernel/src/chmsg.c\000"
 1802      2E2F4368 
 1802      6962694F 
 1802      532F6F73 
 1802      2F6B6572 
 1803              	.LASF10:
 1804 0067 6C6F6E67 		.ascii	"long long int\000"
 1804      206C6F6E 
 1804      6720696E 
 1804      7400
 1805              	.LASF1:
 1806 0075 7369676E 		.ascii	"signed char\000"
 1806      65642063 
 1806      68617200 
 1807              	.LASF42:
 1808 0081 705F6D70 		.ascii	"p_mpool\000"
 1808      6F6F6C00 
 1809              	.LASF57:
 1810 0089 6D5F7175 		.ascii	"m_queue\000"
 1810      65756500 
 1811              	.LASF17:
 1812 0091 74736C69 		.ascii	"tslices_t\000"
 1812      6365735F 
 1812      7400
 1813              	.LASF7:
 1814 009b 6C6F6E67 		.ascii	"long int\000"
 1814      20696E74 
 1814      00
 1815              	.LASF68:
 1816 00a4 474E5520 		.ascii	"GNU C 4.6.2 20120613 (release) [ARM/embedded-4_6-br"
 1816      4320342E 
 1816      362E3220 
 1816      32303132 
 1816      30363133 
 1817 00d7 616E6368 		.ascii	"anch revision 188521]\000"
 1817      20726576 
 1817      6973696F 
 1817      6E203138 
 1817      38353231 
 1818              	.LASF70:
 1819 00ed 2F686F6D 		.ascii	"/home/tino/workspace/openrobots/R2P_IR_module/fw\000"
 1819      652F7469 
 1819      6E6F2F77 
 1819      6F726B73 
 1819      70616365 
 1820              	.LASF15:
 1821 011e 74737461 		.ascii	"tstate_t\000"
 1821      74655F74 
 1821      00
 1822              	.LASF27:
 1823 0127 705F6E65 		.ascii	"p_newer\000"
 1823      77657200 
 1824              	.LASF52:
 1825 012f 725F6E65 		.ascii	"r_newer\000"
ARM GAS  /tmp/cc3SEjWf.s 			page 34


 1825      77657200 
 1826              	.LASF45:
 1827 0137 72656761 		.ascii	"regarm_t\000"
 1827      726D5F74 
 1827      00
 1828              	.LASF30:
 1829 0140 705F7374 		.ascii	"p_stklimit\000"
 1829      6B6C696D 
 1829      697400
 1830              	.LASF0:
 1831 014b 756E7369 		.ascii	"unsigned int\000"
 1831      676E6564 
 1831      20696E74 
 1831      00
 1832              	.LASF9:
 1833 0158 6C6F6E67 		.ascii	"long unsigned int\000"
 1833      20756E73 
 1833      69676E65 
 1833      6420696E 
 1833      7400
 1834              	.LASF65:
 1835 016a 63684D73 		.ascii	"chMsgSend\000"
 1835      6753656E 
 1835      6400
 1836              	.LASF48:
 1837 0174 636F6E74 		.ascii	"context\000"
 1837      65787400 
 1838              	.LASF4:
 1839 017c 73686F72 		.ascii	"short unsigned int\000"
 1839      7420756E 
 1839      7369676E 
 1839      65642069 
 1839      6E7400
 1840              	.LASF19:
 1841 018f 6D73675F 		.ascii	"msg_t\000"
 1841      7400
 1842              	.LASF14:
 1843 0195 746D6F64 		.ascii	"tmode_t\000"
 1843      655F7400 
 1844              	.LASF44:
 1845 019d 54687265 		.ascii	"ThreadsList\000"
 1845      6164734C 
 1845      69737400 
 1846              	.LASF20:
 1847 01a9 6576656E 		.ascii	"eventmask_t\000"
 1847      746D6173 
 1847      6B5F7400 
 1848              	.LASF56:
 1849 01b5 4D757465 		.ascii	"Mutex\000"
 1849      7800
 1850              	.LASF46:
 1851 01bb 73746B61 		.ascii	"stkalign_t\000"
 1851      6C69676E 
 1851      5F7400
 1852              	.LASF25:
 1853 01c6 705F7072 		.ascii	"p_prio\000"
 1853      696F00
ARM GAS  /tmp/cc3SEjWf.s 			page 35


 1854              	.LASF28:
 1855 01cd 705F6F6C 		.ascii	"p_older\000"
 1855      64657200 
 1856              	.LASF51:
 1857 01d5 725F6374 		.ascii	"r_ctx\000"
 1857      7800
 1858              	.LASF43:
 1859 01db 54687265 		.ascii	"ThreadsQueue\000"
 1859      61647351 
 1859      75657565 
 1859      00
 1860              	.LASF54:
 1861 01e8 725F6375 		.ascii	"r_current\000"
 1861      7272656E 
 1861      7400
 1862              	.LASF53:
 1863 01f2 725F6F6C 		.ascii	"r_older\000"
 1863      64657200 
 1864              	.LASF16:
 1865 01fa 74726566 		.ascii	"trefs_t\000"
 1865      735F7400 
 1866              	.LASF24:
 1867 0202 705F7072 		.ascii	"p_prev\000"
 1867      657600
 1868              	.LASF18:
 1869 0209 74707269 		.ascii	"tprio_t\000"
 1869      6F5F7400 
 1870              	.LASF13:
 1871 0211 5F426F6F 		.ascii	"_Bool\000"
 1871      6C00
 1872              	.LASF6:
 1873 0217 696E7433 		.ascii	"int32_t\000"
 1873      325F7400 
 1874              	.LASF2:
 1875 021f 756E7369 		.ascii	"unsigned char\000"
 1875      676E6564 
 1875      20636861 
 1875      7200
 1876              	.LASF40:
 1877 022d 705F6D74 		.ascii	"p_mtxlist\000"
 1877      786C6973 
 1877      7400
 1878              	.LASF3:
 1879 0237 73686F72 		.ascii	"short int\000"
 1879      7420696E 
 1879      7400
 1880              	.LASF31:
 1881 0241 705F7374 		.ascii	"p_state\000"
 1881      61746500 
 1882              	.LASF34:
 1883 0249 705F7072 		.ascii	"p_preempt\000"
 1883      65656D70 
 1883      7400
 1884              	.LASF50:
 1885 0253 725F7072 		.ascii	"r_prio\000"
 1885      696F00
 1886              	.LASF63:
ARM GAS  /tmp/cc3SEjWf.s 			page 36


 1887 025a 65776D61 		.ascii	"ewmask\000"
 1887      736B00
 1888              	.LASF23:
 1889 0261 705F6E65 		.ascii	"p_next\000"
 1889      787400
 1890              	.LASF32:
 1891 0268 705F666C 		.ascii	"p_flags\000"
 1891      61677300 
 1892              	.LASF22:
 1893 0270 54687265 		.ascii	"Thread\000"
 1893      616400
 1894              	.LASF73:
 1895 0277 63684D73 		.ascii	"chMsgRelease\000"
 1895      6752656C 
 1895      65617365 
 1895      00
 1896              	.LASF39:
 1897 0284 705F6570 		.ascii	"p_epending\000"
 1897      656E6469 
 1897      6E6700
 1898              	.LASF8:
 1899 028f 75696E74 		.ascii	"uint32_t\000"
 1899      33325F74 
 1899      00
 1900              	.LASF49:
 1901 0298 725F7175 		.ascii	"r_queue\000"
 1901      65756500 
 1902              	.LASF64:
 1903 02a0 63686172 		.ascii	"char\000"
 1903      00
 1904              	.LASF72:
 1905 02a5 6669666F 		.ascii	"fifo_remove\000"
 1905      5F72656D 
 1905      6F766500 
 1906              	.LASF59:
 1907 02b1 6D5F6E65 		.ascii	"m_next\000"
 1907      787400
 1908              	.LASF21:
 1909 02b8 73797374 		.ascii	"systime_t\000"
 1909      696D655F 
 1909      7400
 1910              	.LASF41:
 1911 02c2 705F7265 		.ascii	"p_realprio\000"
 1911      616C7072 
 1911      696F00
 1912              	.LASF35:
 1913 02cd 705F7469 		.ascii	"p_time\000"
 1913      6D6500
 1914              	.LASF47:
 1915 02d4 696E7463 		.ascii	"intctx\000"
 1915      747800
 1916              	.LASF37:
 1917 02db 705F6D73 		.ascii	"p_msgqueue\000"
 1917      67717565 
 1917      756500
 1918              	.LASF66:
 1919 02e6 63684D73 		.ascii	"chMsgWait\000"
ARM GAS  /tmp/cc3SEjWf.s 			page 37


 1919      67576169 
 1919      7400
 1920              	.LASF33:
 1921 02f0 705F7265 		.ascii	"p_refs\000"
 1921      667300
 1922              	.LASF55:
 1923 02f7 52656164 		.ascii	"ReadyList\000"
 1923      794C6973 
 1923      7400
 1924              	.LASF67:
 1925 0301 726C6973 		.ascii	"rlist\000"
 1925      7400
 1926              	.LASF5:
 1927 0307 75696E74 		.ascii	"uint8_t\000"
 1927      385F7400 
 1928              	.LASF62:
 1929 030f 77746F62 		.ascii	"wtobjp\000"
 1929      6A7000
 1930              	.LASF29:
 1931 0316 705F6E61 		.ascii	"p_name\000"
 1931      6D6500
 1932              	.LASF58:
 1933 031d 6D5F6F77 		.ascii	"m_owner\000"
 1933      6E657200 
 1934              	.LASF26:
 1935 0325 705F6374 		.ascii	"p_ctx\000"
 1935      7800
 1936              	.LASF36:
 1937 032b 705F7761 		.ascii	"p_waiting\000"
 1937      6974696E 
 1937      6700
 1938              		.ident	"GCC: (GNU Tools for ARM Embedded Processors) 4.6.2 20120613 (release) [ARM/embedded-4_6-br
ARM GAS  /tmp/cc3SEjWf.s 			page 38


DEFINED SYMBOLS
                            *ABS*:00000000 chmsg.c
     /tmp/cc3SEjWf.s:19     .text.chMsgSend:00000000 $t
     /tmp/cc3SEjWf.s:25     .text.chMsgSend:00000000 chMsgSend
     /tmp/cc3SEjWf.s:138    .text.chMsgSend:00000058 $d
     /tmp/cc3SEjWf.s:144    .text.chMsgWait:00000000 $t
     /tmp/cc3SEjWf.s:150    .text.chMsgWait:00000000 chMsgWait
     /tmp/cc3SEjWf.s:224    .text.chMsgWait:00000044 $d
     /tmp/cc3SEjWf.s:229    .text.chMsgRelease:00000000 $t
     /tmp/cc3SEjWf.s:235    .text.chMsgRelease:00000000 chMsgRelease
     /tmp/cc3SEjWf.s:292    .text.chMsgRelease:00000034 $d
     /tmp/cc3SEjWf.s:297    .rodata.str1.4:00000000 $d
                     .debug_frame:00000010 $d
     /tmp/cc3SEjWf.s:228    .text.chMsgWait:00000048 $t
     /tmp/cc3SEjWf.s:296    .text.chMsgRelease:00000038 $t

UNDEFINED SYMBOLS
dbg_check_lock
chSchGoSleepS
dbg_check_unlock
chSchReadyI
chDbgPanic
rlist
chSchWakeupS
