ARM GAS  /tmp/cc3SEjWf.s 			page 1


   1              		.syntax unified
   2              		.cpu cortex-m3
   3              		.fpu softvfp
   4              		.eabi_attribute 20, 1
   5              		.eabi_attribute 21, 1
   6              		.eabi_attribute 23, 3
   7              		.eabi_attribute 24, 1
   8              		.eabi_attribute 25, 1
   9              		.eabi_attribute 26, 1
  10              		.eabi_attribute 30, 2
  11              		.eabi_attribute 34, 1
  12              		.eabi_attribute 18, 4
  13              		.thumb
  14              		.file	"chmsg.c"
  15              		.text
  16              	.Ltext0:
  17              		.cfi_sections	.debug_frame
  18              		.section	.text.chMsgSend,"ax",%progbits
  19              		.align	2
  20              		.p2align 4,,15
  21              		.global	chMsgSend
  22              		.thumb
  23              		.thumb_func
  24              		.type	chMsgSend, %function
  25              	chMsgSend:
  26              	.LFB7:
  27              		.file 1 "../../ChibiOS/os/kernel/src/chmsg.c"
  28              		.loc 1 68 0
  29              		.cfi_startproc
  30              		@ args = 0, pretend = 0, frame = 0
  31              		@ frame_needed = 0, uses_anonymous_args = 0
  32              	.LVL0:
  33              		.loc 1 69 0
  34 0000 154B     		ldr	r3, .L7
  35              		.loc 1 68 0
  36 0002 70B5     		push	{r4, r5, r6, lr}
  37              	.LCFI0:
  38              		.cfi_def_cfa_offset 16
  39              		.cfi_offset 14, -4
  40              		.cfi_offset 6, -8
  41              		.cfi_offset 5, -12
  42              		.cfi_offset 4, -16
  43              		.loc 1 68 0
  44 0004 0446     		mov	r4, r0
  45 0006 0E46     		mov	r6, r1
  46              		.loc 1 69 0
  47 0008 9D69     		ldr	r5, [r3, #24]
  48              	.LVL1:
  49              		.loc 1 71 0
  50 000a 00B3     		cbz	r0, .L5
  51              	.LVL2:
  52              	.L2:
  53              	.LBB10:
  54              		.loc 1 73 0
  55 000c 2023     		movs	r3, #32
  56              	.LVL3:
  57              	@ 73 "../../ChibiOS/os/kernel/src/chmsg.c" 1
ARM GAS  /tmp/cc3SEjWf.s 			page 2


  58 000e 83F31188 		msr     BASEPRI, r3
  59              	@ 0 "" 2
  60              	.LVL4:
  61              		.thumb
  62              	.LBE10:
  63 0012 FFF7FEFF 		bl	dbg_check_lock
  64              	.LVL5:
  65              		.loc 1 75 0
  66 0016 04F13002 		add	r2, r4, #48
  67 001a AA62     		str	r2, [r5, #40]
  68              	.LVL6:
  69              		.loc 1 77 0
  70 001c 94F82010 		ldrb	r1, [r4, #32]	@ zero_extendqisi2
  71              	.LBB11:
  72              	.LBB12:
  73              		.file 2 "../../ChibiOS/os/kernel/include/chinline.h"
  74              		.loc 2 48 0
  75 0020 606B     		ldr	r0, [r4, #52]
  76              	.LBE12:
  77              	.LBE11:
  78              		.loc 1 77 0
  79 0022 0C29     		cmp	r1, #12
  80              	.LBB15:
  81              	.LBB13:
  82              		.loc 2 47 0
  83 0024 2A60     		str	r2, [r5, #0]
  84              	.LBE13:
  85              	.LBE15:
  86              		.loc 1 74 0
  87 0026 AE63     		str	r6, [r5, #56]
  88              	.LBB16:
  89              	.LBB14:
  90              		.loc 2 48 0
  91 0028 6860     		str	r0, [r5, #4]
  92              		.loc 2 49 0
  93 002a 6563     		str	r5, [r4, #52]
  94 002c 0560     		str	r5, [r0, #0]
  95              	.LBE14:
  96              	.LBE16:
  97              		.loc 1 77 0
  98 002e 0AD0     		beq	.L6
  99              	.LVL7:
 100              	.L3:
 101              		.loc 1 79 0
 102 0030 0A20     		movs	r0, #10
 103 0032 FFF7FEFF 		bl	chSchGoSleepS
 104              		.loc 1 80 0
 105 0036 AC6A     		ldr	r4, [r5, #40]
 106              	.LVL8:
 107              		.loc 1 81 0
 108 0038 FFF7FEFF 		bl	dbg_check_unlock
 109              	.LVL9:
 110              	.LBB17:
 111 003c 0023     		movs	r3, #0
 112              	.LVL10:
 113              	@ 81 "../../ChibiOS/os/kernel/src/chmsg.c" 1
 114 003e 83F31188 		msr     BASEPRI, r3
ARM GAS  /tmp/cc3SEjWf.s 			page 3


 115              	@ 0 "" 2
 116              	.LVL11:
 117              		.thumb
 118              	.LBE17:
 119              		.loc 1 83 0
 120 0042 2046     		mov	r0, r4
 121 0044 70BD     		pop	{r4, r5, r6, pc}
 122              	.LVL12:
 123              	.L6:
 124              		.loc 1 78 0
 125 0046 2046     		mov	r0, r4
 126 0048 FFF7FEFF 		bl	chSchReadyI
 127              	.LVL13:
 128 004c F0E7     		b	.L3
 129              	.LVL14:
 130              	.L5:
 131              		.loc 1 71 0 discriminator 1
 132 004e 0348     		ldr	r0, .L7+4
 133 0050 FFF7FEFF 		bl	chDbgPanic
 134 0054 DAE7     		b	.L2
 135              	.L8:
 136 0056 00BF     		.align	2
 137              	.L7:
 138 0058 00000000 		.word	rlist
 139 005c 00000000 		.word	.LC0
 140              		.cfi_endproc
 141              	.LFE7:
 142              		.size	chMsgSend, .-chMsgSend
 143              		.section	.text.chMsgWait,"ax",%progbits
 144              		.align	2
 145              		.p2align 4,,15
 146              		.global	chMsgWait
 147              		.thumb
 148              		.thumb_func
 149              		.type	chMsgWait, %function
 150              	chMsgWait:
 151              	.LFB8:
 152              		.loc 1 99 0
 153              		.cfi_startproc
 154              		@ args = 0, pretend = 0, frame = 0
 155              		@ frame_needed = 0, uses_anonymous_args = 0
 156 0000 38B5     		push	{r3, r4, r5, lr}
 157              	.LCFI1:
 158              		.cfi_def_cfa_offset 16
 159              		.cfi_offset 14, -4
 160              		.cfi_offset 5, -8
 161              		.cfi_offset 4, -12
 162              		.cfi_offset 3, -16
 163              	.LBB18:
 164              		.loc 1 102 0
 165 0002 2023     		movs	r3, #32
 166              	.LVL15:
 167              	@ 102 "../../ChibiOS/os/kernel/src/chmsg.c" 1
 168 0004 83F31188 		msr     BASEPRI, r3
 169              	@ 0 "" 2
 170              	.LVL16:
 171              		.thumb
ARM GAS  /tmp/cc3SEjWf.s 			page 4


 172              	.LBE18:
 173              		.loc 1 103 0
 174 0008 0E4D     		ldr	r5, .L12
 175              		.loc 1 102 0
 176 000a FFF7FEFF 		bl	dbg_check_lock
 177              	.LVL17:
 178              		.loc 1 103 0
 179 000e AA69     		ldr	r2, [r5, #24]
 180 0010 1346     		mov	r3, r2
 181 0012 53F8304F 		ldr	r4, [r3, #48]!
 182 0016 9C42     		cmp	r4, r3
 183 0018 0CD0     		beq	.L11
 184              	.L10:
 185              	.LVL18:
 186              	.LBB19:
 187              	.LBB20:
 188              		.loc 2 55 0
 189 001a 2168     		ldr	r1, [r4, #0]
 190 001c 1163     		str	r1, [r2, #48]
 191 001e 4B60     		str	r3, [r1, #4]
 192              	.LBE20:
 193              	.LBE19:
 194              		.loc 1 106 0
 195 0020 0B23     		movs	r3, #11
 196 0022 84F82030 		strb	r3, [r4, #32]
 197              		.loc 1 107 0
 198 0026 FFF7FEFF 		bl	dbg_check_unlock
 199              	.LVL19:
 200              	.LBB21:
 201 002a 0023     		movs	r3, #0
 202              	.LVL20:
 203              	@ 107 "../../ChibiOS/os/kernel/src/chmsg.c" 1
 204 002c 83F31188 		msr     BASEPRI, r3
 205              	@ 0 "" 2
 206              	.LVL21:
 207              		.thumb
 208              	.LBE21:
 209              		.loc 1 109 0
 210 0030 2046     		mov	r0, r4
 211 0032 38BD     		pop	{r3, r4, r5, pc}
 212              	.LVL22:
 213              	.L11:
 214              		.loc 1 104 0
 215 0034 0C20     		movs	r0, #12
 216 0036 FFF7FEFF 		bl	chSchGoSleepS
 217 003a AA69     		ldr	r2, [r5, #24]
 218 003c 1346     		mov	r3, r2
 219 003e 53F8304F 		ldr	r4, [r3, #48]!
 220 0042 EAE7     		b	.L10
 221              	.L13:
 222              		.align	2
 223              	.L12:
 224 0044 00000000 		.word	rlist
 225              		.cfi_endproc
 226              	.LFE8:
 227              		.size	chMsgWait, .-chMsgWait
 228 0048 AFF30080 		.section	.text.chMsgRelease,"ax",%progbits
ARM GAS  /tmp/cc3SEjWf.s 			page 5


 228      AFF30080 
 229              		.align	2
 230              		.p2align 4,,15
 231              		.global	chMsgRelease
 232              		.thumb
 233              		.thumb_func
 234              		.type	chMsgRelease, %function
 235              	chMsgRelease:
 236              	.LFB9:
 237              		.loc 1 121 0
 238              		.cfi_startproc
 239              		@ args = 0, pretend = 0, frame = 0
 240              		@ frame_needed = 0, uses_anonymous_args = 0
 241              	.LVL23:
 242 0000 38B5     		push	{r3, r4, r5, lr}
 243              	.LCFI2:
 244              		.cfi_def_cfa_offset 16
 245              		.cfi_offset 14, -4
 246              		.cfi_offset 5, -8
 247              		.cfi_offset 4, -12
 248              		.cfi_offset 3, -16
 249              		.loc 1 121 0
 250 0002 0446     		mov	r4, r0
 251 0004 0D46     		mov	r5, r1
 252              	.LBB22:
 253              		.loc 1 123 0
 254 0006 2023     		movs	r3, #32
 255              	.LVL24:
 256              	@ 123 "../../ChibiOS/os/kernel/src/chmsg.c" 1
 257 0008 83F31188 		msr     BASEPRI, r3
 258              	@ 0 "" 2
 259              	.LVL25:
 260              		.thumb
 261              	.LBE22:
 262 000c FFF7FEFF 		bl	dbg_check_lock
 263              	.LVL26:
 264              		.loc 1 124 0
 265 0010 94F82030 		ldrb	r3, [r4, #32]	@ zero_extendqisi2
 266 0014 0B2B     		cmp	r3, #11
 267 0016 02D0     		beq	.L15
 268              		.loc 1 124 0 is_stmt 0 discriminator 1
 269 0018 0648     		ldr	r0, .L16
 270 001a FFF7FEFF 		bl	chDbgPanic
 271              	.L15:
 272              		.loc 1 126 0 is_stmt 1
 273 001e 2046     		mov	r0, r4
 274 0020 2946     		mov	r1, r5
 275 0022 FFF7FEFF 		bl	chSchWakeupS
 276              		.loc 1 127 0
 277 0026 FFF7FEFF 		bl	dbg_check_unlock
 278              	.LBB23:
 279 002a 0023     		movs	r3, #0
 280              	.LVL27:
 281              	@ 127 "../../ChibiOS/os/kernel/src/chmsg.c" 1
 282 002c 83F31188 		msr     BASEPRI, r3
 283              	@ 0 "" 2
 284              	.LVL28:
ARM GAS  /tmp/cc3SEjWf.s 			page 6


 285              		.thumb
 286              	.LBE23:
 287              		.loc 1 128 0
 288 0030 38BD     		pop	{r3, r4, r5, pc}
 289              	.L17:
 290 0032 00BF     		.align	2
 291              	.L16:
 292 0034 10000000 		.word	.LC1
 293              		.cfi_endproc
 294              	.LFE9:
 295              		.size	chMsgRelease, .-chMsgRelease
 296 0038 AFF30080 		.section	.rodata.str1.4,"aMS",%progbits,1
 296      AFF30080 
 297              		.align	2
 298              	.LC0:
 299 0000 2263684D 		.ascii	"\"chMsgSend\"()\000"
 299      73675365 
 299      6E642228 
 299      2900
 300 000e 0000     		.space	2
 301              	.LC1:
 302 0010 63684D73 		.ascii	"chMsgRelease(), #1\000"
 302      6752656C 
 302      65617365 
 302      28292C20 
 302      233100
 303 0023 00       		.text
 304              	.Letext0:
 305              		.file 3 "/home/tino/ChibiStudio/tools/GNU Tools ARM Embedded/4.6 2012q2/bin/../lib/gcc/arm-none-ea
 306              		.file 4 "../../ChibiOS/os/ports/GCC/ARMCMx/chtypes.h"
 307              		.file 5 "../../ChibiOS/os/kernel/include/chlists.h"
 308              		.file 6 "../../ChibiOS/os/kernel/include/chthreads.h"
 309              		.file 7 "../../ChibiOS/os/ports/GCC/ARMCMx/chcore_v7m.h"
 310              		.file 8 "../../ChibiOS/os/kernel/include/chschd.h"
 311              		.file 9 "../../ChibiOS/os/kernel/include/chmtx.h"