ARM GAS  /tmp/ccle3y48.s 			page 1


   1              		.syntax unified
   2              		.cpu cortex-m3
   3              		.fpu softvfp
   4              		.eabi_attribute 20, 1
   5              		.eabi_attribute 21, 1
   6              		.eabi_attribute 23, 3
   7              		.eabi_attribute 24, 1
   8              		.eabi_attribute 25, 1
   9              		.eabi_attribute 26, 1
  10              		.eabi_attribute 30, 2
  11              		.eabi_attribute 34, 1
  12              		.eabi_attribute 18, 4
  13              		.thumb
  14              		.file	"chmtx.c"
  15              		.text
  16              	.Ltext0:
  17              		.cfi_sections	.debug_frame
  18              		.section	.text.chMtxInit,"ax",%progbits
  19              		.align	2
  20              		.p2align 4,,15
  21              		.global	chMtxInit
  22              		.thumb
  23              		.thumb_func
  24              		.type	chMtxInit, %function
  25              	chMtxInit:
  26              	.LFB7:
  27              		.file 1 "../../ChibiOS/os/kernel/src/chmtx.c"
  28              		.loc 1 79 0
  29              		.cfi_startproc
  30              		@ args = 0, pretend = 0, frame = 0
  31              		@ frame_needed = 0, uses_anonymous_args = 0
  32              	.LVL0:
  33 0000 10B5     		push	{r4, lr}
  34              	.LCFI0:
  35              		.cfi_def_cfa_offset 8
  36              		.cfi_offset 14, -4
  37              		.cfi_offset 4, -8
  38              		.loc 1 79 0
  39 0002 0446     		mov	r4, r0
  40              		.loc 1 81 0
  41 0004 20B1     		cbz	r0, .L4
  42              		.loc 1 84 0
  43 0006 0023     		movs	r3, #0
  44              		.loc 1 83 0
  45 0008 6460     		str	r4, [r4, #4]
  46 000a 2460     		str	r4, [r4, #0]
  47              		.loc 1 84 0
  48 000c A360     		str	r3, [r4, #8]
  49              		.loc 1 85 0
  50 000e 10BD     		pop	{r4, pc}
  51              	.L4:
  52              		.loc 1 81 0 discriminator 1
  53 0010 0348     		ldr	r0, .L5
  54              	.LVL1:
  55 0012 FFF7FEFF 		bl	chDbgPanic
  56              		.loc 1 84 0 discriminator 1
  57 0016 0023     		movs	r3, #0
ARM GAS  /tmp/ccle3y48.s 			page 2


  58              		.loc 1 83 0 discriminator 1
  59 0018 6460     		str	r4, [r4, #4]
  60 001a 2460     		str	r4, [r4, #0]
  61              		.loc 1 84 0 discriminator 1
  62 001c A360     		str	r3, [r4, #8]
  63              		.loc 1 85 0 discriminator 1
  64 001e 10BD     		pop	{r4, pc}
  65              	.L6:
  66              		.align	2
  67              	.L5:
  68 0020 00000000 		.word	.LC0
  69              		.cfi_endproc
  70              	.LFE7:
  71              		.size	chMtxInit, .-chMtxInit
  72 0024 AFF30080 		.section	.text.chMtxLockS,"ax",%progbits
  72      AFF30080 
  72      AFF30080 
  73              		.align	2
  74              		.p2align 4,,15
  75              		.global	chMtxLockS
  76              		.thumb
  77              		.thumb_func
  78              		.type	chMtxLockS, %function
  79              	chMtxLockS:
  80              	.LFB9:
  81              		.loc 1 114 0
  82              		.cfi_startproc
  83              		@ args = 0, pretend = 0, frame = 0
  84              		@ frame_needed = 0, uses_anonymous_args = 0
  85              	.LVL2:
  86 0000 F8B5     		push	{r3, r4, r5, r6, r7, lr}
  87              	.LCFI1:
  88              		.cfi_def_cfa_offset 24
  89              		.cfi_offset 14, -4
  90              		.cfi_offset 7, -8
  91              		.cfi_offset 6, -12
  92              		.cfi_offset 5, -16
  93              		.cfi_offset 4, -20
  94              		.cfi_offset 3, -24
  95              		.loc 1 115 0
  96 0002 3B4B     		ldr	r3, .L32
  97              		.loc 1 114 0
  98 0004 0546     		mov	r5, r0
  99              		.loc 1 115 0
 100 0006 9C69     		ldr	r4, [r3, #24]
 101              	.LVL3:
 102              		.loc 1 117 0
 103 0008 FFF7FEFF 		bl	chDbgCheckClassS
 104              	.LVL4:
 105              		.loc 1 118 0
 106 000c 002D     		cmp	r5, #0
 107 000e 6BD0     		beq	.L31
 108              	.L8:
 109              		.loc 1 121 0
 110 0010 A868     		ldr	r0, [r5, #8]
 111 0012 0028     		cmp	r0, #0
 112 0014 36D0     		beq	.L9
ARM GAS  /tmp/ccle3y48.s 			page 3


 113              	.LVL5:
 114              	.LBB29:
 115              		.loc 1 128 0 discriminator 1
 116 0016 A268     		ldr	r2, [r4, #8]
 117 0018 8168     		ldr	r1, [r0, #8]
 118 001a 9142     		cmp	r1, r2
 119 001c 08D2     		bcs	.L10
 120              	.LVL6:
 121              	.L26:
 122              		.loc 1 132 0
 123 001e 90F82030 		ldrb	r3, [r0, #32]	@ zero_extendqisi2
 124              		.loc 1 130 0
 125 0022 8260     		str	r2, [r0, #8]
 126              		.loc 1 132 0
 127 0024 042B     		cmp	r3, #4
 128 0026 45D0     		beq	.L12
 129 0028 052B     		cmp	r3, #5
 130 002a 30D0     		beq	.L13
 131 002c 002B     		cmp	r3, #0
 132 002e 1ED0     		beq	.L11
 133              	.LVL7:
 134              	.L10:
 135              		.file 2 "../../ChibiOS/os/kernel/include/chinline.h"
 136              		.loc 2 36 0
 137 0030 2B46     		mov	r3, r5
 138              	.LVL8:
 139              	.L20:
 140              	.LBB30:
 141              	.LBB31:
 142              		.loc 2 38 0
 143 0032 1B68     		ldr	r3, [r3, #0]
 144              	.LVL9:
 145              		.loc 2 39 0
 146 0034 9D42     		cmp	r5, r3
 147 0036 03D0     		beq	.L19
 148 0038 9868     		ldr	r0, [r3, #8]
 149 003a A268     		ldr	r2, [r4, #8]
 150 003c 9042     		cmp	r0, r2
 151 003e F8D2     		bcs	.L20
 152              	.L19:
 153              		.loc 2 41 0
 154 0040 5968     		ldr	r1, [r3, #4]
 155              		.loc 2 40 0
 156 0042 2360     		str	r3, [r4, #0]
 157              		.loc 2 41 0
 158 0044 6160     		str	r1, [r4, #4]
 159              	.LBE31:
 160              	.LBE30:
 161              		.loc 1 168 0
 162 0046 0420     		movs	r0, #4
 163              	.LBB33:
 164              	.LBB32:
 165              		.loc 2 42 0
 166 0048 5C60     		str	r4, [r3, #4]
 167 004a 0C60     		str	r4, [r1, #0]
 168              	.LBE32:
 169              	.LBE33:
ARM GAS  /tmp/ccle3y48.s 			page 4


 170              		.loc 1 167 0
 171 004c A562     		str	r5, [r4, #40]
 172              		.loc 1 168 0
 173 004e FFF7FEFF 		bl	chSchGoSleepS
 174              	.LVL10:
 175              		.loc 1 171 0
 176 0052 AB68     		ldr	r3, [r5, #8]
 177 0054 A342     		cmp	r3, r4
 178 0056 02D0     		beq	.L21
 179              		.loc 1 171 0 is_stmt 0 discriminator 1
 180 0058 2648     		ldr	r0, .L32+4
 181 005a FFF7FEFF 		bl	chDbgPanic
 182              	.L21:
 183              		.loc 1 172 0 is_stmt 1
 184 005e 206C     		ldr	r0, [r4, #64]
 185 0060 A842     		cmp	r0, r5
 186 0062 13D0     		beq	.L7
 187              		.loc 1 172 0 is_stmt 0 discriminator 1
 188 0064 2448     		ldr	r0, .L32+8
 189              	.LBE29:
 190              		.loc 1 180 0 is_stmt 1 discriminator 1
 191 0066 BDE8F840 		pop	{r3, r4, r5, r6, r7, lr}
 192              	.LBB56:
 193              		.loc 1 172 0 discriminator 1
 194 006a FFF7FEBF 		b	chDbgPanic
 195              	.LVL11:
 196              	.L11:
 197              	.LBB34:
 198              	.LBB35:
 199              		.loc 2 68 0
 200 006e 90E80C00 		ldmia	r0, {r2, r3}
 201 0072 1A60     		str	r2, [r3, #0]
 202              		.loc 2 69 0
 203 0074 0268     		ldr	r2, [r0, #0]
 204              	.LBE35:
 205              	.LBE34:
 206              		.loc 1 157 0
 207 0076 0121     		movs	r1, #1
 208 0078 80F82010 		strb	r1, [r0, #32]
 209              	.LVL12:
 210              	.LBB37:
 211              	.LBB36:
 212              		.loc 2 69 0
 213 007c 5360     		str	r3, [r2, #4]
 214              	.LBE36:
 215              	.LBE37:
 216              		.loc 1 160 0
 217 007e FFF7FEFF 		bl	chSchReadyI
 218              	.LVL13:
 219              		.loc 1 161 0
 220 0082 D5E7     		b	.L10
 221              	.L9:
 222              	.LBE56:
 223              		.loc 1 177 0
 224 0084 226C     		ldr	r2, [r4, #64]
 225              		.loc 1 176 0
 226 0086 AC60     		str	r4, [r5, #8]
ARM GAS  /tmp/ccle3y48.s 			page 5


 227              		.loc 1 177 0
 228 0088 EA60     		str	r2, [r5, #12]
 229              		.loc 1 178 0
 230 008a 2564     		str	r5, [r4, #64]
 231              	.L7:
 232 008c F8BD     		pop	{r3, r4, r5, r6, r7, pc}
 233              	.LVL14:
 234              	.L13:
 235              	.LBB57:
 236              	.LBB38:
 237              	.LBB39:
 238              		.loc 2 68 0
 239 008e 4168     		ldr	r1, [r0, #4]
 240 0090 0768     		ldr	r7, [r0, #0]
 241              	.LBE39:
 242              	.LBE38:
 243              		.loc 1 151 0
 244 0092 866A     		ldr	r6, [r0, #40]
 245              	.LVL15:
 246              	.LBB42:
 247              	.LBB40:
 248              		.loc 2 68 0
 249 0094 0F60     		str	r7, [r1, #0]
 250              		.loc 2 69 0
 251 0096 0768     		ldr	r7, [r0, #0]
 252              	.LBE40:
 253              	.LBE42:
 254              		.loc 2 36 0
 255 0098 3346     		mov	r3, r6
 256              	.LBB43:
 257              	.LBB41:
 258              		.loc 2 69 0
 259 009a 7960     		str	r1, [r7, #4]
 260              	.LVL16:
 261              	.L18:
 262              	.LBE41:
 263              	.LBE43:
 264              	.LBB44:
 265              	.LBB45:
 266              		.loc 2 38 0
 267 009c 1B68     		ldr	r3, [r3, #0]
 268              	.LVL17:
 269              		.loc 2 39 0
 270 009e 9E42     		cmp	r6, r3
 271 00a0 02D0     		beq	.L17
 272 00a2 9968     		ldr	r1, [r3, #8]
 273 00a4 9142     		cmp	r1, r2
 274 00a6 F9D2     		bcs	.L18
 275              	.L17:
 276              		.loc 2 41 0
 277 00a8 5A68     		ldr	r2, [r3, #4]
 278              		.loc 2 40 0
 279 00aa 0360     		str	r3, [r0, #0]
 280              		.loc 2 41 0
 281 00ac 4260     		str	r2, [r0, #4]
 282              		.loc 2 42 0
 283 00ae 1060     		str	r0, [r2, #0]
ARM GAS  /tmp/ccle3y48.s 			page 6


 284 00b0 5860     		str	r0, [r3, #4]
 285 00b2 BDE7     		b	.L10
 286              	.LVL18:
 287              	.L12:
 288              	.LBE45:
 289              	.LBE44:
 290              	.LBB46:
 291              	.LBB47:
 292              		.loc 2 68 0
 293 00b4 4168     		ldr	r1, [r0, #4]
 294 00b6 0768     		ldr	r7, [r0, #0]
 295              	.LBE47:
 296              	.LBE46:
 297              		.loc 1 135 0
 298 00b8 866A     		ldr	r6, [r0, #40]
 299              	.LVL19:
 300              	.LBB50:
 301              	.LBB48:
 302              		.loc 2 68 0
 303 00ba 0F60     		str	r7, [r1, #0]
 304              		.loc 2 69 0
 305 00bc 0768     		ldr	r7, [r0, #0]
 306              	.LBE48:
 307              	.LBE50:
 308              		.loc 1 135 0
 309 00be 3346     		mov	r3, r6
 310              	.LBB51:
 311              	.LBB49:
 312              		.loc 2 69 0
 313 00c0 7960     		str	r1, [r7, #4]
 314              	.LVL20:
 315              	.L15:
 316              	.LBE49:
 317              	.LBE51:
 318              	.LBB52:
 319              	.LBB53:
 320              		.loc 2 38 0
 321 00c2 1B68     		ldr	r3, [r3, #0]
 322              	.LVL21:
 323              		.loc 2 39 0
 324 00c4 9E42     		cmp	r6, r3
 325 00c6 0DD0     		beq	.L23
 326 00c8 9968     		ldr	r1, [r3, #8]
 327 00ca 9142     		cmp	r1, r2
 328 00cc F9D2     		bcs	.L15
 329              	.LVL22:
 330              	.L14:
 331              		.loc 2 41 0
 332 00ce 5A68     		ldr	r2, [r3, #4]
 333              		.loc 2 40 0
 334 00d0 0360     		str	r3, [r0, #0]
 335              		.loc 2 41 0
 336 00d2 4260     		str	r2, [r0, #4]
 337              		.loc 2 42 0
 338 00d4 1060     		str	r0, [r2, #0]
 339 00d6 5860     		str	r0, [r3, #4]
 340              	.LBE53:
ARM GAS  /tmp/ccle3y48.s 			page 7


 341              	.LBE52:
 342              		.loc 1 136 0
 343 00d8 B068     		ldr	r0, [r6, #8]
 344              	.LVL23:
 345              		.loc 1 128 0
 346 00da A268     		ldr	r2, [r4, #8]
 347 00dc 8368     		ldr	r3, [r0, #8]
 348              	.LVL24:
 349 00de 9342     		cmp	r3, r2
 350 00e0 9DD3     		bcc	.L26
 351 00e2 A5E7     		b	.L10
 352              	.LVL25:
 353              	.L23:
 354              	.LBB55:
 355              	.LBB54:
 356              		.loc 2 38 0
 357 00e4 3346     		mov	r3, r6
 358              	.LVL26:
 359 00e6 F2E7     		b	.L14
 360              	.LVL27:
 361              	.L31:
 362              	.LBE54:
 363              	.LBE55:
 364              	.LBE57:
 365              		.loc 1 118 0 discriminator 1
 366 00e8 0448     		ldr	r0, .L32+12
 367 00ea FFF7FEFF 		bl	chDbgPanic
 368 00ee 8FE7     		b	.L8
 369              	.L33:
 370              		.align	2
 371              	.L32:
 372 00f0 00000000 		.word	rlist
 373 00f4 20000000 		.word	.LC2
 374 00f8 34000000 		.word	.LC3
 375 00fc 10000000 		.word	.LC1
 376              		.cfi_endproc
 377              	.LFE9:
 378              		.size	chMtxLockS, .-chMtxLockS
 379              		.section	.text.chMtxLock,"ax",%progbits
 380              		.align	2
 381              		.p2align 4,,15
 382              		.global	chMtxLock
 383              		.thumb
 384              		.thumb_func
 385              		.type	chMtxLock, %function
 386              	chMtxLock:
 387              	.LFB8:
 388              		.loc 1 96 0
 389              		.cfi_startproc
 390              		@ args = 0, pretend = 0, frame = 0
 391              		@ frame_needed = 0, uses_anonymous_args = 0
 392              	.LVL28:
 393 0000 10B5     		push	{r4, lr}
 394              	.LCFI2:
 395              		.cfi_def_cfa_offset 8
 396              		.cfi_offset 14, -4
 397              		.cfi_offset 4, -8
ARM GAS  /tmp/ccle3y48.s 			page 8


 398              	.LBB58:
 399              		.loc 1 98 0
 400 0002 2023     		movs	r3, #32
 401              	.LVL29:
 402              	.LBE58:
 403              		.loc 1 96 0
 404 0004 0446     		mov	r4, r0
 405              	.LBB59:
 406              		.loc 1 98 0
 407              	@ 98 "../../ChibiOS/os/kernel/src/chmtx.c" 1
 408 0006 83F31188 		msr     BASEPRI, r3
 409              	@ 0 "" 2
 410              	.LVL30:
 411              		.thumb
 412              	.LBE59:
 413 000a FFF7FEFF 		bl	dbg_check_lock
 414              	.LVL31:
 415              		.loc 1 100 0
 416 000e 2046     		mov	r0, r4
 417 0010 FFF7FEFF 		bl	chMtxLockS
 418              		.loc 1 102 0
 419 0014 FFF7FEFF 		bl	dbg_check_unlock
 420              	.LBB60:
 421 0018 0023     		movs	r3, #0
 422              	.LVL32:
 423              	@ 102 "../../ChibiOS/os/kernel/src/chmtx.c" 1
 424 001a 83F31188 		msr     BASEPRI, r3
 425              	@ 0 "" 2
 426              	.LVL33:
 427              		.thumb
 428              	.LBE60:
 429              		.loc 1 103 0
 430 001e 10BD     		pop	{r4, pc}
 431              		.cfi_endproc
 432              	.LFE8:
 433              		.size	chMtxLock, .-chMtxLock
 434              		.section	.text.chMtxTryLock,"ax",%progbits
 435              		.align	2
 436              		.p2align 4,,15
 437              		.global	chMtxTryLock
 438              		.thumb
 439              		.thumb_func
 440              		.type	chMtxTryLock, %function
 441              	chMtxTryLock:
 442              	.LFB10:
 443              		.loc 1 199 0
 444              		.cfi_startproc
 445              		@ args = 0, pretend = 0, frame = 0
 446              		@ frame_needed = 0, uses_anonymous_args = 0
 447              	.LVL34:
 448 0000 38B5     		push	{r3, r4, r5, lr}
 449              	.LCFI3:
 450              		.cfi_def_cfa_offset 16
 451              		.cfi_offset 14, -4
 452              		.cfi_offset 5, -8
 453              		.cfi_offset 4, -12
 454              		.cfi_offset 3, -16
ARM GAS  /tmp/ccle3y48.s 			page 9


 455              		.loc 1 199 0
 456 0002 0446     		mov	r4, r0
 457              	.LBB65:
 458              		.loc 1 202 0
 459 0004 2023     		movs	r3, #32
 460              	.LVL35:
 461              	@ 202 "../../ChibiOS/os/kernel/src/chmtx.c" 1
 462 0006 83F31188 		msr     BASEPRI, r3
 463              	@ 0 "" 2
 464              	.LVL36:
 465              		.thumb
 466              	.LBE65:
 467 000a FFF7FEFF 		bl	dbg_check_lock
 468              	.LVL37:
 469              	.LBB66:
 470              	.LBB67:
 471              		.loc 1 229 0
 472 000e FFF7FEFF 		bl	chDbgCheckClassS
 473              		.loc 1 230 0
 474 0012 BCB1     		cbz	r4, .L39
 475              	.L36:
 476              		.loc 1 232 0
 477 0014 A368     		ldr	r3, [r4, #8]
 478 0016 3BB1     		cbz	r3, .L40
 479              	.LBE67:
 480              	.LBE66:
 481              		.loc 1 206 0
 482 0018 FFF7FEFF 		bl	dbg_check_unlock
 483              	.LBB71:
 484              	.LBB68:
 485              		.loc 1 233 0
 486 001c 0025     		movs	r5, #0
 487              	.LBE68:
 488              	.LBE71:
 489              	.LBB72:
 490              		.loc 1 206 0
 491 001e 0023     		movs	r3, #0
 492              	.LVL38:
 493              	@ 206 "../../ChibiOS/os/kernel/src/chmtx.c" 1
 494 0020 83F31188 		msr     BASEPRI, r3
 495              	@ 0 "" 2
 496              	.LVL39:
 497              		.thumb
 498              	.LBE72:
 499              		.loc 1 208 0
 500 0024 2846     		mov	r0, r5
 501 0026 38BD     		pop	{r3, r4, r5, pc}
 502              	.LVL40:
 503              	.L40:
 504              	.LBB73:
 505              	.LBB69:
 506              		.loc 1 234 0
 507 0028 0849     		ldr	r1, .L41
 508              		.loc 1 237 0
 509 002a 0125     		movs	r5, #1
 510              		.loc 1 234 0
 511 002c 8869     		ldr	r0, [r1, #24]
ARM GAS  /tmp/ccle3y48.s 			page 10


 512              		.loc 1 235 0
 513 002e 026C     		ldr	r2, [r0, #64]
 514              		.loc 1 234 0
 515 0030 A060     		str	r0, [r4, #8]
 516              		.loc 1 235 0
 517 0032 E260     		str	r2, [r4, #12]
 518              		.loc 1 236 0
 519 0034 0464     		str	r4, [r0, #64]
 520              	.LBE69:
 521              	.LBE73:
 522              		.loc 1 206 0
 523 0036 FFF7FEFF 		bl	dbg_check_unlock
 524              	.LBB74:
 525 003a 0023     		movs	r3, #0
 526              	@ 206 "../../ChibiOS/os/kernel/src/chmtx.c" 1
 527 003c 83F31188 		msr     BASEPRI, r3
 528              	@ 0 "" 2
 529              	.LVL41:
 530              		.thumb
 531              	.LBE74:
 532              		.loc 1 208 0
 533 0040 2846     		mov	r0, r5
 534 0042 38BD     		pop	{r3, r4, r5, pc}
 535              	.LVL42:
 536              	.L39:
 537              	.LBB75:
 538              	.LBB70:
 539              		.loc 1 230 0
 540 0044 0248     		ldr	r0, .L41+4
 541 0046 FFF7FEFF 		bl	chDbgPanic
 542 004a E3E7     		b	.L36
 543              	.L42:
 544              		.align	2
 545              	.L41:
 546 004c 00000000 		.word	rlist
 547 0050 48000000 		.word	.LC4
 548              	.LBE70:
 549              	.LBE75:
 550              		.cfi_endproc
 551              	.LFE10:
 552              		.size	chMtxTryLock, .-chMtxTryLock
 553 0054 AFF30080 		.section	.text.chMtxTryLockS,"ax",%progbits
 553      AFF30080 
 553      AFF30080 
 554              		.align	2
 555              		.p2align 4,,15
 556              		.global	chMtxTryLockS
 557              		.thumb
 558              		.thumb_func
 559              		.type	chMtxTryLockS, %function
 560              	chMtxTryLockS:
 561              	.LFB11:
 562              		.loc 1 227 0
 563              		.cfi_startproc
 564              		@ args = 0, pretend = 0, frame = 0
 565              		@ frame_needed = 0, uses_anonymous_args = 0
 566              	.LVL43:
ARM GAS  /tmp/ccle3y48.s 			page 11


 567 0000 10B5     		push	{r4, lr}
 568              	.LCFI4:
 569              		.cfi_def_cfa_offset 8
 570              		.cfi_offset 14, -4
 571              		.cfi_offset 4, -8
 572              		.loc 1 227 0
 573 0002 0446     		mov	r4, r0
 574              		.loc 1 229 0
 575 0004 FFF7FEFF 		bl	chDbgCheckClassS
 576              	.LVL44:
 577              		.loc 1 230 0
 578 0008 5CB1     		cbz	r4, .L47
 579              	.L44:
 580              		.loc 1 232 0
 581 000a A368     		ldr	r3, [r4, #8]
 582 000c 0BB1     		cbz	r3, .L48
 583              		.loc 1 233 0
 584 000e 0020     		movs	r0, #0
 585              		.loc 1 238 0
 586 0010 10BD     		pop	{r4, pc}
 587              	.L48:
 588              		.loc 1 234 0
 589 0012 064B     		ldr	r3, .L49
 590              		.loc 1 237 0
 591 0014 0120     		movs	r0, #1
 592              		.loc 1 234 0
 593 0016 9969     		ldr	r1, [r3, #24]
 594              		.loc 1 235 0
 595 0018 0A6C     		ldr	r2, [r1, #64]
 596              		.loc 1 234 0
 597 001a A160     		str	r1, [r4, #8]
 598              		.loc 1 235 0
 599 001c E260     		str	r2, [r4, #12]
 600              		.loc 1 236 0
 601 001e 0C64     		str	r4, [r1, #64]
 602              		.loc 1 237 0
 603 0020 10BD     		pop	{r4, pc}
 604              	.L47:
 605              		.loc 1 230 0 discriminator 1
 606 0022 0348     		ldr	r0, .L49+4
 607 0024 FFF7FEFF 		bl	chDbgPanic
 608 0028 EFE7     		b	.L44
 609              	.L50:
 610 002a 00BF     		.align	2
 611              	.L49:
 612 002c 00000000 		.word	rlist
 613 0030 48000000 		.word	.LC4
 614              		.cfi_endproc
 615              	.LFE11:
 616              		.size	chMtxTryLockS, .-chMtxTryLockS
 617 0034 AFF30080 		.section	.text.chMtxUnlock,"ax",%progbits
 617      AFF30080 
 617      AFF30080 
 618              		.align	2
 619              		.p2align 4,,15
 620              		.global	chMtxUnlock
 621              		.thumb
ARM GAS  /tmp/ccle3y48.s 			page 12


 622              		.thumb_func
 623              		.type	chMtxUnlock, %function
 624              	chMtxUnlock:
 625              	.LFB12:
 626              		.loc 1 250 0
 627              		.cfi_startproc
 628              		@ args = 0, pretend = 0, frame = 0
 629              		@ frame_needed = 0, uses_anonymous_args = 0
 630              		.loc 1 251 0
 631 0000 214A     		ldr	r2, .L62
 632              		.loc 1 250 0
 633 0002 38B5     		push	{r3, r4, r5, lr}
 634              	.LCFI5:
 635              		.cfi_def_cfa_offset 16
 636              		.cfi_offset 14, -4
 637              		.cfi_offset 5, -8
 638              		.cfi_offset 4, -12
 639              		.cfi_offset 3, -16
 640              		.loc 1 251 0
 641 0004 9569     		ldr	r5, [r2, #24]
 642              	.LVL45:
 643              	.LBB76:
 644              		.loc 1 254 0
 645 0006 2023     		movs	r3, #32
 646              	.LVL46:
 647              	@ 254 "../../ChibiOS/os/kernel/src/chmtx.c" 1
 648 0008 83F31188 		msr     BASEPRI, r3
 649              	@ 0 "" 2
 650              	.LVL47:
 651              		.thumb
 652              	.LBE76:
 653 000c FFF7FEFF 		bl	dbg_check_lock
 654              	.LVL48:
 655              		.loc 1 255 0
 656 0010 2C6C     		ldr	r4, [r5, #64]
 657 0012 002C     		cmp	r4, #0
 658 0014 32D0     		beq	.L61
 659              	.L52:
 660              		.loc 1 258 0
 661 0016 A368     		ldr	r3, [r4, #8]
 662 0018 AB42     		cmp	r3, r5
 663 001a 03D0     		beq	.L53
 664              		.loc 1 258 0 is_stmt 0 discriminator 1
 665 001c 1B48     		ldr	r0, .L62+4
 666 001e FFF7FEFF 		bl	chDbgPanic
 667 0022 2C6C     		ldr	r4, [r5, #64]
 668              	.L53:
 669              	.LVL49:
 670              		.loc 1 266 0 is_stmt 1
 671 0024 2068     		ldr	r0, [r4, #0]
 672              		.loc 1 264 0
 673 0026 E368     		ldr	r3, [r4, #12]
 674              		.loc 1 266 0
 675 0028 A042     		cmp	r0, r4
 676              		.loc 1 264 0
 677 002a 2B64     		str	r3, [r5, #64]
 678              		.loc 1 266 0
ARM GAS  /tmp/ccle3y48.s 			page 13


 679 002c 1DD0     		beq	.L54
 680              	.LBB77:
 681              		.loc 1 271 0
 682 002e 696C     		ldr	r1, [r5, #68]
 683              	.LVL50:
 684              		.loc 1 273 0
 685 0030 4BB1     		cbz	r3, .L55
 686              	.LVL51:
 687              	.L59:
 688              		.loc 1 277 0
 689 0032 1A68     		ldr	r2, [r3, #0]
 690 0034 9A42     		cmp	r2, r3
 691 0036 03D0     		beq	.L56
 692              		.loc 1 277 0 is_stmt 0 discriminator 1
 693 0038 9268     		ldr	r2, [r2, #8]
 694 003a 9142     		cmp	r1, r2
 695 003c 38BF     		it	cc
 696 003e 1146     		movcc	r1, r2
 697              	.LVL52:
 698              	.L56:
 699              		.loc 1 279 0 is_stmt 1
 700 0040 DB68     		ldr	r3, [r3, #12]
 701              	.LVL53:
 702              		.loc 1 273 0
 703 0042 002B     		cmp	r3, #0
 704 0044 F5D1     		bne	.L59
 705              	.L55:
 706              	.LBB78:
 707              	.LBB79:
 708              		.loc 2 55 0
 709 0046 0368     		ldr	r3, [r0, #0]
 710              	.LVL54:
 711              	.LBE79:
 712              	.LBE78:
 713              		.loc 1 288 0
 714 0048 026C     		ldr	r2, [r0, #64]
 715              		.loc 1 283 0
 716 004a A960     		str	r1, [r5, #8]
 717              	.LVL55:
 718              	.LBB82:
 719              	.LBB80:
 720              		.loc 2 55 0
 721 004c 2360     		str	r3, [r4, #0]
 722              	.LBE80:
 723              	.LBE82:
 724              		.loc 1 290 0
 725 004e 0021     		movs	r1, #0
 726              	.LVL56:
 727              	.LBB83:
 728              	.LBB81:
 729              		.loc 2 55 0
 730 0050 5C60     		str	r4, [r3, #4]
 731              	.LBE81:
 732              	.LBE83:
 733              		.loc 1 287 0
 734 0052 A060     		str	r0, [r4, #8]
 735              		.loc 1 288 0
ARM GAS  /tmp/ccle3y48.s 			page 14


 736 0054 E260     		str	r2, [r4, #12]
 737              		.loc 1 289 0
 738 0056 0464     		str	r4, [r0, #64]
 739              		.loc 1 290 0
 740 0058 FFF7FEFF 		bl	chSchWakeupS
 741              	.LVL57:
 742              	.LBE77:
 743              		.loc 1 294 0
 744 005c FFF7FEFF 		bl	dbg_check_unlock
 745              	.LBB84:
 746 0060 0023     		movs	r3, #0
 747              	.LVL58:
 748              	@ 294 "../../ChibiOS/os/kernel/src/chmtx.c" 1
 749 0062 83F31188 		msr     BASEPRI, r3
 750              	@ 0 "" 2
 751              	.LVL59:
 752              		.thumb
 753              	.LBE84:
 754              		.loc 1 296 0
 755 0066 2046     		mov	r0, r4
 756 0068 38BD     		pop	{r3, r4, r5, pc}
 757              	.LVL60:
 758              	.L54:
 759              		.loc 1 293 0
 760 006a 0020     		movs	r0, #0
 761 006c A060     		str	r0, [r4, #8]
 762              		.loc 1 294 0
 763 006e FFF7FEFF 		bl	dbg_check_unlock
 764              	.LBB85:
 765 0072 0023     		movs	r3, #0
 766              	@ 294 "../../ChibiOS/os/kernel/src/chmtx.c" 1
 767 0074 83F31188 		msr     BASEPRI, r3
 768              	@ 0 "" 2
 769              	.LVL61:
 770              		.thumb
 771              	.LBE85:
 772              		.loc 1 296 0
 773 0078 2046     		mov	r0, r4
 774 007a 38BD     		pop	{r3, r4, r5, pc}
 775              	.LVL62:
 776              	.L61:
 777              		.loc 1 255 0 discriminator 1
 778 007c 0448     		ldr	r0, .L62+8
 779 007e FFF7FEFF 		bl	chDbgPanic
 780 0082 2C6C     		ldr	r4, [r5, #64]
 781 0084 C7E7     		b	.L52
 782              	.L63:
 783 0086 00BF     		.align	2
 784              	.L62:
 785 0088 00000000 		.word	rlist
 786 008c 70000000 		.word	.LC6
 787 0090 5C000000 		.word	.LC5
 788              		.cfi_endproc
 789              	.LFE12:
 790              		.size	chMtxUnlock, .-chMtxUnlock
 791 0094 AFF30080 		.section	.text.chMtxUnlockS,"ax",%progbits
 791      AFF30080 
ARM GAS  /tmp/ccle3y48.s 			page 15


 791      AFF30080 
 792              		.align	2
 793              		.p2align 4,,15
 794              		.global	chMtxUnlockS
 795              		.thumb
 796              		.thumb_func
 797              		.type	chMtxUnlockS, %function
 798              	chMtxUnlockS:
 799              	.LFB13:
 800              		.loc 1 310 0
 801              		.cfi_startproc
 802              		@ args = 0, pretend = 0, frame = 0
 803              		@ frame_needed = 0, uses_anonymous_args = 0
 804 0000 38B5     		push	{r3, r4, r5, lr}
 805              	.LCFI6:
 806              		.cfi_def_cfa_offset 16
 807              		.cfi_offset 14, -4
 808              		.cfi_offset 5, -8
 809              		.cfi_offset 4, -12
 810              		.cfi_offset 3, -16
 811              		.loc 1 311 0
 812 0002 1A4B     		ldr	r3, .L75
 813 0004 9D69     		ldr	r5, [r3, #24]
 814              	.LVL63:
 815              		.loc 1 314 0
 816 0006 FFF7FEFF 		bl	chDbgCheckClassS
 817              	.LVL64:
 818              		.loc 1 315 0
 819 000a 2C6C     		ldr	r4, [r5, #64]
 820 000c 002C     		cmp	r4, #0
 821 000e 27D0     		beq	.L74
 822              	.L65:
 823              		.loc 1 318 0
 824 0010 A068     		ldr	r0, [r4, #8]
 825 0012 A842     		cmp	r0, r5
 826 0014 03D0     		beq	.L66
 827              		.loc 1 318 0 is_stmt 0 discriminator 1
 828 0016 1648     		ldr	r0, .L75+4
 829 0018 FFF7FEFF 		bl	chDbgPanic
 830 001c 2C6C     		ldr	r4, [r5, #64]
 831              	.L66:
 832              	.LVL65:
 833              		.loc 1 327 0 is_stmt 1
 834 001e 2068     		ldr	r0, [r4, #0]
 835              		.loc 1 325 0
 836 0020 E368     		ldr	r3, [r4, #12]
 837              		.loc 1 327 0
 838 0022 A042     		cmp	r0, r4
 839              		.loc 1 325 0
 840 0024 2B64     		str	r3, [r5, #64]
 841              		.loc 1 327 0
 842 0026 17D0     		beq	.L67
 843              	.LBB86:
 844              		.loc 1 332 0
 845 0028 696C     		ldr	r1, [r5, #68]
 846              	.LVL66:
 847              		.loc 1 334 0
ARM GAS  /tmp/ccle3y48.s 			page 16


 848 002a 4BB1     		cbz	r3, .L68
 849              	.LVL67:
 850              	.L72:
 851              		.loc 1 338 0
 852 002c 1A68     		ldr	r2, [r3, #0]
 853 002e 9A42     		cmp	r2, r3
 854 0030 03D0     		beq	.L69
 855              		.loc 1 338 0 is_stmt 0 discriminator 1
 856 0032 9268     		ldr	r2, [r2, #8]
 857 0034 9142     		cmp	r1, r2
 858 0036 38BF     		it	cc
 859 0038 1146     		movcc	r1, r2
 860              	.LVL68:
 861              	.L69:
 862              		.loc 1 340 0 is_stmt 1
 863 003a DB68     		ldr	r3, [r3, #12]
 864              	.LVL69:
 865              		.loc 1 334 0
 866 003c 002B     		cmp	r3, #0
 867 003e F5D1     		bne	.L72
 868              	.L68:
 869              	.LBB87:
 870              	.LBB88:
 871              		.loc 2 55 0
 872 0040 0368     		ldr	r3, [r0, #0]
 873              	.LVL70:
 874              	.LBE88:
 875              	.LBE87:
 876              		.loc 1 347 0
 877 0042 026C     		ldr	r2, [r0, #64]
 878              		.loc 1 342 0
 879 0044 A960     		str	r1, [r5, #8]
 880              	.LVL71:
 881              	.LBB90:
 882              	.LBB89:
 883              		.loc 2 55 0
 884 0046 2360     		str	r3, [r4, #0]
 885 0048 5C60     		str	r4, [r3, #4]
 886              	.LBE89:
 887              	.LBE90:
 888              		.loc 1 346 0
 889 004a A060     		str	r0, [r4, #8]
 890              		.loc 1 347 0
 891 004c E260     		str	r2, [r4, #12]
 892              		.loc 1 348 0
 893 004e 0464     		str	r4, [r0, #64]
 894              		.loc 1 349 0
 895 0050 FFF7FEFF 		bl	chSchReadyI
 896              	.LVL72:
 897              	.LBE86:
 898              		.loc 1 354 0
 899 0054 2046     		mov	r0, r4
 900 0056 38BD     		pop	{r3, r4, r5, pc}
 901              	.LVL73:
 902              	.L67:
 903              		.loc 1 352 0
 904 0058 0021     		movs	r1, #0
ARM GAS  /tmp/ccle3y48.s 			page 17


 905 005a A160     		str	r1, [r4, #8]
 906              		.loc 1 354 0
 907 005c 2046     		mov	r0, r4
 908 005e 38BD     		pop	{r3, r4, r5, pc}
 909              	.LVL74:
 910              	.L74:
 911              		.loc 1 315 0 discriminator 1
 912 0060 0448     		ldr	r0, .L75+8
 913 0062 FFF7FEFF 		bl	chDbgPanic
 914 0066 2C6C     		ldr	r4, [r5, #64]
 915 0068 D2E7     		b	.L65
 916              	.L76:
 917 006a 00BF     		.align	2
 918              	.L75:
 919 006c 00000000 		.word	rlist
 920 0070 98000000 		.word	.LC8
 921 0074 84000000 		.word	.LC7
 922              		.cfi_endproc
 923              	.LFE13:
 924              		.size	chMtxUnlockS, .-chMtxUnlockS
 925 0078 AFF30080 		.section	.text.chMtxUnlockAll,"ax",%progbits
 925      AFF30080 
 926              		.align	2
 927              		.p2align 4,,15
 928              		.global	chMtxUnlockAll
 929              		.thumb
 930              		.thumb_func
 931              		.type	chMtxUnlockAll, %function
 932              	chMtxUnlockAll:
 933              	.LFB14:
 934              		.loc 1 367 0
 935              		.cfi_startproc
 936              		@ args = 0, pretend = 0, frame = 0
 937              		@ frame_needed = 0, uses_anonymous_args = 0
 938              		.loc 1 368 0
 939 0000 144A     		ldr	r2, .L86
 940              		.loc 1 367 0
 941 0002 38B5     		push	{r3, r4, r5, lr}
 942              	.LCFI7:
 943              		.cfi_def_cfa_offset 16
 944              		.cfi_offset 14, -4
 945              		.cfi_offset 5, -8
 946              		.cfi_offset 4, -12
 947              		.cfi_offset 3, -16
 948              		.loc 1 368 0
 949 0004 9469     		ldr	r4, [r2, #24]
 950              	.LVL75:
 951              	.LBB91:
 952              		.loc 1 370 0
 953 0006 2023     		movs	r3, #32
 954              	.LVL76:
 955              	@ 370 "../../ChibiOS/os/kernel/src/chmtx.c" 1
 956 0008 83F31188 		msr     BASEPRI, r3
 957              	@ 0 "" 2
 958              	.LVL77:
 959              		.thumb
 960              	.LBE91:
ARM GAS  /tmp/ccle3y48.s 			page 18


 961 000c FFF7FEFF 		bl	dbg_check_lock
 962              	.LVL78:
 963              		.loc 1 371 0
 964 0010 236C     		ldr	r3, [r4, #64]
 965 0012 CBB1     		cbz	r3, .L78
 966              	.LBB92:
 967              		.loc 1 383 0
 968 0014 0025     		movs	r5, #0
 969 0016 0AE0     		b	.L82
 970              	.LVL79:
 971              	.L85:
 972              	.LBB93:
 973              	.LBB94:
 974              	.LBB95:
 975              		.loc 2 55 0
 976 0018 0268     		ldr	r2, [r0, #0]
 977              	.LBE95:
 978              	.LBE94:
 979              		.loc 1 378 0
 980 001a 016C     		ldr	r1, [r0, #64]
 981              	.LBB97:
 982              	.LBB96:
 983              		.loc 2 55 0
 984 001c 1A60     		str	r2, [r3, #0]
 985 001e 5360     		str	r3, [r2, #4]
 986              	.LBE96:
 987              	.LBE97:
 988              		.loc 1 377 0
 989 0020 9860     		str	r0, [r3, #8]
 990              		.loc 1 378 0
 991 0022 D960     		str	r1, [r3, #12]
 992              		.loc 1 379 0
 993 0024 0364     		str	r3, [r0, #64]
 994              		.loc 1 380 0
 995 0026 FFF7FEFF 		bl	chSchReadyI
 996              	.LVL80:
 997              	.LBE93:
 998              	.LBE92:
 999              		.loc 1 384 0
 1000 002a 236C     		ldr	r3, [r4, #64]
 1001 002c 43B1     		cbz	r3, .L84
 1002              	.L82:
 1003              	.LVL81:
 1004              	.LBB98:
 1005              		.loc 1 375 0
 1006 002e 1868     		ldr	r0, [r3, #0]
 1007              		.loc 1 374 0
 1008 0030 D968     		ldr	r1, [r3, #12]
 1009              		.loc 1 375 0
 1010 0032 9842     		cmp	r0, r3
 1011              		.loc 1 374 0
 1012 0034 2164     		str	r1, [r4, #64]
 1013              		.loc 1 375 0
 1014 0036 EFD1     		bne	.L85
 1015              		.loc 1 383 0
 1016 0038 9D60     		str	r5, [r3, #8]
 1017              	.LBE98:
ARM GAS  /tmp/ccle3y48.s 			page 19


 1018              		.loc 1 384 0
 1019 003a 236C     		ldr	r3, [r4, #64]
 1020              	.LVL82:
 1021 003c 002B     		cmp	r3, #0
 1022 003e F6D1     		bne	.L82
 1023              	.L84:
 1024              		.loc 1 385 0
 1025 0040 636C     		ldr	r3, [r4, #68]
 1026 0042 A360     		str	r3, [r4, #8]
 1027              		.loc 1 386 0
 1028 0044 FFF7FEFF 		bl	chSchRescheduleS
 1029              	.L78:
 1030              		.loc 1 388 0
 1031 0048 FFF7FEFF 		bl	dbg_check_unlock
 1032              	.LBB99:
 1033 004c 0023     		movs	r3, #0
 1034              	.LVL83:
 1035              	@ 388 "../../ChibiOS/os/kernel/src/chmtx.c" 1
 1036 004e 83F31188 		msr     BASEPRI, r3
 1037              	@ 0 "" 2
 1038              	.LVL84:
 1039              		.thumb
 1040              	.LBE99:
 1041              		.loc 1 389 0
 1042 0052 38BD     		pop	{r3, r4, r5, pc}
 1043              	.L87:
 1044              		.align	2
 1045              	.L86:
 1046 0054 00000000 		.word	rlist
 1047              		.cfi_endproc
 1048              	.LFE14:
 1049              		.size	chMtxUnlockAll, .-chMtxUnlockAll
 1050 0058 AFF30080 		.section	.rodata.str1.4,"aMS",%progbits,1
 1050      AFF30080 
 1051              		.align	2
 1052              	.LC0:
 1053 0000 2263684D 		.ascii	"\"chMtxInit\"()\000"
 1053      7478496E 
 1053      69742228 
 1053      2900
 1054 000e 0000     		.space	2
 1055              	.LC1:
 1056 0010 2263684D 		.ascii	"\"chMtxLockS\"()\000"
 1056      74784C6F 
 1056      636B5322 
 1056      282900
 1057 001f 00       		.space	1
 1058              	.LC2:
 1059 0020 63684D74 		.ascii	"chMtxLockS(), #1\000"
 1059      784C6F63 
 1059      6B532829 
 1059      2C202331 
 1059      00
 1060 0031 000000   		.space	3
 1061              	.LC3:
 1062 0034 63684D74 		.ascii	"chMtxLockS(), #2\000"
 1062      784C6F63 
ARM GAS  /tmp/ccle3y48.s 			page 20


 1062      6B532829 
 1062      2C202332 
 1062      00
 1063 0045 000000   		.space	3
 1064              	.LC4:
 1065 0048 2263684D 		.ascii	"\"chMtxTryLockS\"()\000"
 1065      74785472 
 1065      794C6F63 
 1065      6B532228 
 1065      2900
 1066 005a 0000     		.space	2
 1067              	.LC5:
 1068 005c 63684D74 		.ascii	"chMtxUnlock(), #1\000"
 1068      78556E6C 
 1068      6F636B28 
 1068      292C2023 
 1068      3100
 1069 006e 0000     		.space	2
 1070              	.LC6:
 1071 0070 63684D74 		.ascii	"chMtxUnlock(), #2\000"
 1071      78556E6C 
 1071      6F636B28 
 1071      292C2023 
 1071      3200
 1072 0082 0000     		.space	2
 1073              	.LC7:
 1074 0084 63684D74 		.ascii	"chMtxUnlockS(), #1\000"
 1074      78556E6C 
 1074      6F636B53 
 1074      28292C20 
 1074      233100
 1075 0097 00       		.space	1
 1076              	.LC8:
 1077 0098 63684D74 		.ascii	"chMtxUnlockS(), #2\000"
 1077      78556E6C 
 1077      6F636B53 
 1077      28292C20 
 1077      233200
 1078 00ab 00       		.text
 1079              	.Letext0:
 1080              		.file 3 "/home/tino/ChibiStudio/tools/GNU Tools ARM Embedded/4.6 2012q2/bin/../lib/gcc/arm-none-ea
 1081              		.file 4 "../../ChibiOS/os/ports/GCC/ARMCMx/chtypes.h"
 1082              		.file 5 "../../ChibiOS/os/kernel/include/chlists.h"
 1083              		.file 6 "../../ChibiOS/os/kernel/include/chthreads.h"
 1084              		.file 7 "../../ChibiOS/os/ports/GCC/ARMCMx/chcore_v7m.h"
 1085              		.file 8 "../../ChibiOS/os/kernel/include/chschd.h"
 1086              		.file 9 "../../ChibiOS/os/kernel/include/chmtx.h"