ARM GAS  /tmp/ccYKrizH.s 			page 1


   1              		.syntax unified
   2              		.cpu cortex-m3
   3              		.fpu softvfp
   4              		.eabi_attribute 20, 1
   5              		.eabi_attribute 21, 1
   6              		.eabi_attribute 23, 3
   7              		.eabi_attribute 24, 1
   8              		.eabi_attribute 25, 1
   9              		.eabi_attribute 26, 1
  10              		.eabi_attribute 30, 2
  11              		.eabi_attribute 34, 1
  12              		.eabi_attribute 18, 4
  13              		.thumb
  14              		.file	"chprintf.c"
  15              		.text
  16              	.Ltext0:
  17              		.cfi_sections	.debug_frame
  18              		.section	.text.chprintf,"ax",%progbits
  19              		.align	2
  20              		.p2align 4,,15
  21              		.global	chprintf
  22              		.thumb
  23              		.thumb_func
  24              		.type	chprintf, %function
  25              	chprintf:
  26              	.LFB9:
  27              		.file 1 "../../ChibiOS/os/various/chprintf.c"
  28              		.loc 1 108 0
  29              		.cfi_startproc
  30              		@ args = 4, pretend = 12, frame = 48
  31              		@ frame_needed = 0, uses_anonymous_args = 1
  32              	.LVL0:
  33 0000 0EB4     		push	{r1, r2, r3}
  34              	.LCFI0:
  35              		.cfi_def_cfa_offset 12
  36              		.cfi_offset 3, -4
  37              		.cfi_offset 2, -8
  38              		.cfi_offset 1, -12
  39 0002 2DE9F04F 		push	{r4, r5, r6, r7, r8, r9, sl, fp, lr}
  40              	.LCFI1:
  41              		.cfi_def_cfa_offset 48
  42              		.cfi_offset 14, -16
  43              		.cfi_offset 11, -20
  44              		.cfi_offset 10, -24
  45              		.cfi_offset 9, -28
  46              		.cfi_offset 8, -32
  47              		.cfi_offset 7, -36
  48              		.cfi_offset 6, -40
  49              		.cfi_offset 5, -44
  50              		.cfi_offset 4, -48
  51 0006 8CB0     		sub	sp, sp, #48
  52              	.LCFI2:
  53              		.cfi_def_cfa_offset 96
  54              		.loc 1 108 0
  55 0008 15AB     		add	r3, sp, #84
  56              		.loc 1 132 0
  57 000a 08A9     		add	r1, sp, #32
ARM GAS  /tmp/ccYKrizH.s 			page 2


  58              		.loc 1 236 0
  59 000c 0DF12107 		add	r7, sp, #33
  60              		.loc 1 108 0
  61 0010 53F8044B 		ldr	r4, [r3], #4
  62              	.LBB12:
  63              	.LBB13:
  64              	.LBB14:
  65              		.loc 1 53 0
  66 0014 4CF6CD4C 		movw	ip, #52429
  67              	.LBE14:
  68              	.LBE13:
  69              	.LBE12:
  70              		.loc 1 236 0
  71 0018 7A1A     		subs	r2, r7, r1
  72              	.LBB29:
  73              	.LBB22:
  74              	.LBB15:
  75              		.loc 1 53 0
  76 001a CCF6CC4C 		movt	ip, 52428
  77              	.LBE15:
  78              	.LBE22:
  79              	.LBE29:
  80              		.loc 1 132 0
  81 001e 0291     		str	r1, [sp, #8]
  82              		.loc 1 236 0
  83 0020 0197     		str	r7, [sp, #4]
  84              		.loc 1 108 0
  85 0022 0546     		mov	r5, r0
  86              		.loc 1 121 0
  87 0024 0B93     		str	r3, [sp, #44]
  88              		.loc 1 236 0
  89 0026 0792     		str	r2, [sp, #28]
  90              	.LBB30:
  91              	.LBB23:
  92              	.LBB16:
  93              		.loc 1 53 0
  94 0028 CDF818C0 		str	ip, [sp, #24]
  95              	.LVL1:
  96              	.L123:
  97              	.LBE16:
  98              	.LBE23:
  99              	.LBE30:
 100              		.loc 1 123 0
 101 002c 2178     		ldrb	r1, [r4, #0]	@ zero_extendqisi2
 102              	.LVL2:
 103              		.loc 1 124 0
 104 002e 51B1     		cbz	r1, .L124
 105              	.LVL3:
 106              	.L151:
 107              		.loc 1 123 0
 108 0030 671C     		adds	r7, r4, #1
 109              		.loc 1 128 0
 110 0032 2529     		cmp	r1, #37
 111 0034 0CD0     		beq	.L4
 112              		.loc 1 129 0
 113 0036 2A68     		ldr	r2, [r5, #0]
 114 0038 2846     		mov	r0, r5
ARM GAS  /tmp/ccYKrizH.s 			page 3


 115 003a 9468     		ldr	r4, [r2, #8]
 116 003c A047     		blx	r4
 117              		.loc 1 123 0
 118 003e 3C46     		mov	r4, r7
 119              	.LVL4:
 120 0040 2178     		ldrb	r1, [r4, #0]	@ zero_extendqisi2
 121              	.LVL5:
 122              		.loc 1 124 0
 123 0042 0029     		cmp	r1, #0
 124 0044 F4D1     		bne	.L151
 125              	.LVL6:
 126              	.L124:
 127              		.loc 1 261 0
 128 0046 0CB0     		add	sp, sp, #48
 129 0048 BDE8F04F 		pop	{r4, r5, r6, r7, r8, r9, sl, fp, lr}
 130 004c 03B0     		add	sp, sp, #12
 131 004e 7047     		bx	lr
 132              	.L4:
 133              	.LVL7:
 134              		.loc 1 135 0
 135 0050 6378     		ldrb	r3, [r4, #1]	@ zero_extendqisi2
 136 0052 2D2B     		cmp	r3, #45
 137 0054 00F0CA82 		beq	.L152
 138              		.loc 1 134 0
 139 0058 0020     		movs	r0, #0
 140 005a 0490     		str	r0, [sp, #16]
 141              	.LVL8:
 142              	.L6:
 143              		.loc 1 140 0
 144 005c 2E2B     		cmp	r3, #46
 145 005e 00F0C282 		beq	.L153
 146              		.loc 1 139 0
 147 0062 2026     		movs	r6, #32
 148              	.LVL9:
 149              	.L7:
 150              		.loc 1 141 0
 151 0064 0B99     		ldr	r1, [sp, #44]
 152              		.loc 1 144 0
 153 0066 0023     		movs	r3, #0
 154              	.LVL10:
 155              	.L10:
 156              		.loc 1 146 0
 157 0068 17F8012B 		ldrb	r2, [r7], #1	@ zero_extendqisi2
 158              	.LVL11:
 159              		.loc 1 153 0
 160 006c 03EB830C 		add	ip, r3, r3, lsl #2
 161              		.loc 1 147 0
 162 0070 A2F13004 		sub	r4, r2, #48
 163 0074 E0B2     		uxtb	r0, r4
 164 0076 0928     		cmp	r0, #9
 165              		.loc 1 146 0
 166 0078 3C46     		mov	r4, r7
 167              	.LVL12:
 168              		.loc 1 147 0
 169 007a 03D9     		bls	.L8
 170              		.loc 1 149 0
 171 007c 2A2A     		cmp	r2, #42
ARM GAS  /tmp/ccYKrizH.s 			page 4


 172 007e 04D1     		bne	.L9
 173              		.loc 1 150 0
 174 0080 0878     		ldrb	r0, [r1, #0]	@ zero_extendqisi2
 175              	.LVL13:
 176 0082 0431     		adds	r1, r1, #4
 177              	.LVL14:
 178              	.L8:
 179              		.loc 1 153 0
 180 0084 00EB4C03 		add	r3, r0, ip, lsl #1
 181              	.LVL15:
 182              		.loc 1 154 0
 183 0088 EEE7     		b	.L10
 184              	.LVL16:
 185              	.L9:
 186              		.loc 1 156 0
 187 008a 2E2A     		cmp	r2, #46
 188              		.loc 1 154 0
 189 008c 0B91     		str	r1, [sp, #44]
 190              	.LVL17:
 191              		.loc 1 156 0
 192 008e 00F09382 		beq	.L154
 193              		.loc 1 155 0
 194 0092 0027     		movs	r7, #0
 195              	.LVL18:
 196              	.L11:
 197              		.loc 1 170 0
 198 0094 6C2A     		cmp	r2, #108
 199 0096 00F08882 		beq	.L15
 200              		.loc 1 170 0 is_stmt 0 discriminator 1
 201 009a 4C2A     		cmp	r2, #76
 202 009c 00F08582 		beq	.L15
 203              		.loc 1 176 0 is_stmt 1
 204 00a0 A2F14101 		sub	r1, r2, #65
 205 00a4 5FFA81FC 		uxtb	ip, r1
 206 00a8 BCF1190F 		cmp	ip, #25
 207 00ac 8CBF     		ite	hi
 208 00ae 4FF0000C 		movhi	ip, #0
 209 00b2 4FF0010C 		movls	ip, #1
 210              	.LVL19:
 211              	.L17:
 212              		.loc 1 179 0
 213 00b6 A2F1440A 		sub	sl, r2, #68
 214 00ba BAF1340F 		cmp	sl, #52
 215 00be 00F26D82 		bhi	.L18
 216 00c2 DFE81AF0 		tbh	[pc, sl, lsl #1]
 217              	.L25:
 218 00c6 B801     		.2byte	(.L19-.L25)/2
 219 00c8 6B02     		.2byte	(.L18-.L25)/2
 220 00ca 6B02     		.2byte	(.L18-.L25)/2
 221 00cc 6B02     		.2byte	(.L18-.L25)/2
 222 00ce 6B02     		.2byte	(.L18-.L25)/2
 223 00d0 B801     		.2byte	(.L19-.L25)/2
 224 00d2 6B02     		.2byte	(.L18-.L25)/2
 225 00d4 6B02     		.2byte	(.L18-.L25)/2
 226 00d6 6B02     		.2byte	(.L18-.L25)/2
 227 00d8 6B02     		.2byte	(.L18-.L25)/2
 228 00da 6B02     		.2byte	(.L18-.L25)/2
ARM GAS  /tmp/ccYKrizH.s 			page 5


 229 00dc B601     		.2byte	(.L20-.L25)/2
 230 00de 6B02     		.2byte	(.L18-.L25)/2
 231 00e0 6B02     		.2byte	(.L18-.L25)/2
 232 00e2 6B02     		.2byte	(.L18-.L25)/2
 233 00e4 6B02     		.2byte	(.L18-.L25)/2
 234 00e6 6B02     		.2byte	(.L18-.L25)/2
 235 00e8 AB01     		.2byte	(.L58-.L25)/2
 236 00ea 6B02     		.2byte	(.L18-.L25)/2
 237 00ec 6B02     		.2byte	(.L18-.L25)/2
 238 00ee 0701     		.2byte	(.L22-.L25)/2
 239 00f0 6B02     		.2byte	(.L18-.L25)/2
 240 00f2 6B02     		.2byte	(.L18-.L25)/2
 241 00f4 6B02     		.2byte	(.L18-.L25)/2
 242 00f6 6B02     		.2byte	(.L18-.L25)/2
 243 00f8 6B02     		.2byte	(.L18-.L25)/2
 244 00fa 6B02     		.2byte	(.L18-.L25)/2
 245 00fc 6B02     		.2byte	(.L18-.L25)/2
 246 00fe 6B02     		.2byte	(.L18-.L25)/2
 247 0100 6B02     		.2byte	(.L18-.L25)/2
 248 0102 6B02     		.2byte	(.L18-.L25)/2
 249 0104 C300     		.2byte	(.L23-.L25)/2
 250 0106 B801     		.2byte	(.L19-.L25)/2
 251 0108 6B02     		.2byte	(.L18-.L25)/2
 252 010a 6B02     		.2byte	(.L18-.L25)/2
 253 010c 6B02     		.2byte	(.L18-.L25)/2
 254 010e 6B02     		.2byte	(.L18-.L25)/2
 255 0110 B801     		.2byte	(.L19-.L25)/2
 256 0112 6B02     		.2byte	(.L18-.L25)/2
 257 0114 6B02     		.2byte	(.L18-.L25)/2
 258 0116 6B02     		.2byte	(.L18-.L25)/2
 259 0118 6B02     		.2byte	(.L18-.L25)/2
 260 011a 6B02     		.2byte	(.L18-.L25)/2
 261 011c B601     		.2byte	(.L20-.L25)/2
 262 011e 6B02     		.2byte	(.L18-.L25)/2
 263 0120 6B02     		.2byte	(.L18-.L25)/2
 264 0122 6B02     		.2byte	(.L18-.L25)/2
 265 0124 3500     		.2byte	(.L24-.L25)/2
 266 0126 6B02     		.2byte	(.L18-.L25)/2
 267 0128 AB01     		.2byte	(.L58-.L25)/2
 268 012a 6B02     		.2byte	(.L18-.L25)/2
 269 012c 6B02     		.2byte	(.L18-.L25)/2
 270 012e 0701     		.2byte	(.L22-.L25)/2
 271              	.L24:
 272              	.LVL20:
 273              		.loc 1 186 0
 274 0130 0B9A     		ldr	r2, [sp, #44]
 275              	.LVL21:
 276              		.loc 1 187 0
 277 0132 6749     		ldr	r1, .L161
 278              		.loc 1 186 0
 279 0134 101D     		adds	r0, r2, #4
 280 0136 0B90     		str	r0, [sp, #44]
 281 0138 1668     		ldr	r6, [r2, #0]
 282              	.LVL22:
 283              		.loc 1 189 0
 284 013a 47F6FF7C 		movw	ip, #32767
 285              	.LVL23:
ARM GAS  /tmp/ccYKrizH.s 			page 6


 286              		.loc 1 187 0
 287 013e 002E     		cmp	r6, #0
 288 0140 14BF     		ite	ne
 289 0142 B046     		movne	r8, r6
 290 0144 8846     		moveq	r8, r1
 291              	.LVL24:
 292              		.loc 1 190 0
 293 0146 98F80020 		ldrb	r2, [r8, #0]	@ zero_extendqisi2
 294              		.loc 1 189 0
 295 014a 002F     		cmp	r7, #0
 296 014c 08BF     		it	eq
 297 014e 6746     		moveq	r7, ip
 298              	.LVL25:
 299              		.loc 1 190 0
 300 0150 002A     		cmp	r2, #0
 301 0152 00F06D82 		beq	.L61
 302              		.loc 1 108 0
 303 0156 08EB0700 		add	r0, r8, r7
 304 015a 6FEA0809 		mvn	r9, r8
 305              		.loc 1 190 0
 306 015e 98F80110 		ldrb	r1, [r8, #1]	@ zero_extendqisi2
 307 0162 00EB0906 		add	r6, r0, r9
 308 0166 08F1010A 		add	sl, r8, #1
 309              	.LVL26:
 310 016a 06F00106 		and	r6, r6, #1
 311 016e 5246     		mov	r2, sl
 312 0170 A1B1     		cbz	r1, .L128
 313 0172 8245     		cmp	sl, r0
 314 0174 12D0     		beq	.L128
 315 0176 2EB1     		cbz	r6, .L30
 316 0178 12F8016F 		ldrb	r6, [r2, #1]!	@ zero_extendqisi2
 317 017c 0AF1010A 		add	sl, sl, #1
 318              	.LVL27:
 319 0180 56B9     		cbnz	r6, .L111
 320 0182 0BE0     		b	.L128
 321              	.L30:
 322              		.loc 1 190 0 is_stmt 0 discriminator 1
 323 0184 5178     		ldrb	r1, [r2, #1]	@ zero_extendqisi2
 324 0186 0AF1010A 		add	sl, sl, #1
 325 018a 0132     		adds	r2, r2, #1
 326 018c 31B1     		cbz	r1, .L128
 327              		.loc 1 190 0 discriminator 2
 328 018e 5678     		ldrb	r6, [r2, #1]	@ zero_extendqisi2
 329 0190 0AF1010A 		add	sl, sl, #1
 330 0194 0132     		adds	r2, r2, #1
 331 0196 0EB1     		cbz	r6, .L128
 332              	.L111:
 333              		.loc 1 190 0
 334 0198 8245     		cmp	sl, r0
 335 019a F3D1     		bne	.L30
 336              	.L128:
 337 019c C8EB0A0A 		rsb	sl, r8, sl
 338              		.loc 1 242 0 is_stmt 1
 339 01a0 049A     		ldr	r2, [sp, #16]
 340              		.loc 1 240 0
 341 01a2 CAEB030C 		rsb	ip, sl, r3
 342              		.loc 1 185 0
ARM GAS  /tmp/ccYKrizH.s 			page 7


 343 01a6 2026     		movs	r6, #32
 344              	.LVL28:
 345              		.loc 1 240 0
 346 01a8 2CEAEC79 		bic	r9, ip, ip, asr #31
 347              	.LVL29:
 348              		.loc 1 242 0
 349 01ac 002A     		cmp	r2, #0
 350 01ae 5FD0     		beq	.L155
 351              	.LVL30:
 352              	.L48:
 353              		.loc 1 253 0 discriminator 1
 354 01b0 BAF1000F 		cmp	sl, #0
 355 01b4 26DD     		ble	.L51
 356              		.loc 1 254 0
 357 01b6 4746     		mov	r7, r8
 358 01b8 2868     		ldr	r0, [r5, #0]
 359              		.loc 1 108 0
 360 01ba C244     		add	sl, r8, sl
 361              	.LVL31:
 362 01bc 6FEA0803 		mvn	r3, r8
 363              		.loc 1 254 0
 364 01c0 17F8011B 		ldrb	r1, [r7], #1	@ zero_extendqisi2
 365 01c4 0AEB0302 		add	r2, sl, r3
 366 01c8 8368     		ldr	r3, [r0, #8]
 367 01ca 2846     		mov	r0, r5
 368 01cc 02F00108 		and	r8, r2, #1
 369              	.LVL32:
 370 01d0 9847     		blx	r3
 371              	.LVL33:
 372              		.loc 1 253 0
 373 01d2 5745     		cmp	r7, sl
 374 01d4 16D0     		beq	.L51
 375 01d6 B8F1000F 		cmp	r8, #0
 376 01da 03D0     		beq	.L52
 377              		.loc 1 254 0
 378 01dc 17F8011B 		ldrb	r1, [r7], #1	@ zero_extendqisi2
 379              	.LVL34:
 380 01e0 2B68     		ldr	r3, [r5, #0]
 381 01e2 0AE0     		b	.L149
 382              	.L52:
 383 01e4 2868     		ldr	r0, [r5, #0]
 384 01e6 B846     		mov	r8, r7
 385 01e8 18F8011B 		ldrb	r1, [r8], #1	@ zero_extendqisi2
 386 01ec 8268     		ldr	r2, [r0, #8]
 387 01ee 2846     		mov	r0, r5
 388 01f0 9047     		blx	r2
 389 01f2 2B68     		ldr	r3, [r5, #0]
 390 01f4 7978     		ldrb	r1, [r7, #1]	@ zero_extendqisi2
 391 01f6 08F10107 		add	r7, r8, #1
 392              	.L149:
 393 01fa 9A68     		ldr	r2, [r3, #8]
 394 01fc 2846     		mov	r0, r5
 395 01fe 9047     		blx	r2
 396              		.loc 1 253 0
 397 0200 5745     		cmp	r7, sl
 398 0202 EFD1     		bne	.L52
 399              	.L51:
ARM GAS  /tmp/ccYKrizH.s 			page 8


 400              	.LVL35:
 401              		.loc 1 256 0 discriminator 1
 402 0204 B9F1000F 		cmp	r9, #0
 403 0208 3FF410AF 		beq	.L123
 404              		.loc 1 257 0
 405 020c 2F68     		ldr	r7, [r5, #0]
 406 020e 09F1FF3E 		add	lr, r9, #-1
 407 0212 BB68     		ldr	r3, [r7, #8]
 408 0214 2846     		mov	r0, r5
 409              		.loc 1 256 0
 410 0216 7746     		mov	r7, lr
 411              		.loc 1 257 0
 412 0218 3146     		mov	r1, r6
 413 021a 0EF00109 		and	r9, lr, #1
 414              	.LVL36:
 415 021e 9847     		blx	r3
 416              	.LVL37:
 417              		.loc 1 256 0
 418 0220 002F     		cmp	r7, #0
 419 0222 3FF403AF 		beq	.L123
 420 0226 B9F1000F 		cmp	r9, #0
 421 022a 01D0     		beq	.L66
 422              		.loc 1 257 0
 423 022c 2B68     		ldr	r3, [r5, #0]
 424 022e 06E0     		b	.L146
 425              	.LVL38:
 426              	.L66:
 427 0230 2868     		ldr	r0, [r5, #0]
 428 0232 3146     		mov	r1, r6
 429 0234 8268     		ldr	r2, [r0, #8]
 430 0236 2846     		mov	r0, r5
 431 0238 9047     		blx	r2
 432 023a 2B68     		ldr	r3, [r5, #0]
 433              		.loc 1 258 0
 434 023c 013F     		subs	r7, r7, #1
 435              	.L146:
 436              		.loc 1 257 0
 437 023e 9B68     		ldr	r3, [r3, #8]
 438 0240 2846     		mov	r0, r5
 439 0242 3146     		mov	r1, r6
 440 0244 9847     		blx	r3
 441              		.loc 1 256 0
 442 0246 013F     		subs	r7, r7, #1
 443 0248 F2D1     		bne	.L66
 444 024a EFE6     		b	.L123
 445              	.LVL39:
 446              	.L23:
 447              		.loc 1 182 0
 448 024c 0B98     		ldr	r0, [sp, #44]
 449 024e DDF81CA0 		ldr	sl, [sp, #28]
 450 0252 0668     		ldr	r6, [r0, #0]
 451 0254 021D     		adds	r2, r0, #4
 452              	.LVL40:
 453 0256 8DF82060 		strb	r6, [sp, #32]
 454              	.LVL41:
 455              		.loc 1 181 0
 456 025a 2026     		movs	r6, #32
ARM GAS  /tmp/ccYKrizH.s 			page 9


 457              		.loc 1 182 0
 458 025c 0B92     		str	r2, [sp, #44]
 459              		.loc 1 133 0
 460 025e 0DEB0608 		add	r8, sp, r6
 461              	.LVL42:
 462              	.L26:
 463              		.loc 1 242 0
 464 0262 049A     		ldr	r2, [sp, #16]
 465              		.loc 1 240 0
 466 0264 CAEB030C 		rsb	ip, sl, r3
 467              	.LVL43:
 468 0268 2CEAEC79 		bic	r9, ip, ip, asr #31
 469              	.LVL44:
 470              		.loc 1 242 0
 471 026c 002A     		cmp	r2, #0
 472 026e 9FD1     		bne	.L48
 473              	.LVL45:
 474              	.L155:
 475              		.loc 1 243 0
 476 0270 C9F10009 		rsb	r9, r9, #0
 477              	.LVL46:
 478              		.loc 1 244 0
 479 0274 B9F1000F 		cmp	r9, #0
 480 0278 9AD0     		beq	.L48
 481              		.loc 1 245 0
 482 027a 98F80010 		ldrb	r1, [r8, #0]	@ zero_extendqisi2
 483 027e 2D29     		cmp	r1, #45
 484 0280 00F0CA81 		beq	.L156
 485              	.L117:
 486              		.loc 1 250 0
 487 0284 2968     		ldr	r1, [r5, #0]
 488 0286 6FEA0900 		mvn	r0, r9
 489 028a 8A68     		ldr	r2, [r1, #8]
 490 028c 00F00107 		and	r7, r0, #1
 491              	.LVL47:
 492 0290 3146     		mov	r1, r6
 493 0292 2846     		mov	r0, r5
 494 0294 9047     		blx	r2
 495              	.LVL48:
 496              		.loc 1 251 0
 497 0296 19F10109 		adds	r9, r9, #1
 498              	.LVL49:
 499 029a 89D0     		beq	.L48
 500 029c 3FB1     		cbz	r7, .L67
 501              		.loc 1 250 0
 502 029e 2B68     		ldr	r3, [r5, #0]
 503 02a0 2846     		mov	r0, r5
 504 02a2 9B68     		ldr	r3, [r3, #8]
 505 02a4 3146     		mov	r1, r6
 506 02a6 9847     		blx	r3
 507              	.LVL50:
 508              		.loc 1 251 0
 509 02a8 19F10109 		adds	r9, r9, #1
 510              	.LVL51:
 511 02ac 80D0     		beq	.L48
 512              	.L67:
 513              		.loc 1 250 0 discriminator 1
ARM GAS  /tmp/ccYKrizH.s 			page 10


 514 02ae 2A68     		ldr	r2, [r5, #0]
 515 02b0 3146     		mov	r1, r6
 516 02b2 9368     		ldr	r3, [r2, #8]
 517 02b4 2846     		mov	r0, r5
 518 02b6 9847     		blx	r3
 519 02b8 2B68     		ldr	r3, [r5, #0]
 520              		.loc 1 251 0 discriminator 1
 521 02ba 09F10109 		add	r9, r9, #1
 522              	.LVL52:
 523              		.loc 1 250 0 discriminator 1
 524 02be 9B68     		ldr	r3, [r3, #8]
 525 02c0 2846     		mov	r0, r5
 526 02c2 3146     		mov	r1, r6
 527 02c4 9847     		blx	r3
 528              	.LVL53:
 529              		.loc 1 251 0 discriminator 1
 530 02c6 19F10109 		adds	r9, r9, #1
 531              	.LVL54:
 532 02ca F0D1     		bne	.L67
 533 02cc 70E7     		b	.L48
 534              	.L162:
 535 02ce 00BF     		.align	2
 536              	.L161:
 537 02d0 00000000 		.word	.LC0
 538              	.LVL55:
 539              	.L22:
 540              		.loc 1 179 0
 541 02d4 1020     		movs	r0, #16
 542              	.LVL56:
 543              	.L21:
 544              		.loc 1 230 0
 545 02d6 0B9A     		ldr	r2, [sp, #44]
 546 02d8 111D     		adds	r1, r2, #4
 547              		.loc 1 229 0
 548 02da BCF1000F 		cmp	ip, #0
 549 02de 00F0A480 		beq	.L39
 550              	.L157:
 551              		.loc 1 230 0
 552 02e2 D2F80090 		ldr	r9, [r2, #0]
 553              	.LVL57:
 554 02e6 0B91     		str	r1, [sp, #44]
 555              	.LVL58:
 556              	.L40:
 557              		.loc 1 232 0
 558 02e8 0DF12A08 		add	r8, sp, #42
 559 02ec 4946     		mov	r1, r9
 560              	.LVL59:
 561              	.L43:
 562              	.LBB31:
 563              	.LBB32:
 564              	.LBB33:
 565              		.loc 1 53 0
 566 02ee B9FBF0F7 		udiv	r7, r9, r0
 567 02f2 00FB1792 		mls	r2, r0, r7, r9
 568              		.loc 1 56 0
 569 02f6 02F13709 		add	r9, r2, #55
 570              		.loc 1 54 0
ARM GAS  /tmp/ccYKrizH.s 			page 11


 571 02fa 02F1300C 		add	ip, r2, #48
 572              	.LVL60:
 573              		.loc 1 57 0
 574 02fe BCF1390F 		cmp	ip, #57
 575 0302 C8BF     		it	gt
 576 0304 CC46     		movgt	ip, r9
 577              	.LVL61:
 578              		.loc 1 59 0
 579 0306 B1FBF0F1 		udiv	r1, r1, r0
 580              		.loc 1 57 0
 581 030a 4246     		mov	r2, r8
 582              	.LVL62:
 583 030c 88F800C0 		strb	ip, [r8, #0]
 584              		.loc 1 58 0
 585 0310 B946     		mov	r9, r7
 586              	.LVL63:
 587              		.loc 1 57 0
 588 0312 08F1FF38 		add	r8, r8, #-1
 589              	.LVL64:
 590              		.loc 1 59 0
 591 0316 0029     		cmp	r1, #0
 592 0318 E9D1     		bne	.L43
 593              		.loc 1 61 0
 594 031a 0DF12B00 		add	r0, sp, #43
 595              	.LVL65:
 596 031e C2EB000A 		rsb	sl, r2, r0
 597              	.LVL66:
 598              		.loc 1 108 0
 599 0322 4FEA9A09 		lsr	r9, sl, #2
 600 0326 4FEA8901 		lsl	r1, r9, #2
 601              	.LVL67:
 602 032a 0391     		str	r1, [sp, #12]
 603 032c B9F1000F 		cmp	r9, #0
 604 0330 00F08181 		beq	.L64
 605 0334 12F0030F 		tst	r2, #3
 606 0338 0298     		ldr	r0, [sp, #8]
 607 033a 14BF     		ite	ne
 608 033c 4FF00008 		movne	r8, #0
 609 0340 4FF00108 		moveq	r8, #1
 610 0344 02F1040C 		add	ip, r2, #4
 611 0348 09A9     		add	r1, sp, #36
 612 034a BAF1030F 		cmp	sl, #3
 613 034e 94BF     		ite	ls
 614 0350 4FF00008 		movls	r8, #0
 615 0354 08F00108 		andhi	r8, r8, #1
 616 0358 8A42     		cmp	r2, r1
 617 035a 98BF     		it	ls
 618 035c 6045     		cmpls	r0, ip
 619 035e 94BF     		ite	ls
 620 0360 0027     		movls	r7, #0
 621 0362 0127     		movhi	r7, #1
 622              	.LVL68:
 623 0364 18EA070F 		tst	r8, r7
 624 0368 00F06581 		beq	.L64
 625              		.loc 1 63 0
 626 036c 1768     		ldr	r7, [r2, #0]
 627 036e 0120     		movs	r0, #1
ARM GAS  /tmp/ccYKrizH.s 			page 12


 628 0370 09F1FF38 		add	r8, r9, #-1
 629 0374 08A9     		add	r1, sp, #32
 630 0376 4845     		cmp	r0, r9
 631 0378 41F8047B 		str	r7, [r1], #4
 632 037c 08EA0008 		and	r8, r8, r0
 633              	.LVL69:
 634 0380 6746     		mov	r7, ip
 635 0382 1DD2     		bcs	.L127
 636 0384 B8F1000F 		cmp	r8, #0
 637 0388 08D0     		beq	.L142
 638 038a DCF80080 		ldr	r8, [ip, #0]
 639 038e 0220     		movs	r0, #2
 640 0390 0437     		adds	r7, r7, #4
 641 0392 0431     		adds	r1, r1, #4
 642 0394 4845     		cmp	r0, r9
 643 0396 CDF82480 		str	r8, [sp, #36]
 644 039a 11D2     		bcs	.L127
 645              	.L142:
 646 039c B346     		mov	fp, r6
 647 039e 9846     		mov	r8, r3
 648              	.LVL70:
 649              	.L45:
 650 03a0 BC46     		mov	ip, r7
 651 03a2 5CF8043B 		ldr	r3, [ip], #4
 652 03a6 0E46     		mov	r6, r1
 653 03a8 46F8043B 		str	r3, [r6], #4
 654 03ac 7B68     		ldr	r3, [r7, #4]
 655 03ae 0230     		adds	r0, r0, #2
 656 03b0 4B60     		str	r3, [r1, #4]
 657 03b2 311D     		adds	r1, r6, #4
 658 03b4 4845     		cmp	r0, r9
 659 03b6 0CF10407 		add	r7, ip, #4
 660 03ba F1D3     		bcc	.L45
 661 03bc 5E46     		mov	r6, fp
 662 03be 4346     		mov	r3, r8
 663              	.LVL71:
 664              	.L127:
 665 03c0 039F     		ldr	r7, [sp, #12]
 666 03c2 DDF80C90 		ldr	r9, [sp, #12]
 667 03c6 08A9     		add	r1, sp, #32
 668 03c8 BA45     		cmp	sl, r7
 669 03ca 4944     		add	r1, r1, r9
 670 03cc C9EB0A0C 		rsb	ip, r9, sl
 671 03d0 3A44     		add	r2, r2, r7
 672 03d2 20D0     		beq	.L147
 673              	.L44:
 674 03d4 12F8010B 		ldrb	r0, [r2], #1	@ zero_extendqisi2
 675 03d8 CF43     		mvns	r7, r1
 676              		.loc 1 108 0
 677 03da 8C44     		add	ip, r1, ip
 678              		.loc 1 63 0
 679 03dc 01F8010B 		strb	r0, [r1], #1
 680 03e0 0CEB0708 		add	r8, ip, r7
 681              		.loc 1 64 0
 682 03e4 6145     		cmp	r1, ip
 683 03e6 08F00107 		and	r7, r8, #1
 684              	.LVL72:
ARM GAS  /tmp/ccYKrizH.s 			page 13


 685 03ea 14D0     		beq	.L147
 686 03ec 2FB1     		cbz	r7, .L47
 687              	.LVL73:
 688              		.loc 1 63 0
 689 03ee 12F8019B 		ldrb	r9, [r2], #1	@ zero_extendqisi2
 690 03f2 01F8019B 		strb	r9, [r1], #1
 691              		.loc 1 64 0
 692 03f6 6145     		cmp	r1, ip
 693 03f8 0DD0     		beq	.L147
 694              	.L47:
 695              		.loc 1 63 0
 696 03fa 1746     		mov	r7, r2
 697 03fc 17F8018B 		ldrb	r8, [r7], #1	@ zero_extendqisi2
 698 0400 0846     		mov	r0, r1
 699 0402 00F8018B 		strb	r8, [r0], #1
 700 0406 92F80190 		ldrb	r9, [r2, #1]	@ zero_extendqisi2
 701 040a 7A1C     		adds	r2, r7, #1
 702 040c 81F80190 		strb	r9, [r1, #1]
 703 0410 411C     		adds	r1, r0, #1
 704              		.loc 1 64 0
 705 0412 6145     		cmp	r1, ip
 706 0414 F1D1     		bne	.L47
 707              	.L147:
 708              	.LBE33:
 709              	.LBE32:
 710              	.LBE31:
 711              		.loc 1 133 0
 712 0416 0DF12008 		add	r8, sp, #32
 713              		.loc 1 237 0
 714 041a 22E7     		b	.L26
 715              	.LVL74:
 716              	.L58:
 717              		.loc 1 230 0
 718 041c 0B9A     		ldr	r2, [sp, #44]
 719              	.LVL75:
 720              		.loc 1 179 0
 721 041e 0A20     		movs	r0, #10
 722              	.LVL76:
 723              		.loc 1 230 0
 724 0420 111D     		adds	r1, r2, #4
 725              		.loc 1 229 0
 726 0422 BCF1000F 		cmp	ip, #0
 727 0426 7FF45CAF 		bne	.L157
 728              	.L39:
 729              		.loc 1 232 0
 730 042a D2F80090 		ldr	r9, [r2, #0]
 731              	.LVL77:
 732 042e 0B91     		str	r1, [sp, #44]
 733 0430 5AE7     		b	.L40
 734              	.LVL78:
 735              	.L20:
 736 0432 0820     		movs	r0, #8
 737 0434 4FE7     		b	.L21
 738              	.LVL79:
 739              	.L19:
 740              		.loc 1 198 0
 741 0436 0B9A     		ldr	r2, [sp, #44]
ARM GAS  /tmp/ccYKrizH.s 			page 14


 742 0438 111D     		adds	r1, r2, #4
 743              		.loc 1 197 0
 744 043a BCF1000F 		cmp	ip, #0
 745 043e 40F0DF80 		bne	.L158
 746              		.loc 1 200 0
 747 0442 1768     		ldr	r7, [r2, #0]
 748              	.LVL80:
 749 0444 0B91     		str	r1, [sp, #44]
 750              		.loc 1 201 0
 751 0446 002F     		cmp	r7, #0
 752 0448 C0F2DF80 		blt	.L159
 753              	.LVL81:
 754              	.L62:
 755              		.loc 1 132 0
 756 044c 0DF1200A 		add	sl, sp, #32
 757              	.LVL82:
 758              	.L33:
 759              	.LBB36:
 760              	.LBB24:
 761              	.LBB17:
 762              		.loc 1 51 0
 763 0450 0AF10B08 		add	r8, sl, #11
 764              	.LVL83:
 765              	.LBE17:
 766              	.LBE24:
 767              	.LBE36:
 768              		.loc 1 108 0
 769 0454 DDF81890 		ldr	r9, [sp, #24]
 770              	.LBB37:
 771              	.LBB25:
 772              	.LBB18:
 773 0458 4246     		mov	r2, r8
 774              	.LBE18:
 775              	.LBE25:
 776              	.LBE37:
 777 045a BC46     		mov	ip, r7
 778              	.LVL84:
 779              	.L34:
 780              	.LBB38:
 781              	.LBB26:
 782              	.LBB19:
 783              		.loc 1 53 0
 784 045c A9FB0710 		umull	r1, r0, r9, r7
 785              		.loc 1 59 0
 786 0460 A9FB0C1C 		umull	r1, ip, r9, ip
 787              	.LVL85:
 788              		.loc 1 53 0
 789 0464 C008     		lsrs	r0, r0, #3
 790 0466 00EB8001 		add	r1, r0, r0, lsl #2
 791 046a A7EB4107 		sub	r7, r7, r1, lsl #1
 792              	.LVL86:
 793              		.loc 1 108 0
 794 046e 013A     		subs	r2, r2, #1
 795              		.loc 1 54 0
 796 0470 3037     		adds	r7, r7, #48
 797              		.loc 1 59 0
 798 0472 5FEADC0C 		lsrs	ip, ip, #3
ARM GAS  /tmp/ccYKrizH.s 			page 15


 799              		.loc 1 57 0
 800 0476 1770     		strb	r7, [r2, #0]
 801              		.loc 1 108 0
 802 0478 1146     		mov	r1, r2
 803              		.loc 1 58 0
 804 047a 0746     		mov	r7, r0
 805              	.LVL87:
 806              		.loc 1 59 0
 807 047c EED1     		bne	.L34
 808              		.loc 1 61 0
 809 047e C2EB0808 		rsb	r8, r2, r8
 810              		.loc 1 108 0
 811 0482 4FEA9809 		lsr	r9, r8, #2
 812 0486 4FEA8907 		lsl	r7, r9, #2
 813              		.loc 1 61 0
 814 048a CDF80C80 		str	r8, [sp, #12]
 815              	.LVL88:
 816              		.loc 1 108 0
 817 048e 0597     		str	r7, [sp, #20]
 818 0490 B9F1000F 		cmp	r9, #0
 819 0494 00F0D280 		beq	.L63
 820 0498 0AF1040B 		add	fp, sl, #4
 821 049c 9345     		cmp	fp, r2
 822 049e 2CBF     		ite	cs
 823 04a0 0020     		movcs	r0, #0
 824              	.LVL89:
 825 04a2 0120     		movcc	r0, #1
 826 04a4 4AEA020C 		orr	ip, sl, r2
 827 04a8 171D     		adds	r7, r2, #4
 828 04aa BA45     		cmp	sl, r7
 829 04ac 94BF     		ite	ls
 830 04ae 8046     		movls	r8, r0
 831 04b0 40F00108 		orrhi	r8, r0, #1
 832              	.LVL90:
 833 04b4 1CF0030F 		tst	ip, #3
 834 04b8 DDF80CC0 		ldr	ip, [sp, #12]
 835 04bc 14BF     		ite	ne
 836 04be 0020     		movne	r0, #0
 837 04c0 0120     		moveq	r0, #1
 838 04c2 BCF1030F 		cmp	ip, #3
 839 04c6 94BF     		ite	ls
 840 04c8 0020     		movls	r0, #0
 841 04ca 00F00100 		andhi	r0, r0, #1
 842 04ce 18EA000F 		tst	r8, r0
 843 04d2 00F0B380 		beq	.L63
 844              		.loc 1 63 0
 845 04d6 D2F80080 		ldr	r8, [r2, #0]
 846 04da 0121     		movs	r1, #1
 847 04dc 09F1FF30 		add	r0, r9, #-1
 848 04e0 4945     		cmp	r1, r9
 849 04e2 CAF80080 		str	r8, [sl, #0]
 850 04e6 00EA0100 		and	r0, r0, r1
 851              	.LVL91:
 852 04ea B846     		mov	r8, r7
 853 04ec DC46     		mov	ip, fp
 854 04ee 1FD2     		bcs	.L126
 855 04f0 48B1     		cbz	r0, .L138
ARM GAS  /tmp/ccYKrizH.s 			page 16


 856 04f2 3868     		ldr	r0, [r7, #0]
 857 04f4 0221     		movs	r1, #2
 858 04f6 4945     		cmp	r1, r9
 859 04f8 CBF80000 		str	r0, [fp, #0]
 860 04fc 07F10408 		add	r8, r7, #4
 861 0500 0BF1040C 		add	ip, fp, #4
 862 0504 14D2     		bcs	.L126
 863              	.L138:
 864 0506 D346     		mov	fp, sl
 865 0508 9A46     		mov	sl, r3
 866              	.LVL92:
 867              	.L36:
 868 050a 4746     		mov	r7, r8
 869 050c 57F8043B 		ldr	r3, [r7], #4
 870 0510 6046     		mov	r0, ip
 871 0512 40F8043B 		str	r3, [r0], #4
 872 0516 D8F80430 		ldr	r3, [r8, #4]
 873 051a 0231     		adds	r1, r1, #2
 874 051c 4945     		cmp	r1, r9
 875 051e CCF80430 		str	r3, [ip, #4]
 876 0522 07F10408 		add	r8, r7, #4
 877 0526 00F1040C 		add	ip, r0, #4
 878 052a EED3     		bcc	.L36
 879 052c 5346     		mov	r3, sl
 880 052e DA46     		mov	sl, fp
 881              	.LVL93:
 882              	.L126:
 883 0530 0599     		ldr	r1, [sp, #20]
 884 0532 039F     		ldr	r7, [sp, #12]
 885 0534 0AEB0100 		add	r0, sl, r1
 886 0538 C1EB070C 		rsb	ip, r1, r7
 887 053c 5118     		adds	r1, r2, r1
 888 053e 059A     		ldr	r2, [sp, #20]
 889 0540 9742     		cmp	r7, r2
 890 0542 21D0     		beq	.L37
 891              	.L35:
 892 0544 11F8019B 		ldrb	r9, [r1], #1	@ zero_extendqisi2
 893 0548 0246     		mov	r2, r0
 894 054a C743     		mvns	r7, r0
 895              		.loc 1 108 0
 896 054c 8444     		add	ip, r0, ip
 897              		.loc 1 63 0
 898 054e 02F8019B 		strb	r9, [r2], #1
 899 0552 0CEB0700 		add	r0, ip, r7
 900              		.loc 1 64 0
 901 0556 6245     		cmp	r2, ip
 902 0558 00F00107 		and	r7, r0, #1
 903              	.LVL94:
 904 055c 14D0     		beq	.L37
 905 055e 2FB1     		cbz	r7, .L38
 906              	.LVL95:
 907              		.loc 1 63 0
 908 0560 11F8017B 		ldrb	r7, [r1], #1	@ zero_extendqisi2
 909 0564 02F8017B 		strb	r7, [r2], #1
 910              		.loc 1 64 0
 911 0568 6245     		cmp	r2, ip
 912 056a 0DD0     		beq	.L37
ARM GAS  /tmp/ccYKrizH.s 			page 17


 913              	.L38:
 914              		.loc 1 63 0
 915 056c 0F46     		mov	r7, r1
 916 056e 17F8019B 		ldrb	r9, [r7], #1	@ zero_extendqisi2
 917 0572 1046     		mov	r0, r2
 918 0574 00F8019B 		strb	r9, [r0], #1
 919 0578 91F80180 		ldrb	r8, [r1, #1]	@ zero_extendqisi2
 920 057c 791C     		adds	r1, r7, #1
 921 057e 82F80180 		strb	r8, [r2, #1]
 922 0582 421C     		adds	r2, r0, #1
 923              		.loc 1 64 0
 924 0584 6245     		cmp	r2, ip
 925 0586 F1D1     		bne	.L38
 926              	.L37:
 927              	.LVL96:
 928              		.loc 1 205 0
 929 0588 039F     		ldr	r7, [sp, #12]
 930              	.LBE19:
 931              	.LBE26:
 932              	.LBE38:
 933              		.loc 1 133 0
 934 058a 0DF12008 		add	r8, sp, #32
 935              	.LBB39:
 936              	.LBB27:
 937              	.LBB20:
 938              		.loc 1 205 0
 939 058e 0AEB0702 		add	r2, sl, r7
 940              		.loc 1 64 0
 941 0592 DDF808A0 		ldr	sl, [sp, #8]
 942              	.LVL97:
 943 0596 CAEB020A 		rsb	sl, sl, r2
 944              	.LBE20:
 945              	.LBE27:
 946              	.LBE39:
 947              		.loc 1 206 0
 948 059a 62E6     		b	.L26
 949              	.LVL98:
 950              	.L18:
 951              		.loc 1 236 0
 952 059c 8DF82020 		strb	r2, [sp, #32]
 953              	.LVL99:
 954 05a0 DDF81CA0 		ldr	sl, [sp, #28]
 955              		.loc 1 133 0
 956 05a4 0DF12008 		add	r8, sp, #32
 957 05a8 5BE6     		b	.L26
 958              	.LVL100:
 959              	.L15:
 960              		.loc 1 172 0
 961 05aa 2178     		ldrb	r1, [r4, #0]	@ zero_extendqisi2
 962 05ac 29B3     		cbz	r1, .L57
 963              	.LVL101:
 964              		.loc 1 173 0
 965 05ae 0134     		adds	r4, r4, #1
 966              	.LVL102:
 967 05b0 0A46     		mov	r2, r1
 968              		.loc 1 171 0
 969 05b2 4FF0010C 		mov	ip, #1
ARM GAS  /tmp/ccYKrizH.s 			page 18


 970 05b6 7EE5     		b	.L17
 971              	.LVL103:
 972              	.L154:
 973              		.loc 1 156 0
 974 05b8 BC46     		mov	ip, r7
 975 05ba 0027     		movs	r7, #0
 976              	.LVL104:
 977              	.L14:
 978              		.loc 1 158 0
 979 05bc 6446     		mov	r4, ip
 980 05be 14F8012B 		ldrb	r2, [r4], #1	@ zero_extendqisi2
 981              	.LVL105:
 982              		.loc 1 165 0
 983 05c2 07EB8708 		add	r8, r7, r7, lsl #2
 984              		.loc 1 159 0
 985 05c6 A2F13009 		sub	r9, r2, #48
 986 05ca 5FFA89F0 		uxtb	r0, r9
 987 05ce 0928     		cmp	r0, #9
 988              		.loc 1 158 0
 989 05d0 A446     		mov	ip, r4
 990              	.LVL106:
 991              		.loc 1 159 0
 992 05d2 03D9     		bls	.L12
 993              		.loc 1 161 0
 994 05d4 2A2A     		cmp	r2, #42
 995 05d6 04D1     		bne	.L160
 996              		.loc 1 162 0
 997 05d8 0878     		ldrb	r0, [r1, #0]	@ zero_extendqisi2
 998              	.LVL107:
 999 05da 0431     		adds	r1, r1, #4
 1000              	.LVL108:
 1001              	.L12:
 1002              		.loc 1 166 0
 1003 05dc 00EB4807 		add	r7, r0, r8, lsl #1
 1004              	.LVL109:
 1005              		.loc 1 167 0
 1006 05e0 ECE7     		b	.L14
 1007              	.LVL110:
 1008              	.L160:
 1009              		.loc 1 161 0
 1010 05e2 0B91     		str	r1, [sp, #44]
 1011 05e4 56E5     		b	.L11
 1012              	.LVL111:
 1013              	.L153:
 1014              		.loc 1 141 0
 1015 05e6 0137     		adds	r7, r7, #1
 1016              	.LVL112:
 1017              		.loc 1 142 0
 1018 05e8 3026     		movs	r6, #48
 1019 05ea 3BE5     		b	.L7
 1020              	.LVL113:
 1021              	.L152:
 1022              		.loc 1 137 0
 1023 05ec 4FF00108 		mov	r8, #1
 1024              		.loc 1 136 0
 1025 05f0 A71C     		adds	r7, r4, #2
 1026              	.LVL114:
ARM GAS  /tmp/ccYKrizH.s 			page 19


 1027 05f2 A378     		ldrb	r3, [r4, #2]	@ zero_extendqisi2
 1028              		.loc 1 137 0
 1029 05f4 CDF81080 		str	r8, [sp, #16]
 1030 05f8 30E5     		b	.L6
 1031              	.LVL115:
 1032              	.L57:
 1033              		.loc 1 171 0
 1034 05fa 4FF0010C 		mov	ip, #1
 1035 05fe 5AE5     		b	.L17
 1036              	.LVL116:
 1037              	.L158:
 1038              		.loc 1 198 0
 1039 0600 1768     		ldr	r7, [r2, #0]
 1040              	.LVL117:
 1041 0602 0B91     		str	r1, [sp, #44]
 1042              		.loc 1 201 0
 1043 0604 002F     		cmp	r7, #0
 1044 0606 BFF621AF 		bge	.L62
 1045              	.LVL118:
 1046              	.L159:
 1047              		.loc 1 202 0
 1048 060a 2D22     		movs	r2, #45
 1049 060c 8DF82020 		strb	r2, [sp, #32]
 1050              	.LVL119:
 1051              		.loc 1 203 0
 1052 0610 7F42     		negs	r7, r7
 1053              	.LVL120:
 1054              		.loc 1 202 0
 1055 0612 0DF1210A 		add	sl, sp, #33
 1056              	.LVL121:
 1057 0616 1BE7     		b	.L33
 1058              	.LVL122:
 1059              	.L156:
 1060              		.loc 1 245 0 discriminator 1
 1061 0618 302E     		cmp	r6, #48
 1062 061a 7FF433AE 		bne	.L117
 1063              		.loc 1 246 0
 1064 061e 2F68     		ldr	r7, [r5, #0]
 1065 0620 2846     		mov	r0, r5
 1066 0622 BB68     		ldr	r3, [r7, #8]
 1067 0624 9847     		blx	r3
 1068 0626 08F10108 		add	r8, r8, #1
 1069              	.LVL123:
 1070              		.loc 1 247 0
 1071 062a 0AF1FF3A 		add	sl, sl, #-1
 1072              	.LVL124:
 1073 062e 29E6     		b	.L117
 1074              	.LVL125:
 1075              	.L61:
 1076              		.loc 1 190 0
 1077 0630 9246     		mov	sl, r2
 1078              	.LVL126:
 1079              		.loc 1 185 0
 1080 0632 2026     		movs	r6, #32
 1081 0634 15E6     		b	.L26
 1082              	.LVL127:
 1083              	.L64:
ARM GAS  /tmp/ccYKrizH.s 			page 20


 1084              	.LBB40:
 1085              	.LBB35:
 1086              	.LBB34:
 1087              		.loc 1 61 0
 1088 0636 D446     		mov	ip, sl
 1089              		.loc 1 132 0
 1090 0638 08A9     		add	r1, sp, #32
 1091 063a CBE6     		b	.L44
 1092              	.LVL128:
 1093              	.L63:
 1094              	.LBE34:
 1095              	.LBE35:
 1096              	.LBE40:
 1097              	.LBB41:
 1098              	.LBB28:
 1099              	.LBB21:
 1100              		.loc 1 61 0
 1101 063c DDF80CC0 		ldr	ip, [sp, #12]
 1102              		.loc 1 108 0
 1103 0640 5046     		mov	r0, sl
 1104 0642 7FE7     		b	.L35
 1105              	.LBE21:
 1106              	.LBE28:
 1107              	.LBE41:
 1108              		.cfi_endproc
 1109              	.LFE9:
 1110              		.size	chprintf, .-chprintf
 1111 0644 AFF30080 		.section	.rodata.str1.4,"aMS",%progbits,1
 1111      AFF30080 
 1111      AFF30080 
 1112              		.align	2
 1113              	.LC0:
 1114 0000 286E756C 		.ascii	"(null)\000"
 1114      6C2900
 1115 0007 00       		.text
 1116              	.Letext0:
 1117              		.file 2 "/home/tino/ChibiStudio/tools/GNU Tools ARM Embedded/4.6 2012q2/bin/../lib/gcc/arm-none-ea
 1118              		.file 3 "/home/tino/ChibiStudio/tools/GNU Tools ARM Embedded/4.6 2012q2/bin/../lib/gcc/arm-none-ea
 1119              		.file 4 "/home/tino/ChibiStudio/tools/GNU Tools ARM Embedded/4.6 2012q2/bin/../lib/gcc/arm-none-ea
 1120              		.file 5 "../../ChibiOS/os/ports/GCC/ARMCMx/chtypes.h"
 1121              		.file 6 "<built-in>"
 1122              		.file 7 "../../ChibiOS/os/kernel/include/chstreams.h"
 1123              		.section	.debug_info,"",%progbits
 1124              	.Ldebug_info0:
 1125 0000 8D040000 		.4byte	0x48d
 1126 0004 0200     		.2byte	0x2
 1127 0006 00000000 		.4byte	.Ldebug_abbrev0
 1128 000a 04       		.byte	0x4
 1129 000b 01       		.uleb128 0x1
 1130 000c 62000000 		.4byte	.LASF33
 1131 0010 01       		.byte	0x1
 1132 0011 04020000 		.4byte	.LASF34
 1133 0015 3A010000 		.4byte	.LASF35
 1134 0019 00000000 		.4byte	0
 1135 001d 00000000 		.4byte	0
 1136 0021 20010000 		.4byte	.Ldebug_ranges0+0x120
 1137 0025 00000000 		.4byte	.Ldebug_line0
ARM GAS  /tmp/ccYKrizH.s 			page 21


 1138 0029 02       		.uleb128 0x2
 1139 002a F3000000 		.4byte	.LASF0
 1140 002e 02       		.byte	0x2
 1141 002f 28       		.byte	0x28
 1142 0030 34000000 		.4byte	0x34
 1143 0034 03       		.uleb128 0x3
 1144 0035 80010000 		.4byte	.LASF18
 1145 0039 04       		.byte	0x4
 1146 003a 06       		.byte	0x6
 1147 003b 00       		.byte	0
 1148 003c 4E000000 		.4byte	0x4e
 1149 0040 04       		.uleb128 0x4
 1150 0041 07000000 		.4byte	.LASF36
 1151 0045 4E000000 		.4byte	0x4e
 1152 0049 02       		.byte	0x2
 1153 004a 23       		.byte	0x23
 1154 004b 00       		.uleb128 0
 1155 004c 01       		.byte	0x1
 1156 004d 00       		.byte	0
 1157 004e 05       		.uleb128 0x5
 1158 004f 04       		.byte	0x4
 1159 0050 02       		.uleb128 0x2
 1160 0051 45000000 		.4byte	.LASF1
 1161 0055 02       		.byte	0x2
 1162 0056 66       		.byte	0x66
 1163 0057 29000000 		.4byte	0x29
 1164 005b 06       		.uleb128 0x6
 1165 005c 04       		.byte	0x4
 1166 005d 05       		.byte	0x5
 1167 005e 696E7400 		.ascii	"int\000"
 1168 0062 02       		.uleb128 0x2
 1169 0063 00000000 		.4byte	.LASF2
 1170 0067 03       		.byte	0x3
 1171 0068 D4       		.byte	0xd4
 1172 0069 6D000000 		.4byte	0x6d
 1173 006d 07       		.uleb128 0x7
 1174 006e 04       		.byte	0x4
 1175 006f 07       		.byte	0x7
 1176 0070 0E010000 		.4byte	.LASF3
 1177 0074 07       		.uleb128 0x7
 1178 0075 01       		.byte	0x1
 1179 0076 06       		.byte	0x6
 1180 0077 D5010000 		.4byte	.LASF4
 1181 007b 02       		.uleb128 0x2
 1182 007c 3D000000 		.4byte	.LASF5
 1183 0080 04       		.byte	0x4
 1184 0081 2A       		.byte	0x2a
 1185 0082 86000000 		.4byte	0x86
 1186 0086 07       		.uleb128 0x7
 1187 0087 01       		.byte	0x1
 1188 0088 08       		.byte	0x8
 1189 0089 DC000000 		.4byte	.LASF6
 1190 008d 07       		.uleb128 0x7
 1191 008e 02       		.byte	0x2
 1192 008f 05       		.byte	0x5
 1193 0090 B2010000 		.4byte	.LASF7
 1194 0094 07       		.uleb128 0x7
ARM GAS  /tmp/ccYKrizH.s 			page 22


 1195 0095 02       		.byte	0x2
 1196 0096 07       		.byte	0x7
 1197 0097 BD000000 		.4byte	.LASF8
 1198 009b 02       		.uleb128 0x2
 1199 009c 71010000 		.4byte	.LASF9
 1200 00a0 04       		.byte	0x4
 1201 00a1 4F       		.byte	0x4f
 1202 00a2 A6000000 		.4byte	0xa6
 1203 00a6 07       		.uleb128 0x7
 1204 00a7 04       		.byte	0x4
 1205 00a8 05       		.byte	0x5
 1206 00a9 CC010000 		.4byte	.LASF10
 1207 00ad 07       		.uleb128 0x7
 1208 00ae 04       		.byte	0x4
 1209 00af 07       		.byte	0x7
 1210 00b0 AB000000 		.4byte	.LASF11
 1211 00b4 07       		.uleb128 0x7
 1212 00b5 08       		.byte	0x8
 1213 00b6 05       		.byte	0x5
 1214 00b7 8A010000 		.4byte	.LASF12
 1215 00bb 07       		.uleb128 0x7
 1216 00bc 08       		.byte	0x8
 1217 00bd 07       		.byte	0x7
 1218 00be 1B010000 		.4byte	.LASF13
 1219 00c2 02       		.uleb128 0x2
 1220 00c3 1A000000 		.4byte	.LASF14
 1221 00c7 05       		.byte	0x5
 1222 00c8 24       		.byte	0x24
 1223 00c9 CD000000 		.4byte	0xcd
 1224 00cd 07       		.uleb128 0x7
 1225 00ce 01       		.byte	0x1
 1226 00cf 02       		.byte	0x2
 1227 00d0 E6010000 		.4byte	.LASF15
 1228 00d4 02       		.uleb128 0x2
 1229 00d5 6B010000 		.4byte	.LASF16
 1230 00d9 05       		.byte	0x5
 1231 00da 2A       		.byte	0x2a
 1232 00db 9B000000 		.4byte	0x9b
 1233 00df 08       		.uleb128 0x8
 1234 00e0 04       		.byte	0x4
 1235 00e1 E5000000 		.4byte	0xe5
 1236 00e5 09       		.uleb128 0x9
 1237 00e6 EA000000 		.4byte	0xea
 1238 00ea 07       		.uleb128 0x7
 1239 00eb 01       		.byte	0x1
 1240 00ec 08       		.byte	0x8
 1241 00ed A2010000 		.4byte	.LASF17
 1242 00f1 08       		.uleb128 0x8
 1243 00f2 04       		.byte	0x4
 1244 00f3 F7000000 		.4byte	0xf7
 1245 00f7 0A       		.uleb128 0xa
 1246 00f8 01       		.byte	0x1
 1247 00f9 D4000000 		.4byte	0xd4
 1248 00fd 07010000 		.4byte	0x107
 1249 0101 0B       		.uleb128 0xb
 1250 0102 4E000000 		.4byte	0x4e
 1251 0106 00       		.byte	0
ARM GAS  /tmp/ccYKrizH.s 			page 23


 1252 0107 08       		.uleb128 0x8
 1253 0108 04       		.byte	0x4
 1254 0109 7B000000 		.4byte	0x7b
 1255 010d 03       		.uleb128 0x3
 1256 010e EC010000 		.4byte	.LASF19
 1257 0112 10       		.byte	0x10
 1258 0113 07       		.byte	0x7
 1259 0114 41       		.byte	0x41
 1260 0115 52010000 		.4byte	0x152
 1261 0119 0C       		.uleb128 0xc
 1262 011a D0000000 		.4byte	.LASF20
 1263 011e 07       		.byte	0x7
 1264 011f 42       		.byte	0x42
 1265 0120 77010000 		.4byte	0x177
 1266 0124 02       		.byte	0x2
 1267 0125 23       		.byte	0x23
 1268 0126 00       		.uleb128 0
 1269 0127 0C       		.uleb128 0xc
 1270 0128 02010000 		.4byte	.LASF21
 1271 012c 07       		.byte	0x7
 1272 012d 42       		.byte	0x42
 1273 012e 97010000 		.4byte	0x197
 1274 0132 02       		.byte	0x2
 1275 0133 23       		.byte	0x23
 1276 0134 04       		.uleb128 0x4
 1277 0135 0D       		.uleb128 0xd
 1278 0136 70757400 		.ascii	"put\000"
 1279 013a 07       		.byte	0x7
 1280 013b 42       		.byte	0x42
 1281 013c B2010000 		.4byte	0x1b2
 1282 0140 02       		.byte	0x2
 1283 0141 23       		.byte	0x23
 1284 0142 08       		.uleb128 0x8
 1285 0143 0D       		.uleb128 0xd
 1286 0144 67657400 		.ascii	"get\000"
 1287 0148 07       		.byte	0x7
 1288 0149 42       		.byte	0x42
 1289 014a F1000000 		.4byte	0xf1
 1290 014e 02       		.byte	0x2
 1291 014f 23       		.byte	0x23
 1292 0150 0C       		.uleb128 0xc
 1293 0151 00       		.byte	0
 1294 0152 0A       		.uleb128 0xa
 1295 0153 01       		.byte	0x1
 1296 0154 62000000 		.4byte	0x62
 1297 0158 6C010000 		.4byte	0x16c
 1298 015c 0B       		.uleb128 0xb
 1299 015d 4E000000 		.4byte	0x4e
 1300 0161 0B       		.uleb128 0xb
 1301 0162 6C010000 		.4byte	0x16c
 1302 0166 0B       		.uleb128 0xb
 1303 0167 62000000 		.4byte	0x62
 1304 016b 00       		.byte	0
 1305 016c 08       		.uleb128 0x8
 1306 016d 04       		.byte	0x4
 1307 016e 72010000 		.4byte	0x172
 1308 0172 09       		.uleb128 0x9
ARM GAS  /tmp/ccYKrizH.s 			page 24


 1309 0173 7B000000 		.4byte	0x7b
 1310 0177 08       		.uleb128 0x8
 1311 0178 04       		.byte	0x4
 1312 0179 52010000 		.4byte	0x152
 1313 017d 0A       		.uleb128 0xa
 1314 017e 01       		.byte	0x1
 1315 017f 62000000 		.4byte	0x62
 1316 0183 97010000 		.4byte	0x197
 1317 0187 0B       		.uleb128 0xb
 1318 0188 4E000000 		.4byte	0x4e
 1319 018c 0B       		.uleb128 0xb
 1320 018d 07010000 		.4byte	0x107
 1321 0191 0B       		.uleb128 0xb
 1322 0192 62000000 		.4byte	0x62
 1323 0196 00       		.byte	0
 1324 0197 08       		.uleb128 0x8
 1325 0198 04       		.byte	0x4
 1326 0199 7D010000 		.4byte	0x17d
 1327 019d 0A       		.uleb128 0xa
 1328 019e 01       		.byte	0x1
 1329 019f D4000000 		.4byte	0xd4
 1330 01a3 B2010000 		.4byte	0x1b2
 1331 01a7 0B       		.uleb128 0xb
 1332 01a8 4E000000 		.4byte	0x4e
 1333 01ac 0B       		.uleb128 0xb
 1334 01ad 7B000000 		.4byte	0x7b
 1335 01b1 00       		.byte	0
 1336 01b2 08       		.uleb128 0x8
 1337 01b3 04       		.byte	0x4
 1338 01b4 9D010000 		.4byte	0x19d
 1339 01b8 0E       		.uleb128 0xe
 1340 01b9 04       		.byte	0x4
 1341 01ba 07       		.byte	0x7
 1342 01bb 4A       		.byte	0x4a
 1343 01bc CF010000 		.4byte	0x1cf
 1344 01c0 0D       		.uleb128 0xd
 1345 01c1 766D7400 		.ascii	"vmt\000"
 1346 01c5 07       		.byte	0x7
 1347 01c6 4C       		.byte	0x4c
 1348 01c7 CF010000 		.4byte	0x1cf
 1349 01cb 02       		.byte	0x2
 1350 01cc 23       		.byte	0x23
 1351 01cd 00       		.uleb128 0
 1352 01ce 00       		.byte	0
 1353 01cf 08       		.uleb128 0x8
 1354 01d0 04       		.byte	0x4
 1355 01d1 D5010000 		.4byte	0x1d5
 1356 01d5 09       		.uleb128 0x9
 1357 01d6 0D010000 		.4byte	0x10d
 1358 01da 02       		.uleb128 0x2
 1359 01db 4D000000 		.4byte	.LASF22
 1360 01df 07       		.byte	0x7
 1361 01e0 4E       		.byte	0x4e
 1362 01e1 B8010000 		.4byte	0x1b8
 1363 01e5 0F       		.uleb128 0xf
 1364 01e6 21000000 		.4byte	.LASF25
 1365 01ea 01       		.byte	0x1
ARM GAS  /tmp/ccYKrizH.s 			page 25


 1366 01eb 24       		.byte	0x24
 1367 01ec 01       		.byte	0x1
 1368 01ed 46020000 		.4byte	0x246
 1369 01f1 01       		.byte	0x1
 1370 01f2 46020000 		.4byte	0x246
 1371 01f6 10       		.uleb128 0x10
 1372 01f7 7000     		.ascii	"p\000"
 1373 01f9 01       		.byte	0x1
 1374 01fa 24       		.byte	0x24
 1375 01fb 46020000 		.4byte	0x246
 1376 01ff 10       		.uleb128 0x10
 1377 0200 6E756D00 		.ascii	"num\000"
 1378 0204 01       		.byte	0x1
 1379 0205 25       		.byte	0x25
 1380 0206 A6000000 		.4byte	0xa6
 1381 020a 11       		.uleb128 0x11
 1382 020b 14000000 		.4byte	.LASF23
 1383 020f 01       		.byte	0x1
 1384 0210 26       		.byte	0x26
 1385 0211 6D000000 		.4byte	0x6d
 1386 0215 11       		.uleb128 0x11
 1387 0216 32010000 		.4byte	.LASF24
 1388 021a 01       		.byte	0x1
 1389 021b 27       		.byte	0x27
 1390 021c A6000000 		.4byte	0xa6
 1391 0220 12       		.uleb128 0x12
 1392 0221 6900     		.ascii	"i\000"
 1393 0223 01       		.byte	0x1
 1394 0224 28       		.byte	0x28
 1395 0225 5B000000 		.4byte	0x5b
 1396 0229 12       		.uleb128 0x12
 1397 022a 7100     		.ascii	"q\000"
 1398 022c 01       		.byte	0x1
 1399 022d 29       		.byte	0x29
 1400 022e 46020000 		.4byte	0x246
 1401 0232 12       		.uleb128 0x12
 1402 0233 6C00     		.ascii	"l\000"
 1403 0235 01       		.byte	0x1
 1404 0236 2A       		.byte	0x2a
 1405 0237 A6000000 		.4byte	0xa6
 1406 023b 12       		.uleb128 0x12
 1407 023c 6C6C00   		.ascii	"ll\000"
 1408 023f 01       		.byte	0x1
 1409 0240 2A       		.byte	0x2a
 1410 0241 A6000000 		.4byte	0xa6
 1411 0245 00       		.byte	0
 1412 0246 08       		.uleb128 0x8
 1413 0247 04       		.byte	0x4
 1414 0248 EA000000 		.4byte	0xea
 1415 024c 0F       		.uleb128 0xf
 1416 024d E1010000 		.4byte	.LASF26
 1417 0251 01       		.byte	0x1
 1418 0252 45       		.byte	0x45
 1419 0253 01       		.byte	0x1
 1420 0254 46020000 		.4byte	0x246
 1421 0258 01       		.byte	0x1
 1422 0259 7D020000 		.4byte	0x27d
ARM GAS  /tmp/ccYKrizH.s 			page 26


 1423 025d 10       		.uleb128 0x10
 1424 025e 7000     		.ascii	"p\000"
 1425 0260 01       		.byte	0x1
 1426 0261 45       		.byte	0x45
 1427 0262 46020000 		.4byte	0x246
 1428 0266 10       		.uleb128 0x10
 1429 0267 6E756D00 		.ascii	"num\000"
 1430 026b 01       		.byte	0x1
 1431 026c 45       		.byte	0x45
 1432 026d A6000000 		.4byte	0xa6
 1433 0271 11       		.uleb128 0x11
 1434 0272 14000000 		.4byte	.LASF23
 1435 0276 01       		.byte	0x1
 1436 0277 45       		.byte	0x45
 1437 0278 6D000000 		.4byte	0x6d
 1438 027c 00       		.byte	0
 1439 027d 13       		.uleb128 0x13
 1440 027e 01       		.byte	0x1
 1441 027f EA000000 		.4byte	.LASF37
 1442 0283 01       		.byte	0x1
 1443 0284 6C       		.byte	0x6c
 1444 0285 01       		.byte	0x1
 1445 0286 00000000 		.4byte	.LFB9
 1446 028a 44060000 		.4byte	.LFE9
 1447 028e 00000000 		.4byte	.LLST0
 1448 0292 7E040000 		.4byte	0x47e
 1449 0296 14       		.uleb128 0x14
 1450 0297 63687000 		.ascii	"chp\000"
 1451 029b 01       		.byte	0x1
 1452 029c 6C       		.byte	0x6c
 1453 029d 7E040000 		.4byte	0x47e
 1454 02a1 39000000 		.4byte	.LLST1
 1455 02a5 14       		.uleb128 0x14
 1456 02a6 666D7400 		.ascii	"fmt\000"
 1457 02aa 01       		.byte	0x1
 1458 02ab 6C       		.byte	0x6c
 1459 02ac DF000000 		.4byte	0xdf
 1460 02b0 57000000 		.4byte	.LLST2
 1461 02b4 15       		.uleb128 0x15
 1462 02b5 16       		.uleb128 0x16
 1463 02b6 617000   		.ascii	"ap\000"
 1464 02b9 01       		.byte	0x1
 1465 02ba 6D       		.byte	0x6d
 1466 02bb 50000000 		.4byte	0x50
 1467 02bf 02       		.byte	0x2
 1468 02c0 91       		.byte	0x91
 1469 02c1 4C       		.sleb128 -52
 1470 02c2 17       		.uleb128 0x17
 1471 02c3 7000     		.ascii	"p\000"
 1472 02c5 01       		.byte	0x1
 1473 02c6 6E       		.byte	0x6e
 1474 02c7 46020000 		.4byte	0x246
 1475 02cb E8000000 		.4byte	.LLST3
 1476 02cf 17       		.uleb128 0x17
 1477 02d0 7300     		.ascii	"s\000"
 1478 02d2 01       		.byte	0x1
 1479 02d3 6E       		.byte	0x6e
ARM GAS  /tmp/ccYKrizH.s 			page 27


 1480 02d4 46020000 		.4byte	0x246
 1481 02d8 A7010000 		.4byte	.LLST4
 1482 02dc 17       		.uleb128 0x17
 1483 02dd 6300     		.ascii	"c\000"
 1484 02df 01       		.byte	0x1
 1485 02e0 6E       		.byte	0x6e
 1486 02e1 EA000000 		.4byte	0xea
 1487 02e5 11020000 		.4byte	.LLST5
 1488 02e9 18       		.uleb128 0x18
 1489 02ea 07010000 		.4byte	.LASF27
 1490 02ee 01       		.byte	0x1
 1491 02ef 6E       		.byte	0x6e
 1492 02f0 EA000000 		.4byte	0xea
 1493 02f4 CA020000 		.4byte	.LLST6
 1494 02f8 17       		.uleb128 0x17
 1495 02f9 6900     		.ascii	"i\000"
 1496 02fb 01       		.byte	0x1
 1497 02fc 6F       		.byte	0x6f
 1498 02fd 5B000000 		.4byte	0x5b
 1499 0301 78030000 		.4byte	.LLST7
 1500 0305 18       		.uleb128 0x18
 1501 0306 98010000 		.4byte	.LASF28
 1502 030a 01       		.byte	0x1
 1503 030b 6F       		.byte	0x6f
 1504 030c 5B000000 		.4byte	0x5b
 1505 0310 AE030000 		.4byte	.LLST8
 1506 0314 18       		.uleb128 0x18
 1507 0315 D6000000 		.4byte	.LASF29
 1508 0319 01       		.byte	0x1
 1509 031a 6F       		.byte	0x6f
 1510 031b 5B000000 		.4byte	0x5b
 1511 031f 35040000 		.4byte	.LLST9
 1512 0323 18       		.uleb128 0x18
 1513 0324 0C000000 		.4byte	.LASF30
 1514 0328 01       		.byte	0x1
 1515 0329 70       		.byte	0x70
 1516 032a C2000000 		.4byte	0xc2
 1517 032e 5D050000 		.4byte	.LLST10
 1518 0332 18       		.uleb128 0x18
 1519 0333 A7010000 		.4byte	.LASF31
 1520 0337 01       		.byte	0x1
 1521 0338 70       		.byte	0x70
 1522 0339 C2000000 		.4byte	0xc2
 1523 033d BF050000 		.4byte	.LLST11
 1524 0341 17       		.uleb128 0x17
 1525 0342 6C00     		.ascii	"l\000"
 1526 0344 01       		.byte	0x1
 1527 0345 71       		.byte	0x71
 1528 0346 A6000000 		.4byte	0xa6
 1529 034a 05060000 		.4byte	.LLST12
 1530 034e 19       		.uleb128 0x19
 1531 034f 79010000 		.4byte	.LASF32
 1532 0353 01       		.byte	0x1
 1533 0354 76       		.byte	0x76
 1534 0355 84040000 		.4byte	0x484
 1535 0359 02       		.byte	0x2
 1536 035a 91       		.byte	0x91
ARM GAS  /tmp/ccYKrizH.s 			page 28


 1537 035b 40       		.sleb128 -64
 1538 035c 1A       		.uleb128 0x1a
 1539 035d BC010000 		.4byte	.LASF38
 1540 0361 01       		.byte	0x1
 1541 0362 E4       		.byte	0xe4
 1542 0363 D6020000 		.4byte	.L21
 1543 0367 1B       		.uleb128 0x1b
 1544 0368 4C020000 		.4byte	0x24c
 1545 036c 14000000 		.4byte	.LBB12
 1546 0370 00000000 		.4byte	.Ldebug_ranges0+0
 1547 0374 01       		.byte	0x1
 1548 0375 CD       		.byte	0xcd
 1549 0376 F4030000 		.4byte	0x3f4
 1550 037a 1C       		.uleb128 0x1c
 1551 037b 71020000 		.4byte	0x271
 1552 037f 60060000 		.4byte	.LLST13
 1553 0383 1C       		.uleb128 0x1c
 1554 0384 66020000 		.4byte	0x266
 1555 0388 80060000 		.4byte	.LLST14
 1556 038c 1C       		.uleb128 0x1c
 1557 038d 5D020000 		.4byte	0x25d
 1558 0391 93060000 		.4byte	.LLST15
 1559 0395 1D       		.uleb128 0x1d
 1560 0396 E5010000 		.4byte	0x1e5
 1561 039a 14000000 		.4byte	.LBB13
 1562 039e 48000000 		.4byte	.Ldebug_ranges0+0x48
 1563 03a2 01       		.byte	0x1
 1564 03a3 47       		.byte	0x47
 1565 03a4 1C       		.uleb128 0x1c
 1566 03a5 15020000 		.4byte	0x215
 1567 03a9 C7060000 		.4byte	.LLST16
 1568 03ad 1C       		.uleb128 0x1c
 1569 03ae 0A020000 		.4byte	0x20a
 1570 03b2 F3060000 		.4byte	.LLST17
 1571 03b6 1C       		.uleb128 0x1c
 1572 03b7 FF010000 		.4byte	0x1ff
 1573 03bb 1E070000 		.4byte	.LLST18
 1574 03bf 1C       		.uleb128 0x1c
 1575 03c0 F6010000 		.4byte	0x1f6
 1576 03c4 3C070000 		.4byte	.LLST19
 1577 03c8 1E       		.uleb128 0x1e
 1578 03c9 90000000 		.4byte	.Ldebug_ranges0+0x90
 1579 03cd 1F       		.uleb128 0x1f
 1580 03ce 20020000 		.4byte	0x220
 1581 03d2 8E070000 		.4byte	.LLST20
 1582 03d6 1F       		.uleb128 0x1f
 1583 03d7 29020000 		.4byte	0x229
 1584 03db C8070000 		.4byte	.LLST21
 1585 03df 1F       		.uleb128 0x1f
 1586 03e0 32020000 		.4byte	0x232
 1587 03e4 DB070000 		.4byte	.LLST22
 1588 03e8 1F       		.uleb128 0x1f
 1589 03e9 3B020000 		.4byte	0x23b
 1590 03ed 0F080000 		.4byte	.LLST23
 1591 03f1 00       		.byte	0
 1592 03f2 00       		.byte	0
 1593 03f3 00       		.byte	0
ARM GAS  /tmp/ccYKrizH.s 			page 29


 1594 03f4 1D       		.uleb128 0x1d
 1595 03f5 4C020000 		.4byte	0x24c
 1596 03f9 EE020000 		.4byte	.LBB31
 1597 03fd D8000000 		.4byte	.Ldebug_ranges0+0xd8
 1598 0401 01       		.byte	0x1
 1599 0402 E9       		.byte	0xe9
 1600 0403 1C       		.uleb128 0x1c
 1601 0404 71020000 		.4byte	0x271
 1602 0408 43080000 		.4byte	.LLST24
 1603 040c 1C       		.uleb128 0x1c
 1604 040d 66020000 		.4byte	0x266
 1605 0411 56080000 		.4byte	.LLST25
 1606 0415 1C       		.uleb128 0x1c
 1607 0416 5D020000 		.4byte	0x25d
 1608 041a 69080000 		.4byte	.LLST26
 1609 041e 1D       		.uleb128 0x1d
 1610 041f E5010000 		.4byte	0x1e5
 1611 0423 EE020000 		.4byte	.LBB32
 1612 0427 F0000000 		.4byte	.Ldebug_ranges0+0xf0
 1613 042b 01       		.byte	0x1
 1614 042c 47       		.byte	0x47
 1615 042d 1C       		.uleb128 0x1c
 1616 042e 15020000 		.4byte	0x215
 1617 0432 C7060000 		.4byte	.LLST16
 1618 0436 1C       		.uleb128 0x1c
 1619 0437 0A020000 		.4byte	0x20a
 1620 043b F3060000 		.4byte	.LLST17
 1621 043f 1C       		.uleb128 0x1c
 1622 0440 FF010000 		.4byte	0x1ff
 1623 0444 1E070000 		.4byte	.LLST18
 1624 0448 1C       		.uleb128 0x1c
 1625 0449 F6010000 		.4byte	0x1f6
 1626 044d 3C070000 		.4byte	.LLST19
 1627 0451 1E       		.uleb128 0x1e
 1628 0452 08010000 		.4byte	.Ldebug_ranges0+0x108
 1629 0456 1F       		.uleb128 0x1f
 1630 0457 20020000 		.4byte	0x220
 1631 045b 8B080000 		.4byte	.LLST31
 1632 045f 1F       		.uleb128 0x1f
 1633 0460 29020000 		.4byte	0x229
 1634 0464 CB080000 		.4byte	.LLST32
 1635 0468 1F       		.uleb128 0x1f
 1636 0469 32020000 		.4byte	0x232
 1637 046d DB070000 		.4byte	.LLST22
 1638 0471 1F       		.uleb128 0x1f
 1639 0472 3B020000 		.4byte	0x23b
 1640 0476 0F080000 		.4byte	.LLST23
 1641 047a 00       		.byte	0
 1642 047b 00       		.byte	0
 1643 047c 00       		.byte	0
 1644 047d 00       		.byte	0
 1645 047e 08       		.uleb128 0x8
 1646 047f 04       		.byte	0x4
 1647 0480 DA010000 		.4byte	0x1da
 1648 0484 20       		.uleb128 0x20
 1649 0485 EA000000 		.4byte	0xea
 1650 0489 21       		.uleb128 0x21
ARM GAS  /tmp/ccYKrizH.s 			page 30


 1651 048a 6D000000 		.4byte	0x6d
 1652 048e 0B       		.byte	0xb
 1653 048f 00       		.byte	0
 1654 0490 00       		.byte	0
 1655              		.section	.debug_abbrev,"",%progbits
 1656              	.Ldebug_abbrev0:
 1657 0000 01       		.uleb128 0x1
 1658 0001 11       		.uleb128 0x11
 1659 0002 01       		.byte	0x1
 1660 0003 25       		.uleb128 0x25
 1661 0004 0E       		.uleb128 0xe
 1662 0005 13       		.uleb128 0x13
 1663 0006 0B       		.uleb128 0xb
 1664 0007 03       		.uleb128 0x3
 1665 0008 0E       		.uleb128 0xe
 1666 0009 1B       		.uleb128 0x1b
 1667 000a 0E       		.uleb128 0xe
 1668 000b 11       		.uleb128 0x11
 1669 000c 01       		.uleb128 0x1
 1670 000d 52       		.uleb128 0x52
 1671 000e 01       		.uleb128 0x1
 1672 000f 55       		.uleb128 0x55
 1673 0010 06       		.uleb128 0x6
 1674 0011 10       		.uleb128 0x10
 1675 0012 06       		.uleb128 0x6
 1676 0013 00       		.byte	0
 1677 0014 00       		.byte	0
 1678 0015 02       		.uleb128 0x2
 1679 0016 16       		.uleb128 0x16
 1680 0017 00       		.byte	0
 1681 0018 03       		.uleb128 0x3
 1682 0019 0E       		.uleb128 0xe
 1683 001a 3A       		.uleb128 0x3a
 1684 001b 0B       		.uleb128 0xb
 1685 001c 3B       		.uleb128 0x3b
 1686 001d 0B       		.uleb128 0xb
 1687 001e 49       		.uleb128 0x49
 1688 001f 13       		.uleb128 0x13
 1689 0020 00       		.byte	0
 1690 0021 00       		.byte	0
 1691 0022 03       		.uleb128 0x3
 1692 0023 13       		.uleb128 0x13
 1693 0024 01       		.byte	0x1
 1694 0025 03       		.uleb128 0x3
 1695 0026 0E       		.uleb128 0xe
 1696 0027 0B       		.uleb128 0xb
 1697 0028 0B       		.uleb128 0xb
 1698 0029 3A       		.uleb128 0x3a
 1699 002a 0B       		.uleb128 0xb
 1700 002b 3B       		.uleb128 0x3b
 1701 002c 0B       		.uleb128 0xb
 1702 002d 01       		.uleb128 0x1
 1703 002e 13       		.uleb128 0x13
 1704 002f 00       		.byte	0
 1705 0030 00       		.byte	0
 1706 0031 04       		.uleb128 0x4
 1707 0032 0D       		.uleb128 0xd
ARM GAS  /tmp/ccYKrizH.s 			page 31


 1708 0033 00       		.byte	0
 1709 0034 03       		.uleb128 0x3
 1710 0035 0E       		.uleb128 0xe
 1711 0036 49       		.uleb128 0x49
 1712 0037 13       		.uleb128 0x13
 1713 0038 38       		.uleb128 0x38
 1714 0039 0A       		.uleb128 0xa
 1715 003a 34       		.uleb128 0x34
 1716 003b 0C       		.uleb128 0xc
 1717 003c 00       		.byte	0
 1718 003d 00       		.byte	0
 1719 003e 05       		.uleb128 0x5
 1720 003f 0F       		.uleb128 0xf
 1721 0040 00       		.byte	0
 1722 0041 0B       		.uleb128 0xb
 1723 0042 0B       		.uleb128 0xb
 1724 0043 00       		.byte	0
 1725 0044 00       		.byte	0
 1726 0045 06       		.uleb128 0x6
 1727 0046 24       		.uleb128 0x24
 1728 0047 00       		.byte	0
 1729 0048 0B       		.uleb128 0xb
 1730 0049 0B       		.uleb128 0xb
 1731 004a 3E       		.uleb128 0x3e
 1732 004b 0B       		.uleb128 0xb
 1733 004c 03       		.uleb128 0x3
 1734 004d 08       		.uleb128 0x8
 1735 004e 00       		.byte	0
 1736 004f 00       		.byte	0
 1737 0050 07       		.uleb128 0x7
 1738 0051 24       		.uleb128 0x24
 1739 0052 00       		.byte	0
 1740 0053 0B       		.uleb128 0xb
 1741 0054 0B       		.uleb128 0xb
 1742 0055 3E       		.uleb128 0x3e
 1743 0056 0B       		.uleb128 0xb
 1744 0057 03       		.uleb128 0x3
 1745 0058 0E       		.uleb128 0xe
 1746 0059 00       		.byte	0
 1747 005a 00       		.byte	0
 1748 005b 08       		.uleb128 0x8
 1749 005c 0F       		.uleb128 0xf
 1750 005d 00       		.byte	0
 1751 005e 0B       		.uleb128 0xb
 1752 005f 0B       		.uleb128 0xb
 1753 0060 49       		.uleb128 0x49
 1754 0061 13       		.uleb128 0x13
 1755 0062 00       		.byte	0
 1756 0063 00       		.byte	0
 1757 0064 09       		.uleb128 0x9
 1758 0065 26       		.uleb128 0x26
 1759 0066 00       		.byte	0
 1760 0067 49       		.uleb128 0x49
 1761 0068 13       		.uleb128 0x13
 1762 0069 00       		.byte	0
 1763 006a 00       		.byte	0
 1764 006b 0A       		.uleb128 0xa
ARM GAS  /tmp/ccYKrizH.s 			page 32


 1765 006c 15       		.uleb128 0x15
 1766 006d 01       		.byte	0x1
 1767 006e 27       		.uleb128 0x27
 1768 006f 0C       		.uleb128 0xc
 1769 0070 49       		.uleb128 0x49
 1770 0071 13       		.uleb128 0x13
 1771 0072 01       		.uleb128 0x1
 1772 0073 13       		.uleb128 0x13
 1773 0074 00       		.byte	0
 1774 0075 00       		.byte	0
 1775 0076 0B       		.uleb128 0xb
 1776 0077 05       		.uleb128 0x5
 1777 0078 00       		.byte	0
 1778 0079 49       		.uleb128 0x49
 1779 007a 13       		.uleb128 0x13
 1780 007b 00       		.byte	0
 1781 007c 00       		.byte	0
 1782 007d 0C       		.uleb128 0xc
 1783 007e 0D       		.uleb128 0xd
 1784 007f 00       		.byte	0
 1785 0080 03       		.uleb128 0x3
 1786 0081 0E       		.uleb128 0xe
 1787 0082 3A       		.uleb128 0x3a
 1788 0083 0B       		.uleb128 0xb
 1789 0084 3B       		.uleb128 0x3b
 1790 0085 0B       		.uleb128 0xb
 1791 0086 49       		.uleb128 0x49
 1792 0087 13       		.uleb128 0x13
 1793 0088 38       		.uleb128 0x38
 1794 0089 0A       		.uleb128 0xa
 1795 008a 00       		.byte	0
 1796 008b 00       		.byte	0
 1797 008c 0D       		.uleb128 0xd
 1798 008d 0D       		.uleb128 0xd
 1799 008e 00       		.byte	0
 1800 008f 03       		.uleb128 0x3
 1801 0090 08       		.uleb128 0x8
 1802 0091 3A       		.uleb128 0x3a
 1803 0092 0B       		.uleb128 0xb
 1804 0093 3B       		.uleb128 0x3b
 1805 0094 0B       		.uleb128 0xb
 1806 0095 49       		.uleb128 0x49
 1807 0096 13       		.uleb128 0x13
 1808 0097 38       		.uleb128 0x38
 1809 0098 0A       		.uleb128 0xa
 1810 0099 00       		.byte	0
 1811 009a 00       		.byte	0
 1812 009b 0E       		.uleb128 0xe
 1813 009c 13       		.uleb128 0x13
 1814 009d 01       		.byte	0x1
 1815 009e 0B       		.uleb128 0xb
 1816 009f 0B       		.uleb128 0xb
 1817 00a0 3A       		.uleb128 0x3a
 1818 00a1 0B       		.uleb128 0xb
 1819 00a2 3B       		.uleb128 0x3b
 1820 00a3 0B       		.uleb128 0xb
 1821 00a4 01       		.uleb128 0x1
ARM GAS  /tmp/ccYKrizH.s 			page 33


 1822 00a5 13       		.uleb128 0x13
 1823 00a6 00       		.byte	0
 1824 00a7 00       		.byte	0
 1825 00a8 0F       		.uleb128 0xf
 1826 00a9 2E       		.uleb128 0x2e
 1827 00aa 01       		.byte	0x1
 1828 00ab 03       		.uleb128 0x3
 1829 00ac 0E       		.uleb128 0xe
 1830 00ad 3A       		.uleb128 0x3a
 1831 00ae 0B       		.uleb128 0xb
 1832 00af 3B       		.uleb128 0x3b
 1833 00b0 0B       		.uleb128 0xb
 1834 00b1 27       		.uleb128 0x27
 1835 00b2 0C       		.uleb128 0xc
 1836 00b3 49       		.uleb128 0x49
 1837 00b4 13       		.uleb128 0x13
 1838 00b5 20       		.uleb128 0x20
 1839 00b6 0B       		.uleb128 0xb
 1840 00b7 01       		.uleb128 0x1
 1841 00b8 13       		.uleb128 0x13
 1842 00b9 00       		.byte	0
 1843 00ba 00       		.byte	0
 1844 00bb 10       		.uleb128 0x10
 1845 00bc 05       		.uleb128 0x5
 1846 00bd 00       		.byte	0
 1847 00be 03       		.uleb128 0x3
 1848 00bf 08       		.uleb128 0x8
 1849 00c0 3A       		.uleb128 0x3a
 1850 00c1 0B       		.uleb128 0xb
 1851 00c2 3B       		.uleb128 0x3b
 1852 00c3 0B       		.uleb128 0xb
 1853 00c4 49       		.uleb128 0x49
 1854 00c5 13       		.uleb128 0x13
 1855 00c6 00       		.byte	0
 1856 00c7 00       		.byte	0
 1857 00c8 11       		.uleb128 0x11
 1858 00c9 05       		.uleb128 0x5
 1859 00ca 00       		.byte	0
 1860 00cb 03       		.uleb128 0x3
 1861 00cc 0E       		.uleb128 0xe
 1862 00cd 3A       		.uleb128 0x3a
 1863 00ce 0B       		.uleb128 0xb
 1864 00cf 3B       		.uleb128 0x3b
 1865 00d0 0B       		.uleb128 0xb
 1866 00d1 49       		.uleb128 0x49
 1867 00d2 13       		.uleb128 0x13
 1868 00d3 00       		.byte	0
 1869 00d4 00       		.byte	0
 1870 00d5 12       		.uleb128 0x12
 1871 00d6 34       		.uleb128 0x34
 1872 00d7 00       		.byte	0
 1873 00d8 03       		.uleb128 0x3
 1874 00d9 08       		.uleb128 0x8
 1875 00da 3A       		.uleb128 0x3a
 1876 00db 0B       		.uleb128 0xb
 1877 00dc 3B       		.uleb128 0x3b
 1878 00dd 0B       		.uleb128 0xb
ARM GAS  /tmp/ccYKrizH.s 			page 34


 1879 00de 49       		.uleb128 0x49
 1880 00df 13       		.uleb128 0x13
 1881 00e0 00       		.byte	0
 1882 00e1 00       		.byte	0
 1883 00e2 13       		.uleb128 0x13
 1884 00e3 2E       		.uleb128 0x2e
 1885 00e4 01       		.byte	0x1
 1886 00e5 3F       		.uleb128 0x3f
 1887 00e6 0C       		.uleb128 0xc
 1888 00e7 03       		.uleb128 0x3
 1889 00e8 0E       		.uleb128 0xe
 1890 00e9 3A       		.uleb128 0x3a
 1891 00ea 0B       		.uleb128 0xb
 1892 00eb 3B       		.uleb128 0x3b
 1893 00ec 0B       		.uleb128 0xb
 1894 00ed 27       		.uleb128 0x27
 1895 00ee 0C       		.uleb128 0xc
 1896 00ef 11       		.uleb128 0x11
 1897 00f0 01       		.uleb128 0x1
 1898 00f1 12       		.uleb128 0x12
 1899 00f2 01       		.uleb128 0x1
 1900 00f3 40       		.uleb128 0x40
 1901 00f4 06       		.uleb128 0x6
 1902 00f5 01       		.uleb128 0x1
 1903 00f6 13       		.uleb128 0x13
 1904 00f7 00       		.byte	0
 1905 00f8 00       		.byte	0
 1906 00f9 14       		.uleb128 0x14
 1907 00fa 05       		.uleb128 0x5
 1908 00fb 00       		.byte	0
 1909 00fc 03       		.uleb128 0x3
 1910 00fd 08       		.uleb128 0x8
 1911 00fe 3A       		.uleb128 0x3a
 1912 00ff 0B       		.uleb128 0xb
 1913 0100 3B       		.uleb128 0x3b
 1914 0101 0B       		.uleb128 0xb
 1915 0102 49       		.uleb128 0x49
 1916 0103 13       		.uleb128 0x13
 1917 0104 02       		.uleb128 0x2
 1918 0105 06       		.uleb128 0x6
 1919 0106 00       		.byte	0
 1920 0107 00       		.byte	0
 1921 0108 15       		.uleb128 0x15
 1922 0109 18       		.uleb128 0x18
 1923 010a 00       		.byte	0
 1924 010b 00       		.byte	0
 1925 010c 00       		.byte	0
 1926 010d 16       		.uleb128 0x16
 1927 010e 34       		.uleb128 0x34
 1928 010f 00       		.byte	0
 1929 0110 03       		.uleb128 0x3
 1930 0111 08       		.uleb128 0x8
 1931 0112 3A       		.uleb128 0x3a
 1932 0113 0B       		.uleb128 0xb
 1933 0114 3B       		.uleb128 0x3b
 1934 0115 0B       		.uleb128 0xb
 1935 0116 49       		.uleb128 0x49
ARM GAS  /tmp/ccYKrizH.s 			page 35


 1936 0117 13       		.uleb128 0x13
 1937 0118 02       		.uleb128 0x2
 1938 0119 0A       		.uleb128 0xa
 1939 011a 00       		.byte	0
 1940 011b 00       		.byte	0
 1941 011c 17       		.uleb128 0x17
 1942 011d 34       		.uleb128 0x34
 1943 011e 00       		.byte	0
 1944 011f 03       		.uleb128 0x3
 1945 0120 08       		.uleb128 0x8
 1946 0121 3A       		.uleb128 0x3a
 1947 0122 0B       		.uleb128 0xb
 1948 0123 3B       		.uleb128 0x3b
 1949 0124 0B       		.uleb128 0xb
 1950 0125 49       		.uleb128 0x49
 1951 0126 13       		.uleb128 0x13
 1952 0127 02       		.uleb128 0x2
 1953 0128 06       		.uleb128 0x6
 1954 0129 00       		.byte	0
 1955 012a 00       		.byte	0
 1956 012b 18       		.uleb128 0x18
 1957 012c 34       		.uleb128 0x34
 1958 012d 00       		.byte	0
 1959 012e 03       		.uleb128 0x3
 1960 012f 0E       		.uleb128 0xe
 1961 0130 3A       		.uleb128 0x3a
 1962 0131 0B       		.uleb128 0xb
 1963 0132 3B       		.uleb128 0x3b
 1964 0133 0B       		.uleb128 0xb
 1965 0134 49       		.uleb128 0x49
 1966 0135 13       		.uleb128 0x13
 1967 0136 02       		.uleb128 0x2
 1968 0137 06       		.uleb128 0x6
 1969 0138 00       		.byte	0
 1970 0139 00       		.byte	0
 1971 013a 19       		.uleb128 0x19
 1972 013b 34       		.uleb128 0x34
 1973 013c 00       		.byte	0
 1974 013d 03       		.uleb128 0x3
 1975 013e 0E       		.uleb128 0xe
 1976 013f 3A       		.uleb128 0x3a
 1977 0140 0B       		.uleb128 0xb
 1978 0141 3B       		.uleb128 0x3b
 1979 0142 0B       		.uleb128 0xb
 1980 0143 49       		.uleb128 0x49
 1981 0144 13       		.uleb128 0x13
 1982 0145 02       		.uleb128 0x2
 1983 0146 0A       		.uleb128 0xa
 1984 0147 00       		.byte	0
 1985 0148 00       		.byte	0
 1986 0149 1A       		.uleb128 0x1a
 1987 014a 0A       		.uleb128 0xa
 1988 014b 00       		.byte	0
 1989 014c 03       		.uleb128 0x3
 1990 014d 0E       		.uleb128 0xe
 1991 014e 3A       		.uleb128 0x3a
 1992 014f 0B       		.uleb128 0xb
ARM GAS  /tmp/ccYKrizH.s 			page 36


 1993 0150 3B       		.uleb128 0x3b
 1994 0151 0B       		.uleb128 0xb
 1995 0152 11       		.uleb128 0x11
 1996 0153 01       		.uleb128 0x1
 1997 0154 00       		.byte	0
 1998 0155 00       		.byte	0
 1999 0156 1B       		.uleb128 0x1b
 2000 0157 1D       		.uleb128 0x1d
 2001 0158 01       		.byte	0x1
 2002 0159 31       		.uleb128 0x31
 2003 015a 13       		.uleb128 0x13
 2004 015b 52       		.uleb128 0x52
 2005 015c 01       		.uleb128 0x1
 2006 015d 55       		.uleb128 0x55
 2007 015e 06       		.uleb128 0x6
 2008 015f 58       		.uleb128 0x58
 2009 0160 0B       		.uleb128 0xb
 2010 0161 59       		.uleb128 0x59
 2011 0162 0B       		.uleb128 0xb
 2012 0163 01       		.uleb128 0x1
 2013 0164 13       		.uleb128 0x13
 2014 0165 00       		.byte	0
 2015 0166 00       		.byte	0
 2016 0167 1C       		.uleb128 0x1c
 2017 0168 05       		.uleb128 0x5
 2018 0169 00       		.byte	0
 2019 016a 31       		.uleb128 0x31
 2020 016b 13       		.uleb128 0x13
 2021 016c 02       		.uleb128 0x2
 2022 016d 06       		.uleb128 0x6
 2023 016e 00       		.byte	0
 2024 016f 00       		.byte	0
 2025 0170 1D       		.uleb128 0x1d
 2026 0171 1D       		.uleb128 0x1d
 2027 0172 01       		.byte	0x1
 2028 0173 31       		.uleb128 0x31
 2029 0174 13       		.uleb128 0x13
 2030 0175 52       		.uleb128 0x52
 2031 0176 01       		.uleb128 0x1
 2032 0177 55       		.uleb128 0x55
 2033 0178 06       		.uleb128 0x6
 2034 0179 58       		.uleb128 0x58
 2035 017a 0B       		.uleb128 0xb
 2036 017b 59       		.uleb128 0x59
 2037 017c 0B       		.uleb128 0xb
 2038 017d 00       		.byte	0
 2039 017e 00       		.byte	0
 2040 017f 1E       		.uleb128 0x1e
 2041 0180 0B       		.uleb128 0xb
 2042 0181 01       		.byte	0x1
 2043 0182 55       		.uleb128 0x55
 2044 0183 06       		.uleb128 0x6
 2045 0184 00       		.byte	0
 2046 0185 00       		.byte	0
 2047 0186 1F       		.uleb128 0x1f
 2048 0187 34       		.uleb128 0x34
 2049 0188 00       		.byte	0
ARM GAS  /tmp/ccYKrizH.s 			page 37


 2050 0189 31       		.uleb128 0x31
 2051 018a 13       		.uleb128 0x13
 2052 018b 02       		.uleb128 0x2
 2053 018c 06       		.uleb128 0x6
 2054 018d 00       		.byte	0
 2055 018e 00       		.byte	0
 2056 018f 20       		.uleb128 0x20
 2057 0190 01       		.uleb128 0x1
 2058 0191 01       		.byte	0x1
 2059 0192 49       		.uleb128 0x49
 2060 0193 13       		.uleb128 0x13
 2061 0194 00       		.byte	0
 2062 0195 00       		.byte	0
 2063 0196 21       		.uleb128 0x21
 2064 0197 21       		.uleb128 0x21
 2065 0198 00       		.byte	0
 2066 0199 49       		.uleb128 0x49
 2067 019a 13       		.uleb128 0x13
 2068 019b 2F       		.uleb128 0x2f
 2069 019c 0B       		.uleb128 0xb
 2070 019d 00       		.byte	0
 2071 019e 00       		.byte	0
 2072 019f 00       		.byte	0
 2073              		.section	.debug_loc,"",%progbits
 2074              	.Ldebug_loc0:
 2075              	.LLST0:
 2076 0000 00000000 		.4byte	.LFB9
 2077 0004 02000000 		.4byte	.LCFI0
 2078 0008 0200     		.2byte	0x2
 2079 000a 7D       		.byte	0x7d
 2080 000b 00       		.sleb128 0
 2081 000c 02000000 		.4byte	.LCFI0
 2082 0010 06000000 		.4byte	.LCFI1
 2083 0014 0200     		.2byte	0x2
 2084 0016 7D       		.byte	0x7d
 2085 0017 0C       		.sleb128 12
 2086 0018 06000000 		.4byte	.LCFI1
 2087 001c 08000000 		.4byte	.LCFI2
 2088 0020 0200     		.2byte	0x2
 2089 0022 7D       		.byte	0x7d
 2090 0023 30       		.sleb128 48
 2091 0024 08000000 		.4byte	.LCFI2
 2092 0028 44060000 		.4byte	.LFE9
 2093 002c 0300     		.2byte	0x3
 2094 002e 7D       		.byte	0x7d
 2095 002f E000     		.sleb128 96
 2096 0031 00000000 		.4byte	0
 2097 0035 00000000 		.4byte	0
 2098              	.LLST1:
 2099 0039 00000000 		.4byte	.LVL0
 2100 003d 2C000000 		.4byte	.LVL1
 2101 0041 0100     		.2byte	0x1
 2102 0043 50       		.byte	0x50
 2103 0044 2C000000 		.4byte	.LVL1
 2104 0048 44060000 		.4byte	.LFE9
 2105 004c 0100     		.2byte	0x1
 2106 004e 55       		.byte	0x55
ARM GAS  /tmp/ccYKrizH.s 			page 38


 2107 004f 00000000 		.4byte	0
 2108 0053 00000000 		.4byte	0
 2109              	.LLST2:
 2110 0057 00000000 		.4byte	.LVL0
 2111 005b 2C000000 		.4byte	.LVL1
 2112 005f 0200     		.2byte	0x2
 2113 0061 91       		.byte	0x91
 2114 0062 74       		.sleb128 -12
 2115 0063 2C000000 		.4byte	.LVL1
 2116 0067 2E000000 		.4byte	.LVL2
 2117 006b 0100     		.2byte	0x1
 2118 006d 54       		.byte	0x54
 2119 006e 2E000000 		.4byte	.LVL2
 2120 0072 30000000 		.4byte	.LVL3
 2121 0076 0300     		.2byte	0x3
 2122 0078 74       		.byte	0x74
 2123 0079 01       		.sleb128 1
 2124 007a 9F       		.byte	0x9f
 2125 007b 40000000 		.4byte	.LVL4
 2126 007f 42000000 		.4byte	.LVL5
 2127 0083 0100     		.2byte	0x1
 2128 0085 57       		.byte	0x57
 2129 0086 42000000 		.4byte	.LVL5
 2130 008a 46000000 		.4byte	.LVL6
 2131 008e 0300     		.2byte	0x3
 2132 0090 77       		.byte	0x77
 2133 0091 01       		.sleb128 1
 2134 0092 9F       		.byte	0x9f
 2135 0093 5C000000 		.4byte	.LVL8
 2136 0097 68000000 		.4byte	.LVL10
 2137 009b 0100     		.2byte	0x1
 2138 009d 57       		.byte	0x57
 2139 009e 7A000000 		.4byte	.LVL12
 2140 00a2 94000000 		.4byte	.LVL18
 2141 00a6 0100     		.2byte	0x1
 2142 00a8 57       		.byte	0x57
 2143 00a9 94000000 		.4byte	.LVL18
 2144 00ad BC050000 		.4byte	.LVL104
 2145 00b1 0100     		.2byte	0x1
 2146 00b3 54       		.byte	0x54
 2147 00b4 D2050000 		.4byte	.LVL106
 2148 00b8 E6050000 		.4byte	.LVL111
 2149 00bc 0100     		.2byte	0x1
 2150 00be 54       		.byte	0x54
 2151 00bf E6050000 		.4byte	.LVL111
 2152 00c3 EC050000 		.4byte	.LVL113
 2153 00c7 0100     		.2byte	0x1
 2154 00c9 57       		.byte	0x57
 2155 00ca F2050000 		.4byte	.LVL114
 2156 00ce FA050000 		.4byte	.LVL115
 2157 00d2 0100     		.2byte	0x1
 2158 00d4 57       		.byte	0x57
 2159 00d5 FA050000 		.4byte	.LVL115
 2160 00d9 44060000 		.4byte	.LFE9
 2161 00dd 0100     		.2byte	0x1
 2162 00df 54       		.byte	0x54
 2163 00e0 00000000 		.4byte	0
ARM GAS  /tmp/ccYKrizH.s 			page 39


 2164 00e4 00000000 		.4byte	0
 2165              	.LLST3:
 2166 00e8 50000000 		.4byte	.LVL7
 2167 00ec 50010000 		.4byte	.LVL25
 2168 00f0 0300     		.2byte	0x3
 2169 00f2 91       		.byte	0x91
 2170 00f3 907F     		.sleb128 -112
 2171 00f5 50010000 		.4byte	.LVL25
 2172 00f9 80010000 		.4byte	.LVL27
 2173 00fd 0100     		.2byte	0x1
 2174 00ff 58       		.byte	0x58
 2175 0100 4C020000 		.4byte	.LVL39
 2176 0104 5A020000 		.4byte	.LVL41
 2177 0108 0300     		.2byte	0x3
 2178 010a 91       		.byte	0x91
 2179 010b 907F     		.sleb128 -112
 2180 010d 5A020000 		.4byte	.LVL41
 2181 0111 62020000 		.4byte	.LVL42
 2182 0115 0300     		.2byte	0x3
 2183 0117 91       		.byte	0x91
 2184 0118 8C7F     		.sleb128 -116
 2185 011a D4020000 		.4byte	.LVL55
 2186 011e 50040000 		.4byte	.LVL82
 2187 0122 0300     		.2byte	0x3
 2188 0124 91       		.byte	0x91
 2189 0125 907F     		.sleb128 -112
 2190 0127 50040000 		.4byte	.LVL82
 2191 012b 0A050000 		.4byte	.LVL92
 2192 012f 0100     		.2byte	0x1
 2193 0131 5A       		.byte	0x5a
 2194 0132 0A050000 		.4byte	.LVL92
 2195 0136 30050000 		.4byte	.LVL93
 2196 013a 0100     		.2byte	0x1
 2197 013c 5B       		.byte	0x5b
 2198 013d 30050000 		.4byte	.LVL93
 2199 0141 88050000 		.4byte	.LVL96
 2200 0145 0100     		.2byte	0x1
 2201 0147 5A       		.byte	0x5a
 2202 0148 9C050000 		.4byte	.LVL98
 2203 014c A0050000 		.4byte	.LVL99
 2204 0150 0300     		.2byte	0x3
 2205 0152 91       		.byte	0x91
 2206 0153 907F     		.sleb128 -112
 2207 0155 A0050000 		.4byte	.LVL99
 2208 0159 AA050000 		.4byte	.LVL100
 2209 015d 0300     		.2byte	0x3
 2210 015f 91       		.byte	0x91
 2211 0160 8C7F     		.sleb128 -116
 2212 0162 AA050000 		.4byte	.LVL100
 2213 0166 10060000 		.4byte	.LVL119
 2214 016a 0300     		.2byte	0x3
 2215 016c 91       		.byte	0x91
 2216 016d 907F     		.sleb128 -112
 2217 016f 10060000 		.4byte	.LVL119
 2218 0173 18060000 		.4byte	.LVL122
 2219 0177 0300     		.2byte	0x3
 2220 0179 91       		.byte	0x91
ARM GAS  /tmp/ccYKrizH.s 			page 40


 2221 017a 8C7F     		.sleb128 -116
 2222 017c 30060000 		.4byte	.LVL125
 2223 0180 36060000 		.4byte	.LVL127
 2224 0184 0100     		.2byte	0x1
 2225 0186 58       		.byte	0x58
 2226 0187 36060000 		.4byte	.LVL127
 2227 018b 3C060000 		.4byte	.LVL128
 2228 018f 0300     		.2byte	0x3
 2229 0191 91       		.byte	0x91
 2230 0192 907F     		.sleb128 -112
 2231 0194 3C060000 		.4byte	.LVL128
 2232 0198 44060000 		.4byte	.LFE9
 2233 019c 0100     		.2byte	0x1
 2234 019e 5A       		.byte	0x5a
 2235 019f 00000000 		.4byte	0
 2236 01a3 00000000 		.4byte	0
 2237              	.LLST4:
 2238 01a7 50000000 		.4byte	.LVL7
 2239 01ab 3A010000 		.4byte	.LVL22
 2240 01af 0300     		.2byte	0x3
 2241 01b1 91       		.byte	0x91
 2242 01b2 907F     		.sleb128 -112
 2243 01b4 46010000 		.4byte	.LVL24
 2244 01b8 D0010000 		.4byte	.LVL32
 2245 01bc 0100     		.2byte	0x1
 2246 01be 58       		.byte	0x58
 2247 01bf D0010000 		.4byte	.LVL32
 2248 01c3 E0010000 		.4byte	.LVL34
 2249 01c7 0300     		.2byte	0x3
 2250 01c9 77       		.byte	0x77
 2251 01ca 7F       		.sleb128 -1
 2252 01cb 9F       		.byte	0x9f
 2253 01cc 4C020000 		.4byte	.LVL39
 2254 01d0 62020000 		.4byte	.LVL42
 2255 01d4 0300     		.2byte	0x3
 2256 01d6 91       		.byte	0x91
 2257 01d7 907F     		.sleb128 -112
 2258 01d9 62020000 		.4byte	.LVL42
 2259 01dd 90020000 		.4byte	.LVL47
 2260 01e1 0100     		.2byte	0x1
 2261 01e3 58       		.byte	0x58
 2262 01e4 D4020000 		.4byte	.LVL55
 2263 01e8 18060000 		.4byte	.LVL122
 2264 01ec 0300     		.2byte	0x3
 2265 01ee 91       		.byte	0x91
 2266 01ef 907F     		.sleb128 -112
 2267 01f1 18060000 		.4byte	.LVL122
 2268 01f5 36060000 		.4byte	.LVL127
 2269 01f9 0100     		.2byte	0x1
 2270 01fb 58       		.byte	0x58
 2271 01fc 36060000 		.4byte	.LVL127
 2272 0200 44060000 		.4byte	.LFE9
 2273 0204 0300     		.2byte	0x3
 2274 0206 91       		.byte	0x91
 2275 0207 907F     		.sleb128 -112
 2276 0209 00000000 		.4byte	0
 2277 020d 00000000 		.4byte	0
ARM GAS  /tmp/ccYKrizH.s 			page 41


 2278              	.LLST5:
 2279 0211 2E000000 		.4byte	.LVL2
 2280 0215 30000000 		.4byte	.LVL3
 2281 0219 0100     		.2byte	0x1
 2282 021b 51       		.byte	0x51
 2283 021c 42000000 		.4byte	.LVL5
 2284 0220 46000000 		.4byte	.LVL6
 2285 0224 0100     		.2byte	0x1
 2286 0226 51       		.byte	0x51
 2287 0227 6C000000 		.4byte	.LVL11
 2288 022b 82000000 		.4byte	.LVL13
 2289 022f 0100     		.2byte	0x1
 2290 0231 52       		.byte	0x52
 2291 0232 82000000 		.4byte	.LVL13
 2292 0236 8A000000 		.4byte	.LVL16
 2293 023a 0100     		.2byte	0x1
 2294 023c 50       		.byte	0x50
 2295 023d 8A000000 		.4byte	.LVL16
 2296 0241 32010000 		.4byte	.LVL21
 2297 0245 0100     		.2byte	0x1
 2298 0247 52       		.byte	0x52
 2299 0248 4C020000 		.4byte	.LVL39
 2300 024c 56020000 		.4byte	.LVL40
 2301 0250 0100     		.2byte	0x1
 2302 0252 52       		.byte	0x52
 2303 0253 D4020000 		.4byte	.LVL55
 2304 0257 D6020000 		.4byte	.LVL56
 2305 025b 0100     		.2byte	0x1
 2306 025d 52       		.byte	0x52
 2307 025e 1C040000 		.4byte	.LVL74
 2308 0262 1E040000 		.4byte	.LVL75
 2309 0266 0100     		.2byte	0x1
 2310 0268 52       		.byte	0x52
 2311 0269 32040000 		.4byte	.LVL78
 2312 026d 36040000 		.4byte	.LVL79
 2313 0271 0200     		.2byte	0x2
 2314 0273 38       		.byte	0x38
 2315 0274 9F       		.byte	0x9f
 2316 0275 9C050000 		.4byte	.LVL98
 2317 0279 AE050000 		.4byte	.LVL101
 2318 027d 0100     		.2byte	0x1
 2319 027f 52       		.byte	0x52
 2320 0280 AE050000 		.4byte	.LVL101
 2321 0284 B8050000 		.4byte	.LVL103
 2322 0288 0100     		.2byte	0x1
 2323 028a 51       		.byte	0x51
 2324 028b B8050000 		.4byte	.LVL103
 2325 028f BC050000 		.4byte	.LVL104
 2326 0293 0100     		.2byte	0x1
 2327 0295 52       		.byte	0x52
 2328 0296 C2050000 		.4byte	.LVL105
 2329 029a DA050000 		.4byte	.LVL107
 2330 029e 0100     		.2byte	0x1
 2331 02a0 52       		.byte	0x52
 2332 02a1 DA050000 		.4byte	.LVL107
 2333 02a5 E2050000 		.4byte	.LVL110
 2334 02a9 0100     		.2byte	0x1
ARM GAS  /tmp/ccYKrizH.s 			page 42


 2335 02ab 50       		.byte	0x50
 2336 02ac E2050000 		.4byte	.LVL110
 2337 02b0 E6050000 		.4byte	.LVL111
 2338 02b4 0100     		.2byte	0x1
 2339 02b6 52       		.byte	0x52
 2340 02b7 FA050000 		.4byte	.LVL115
 2341 02bb 00060000 		.4byte	.LVL116
 2342 02bf 0100     		.2byte	0x1
 2343 02c1 52       		.byte	0x52
 2344 02c2 00000000 		.4byte	0
 2345 02c6 00000000 		.4byte	0
 2346              	.LLST6:
 2347 02ca 5C000000 		.4byte	.LVL8
 2348 02ce 64000000 		.4byte	.LVL9
 2349 02d2 0300     		.2byte	0x3
 2350 02d4 08       		.byte	0x8
 2351 02d5 20       		.byte	0x20
 2352 02d6 9F       		.byte	0x9f
 2353 02d7 64000000 		.4byte	.LVL9
 2354 02db 30010000 		.4byte	.LVL20
 2355 02df 0100     		.2byte	0x1
 2356 02e1 56       		.byte	0x56
 2357 02e2 30010000 		.4byte	.LVL20
 2358 02e6 A8010000 		.4byte	.LVL28
 2359 02ea 0300     		.2byte	0x3
 2360 02ec 08       		.byte	0x8
 2361 02ed 20       		.byte	0x20
 2362 02ee 9F       		.byte	0x9f
 2363 02ef A8010000 		.4byte	.LVL28
 2364 02f3 B0010000 		.4byte	.LVL30
 2365 02f7 0100     		.2byte	0x1
 2366 02f9 56       		.byte	0x56
 2367 02fa 4C020000 		.4byte	.LVL39
 2368 02fe 62020000 		.4byte	.LVL42
 2369 0302 0300     		.2byte	0x3
 2370 0304 08       		.byte	0x8
 2371 0305 20       		.byte	0x20
 2372 0306 9F       		.byte	0x9f
 2373 0307 62020000 		.4byte	.LVL42
 2374 030b 70020000 		.4byte	.LVL45
 2375 030f 0100     		.2byte	0x1
 2376 0311 56       		.byte	0x56
 2377 0312 D4020000 		.4byte	.LVL55
 2378 0316 A0030000 		.4byte	.LVL70
 2379 031a 0100     		.2byte	0x1
 2380 031c 56       		.byte	0x56
 2381 031d A0030000 		.4byte	.LVL70
 2382 0321 C0030000 		.4byte	.LVL71
 2383 0325 0100     		.2byte	0x1
 2384 0327 5B       		.byte	0x5b
 2385 0328 C0030000 		.4byte	.LVL71
 2386 032c E6050000 		.4byte	.LVL111
 2387 0330 0100     		.2byte	0x1
 2388 0332 56       		.byte	0x56
 2389 0333 E6050000 		.4byte	.LVL111
 2390 0337 E8050000 		.4byte	.LVL112
 2391 033b 0300     		.2byte	0x3
ARM GAS  /tmp/ccYKrizH.s 			page 43


 2392 033d 08       		.byte	0x8
 2393 033e 20       		.byte	0x20
 2394 033f 9F       		.byte	0x9f
 2395 0340 E8050000 		.4byte	.LVL112
 2396 0344 EC050000 		.4byte	.LVL113
 2397 0348 0300     		.2byte	0x3
 2398 034a 08       		.byte	0x8
 2399 034b 30       		.byte	0x30
 2400 034c 9F       		.byte	0x9f
 2401 034d FA050000 		.4byte	.LVL115
 2402 0351 18060000 		.4byte	.LVL122
 2403 0355 0100     		.2byte	0x1
 2404 0357 56       		.byte	0x56
 2405 0358 30060000 		.4byte	.LVL125
 2406 035c 36060000 		.4byte	.LVL127
 2407 0360 0300     		.2byte	0x3
 2408 0362 08       		.byte	0x8
 2409 0363 20       		.byte	0x20
 2410 0364 9F       		.byte	0x9f
 2411 0365 36060000 		.4byte	.LVL127
 2412 0369 44060000 		.4byte	.LFE9
 2413 036d 0100     		.2byte	0x1
 2414 036f 56       		.byte	0x56
 2415 0370 00000000 		.4byte	0
 2416 0374 00000000 		.4byte	0
 2417              	.LLST7:
 2418 0378 A8010000 		.4byte	.LVL28
 2419 037c B0010000 		.4byte	.LVL30
 2420 0380 0100     		.2byte	0x1
 2421 0382 5A       		.byte	0x5a
 2422 0383 B0010000 		.4byte	.LVL30
 2423 0387 BC010000 		.4byte	.LVL31
 2424 038b 0300     		.2byte	0x3
 2425 038d 7A       		.byte	0x7a
 2426 038e 7F       		.sleb128 -1
 2427 038f 9F       		.byte	0x9f
 2428 0390 62020000 		.4byte	.LVL42
 2429 0394 90020000 		.4byte	.LVL47
 2430 0398 0100     		.2byte	0x1
 2431 039a 5A       		.byte	0x5a
 2432 039b 18060000 		.4byte	.LVL122
 2433 039f 30060000 		.4byte	.LVL125
 2434 03a3 0100     		.2byte	0x1
 2435 03a5 5A       		.byte	0x5a
 2436 03a6 00000000 		.4byte	0
 2437 03aa 00000000 		.4byte	0
 2438              	.LLST8:
 2439 03ae 8E000000 		.4byte	.LVL17
 2440 03b2 94000000 		.4byte	.LVL18
 2441 03b6 0200     		.2byte	0x2
 2442 03b8 30       		.byte	0x30
 2443 03b9 9F       		.byte	0x9f
 2444 03ba 94000000 		.4byte	.LVL18
 2445 03be 50010000 		.4byte	.LVL25
 2446 03c2 0100     		.2byte	0x1
 2447 03c4 57       		.byte	0x57
 2448 03c5 4C020000 		.4byte	.LVL39
ARM GAS  /tmp/ccYKrizH.s 			page 44


 2449 03c9 62020000 		.4byte	.LVL42
 2450 03cd 0100     		.2byte	0x1
 2451 03cf 57       		.byte	0x57
 2452 03d0 D4020000 		.4byte	.LVL55
 2453 03d4 EE020000 		.4byte	.LVL59
 2454 03d8 0100     		.2byte	0x1
 2455 03da 57       		.byte	0x57
 2456 03db 1C040000 		.4byte	.LVL74
 2457 03df 44040000 		.4byte	.LVL80
 2458 03e3 0100     		.2byte	0x1
 2459 03e5 57       		.byte	0x57
 2460 03e6 9C050000 		.4byte	.LVL98
 2461 03ea B8050000 		.4byte	.LVL103
 2462 03ee 0100     		.2byte	0x1
 2463 03f0 57       		.byte	0x57
 2464 03f1 B8050000 		.4byte	.LVL103
 2465 03f5 BC050000 		.4byte	.LVL104
 2466 03f9 0200     		.2byte	0x2
 2467 03fb 30       		.byte	0x30
 2468 03fc 9F       		.byte	0x9f
 2469 03fd BC050000 		.4byte	.LVL104
 2470 0401 DC050000 		.4byte	.LVL108
 2471 0405 0100     		.2byte	0x1
 2472 0407 57       		.byte	0x57
 2473 0408 DC050000 		.4byte	.LVL108
 2474 040c E0050000 		.4byte	.LVL109
 2475 0410 0500     		.2byte	0x5
 2476 0412 78       		.byte	0x78
 2477 0413 00       		.sleb128 0
 2478 0414 31       		.byte	0x31
 2479 0415 24       		.byte	0x24
 2480 0416 9F       		.byte	0x9f
 2481 0417 E0050000 		.4byte	.LVL109
 2482 041b E6050000 		.4byte	.LVL111
 2483 041f 0100     		.2byte	0x1
 2484 0421 57       		.byte	0x57
 2485 0422 FA050000 		.4byte	.LVL115
 2486 0426 02060000 		.4byte	.LVL117
 2487 042a 0100     		.2byte	0x1
 2488 042c 57       		.byte	0x57
 2489 042d 00000000 		.4byte	0
 2490 0431 00000000 		.4byte	0
 2491              	.LLST9:
 2492 0435 64000000 		.4byte	.LVL9
 2493 0439 68000000 		.4byte	.LVL10
 2494 043d 0200     		.2byte	0x2
 2495 043f 30       		.byte	0x30
 2496 0440 9F       		.byte	0x9f
 2497 0441 68000000 		.4byte	.LVL10
 2498 0445 A8010000 		.4byte	.LVL28
 2499 0449 0100     		.2byte	0x1
 2500 044b 53       		.byte	0x53
 2501 044c A8010000 		.4byte	.LVL28
 2502 0450 AC010000 		.4byte	.LVL29
 2503 0454 0100     		.2byte	0x1
 2504 0456 5C       		.byte	0x5c
 2505 0457 AC010000 		.4byte	.LVL29
ARM GAS  /tmp/ccYKrizH.s 			page 45


 2506 045b D2010000 		.4byte	.LVL33
 2507 045f 0100     		.2byte	0x1
 2508 0461 59       		.byte	0x59
 2509 0462 04020000 		.4byte	.LVL35
 2510 0466 1E020000 		.4byte	.LVL36
 2511 046a 0100     		.2byte	0x1
 2512 046c 59       		.byte	0x59
 2513 046d 1E020000 		.4byte	.LVL36
 2514 0471 1F020000 		.4byte	.LVL37-1
 2515 0475 0300     		.2byte	0x3
 2516 0477 7E       		.byte	0x7e
 2517 0478 01       		.sleb128 1
 2518 0479 9F       		.byte	0x9f
 2519 047a 1F020000 		.4byte	.LVL37-1
 2520 047e 30020000 		.4byte	.LVL38
 2521 0482 0300     		.2byte	0x3
 2522 0484 77       		.byte	0x77
 2523 0485 01       		.sleb128 1
 2524 0486 9F       		.byte	0x9f
 2525 0487 4C020000 		.4byte	.LVL39
 2526 048b 68020000 		.4byte	.LVL43
 2527 048f 0100     		.2byte	0x1
 2528 0491 53       		.byte	0x53
 2529 0492 68020000 		.4byte	.LVL43
 2530 0496 6C020000 		.4byte	.LVL44
 2531 049a 0100     		.2byte	0x1
 2532 049c 5C       		.byte	0x5c
 2533 049d 6C020000 		.4byte	.LVL44
 2534 04a1 96020000 		.4byte	.LVL48
 2535 04a5 0100     		.2byte	0x1
 2536 04a7 59       		.byte	0x59
 2537 04a8 96020000 		.4byte	.LVL48
 2538 04ac 9A020000 		.4byte	.LVL49
 2539 04b0 0300     		.2byte	0x3
 2540 04b2 79       		.byte	0x79
 2541 04b3 01       		.sleb128 1
 2542 04b4 9F       		.byte	0x9f
 2543 04b5 9A020000 		.4byte	.LVL49
 2544 04b9 A8020000 		.4byte	.LVL50
 2545 04bd 0100     		.2byte	0x1
 2546 04bf 59       		.byte	0x59
 2547 04c0 A8020000 		.4byte	.LVL50
 2548 04c4 AC020000 		.4byte	.LVL51
 2549 04c8 0300     		.2byte	0x3
 2550 04ca 79       		.byte	0x79
 2551 04cb 01       		.sleb128 1
 2552 04cc 9F       		.byte	0x9f
 2553 04cd AC020000 		.4byte	.LVL51
 2554 04d1 BE020000 		.4byte	.LVL52
 2555 04d5 0100     		.2byte	0x1
 2556 04d7 59       		.byte	0x59
 2557 04d8 BE020000 		.4byte	.LVL52
 2558 04dc C6020000 		.4byte	.LVL53
 2559 04e0 0300     		.2byte	0x3
 2560 04e2 79       		.byte	0x79
 2561 04e3 7F       		.sleb128 -1
 2562 04e4 9F       		.byte	0x9f
ARM GAS  /tmp/ccYKrizH.s 			page 46


 2563 04e5 C6020000 		.4byte	.LVL53
 2564 04e9 CA020000 		.4byte	.LVL54
 2565 04ed 0300     		.2byte	0x3
 2566 04ef 79       		.byte	0x79
 2567 04f0 01       		.sleb128 1
 2568 04f1 9F       		.byte	0x9f
 2569 04f2 CA020000 		.4byte	.LVL54
 2570 04f6 D4020000 		.4byte	.LVL55
 2571 04fa 0100     		.2byte	0x1
 2572 04fc 59       		.byte	0x59
 2573 04fd D4020000 		.4byte	.LVL55
 2574 0501 A0030000 		.4byte	.LVL70
 2575 0505 0100     		.2byte	0x1
 2576 0507 53       		.byte	0x53
 2577 0508 A0030000 		.4byte	.LVL70
 2578 050c C0030000 		.4byte	.LVL71
 2579 0510 0100     		.2byte	0x1
 2580 0512 58       		.byte	0x58
 2581 0513 C0030000 		.4byte	.LVL71
 2582 0517 0A050000 		.4byte	.LVL92
 2583 051b 0100     		.2byte	0x1
 2584 051d 53       		.byte	0x53
 2585 051e 0A050000 		.4byte	.LVL92
 2586 0522 30050000 		.4byte	.LVL93
 2587 0526 0100     		.2byte	0x1
 2588 0528 5A       		.byte	0x5a
 2589 0529 30050000 		.4byte	.LVL93
 2590 052d E6050000 		.4byte	.LVL111
 2591 0531 0100     		.2byte	0x1
 2592 0533 53       		.byte	0x53
 2593 0534 FA050000 		.4byte	.LVL115
 2594 0538 18060000 		.4byte	.LVL122
 2595 053c 0100     		.2byte	0x1
 2596 053e 53       		.byte	0x53
 2597 053f 18060000 		.4byte	.LVL122
 2598 0543 30060000 		.4byte	.LVL125
 2599 0547 0100     		.2byte	0x1
 2600 0549 59       		.byte	0x59
 2601 054a 30060000 		.4byte	.LVL125
 2602 054e 44060000 		.4byte	.LFE9
 2603 0552 0100     		.2byte	0x1
 2604 0554 53       		.byte	0x53
 2605 0555 00000000 		.4byte	0
 2606 0559 00000000 		.4byte	0
 2607              	.LLST10:
 2608 055d B6000000 		.4byte	.LVL19
 2609 0561 3E010000 		.4byte	.LVL23
 2610 0565 0100     		.2byte	0x1
 2611 0567 5C       		.byte	0x5c
 2612 0568 4C020000 		.4byte	.LVL39
 2613 056c 62020000 		.4byte	.LVL42
 2614 0570 0100     		.2byte	0x1
 2615 0572 5C       		.byte	0x5c
 2616 0573 D4020000 		.4byte	.LVL55
 2617 0577 EE020000 		.4byte	.LVL59
 2618 057b 0100     		.2byte	0x1
 2619 057d 5C       		.byte	0x5c
ARM GAS  /tmp/ccYKrizH.s 			page 47


 2620 057e 1C040000 		.4byte	.LVL74
 2621 0582 5C040000 		.4byte	.LVL84
 2622 0586 0100     		.2byte	0x1
 2623 0588 5C       		.byte	0x5c
 2624 0589 9C050000 		.4byte	.LVL98
 2625 058d AA050000 		.4byte	.LVL100
 2626 0591 0100     		.2byte	0x1
 2627 0593 5C       		.byte	0x5c
 2628 0594 AA050000 		.4byte	.LVL100
 2629 0598 B8050000 		.4byte	.LVL103
 2630 059c 0200     		.2byte	0x2
 2631 059e 31       		.byte	0x31
 2632 059f 9F       		.byte	0x9f
 2633 05a0 FA050000 		.4byte	.LVL115
 2634 05a4 00060000 		.4byte	.LVL116
 2635 05a8 0200     		.2byte	0x2
 2636 05aa 31       		.byte	0x31
 2637 05ab 9F       		.byte	0x9f
 2638 05ac 00060000 		.4byte	.LVL116
 2639 05b0 18060000 		.4byte	.LVL122
 2640 05b4 0100     		.2byte	0x1
 2641 05b6 5C       		.byte	0x5c
 2642 05b7 00000000 		.4byte	0
 2643 05bb 00000000 		.4byte	0
 2644              	.LLST11:
 2645 05bf 50000000 		.4byte	.LVL7
 2646 05c3 5C000000 		.4byte	.LVL8
 2647 05c7 0200     		.2byte	0x2
 2648 05c9 30       		.byte	0x30
 2649 05ca 9F       		.byte	0x9f
 2650 05cb 5C000000 		.4byte	.LVL8
 2651 05cf EC050000 		.4byte	.LVL113
 2652 05d3 0300     		.2byte	0x3
 2653 05d5 91       		.byte	0x91
 2654 05d6 987F     		.sleb128 -104
 2655 05d8 EC050000 		.4byte	.LVL113
 2656 05dc F2050000 		.4byte	.LVL114
 2657 05e0 0200     		.2byte	0x2
 2658 05e2 30       		.byte	0x30
 2659 05e3 9F       		.byte	0x9f
 2660 05e4 F2050000 		.4byte	.LVL114
 2661 05e8 FA050000 		.4byte	.LVL115
 2662 05ec 0200     		.2byte	0x2
 2663 05ee 31       		.byte	0x31
 2664 05ef 9F       		.byte	0x9f
 2665 05f0 FA050000 		.4byte	.LVL115
 2666 05f4 44060000 		.4byte	.LFE9
 2667 05f8 0300     		.2byte	0x3
 2668 05fa 91       		.byte	0x91
 2669 05fb 987F     		.sleb128 -104
 2670 05fd 00000000 		.4byte	0
 2671 0601 00000000 		.4byte	0
 2672              	.LLST12:
 2673 0605 E6020000 		.4byte	.LVL57
 2674 0609 E8020000 		.4byte	.LVL58
 2675 060d 0200     		.2byte	0x2
 2676 060f 72       		.byte	0x72
ARM GAS  /tmp/ccYKrizH.s 			page 48


 2677 0610 00       		.sleb128 0
 2678 0611 E8020000 		.4byte	.LVL58
 2679 0615 EE020000 		.4byte	.LVL59
 2680 0619 0100     		.2byte	0x1
 2681 061b 59       		.byte	0x59
 2682 061c 2E040000 		.4byte	.LVL77
 2683 0620 32040000 		.4byte	.LVL78
 2684 0624 0200     		.2byte	0x2
 2685 0626 72       		.byte	0x72
 2686 0627 00       		.sleb128 0
 2687 0628 44040000 		.4byte	.LVL80
 2688 062c 4C040000 		.4byte	.LVL81
 2689 0630 0400     		.2byte	0x4
 2690 0632 91       		.byte	0x91
 2691 0633 B47F     		.sleb128 -76
 2692 0635 06       		.byte	0x6
 2693 0636 4C040000 		.4byte	.LVL81
 2694 063a 5C040000 		.4byte	.LVL84
 2695 063e 0100     		.2byte	0x1
 2696 0640 57       		.byte	0x57
 2697 0641 02060000 		.4byte	.LVL117
 2698 0645 0A060000 		.4byte	.LVL118
 2699 0649 0200     		.2byte	0x2
 2700 064b 72       		.byte	0x72
 2701 064c 00       		.sleb128 0
 2702 064d 0A060000 		.4byte	.LVL118
 2703 0651 18060000 		.4byte	.LVL122
 2704 0655 0100     		.2byte	0x1
 2705 0657 57       		.byte	0x57
 2706 0658 00000000 		.4byte	0
 2707 065c 00000000 		.4byte	0
 2708              	.LLST13:
 2709 0660 50040000 		.4byte	.LVL82
 2710 0664 9C050000 		.4byte	.LVL98
 2711 0668 0200     		.2byte	0x2
 2712 066a 3A       		.byte	0x3a
 2713 066b 9F       		.byte	0x9f
 2714 066c 3C060000 		.4byte	.LVL128
 2715 0670 44060000 		.4byte	.LFE9
 2716 0674 0200     		.2byte	0x2
 2717 0676 3A       		.byte	0x3a
 2718 0677 9F       		.byte	0x9f
 2719 0678 00000000 		.4byte	0
 2720 067c 00000000 		.4byte	0
 2721              	.LLST14:
 2722 0680 50040000 		.4byte	.LVL82
 2723 0684 5C040000 		.4byte	.LVL84
 2724 0688 0100     		.2byte	0x1
 2725 068a 57       		.byte	0x57
 2726 068b 00000000 		.4byte	0
 2727 068f 00000000 		.4byte	0
 2728              	.LLST15:
 2729 0693 50040000 		.4byte	.LVL82
 2730 0697 0A050000 		.4byte	.LVL92
 2731 069b 0100     		.2byte	0x1
 2732 069d 5A       		.byte	0x5a
 2733 069e 0A050000 		.4byte	.LVL92
ARM GAS  /tmp/ccYKrizH.s 			page 49


 2734 06a2 30050000 		.4byte	.LVL93
 2735 06a6 0100     		.2byte	0x1
 2736 06a8 5B       		.byte	0x5b
 2737 06a9 30050000 		.4byte	.LVL93
 2738 06ad 96050000 		.4byte	.LVL97
 2739 06b1 0100     		.2byte	0x1
 2740 06b3 5A       		.byte	0x5a
 2741 06b4 3C060000 		.4byte	.LVL128
 2742 06b8 44060000 		.4byte	.LFE9
 2743 06bc 0100     		.2byte	0x1
 2744 06be 5A       		.byte	0x5a
 2745 06bf 00000000 		.4byte	0
 2746 06c3 00000000 		.4byte	0
 2747              	.LLST16:
 2748 06c7 E8020000 		.4byte	.LVL58
 2749 06cb 1C040000 		.4byte	.LVL74
 2750 06cf 0200     		.2byte	0x2
 2751 06d1 30       		.byte	0x30
 2752 06d2 9F       		.byte	0x9f
 2753 06d3 50040000 		.4byte	.LVL82
 2754 06d7 9C050000 		.4byte	.LVL98
 2755 06db 0200     		.2byte	0x2
 2756 06dd 30       		.byte	0x30
 2757 06de 9F       		.byte	0x9f
 2758 06df 36060000 		.4byte	.LVL127
 2759 06e3 44060000 		.4byte	.LFE9
 2760 06e7 0200     		.2byte	0x2
 2761 06e9 30       		.byte	0x30
 2762 06ea 9F       		.byte	0x9f
 2763 06eb 00000000 		.4byte	0
 2764 06ef 00000000 		.4byte	0
 2765              	.LLST17:
 2766 06f3 E8020000 		.4byte	.LVL58
 2767 06f7 1E030000 		.4byte	.LVL65
 2768 06fb 0100     		.2byte	0x1
 2769 06fd 50       		.byte	0x50
 2770 06fe 50040000 		.4byte	.LVL82
 2771 0702 9C050000 		.4byte	.LVL98
 2772 0706 0200     		.2byte	0x2
 2773 0708 3A       		.byte	0x3a
 2774 0709 9F       		.byte	0x9f
 2775 070a 3C060000 		.4byte	.LVL128
 2776 070e 44060000 		.4byte	.LFE9
 2777 0712 0200     		.2byte	0x2
 2778 0714 3A       		.byte	0x3a
 2779 0715 9F       		.byte	0x9f
 2780 0716 00000000 		.4byte	0
 2781 071a 00000000 		.4byte	0
 2782              	.LLST18:
 2783 071e E8020000 		.4byte	.LVL58
 2784 0722 EE020000 		.4byte	.LVL59
 2785 0726 0100     		.2byte	0x1
 2786 0728 59       		.byte	0x59
 2787 0729 50040000 		.4byte	.LVL82
 2788 072d 5C040000 		.4byte	.LVL84
 2789 0731 0100     		.2byte	0x1
 2790 0733 57       		.byte	0x57
ARM GAS  /tmp/ccYKrizH.s 			page 50


 2791 0734 00000000 		.4byte	0
 2792 0738 00000000 		.4byte	0
 2793              	.LLST19:
 2794 073c E8020000 		.4byte	.LVL58
 2795 0740 80030000 		.4byte	.LVL69
 2796 0744 0300     		.2byte	0x3
 2797 0746 91       		.byte	0x91
 2798 0747 907F     		.sleb128 -112
 2799 0749 EA030000 		.4byte	.LVL72
 2800 074d EE030000 		.4byte	.LVL73
 2801 0751 0300     		.2byte	0x3
 2802 0753 71       		.byte	0x71
 2803 0754 7F       		.sleb128 -1
 2804 0755 9F       		.byte	0x9f
 2805 0756 50040000 		.4byte	.LVL82
 2806 075a EA040000 		.4byte	.LVL91
 2807 075e 0100     		.2byte	0x1
 2808 0760 5A       		.byte	0x5a
 2809 0761 5C050000 		.4byte	.LVL94
 2810 0765 60050000 		.4byte	.LVL95
 2811 0769 0300     		.2byte	0x3
 2812 076b 72       		.byte	0x72
 2813 076c 7F       		.sleb128 -1
 2814 076d 9F       		.byte	0x9f
 2815 076e 36060000 		.4byte	.LVL127
 2816 0772 3C060000 		.4byte	.LVL128
 2817 0776 0300     		.2byte	0x3
 2818 0778 91       		.byte	0x91
 2819 0779 907F     		.sleb128 -112
 2820 077b 3C060000 		.4byte	.LVL128
 2821 077f 44060000 		.4byte	.LFE9
 2822 0783 0100     		.2byte	0x1
 2823 0785 5A       		.byte	0x5a
 2824 0786 00000000 		.4byte	0
 2825 078a 00000000 		.4byte	0
 2826              	.LLST20:
 2827 078e 6E040000 		.4byte	.LVL86
 2828 0792 8E040000 		.4byte	.LVL88
 2829 0796 0300     		.2byte	0x3
 2830 0798 70       		.byte	0x70
 2831 0799 30       		.sleb128 48
 2832 079a 9F       		.byte	0x9f
 2833 079b 8E040000 		.4byte	.LVL88
 2834 079f B4040000 		.4byte	.LVL90
 2835 07a3 0100     		.2byte	0x1
 2836 07a5 58       		.byte	0x58
 2837 07a6 B4040000 		.4byte	.LVL90
 2838 07aa EA040000 		.4byte	.LVL91
 2839 07ae 0300     		.2byte	0x3
 2840 07b0 91       		.byte	0x91
 2841 07b1 947F     		.sleb128 -108
 2842 07b3 3C060000 		.4byte	.LVL128
 2843 07b7 44060000 		.4byte	.LFE9
 2844 07bb 0300     		.2byte	0x3
 2845 07bd 91       		.byte	0x91
 2846 07be 947F     		.sleb128 -108
 2847 07c0 00000000 		.4byte	0
ARM GAS  /tmp/ccYKrizH.s 			page 51


 2848 07c4 00000000 		.4byte	0
 2849              	.LLST21:
 2850 07c8 54040000 		.4byte	.LVL83
 2851 07cc 5C040000 		.4byte	.LVL84
 2852 07d0 0100     		.2byte	0x1
 2853 07d2 58       		.byte	0x58
 2854 07d3 00000000 		.4byte	0
 2855 07d7 00000000 		.4byte	0
 2856              	.LLST22:
 2857 07db E8020000 		.4byte	.LVL58
 2858 07df EE020000 		.4byte	.LVL59
 2859 07e3 0100     		.2byte	0x1
 2860 07e5 59       		.byte	0x59
 2861 07e6 12030000 		.4byte	.LVL63
 2862 07ea 64030000 		.4byte	.LVL68
 2863 07ee 0100     		.2byte	0x1
 2864 07f0 57       		.byte	0x57
 2865 07f1 50040000 		.4byte	.LVL82
 2866 07f5 6E040000 		.4byte	.LVL86
 2867 07f9 0100     		.2byte	0x1
 2868 07fb 57       		.byte	0x57
 2869 07fc 7C040000 		.4byte	.LVL87
 2870 0800 A2040000 		.4byte	.LVL89
 2871 0804 0100     		.2byte	0x1
 2872 0806 50       		.byte	0x50
 2873 0807 00000000 		.4byte	0
 2874 080b 00000000 		.4byte	0
 2875              	.LLST23:
 2876 080f E8020000 		.4byte	.LVL58
 2877 0813 EE020000 		.4byte	.LVL59
 2878 0817 0100     		.2byte	0x1
 2879 0819 59       		.byte	0x59
 2880 081a 12030000 		.4byte	.LVL63
 2881 081e 2A030000 		.4byte	.LVL67
 2882 0822 0100     		.2byte	0x1
 2883 0824 51       		.byte	0x51
 2884 0825 50040000 		.4byte	.LVL82
 2885 0829 5C040000 		.4byte	.LVL84
 2886 082d 0100     		.2byte	0x1
 2887 082f 57       		.byte	0x57
 2888 0830 5C040000 		.4byte	.LVL84
 2889 0834 64040000 		.4byte	.LVL85
 2890 0838 0100     		.2byte	0x1
 2891 083a 5C       		.byte	0x5c
 2892 083b 00000000 		.4byte	0
 2893 083f 00000000 		.4byte	0
 2894              	.LLST24:
 2895 0843 E8020000 		.4byte	.LVL58
 2896 0847 1E030000 		.4byte	.LVL65
 2897 084b 0100     		.2byte	0x1
 2898 084d 50       		.byte	0x50
 2899 084e 00000000 		.4byte	0
 2900 0852 00000000 		.4byte	0
 2901              	.LLST25:
 2902 0856 E8020000 		.4byte	.LVL58
 2903 085a EE020000 		.4byte	.LVL59
 2904 085e 0100     		.2byte	0x1
ARM GAS  /tmp/ccYKrizH.s 			page 52


 2905 0860 59       		.byte	0x59
 2906 0861 00000000 		.4byte	0
 2907 0865 00000000 		.4byte	0
 2908              	.LLST26:
 2909 0869 E8020000 		.4byte	.LVL58
 2910 086d 1C040000 		.4byte	.LVL74
 2911 0871 0300     		.2byte	0x3
 2912 0873 91       		.byte	0x91
 2913 0874 907F     		.sleb128 -112
 2914 0876 36060000 		.4byte	.LVL127
 2915 087a 3C060000 		.4byte	.LVL128
 2916 087e 0300     		.2byte	0x3
 2917 0880 91       		.byte	0x91
 2918 0881 907F     		.sleb128 -112
 2919 0883 00000000 		.4byte	0
 2920 0887 00000000 		.4byte	0
 2921              	.LLST31:
 2922 088b FE020000 		.4byte	.LVL60
 2923 088f 06030000 		.4byte	.LVL61
 2924 0893 1800     		.2byte	0x18
 2925 0895 79       		.byte	0x79
 2926 0896 00       		.sleb128 0
 2927 0897 7C       		.byte	0x7c
 2928 0898 00       		.sleb128 0
 2929 0899 7C       		.byte	0x7c
 2930 089a 00       		.sleb128 0
 2931 089b 23       		.byte	0x23
 2932 089c 80808080 		.uleb128 0x80000000
 2932      08
 2933 08a1 0C       		.byte	0xc
 2934 08a2 39000080 		.4byte	0x80000039
 2935 08a6 2B       		.byte	0x2b
 2936 08a7 28       		.byte	0x28
 2937 08a8 0100     		.2byte	0x1
 2938 08aa 16       		.byte	0x16
 2939 08ab 13       		.byte	0x13
 2940 08ac 9F       		.byte	0x9f
 2941 08ad 22030000 		.4byte	.LVL66
 2942 08b1 80030000 		.4byte	.LVL69
 2943 08b5 0100     		.2byte	0x1
 2944 08b7 5A       		.byte	0x5a
 2945 08b8 36060000 		.4byte	.LVL127
 2946 08bc 3C060000 		.4byte	.LVL128
 2947 08c0 0100     		.2byte	0x1
 2948 08c2 5A       		.byte	0x5a
 2949 08c3 00000000 		.4byte	0
 2950 08c7 00000000 		.4byte	0
 2951              	.LLST32:
 2952 08cb E8020000 		.4byte	.LVL58
 2953 08cf EE020000 		.4byte	.LVL59
 2954 08d3 0400     		.2byte	0x4
 2955 08d5 91       		.byte	0x91
 2956 08d6 B37F     		.sleb128 -77
 2957 08d8 9F       		.byte	0x9f
 2958 08d9 0C030000 		.4byte	.LVL62
 2959 08dd 16030000 		.4byte	.LVL64
 2960 08e1 0100     		.2byte	0x1
ARM GAS  /tmp/ccYKrizH.s 			page 53


 2961 08e3 58       		.byte	0x58
 2962 08e4 16030000 		.4byte	.LVL64
 2963 08e8 80030000 		.4byte	.LVL69
 2964 08ec 0100     		.2byte	0x1
 2965 08ee 52       		.byte	0x52
 2966 08ef 36060000 		.4byte	.LVL127
 2967 08f3 3C060000 		.4byte	.LVL128
 2968 08f7 0100     		.2byte	0x1
 2969 08f9 52       		.byte	0x52
 2970 08fa 00000000 		.4byte	0
 2971 08fe 00000000 		.4byte	0
 2972              		.section	.debug_aranges,"",%progbits
 2973 0000 1C000000 		.4byte	0x1c
 2974 0004 0200     		.2byte	0x2
 2975 0006 00000000 		.4byte	.Ldebug_info0
 2976 000a 04       		.byte	0x4
 2977 000b 00       		.byte	0
 2978 000c 0000     		.2byte	0
 2979 000e 0000     		.2byte	0
 2980 0010 00000000 		.4byte	.LFB9
 2981 0014 44060000 		.4byte	.LFE9-.LFB9
 2982 0018 00000000 		.4byte	0
 2983 001c 00000000 		.4byte	0
 2984              		.section	.debug_ranges,"",%progbits
 2985              	.Ldebug_ranges0:
 2986 0000 14000000 		.4byte	.LBB12
 2987 0004 18000000 		.4byte	.LBE12
 2988 0008 1A000000 		.4byte	.LBB29
 2989 000c 1E000000 		.4byte	.LBE29
 2990 0010 28000000 		.4byte	.LBB30
 2991 0014 2C000000 		.4byte	.LBE30
 2992 0018 50040000 		.4byte	.LBB36
 2993 001c 54040000 		.4byte	.LBE36
 2994 0020 58040000 		.4byte	.LBB37
 2995 0024 5A040000 		.4byte	.LBE37
 2996 0028 5C040000 		.4byte	.LBB38
 2997 002c 8A050000 		.4byte	.LBE38
 2998 0030 8E050000 		.4byte	.LBB39
 2999 0034 9A050000 		.4byte	.LBE39
 3000 0038 3C060000 		.4byte	.LBB41
 3001 003c 44060000 		.4byte	.LBE41
 3002 0040 00000000 		.4byte	0
 3003 0044 00000000 		.4byte	0
 3004 0048 14000000 		.4byte	.LBB13
 3005 004c 18000000 		.4byte	.LBE13
 3006 0050 1A000000 		.4byte	.LBB22
 3007 0054 1E000000 		.4byte	.LBE22
 3008 0058 28000000 		.4byte	.LBB23
 3009 005c 2C000000 		.4byte	.LBE23
 3010 0060 50040000 		.4byte	.LBB24
 3011 0064 54040000 		.4byte	.LBE24
 3012 0068 58040000 		.4byte	.LBB25
 3013 006c 5A040000 		.4byte	.LBE25
 3014 0070 5C040000 		.4byte	.LBB26
 3015 0074 8A050000 		.4byte	.LBE26
 3016 0078 8E050000 		.4byte	.LBB27
 3017 007c 9A050000 		.4byte	.LBE27
ARM GAS  /tmp/ccYKrizH.s 			page 54


 3018 0080 3C060000 		.4byte	.LBB28
 3019 0084 44060000 		.4byte	.LBE28
 3020 0088 00000000 		.4byte	0
 3021 008c 00000000 		.4byte	0
 3022 0090 14000000 		.4byte	.LBB14
 3023 0094 18000000 		.4byte	.LBE14
 3024 0098 1A000000 		.4byte	.LBB15
 3025 009c 1E000000 		.4byte	.LBE15
 3026 00a0 28000000 		.4byte	.LBB16
 3027 00a4 2C000000 		.4byte	.LBE16
 3028 00a8 50040000 		.4byte	.LBB17
 3029 00ac 54040000 		.4byte	.LBE17
 3030 00b0 58040000 		.4byte	.LBB18
 3031 00b4 5A040000 		.4byte	.LBE18
 3032 00b8 5C040000 		.4byte	.LBB19
 3033 00bc 8A050000 		.4byte	.LBE19
 3034 00c0 8E050000 		.4byte	.LBB20
 3035 00c4 9A050000 		.4byte	.LBE20
 3036 00c8 3C060000 		.4byte	.LBB21
 3037 00cc 44060000 		.4byte	.LBE21
 3038 00d0 00000000 		.4byte	0
 3039 00d4 00000000 		.4byte	0
 3040 00d8 EE020000 		.4byte	.LBB31
 3041 00dc 16040000 		.4byte	.LBE31
 3042 00e0 36060000 		.4byte	.LBB40
 3043 00e4 3C060000 		.4byte	.LBE40
 3044 00e8 00000000 		.4byte	0
 3045 00ec 00000000 		.4byte	0
 3046 00f0 EE020000 		.4byte	.LBB32
 3047 00f4 16040000 		.4byte	.LBE32
 3048 00f8 36060000 		.4byte	.LBB35
 3049 00fc 3C060000 		.4byte	.LBE35
 3050 0100 00000000 		.4byte	0
 3051 0104 00000000 		.4byte	0
 3052 0108 EE020000 		.4byte	.LBB33
 3053 010c 16040000 		.4byte	.LBE33
 3054 0110 36060000 		.4byte	.LBB34
 3055 0114 3C060000 		.4byte	.LBE34
 3056 0118 00000000 		.4byte	0
 3057 011c 00000000 		.4byte	0
 3058 0120 00000000 		.4byte	.LFB9
 3059 0124 44060000 		.4byte	.LFE9
 3060 0128 00000000 		.4byte	0
 3061 012c 00000000 		.4byte	0
 3062              		.section	.debug_line,"",%progbits
 3063              	.Ldebug_line0:
 3064 0000 86030000 		.section	.debug_str,"MS",%progbits,1
 3064      0200B801 
 3064      00000201 
 3064      FB0E0D00 
 3064      01010101 
 3065              	.LASF2:
 3066 0000 73697A65 		.ascii	"size_t\000"
 3066      5F7400
 3067              	.LASF36:
 3068 0007 5F5F6170 		.ascii	"__ap\000"
 3068      00
ARM GAS  /tmp/ccYKrizH.s 			page 55


 3069              	.LASF30:
 3070 000c 69735F6C 		.ascii	"is_long\000"
 3070      6F6E6700 
 3071              	.LASF23:
 3072 0014 72616469 		.ascii	"radix\000"
 3072      7800
 3073              	.LASF14:
 3074 001a 626F6F6C 		.ascii	"bool_t\000"
 3074      5F7400
 3075              	.LASF25:
 3076 0021 6C6F6E67 		.ascii	"long_to_string_with_divisor\000"
 3076      5F746F5F 
 3076      73747269 
 3076      6E675F77 
 3076      6974685F 
 3077              	.LASF5:
 3078 003d 75696E74 		.ascii	"uint8_t\000"
 3078      385F7400 
 3079              	.LASF1:
 3080 0045 76615F6C 		.ascii	"va_list\000"
 3080      69737400 
 3081              	.LASF22:
 3082 004d 42617365 		.ascii	"BaseSequentialStream\000"
 3082      53657175 
 3082      656E7469 
 3082      616C5374 
 3082      7265616D 
 3083              	.LASF33:
 3084 0062 474E5520 		.ascii	"GNU C 4.6.2 20120613 (release) [ARM/embedded-4_6-br"
 3084      4320342E 
 3084      362E3220 
 3084      32303132 
 3084      30363133 
 3085 0095 616E6368 		.ascii	"anch revision 188521]\000"
 3085      20726576 
 3085      6973696F 
 3085      6E203138 
 3085      38353231 
 3086              	.LASF11:
 3087 00ab 6C6F6E67 		.ascii	"long unsigned int\000"
 3087      20756E73 
 3087      69676E65 
 3087      6420696E 
 3087      7400
 3088              	.LASF8:
 3089 00bd 73686F72 		.ascii	"short unsigned int\000"
 3089      7420756E 
 3089      7369676E 
 3089      65642069 
 3089      6E7400
 3090              	.LASF20:
 3091 00d0 77726974 		.ascii	"write\000"
 3091      6500
 3092              	.LASF29:
 3093 00d6 77696474 		.ascii	"width\000"
 3093      6800
 3094              	.LASF6:
ARM GAS  /tmp/ccYKrizH.s 			page 56


 3095 00dc 756E7369 		.ascii	"unsigned char\000"
 3095      676E6564 
 3095      20636861 
 3095      7200
 3096              	.LASF37:
 3097 00ea 63687072 		.ascii	"chprintf\000"
 3097      696E7466 
 3097      00
 3098              	.LASF0:
 3099 00f3 5F5F676E 		.ascii	"__gnuc_va_list\000"
 3099      75635F76 
 3099      615F6C69 
 3099      737400
 3100              	.LASF21:
 3101 0102 72656164 		.ascii	"read\000"
 3101      00
 3102              	.LASF27:
 3103 0107 66696C6C 		.ascii	"filler\000"
 3103      657200
 3104              	.LASF3:
 3105 010e 756E7369 		.ascii	"unsigned int\000"
 3105      676E6564 
 3105      20696E74 
 3105      00
 3106              	.LASF13:
 3107 011b 6C6F6E67 		.ascii	"long long unsigned int\000"
 3107      206C6F6E 
 3107      6720756E 
 3107      7369676E 
 3107      65642069 
 3108              	.LASF24:
 3109 0132 64697669 		.ascii	"divisor\000"
 3109      736F7200 
 3110              	.LASF35:
 3111 013a 2F686F6D 		.ascii	"/home/tino/workspace/openrobots/R2P_IR_module/fw\000"
 3111      652F7469 
 3111      6E6F2F77 
 3111      6F726B73 
 3111      70616365 
 3112              	.LASF16:
 3113 016b 6D73675F 		.ascii	"msg_t\000"
 3113      7400
 3114              	.LASF9:
 3115 0171 696E7433 		.ascii	"int32_t\000"
 3115      325F7400 
 3116              	.LASF32:
 3117 0179 746D7062 		.ascii	"tmpbuf\000"
 3117      756600
 3118              	.LASF18:
 3119 0180 5F5F7661 		.ascii	"__va_list\000"
 3119      5F6C6973 
 3119      7400
 3120              	.LASF12:
 3121 018a 6C6F6E67 		.ascii	"long long int\000"
 3121      206C6F6E 
 3121      6720696E 
 3121      7400
ARM GAS  /tmp/ccYKrizH.s 			page 57


 3122              	.LASF28:
 3123 0198 70726563 		.ascii	"precision\000"
 3123      6973696F 
 3123      6E00
 3124              	.LASF17:
 3125 01a2 63686172 		.ascii	"char\000"
 3125      00
 3126              	.LASF31:
 3127 01a7 6C656674 		.ascii	"left_align\000"
 3127      5F616C69 
 3127      676E00
 3128              	.LASF7:
 3129 01b2 73686F72 		.ascii	"short int\000"
 3129      7420696E 
 3129      7400
 3130              	.LASF38:
 3131 01bc 756E7369 		.ascii	"unsigned_common\000"
 3131      676E6564 
 3131      5F636F6D 
 3131      6D6F6E00 
 3132              	.LASF10:
 3133 01cc 6C6F6E67 		.ascii	"long int\000"
 3133      20696E74 
 3133      00
 3134              	.LASF4:
 3135 01d5 7369676E 		.ascii	"signed char\000"
 3135      65642063 
 3135      68617200 
 3136              	.LASF26:
 3137 01e1 6C746F61 		.ascii	"ltoa\000"
 3137      00
 3138              	.LASF15:
 3139 01e6 5F426F6F 		.ascii	"_Bool\000"
 3139      6C00
 3140              	.LASF19:
 3141 01ec 42617365 		.ascii	"BaseSequentialStreamVMT\000"
 3141      53657175 
 3141      656E7469 
 3141      616C5374 
 3141      7265616D 
 3142              	.LASF34:
 3143 0204 2E2E2F2E 		.ascii	"../../ChibiOS/os/various/chprintf.c\000"
 3143      2E2F4368 
 3143      6962694F 
 3143      532F6F73 
 3143      2F766172 
 3144              		.ident	"GCC: (GNU Tools for ARM Embedded Processors) 4.6.2 20120613 (release) [ARM/embedded-4_6-br
ARM GAS  /tmp/ccYKrizH.s 			page 58


DEFINED SYMBOLS
                            *ABS*:00000000 chprintf.c
     /tmp/ccYKrizH.s:19     .text.chprintf:00000000 $t
     /tmp/ccYKrizH.s:25     .text.chprintf:00000000 chprintf
     /tmp/ccYKrizH.s:218    .text.chprintf:000000c6 $d
     /tmp/ccYKrizH.s:274    .text.chprintf:00000130 $t
     /tmp/ccYKrizH.s:537    .text.chprintf:000002d0 $d
     /tmp/ccYKrizH.s:541    .text.chprintf:000002d4 $t
     /tmp/ccYKrizH.s:1112   .rodata.str1.4:00000000 $d
                     .debug_frame:00000010 $d

NO UNDEFINED SYMBOLS
