ARM GAS  /tmp/ccYKrizH.s 			page 1


   1              		.syntax unified
   2              		.cpu cortex-m3
   3              		.fpu softvfp
   4              		.eabi_attribute 20, 1
   5              		.eabi_attribute 21, 1
   6              		.eabi_attribute 23, 3
   7              		.eabi_attribute 24, 1
   8              		.eabi_attribute 25, 1
   9              		.eabi_attribute 26, 1
  10              		.eabi_attribute 30, 2
  11              		.eabi_attribute 34, 1
  12              		.eabi_attribute 18, 4
  13              		.thumb
  14              		.file	"chprintf.c"
  15              		.text
  16              	.Ltext0:
  17              		.cfi_sections	.debug_frame
  18              		.section	.text.chprintf,"ax",%progbits
  19              		.align	2
  20              		.p2align 4,,15
  21              		.global	chprintf
  22              		.thumb
  23              		.thumb_func
  24              		.type	chprintf, %function
  25              	chprintf:
  26              	.LFB9:
  27              		.file 1 "../../ChibiOS/os/various/chprintf.c"
  28              		.loc 1 108 0
  29              		.cfi_startproc
  30              		@ args = 4, pretend = 12, frame = 48
  31              		@ frame_needed = 0, uses_anonymous_args = 1
  32              	.LVL0:
  33 0000 0EB4     		push	{r1, r2, r3}
  34              	.LCFI0:
  35              		.cfi_def_cfa_offset 12
  36              		.cfi_offset 3, -4
  37              		.cfi_offset 2, -8
  38              		.cfi_offset 1, -12
  39 0002 2DE9F04F 		push	{r4, r5, r6, r7, r8, r9, sl, fp, lr}
  40              	.LCFI1:
  41              		.cfi_def_cfa_offset 48
  42              		.cfi_offset 14, -16
  43              		.cfi_offset 11, -20
  44              		.cfi_offset 10, -24
  45              		.cfi_offset 9, -28
  46              		.cfi_offset 8, -32
  47              		.cfi_offset 7, -36
  48              		.cfi_offset 6, -40
  49              		.cfi_offset 5, -44
  50              		.cfi_offset 4, -48
  51 0006 8CB0     		sub	sp, sp, #48
  52              	.LCFI2:
  53              		.cfi_def_cfa_offset 96
  54              		.loc 1 108 0
  55 0008 15AB     		add	r3, sp, #84
  56              		.loc 1 132 0
  57 000a 08A9     		add	r1, sp, #32
ARM GAS  /tmp/ccYKrizH.s 			page 2


  58              		.loc 1 236 0
  59 000c 0DF12107 		add	r7, sp, #33
  60              		.loc 1 108 0
  61 0010 53F8044B 		ldr	r4, [r3], #4
  62              	.LBB12:
  63              	.LBB13:
  64              	.LBB14:
  65              		.loc 1 53 0
  66 0014 4CF6CD4C 		movw	ip, #52429
  67              	.LBE14:
  68              	.LBE13:
  69              	.LBE12:
  70              		.loc 1 236 0
  71 0018 7A1A     		subs	r2, r7, r1
  72              	.LBB29:
  73              	.LBB22:
  74              	.LBB15:
  75              		.loc 1 53 0
  76 001a CCF6CC4C 		movt	ip, 52428
  77              	.LBE15:
  78              	.LBE22:
  79              	.LBE29:
  80              		.loc 1 132 0
  81 001e 0291     		str	r1, [sp, #8]
  82              		.loc 1 236 0
  83 0020 0197     		str	r7, [sp, #4]
  84              		.loc 1 108 0
  85 0022 0546     		mov	r5, r0
  86              		.loc 1 121 0
  87 0024 0B93     		str	r3, [sp, #44]
  88              		.loc 1 236 0
  89 0026 0792     		str	r2, [sp, #28]
  90              	.LBB30:
  91              	.LBB23:
  92              	.LBB16:
  93              		.loc 1 53 0
  94 0028 CDF818C0 		str	ip, [sp, #24]
  95              	.LVL1:
  96              	.L123:
  97              	.LBE16:
  98              	.LBE23:
  99              	.LBE30:
 100              		.loc 1 123 0
 101 002c 2178     		ldrb	r1, [r4, #0]	@ zero_extendqisi2
 102              	.LVL2:
 103              		.loc 1 124 0
 104 002e 51B1     		cbz	r1, .L124
 105              	.LVL3:
 106              	.L151:
 107              		.loc 1 123 0
 108 0030 671C     		adds	r7, r4, #1
 109              		.loc 1 128 0
 110 0032 2529     		cmp	r1, #37
 111 0034 0CD0     		beq	.L4
 112              		.loc 1 129 0
 113 0036 2A68     		ldr	r2, [r5, #0]
 114 0038 2846     		mov	r0, r5
ARM GAS  /tmp/ccYKrizH.s 			page 3


 115 003a 9468     		ldr	r4, [r2, #8]
 116 003c A047     		blx	r4
 117              		.loc 1 123 0
 118 003e 3C46     		mov	r4, r7
 119              	.LVL4:
 120 0040 2178     		ldrb	r1, [r4, #0]	@ zero_extendqisi2
 121              	.LVL5:
 122              		.loc 1 124 0
 123 0042 0029     		cmp	r1, #0
 124 0044 F4D1     		bne	.L151
 125              	.LVL6:
 126              	.L124:
 127              		.loc 1 261 0
 128 0046 0CB0     		add	sp, sp, #48
 129 0048 BDE8F04F 		pop	{r4, r5, r6, r7, r8, r9, sl, fp, lr}
 130 004c 03B0     		add	sp, sp, #12
 131 004e 7047     		bx	lr
 132              	.L4:
 133              	.LVL7:
 134              		.loc 1 135 0
 135 0050 6378     		ldrb	r3, [r4, #1]	@ zero_extendqisi2
 136 0052 2D2B     		cmp	r3, #45
 137 0054 00F0CA82 		beq	.L152
 138              		.loc 1 134 0
 139 0058 0020     		movs	r0, #0
 140 005a 0490     		str	r0, [sp, #16]
 141              	.LVL8:
 142              	.L6:
 143              		.loc 1 140 0
 144 005c 2E2B     		cmp	r3, #46
 145 005e 00F0C282 		beq	.L153
 146              		.loc 1 139 0
 147 0062 2026     		movs	r6, #32
 148              	.LVL9:
 149              	.L7:
 150              		.loc 1 141 0
 151 0064 0B99     		ldr	r1, [sp, #44]
 152              		.loc 1 144 0
 153 0066 0023     		movs	r3, #0
 154              	.LVL10:
 155              	.L10:
 156              		.loc 1 146 0
 157 0068 17F8012B 		ldrb	r2, [r7], #1	@ zero_extendqisi2
 158              	.LVL11:
 159              		.loc 1 153 0
 160 006c 03EB830C 		add	ip, r3, r3, lsl #2
 161              		.loc 1 147 0
 162 0070 A2F13004 		sub	r4, r2, #48
 163 0074 E0B2     		uxtb	r0, r4
 164 0076 0928     		cmp	r0, #9
 165              		.loc 1 146 0
 166 0078 3C46     		mov	r4, r7
 167              	.LVL12:
 168              		.loc 1 147 0
 169 007a 03D9     		bls	.L8
 170              		.loc 1 149 0
 171 007c 2A2A     		cmp	r2, #42
ARM GAS  /tmp/ccYKrizH.s 			page 4


 172 007e 04D1     		bne	.L9
 173              		.loc 1 150 0
 174 0080 0878     		ldrb	r0, [r1, #0]	@ zero_extendqisi2
 175              	.LVL13:
 176 0082 0431     		adds	r1, r1, #4
 177              	.LVL14:
 178              	.L8:
 179              		.loc 1 153 0
 180 0084 00EB4C03 		add	r3, r0, ip, lsl #1
 181              	.LVL15:
 182              		.loc 1 154 0
 183 0088 EEE7     		b	.L10
 184              	.LVL16:
 185              	.L9:
 186              		.loc 1 156 0
 187 008a 2E2A     		cmp	r2, #46
 188              		.loc 1 154 0
 189 008c 0B91     		str	r1, [sp, #44]
 190              	.LVL17:
 191              		.loc 1 156 0
 192 008e 00F09382 		beq	.L154
 193              		.loc 1 155 0
 194 0092 0027     		movs	r7, #0
 195              	.LVL18:
 196              	.L11:
 197              		.loc 1 170 0
 198 0094 6C2A     		cmp	r2, #108
 199 0096 00F08882 		beq	.L15
 200              		.loc 1 170 0 is_stmt 0 discriminator 1
 201 009a 4C2A     		cmp	r2, #76
 202 009c 00F08582 		beq	.L15
 203              		.loc 1 176 0 is_stmt 1
 204 00a0 A2F14101 		sub	r1, r2, #65
 205 00a4 5FFA81FC 		uxtb	ip, r1
 206 00a8 BCF1190F 		cmp	ip, #25
 207 00ac 8CBF     		ite	hi
 208 00ae 4FF0000C 		movhi	ip, #0
 209 00b2 4FF0010C 		movls	ip, #1
 210              	.LVL19:
 211              	.L17:
 212              		.loc 1 179 0
 213 00b6 A2F1440A 		sub	sl, r2, #68
 214 00ba BAF1340F 		cmp	sl, #52
 215 00be 00F26D82 		bhi	.L18
 216 00c2 DFE81AF0 		tbh	[pc, sl, lsl #1]
 217              	.L25:
 218 00c6 B801     		.2byte	(.L19-.L25)/2
 219 00c8 6B02     		.2byte	(.L18-.L25)/2
 220 00ca 6B02     		.2byte	(.L18-.L25)/2
 221 00cc 6B02     		.2byte	(.L18-.L25)/2
 222 00ce 6B02     		.2byte	(.L18-.L25)/2
 223 00d0 B801     		.2byte	(.L19-.L25)/2
 224 00d2 6B02     		.2byte	(.L18-.L25)/2
 225 00d4 6B02     		.2byte	(.L18-.L25)/2
 226 00d6 6B02     		.2byte	(.L18-.L25)/2
 227 00d8 6B02     		.2byte	(.L18-.L25)/2
 228 00da 6B02     		.2byte	(.L18-.L25)/2
ARM GAS  /tmp/ccYKrizH.s 			page 5


 229 00dc B601     		.2byte	(.L20-.L25)/2
 230 00de 6B02     		.2byte	(.L18-.L25)/2
 231 00e0 6B02     		.2byte	(.L18-.L25)/2
 232 00e2 6B02     		.2byte	(.L18-.L25)/2
 233 00e4 6B02     		.2byte	(.L18-.L25)/2
 234 00e6 6B02     		.2byte	(.L18-.L25)/2
 235 00e8 AB01     		.2byte	(.L58-.L25)/2
 236 00ea 6B02     		.2byte	(.L18-.L25)/2
 237 00ec 6B02     		.2byte	(.L18-.L25)/2
 238 00ee 0701     		.2byte	(.L22-.L25)/2
 239 00f0 6B02     		.2byte	(.L18-.L25)/2
 240 00f2 6B02     		.2byte	(.L18-.L25)/2
 241 00f4 6B02     		.2byte	(.L18-.L25)/2
 242 00f6 6B02     		.2byte	(.L18-.L25)/2
 243 00f8 6B02     		.2byte	(.L18-.L25)/2
 244 00fa 6B02     		.2byte	(.L18-.L25)/2
 245 00fc 6B02     		.2byte	(.L18-.L25)/2
 246 00fe 6B02     		.2byte	(.L18-.L25)/2
 247 0100 6B02     		.2byte	(.L18-.L25)/2
 248 0102 6B02     		.2byte	(.L18-.L25)/2
 249 0104 C300     		.2byte	(.L23-.L25)/2
 250 0106 B801     		.2byte	(.L19-.L25)/2
 251 0108 6B02     		.2byte	(.L18-.L25)/2
 252 010a 6B02     		.2byte	(.L18-.L25)/2
 253 010c 6B02     		.2byte	(.L18-.L25)/2
 254 010e 6B02     		.2byte	(.L18-.L25)/2
 255 0110 B801     		.2byte	(.L19-.L25)/2
 256 0112 6B02     		.2byte	(.L18-.L25)/2
 257 0114 6B02     		.2byte	(.L18-.L25)/2
 258 0116 6B02     		.2byte	(.L18-.L25)/2
 259 0118 6B02     		.2byte	(.L18-.L25)/2
 260 011a 6B02     		.2byte	(.L18-.L25)/2
 261 011c B601     		.2byte	(.L20-.L25)/2
 262 011e 6B02     		.2byte	(.L18-.L25)/2
 263 0120 6B02     		.2byte	(.L18-.L25)/2
 264 0122 6B02     		.2byte	(.L18-.L25)/2
 265 0124 3500     		.2byte	(.L24-.L25)/2
 266 0126 6B02     		.2byte	(.L18-.L25)/2
 267 0128 AB01     		.2byte	(.L58-.L25)/2
 268 012a 6B02     		.2byte	(.L18-.L25)/2
 269 012c 6B02     		.2byte	(.L18-.L25)/2
 270 012e 0701     		.2byte	(.L22-.L25)/2
 271              	.L24:
 272              	.LVL20:
 273              		.loc 1 186 0
 274 0130 0B9A     		ldr	r2, [sp, #44]
 275              	.LVL21:
 276              		.loc 1 187 0
 277 0132 6749     		ldr	r1, .L161
 278              		.loc 1 186 0
 279 0134 101D     		adds	r0, r2, #4
 280 0136 0B90     		str	r0, [sp, #44]
 281 0138 1668     		ldr	r6, [r2, #0]
 282              	.LVL22:
 283              		.loc 1 189 0
 284 013a 47F6FF7C 		movw	ip, #32767
 285              	.LVL23:
ARM GAS  /tmp/ccYKrizH.s 			page 6


 286              		.loc 1 187 0
 287 013e 002E     		cmp	r6, #0
 288 0140 14BF     		ite	ne
 289 0142 B046     		movne	r8, r6
 290 0144 8846     		moveq	r8, r1
 291              	.LVL24:
 292              		.loc 1 190 0
 293 0146 98F80020 		ldrb	r2, [r8, #0]	@ zero_extendqisi2
 294              		.loc 1 189 0
 295 014a 002F     		cmp	r7, #0
 296 014c 08BF     		it	eq
 297 014e 6746     		moveq	r7, ip
 298              	.LVL25:
 299              		.loc 1 190 0
 300 0150 002A     		cmp	r2, #0
 301 0152 00F06D82 		beq	.L61
 302              		.loc 1 108 0
 303 0156 08EB0700 		add	r0, r8, r7
 304 015a 6FEA0809 		mvn	r9, r8
 305              		.loc 1 190 0
 306 015e 98F80110 		ldrb	r1, [r8, #1]	@ zero_extendqisi2
 307 0162 00EB0906 		add	r6, r0, r9
 308 0166 08F1010A 		add	sl, r8, #1
 309              	.LVL26:
 310 016a 06F00106 		and	r6, r6, #1
 311 016e 5246     		mov	r2, sl
 312 0170 A1B1     		cbz	r1, .L128
 313 0172 8245     		cmp	sl, r0
 314 0174 12D0     		beq	.L128
 315 0176 2EB1     		cbz	r6, .L30
 316 0178 12F8016F 		ldrb	r6, [r2, #1]!	@ zero_extendqisi2
 317 017c 0AF1010A 		add	sl, sl, #1
 318              	.LVL27:
 319 0180 56B9     		cbnz	r6, .L111
 320 0182 0BE0     		b	.L128
 321              	.L30:
 322              		.loc 1 190 0 is_stmt 0 discriminator 1
 323 0184 5178     		ldrb	r1, [r2, #1]	@ zero_extendqisi2
 324 0186 0AF1010A 		add	sl, sl, #1
 325 018a 0132     		adds	r2, r2, #1
 326 018c 31B1     		cbz	r1, .L128
 327              		.loc 1 190 0 discriminator 2
 328 018e 5678     		ldrb	r6, [r2, #1]	@ zero_extendqisi2
 329 0190 0AF1010A 		add	sl, sl, #1
 330 0194 0132     		adds	r2, r2, #1
 331 0196 0EB1     		cbz	r6, .L128
 332              	.L111:
 333              		.loc 1 190 0
 334 0198 8245     		cmp	sl, r0
 335 019a F3D1     		bne	.L30
 336              	.L128:
 337 019c C8EB0A0A 		rsb	sl, r8, sl
 338              		.loc 1 242 0 is_stmt 1
 339 01a0 049A     		ldr	r2, [sp, #16]
 340              		.loc 1 240 0
 341 01a2 CAEB030C 		rsb	ip, sl, r3
 342              		.loc 1 185 0
ARM GAS  /tmp/ccYKrizH.s 			page 7


 343 01a6 2026     		movs	r6, #32
 344              	.LVL28:
 345              		.loc 1 240 0
 346 01a8 2CEAEC79 		bic	r9, ip, ip, asr #31
 347              	.LVL29:
 348              		.loc 1 242 0
 349 01ac 002A     		cmp	r2, #0
 350 01ae 5FD0     		beq	.L155
 351              	.LVL30:
 352              	.L48:
 353              		.loc 1 253 0 discriminator 1
 354 01b0 BAF1000F 		cmp	sl, #0
 355 01b4 26DD     		ble	.L51
 356              		.loc 1 254 0
 357 01b6 4746     		mov	r7, r8
 358 01b8 2868     		ldr	r0, [r5, #0]
 359              		.loc 1 108 0
 360 01ba C244     		add	sl, r8, sl
 361              	.LVL31:
 362 01bc 6FEA0803 		mvn	r3, r8
 363              		.loc 1 254 0
 364 01c0 17F8011B 		ldrb	r1, [r7], #1	@ zero_extendqisi2
 365 01c4 0AEB0302 		add	r2, sl, r3
 366 01c8 8368     		ldr	r3, [r0, #8]
 367 01ca 2846     		mov	r0, r5
 368 01cc 02F00108 		and	r8, r2, #1
 369              	.LVL32:
 370 01d0 9847     		blx	r3
 371              	.LVL33:
 372              		.loc 1 253 0
 373 01d2 5745     		cmp	r7, sl
 374 01d4 16D0     		beq	.L51
 375 01d6 B8F1000F 		cmp	r8, #0
 376 01da 03D0     		beq	.L52
 377              		.loc 1 254 0
 378 01dc 17F8011B 		ldrb	r1, [r7], #1	@ zero_extendqisi2
 379              	.LVL34:
 380 01e0 2B68     		ldr	r3, [r5, #0]
 381 01e2 0AE0     		b	.L149
 382              	.L52:
 383 01e4 2868     		ldr	r0, [r5, #0]
 384 01e6 B846     		mov	r8, r7
 385 01e8 18F8011B 		ldrb	r1, [r8], #1	@ zero_extendqisi2
 386 01ec 8268     		ldr	r2, [r0, #8]
 387 01ee 2846     		mov	r0, r5
 388 01f0 9047     		blx	r2
 389 01f2 2B68     		ldr	r3, [r5, #0]
 390 01f4 7978     		ldrb	r1, [r7, #1]	@ zero_extendqisi2
 391 01f6 08F10107 		add	r7, r8, #1
 392              	.L149:
 393 01fa 9A68     		ldr	r2, [r3, #8]
 394 01fc 2846     		mov	r0, r5
 395 01fe 9047     		blx	r2
 396              		.loc 1 253 0
 397 0200 5745     		cmp	r7, sl
 398 0202 EFD1     		bne	.L52
 399              	.L51:
ARM GAS  /tmp/ccYKrizH.s 			page 8


 400              	.LVL35:
 401              		.loc 1 256 0 discriminator 1
 402 0204 B9F1000F 		cmp	r9, #0
 403 0208 3FF410AF 		beq	.L123
 404              		.loc 1 257 0
 405 020c 2F68     		ldr	r7, [r5, #0]
 406 020e 09F1FF3E 		add	lr, r9, #-1
 407 0212 BB68     		ldr	r3, [r7, #8]
 408 0214 2846     		mov	r0, r5
 409              		.loc 1 256 0
 410 0216 7746     		mov	r7, lr
 411              		.loc 1 257 0
 412 0218 3146     		mov	r1, r6
 413 021a 0EF00109 		and	r9, lr, #1
 414              	.LVL36:
 415 021e 9847     		blx	r3
 416              	.LVL37:
 417              		.loc 1 256 0
 418 0220 002F     		cmp	r7, #0
 419 0222 3FF403AF 		beq	.L123
 420 0226 B9F1000F 		cmp	r9, #0
 421 022a 01D0     		beq	.L66
 422              		.loc 1 257 0
 423 022c 2B68     		ldr	r3, [r5, #0]
 424 022e 06E0     		b	.L146
 425              	.LVL38:
 426              	.L66:
 427 0230 2868     		ldr	r0, [r5, #0]
 428 0232 3146     		mov	r1, r6
 429 0234 8268     		ldr	r2, [r0, #8]
 430 0236 2846     		mov	r0, r5
 431 0238 9047     		blx	r2
 432 023a 2B68     		ldr	r3, [r5, #0]
 433              		.loc 1 258 0
 434 023c 013F     		subs	r7, r7, #1
 435              	.L146:
 436              		.loc 1 257 0
 437 023e 9B68     		ldr	r3, [r3, #8]
 438 0240 2846     		mov	r0, r5
 439 0242 3146     		mov	r1, r6
 440 0244 9847     		blx	r3
 441              		.loc 1 256 0
 442 0246 013F     		subs	r7, r7, #1
 443 0248 F2D1     		bne	.L66
 444 024a EFE6     		b	.L123
 445              	.LVL39:
 446              	.L23:
 447              		.loc 1 182 0
 448 024c 0B98     		ldr	r0, [sp, #44]
 449 024e DDF81CA0 		ldr	sl, [sp, #28]
 450 0252 0668     		ldr	r6, [r0, #0]
 451 0254 021D     		adds	r2, r0, #4
 452              	.LVL40:
 453 0256 8DF82060 		strb	r6, [sp, #32]
 454              	.LVL41:
 455              		.loc 1 181 0
 456 025a 2026     		movs	r6, #32
ARM GAS  /tmp/ccYKrizH.s 			page 9


 457              		.loc 1 182 0
 458 025c 0B92     		str	r2, [sp, #44]
 459              		.loc 1 133 0
 460 025e 0DEB0608 		add	r8, sp, r6
 461              	.LVL42:
 462              	.L26:
 463              		.loc 1 242 0
 464 0262 049A     		ldr	r2, [sp, #16]
 465              		.loc 1 240 0
 466 0264 CAEB030C 		rsb	ip, sl, r3
 467              	.LVL43:
 468 0268 2CEAEC79 		bic	r9, ip, ip, asr #31
 469              	.LVL44:
 470              		.loc 1 242 0
 471 026c 002A     		cmp	r2, #0
 472 026e 9FD1     		bne	.L48
 473              	.LVL45:
 474              	.L155:
 475              		.loc 1 243 0
 476 0270 C9F10009 		rsb	r9, r9, #0
 477              	.LVL46:
 478              		.loc 1 244 0
 479 0274 B9F1000F 		cmp	r9, #0
 480 0278 9AD0     		beq	.L48
 481              		.loc 1 245 0
 482 027a 98F80010 		ldrb	r1, [r8, #0]	@ zero_extendqisi2
 483 027e 2D29     		cmp	r1, #45
 484 0280 00F0CA81 		beq	.L156
 485              	.L117:
 486              		.loc 1 250 0
 487 0284 2968     		ldr	r1, [r5, #0]
 488 0286 6FEA0900 		mvn	r0, r9
 489 028a 8A68     		ldr	r2, [r1, #8]
 490 028c 00F00107 		and	r7, r0, #1
 491              	.LVL47:
 492 0290 3146     		mov	r1, r6
 493 0292 2846     		mov	r0, r5
 494 0294 9047     		blx	r2
 495              	.LVL48:
 496              		.loc 1 251 0
 497 0296 19F10109 		adds	r9, r9, #1
 498              	.LVL49:
 499 029a 89D0     		beq	.L48
 500 029c 3FB1     		cbz	r7, .L67
 501              		.loc 1 250 0
 502 029e 2B68     		ldr	r3, [r5, #0]
 503 02a0 2846     		mov	r0, r5
 504 02a2 9B68     		ldr	r3, [r3, #8]
 505 02a4 3146     		mov	r1, r6
 506 02a6 9847     		blx	r3
 507              	.LVL50:
 508              		.loc 1 251 0
 509 02a8 19F10109 		adds	r9, r9, #1
 510              	.LVL51:
 511 02ac 80D0     		beq	.L48
 512              	.L67:
 513              		.loc 1 250 0 discriminator 1
ARM GAS  /tmp/ccYKrizH.s 			page 10


 514 02ae 2A68     		ldr	r2, [r5, #0]
 515 02b0 3146     		mov	r1, r6
 516 02b2 9368     		ldr	r3, [r2, #8]
 517 02b4 2846     		mov	r0, r5
 518 02b6 9847     		blx	r3
 519 02b8 2B68     		ldr	r3, [r5, #0]
 520              		.loc 1 251 0 discriminator 1
 521 02ba 09F10109 		add	r9, r9, #1
 522              	.LVL52:
 523              		.loc 1 250 0 discriminator 1
 524 02be 9B68     		ldr	r3, [r3, #8]
 525 02c0 2846     		mov	r0, r5
 526 02c2 3146     		mov	r1, r6
 527 02c4 9847     		blx	r3
 528              	.LVL53:
 529              		.loc 1 251 0 discriminator 1
 530 02c6 19F10109 		adds	r9, r9, #1
 531              	.LVL54:
 532 02ca F0D1     		bne	.L67
 533 02cc 70E7     		b	.L48
 534              	.L162:
 535 02ce 00BF     		.align	2
 536              	.L161:
 537 02d0 00000000 		.word	.LC0
 538              	.LVL55:
 539              	.L22:
 540              		.loc 1 179 0
 541 02d4 1020     		movs	r0, #16
 542              	.LVL56:
 543              	.L21:
 544              		.loc 1 230 0
 545 02d6 0B9A     		ldr	r2, [sp, #44]
 546 02d8 111D     		adds	r1, r2, #4
 547              		.loc 1 229 0
 548 02da BCF1000F 		cmp	ip, #0
 549 02de 00F0A480 		beq	.L39
 550              	.L157:
 551              		.loc 1 230 0
 552 02e2 D2F80090 		ldr	r9, [r2, #0]
 553              	.LVL57:
 554 02e6 0B91     		str	r1, [sp, #44]
 555              	.LVL58:
 556              	.L40:
 557              		.loc 1 232 0
 558 02e8 0DF12A08 		add	r8, sp, #42
 559 02ec 4946     		mov	r1, r9
 560              	.LVL59:
 561              	.L43:
 562              	.LBB31:
 563              	.LBB32:
 564              	.LBB33:
 565              		.loc 1 53 0
 566 02ee B9FBF0F7 		udiv	r7, r9, r0
 567 02f2 00FB1792 		mls	r2, r0, r7, r9
 568              		.loc 1 56 0
 569 02f6 02F13709 		add	r9, r2, #55
 570              		.loc 1 54 0
ARM GAS  /tmp/ccYKrizH.s 			page 11


 571 02fa 02F1300C 		add	ip, r2, #48
 572              	.LVL60:
 573              		.loc 1 57 0
 574 02fe BCF1390F 		cmp	ip, #57
 575 0302 C8BF     		it	gt
 576 0304 CC46     		movgt	ip, r9
 577              	.LVL61:
 578              		.loc 1 59 0
 579 0306 B1FBF0F1 		udiv	r1, r1, r0
 580              		.loc 1 57 0
 581 030a 4246     		mov	r2, r8
 582              	.LVL62:
 583 030c 88F800C0 		strb	ip, [r8, #0]
 584              		.loc 1 58 0
 585 0310 B946     		mov	r9, r7
 586              	.LVL63:
 587              		.loc 1 57 0
 588 0312 08F1FF38 		add	r8, r8, #-1
 589              	.LVL64:
 590              		.loc 1 59 0
 591 0316 0029     		cmp	r1, #0
 592 0318 E9D1     		bne	.L43
 593              		.loc 1 61 0
 594 031a 0DF12B00 		add	r0, sp, #43
 595              	.LVL65:
 596 031e C2EB000A 		rsb	sl, r2, r0
 597              	.LVL66:
 598              		.loc 1 108 0
 599 0322 4FEA9A09 		lsr	r9, sl, #2
 600 0326 4FEA8901 		lsl	r1, r9, #2
 601              	.LVL67:
 602 032a 0391     		str	r1, [sp, #12]
 603 032c B9F1000F 		cmp	r9, #0
 604 0330 00F08181 		beq	.L64
 605 0334 12F0030F 		tst	r2, #3
 606 0338 0298     		ldr	r0, [sp, #8]
 607 033a 14BF     		ite	ne
 608 033c 4FF00008 		movne	r8, #0
 609 0340 4FF00108 		moveq	r8, #1
 610 0344 02F1040C 		add	ip, r2, #4
 611 0348 09A9     		add	r1, sp, #36
 612 034a BAF1030F 		cmp	sl, #3
 613 034e 94BF     		ite	ls
 614 0350 4FF00008 		movls	r8, #0
 615 0354 08F00108 		andhi	r8, r8, #1
 616 0358 8A42     		cmp	r2, r1
 617 035a 98BF     		it	ls
 618 035c 6045     		cmpls	r0, ip
 619 035e 94BF     		ite	ls
 620 0360 0027     		movls	r7, #0
 621 0362 0127     		movhi	r7, #1
 622              	.LVL68:
 623 0364 18EA070F 		tst	r8, r7
 624 0368 00F06581 		beq	.L64
 625              		.loc 1 63 0
 626 036c 1768     		ldr	r7, [r2, #0]
 627 036e 0120     		movs	r0, #1
ARM GAS  /tmp/ccYKrizH.s 			page 12


 628 0370 09F1FF38 		add	r8, r9, #-1
 629 0374 08A9     		add	r1, sp, #32
 630 0376 4845     		cmp	r0, r9
 631 0378 41F8047B 		str	r7, [r1], #4
 632 037c 08EA0008 		and	r8, r8, r0
 633              	.LVL69:
 634 0380 6746     		mov	r7, ip
 635 0382 1DD2     		bcs	.L127
 636 0384 B8F1000F 		cmp	r8, #0
 637 0388 08D0     		beq	.L142
 638 038a DCF80080 		ldr	r8, [ip, #0]
 639 038e 0220     		movs	r0, #2
 640 0390 0437     		adds	r7, r7, #4
 641 0392 0431     		adds	r1, r1, #4
 642 0394 4845     		cmp	r0, r9
 643 0396 CDF82480 		str	r8, [sp, #36]
 644 039a 11D2     		bcs	.L127
 645              	.L142:
 646 039c B346     		mov	fp, r6
 647 039e 9846     		mov	r8, r3
 648              	.LVL70:
 649              	.L45:
 650 03a0 BC46     		mov	ip, r7
 651 03a2 5CF8043B 		ldr	r3, [ip], #4
 652 03a6 0E46     		mov	r6, r1
 653 03a8 46F8043B 		str	r3, [r6], #4
 654 03ac 7B68     		ldr	r3, [r7, #4]
 655 03ae 0230     		adds	r0, r0, #2
 656 03b0 4B60     		str	r3, [r1, #4]
 657 03b2 311D     		adds	r1, r6, #4
 658 03b4 4845     		cmp	r0, r9
 659 03b6 0CF10407 		add	r7, ip, #4
 660 03ba F1D3     		bcc	.L45
 661 03bc 5E46     		mov	r6, fp
 662 03be 4346     		mov	r3, r8
 663              	.LVL71:
 664              	.L127:
 665 03c0 039F     		ldr	r7, [sp, #12]
 666 03c2 DDF80C90 		ldr	r9, [sp, #12]
 667 03c6 08A9     		add	r1, sp, #32
 668 03c8 BA45     		cmp	sl, r7
 669 03ca 4944     		add	r1, r1, r9
 670 03cc C9EB0A0C 		rsb	ip, r9, sl
 671 03d0 3A44     		add	r2, r2, r7
 672 03d2 20D0     		beq	.L147
 673              	.L44:
 674 03d4 12F8010B 		ldrb	r0, [r2], #1	@ zero_extendqisi2
 675 03d8 CF43     		mvns	r7, r1
 676              		.loc 1 108 0
 677 03da 8C44     		add	ip, r1, ip
 678              		.loc 1 63 0
 679 03dc 01F8010B 		strb	r0, [r1], #1
 680 03e0 0CEB0708 		add	r8, ip, r7
 681              		.loc 1 64 0
 682 03e4 6145     		cmp	r1, ip
 683 03e6 08F00107 		and	r7, r8, #1
 684              	.LVL72:
ARM GAS  /tmp/ccYKrizH.s 			page 13


 685 03ea 14D0     		beq	.L147
 686 03ec 2FB1     		cbz	r7, .L47
 687              	.LVL73:
 688              		.loc 1 63 0
 689 03ee 12F8019B 		ldrb	r9, [r2], #1	@ zero_extendqisi2
 690 03f2 01F8019B 		strb	r9, [r1], #1
 691              		.loc 1 64 0
 692 03f6 6145     		cmp	r1, ip
 693 03f8 0DD0     		beq	.L147
 694              	.L47:
 695              		.loc 1 63 0
 696 03fa 1746     		mov	r7, r2
 697 03fc 17F8018B 		ldrb	r8, [r7], #1	@ zero_extendqisi2
 698 0400 0846     		mov	r0, r1
 699 0402 00F8018B 		strb	r8, [r0], #1
 700 0406 92F80190 		ldrb	r9, [r2, #1]	@ zero_extendqisi2
 701 040a 7A1C     		adds	r2, r7, #1
 702 040c 81F80190 		strb	r9, [r1, #1]
 703 0410 411C     		adds	r1, r0, #1
 704              		.loc 1 64 0
 705 0412 6145     		cmp	r1, ip
 706 0414 F1D1     		bne	.L47
 707              	.L147:
 708              	.LBE33:
 709              	.LBE32:
 710              	.LBE31:
 711              		.loc 1 133 0
 712 0416 0DF12008 		add	r8, sp, #32
 713              		.loc 1 237 0
 714 041a 22E7     		b	.L26
 715              	.LVL74:
 716              	.L58:
 717              		.loc 1 230 0
 718 041c 0B9A     		ldr	r2, [sp, #44]
 719              	.LVL75:
 720              		.loc 1 179 0
 721 041e 0A20     		movs	r0, #10
 722              	.LVL76:
 723              		.loc 1 230 0
 724 0420 111D     		adds	r1, r2, #4
 725              		.loc 1 229 0
 726 0422 BCF1000F 		cmp	ip, #0
 727 0426 7FF45CAF 		bne	.L157
 728              	.L39:
 729              		.loc 1 232 0
 730 042a D2F80090 		ldr	r9, [r2, #0]
 731              	.LVL77:
 732 042e 0B91     		str	r1, [sp, #44]
 733 0430 5AE7     		b	.L40
 734              	.LVL78:
 735              	.L20:
 736 0432 0820     		movs	r0, #8
 737 0434 4FE7     		b	.L21
 738              	.LVL79:
 739              	.L19:
 740              		.loc 1 198 0
 741 0436 0B9A     		ldr	r2, [sp, #44]
ARM GAS  /tmp/ccYKrizH.s 			page 14


 742 0438 111D     		adds	r1, r2, #4
 743              		.loc 1 197 0
 744 043a BCF1000F 		cmp	ip, #0
 745 043e 40F0DF80 		bne	.L158
 746              		.loc 1 200 0
 747 0442 1768     		ldr	r7, [r2, #0]
 748              	.LVL80:
 749 0444 0B91     		str	r1, [sp, #44]
 750              		.loc 1 201 0
 751 0446 002F     		cmp	r7, #0
 752 0448 C0F2DF80 		blt	.L159
 753              	.LVL81:
 754              	.L62:
 755              		.loc 1 132 0
 756 044c 0DF1200A 		add	sl, sp, #32
 757              	.LVL82:
 758              	.L33:
 759              	.LBB36:
 760              	.LBB24:
 761              	.LBB17:
 762              		.loc 1 51 0
 763 0450 0AF10B08 		add	r8, sl, #11
 764              	.LVL83:
 765              	.LBE17:
 766              	.LBE24:
 767              	.LBE36:
 768              		.loc 1 108 0
 769 0454 DDF81890 		ldr	r9, [sp, #24]
 770              	.LBB37:
 771              	.LBB25:
 772              	.LBB18:
 773 0458 4246     		mov	r2, r8
 774              	.LBE18:
 775              	.LBE25:
 776              	.LBE37:
 777 045a BC46     		mov	ip, r7
 778              	.LVL84:
 779              	.L34:
 780              	.LBB38:
 781              	.LBB26:
 782              	.LBB19:
 783              		.loc 1 53 0
 784 045c A9FB0710 		umull	r1, r0, r9, r7
 785              		.loc 1 59 0
 786 0460 A9FB0C1C 		umull	r1, ip, r9, ip
 787              	.LVL85:
 788              		.loc 1 53 0
 789 0464 C008     		lsrs	r0, r0, #3
 790 0466 00EB8001 		add	r1, r0, r0, lsl #2
 791 046a A7EB4107 		sub	r7, r7, r1, lsl #1
 792              	.LVL86:
 793              		.loc 1 108 0
 794 046e 013A     		subs	r2, r2, #1
 795              		.loc 1 54 0
 796 0470 3037     		adds	r7, r7, #48
 797              		.loc 1 59 0
 798 0472 5FEADC0C 		lsrs	ip, ip, #3
ARM GAS  /tmp/ccYKrizH.s 			page 15


 799              		.loc 1 57 0
 800 0476 1770     		strb	r7, [r2, #0]
 801              		.loc 1 108 0
 802 0478 1146     		mov	r1, r2
 803              		.loc 1 58 0
 804 047a 0746     		mov	r7, r0
 805              	.LVL87:
 806              		.loc 1 59 0
 807 047c EED1     		bne	.L34
 808              		.loc 1 61 0
 809 047e C2EB0808 		rsb	r8, r2, r8
 810              		.loc 1 108 0
 811 0482 4FEA9809 		lsr	r9, r8, #2
 812 0486 4FEA8907 		lsl	r7, r9, #2
 813              		.loc 1 61 0
 814 048a CDF80C80 		str	r8, [sp, #12]
 815              	.LVL88:
 816              		.loc 1 108 0
 817 048e 0597     		str	r7, [sp, #20]
 818 0490 B9F1000F 		cmp	r9, #0
 819 0494 00F0D280 		beq	.L63
 820 0498 0AF1040B 		add	fp, sl, #4
 821 049c 9345     		cmp	fp, r2
 822 049e 2CBF     		ite	cs
 823 04a0 0020     		movcs	r0, #0
 824              	.LVL89:
 825 04a2 0120     		movcc	r0, #1
 826 04a4 4AEA020C 		orr	ip, sl, r2
 827 04a8 171D     		adds	r7, r2, #4
 828 04aa BA45     		cmp	sl, r7
 829 04ac 94BF     		ite	ls
 830 04ae 8046     		movls	r8, r0
 831 04b0 40F00108 		orrhi	r8, r0, #1
 832              	.LVL90:
 833 04b4 1CF0030F 		tst	ip, #3
 834 04b8 DDF80CC0 		ldr	ip, [sp, #12]
 835 04bc 14BF     		ite	ne
 836 04be 0020     		movne	r0, #0
 837 04c0 0120     		moveq	r0, #1
 838 04c2 BCF1030F 		cmp	ip, #3
 839 04c6 94BF     		ite	ls
 840 04c8 0020     		movls	r0, #0
 841 04ca 00F00100 		andhi	r0, r0, #1
 842 04ce 18EA000F 		tst	r8, r0
 843 04d2 00F0B380 		beq	.L63
 844              		.loc 1 63 0
 845 04d6 D2F80080 		ldr	r8, [r2, #0]
 846 04da 0121     		movs	r1, #1
 847 04dc 09F1FF30 		add	r0, r9, #-1
 848 04e0 4945     		cmp	r1, r9
 849 04e2 CAF80080 		str	r8, [sl, #0]
 850 04e6 00EA0100 		and	r0, r0, r1
 851              	.LVL91:
 852 04ea B846     		mov	r8, r7
 853 04ec DC46     		mov	ip, fp
 854 04ee 1FD2     		bcs	.L126
 855 04f0 48B1     		cbz	r0, .L138
ARM GAS  /tmp/ccYKrizH.s 			page 16


 856 04f2 3868     		ldr	r0, [r7, #0]
 857 04f4 0221     		movs	r1, #2
 858 04f6 4945     		cmp	r1, r9
 859 04f8 CBF80000 		str	r0, [fp, #0]
 860 04fc 07F10408 		add	r8, r7, #4
 861 0500 0BF1040C 		add	ip, fp, #4
 862 0504 14D2     		bcs	.L126
 863              	.L138:
 864 0506 D346     		mov	fp, sl
 865 0508 9A46     		mov	sl, r3
 866              	.LVL92:
 867              	.L36:
 868 050a 4746     		mov	r7, r8
 869 050c 57F8043B 		ldr	r3, [r7], #4
 870 0510 6046     		mov	r0, ip
 871 0512 40F8043B 		str	r3, [r0], #4
 872 0516 D8F80430 		ldr	r3, [r8, #4]
 873 051a 0231     		adds	r1, r1, #2
 874 051c 4945     		cmp	r1, r9
 875 051e CCF80430 		str	r3, [ip, #4]
 876 0522 07F10408 		add	r8, r7, #4
 877 0526 00F1040C 		add	ip, r0, #4
 878 052a EED3     		bcc	.L36
 879 052c 5346     		mov	r3, sl
 880 052e DA46     		mov	sl, fp
 881              	.LVL93:
 882              	.L126:
 883 0530 0599     		ldr	r1, [sp, #20]
 884 0532 039F     		ldr	r7, [sp, #12]
 885 0534 0AEB0100 		add	r0, sl, r1
 886 0538 C1EB070C 		rsb	ip, r1, r7
 887 053c 5118     		adds	r1, r2, r1
 888 053e 059A     		ldr	r2, [sp, #20]
 889 0540 9742     		cmp	r7, r2
 890 0542 21D0     		beq	.L37
 891              	.L35:
 892 0544 11F8019B 		ldrb	r9, [r1], #1	@ zero_extendqisi2
 893 0548 0246     		mov	r2, r0
 894 054a C743     		mvns	r7, r0
 895              		.loc 1 108 0
 896 054c 8444     		add	ip, r0, ip
 897              		.loc 1 63 0
 898 054e 02F8019B 		strb	r9, [r2], #1
 899 0552 0CEB0700 		add	r0, ip, r7
 900              		.loc 1 64 0
 901 0556 6245     		cmp	r2, ip
 902 0558 00F00107 		and	r7, r0, #1
 903              	.LVL94:
 904 055c 14D0     		beq	.L37
 905 055e 2FB1     		cbz	r7, .L38
 906              	.LVL95:
 907              		.loc 1 63 0
 908 0560 11F8017B 		ldrb	r7, [r1], #1	@ zero_extendqisi2
 909 0564 02F8017B 		strb	r7, [r2], #1
 910              		.loc 1 64 0
 911 0568 6245     		cmp	r2, ip
 912 056a 0DD0     		beq	.L37
ARM GAS  /tmp/ccYKrizH.s 			page 17


 913              	.L38:
 914              		.loc 1 63 0
 915 056c 0F46     		mov	r7, r1
 916 056e 17F8019B 		ldrb	r9, [r7], #1	@ zero_extendqisi2
 917 0572 1046     		mov	r0, r2
 918 0574 00F8019B 		strb	r9, [r0], #1
 919 0578 91F80180 		ldrb	r8, [r1, #1]	@ zero_extendqisi2
 920 057c 791C     		adds	r1, r7, #1
 921 057e 82F80180 		strb	r8, [r2, #1]
 922 0582 421C     		adds	r2, r0, #1
 923              		.loc 1 64 0
 924 0584 6245     		cmp	r2, ip
 925 0586 F1D1     		bne	.L38
 926              	.L37:
 927              	.LVL96:
 928              		.loc 1 205 0
 929 0588 039F     		ldr	r7, [sp, #12]
 930              	.LBE19:
 931              	.LBE26:
 932              	.LBE38:
 933              		.loc 1 133 0
 934 058a 0DF12008 		add	r8, sp, #32
 935              	.LBB39:
 936              	.LBB27:
 937              	.LBB20:
 938              		.loc 1 205 0
 939 058e 0AEB0702 		add	r2, sl, r7
 940              		.loc 1 64 0
 941 0592 DDF808A0 		ldr	sl, [sp, #8]
 942              	.LVL97:
 943 0596 CAEB020A 		rsb	sl, sl, r2
 944              	.LBE20:
 945              	.LBE27:
 946              	.LBE39:
 947              		.loc 1 206 0
 948 059a 62E6     		b	.L26
 949              	.LVL98:
 950              	.L18:
 951              		.loc 1 236 0
 952 059c 8DF82020 		strb	r2, [sp, #32]
 953              	.LVL99:
 954 05a0 DDF81CA0 		ldr	sl, [sp, #28]
 955              		.loc 1 133 0
 956 05a4 0DF12008 		add	r8, sp, #32
 957 05a8 5BE6     		b	.L26
 958              	.LVL100:
 959              	.L15:
 960              		.loc 1 172 0
 961 05aa 2178     		ldrb	r1, [r4, #0]	@ zero_extendqisi2
 962 05ac 29B3     		cbz	r1, .L57
 963              	.LVL101:
 964              		.loc 1 173 0
 965 05ae 0134     		adds	r4, r4, #1
 966              	.LVL102:
 967 05b0 0A46     		mov	r2, r1
 968              		.loc 1 171 0
 969 05b2 4FF0010C 		mov	ip, #1
ARM GAS  /tmp/ccYKrizH.s 			page 18


 970 05b6 7EE5     		b	.L17
 971              	.LVL103:
 972              	.L154:
 973              		.loc 1 156 0
 974 05b8 BC46     		mov	ip, r7
 975 05ba 0027     		movs	r7, #0
 976              	.LVL104:
 977              	.L14:
 978              		.loc 1 158 0
 979 05bc 6446     		mov	r4, ip
 980 05be 14F8012B 		ldrb	r2, [r4], #1	@ zero_extendqisi2
 981              	.LVL105:
 982              		.loc 1 165 0
 983 05c2 07EB8708 		add	r8, r7, r7, lsl #2
 984              		.loc 1 159 0
 985 05c6 A2F13009 		sub	r9, r2, #48
 986 05ca 5FFA89F0 		uxtb	r0, r9
 987 05ce 0928     		cmp	r0, #9
 988              		.loc 1 158 0
 989 05d0 A446     		mov	ip, r4
 990              	.LVL106:
 991              		.loc 1 159 0
 992 05d2 03D9     		bls	.L12
 993              		.loc 1 161 0
 994 05d4 2A2A     		cmp	r2, #42
 995 05d6 04D1     		bne	.L160
 996              		.loc 1 162 0
 997 05d8 0878     		ldrb	r0, [r1, #0]	@ zero_extendqisi2
 998              	.LVL107:
 999 05da 0431     		adds	r1, r1, #4
 1000              	.LVL108:
 1001              	.L12:
 1002              		.loc 1 166 0
 1003 05dc 00EB4807 		add	r7, r0, r8, lsl #1
 1004              	.LVL109:
 1005              		.loc 1 167 0
 1006 05e0 ECE7     		b	.L14
 1007              	.LVL110:
 1008              	.L160:
 1009              		.loc 1 161 0
 1010 05e2 0B91     		str	r1, [sp, #44]
 1011 05e4 56E5     		b	.L11
 1012              	.LVL111:
 1013              	.L153:
 1014              		.loc 1 141 0
 1015 05e6 0137     		adds	r7, r7, #1
 1016              	.LVL112:
 1017              		.loc 1 142 0
 1018 05e8 3026     		movs	r6, #48
 1019 05ea 3BE5     		b	.L7
 1020              	.LVL113:
 1021              	.L152:
 1022              		.loc 1 137 0
 1023 05ec 4FF00108 		mov	r8, #1
 1024              		.loc 1 136 0
 1025 05f0 A71C     		adds	r7, r4, #2
 1026              	.LVL114:
ARM GAS  /tmp/ccYKrizH.s 			page 19


 1027 05f2 A378     		ldrb	r3, [r4, #2]	@ zero_extendqisi2
 1028              		.loc 1 137 0
 1029 05f4 CDF81080 		str	r8, [sp, #16]
 1030 05f8 30E5     		b	.L6
 1031              	.LVL115:
 1032              	.L57:
 1033              		.loc 1 171 0
 1034 05fa 4FF0010C 		mov	ip, #1
 1035 05fe 5AE5     		b	.L17
 1036              	.LVL116:
 1037              	.L158:
 1038              		.loc 1 198 0
 1039 0600 1768     		ldr	r7, [r2, #0]
 1040              	.LVL117:
 1041 0602 0B91     		str	r1, [sp, #44]
 1042              		.loc 1 201 0
 1043 0604 002F     		cmp	r7, #0
 1044 0606 BFF621AF 		bge	.L62
 1045              	.LVL118:
 1046              	.L159:
 1047              		.loc 1 202 0
 1048 060a 2D22     		movs	r2, #45
 1049 060c 8DF82020 		strb	r2, [sp, #32]
 1050              	.LVL119:
 1051              		.loc 1 203 0
 1052 0610 7F42     		negs	r7, r7
 1053              	.LVL120:
 1054              		.loc 1 202 0
 1055 0612 0DF1210A 		add	sl, sp, #33
 1056              	.LVL121:
 1057 0616 1BE7     		b	.L33
 1058              	.LVL122:
 1059              	.L156:
 1060              		.loc 1 245 0 discriminator 1
 1061 0618 302E     		cmp	r6, #48
 1062 061a 7FF433AE 		bne	.L117
 1063              		.loc 1 246 0
 1064 061e 2F68     		ldr	r7, [r5, #0]
 1065 0620 2846     		mov	r0, r5
 1066 0622 BB68     		ldr	r3, [r7, #8]
 1067 0624 9847     		blx	r3
 1068 0626 08F10108 		add	r8, r8, #1
 1069              	.LVL123:
 1070              		.loc 1 247 0
 1071 062a 0AF1FF3A 		add	sl, sl, #-1
 1072              	.LVL124:
 1073 062e 29E6     		b	.L117
 1074              	.LVL125:
 1075              	.L61:
 1076              		.loc 1 190 0
 1077 0630 9246     		mov	sl, r2
 1078              	.LVL126:
 1079              		.loc 1 185 0
 1080 0632 2026     		movs	r6, #32
 1081 0634 15E6     		b	.L26
 1082              	.LVL127:
 1083              	.L64:
ARM GAS  /tmp/ccYKrizH.s 			page 20


 1084              	.LBB40:
 1085              	.LBB35:
 1086              	.LBB34:
 1087              		.loc 1 61 0
 1088 0636 D446     		mov	ip, sl
 1089              		.loc 1 132 0
 1090 0638 08A9     		add	r1, sp, #32
 1091 063a CBE6     		b	.L44
 1092              	.LVL128:
 1093              	.L63:
 1094              	.LBE34:
 1095              	.LBE35:
 1096              	.LBE40:
 1097              	.LBB41:
 1098              	.LBB28:
 1099              	.LBB21:
 1100              		.loc 1 61 0
 1101 063c DDF80CC0 		ldr	ip, [sp, #12]
 1102              		.loc 1 108 0
 1103 0640 5046     		mov	r0, sl
 1104 0642 7FE7     		b	.L35
 1105              	.LBE21:
 1106              	.LBE28:
 1107              	.LBE41:
 1108              		.cfi_endproc
 1109              	.LFE9:
 1110              		.size	chprintf, .-chprintf
 1111 0644 AFF30080 		.section	.rodata.str1.4,"aMS",%progbits,1
 1111      AFF30080 
 1111      AFF30080 
 1112              		.align	2
 1113              	.LC0:
 1114 0000 286E756C 		.ascii	"(null)\000"
 1114      6C2900
 1115 0007 00       		.text
 1116              	.Letext0:
 1117              		.file 2 "/home/tino/ChibiStudio/tools/GNU Tools ARM Embedded/4.6 2012q2/bin/../lib/gcc/arm-none-ea
 1118              		.file 3 "/home/tino/ChibiStudio/tools/GNU Tools ARM Embedded/4.6 2012q2/bin/../lib/gcc/arm-none-ea
 1119              		.file 4 "/home/tino/ChibiStudio/tools/GNU Tools ARM Embedded/4.6 2012q2/bin/../lib/gcc/arm-none-ea
 1120              		.file 5 "../../ChibiOS/os/ports/GCC/ARMCMx/chtypes.h"
 1121              		.file 6 "<built-in>"
 1122              		.file 7 "../../ChibiOS/os/kernel/include/chstreams.h"