ARM GAS  /tmp/ccuOaQcJ.s 			page 1


   1              		.syntax unified
   2              		.cpu cortex-m3
   3              		.fpu softvfp
   4              		.eabi_attribute 20, 1
   5              		.eabi_attribute 21, 1
   6              		.eabi_attribute 23, 3
   7              		.eabi_attribute 24, 1
   8              		.eabi_attribute 25, 1
   9              		.eabi_attribute 26, 1
  10              		.eabi_attribute 30, 2
  11              		.eabi_attribute 34, 1
  12              		.eabi_attribute 18, 4
  13              		.thumb
  14              		.file	"chschd.c"
  15              		.text
  16              	.Ltext0:
  17              		.cfi_sections	.debug_frame
  18              		.section	.text.wakeup,"ax",%progbits
  19              		.align	2
  20              		.p2align 4,,15
  21              		.thumb
  22              		.thumb_func
  23              		.type	wakeup, %function
  24              	wakeup:
  25              	.LFB10:
  26              		.file 1 "../../ChibiOS/os/kernel/src/chschd.c"
  27              		.loc 1 129 0
  28              		.cfi_startproc
  29              		@ args = 0, pretend = 0, frame = 0
  30              		@ frame_needed = 0, uses_anonymous_args = 0
  31              	.LVL0:
  32 0000 10B5     		push	{r4, lr}
  33              	.LCFI0:
  34              		.cfi_def_cfa_offset 8
  35              		.cfi_offset 14, -4
  36              		.cfi_offset 4, -8
  37              	.LBB34:
  38              		.loc 1 132 0
  39 0002 2023     		movs	r3, #32
  40              	.LVL1:
  41              	.LBE34:
  42              		.loc 1 129 0
  43 0004 0446     		mov	r4, r0
  44              	.LVL2:
  45              	.LBB35:
  46              		.loc 1 132 0
  47              	@ 132 "../../ChibiOS/os/kernel/src/chschd.c" 1
  48 0006 83F31188 		msr     BASEPRI, r3
  49              	@ 0 "" 2
  50              	.LVL3:
  51              		.thumb
  52              	.LBE35:
  53 000a FFF7FEFF 		bl	dbg_check_lock_from_isr
  54              	.LVL4:
  55              		.loc 1 133 0
  56 000e 94F82030 		ldrb	r3, [r4, #32]	@ zero_extendqisi2
  57 0012 0D2B     		cmp	r3, #13
ARM GAS  /tmp/ccuOaQcJ.s 			page 2


  58 0014 11D8     		bhi	.L2
  59 0016 DFE803F0 		tbb	[pc, r3]
  60              	.L6:
  61 001a 2B       		.byte	(.L12-.L6)/2
  62 001b 10       		.byte	(.L2-.L6)/2
  63 001c 10       		.byte	(.L2-.L6)/2
  64 001d 07       		.byte	(.L4-.L6)/2
  65 001e 10       		.byte	(.L2-.L6)/2
  66 001f 0B       		.byte	(.L5-.L6)/2
  67 0020 10       		.byte	(.L2-.L6)/2
  68 0021 10       		.byte	(.L2-.L6)/2
  69 0022 10       		.byte	(.L2-.L6)/2
  70 0023 10       		.byte	(.L2-.L6)/2
  71 0024 10       		.byte	(.L2-.L6)/2
  72 0025 10       		.byte	(.L2-.L6)/2
  73 0026 10       		.byte	(.L2-.L6)/2
  74 0027 0B       		.byte	(.L5-.L6)/2
  75              		.align	1
  76              	.L4:
  77              	.LVL5:
  78              		.loc 1 143 0
  79 0028 A06A     		ldr	r0, [r4, #40]
  80 002a 8168     		ldr	r1, [r0, #8]
  81 002c 4A1C     		adds	r2, r1, #1
  82 002e 8260     		str	r2, [r0, #8]
  83              	.L5:
  84              	.LVL6:
  85              	.LBB36:
  86              	.LBB37:
  87              		.file 2 "../../ChibiOS/os/kernel/include/chinline.h"
  88              		.loc 2 68 0
  89 0030 94E80C00 		ldmia	r4, {r2, r3}
  90 0034 1A60     		str	r2, [r3, #0]
  91              		.loc 2 69 0
  92 0036 2268     		ldr	r2, [r4, #0]
  93 0038 5360     		str	r3, [r2, #4]
  94              	.LVL7:
  95              	.L2:
  96              	.LBE37:
  97              	.LBE36:
  98              		.loc 1 156 0
  99 003a 4FF0FF33 		mov	r3, #-1
 100 003e A362     		str	r3, [r4, #40]
 101              	.LVL8:
 102              	.LBB38:
 103              	.LBB39:
 104              		.loc 1 77 0
 105 0040 FFF7FEFF 		bl	chDbgCheckClassI
 106              		.loc 1 80 0
 107 0044 94F82030 		ldrb	r3, [r4, #32]	@ zero_extendqisi2
 108 0048 0BB1     		cbz	r3, .L8
 109 004a 0E2B     		cmp	r3, #14
 110 004c 02D1     		bne	.L9
 111              	.L8:
 112 004e 0B48     		ldr	r0, .L14
 113 0050 FFF7FEFF 		bl	chDbgPanic
 114              	.L9:
ARM GAS  /tmp/ccuOaQcJ.s 			page 3


 115              		.loc 1 85 0
 116 0054 0020     		movs	r0, #0
 117 0056 A168     		ldr	r1, [r4, #8]
 118              		.loc 1 86 0
 119 0058 094B     		ldr	r3, .L14+4
 120              		.loc 1 85 0
 121 005a 84F82000 		strb	r0, [r4, #32]
 122              	.LVL9:
 123              	.L10:
 124              		.loc 1 88 0
 125 005e 1B68     		ldr	r3, [r3, #0]
 126              	.LVL10:
 127              		.loc 1 89 0
 128 0060 9A68     		ldr	r2, [r3, #8]
 129 0062 8A42     		cmp	r2, r1
 130 0064 FBD2     		bcs	.L10
 131              		.loc 1 92 0
 132 0066 5968     		ldr	r1, [r3, #4]
 133              		.loc 1 91 0
 134 0068 2360     		str	r3, [r4, #0]
 135              		.loc 1 92 0
 136 006a 6160     		str	r1, [r4, #4]
 137              		.loc 1 93 0
 138 006c 0C60     		str	r4, [r1, #0]
 139 006e 5C60     		str	r4, [r3, #4]
 140              	.LVL11:
 141              	.L12:
 142              	.LBE39:
 143              	.LBE38:
 144              		.loc 1 158 0
 145 0070 FFF7FEFF 		bl	dbg_check_unlock_from_isr
 146              	.LBB40:
 147 0074 0023     		movs	r3, #0
 148              	.LVL12:
 149              	@ 158 "../../ChibiOS/os/kernel/src/chschd.c" 1
 150 0076 83F31188 		msr     BASEPRI, r3
 151              	@ 0 "" 2
 152              	.LVL13:
 153              		.thumb
 154 007a 10BD     		pop	{r4, pc}
 155              	.L15:
 156              		.align	2
 157              	.L14:
 158 007c 00000000 		.word	.LC0
 159 0080 00000000 		.word	.LANCHOR0
 160              	.LBE40:
 161              		.cfi_endproc
 162              	.LFE10:
 163              		.size	wakeup, .-wakeup
 164 0084 AFF30080 		.section	.text._scheduler_init,"ax",%progbits
 164      AFF30080 
 164      AFF30080 
 165              		.align	2
 166              		.p2align 4,,15
 167              		.global	_scheduler_init
 168              		.thumb
 169              		.thumb_func
ARM GAS  /tmp/ccuOaQcJ.s 			page 4


 170              		.type	_scheduler_init, %function
 171              	_scheduler_init:
 172              	.LFB7:
 173              		.loc 1 48 0
 174              		.cfi_startproc
 175              		@ args = 0, pretend = 0, frame = 0
 176              		@ frame_needed = 0, uses_anonymous_args = 0
 177              		@ link register save eliminated.
 178              		.loc 1 50 0
 179 0000 40F20003 		movw	r3, #:lower16:.LANCHOR0
 180 0004 C0F20003 		movt	r3, #:upper16:.LANCHOR0
 181              		.loc 1 51 0
 182 0008 0022     		movs	r2, #0
 183              		.loc 1 50 0
 184 000a 5B60     		str	r3, [r3, #4]
 185 000c 1B60     		str	r3, [r3, #0]
 186              		.loc 1 51 0
 187 000e 9A60     		str	r2, [r3, #8]
 188              		.loc 1 53 0
 189 0010 5B61     		str	r3, [r3, #20]
 190 0012 1B61     		str	r3, [r3, #16]
 191              		.loc 1 55 0
 192 0014 7047     		bx	lr
 193              		.cfi_endproc
 194              	.LFE7:
 195              		.size	_scheduler_init, .-_scheduler_init
 196 0016 00BFAFF3 		.section	.text.chSchReadyI,"ax",%progbits
 196      0080AFF3 
 196      0080
 197              		.align	2
 198              		.p2align 4,,15
 199              		.global	chSchReadyI
 200              		.thumb
 201              		.thumb_func
 202              		.type	chSchReadyI, %function
 203              	chSchReadyI:
 204              	.LFB8:
 205              		.loc 1 74 0
 206              		.cfi_startproc
 207              		@ args = 0, pretend = 0, frame = 0
 208              		@ frame_needed = 0, uses_anonymous_args = 0
 209              	.LVL14:
 210 0000 10B5     		push	{r4, lr}
 211              	.LCFI1:
 212              		.cfi_def_cfa_offset 8
 213              		.cfi_offset 14, -4
 214              		.cfi_offset 4, -8
 215              		.loc 1 74 0
 216 0002 0446     		mov	r4, r0
 217              		.loc 1 77 0
 218 0004 FFF7FEFF 		bl	chDbgCheckClassI
 219              	.LVL15:
 220              		.loc 1 80 0
 221 0008 94F82030 		ldrb	r3, [r4, #32]	@ zero_extendqisi2
 222 000c 8BB1     		cbz	r3, .L18
 223              		.loc 1 80 0 is_stmt 0 discriminator 2
 224 000e 0E2B     		cmp	r3, #14
ARM GAS  /tmp/ccuOaQcJ.s 			page 5


 225 0010 0FD0     		beq	.L18
 226              	.L19:
 227              		.loc 1 85 0 is_stmt 1
 228 0012 0022     		movs	r2, #0
 229 0014 A168     		ldr	r1, [r4, #8]
 230              		.loc 1 86 0
 231 0016 094B     		ldr	r3, .L22
 232              		.loc 1 85 0
 233 0018 84F82020 		strb	r2, [r4, #32]
 234              	.LVL16:
 235              	.L20:
 236              		.loc 1 88 0 discriminator 1
 237 001c 1B68     		ldr	r3, [r3, #0]
 238              	.LVL17:
 239              		.loc 1 89 0 discriminator 1
 240 001e 9868     		ldr	r0, [r3, #8]
 241 0020 8842     		cmp	r0, r1
 242 0022 FBD2     		bcs	.L20
 243              		.loc 1 92 0
 244 0024 5968     		ldr	r1, [r3, #4]
 245              		.loc 1 91 0
 246 0026 2360     		str	r3, [r4, #0]
 247              		.loc 1 92 0
 248 0028 6160     		str	r1, [r4, #4]
 249              		.loc 1 93 0
 250 002a 0C60     		str	r4, [r1, #0]
 251 002c 5C60     		str	r4, [r3, #4]
 252              		.loc 1 95 0
 253 002e 2046     		mov	r0, r4
 254 0030 10BD     		pop	{r4, pc}
 255              	.LVL18:
 256              	.L18:
 257              		.loc 1 80 0 discriminator 1
 258 0032 0348     		ldr	r0, .L22+4
 259 0034 FFF7FEFF 		bl	chDbgPanic
 260 0038 EBE7     		b	.L19
 261              	.L23:
 262 003a 00BF     		.align	2
 263              	.L22:
 264 003c 00000000 		.word	.LANCHOR0
 265 0040 00000000 		.word	.LC0
 266              		.cfi_endproc
 267              	.LFE8:
 268              		.size	chSchReadyI, .-chSchReadyI
 269 0044 AFF30080 		.section	.text.chSchGoSleepS,"ax",%progbits
 269      AFF30080 
 269      AFF30080 
 270              		.align	2
 271              		.p2align 4,,15
 272              		.global	chSchGoSleepS
 273              		.thumb
 274              		.thumb_func
 275              		.type	chSchGoSleepS, %function
 276              	chSchGoSleepS:
 277              	.LFB9:
 278              		.loc 1 108 0
 279              		.cfi_startproc
ARM GAS  /tmp/ccuOaQcJ.s 			page 6


 280              		@ args = 0, pretend = 0, frame = 0
 281              		@ frame_needed = 0, uses_anonymous_args = 0
 282              	.LVL19:
 283 0000 70B5     		push	{r4, r5, r6, lr}
 284              	.LCFI2:
 285              		.cfi_def_cfa_offset 16
 286              		.cfi_offset 14, -4
 287              		.cfi_offset 6, -8
 288              		.cfi_offset 5, -12
 289              		.cfi_offset 4, -16
 290              		.loc 1 113 0
 291 0002 114C     		ldr	r4, .L26
 292              		.loc 1 108 0
 293 0004 0646     		mov	r6, r0
 294              		.loc 1 111 0
 295 0006 FFF7FEFF 		bl	chDbgCheckClassS
 296              	.LVL20:
 297              	.LBB44:
 298              	.LBB45:
 299              		.loc 2 53 0
 300 000a 2368     		ldr	r3, [r4, #0]
 301              	.LBE45:
 302              	.LBE44:
 303              		.loc 1 113 0
 304 000c A569     		ldr	r5, [r4, #24]
 305              	.LVL21:
 306              	.LBB49:
 307              	.LBB46:
 308              		.loc 2 55 0
 309 000e 1A68     		ldr	r2, [r3, #0]
 310              	.LBE46:
 311              	.LBE49:
 312              		.loc 1 117 0
 313 0010 1420     		movs	r0, #20
 314              		.loc 1 120 0
 315 0012 0121     		movs	r1, #1
 316              	.LBB50:
 317              	.LBB47:
 318              		.loc 2 55 0
 319 0014 5460     		str	r4, [r2, #4]
 320              	.LBE47:
 321              	.LBE50:
 322              		.loc 1 113 0
 323 0016 85F82060 		strb	r6, [r5, #32]
 324              		.loc 1 117 0
 325 001a 85F82300 		strb	r0, [r5, #35]
 326              	.LVL22:
 327              		.loc 1 120 0
 328 001e 83F82010 		strb	r1, [r3, #32]
 329              		.loc 1 121 0
 330 0022 2846     		mov	r0, r5
 331              	.LBB51:
 332              	.LBB48:
 333              		.loc 2 55 0
 334 0024 2260     		str	r2, [r4, #0]
 335              	.LBE48:
 336              	.LBE51:
ARM GAS  /tmp/ccuOaQcJ.s 			page 7


 337              		.loc 1 119 0
 338 0026 A361     		str	r3, [r4, #24]
 339              		.loc 1 121 0
 340 0028 FFF7FEFF 		bl	dbg_trace
 341              	.LVL23:
 342              	.LBB52:
 343 002c EA69     		ldr	r2, [r5, #28]
 344 002e ADF12403 		sub	r3, sp, #36
 345 0032 9A42     		cmp	r2, r3
 346 0034 02D9     		bls	.L25
 347              		.loc 1 121 0 is_stmt 0 discriminator 1
 348 0036 0548     		ldr	r0, .L26+4
 349 0038 FFF7FEFF 		bl	chDbgPanic
 350              	.L25:
 351              		.loc 1 121 0 discriminator 2
 352 003c A069     		ldr	r0, [r4, #24]
 353 003e 2946     		mov	r1, r5
 354              	.LBE52:
 355              		.loc 1 122 0 is_stmt 1 discriminator 2
 356 0040 BDE87040 		pop	{r4, r5, r6, lr}
 357              	.LBB53:
 358              		.loc 1 121 0 discriminator 2
 359 0044 FFF7FEBF 		b	_port_switch
 360              	.L27:
 361              		.align	2
 362              	.L26:
 363 0048 00000000 		.word	.LANCHOR0
 364 004c 14000000 		.word	.LC1
 365              	.LBE53:
 366              		.cfi_endproc
 367              	.LFE9:
 368              		.size	chSchGoSleepS, .-chSchGoSleepS
 369              		.section	.text.chSchGoSleepTimeoutS,"ax",%progbits
 370              		.align	2
 371              		.p2align 4,,15
 372              		.global	chSchGoSleepTimeoutS
 373              		.thumb
 374              		.thumb_func
 375              		.type	chSchGoSleepTimeoutS, %function
 376              	chSchGoSleepTimeoutS:
 377              	.LFB11:
 378              		.loc 1 182 0
 379              		.cfi_startproc
 380              		@ args = 0, pretend = 0, frame = 24
 381              		@ frame_needed = 0, uses_anonymous_args = 0
 382              	.LVL24:
 383 0000 70B5     		push	{r4, r5, r6, lr}
 384              	.LCFI3:
 385              		.cfi_def_cfa_offset 16
 386              		.cfi_offset 14, -4
 387              		.cfi_offset 6, -8
 388              		.cfi_offset 5, -12
 389              		.cfi_offset 4, -16
 390 0002 0E46     		mov	r6, r1
 391 0004 86B0     		sub	sp, sp, #24
 392              	.LCFI4:
 393              		.cfi_def_cfa_offset 40
ARM GAS  /tmp/ccuOaQcJ.s 			page 8


 394              		.loc 1 182 0
 395 0006 0546     		mov	r5, r0
 396              		.loc 1 184 0
 397 0008 FFF7FEFF 		bl	chDbgCheckClassS
 398              	.LVL25:
 399              		.loc 1 186 0
 400 000c 731C     		adds	r3, r6, #1
 401              	.LBB65:
 402              		.loc 1 189 0
 403 000e 2B4C     		ldr	r4, .L35
 404              	.LBE65:
 405              		.loc 1 186 0
 406 0010 2ED0     		beq	.L29
 407              	.LBB80:
 408              		.loc 1 189 0
 409 0012 3146     		mov	r1, r6
 410 0014 A369     		ldr	r3, [r4, #24]
 411 0016 01A8     		add	r0, sp, #4
 412 0018 294A     		ldr	r2, .L35+4
 413 001a FFF7FEFF 		bl	chVTSetI
 414              	.LVL26:
 415              	.LBB66:
 416              	.LBB67:
 417              		.loc 1 111 0
 418 001e FFF7FEFF 		bl	chDbgCheckClassS
 419              	.LBB68:
 420              	.LBB69:
 421              		.loc 2 53 0
 422 0022 2368     		ldr	r3, [r4, #0]
 423              	.LBE69:
 424              	.LBE68:
 425              		.loc 1 113 0
 426 0024 A669     		ldr	r6, [r4, #24]
 427              	.LVL27:
 428              	.LBB73:
 429              	.LBB70:
 430              		.loc 2 55 0
 431 0026 1A68     		ldr	r2, [r3, #0]
 432              	.LBE70:
 433              	.LBE73:
 434              		.loc 1 117 0
 435 0028 1420     		movs	r0, #20
 436              		.loc 1 120 0
 437 002a 0121     		movs	r1, #1
 438              	.LBB74:
 439              	.LBB71:
 440              		.loc 2 55 0
 441 002c 5460     		str	r4, [r2, #4]
 442              	.LBE71:
 443              	.LBE74:
 444              		.loc 1 113 0
 445 002e 86F82050 		strb	r5, [r6, #32]
 446              		.loc 1 117 0
 447 0032 86F82300 		strb	r0, [r6, #35]
 448              	.LVL28:
 449              		.loc 1 120 0
 450 0036 83F82010 		strb	r1, [r3, #32]
ARM GAS  /tmp/ccuOaQcJ.s 			page 9


 451              		.loc 1 121 0
 452 003a 3046     		mov	r0, r6
 453              	.LBB75:
 454              	.LBB72:
 455              		.loc 2 55 0
 456 003c 2260     		str	r2, [r4, #0]
 457              	.LBE72:
 458              	.LBE75:
 459              		.loc 1 119 0
 460 003e A361     		str	r3, [r4, #24]
 461              		.loc 1 121 0
 462 0040 FFF7FEFF 		bl	dbg_trace
 463              	.LVL29:
 464              	.LBB76:
 465 0044 F269     		ldr	r2, [r6, #28]
 466 0046 ADF12403 		sub	r3, sp, #36
 467 004a 9A42     		cmp	r2, r3
 468 004c 0CD8     		bhi	.L33
 469              	.L30:
 470 004e A069     		ldr	r0, [r4, #24]
 471 0050 3146     		mov	r1, r6
 472 0052 FFF7FEFF 		bl	_port_switch
 473              	.LBE76:
 474              	.LBE67:
 475              	.LBE66:
 476              		.loc 1 191 0
 477 0056 049B     		ldr	r3, [sp, #16]
 478 0058 13B1     		cbz	r3, .L31
 479              		.loc 1 192 0
 480 005a 01A8     		add	r0, sp, #4
 481 005c FFF7FEFF 		bl	chVTResetI
 482              	.LVL30:
 483              	.L31:
 484              	.LBE80:
 485              		.loc 1 196 0
 486 0060 A369     		ldr	r3, [r4, #24]
 487 0062 986A     		ldr	r0, [r3, #40]
 488              		.loc 1 197 0
 489 0064 06B0     		add	sp, sp, #24
 490 0066 70BD     		pop	{r4, r5, r6, pc}
 491              	.LVL31:
 492              	.L33:
 493              	.LBB81:
 494              	.LBB79:
 495              	.LBB78:
 496              	.LBB77:
 497              		.loc 1 121 0
 498 0068 1648     		ldr	r0, .L35+8
 499 006a FFF7FEFF 		bl	chDbgPanic
 500 006e EEE7     		b	.L30
 501              	.LVL32:
 502              	.L29:
 503              	.LBE77:
 504              	.LBE78:
 505              	.LBE79:
 506              	.LBE81:
 507              	.LBB82:
ARM GAS  /tmp/ccuOaQcJ.s 			page 10


 508              	.LBB83:
 509              		.loc 1 111 0
 510 0070 FFF7FEFF 		bl	chDbgCheckClassS
 511              	.LBB84:
 512              	.LBB85:
 513              		.loc 2 53 0
 514 0074 2368     		ldr	r3, [r4, #0]
 515              	.LBE85:
 516              	.LBE84:
 517              		.loc 1 113 0
 518 0076 A669     		ldr	r6, [r4, #24]
 519              	.LVL33:
 520              	.LBB89:
 521              	.LBB86:
 522              		.loc 2 55 0
 523 0078 1A68     		ldr	r2, [r3, #0]
 524              	.LBE86:
 525              	.LBE89:
 526              		.loc 1 117 0
 527 007a 1421     		movs	r1, #20
 528              		.loc 1 120 0
 529 007c 0120     		movs	r0, #1
 530              	.LBB90:
 531              	.LBB87:
 532              		.loc 2 55 0
 533 007e 5460     		str	r4, [r2, #4]
 534              	.LBE87:
 535              	.LBE90:
 536              		.loc 1 113 0
 537 0080 86F82050 		strb	r5, [r6, #32]
 538              		.loc 1 117 0
 539 0084 86F82310 		strb	r1, [r6, #35]
 540              	.LVL34:
 541              		.loc 1 120 0
 542 0088 83F82000 		strb	r0, [r3, #32]
 543              		.loc 1 121 0
 544 008c 3046     		mov	r0, r6
 545              	.LBB91:
 546              	.LBB88:
 547              		.loc 2 55 0
 548 008e 2260     		str	r2, [r4, #0]
 549              	.LBE88:
 550              	.LBE91:
 551              		.loc 1 119 0
 552 0090 A361     		str	r3, [r4, #24]
 553              		.loc 1 121 0
 554 0092 FFF7FEFF 		bl	dbg_trace
 555              	.LVL35:
 556              	.LBB92:
 557 0096 F269     		ldr	r2, [r6, #28]
 558 0098 ADF12401 		sub	r1, sp, #36
 559 009c 8A42     		cmp	r2, r1
 560 009e 04D8     		bhi	.L34
 561 00a0 A069     		ldr	r0, [r4, #24]
 562 00a2 3146     		mov	r1, r6
 563 00a4 FFF7FEFF 		bl	_port_switch
 564 00a8 DAE7     		b	.L31
ARM GAS  /tmp/ccuOaQcJ.s 			page 11


 565              	.L34:
 566 00aa 0648     		ldr	r0, .L35+8
 567 00ac FFF7FEFF 		bl	chDbgPanic
 568 00b0 A069     		ldr	r0, [r4, #24]
 569 00b2 3146     		mov	r1, r6
 570 00b4 FFF7FEFF 		bl	_port_switch
 571 00b8 D2E7     		b	.L31
 572              	.L36:
 573 00ba 00BF     		.align	2
 574              	.L35:
 575 00bc 00000000 		.word	.LANCHOR0
 576 00c0 00000000 		.word	wakeup
 577 00c4 14000000 		.word	.LC1
 578              	.LBE92:
 579              	.LBE83:
 580              	.LBE82:
 581              		.cfi_endproc
 582              	.LFE11:
 583              		.size	chSchGoSleepTimeoutS, .-chSchGoSleepTimeoutS
 584 00c8 AFF30080 		.section	.text.chSchWakeupS,"ax",%progbits
 584      AFF30080 
 585              		.align	2
 586              		.p2align 4,,15
 587              		.global	chSchWakeupS
 588              		.thumb
 589              		.thumb_func
 590              		.type	chSchWakeupS, %function
 591              	chSchWakeupS:
 592              	.LFB12:
 593              		.loc 1 218 0
 594              		.cfi_startproc
 595              		@ args = 0, pretend = 0, frame = 0
 596              		@ frame_needed = 0, uses_anonymous_args = 0
 597              	.LVL36:
 598 0000 F8B5     		push	{r3, r4, r5, r6, r7, lr}
 599              	.LCFI5:
 600              		.cfi_def_cfa_offset 24
 601              		.cfi_offset 14, -4
 602              		.cfi_offset 7, -8
 603              		.cfi_offset 6, -12
 604              		.cfi_offset 5, -16
 605              		.cfi_offset 4, -20
 606              		.cfi_offset 3, -24
 607              		.loc 1 227 0
 608 0002 2A4D     		ldr	r5, .L51
 609              		.loc 1 218 0
 610 0004 0446     		mov	r4, r0
 611 0006 0F46     		mov	r7, r1
 612              		.loc 1 220 0
 613 0008 FFF7FEFF 		bl	chDbgCheckClassS
 614              	.LVL37:
 615              		.loc 1 227 0
 616 000c AE69     		ldr	r6, [r5, #24]
 617 000e A268     		ldr	r2, [r4, #8]
 618 0010 B368     		ldr	r3, [r6, #8]
 619              		.loc 1 222 0
 620 0012 A762     		str	r7, [r4, #40]
ARM GAS  /tmp/ccuOaQcJ.s 			page 12


 621              		.loc 1 227 0
 622 0014 9A42     		cmp	r2, r3
 623 0016 2BD9     		bls	.L49
 624              	.LVL38:
 625              	.LBB99:
 626              	.LBB100:
 627              	.LBB101:
 628              		.loc 1 77 0
 629 0018 FFF7FEFF 		bl	chDbgCheckClassI
 630              	.LVL39:
 631              		.loc 1 80 0
 632 001c 96F82030 		ldrb	r3, [r6, #32]	@ zero_extendqisi2
 633 0020 002B     		cmp	r3, #0
 634 0022 21D0     		beq	.L43
 635 0024 0E2B     		cmp	r3, #14
 636 0026 1FD0     		beq	.L43
 637              	.L44:
 638              		.loc 1 85 0
 639 0028 0020     		movs	r0, #0
 640 002a B168     		ldr	r1, [r6, #8]
 641              		.loc 1 86 0
 642 002c 1F4B     		ldr	r3, .L51
 643              		.loc 1 85 0
 644 002e 86F82000 		strb	r0, [r6, #32]
 645              	.LVL40:
 646              	.L45:
 647              		.loc 1 88 0
 648 0032 1B68     		ldr	r3, [r3, #0]
 649              	.LVL41:
 650              		.loc 1 89 0
 651 0034 9A68     		ldr	r2, [r3, #8]
 652 0036 9142     		cmp	r1, r2
 653 0038 FBD9     		bls	.L45
 654              		.loc 1 92 0
 655 003a 5868     		ldr	r0, [r3, #4]
 656              		.loc 1 91 0
 657 003c 3360     		str	r3, [r6, #0]
 658              		.loc 1 92 0
 659 003e 7060     		str	r0, [r6, #4]
 660              		.loc 1 93 0
 661 0040 5E60     		str	r6, [r3, #4]
 662              	.LBE101:
 663              	.LBE100:
 664              		.loc 1 232 0
 665 0042 0123     		movs	r3, #1
 666              	.LVL42:
 667              	.LBB104:
 668              	.LBB102:
 669              		.loc 1 93 0
 670 0044 0660     		str	r6, [r0, #0]
 671              	.LBE102:
 672              	.LBE104:
 673              		.loc 1 232 0
 674 0046 84F82030 		strb	r3, [r4, #32]
 675              		.loc 1 233 0
 676 004a 3046     		mov	r0, r6
 677              		.loc 1 231 0
ARM GAS  /tmp/ccuOaQcJ.s 			page 13


 678 004c AC61     		str	r4, [r5, #24]
 679              		.loc 1 233 0
 680 004e FFF7FEFF 		bl	dbg_trace
 681              	.LVL43:
 682              	.LBB105:
 683 0052 F169     		ldr	r1, [r6, #28]
 684 0054 ADF1240C 		sub	ip, sp, #36
 685 0058 6145     		cmp	r1, ip
 686 005a 23D8     		bhi	.L50
 687              	.L46:
 688              		.loc 1 233 0 is_stmt 0 discriminator 2
 689 005c 2046     		mov	r0, r4
 690 005e 3146     		mov	r1, r6
 691              	.LBE105:
 692              	.LBE99:
 693              		.loc 1 235 0 is_stmt 1 discriminator 2
 694 0060 BDE8F840 		pop	{r3, r4, r5, r6, r7, lr}
 695              	.LBB109:
 696              	.LBB106:
 697              		.loc 1 233 0 discriminator 2
 698 0064 FFF7FEBF 		b	_port_switch
 699              	.L43:
 700              	.LBE106:
 701              	.LBB107:
 702              	.LBB103:
 703              		.loc 1 80 0
 704 0068 1148     		ldr	r0, .L51+4
 705 006a FFF7FEFF 		bl	chDbgPanic
 706 006e DBE7     		b	.L44
 707              	.LVL44:
 708              	.L49:
 709              	.LBE103:
 710              	.LBE107:
 711              	.LBE109:
 712              	.LBB110:
 713              	.LBB111:
 714              		.loc 1 77 0
 715 0070 FFF7FEFF 		bl	chDbgCheckClassI
 716              		.loc 1 80 0
 717 0074 94F82030 		ldrb	r3, [r4, #32]	@ zero_extendqisi2
 718 0078 83B1     		cbz	r3, .L39
 719 007a 0E2B     		cmp	r3, #14
 720 007c 0ED0     		beq	.L39
 721              	.L40:
 722              		.loc 1 85 0
 723 007e 0020     		movs	r0, #0
 724 0080 A168     		ldr	r1, [r4, #8]
 725              		.loc 1 86 0
 726 0082 0A4B     		ldr	r3, .L51
 727              		.loc 1 85 0
 728 0084 84F82000 		strb	r0, [r4, #32]
 729              	.LVL45:
 730              	.L41:
 731              		.loc 1 88 0
 732 0088 1B68     		ldr	r3, [r3, #0]
 733              	.LVL46:
 734              		.loc 1 89 0
ARM GAS  /tmp/ccuOaQcJ.s 			page 14


 735 008a 9A68     		ldr	r2, [r3, #8]
 736 008c 8A42     		cmp	r2, r1
 737 008e FBD2     		bcs	.L41
 738              		.loc 1 92 0
 739 0090 5968     		ldr	r1, [r3, #4]
 740              		.loc 1 91 0
 741 0092 2360     		str	r3, [r4, #0]
 742              		.loc 1 92 0
 743 0094 6160     		str	r1, [r4, #4]
 744              		.loc 1 93 0
 745 0096 0C60     		str	r4, [r1, #0]
 746 0098 5C60     		str	r4, [r3, #4]
 747              	.LBE111:
 748              	.LBE110:
 749              		.loc 1 235 0
 750 009a F8BD     		pop	{r3, r4, r5, r6, r7, pc}
 751              	.LVL47:
 752              	.L39:
 753              	.LBB113:
 754              	.LBB112:
 755              		.loc 1 80 0
 756 009c 0448     		ldr	r0, .L51+4
 757 009e FFF7FEFF 		bl	chDbgPanic
 758 00a2 ECE7     		b	.L40
 759              	.LVL48:
 760              	.L50:
 761              	.LBE112:
 762              	.LBE113:
 763              	.LBB114:
 764              	.LBB108:
 765              		.loc 1 233 0 discriminator 1
 766 00a4 0348     		ldr	r0, .L51+8
 767 00a6 FFF7FEFF 		bl	chDbgPanic
 768 00aa D7E7     		b	.L46
 769              	.L52:
 770              		.align	2
 771              	.L51:
 772 00ac 00000000 		.word	.LANCHOR0
 773 00b0 00000000 		.word	.LC0
 774 00b4 14000000 		.word	.LC1
 775              	.LBE108:
 776              	.LBE114:
 777              		.cfi_endproc
 778              	.LFE12:
 779              		.size	chSchWakeupS, .-chSchWakeupS
 780 00b8 AFF30080 		.section	.text.chSchRescheduleS,"ax",%progbits
 780      AFF30080 
 781              		.align	2
 782              		.p2align 4,,15
 783              		.global	chSchRescheduleS
 784              		.thumb
 785              		.thumb_func
 786              		.type	chSchRescheduleS, %function
 787              	chSchRescheduleS:
 788              	.LFB13:
 789              		.loc 1 246 0
 790              		.cfi_startproc
ARM GAS  /tmp/ccuOaQcJ.s 			page 15


 791              		@ args = 0, pretend = 0, frame = 0
 792              		@ frame_needed = 0, uses_anonymous_args = 0
 793 0000 38B5     		push	{r3, r4, r5, lr}
 794              	.LCFI6:
 795              		.cfi_def_cfa_offset 16
 796              		.cfi_offset 14, -4
 797              		.cfi_offset 5, -8
 798              		.cfi_offset 4, -12
 799              		.cfi_offset 3, -16
 800              		.loc 1 250 0
 801 0002 174D     		ldr	r5, .L59
 802              		.loc 1 248 0
 803 0004 FFF7FEFF 		bl	chDbgCheckClassS
 804              		.loc 1 250 0
 805 0008 2B68     		ldr	r3, [r5, #0]
 806 000a AC69     		ldr	r4, [r5, #24]
 807 000c 9968     		ldr	r1, [r3, #8]
 808 000e A268     		ldr	r2, [r4, #8]
 809 0010 9142     		cmp	r1, r2
 810 0012 00D8     		bhi	.L58
 811 0014 38BD     		pop	{r3, r4, r5, pc}
 812              	.L58:
 813              	.LVL49:
 814              	.LBB120:
 815              	.LBB121:
 816              	.LBB122:
 817              	.LBB123:
 818              		.loc 2 55 0
 819 0016 1968     		ldr	r1, [r3, #0]
 820              	.LBE123:
 821              	.LBE122:
 822              		.loc 1 328 0
 823 0018 0120     		movs	r0, #1
 824 001a 83F82000 		strb	r0, [r3, #32]
 825              		.loc 1 330 0
 826 001e 0020     		movs	r0, #0
 827              	.LBB125:
 828              	.LBB124:
 829              		.loc 2 55 0
 830 0020 4D60     		str	r5, [r1, #4]
 831 0022 2960     		str	r1, [r5, #0]
 832              	.LBE124:
 833              	.LBE125:
 834              		.loc 1 327 0
 835 0024 AB61     		str	r3, [r5, #24]
 836              		.loc 1 330 0
 837 0026 84F82000 		strb	r0, [r4, #32]
 838              	.LVL50:
 839              	.L55:
 840 002a 1B68     		ldr	r3, [r3, #0]
 841              	.LVL51:
 842              		.loc 1 334 0
 843 002c 9968     		ldr	r1, [r3, #8]
 844 002e 8A42     		cmp	r2, r1
 845 0030 FBD3     		bcc	.L55
 846              		.loc 1 337 0
 847 0032 5868     		ldr	r0, [r3, #4]
ARM GAS  /tmp/ccuOaQcJ.s 			page 16


 848              		.loc 1 336 0
 849 0034 2360     		str	r3, [r4, #0]
 850              		.loc 1 337 0
 851 0036 6060     		str	r0, [r4, #4]
 852              		.loc 1 338 0
 853 0038 0460     		str	r4, [r0, #0]
 854 003a 5C60     		str	r4, [r3, #4]
 855              		.loc 1 340 0
 856 003c 2046     		mov	r0, r4
 857 003e FFF7FEFF 		bl	dbg_trace
 858              	.LVL52:
 859              	.LBB126:
 860 0042 E269     		ldr	r2, [r4, #28]
 861 0044 ADF12403 		sub	r3, sp, #36
 862 0048 9A42     		cmp	r2, r3
 863 004a 02D9     		bls	.L56
 864 004c 0548     		ldr	r0, .L59+4
 865 004e FFF7FEFF 		bl	chDbgPanic
 866              	.L56:
 867 0052 A869     		ldr	r0, [r5, #24]
 868 0054 2146     		mov	r1, r4
 869              	.LBE126:
 870              	.LBE121:
 871              	.LBE120:
 872              		.loc 1 252 0
 873 0056 BDE83840 		pop	{r3, r4, r5, lr}
 874              	.LBB129:
 875              	.LBB128:
 876              	.LBB127:
 877              		.loc 1 340 0
 878 005a FFF7FEBF 		b	_port_switch
 879              	.L60:
 880 005e 00BF     		.align	2
 881              	.L59:
 882 0060 00000000 		.word	.LANCHOR0
 883 0064 14000000 		.word	.LC1
 884              	.LBE127:
 885              	.LBE128:
 886              	.LBE129:
 887              		.cfi_endproc
 888              	.LFE13:
 889              		.size	chSchRescheduleS, .-chSchRescheduleS
 890 0068 AFF30080 		.section	.text.chSchDoRescheduleBehind,"ax",%progbits
 890      AFF30080 
 891              		.align	2
 892              		.p2align 4,,15
 893              		.global	chSchDoRescheduleBehind
 894              		.thumb
 895              		.thumb_func
 896              		.type	chSchDoRescheduleBehind, %function
 897              	chSchDoRescheduleBehind:
 898              	.LFB14:
 899              		.loc 1 297 0
 900              		.cfi_startproc
 901              		@ args = 0, pretend = 0, frame = 0
 902              		@ frame_needed = 0, uses_anonymous_args = 0
 903 0000 38B5     		push	{r3, r4, r5, lr}
ARM GAS  /tmp/ccuOaQcJ.s 			page 17


 904              	.LCFI7:
 905              		.cfi_def_cfa_offset 16
 906              		.cfi_offset 14, -4
 907              		.cfi_offset 5, -8
 908              		.cfi_offset 4, -12
 909              		.cfi_offset 3, -16
 910              		.loc 1 300 0
 911 0002 1C4D     		ldr	r5, .L67
 912              		.loc 1 303 0
 913 0004 0120     		movs	r0, #1
 914              	.LBB135:
 915              	.LBB136:
 916              		.loc 2 53 0
 917 0006 2B68     		ldr	r3, [r5, #0]
 918              	.LBE136:
 919              	.LBE135:
 920              		.loc 1 300 0
 921 0008 AC69     		ldr	r4, [r5, #24]
 922              	.LVL53:
 923              	.LBB140:
 924              	.LBB137:
 925              		.loc 2 55 0
 926 000a 1A68     		ldr	r2, [r3, #0]
 927              	.LBE137:
 928              	.LBE140:
 929              		.loc 1 305 0
 930 000c 1421     		movs	r1, #20
 931              	.LBB141:
 932              	.LBB138:
 933              		.loc 2 55 0
 934 000e 5560     		str	r5, [r2, #4]
 935              	.LBE138:
 936              	.LBE141:
 937              		.loc 1 303 0
 938 0010 83F82000 		strb	r0, [r3, #32]
 939              		.loc 1 305 0
 940 0014 84F82310 		strb	r1, [r4, #35]
 941              	.LVL54:
 942              		.loc 1 302 0
 943 0018 AB61     		str	r3, [r5, #24]
 944              	.LBB142:
 945              	.LBB139:
 946              		.loc 2 55 0
 947 001a 2A60     		str	r2, [r5, #0]
 948              	.LBE139:
 949              	.LBE142:
 950              	.LBB143:
 951              	.LBB144:
 952              		.loc 1 77 0
 953 001c FFF7FEFF 		bl	chDbgCheckClassI
 954              	.LVL55:
 955              		.loc 1 80 0
 956 0020 94F82030 		ldrb	r3, [r4, #32]	@ zero_extendqisi2
 957 0024 002B     		cmp	r3, #0
 958 0026 20D0     		beq	.L62
 959 0028 0E2B     		cmp	r3, #14
 960 002a 1ED0     		beq	.L62
ARM GAS  /tmp/ccuOaQcJ.s 			page 18


 961              	.L63:
 962              		.loc 1 85 0
 963 002c 0022     		movs	r2, #0
 964 002e A168     		ldr	r1, [r4, #8]
 965              		.loc 1 86 0
 966 0030 104B     		ldr	r3, .L67
 967              		.loc 1 85 0
 968 0032 84F82020 		strb	r2, [r4, #32]
 969              	.LVL56:
 970              	.L64:
 971              		.loc 1 88 0
 972 0036 1B68     		ldr	r3, [r3, #0]
 973              	.LVL57:
 974              		.loc 1 89 0
 975 0038 9868     		ldr	r0, [r3, #8]
 976 003a 8842     		cmp	r0, r1
 977 003c FBD2     		bcs	.L64
 978              		.loc 1 92 0
 979 003e 5A68     		ldr	r2, [r3, #4]
 980              		.loc 1 91 0
 981 0040 2360     		str	r3, [r4, #0]
 982              		.loc 1 92 0
 983 0042 6260     		str	r2, [r4, #4]
 984              		.loc 1 93 0
 985 0044 1460     		str	r4, [r2, #0]
 986 0046 5C60     		str	r4, [r3, #4]
 987              	.LBE144:
 988              	.LBE143:
 989              		.loc 1 308 0
 990 0048 2046     		mov	r0, r4
 991 004a FFF7FEFF 		bl	dbg_trace
 992              	.LVL58:
 993              	.LBB146:
 994 004e E169     		ldr	r1, [r4, #28]
 995 0050 ADF1240C 		sub	ip, sp, #36
 996 0054 6145     		cmp	r1, ip
 997 0056 02D9     		bls	.L65
 998              		.loc 1 308 0 is_stmt 0 discriminator 1
 999 0058 0748     		ldr	r0, .L67+4
 1000 005a FFF7FEFF 		bl	chDbgPanic
 1001              	.L65:
 1002              		.loc 1 308 0 discriminator 2
 1003 005e A869     		ldr	r0, [r5, #24]
 1004 0060 2146     		mov	r1, r4
 1005              	.LBE146:
 1006              		.loc 1 309 0 is_stmt 1 discriminator 2
 1007 0062 BDE83840 		pop	{r3, r4, r5, lr}
 1008              	.LBB147:
 1009              		.loc 1 308 0 discriminator 2
 1010 0066 FFF7FEBF 		b	_port_switch
 1011              	.L62:
 1012              	.LBE147:
 1013              	.LBB148:
 1014              	.LBB145:
 1015              		.loc 1 80 0
 1016 006a 0448     		ldr	r0, .L67+8
 1017 006c FFF7FEFF 		bl	chDbgPanic
ARM GAS  /tmp/ccuOaQcJ.s 			page 19


 1018 0070 DCE7     		b	.L63
 1019              	.L68:
 1020 0072 00BF     		.align	2
 1021              	.L67:
 1022 0074 00000000 		.word	.LANCHOR0
 1023 0078 14000000 		.word	.LC1
 1024 007c 00000000 		.word	.LC0
 1025              	.LBE145:
 1026              	.LBE148:
 1027              		.cfi_endproc
 1028              	.LFE14:
 1029              		.size	chSchDoRescheduleBehind, .-chSchDoRescheduleBehind
 1030              		.section	.text.chSchDoRescheduleAhead,"ax",%progbits
 1031              		.align	2
 1032              		.p2align 4,,15
 1033              		.global	chSchDoRescheduleAhead
 1034              		.thumb
 1035              		.thumb_func
 1036              		.type	chSchDoRescheduleAhead, %function
 1037              	chSchDoRescheduleAhead:
 1038              	.LFB15:
 1039              		.loc 1 322 0
 1040              		.cfi_startproc
 1041              		@ args = 0, pretend = 0, frame = 0
 1042              		@ frame_needed = 0, uses_anonymous_args = 0
 1043 0000 38B5     		push	{r3, r4, r5, lr}
 1044              	.LCFI8:
 1045              		.cfi_def_cfa_offset 16
 1046              		.cfi_offset 14, -4
 1047              		.cfi_offset 5, -8
 1048              		.cfi_offset 4, -12
 1049              		.cfi_offset 3, -16
 1050              		.loc 1 325 0
 1051 0002 144D     		ldr	r5, .L74
 1052              		.loc 1 328 0
 1053 0004 0120     		movs	r0, #1
 1054              	.LBB152:
 1055              	.LBB153:
 1056              		.loc 2 53 0
 1057 0006 2B68     		ldr	r3, [r5, #0]
 1058              	.LBE153:
 1059              	.LBE152:
 1060              		.loc 1 325 0
 1061 0008 AC69     		ldr	r4, [r5, #24]
 1062              	.LVL59:
 1063              	.LBB156:
 1064              	.LBB154:
 1065              		.loc 2 55 0
 1066 000a 1A68     		ldr	r2, [r3, #0]
 1067              	.LBE154:
 1068              	.LBE156:
 1069              		.loc 1 330 0
 1070 000c A168     		ldr	r1, [r4, #8]
 1071              	.LBB157:
 1072              	.LBB155:
 1073              		.loc 2 55 0
 1074 000e 5560     		str	r5, [r2, #4]
ARM GAS  /tmp/ccuOaQcJ.s 			page 20


 1075 0010 2A60     		str	r2, [r5, #0]
 1076              	.LBE155:
 1077              	.LBE157:
 1078              		.loc 1 330 0
 1079 0012 0022     		movs	r2, #0
 1080              		.loc 1 328 0
 1081 0014 83F82000 		strb	r0, [r3, #32]
 1082              		.loc 1 327 0
 1083 0018 AB61     		str	r3, [r5, #24]
 1084              		.loc 1 330 0
 1085 001a 84F82020 		strb	r2, [r4, #32]
 1086              	.LVL60:
 1087 001e 00E0     		b	.L71
 1088              	.LVL61:
 1089              	.L73:
 1090              		.loc 1 334 0
 1091 0020 1B68     		ldr	r3, [r3, #0]
 1092              	.LVL62:
 1093              	.L71:
 1094              		.loc 1 334 0 is_stmt 0 discriminator 1
 1095 0022 9A68     		ldr	r2, [r3, #8]
 1096 0024 8A42     		cmp	r2, r1
 1097 0026 FBD8     		bhi	.L73
 1098              		.loc 1 337 0 is_stmt 1
 1099 0028 5868     		ldr	r0, [r3, #4]
 1100              		.loc 1 336 0
 1101 002a 2360     		str	r3, [r4, #0]
 1102              		.loc 1 337 0
 1103 002c 6060     		str	r0, [r4, #4]
 1104              		.loc 1 338 0
 1105 002e 0460     		str	r4, [r0, #0]
 1106 0030 5C60     		str	r4, [r3, #4]
 1107              		.loc 1 340 0
 1108 0032 2046     		mov	r0, r4
 1109 0034 FFF7FEFF 		bl	dbg_trace
 1110              	.LVL63:
 1111              	.LBB158:
 1112 0038 E169     		ldr	r1, [r4, #28]
 1113 003a ADF12403 		sub	r3, sp, #36
 1114 003e 9942     		cmp	r1, r3
 1115 0040 02D9     		bls	.L72
 1116              		.loc 1 340 0 is_stmt 0 discriminator 1
 1117 0042 0548     		ldr	r0, .L74+4
 1118 0044 FFF7FEFF 		bl	chDbgPanic
 1119              	.L72:
 1120              		.loc 1 340 0 discriminator 2
 1121 0048 A869     		ldr	r0, [r5, #24]
 1122 004a 2146     		mov	r1, r4
 1123              	.LBE158:
 1124              		.loc 1 341 0 is_stmt 1 discriminator 2
 1125 004c BDE83840 		pop	{r3, r4, r5, lr}
 1126              	.LBB159:
 1127              		.loc 1 340 0 discriminator 2
 1128 0050 FFF7FEBF 		b	_port_switch
 1129              	.L75:
 1130              		.align	2
 1131              	.L74:
ARM GAS  /tmp/ccuOaQcJ.s 			page 21


 1132 0054 00000000 		.word	.LANCHOR0
 1133 0058 14000000 		.word	.LC1
 1134              	.LBE159:
 1135              		.cfi_endproc
 1136              	.LFE15:
 1137              		.size	chSchDoRescheduleAhead, .-chSchDoRescheduleAhead
 1138 005c AFF30080 		.section	.text.chSchDoReschedule,"ax",%progbits
 1139              		.align	2
 1140              		.p2align 4,,15
 1141              		.global	chSchDoReschedule
 1142              		.thumb
 1143              		.thumb_func
 1144              		.type	chSchDoReschedule, %function
 1145              	chSchDoReschedule:
 1146              	.LFB16:
 1147              		.loc 1 355 0
 1148              		.cfi_startproc
 1149              		@ args = 0, pretend = 0, frame = 0
 1150              		@ frame_needed = 0, uses_anonymous_args = 0
 1151 0000 38B5     		push	{r3, r4, r5, lr}
 1152              	.LCFI9:
 1153              		.cfi_def_cfa_offset 16
 1154              		.cfi_offset 14, -4
 1155              		.cfi_offset 5, -8
 1156              		.cfi_offset 4, -12
 1157              		.cfi_offset 3, -16
 1158              		.loc 1 360 0
 1159 0002 194D     		ldr	r5, .L84
 1160 0004 AC69     		ldr	r4, [r5, #24]
 1161 0006 94F82330 		ldrb	r3, [r4, #35]	@ zero_extendqisi2
 1162 000a 002B     		cmp	r3, #0
 1163 000c 27D0     		beq	.L81
 1164              	.LVL64:
 1165              	.LBB165:
 1166              	.LBB166:
 1167              	.LBB167:
 1168              	.LBB168:
 1169              		.loc 2 53 0
 1170 000e 2B68     		ldr	r3, [r5, #0]
 1171              	.LVL65:
 1172              	.LBE168:
 1173              	.LBE167:
 1174              		.loc 1 328 0
 1175 0010 0120     		movs	r0, #1
 1176              	.LBB171:
 1177              	.LBB169:
 1178              		.loc 2 55 0
 1179 0012 1A68     		ldr	r2, [r3, #0]
 1180              	.LBE169:
 1181              	.LBE171:
 1182              		.loc 1 330 0
 1183 0014 A168     		ldr	r1, [r4, #8]
 1184              	.LBB172:
 1185              	.LBB170:
 1186              		.loc 2 55 0
 1187 0016 5560     		str	r5, [r2, #4]
 1188 0018 2A60     		str	r2, [r5, #0]
ARM GAS  /tmp/ccuOaQcJ.s 			page 22


 1189              	.LBE170:
 1190              	.LBE172:
 1191              		.loc 1 330 0
 1192 001a 0022     		movs	r2, #0
 1193              		.loc 1 328 0
 1194 001c 83F82000 		strb	r0, [r3, #32]
 1195              		.loc 1 327 0
 1196 0020 AB61     		str	r3, [r5, #24]
 1197              		.loc 1 330 0
 1198 0022 84F82020 		strb	r2, [r4, #32]
 1199              	.LVL66:
 1200 0026 00E0     		b	.L79
 1201              	.LVL67:
 1202              	.L82:
 1203              		.loc 1 334 0
 1204 0028 1B68     		ldr	r3, [r3, #0]
 1205              	.LVL68:
 1206              	.L79:
 1207 002a 9A68     		ldr	r2, [r3, #8]
 1208 002c 8A42     		cmp	r2, r1
 1209 002e FBD8     		bhi	.L82
 1210              		.loc 1 337 0
 1211 0030 5868     		ldr	r0, [r3, #4]
 1212              		.loc 1 336 0
 1213 0032 2360     		str	r3, [r4, #0]
 1214              		.loc 1 337 0
 1215 0034 6060     		str	r0, [r4, #4]
 1216              		.loc 1 338 0
 1217 0036 0460     		str	r4, [r0, #0]
 1218 0038 5C60     		str	r4, [r3, #4]
 1219              		.loc 1 340 0
 1220 003a 2046     		mov	r0, r4
 1221 003c FFF7FEFF 		bl	dbg_trace
 1222              	.LVL69:
 1223              	.LBB173:
 1224 0040 E169     		ldr	r1, [r4, #28]
 1225 0042 ADF1240C 		sub	ip, sp, #36
 1226 0046 6145     		cmp	r1, ip
 1227 0048 05D8     		bhi	.L83
 1228              	.L80:
 1229 004a A869     		ldr	r0, [r5, #24]
 1230 004c 2146     		mov	r1, r4
 1231              	.LBE173:
 1232              	.LBE166:
 1233              	.LBE165:
 1234              		.loc 1 375 0
 1235 004e BDE83840 		pop	{r3, r4, r5, lr}
 1236              	.LBB176:
 1237              	.LBB175:
 1238              	.LBB174:
 1239              		.loc 1 340 0
 1240 0052 FFF7FEBF 		b	_port_switch
 1241              	.L83:
 1242 0056 0548     		ldr	r0, .L84+4
 1243 0058 FFF7FEFF 		bl	chDbgPanic
 1244 005c F5E7     		b	.L80
 1245              	.LVL70:
ARM GAS  /tmp/ccuOaQcJ.s 			page 23


 1246              	.L81:
 1247              	.LBE174:
 1248              	.LBE175:
 1249              	.LBE176:
 1250              		.loc 1 375 0
 1251 005e BDE83840 		pop	{r3, r4, r5, lr}
 1252              		.loc 1 363 0
 1253 0062 FFF7FEBF 		b	chSchDoRescheduleBehind
 1254              	.L85:
 1255 0066 00BF     		.align	2
 1256              	.L84:
 1257 0068 00000000 		.word	.LANCHOR0
 1258 006c 14000000 		.word	.LC1
 1259              		.cfi_endproc
 1260              	.LFE16:
 1261              		.size	chSchDoReschedule, .-chSchDoReschedule
 1262              		.global	rlist
 1263              		.section	.rodata.str1.4,"aMS",%progbits,1
 1264              		.align	2
 1265              	.LC0:
 1266 0000 63685363 		.ascii	"chSchReadyI(), #1\000"
 1266      68526561 
 1266      64794928 
 1266      292C2023 
 1266      3100
 1267 0012 0000     		.space	2
 1268              	.LC1:
 1269 0014 73746163 		.ascii	"stack overflow\000"
 1269      6B206F76 
 1269      6572666C 
 1269      6F7700
 1270 0023 00       		.section	.bss.rlist,"aw",%nobits
 1271              		.align	2
 1272              		.set	.LANCHOR0,. + 0
 1273              		.type	rlist, %object
 1274              		.size	rlist, 28
 1275              	rlist:
 1276 0000 00000000 		.space	28
 1276      00000000 
 1276      00000000 
 1276      00000000 
 1276      00000000 
 1277              		.text
 1278              	.Letext0:
 1279              		.file 3 "/home/tino/ChibiStudio/tools/GNU Tools ARM Embedded/4.6 2012q2/bin/../lib/gcc/arm-none-ea
 1280              		.file 4 "../../ChibiOS/os/ports/GCC/ARMCMx/chtypes.h"
 1281              		.file 5 "../../ChibiOS/os/kernel/include/chlists.h"
 1282              		.file 6 "../../ChibiOS/os/kernel/include/chthreads.h"
 1283              		.file 7 "../../ChibiOS/os/ports/GCC/ARMCMx/chcore_v7m.h"
 1284              		.file 8 "../../ChibiOS/os/kernel/include/chvt.h"
 1285              		.file 9 "../../ChibiOS/os/kernel/include/chschd.h"
 1286              		.file 10 "../../ChibiOS/os/kernel/include/chsem.h"
 1287              		.file 11 "../../ChibiOS/os/kernel/include/chmtx.h"