ARM GAS  /tmp/ccuOaQcJ.s 			page 1


   1              		.syntax unified
   2              		.cpu cortex-m3
   3              		.fpu softvfp
   4              		.eabi_attribute 20, 1
   5              		.eabi_attribute 21, 1
   6              		.eabi_attribute 23, 3
   7              		.eabi_attribute 24, 1
   8              		.eabi_attribute 25, 1
   9              		.eabi_attribute 26, 1
  10              		.eabi_attribute 30, 2
  11              		.eabi_attribute 34, 1
  12              		.eabi_attribute 18, 4
  13              		.thumb
  14              		.file	"chschd.c"
  15              		.text
  16              	.Ltext0:
  17              		.cfi_sections	.debug_frame
  18              		.section	.text.wakeup,"ax",%progbits
  19              		.align	2
  20              		.p2align 4,,15
  21              		.thumb
  22              		.thumb_func
  23              		.type	wakeup, %function
  24              	wakeup:
  25              	.LFB10:
  26              		.file 1 "../../ChibiOS/os/kernel/src/chschd.c"
  27              		.loc 1 129 0
  28              		.cfi_startproc
  29              		@ args = 0, pretend = 0, frame = 0
  30              		@ frame_needed = 0, uses_anonymous_args = 0
  31              	.LVL0:
  32 0000 10B5     		push	{r4, lr}
  33              	.LCFI0:
  34              		.cfi_def_cfa_offset 8
  35              		.cfi_offset 14, -4
  36              		.cfi_offset 4, -8
  37              	.LBB34:
  38              		.loc 1 132 0
  39 0002 2023     		movs	r3, #32
  40              	.LVL1:
  41              	.LBE34:
  42              		.loc 1 129 0
  43 0004 0446     		mov	r4, r0
  44              	.LVL2:
  45              	.LBB35:
  46              		.loc 1 132 0
  47              	@ 132 "../../ChibiOS/os/kernel/src/chschd.c" 1
  48 0006 83F31188 		msr     BASEPRI, r3
  49              	@ 0 "" 2
  50              	.LVL3:
  51              		.thumb
  52              	.LBE35:
  53 000a FFF7FEFF 		bl	dbg_check_lock_from_isr
  54              	.LVL4:
  55              		.loc 1 133 0
  56 000e 94F82030 		ldrb	r3, [r4, #32]	@ zero_extendqisi2
  57 0012 0D2B     		cmp	r3, #13
ARM GAS  /tmp/ccuOaQcJ.s 			page 2


  58 0014 11D8     		bhi	.L2
  59 0016 DFE803F0 		tbb	[pc, r3]
  60              	.L6:
  61 001a 2B       		.byte	(.L12-.L6)/2
  62 001b 10       		.byte	(.L2-.L6)/2
  63 001c 10       		.byte	(.L2-.L6)/2
  64 001d 07       		.byte	(.L4-.L6)/2
  65 001e 10       		.byte	(.L2-.L6)/2
  66 001f 0B       		.byte	(.L5-.L6)/2
  67 0020 10       		.byte	(.L2-.L6)/2
  68 0021 10       		.byte	(.L2-.L6)/2
  69 0022 10       		.byte	(.L2-.L6)/2
  70 0023 10       		.byte	(.L2-.L6)/2
  71 0024 10       		.byte	(.L2-.L6)/2
  72 0025 10       		.byte	(.L2-.L6)/2
  73 0026 10       		.byte	(.L2-.L6)/2
  74 0027 0B       		.byte	(.L5-.L6)/2
  75              		.align	1
  76              	.L4:
  77              	.LVL5:
  78              		.loc 1 143 0
  79 0028 A06A     		ldr	r0, [r4, #40]
  80 002a 8168     		ldr	r1, [r0, #8]
  81 002c 4A1C     		adds	r2, r1, #1
  82 002e 8260     		str	r2, [r0, #8]
  83              	.L5:
  84              	.LVL6:
  85              	.LBB36:
  86              	.LBB37:
  87              		.file 2 "../../ChibiOS/os/kernel/include/chinline.h"
  88              		.loc 2 68 0
  89 0030 94E80C00 		ldmia	r4, {r2, r3}
  90 0034 1A60     		str	r2, [r3, #0]
  91              		.loc 2 69 0
  92 0036 2268     		ldr	r2, [r4, #0]
  93 0038 5360     		str	r3, [r2, #4]
  94              	.LVL7:
  95              	.L2:
  96              	.LBE37:
  97              	.LBE36:
  98              		.loc 1 156 0
  99 003a 4FF0FF33 		mov	r3, #-1
 100 003e A362     		str	r3, [r4, #40]
 101              	.LVL8:
 102              	.LBB38:
 103              	.LBB39:
 104              		.loc 1 77 0
 105 0040 FFF7FEFF 		bl	chDbgCheckClassI
 106              		.loc 1 80 0
 107 0044 94F82030 		ldrb	r3, [r4, #32]	@ zero_extendqisi2
 108 0048 0BB1     		cbz	r3, .L8
 109 004a 0E2B     		cmp	r3, #14
 110 004c 02D1     		bne	.L9
 111              	.L8:
 112 004e 0B48     		ldr	r0, .L14
 113 0050 FFF7FEFF 		bl	chDbgPanic
 114              	.L9:
ARM GAS  /tmp/ccuOaQcJ.s 			page 3


 115              		.loc 1 85 0
 116 0054 0020     		movs	r0, #0
 117 0056 A168     		ldr	r1, [r4, #8]
 118              		.loc 1 86 0
 119 0058 094B     		ldr	r3, .L14+4
 120              		.loc 1 85 0
 121 005a 84F82000 		strb	r0, [r4, #32]
 122              	.LVL9:
 123              	.L10:
 124              		.loc 1 88 0
 125 005e 1B68     		ldr	r3, [r3, #0]
 126              	.LVL10:
 127              		.loc 1 89 0
 128 0060 9A68     		ldr	r2, [r3, #8]
 129 0062 8A42     		cmp	r2, r1
 130 0064 FBD2     		bcs	.L10
 131              		.loc 1 92 0
 132 0066 5968     		ldr	r1, [r3, #4]
 133              		.loc 1 91 0
 134 0068 2360     		str	r3, [r4, #0]
 135              		.loc 1 92 0
 136 006a 6160     		str	r1, [r4, #4]
 137              		.loc 1 93 0
 138 006c 0C60     		str	r4, [r1, #0]
 139 006e 5C60     		str	r4, [r3, #4]
 140              	.LVL11:
 141              	.L12:
 142              	.LBE39:
 143              	.LBE38:
 144              		.loc 1 158 0
 145 0070 FFF7FEFF 		bl	dbg_check_unlock_from_isr
 146              	.LBB40:
 147 0074 0023     		movs	r3, #0
 148              	.LVL12:
 149              	@ 158 "../../ChibiOS/os/kernel/src/chschd.c" 1
 150 0076 83F31188 		msr     BASEPRI, r3
 151              	@ 0 "" 2
 152              	.LVL13:
 153              		.thumb
 154 007a 10BD     		pop	{r4, pc}
 155              	.L15:
 156              		.align	2
 157              	.L14:
 158 007c 00000000 		.word	.LC0
 159 0080 00000000 		.word	.LANCHOR0
 160              	.LBE40:
 161              		.cfi_endproc
 162              	.LFE10:
 163              		.size	wakeup, .-wakeup
 164 0084 AFF30080 		.section	.text._scheduler_init,"ax",%progbits
 164      AFF30080 
 164      AFF30080 
 165              		.align	2
 166              		.p2align 4,,15
 167              		.global	_scheduler_init
 168              		.thumb
 169              		.thumb_func
ARM GAS  /tmp/ccuOaQcJ.s 			page 4


 170              		.type	_scheduler_init, %function
 171              	_scheduler_init:
 172              	.LFB7:
 173              		.loc 1 48 0
 174              		.cfi_startproc
 175              		@ args = 0, pretend = 0, frame = 0
 176              		@ frame_needed = 0, uses_anonymous_args = 0
 177              		@ link register save eliminated.
 178              		.loc 1 50 0
 179 0000 40F20003 		movw	r3, #:lower16:.LANCHOR0
 180 0004 C0F20003 		movt	r3, #:upper16:.LANCHOR0
 181              		.loc 1 51 0
 182 0008 0022     		movs	r2, #0
 183              		.loc 1 50 0
 184 000a 5B60     		str	r3, [r3, #4]
 185 000c 1B60     		str	r3, [r3, #0]
 186              		.loc 1 51 0
 187 000e 9A60     		str	r2, [r3, #8]
 188              		.loc 1 53 0
 189 0010 5B61     		str	r3, [r3, #20]
 190 0012 1B61     		str	r3, [r3, #16]
 191              		.loc 1 55 0
 192 0014 7047     		bx	lr
 193              		.cfi_endproc
 194              	.LFE7:
 195              		.size	_scheduler_init, .-_scheduler_init
 196 0016 00BFAFF3 		.section	.text.chSchReadyI,"ax",%progbits
 196      0080AFF3 
 196      0080
 197              		.align	2
 198              		.p2align 4,,15
 199              		.global	chSchReadyI
 200              		.thumb
 201              		.thumb_func
 202              		.type	chSchReadyI, %function
 203              	chSchReadyI:
 204              	.LFB8:
 205              		.loc 1 74 0
 206              		.cfi_startproc
 207              		@ args = 0, pretend = 0, frame = 0
 208              		@ frame_needed = 0, uses_anonymous_args = 0
 209              	.LVL14:
 210 0000 10B5     		push	{r4, lr}
 211              	.LCFI1:
 212              		.cfi_def_cfa_offset 8
 213              		.cfi_offset 14, -4
 214              		.cfi_offset 4, -8
 215              		.loc 1 74 0
 216 0002 0446     		mov	r4, r0
 217              		.loc 1 77 0
 218 0004 FFF7FEFF 		bl	chDbgCheckClassI
 219              	.LVL15:
 220              		.loc 1 80 0
 221 0008 94F82030 		ldrb	r3, [r4, #32]	@ zero_extendqisi2
 222 000c 8BB1     		cbz	r3, .L18
 223              		.loc 1 80 0 is_stmt 0 discriminator 2
 224 000e 0E2B     		cmp	r3, #14
ARM GAS  /tmp/ccuOaQcJ.s 			page 5


 225 0010 0FD0     		beq	.L18
 226              	.L19:
 227              		.loc 1 85 0 is_stmt 1
 228 0012 0022     		movs	r2, #0
 229 0014 A168     		ldr	r1, [r4, #8]
 230              		.loc 1 86 0
 231 0016 094B     		ldr	r3, .L22
 232              		.loc 1 85 0
 233 0018 84F82020 		strb	r2, [r4, #32]
 234              	.LVL16:
 235              	.L20:
 236              		.loc 1 88 0 discriminator 1
 237 001c 1B68     		ldr	r3, [r3, #0]
 238              	.LVL17:
 239              		.loc 1 89 0 discriminator 1
 240 001e 9868     		ldr	r0, [r3, #8]
 241 0020 8842     		cmp	r0, r1
 242 0022 FBD2     		bcs	.L20
 243              		.loc 1 92 0
 244 0024 5968     		ldr	r1, [r3, #4]
 245              		.loc 1 91 0
 246 0026 2360     		str	r3, [r4, #0]
 247              		.loc 1 92 0
 248 0028 6160     		str	r1, [r4, #4]
 249              		.loc 1 93 0
 250 002a 0C60     		str	r4, [r1, #0]
 251 002c 5C60     		str	r4, [r3, #4]
 252              		.loc 1 95 0
 253 002e 2046     		mov	r0, r4
 254 0030 10BD     		pop	{r4, pc}
 255              	.LVL18:
 256              	.L18:
 257              		.loc 1 80 0 discriminator 1
 258 0032 0348     		ldr	r0, .L22+4
 259 0034 FFF7FEFF 		bl	chDbgPanic
 260 0038 EBE7     		b	.L19
 261              	.L23:
 262 003a 00BF     		.align	2
 263              	.L22:
 264 003c 00000000 		.word	.LANCHOR0
 265 0040 00000000 		.word	.LC0
 266              		.cfi_endproc
 267              	.LFE8:
 268              		.size	chSchReadyI, .-chSchReadyI
 269 0044 AFF30080 		.section	.text.chSchGoSleepS,"ax",%progbits
 269      AFF30080 
 269      AFF30080 
 270              		.align	2
 271              		.p2align 4,,15
 272              		.global	chSchGoSleepS
 273              		.thumb
 274              		.thumb_func
 275              		.type	chSchGoSleepS, %function
 276              	chSchGoSleepS:
 277              	.LFB9:
 278              		.loc 1 108 0
 279              		.cfi_startproc
ARM GAS  /tmp/ccuOaQcJ.s 			page 6


 280              		@ args = 0, pretend = 0, frame = 0
 281              		@ frame_needed = 0, uses_anonymous_args = 0
 282              	.LVL19:
 283 0000 70B5     		push	{r4, r5, r6, lr}
 284              	.LCFI2:
 285              		.cfi_def_cfa_offset 16
 286              		.cfi_offset 14, -4
 287              		.cfi_offset 6, -8
 288              		.cfi_offset 5, -12
 289              		.cfi_offset 4, -16
 290              		.loc 1 113 0
 291 0002 114C     		ldr	r4, .L26
 292              		.loc 1 108 0
 293 0004 0646     		mov	r6, r0
 294              		.loc 1 111 0
 295 0006 FFF7FEFF 		bl	chDbgCheckClassS
 296              	.LVL20:
 297              	.LBB44:
 298              	.LBB45:
 299              		.loc 2 53 0
 300 000a 2368     		ldr	r3, [r4, #0]
 301              	.LBE45:
 302              	.LBE44:
 303              		.loc 1 113 0
 304 000c A569     		ldr	r5, [r4, #24]
 305              	.LVL21:
 306              	.LBB49:
 307              	.LBB46:
 308              		.loc 2 55 0
 309 000e 1A68     		ldr	r2, [r3, #0]
 310              	.LBE46:
 311              	.LBE49:
 312              		.loc 1 117 0
 313 0010 1420     		movs	r0, #20
 314              		.loc 1 120 0
 315 0012 0121     		movs	r1, #1
 316              	.LBB50:
 317              	.LBB47:
 318              		.loc 2 55 0
 319 0014 5460     		str	r4, [r2, #4]
 320              	.LBE47:
 321              	.LBE50:
 322              		.loc 1 113 0
 323 0016 85F82060 		strb	r6, [r5, #32]
 324              		.loc 1 117 0
 325 001a 85F82300 		strb	r0, [r5, #35]
 326              	.LVL22:
 327              		.loc 1 120 0
 328 001e 83F82010 		strb	r1, [r3, #32]
 329              		.loc 1 121 0
 330 0022 2846     		mov	r0, r5
 331              	.LBB51:
 332              	.LBB48:
 333              		.loc 2 55 0
 334 0024 2260     		str	r2, [r4, #0]
 335              	.LBE48:
 336              	.LBE51:
ARM GAS  /tmp/ccuOaQcJ.s 			page 7


 337              		.loc 1 119 0
 338 0026 A361     		str	r3, [r4, #24]
 339              		.loc 1 121 0
 340 0028 FFF7FEFF 		bl	dbg_trace
 341              	.LVL23:
 342              	.LBB52:
 343 002c EA69     		ldr	r2, [r5, #28]
 344 002e ADF12403 		sub	r3, sp, #36
 345 0032 9A42     		cmp	r2, r3
 346 0034 02D9     		bls	.L25
 347              		.loc 1 121 0 is_stmt 0 discriminator 1
 348 0036 0548     		ldr	r0, .L26+4
 349 0038 FFF7FEFF 		bl	chDbgPanic
 350              	.L25:
 351              		.loc 1 121 0 discriminator 2
 352 003c A069     		ldr	r0, [r4, #24]
 353 003e 2946     		mov	r1, r5
 354              	.LBE52:
 355              		.loc 1 122 0 is_stmt 1 discriminator 2
 356 0040 BDE87040 		pop	{r4, r5, r6, lr}
 357              	.LBB53:
 358              		.loc 1 121 0 discriminator 2
 359 0044 FFF7FEBF 		b	_port_switch
 360              	.L27:
 361              		.align	2
 362              	.L26:
 363 0048 00000000 		.word	.LANCHOR0
 364 004c 14000000 		.word	.LC1
 365              	.LBE53:
 366              		.cfi_endproc
 367              	.LFE9:
 368              		.size	chSchGoSleepS, .-chSchGoSleepS
 369              		.section	.text.chSchGoSleepTimeoutS,"ax",%progbits
 370              		.align	2
 371              		.p2align 4,,15
 372              		.global	chSchGoSleepTimeoutS
 373              		.thumb
 374              		.thumb_func
 375              		.type	chSchGoSleepTimeoutS, %function
 376              	chSchGoSleepTimeoutS:
 377              	.LFB11:
 378              		.loc 1 182 0
 379              		.cfi_startproc
 380              		@ args = 0, pretend = 0, frame = 24
 381              		@ frame_needed = 0, uses_anonymous_args = 0
 382              	.LVL24:
 383 0000 70B5     		push	{r4, r5, r6, lr}
 384              	.LCFI3:
 385              		.cfi_def_cfa_offset 16
 386              		.cfi_offset 14, -4
 387              		.cfi_offset 6, -8
 388              		.cfi_offset 5, -12
 389              		.cfi_offset 4, -16
 390 0002 0E46     		mov	r6, r1
 391 0004 86B0     		sub	sp, sp, #24
 392              	.LCFI4:
 393              		.cfi_def_cfa_offset 40
ARM GAS  /tmp/ccuOaQcJ.s 			page 8


 394              		.loc 1 182 0
 395 0006 0546     		mov	r5, r0
 396              		.loc 1 184 0
 397 0008 FFF7FEFF 		bl	chDbgCheckClassS
 398              	.LVL25:
 399              		.loc 1 186 0
 400 000c 731C     		adds	r3, r6, #1
 401              	.LBB65:
 402              		.loc 1 189 0
 403 000e 2B4C     		ldr	r4, .L35
 404              	.LBE65:
 405              		.loc 1 186 0
 406 0010 2ED0     		beq	.L29
 407              	.LBB80:
 408              		.loc 1 189 0
 409 0012 3146     		mov	r1, r6
 410 0014 A369     		ldr	r3, [r4, #24]
 411 0016 01A8     		add	r0, sp, #4
 412 0018 294A     		ldr	r2, .L35+4
 413 001a FFF7FEFF 		bl	chVTSetI
 414              	.LVL26:
 415              	.LBB66:
 416              	.LBB67:
 417              		.loc 1 111 0
 418 001e FFF7FEFF 		bl	chDbgCheckClassS
 419              	.LBB68:
 420              	.LBB69:
 421              		.loc 2 53 0
 422 0022 2368     		ldr	r3, [r4, #0]
 423              	.LBE69:
 424              	.LBE68:
 425              		.loc 1 113 0
 426 0024 A669     		ldr	r6, [r4, #24]
 427              	.LVL27:
 428              	.LBB73:
 429              	.LBB70:
 430              		.loc 2 55 0
 431 0026 1A68     		ldr	r2, [r3, #0]
 432              	.LBE70:
 433              	.LBE73:
 434              		.loc 1 117 0
 435 0028 1420     		movs	r0, #20
 436              		.loc 1 120 0
 437 002a 0121     		movs	r1, #1
 438              	.LBB74:
 439              	.LBB71:
 440              		.loc 2 55 0
 441 002c 5460     		str	r4, [r2, #4]
 442              	.LBE71:
 443              	.LBE74:
 444              		.loc 1 113 0
 445 002e 86F82050 		strb	r5, [r6, #32]
 446              		.loc 1 117 0
 447 0032 86F82300 		strb	r0, [r6, #35]
 448              	.LVL28:
 449              		.loc 1 120 0
 450 0036 83F82010 		strb	r1, [r3, #32]
ARM GAS  /tmp/ccuOaQcJ.s 			page 9


 451              		.loc 1 121 0
 452 003a 3046     		mov	r0, r6
 453              	.LBB75:
 454              	.LBB72:
 455              		.loc 2 55 0
 456 003c 2260     		str	r2, [r4, #0]
 457              	.LBE72:
 458              	.LBE75:
 459              		.loc 1 119 0
 460 003e A361     		str	r3, [r4, #24]
 461              		.loc 1 121 0
 462 0040 FFF7FEFF 		bl	dbg_trace
 463              	.LVL29:
 464              	.LBB76:
 465 0044 F269     		ldr	r2, [r6, #28]
 466 0046 ADF12403 		sub	r3, sp, #36
 467 004a 9A42     		cmp	r2, r3
 468 004c 0CD8     		bhi	.L33
 469              	.L30:
 470 004e A069     		ldr	r0, [r4, #24]
 471 0050 3146     		mov	r1, r6
 472 0052 FFF7FEFF 		bl	_port_switch
 473              	.LBE76:
 474              	.LBE67:
 475              	.LBE66:
 476              		.loc 1 191 0
 477 0056 049B     		ldr	r3, [sp, #16]
 478 0058 13B1     		cbz	r3, .L31
 479              		.loc 1 192 0
 480 005a 01A8     		add	r0, sp, #4
 481 005c FFF7FEFF 		bl	chVTResetI
 482              	.LVL30:
 483              	.L31:
 484              	.LBE80:
 485              		.loc 1 196 0
 486 0060 A369     		ldr	r3, [r4, #24]
 487 0062 986A     		ldr	r0, [r3, #40]
 488              		.loc 1 197 0
 489 0064 06B0     		add	sp, sp, #24
 490 0066 70BD     		pop	{r4, r5, r6, pc}
 491              	.LVL31:
 492              	.L33:
 493              	.LBB81:
 494              	.LBB79:
 495              	.LBB78:
 496              	.LBB77:
 497              		.loc 1 121 0
 498 0068 1648     		ldr	r0, .L35+8
 499 006a FFF7FEFF 		bl	chDbgPanic
 500 006e EEE7     		b	.L30
 501              	.LVL32:
 502              	.L29:
 503              	.LBE77:
 504              	.LBE78:
 505              	.LBE79:
 506              	.LBE81:
 507              	.LBB82:
ARM GAS  /tmp/ccuOaQcJ.s 			page 10


 508              	.LBB83:
 509              		.loc 1 111 0
 510 0070 FFF7FEFF 		bl	chDbgCheckClassS
 511              	.LBB84:
 512              	.LBB85:
 513              		.loc 2 53 0
 514 0074 2368     		ldr	r3, [r4, #0]
 515              	.LBE85:
 516              	.LBE84:
 517              		.loc 1 113 0
 518 0076 A669     		ldr	r6, [r4, #24]
 519              	.LVL33:
 520              	.LBB89:
 521              	.LBB86:
 522              		.loc 2 55 0
 523 0078 1A68     		ldr	r2, [r3, #0]
 524              	.LBE86:
 525              	.LBE89:
 526              		.loc 1 117 0
 527 007a 1421     		movs	r1, #20
 528              		.loc 1 120 0
 529 007c 0120     		movs	r0, #1
 530              	.LBB90:
 531              	.LBB87:
 532              		.loc 2 55 0
 533 007e 5460     		str	r4, [r2, #4]
 534              	.LBE87:
 535              	.LBE90:
 536              		.loc 1 113 0
 537 0080 86F82050 		strb	r5, [r6, #32]
 538              		.loc 1 117 0
 539 0084 86F82310 		strb	r1, [r6, #35]
 540              	.LVL34:
 541              		.loc 1 120 0
 542 0088 83F82000 		strb	r0, [r3, #32]
 543              		.loc 1 121 0
 544 008c 3046     		mov	r0, r6
 545              	.LBB91:
 546              	.LBB88:
 547              		.loc 2 55 0
 548 008e 2260     		str	r2, [r4, #0]
 549              	.LBE88:
 550              	.LBE91:
 551              		.loc 1 119 0
 552 0090 A361     		str	r3, [r4, #24]
 553              		.loc 1 121 0
 554 0092 FFF7FEFF 		bl	dbg_trace
 555              	.LVL35:
 556              	.LBB92:
 557 0096 F269     		ldr	r2, [r6, #28]
 558 0098 ADF12401 		sub	r1, sp, #36
 559 009c 8A42     		cmp	r2, r1
 560 009e 04D8     		bhi	.L34
 561 00a0 A069     		ldr	r0, [r4, #24]
 562 00a2 3146     		mov	r1, r6
 563 00a4 FFF7FEFF 		bl	_port_switch
 564 00a8 DAE7     		b	.L31
ARM GAS  /tmp/ccuOaQcJ.s 			page 11


 565              	.L34:
 566 00aa 0648     		ldr	r0, .L35+8
 567 00ac FFF7FEFF 		bl	chDbgPanic
 568 00b0 A069     		ldr	r0, [r4, #24]
 569 00b2 3146     		mov	r1, r6
 570 00b4 FFF7FEFF 		bl	_port_switch
 571 00b8 D2E7     		b	.L31
 572              	.L36:
 573 00ba 00BF     		.align	2
 574              	.L35:
 575 00bc 00000000 		.word	.LANCHOR0
 576 00c0 00000000 		.word	wakeup
 577 00c4 14000000 		.word	.LC1
 578              	.LBE92:
 579              	.LBE83:
 580              	.LBE82:
 581              		.cfi_endproc
 582              	.LFE11:
 583              		.size	chSchGoSleepTimeoutS, .-chSchGoSleepTimeoutS
 584 00c8 AFF30080 		.section	.text.chSchWakeupS,"ax",%progbits
 584      AFF30080 
 585              		.align	2
 586              		.p2align 4,,15
 587              		.global	chSchWakeupS
 588              		.thumb
 589              		.thumb_func
 590              		.type	chSchWakeupS, %function
 591              	chSchWakeupS:
 592              	.LFB12:
 593              		.loc 1 218 0
 594              		.cfi_startproc
 595              		@ args = 0, pretend = 0, frame = 0
 596              		@ frame_needed = 0, uses_anonymous_args = 0
 597              	.LVL36:
 598 0000 F8B5     		push	{r3, r4, r5, r6, r7, lr}
 599              	.LCFI5:
 600              		.cfi_def_cfa_offset 24
 601              		.cfi_offset 14, -4
 602              		.cfi_offset 7, -8
 603              		.cfi_offset 6, -12
 604              		.cfi_offset 5, -16
 605              		.cfi_offset 4, -20
 606              		.cfi_offset 3, -24
 607              		.loc 1 227 0
 608 0002 2A4D     		ldr	r5, .L51
 609              		.loc 1 218 0
 610 0004 0446     		mov	r4, r0
 611 0006 0F46     		mov	r7, r1
 612              		.loc 1 220 0
 613 0008 FFF7FEFF 		bl	chDbgCheckClassS
 614              	.LVL37:
 615              		.loc 1 227 0
 616 000c AE69     		ldr	r6, [r5, #24]
 617 000e A268     		ldr	r2, [r4, #8]
 618 0010 B368     		ldr	r3, [r6, #8]
 619              		.loc 1 222 0
 620 0012 A762     		str	r7, [r4, #40]
ARM GAS  /tmp/ccuOaQcJ.s 			page 12


 621              		.loc 1 227 0
 622 0014 9A42     		cmp	r2, r3
 623 0016 2BD9     		bls	.L49
 624              	.LVL38:
 625              	.LBB99:
 626              	.LBB100:
 627              	.LBB101:
 628              		.loc 1 77 0
 629 0018 FFF7FEFF 		bl	chDbgCheckClassI
 630              	.LVL39:
 631              		.loc 1 80 0
 632 001c 96F82030 		ldrb	r3, [r6, #32]	@ zero_extendqisi2
 633 0020 002B     		cmp	r3, #0
 634 0022 21D0     		beq	.L43
 635 0024 0E2B     		cmp	r3, #14
 636 0026 1FD0     		beq	.L43
 637              	.L44:
 638              		.loc 1 85 0
 639 0028 0020     		movs	r0, #0
 640 002a B168     		ldr	r1, [r6, #8]
 641              		.loc 1 86 0
 642 002c 1F4B     		ldr	r3, .L51
 643              		.loc 1 85 0
 644 002e 86F82000 		strb	r0, [r6, #32]
 645              	.LVL40:
 646              	.L45:
 647              		.loc 1 88 0
 648 0032 1B68     		ldr	r3, [r3, #0]
 649              	.LVL41:
 650              		.loc 1 89 0
 651 0034 9A68     		ldr	r2, [r3, #8]
 652 0036 9142     		cmp	r1, r2
 653 0038 FBD9     		bls	.L45
 654              		.loc 1 92 0
 655 003a 5868     		ldr	r0, [r3, #4]
 656              		.loc 1 91 0
 657 003c 3360     		str	r3, [r6, #0]
 658              		.loc 1 92 0
 659 003e 7060     		str	r0, [r6, #4]
 660              		.loc 1 93 0
 661 0040 5E60     		str	r6, [r3, #4]
 662              	.LBE101:
 663              	.LBE100:
 664              		.loc 1 232 0
 665 0042 0123     		movs	r3, #1
 666              	.LVL42:
 667              	.LBB104:
 668              	.LBB102:
 669              		.loc 1 93 0
 670 0044 0660     		str	r6, [r0, #0]
 671              	.LBE102:
 672              	.LBE104:
 673              		.loc 1 232 0
 674 0046 84F82030 		strb	r3, [r4, #32]
 675              		.loc 1 233 0
 676 004a 3046     		mov	r0, r6
 677              		.loc 1 231 0
ARM GAS  /tmp/ccuOaQcJ.s 			page 13


 678 004c AC61     		str	r4, [r5, #24]
 679              		.loc 1 233 0
 680 004e FFF7FEFF 		bl	dbg_trace
 681              	.LVL43:
 682              	.LBB105:
 683 0052 F169     		ldr	r1, [r6, #28]
 684 0054 ADF1240C 		sub	ip, sp, #36
 685 0058 6145     		cmp	r1, ip
 686 005a 23D8     		bhi	.L50
 687              	.L46:
 688              		.loc 1 233 0 is_stmt 0 discriminator 2
 689 005c 2046     		mov	r0, r4
 690 005e 3146     		mov	r1, r6
 691              	.LBE105:
 692              	.LBE99:
 693              		.loc 1 235 0 is_stmt 1 discriminator 2
 694 0060 BDE8F840 		pop	{r3, r4, r5, r6, r7, lr}
 695              	.LBB109:
 696              	.LBB106:
 697              		.loc 1 233 0 discriminator 2
 698 0064 FFF7FEBF 		b	_port_switch
 699              	.L43:
 700              	.LBE106:
 701              	.LBB107:
 702              	.LBB103:
 703              		.loc 1 80 0
 704 0068 1148     		ldr	r0, .L51+4
 705 006a FFF7FEFF 		bl	chDbgPanic
 706 006e DBE7     		b	.L44
 707              	.LVL44:
 708              	.L49:
 709              	.LBE103:
 710              	.LBE107:
 711              	.LBE109:
 712              	.LBB110:
 713              	.LBB111:
 714              		.loc 1 77 0
 715 0070 FFF7FEFF 		bl	chDbgCheckClassI
 716              		.loc 1 80 0
 717 0074 94F82030 		ldrb	r3, [r4, #32]	@ zero_extendqisi2
 718 0078 83B1     		cbz	r3, .L39
 719 007a 0E2B     		cmp	r3, #14
 720 007c 0ED0     		beq	.L39
 721              	.L40:
 722              		.loc 1 85 0
 723 007e 0020     		movs	r0, #0
 724 0080 A168     		ldr	r1, [r4, #8]
 725              		.loc 1 86 0
 726 0082 0A4B     		ldr	r3, .L51
 727              		.loc 1 85 0
 728 0084 84F82000 		strb	r0, [r4, #32]
 729              	.LVL45:
 730              	.L41:
 731              		.loc 1 88 0
 732 0088 1B68     		ldr	r3, [r3, #0]
 733              	.LVL46:
 734              		.loc 1 89 0
ARM GAS  /tmp/ccuOaQcJ.s 			page 14


 735 008a 9A68     		ldr	r2, [r3, #8]
 736 008c 8A42     		cmp	r2, r1
 737 008e FBD2     		bcs	.L41
 738              		.loc 1 92 0
 739 0090 5968     		ldr	r1, [r3, #4]
 740              		.loc 1 91 0
 741 0092 2360     		str	r3, [r4, #0]
 742              		.loc 1 92 0
 743 0094 6160     		str	r1, [r4, #4]
 744              		.loc 1 93 0
 745 0096 0C60     		str	r4, [r1, #0]
 746 0098 5C60     		str	r4, [r3, #4]
 747              	.LBE111:
 748              	.LBE110:
 749              		.loc 1 235 0
 750 009a F8BD     		pop	{r3, r4, r5, r6, r7, pc}
 751              	.LVL47:
 752              	.L39:
 753              	.LBB113:
 754              	.LBB112:
 755              		.loc 1 80 0
 756 009c 0448     		ldr	r0, .L51+4
 757 009e FFF7FEFF 		bl	chDbgPanic
 758 00a2 ECE7     		b	.L40
 759              	.LVL48:
 760              	.L50:
 761              	.LBE112:
 762              	.LBE113:
 763              	.LBB114:
 764              	.LBB108:
 765              		.loc 1 233 0 discriminator 1
 766 00a4 0348     		ldr	r0, .L51+8
 767 00a6 FFF7FEFF 		bl	chDbgPanic
 768 00aa D7E7     		b	.L46
 769              	.L52:
 770              		.align	2
 771              	.L51:
 772 00ac 00000000 		.word	.LANCHOR0
 773 00b0 00000000 		.word	.LC0
 774 00b4 14000000 		.word	.LC1
 775              	.LBE108:
 776              	.LBE114:
 777              		.cfi_endproc
 778              	.LFE12:
 779              		.size	chSchWakeupS, .-chSchWakeupS
 780 00b8 AFF30080 		.section	.text.chSchRescheduleS,"ax",%progbits
 780      AFF30080 
 781              		.align	2
 782              		.p2align 4,,15
 783              		.global	chSchRescheduleS
 784              		.thumb
 785              		.thumb_func
 786              		.type	chSchRescheduleS, %function
 787              	chSchRescheduleS:
 788              	.LFB13:
 789              		.loc 1 246 0
 790              		.cfi_startproc
ARM GAS  /tmp/ccuOaQcJ.s 			page 15


 791              		@ args = 0, pretend = 0, frame = 0
 792              		@ frame_needed = 0, uses_anonymous_args = 0
 793 0000 38B5     		push	{r3, r4, r5, lr}
 794              	.LCFI6:
 795              		.cfi_def_cfa_offset 16
 796              		.cfi_offset 14, -4
 797              		.cfi_offset 5, -8
 798              		.cfi_offset 4, -12
 799              		.cfi_offset 3, -16
 800              		.loc 1 250 0
 801 0002 174D     		ldr	r5, .L59
 802              		.loc 1 248 0
 803 0004 FFF7FEFF 		bl	chDbgCheckClassS
 804              		.loc 1 250 0
 805 0008 2B68     		ldr	r3, [r5, #0]
 806 000a AC69     		ldr	r4, [r5, #24]
 807 000c 9968     		ldr	r1, [r3, #8]
 808 000e A268     		ldr	r2, [r4, #8]
 809 0010 9142     		cmp	r1, r2
 810 0012 00D8     		bhi	.L58
 811 0014 38BD     		pop	{r3, r4, r5, pc}
 812              	.L58:
 813              	.LVL49:
 814              	.LBB120:
 815              	.LBB121:
 816              	.LBB122:
 817              	.LBB123:
 818              		.loc 2 55 0
 819 0016 1968     		ldr	r1, [r3, #0]
 820              	.LBE123:
 821              	.LBE122:
 822              		.loc 1 328 0
 823 0018 0120     		movs	r0, #1
 824 001a 83F82000 		strb	r0, [r3, #32]
 825              		.loc 1 330 0
 826 001e 0020     		movs	r0, #0
 827              	.LBB125:
 828              	.LBB124:
 829              		.loc 2 55 0
 830 0020 4D60     		str	r5, [r1, #4]
 831 0022 2960     		str	r1, [r5, #0]
 832              	.LBE124:
 833              	.LBE125:
 834              		.loc 1 327 0
 835 0024 AB61     		str	r3, [r5, #24]
 836              		.loc 1 330 0
 837 0026 84F82000 		strb	r0, [r4, #32]
 838              	.LVL50:
 839              	.L55:
 840 002a 1B68     		ldr	r3, [r3, #0]
 841              	.LVL51:
 842              		.loc 1 334 0
 843 002c 9968     		ldr	r1, [r3, #8]
 844 002e 8A42     		cmp	r2, r1
 845 0030 FBD3     		bcc	.L55
 846              		.loc 1 337 0
 847 0032 5868     		ldr	r0, [r3, #4]
ARM GAS  /tmp/ccuOaQcJ.s 			page 16


 848              		.loc 1 336 0
 849 0034 2360     		str	r3, [r4, #0]
 850              		.loc 1 337 0
 851 0036 6060     		str	r0, [r4, #4]
 852              		.loc 1 338 0
 853 0038 0460     		str	r4, [r0, #0]
 854 003a 5C60     		str	r4, [r3, #4]
 855              		.loc 1 340 0
 856 003c 2046     		mov	r0, r4
 857 003e FFF7FEFF 		bl	dbg_trace
 858              	.LVL52:
 859              	.LBB126:
 860 0042 E269     		ldr	r2, [r4, #28]
 861 0044 ADF12403 		sub	r3, sp, #36
 862 0048 9A42     		cmp	r2, r3
 863 004a 02D9     		bls	.L56
 864 004c 0548     		ldr	r0, .L59+4
 865 004e FFF7FEFF 		bl	chDbgPanic
 866              	.L56:
 867 0052 A869     		ldr	r0, [r5, #24]
 868 0054 2146     		mov	r1, r4
 869              	.LBE126:
 870              	.LBE121:
 871              	.LBE120:
 872              		.loc 1 252 0
 873 0056 BDE83840 		pop	{r3, r4, r5, lr}
 874              	.LBB129:
 875              	.LBB128:
 876              	.LBB127:
 877              		.loc 1 340 0
 878 005a FFF7FEBF 		b	_port_switch
 879              	.L60:
 880 005e 00BF     		.align	2
 881              	.L59:
 882 0060 00000000 		.word	.LANCHOR0
 883 0064 14000000 		.word	.LC1
 884              	.LBE127:
 885              	.LBE128:
 886              	.LBE129:
 887              		.cfi_endproc
 888              	.LFE13:
 889              		.size	chSchRescheduleS, .-chSchRescheduleS
 890 0068 AFF30080 		.section	.text.chSchDoRescheduleBehind,"ax",%progbits
 890      AFF30080 
 891              		.align	2
 892              		.p2align 4,,15
 893              		.global	chSchDoRescheduleBehind
 894              		.thumb
 895              		.thumb_func
 896              		.type	chSchDoRescheduleBehind, %function
 897              	chSchDoRescheduleBehind:
 898              	.LFB14:
 899              		.loc 1 297 0
 900              		.cfi_startproc
 901              		@ args = 0, pretend = 0, frame = 0
 902              		@ frame_needed = 0, uses_anonymous_args = 0
 903 0000 38B5     		push	{r3, r4, r5, lr}
ARM GAS  /tmp/ccuOaQcJ.s 			page 17


 904              	.LCFI7:
 905              		.cfi_def_cfa_offset 16
 906              		.cfi_offset 14, -4
 907              		.cfi_offset 5, -8
 908              		.cfi_offset 4, -12
 909              		.cfi_offset 3, -16
 910              		.loc 1 300 0
 911 0002 1C4D     		ldr	r5, .L67
 912              		.loc 1 303 0
 913 0004 0120     		movs	r0, #1
 914              	.LBB135:
 915              	.LBB136:
 916              		.loc 2 53 0
 917 0006 2B68     		ldr	r3, [r5, #0]
 918              	.LBE136:
 919              	.LBE135:
 920              		.loc 1 300 0
 921 0008 AC69     		ldr	r4, [r5, #24]
 922              	.LVL53:
 923              	.LBB140:
 924              	.LBB137:
 925              		.loc 2 55 0
 926 000a 1A68     		ldr	r2, [r3, #0]
 927              	.LBE137:
 928              	.LBE140:
 929              		.loc 1 305 0
 930 000c 1421     		movs	r1, #20
 931              	.LBB141:
 932              	.LBB138:
 933              		.loc 2 55 0
 934 000e 5560     		str	r5, [r2, #4]
 935              	.LBE138:
 936              	.LBE141:
 937              		.loc 1 303 0
 938 0010 83F82000 		strb	r0, [r3, #32]
 939              		.loc 1 305 0
 940 0014 84F82310 		strb	r1, [r4, #35]
 941              	.LVL54:
 942              		.loc 1 302 0
 943 0018 AB61     		str	r3, [r5, #24]
 944              	.LBB142:
 945              	.LBB139:
 946              		.loc 2 55 0
 947 001a 2A60     		str	r2, [r5, #0]
 948              	.LBE139:
 949              	.LBE142:
 950              	.LBB143:
 951              	.LBB144:
 952              		.loc 1 77 0
 953 001c FFF7FEFF 		bl	chDbgCheckClassI
 954              	.LVL55:
 955              		.loc 1 80 0
 956 0020 94F82030 		ldrb	r3, [r4, #32]	@ zero_extendqisi2
 957 0024 002B     		cmp	r3, #0
 958 0026 20D0     		beq	.L62
 959 0028 0E2B     		cmp	r3, #14
 960 002a 1ED0     		beq	.L62
ARM GAS  /tmp/ccuOaQcJ.s 			page 18


 961              	.L63:
 962              		.loc 1 85 0
 963 002c 0022     		movs	r2, #0
 964 002e A168     		ldr	r1, [r4, #8]
 965              		.loc 1 86 0
 966 0030 104B     		ldr	r3, .L67
 967              		.loc 1 85 0
 968 0032 84F82020 		strb	r2, [r4, #32]
 969              	.LVL56:
 970              	.L64:
 971              		.loc 1 88 0
 972 0036 1B68     		ldr	r3, [r3, #0]
 973              	.LVL57:
 974              		.loc 1 89 0
 975 0038 9868     		ldr	r0, [r3, #8]
 976 003a 8842     		cmp	r0, r1
 977 003c FBD2     		bcs	.L64
 978              		.loc 1 92 0
 979 003e 5A68     		ldr	r2, [r3, #4]
 980              		.loc 1 91 0
 981 0040 2360     		str	r3, [r4, #0]
 982              		.loc 1 92 0
 983 0042 6260     		str	r2, [r4, #4]
 984              		.loc 1 93 0
 985 0044 1460     		str	r4, [r2, #0]
 986 0046 5C60     		str	r4, [r3, #4]
 987              	.LBE144:
 988              	.LBE143:
 989              		.loc 1 308 0
 990 0048 2046     		mov	r0, r4
 991 004a FFF7FEFF 		bl	dbg_trace
 992              	.LVL58:
 993              	.LBB146:
 994 004e E169     		ldr	r1, [r4, #28]
 995 0050 ADF1240C 		sub	ip, sp, #36
 996 0054 6145     		cmp	r1, ip
 997 0056 02D9     		bls	.L65
 998              		.loc 1 308 0 is_stmt 0 discriminator 1
 999 0058 0748     		ldr	r0, .L67+4
 1000 005a FFF7FEFF 		bl	chDbgPanic
 1001              	.L65:
 1002              		.loc 1 308 0 discriminator 2
 1003 005e A869     		ldr	r0, [r5, #24]
 1004 0060 2146     		mov	r1, r4
 1005              	.LBE146:
 1006              		.loc 1 309 0 is_stmt 1 discriminator 2
 1007 0062 BDE83840 		pop	{r3, r4, r5, lr}
 1008              	.LBB147:
 1009              		.loc 1 308 0 discriminator 2
 1010 0066 FFF7FEBF 		b	_port_switch
 1011              	.L62:
 1012              	.LBE147:
 1013              	.LBB148:
 1014              	.LBB145:
 1015              		.loc 1 80 0
 1016 006a 0448     		ldr	r0, .L67+8
 1017 006c FFF7FEFF 		bl	chDbgPanic
ARM GAS  /tmp/ccuOaQcJ.s 			page 19


 1018 0070 DCE7     		b	.L63
 1019              	.L68:
 1020 0072 00BF     		.align	2
 1021              	.L67:
 1022 0074 00000000 		.word	.LANCHOR0
 1023 0078 14000000 		.word	.LC1
 1024 007c 00000000 		.word	.LC0
 1025              	.LBE145:
 1026              	.LBE148:
 1027              		.cfi_endproc
 1028              	.LFE14:
 1029              		.size	chSchDoRescheduleBehind, .-chSchDoRescheduleBehind
 1030              		.section	.text.chSchDoRescheduleAhead,"ax",%progbits
 1031              		.align	2
 1032              		.p2align 4,,15
 1033              		.global	chSchDoRescheduleAhead
 1034              		.thumb
 1035              		.thumb_func
 1036              		.type	chSchDoRescheduleAhead, %function
 1037              	chSchDoRescheduleAhead:
 1038              	.LFB15:
 1039              		.loc 1 322 0
 1040              		.cfi_startproc
 1041              		@ args = 0, pretend = 0, frame = 0
 1042              		@ frame_needed = 0, uses_anonymous_args = 0
 1043 0000 38B5     		push	{r3, r4, r5, lr}
 1044              	.LCFI8:
 1045              		.cfi_def_cfa_offset 16
 1046              		.cfi_offset 14, -4
 1047              		.cfi_offset 5, -8
 1048              		.cfi_offset 4, -12
 1049              		.cfi_offset 3, -16
 1050              		.loc 1 325 0
 1051 0002 144D     		ldr	r5, .L74
 1052              		.loc 1 328 0
 1053 0004 0120     		movs	r0, #1
 1054              	.LBB152:
 1055              	.LBB153:
 1056              		.loc 2 53 0
 1057 0006 2B68     		ldr	r3, [r5, #0]
 1058              	.LBE153:
 1059              	.LBE152:
 1060              		.loc 1 325 0
 1061 0008 AC69     		ldr	r4, [r5, #24]
 1062              	.LVL59:
 1063              	.LBB156:
 1064              	.LBB154:
 1065              		.loc 2 55 0
 1066 000a 1A68     		ldr	r2, [r3, #0]
 1067              	.LBE154:
 1068              	.LBE156:
 1069              		.loc 1 330 0
 1070 000c A168     		ldr	r1, [r4, #8]
 1071              	.LBB157:
 1072              	.LBB155:
 1073              		.loc 2 55 0
 1074 000e 5560     		str	r5, [r2, #4]
ARM GAS  /tmp/ccuOaQcJ.s 			page 20


 1075 0010 2A60     		str	r2, [r5, #0]
 1076              	.LBE155:
 1077              	.LBE157:
 1078              		.loc 1 330 0
 1079 0012 0022     		movs	r2, #0
 1080              		.loc 1 328 0
 1081 0014 83F82000 		strb	r0, [r3, #32]
 1082              		.loc 1 327 0
 1083 0018 AB61     		str	r3, [r5, #24]
 1084              		.loc 1 330 0
 1085 001a 84F82020 		strb	r2, [r4, #32]
 1086              	.LVL60:
 1087 001e 00E0     		b	.L71
 1088              	.LVL61:
 1089              	.L73:
 1090              		.loc 1 334 0
 1091 0020 1B68     		ldr	r3, [r3, #0]
 1092              	.LVL62:
 1093              	.L71:
 1094              		.loc 1 334 0 is_stmt 0 discriminator 1
 1095 0022 9A68     		ldr	r2, [r3, #8]
 1096 0024 8A42     		cmp	r2, r1
 1097 0026 FBD8     		bhi	.L73
 1098              		.loc 1 337 0 is_stmt 1
 1099 0028 5868     		ldr	r0, [r3, #4]
 1100              		.loc 1 336 0
 1101 002a 2360     		str	r3, [r4, #0]
 1102              		.loc 1 337 0
 1103 002c 6060     		str	r0, [r4, #4]
 1104              		.loc 1 338 0
 1105 002e 0460     		str	r4, [r0, #0]
 1106 0030 5C60     		str	r4, [r3, #4]
 1107              		.loc 1 340 0
 1108 0032 2046     		mov	r0, r4
 1109 0034 FFF7FEFF 		bl	dbg_trace
 1110              	.LVL63:
 1111              	.LBB158:
 1112 0038 E169     		ldr	r1, [r4, #28]
 1113 003a ADF12403 		sub	r3, sp, #36
 1114 003e 9942     		cmp	r1, r3
 1115 0040 02D9     		bls	.L72
 1116              		.loc 1 340 0 is_stmt 0 discriminator 1
 1117 0042 0548     		ldr	r0, .L74+4
 1118 0044 FFF7FEFF 		bl	chDbgPanic
 1119              	.L72:
 1120              		.loc 1 340 0 discriminator 2
 1121 0048 A869     		ldr	r0, [r5, #24]
 1122 004a 2146     		mov	r1, r4
 1123              	.LBE158:
 1124              		.loc 1 341 0 is_stmt 1 discriminator 2
 1125 004c BDE83840 		pop	{r3, r4, r5, lr}
 1126              	.LBB159:
 1127              		.loc 1 340 0 discriminator 2
 1128 0050 FFF7FEBF 		b	_port_switch
 1129              	.L75:
 1130              		.align	2
 1131              	.L74:
ARM GAS  /tmp/ccuOaQcJ.s 			page 21


 1132 0054 00000000 		.word	.LANCHOR0
 1133 0058 14000000 		.word	.LC1
 1134              	.LBE159:
 1135              		.cfi_endproc
 1136              	.LFE15:
 1137              		.size	chSchDoRescheduleAhead, .-chSchDoRescheduleAhead
 1138 005c AFF30080 		.section	.text.chSchDoReschedule,"ax",%progbits
 1139              		.align	2
 1140              		.p2align 4,,15
 1141              		.global	chSchDoReschedule
 1142              		.thumb
 1143              		.thumb_func
 1144              		.type	chSchDoReschedule, %function
 1145              	chSchDoReschedule:
 1146              	.LFB16:
 1147              		.loc 1 355 0
 1148              		.cfi_startproc
 1149              		@ args = 0, pretend = 0, frame = 0
 1150              		@ frame_needed = 0, uses_anonymous_args = 0
 1151 0000 38B5     		push	{r3, r4, r5, lr}
 1152              	.LCFI9:
 1153              		.cfi_def_cfa_offset 16
 1154              		.cfi_offset 14, -4
 1155              		.cfi_offset 5, -8
 1156              		.cfi_offset 4, -12
 1157              		.cfi_offset 3, -16
 1158              		.loc 1 360 0
 1159 0002 194D     		ldr	r5, .L84
 1160 0004 AC69     		ldr	r4, [r5, #24]
 1161 0006 94F82330 		ldrb	r3, [r4, #35]	@ zero_extendqisi2
 1162 000a 002B     		cmp	r3, #0
 1163 000c 27D0     		beq	.L81
 1164              	.LVL64:
 1165              	.LBB165:
 1166              	.LBB166:
 1167              	.LBB167:
 1168              	.LBB168:
 1169              		.loc 2 53 0
 1170 000e 2B68     		ldr	r3, [r5, #0]
 1171              	.LVL65:
 1172              	.LBE168:
 1173              	.LBE167:
 1174              		.loc 1 328 0
 1175 0010 0120     		movs	r0, #1
 1176              	.LBB171:
 1177              	.LBB169:
 1178              		.loc 2 55 0
 1179 0012 1A68     		ldr	r2, [r3, #0]
 1180              	.LBE169:
 1181              	.LBE171:
 1182              		.loc 1 330 0
 1183 0014 A168     		ldr	r1, [r4, #8]
 1184              	.LBB172:
 1185              	.LBB170:
 1186              		.loc 2 55 0
 1187 0016 5560     		str	r5, [r2, #4]
 1188 0018 2A60     		str	r2, [r5, #0]
ARM GAS  /tmp/ccuOaQcJ.s 			page 22


 1189              	.LBE170:
 1190              	.LBE172:
 1191              		.loc 1 330 0
 1192 001a 0022     		movs	r2, #0
 1193              		.loc 1 328 0
 1194 001c 83F82000 		strb	r0, [r3, #32]
 1195              		.loc 1 327 0
 1196 0020 AB61     		str	r3, [r5, #24]
 1197              		.loc 1 330 0
 1198 0022 84F82020 		strb	r2, [r4, #32]
 1199              	.LVL66:
 1200 0026 00E0     		b	.L79
 1201              	.LVL67:
 1202              	.L82:
 1203              		.loc 1 334 0
 1204 0028 1B68     		ldr	r3, [r3, #0]
 1205              	.LVL68:
 1206              	.L79:
 1207 002a 9A68     		ldr	r2, [r3, #8]
 1208 002c 8A42     		cmp	r2, r1
 1209 002e FBD8     		bhi	.L82
 1210              		.loc 1 337 0
 1211 0030 5868     		ldr	r0, [r3, #4]
 1212              		.loc 1 336 0
 1213 0032 2360     		str	r3, [r4, #0]
 1214              		.loc 1 337 0
 1215 0034 6060     		str	r0, [r4, #4]
 1216              		.loc 1 338 0
 1217 0036 0460     		str	r4, [r0, #0]
 1218 0038 5C60     		str	r4, [r3, #4]
 1219              		.loc 1 340 0
 1220 003a 2046     		mov	r0, r4
 1221 003c FFF7FEFF 		bl	dbg_trace
 1222              	.LVL69:
 1223              	.LBB173:
 1224 0040 E169     		ldr	r1, [r4, #28]
 1225 0042 ADF1240C 		sub	ip, sp, #36
 1226 0046 6145     		cmp	r1, ip
 1227 0048 05D8     		bhi	.L83
 1228              	.L80:
 1229 004a A869     		ldr	r0, [r5, #24]
 1230 004c 2146     		mov	r1, r4
 1231              	.LBE173:
 1232              	.LBE166:
 1233              	.LBE165:
 1234              		.loc 1 375 0
 1235 004e BDE83840 		pop	{r3, r4, r5, lr}
 1236              	.LBB176:
 1237              	.LBB175:
 1238              	.LBB174:
 1239              		.loc 1 340 0
 1240 0052 FFF7FEBF 		b	_port_switch
 1241              	.L83:
 1242 0056 0548     		ldr	r0, .L84+4
 1243 0058 FFF7FEFF 		bl	chDbgPanic
 1244 005c F5E7     		b	.L80
 1245              	.LVL70:
ARM GAS  /tmp/ccuOaQcJ.s 			page 23


 1246              	.L81:
 1247              	.LBE174:
 1248              	.LBE175:
 1249              	.LBE176:
 1250              		.loc 1 375 0
 1251 005e BDE83840 		pop	{r3, r4, r5, lr}
 1252              		.loc 1 363 0
 1253 0062 FFF7FEBF 		b	chSchDoRescheduleBehind
 1254              	.L85:
 1255 0066 00BF     		.align	2
 1256              	.L84:
 1257 0068 00000000 		.word	.LANCHOR0
 1258 006c 14000000 		.word	.LC1
 1259              		.cfi_endproc
 1260              	.LFE16:
 1261              		.size	chSchDoReschedule, .-chSchDoReschedule
 1262              		.global	rlist
 1263              		.section	.rodata.str1.4,"aMS",%progbits,1
 1264              		.align	2
 1265              	.LC0:
 1266 0000 63685363 		.ascii	"chSchReadyI(), #1\000"
 1266      68526561 
 1266      64794928 
 1266      292C2023 
 1266      3100
 1267 0012 0000     		.space	2
 1268              	.LC1:
 1269 0014 73746163 		.ascii	"stack overflow\000"
 1269      6B206F76 
 1269      6572666C 
 1269      6F7700
 1270 0023 00       		.section	.bss.rlist,"aw",%nobits
 1271              		.align	2
 1272              		.set	.LANCHOR0,. + 0
 1273              		.type	rlist, %object
 1274              		.size	rlist, 28
 1275              	rlist:
 1276 0000 00000000 		.space	28
 1276      00000000 
 1276      00000000 
 1276      00000000 
 1276      00000000 
 1277              		.text
 1278              	.Letext0:
 1279              		.file 3 "/home/tino/ChibiStudio/tools/GNU Tools ARM Embedded/4.6 2012q2/bin/../lib/gcc/arm-none-ea
 1280              		.file 4 "../../ChibiOS/os/ports/GCC/ARMCMx/chtypes.h"
 1281              		.file 5 "../../ChibiOS/os/kernel/include/chlists.h"
 1282              		.file 6 "../../ChibiOS/os/kernel/include/chthreads.h"
 1283              		.file 7 "../../ChibiOS/os/ports/GCC/ARMCMx/chcore_v7m.h"
 1284              		.file 8 "../../ChibiOS/os/kernel/include/chvt.h"
 1285              		.file 9 "../../ChibiOS/os/kernel/include/chschd.h"
 1286              		.file 10 "../../ChibiOS/os/kernel/include/chsem.h"
 1287              		.file 11 "../../ChibiOS/os/kernel/include/chmtx.h"
 1288              		.section	.debug_info,"",%progbits
 1289              	.Ldebug_info0:
 1290 0000 6F0B0000 		.4byte	0xb6f
 1291 0004 0200     		.2byte	0x2
ARM GAS  /tmp/ccuOaQcJ.s 			page 24


 1292 0006 00000000 		.4byte	.Ldebug_abbrev0
 1293 000a 04       		.byte	0x4
 1294 000b 01       		.uleb128 0x1
 1295 000c A1000000 		.4byte	.LASF87
 1296 0010 01       		.byte	0x1
 1297 0011 71020000 		.4byte	.LASF88
 1298 0015 EA000000 		.4byte	.LASF89
 1299 0019 00000000 		.4byte	0
 1300 001d 00000000 		.4byte	0
 1301 0021 28040000 		.4byte	.Ldebug_ranges0+0x428
 1302 0025 00000000 		.4byte	.Ldebug_line0
 1303 0029 02       		.uleb128 0x2
 1304 002a 04       		.byte	0x4
 1305 002b 05       		.byte	0x5
 1306 002c 696E7400 		.ascii	"int\000"
 1307 0030 03       		.uleb128 0x3
 1308 0031 04       		.byte	0x4
 1309 0032 07       		.byte	0x7
 1310 0033 81010000 		.4byte	.LASF0
 1311 0037 03       		.uleb128 0x3
 1312 0038 01       		.byte	0x1
 1313 0039 06       		.byte	0x6
 1314 003a 72000000 		.4byte	.LASF1
 1315 003e 04       		.uleb128 0x4
 1316 003f DB030000 		.4byte	.LASF5
 1317 0043 03       		.byte	0x3
 1318 0044 2A       		.byte	0x2a
 1319 0045 49000000 		.4byte	0x49
 1320 0049 03       		.uleb128 0x3
 1321 004a 01       		.byte	0x1
 1322 004b 08       		.byte	0x8
 1323 004c BB020000 		.4byte	.LASF2
 1324 0050 03       		.uleb128 0x3
 1325 0051 02       		.byte	0x2
 1326 0052 05       		.byte	0x5
 1327 0053 DC020000 		.4byte	.LASF3
 1328 0057 03       		.uleb128 0x3
 1329 0058 02       		.byte	0x2
 1330 0059 07       		.byte	0x7
 1331 005a BD010000 		.4byte	.LASF4
 1332 005e 04       		.uleb128 0x4
 1333 005f B3020000 		.4byte	.LASF6
 1334 0063 03       		.byte	0x3
 1335 0064 4F       		.byte	0x4f
 1336 0065 69000000 		.4byte	0x69
 1337 0069 03       		.uleb128 0x3
 1338 006a 04       		.byte	0x4
 1339 006b 05       		.byte	0x5
 1340 006c 98000000 		.4byte	.LASF7
 1341 0070 04       		.uleb128 0x4
 1342 0071 35030000 		.4byte	.LASF8
 1343 0075 03       		.byte	0x3
 1344 0076 50       		.byte	0x50
 1345 0077 7B000000 		.4byte	0x7b
 1346 007b 03       		.uleb128 0x3
 1347 007c 04       		.byte	0x4
 1348 007d 07       		.byte	0x7
ARM GAS  /tmp/ccuOaQcJ.s 			page 25


 1349 007e 9D010000 		.4byte	.LASF9
 1350 0082 03       		.uleb128 0x3
 1351 0083 08       		.byte	0x8
 1352 0084 05       		.byte	0x5
 1353 0085 64000000 		.4byte	.LASF10
 1354 0089 04       		.uleb128 0x4
 1355 008a 0D000000 		.4byte	.LASF11
 1356 008e 03       		.byte	0x3
 1357 008f 78       		.byte	0x78
 1358 0090 94000000 		.4byte	0x94
 1359 0094 03       		.uleb128 0x3
 1360 0095 08       		.byte	0x8
 1361 0096 07       		.byte	0x7
 1362 0097 2D000000 		.4byte	.LASF12
 1363 009b 03       		.uleb128 0x3
 1364 009c 01       		.byte	0x1
 1365 009d 02       		.byte	0x2
 1366 009e AD020000 		.4byte	.LASF13
 1367 00a2 04       		.uleb128 0x4
 1368 00a3 E3010000 		.4byte	.LASF14
 1369 00a7 04       		.byte	0x4
 1370 00a8 25       		.byte	0x25
 1371 00a9 3E000000 		.4byte	0x3e
 1372 00ad 04       		.uleb128 0x4
 1373 00ae 1B010000 		.4byte	.LASF15
 1374 00b2 04       		.byte	0x4
 1375 00b3 26       		.byte	0x26
 1376 00b4 3E000000 		.4byte	0x3e
 1377 00b8 04       		.uleb128 0x4
 1378 00b9 96020000 		.4byte	.LASF16
 1379 00bd 04       		.byte	0x4
 1380 00be 27       		.byte	0x27
 1381 00bf 3E000000 		.4byte	0x3e
 1382 00c3 04       		.uleb128 0x4
 1383 00c4 8E000000 		.4byte	.LASF17
 1384 00c8 04       		.byte	0x4
 1385 00c9 28       		.byte	0x28
 1386 00ca 3E000000 		.4byte	0x3e
 1387 00ce 04       		.uleb128 0x4
 1388 00cf A5020000 		.4byte	.LASF18
 1389 00d3 04       		.byte	0x4
 1390 00d4 29       		.byte	0x29
 1391 00d5 70000000 		.4byte	0x70
 1392 00d9 04       		.uleb128 0x4
 1393 00da DD010000 		.4byte	.LASF19
 1394 00de 04       		.byte	0x4
 1395 00df 2A       		.byte	0x2a
 1396 00e0 5E000000 		.4byte	0x5e
 1397 00e4 04       		.uleb128 0x4
 1398 00e5 F7010000 		.4byte	.LASF20
 1399 00e9 04       		.byte	0x4
 1400 00ea 2C       		.byte	0x2c
 1401 00eb 70000000 		.4byte	0x70
 1402 00ef 04       		.uleb128 0x4
 1403 00f0 77030000 		.4byte	.LASF21
 1404 00f4 04       		.byte	0x4
 1405 00f5 2E       		.byte	0x2e
ARM GAS  /tmp/ccuOaQcJ.s 			page 26


 1406 00f6 70000000 		.4byte	0x70
 1407 00fa 04       		.uleb128 0x4
 1408 00fb 70010000 		.4byte	.LASF22
 1409 00ff 04       		.byte	0x4
 1410 0100 2F       		.byte	0x2f
 1411 0101 5E000000 		.4byte	0x5e
 1412 0105 04       		.uleb128 0x4
 1413 0106 15030000 		.4byte	.LASF23
 1414 010a 05       		.byte	0x5
 1415 010b 23       		.byte	0x23
 1416 010c 10010000 		.4byte	0x110
 1417 0110 05       		.uleb128 0x5
 1418 0111 15030000 		.4byte	.LASF23
 1419 0115 4C       		.byte	0x4c
 1420 0116 06       		.byte	0x6
 1421 0117 57       		.byte	0x57
 1422 0118 43020000 		.4byte	0x243
 1423 011c 06       		.uleb128 0x6
 1424 011d 06030000 		.4byte	.LASF24
 1425 0121 06       		.byte	0x6
 1426 0122 58       		.byte	0x58
 1427 0123 68020000 		.4byte	0x268
 1428 0127 02       		.byte	0x2
 1429 0128 23       		.byte	0x23
 1430 0129 00       		.uleb128 0
 1431 012a 06       		.uleb128 0x6
 1432 012b 9E020000 		.4byte	.LASF25
 1433 012f 06       		.byte	0x6
 1434 0130 5A       		.byte	0x5a
 1435 0131 68020000 		.4byte	0x268
 1436 0135 02       		.byte	0x2
 1437 0136 23       		.byte	0x23
 1438 0137 04       		.uleb128 0x4
 1439 0138 06       		.uleb128 0x6
 1440 0139 4D000000 		.4byte	.LASF26
 1441 013d 06       		.byte	0x6
 1442 013e 5C       		.byte	0x5c
 1443 013f CE000000 		.4byte	0xce
 1444 0143 02       		.byte	0x2
 1445 0144 23       		.byte	0x23
 1446 0145 08       		.uleb128 0x8
 1447 0146 06       		.uleb128 0x6
 1448 0147 0E040000 		.4byte	.LASF27
 1449 014b 06       		.byte	0x6
 1450 014c 5D       		.byte	0x5d
 1451 014d 41030000 		.4byte	0x341
 1452 0151 02       		.byte	0x2
 1453 0152 23       		.byte	0x23
 1454 0153 0C       		.uleb128 0xc
 1455 0154 06       		.uleb128 0x6
 1456 0155 24010000 		.4byte	.LASF28
 1457 0159 06       		.byte	0x6
 1458 015a 5F       		.byte	0x5f
 1459 015b 68020000 		.4byte	0x268
 1460 015f 02       		.byte	0x2
 1461 0160 23       		.byte	0x23
 1462 0161 10       		.uleb128 0x10
ARM GAS  /tmp/ccuOaQcJ.s 			page 27


 1463 0162 06       		.uleb128 0x6
 1464 0163 3C020000 		.4byte	.LASF29
 1465 0167 06       		.byte	0x6
 1466 0168 60       		.byte	0x60
 1467 0169 68020000 		.4byte	0x268
 1468 016d 02       		.byte	0x2
 1469 016e 23       		.byte	0x23
 1470 016f 14       		.uleb128 0x14
 1471 0170 06       		.uleb128 0x6
 1472 0171 EA030000 		.4byte	.LASF30
 1473 0175 06       		.byte	0x6
 1474 0176 67       		.byte	0x67
 1475 0177 03050000 		.4byte	0x503
 1476 017b 02       		.byte	0x2
 1477 017c 23       		.byte	0x23
 1478 017d 18       		.uleb128 0x18
 1479 017e 06       		.uleb128 0x6
 1480 017f 76010000 		.4byte	.LASF31
 1481 0183 06       		.byte	0x6
 1482 0184 6D       		.byte	0x6d
 1483 0185 15050000 		.4byte	0x515
 1484 0189 02       		.byte	0x2
 1485 018a 23       		.byte	0x23
 1486 018b 1C       		.uleb128 0x1c
 1487 018c 06       		.uleb128 0x6
 1488 018d E6020000 		.4byte	.LASF32
 1489 0191 06       		.byte	0x6
 1490 0192 72       		.byte	0x72
 1491 0193 AD000000 		.4byte	0xad
 1492 0197 02       		.byte	0x2
 1493 0198 23       		.byte	0x23
 1494 0199 20       		.uleb128 0x20
 1495 019a 06       		.uleb128 0x6
 1496 019b 0D030000 		.4byte	.LASF33
 1497 019f 06       		.byte	0x6
 1498 01a0 76       		.byte	0x76
 1499 01a1 A2000000 		.4byte	0xa2
 1500 01a5 02       		.byte	0x2
 1501 01a6 23       		.byte	0x23
 1502 01a7 21       		.uleb128 0x21
 1503 01a8 06       		.uleb128 0x6
 1504 01a9 C4030000 		.4byte	.LASF34
 1505 01ad 06       		.byte	0x6
 1506 01ae 7B       		.byte	0x7b
 1507 01af B8000000 		.4byte	0xb8
 1508 01b3 02       		.byte	0x2
 1509 01b4 23       		.byte	0x23
 1510 01b5 22       		.uleb128 0x22
 1511 01b6 06       		.uleb128 0x6
 1512 01b7 EE020000 		.4byte	.LASF35
 1513 01bb 06       		.byte	0x6
 1514 01bc 81       		.byte	0x81
 1515 01bd C3000000 		.4byte	0xc3
 1516 01c1 02       		.byte	0x2
 1517 01c2 23       		.byte	0x23
 1518 01c3 23       		.uleb128 0x23
 1519 01c4 06       		.uleb128 0x6
ARM GAS  /tmp/ccuOaQcJ.s 			page 28


 1520 01c5 95030000 		.4byte	.LASF36
 1521 01c9 06       		.byte	0x6
 1522 01ca 88       		.byte	0x88
 1523 01cb E5030000 		.4byte	0x3e5
 1524 01cf 02       		.byte	0x2
 1525 01d0 23       		.byte	0x23
 1526 01d1 24       		.uleb128 0x24
 1527 01d2 07       		.uleb128 0x7
 1528 01d3 705F7500 		.ascii	"p_u\000"
 1529 01d7 06       		.byte	0x6
 1530 01d8 AD       		.byte	0xad
 1531 01d9 CE040000 		.4byte	0x4ce
 1532 01dd 02       		.byte	0x2
 1533 01de 23       		.byte	0x23
 1534 01df 28       		.uleb128 0x28
 1535 01e0 06       		.uleb128 0x6
 1536 01e1 14040000 		.4byte	.LASF37
 1537 01e5 06       		.byte	0x6
 1538 01e6 B2       		.byte	0xb2
 1539 01e7 90020000 		.4byte	0x290
 1540 01eb 02       		.byte	0x2
 1541 01ec 23       		.byte	0x23
 1542 01ed 2C       		.uleb128 0x2c
 1543 01ee 06       		.uleb128 0x6
 1544 01ef A3030000 		.4byte	.LASF38
 1545 01f3 06       		.byte	0x6
 1546 01f4 B8       		.byte	0xb8
 1547 01f5 6E020000 		.4byte	0x26e
 1548 01f9 02       		.byte	0x2
 1549 01fa 23       		.byte	0x23
 1550 01fb 30       		.uleb128 0x30
 1551 01fc 06       		.uleb128 0x6
 1552 01fd 00000000 		.4byte	.LASF39
 1553 0201 06       		.byte	0x6
 1554 0202 BC       		.byte	0xbc
 1555 0203 D9000000 		.4byte	0xd9
 1556 0207 02       		.byte	0x2
 1557 0208 23       		.byte	0x23
 1558 0209 38       		.uleb128 0x38
 1559 020a 06       		.uleb128 0x6
 1560 020b 2A030000 		.4byte	.LASF40
 1561 020f 06       		.byte	0x6
 1562 0210 C2       		.byte	0xc2
 1563 0211 E4000000 		.4byte	0xe4
 1564 0215 02       		.byte	0x2
 1565 0216 23       		.byte	0x23
 1566 0217 3C       		.uleb128 0x3c
 1567 0218 06       		.uleb128 0x6
 1568 0219 D2020000 		.4byte	.LASF41
 1569 021d 06       		.byte	0x6
 1570 021e C9       		.byte	0xc9
 1571 021f 1B050000 		.4byte	0x51b
 1572 0223 02       		.byte	0x2
 1573 0224 23       		.byte	0x23
 1574 0225 40       		.uleb128 0x40
 1575 0226 06       		.uleb128 0x6
 1576 0227 81030000 		.4byte	.LASF42
ARM GAS  /tmp/ccuOaQcJ.s 			page 29


 1577 022b 06       		.byte	0x6
 1578 022c CD       		.byte	0xcd
 1579 022d CE000000 		.4byte	0xce
 1580 0231 02       		.byte	0x2
 1581 0232 23       		.byte	0x23
 1582 0233 44       		.uleb128 0x44
 1583 0234 06       		.uleb128 0x6
 1584 0235 7E000000 		.4byte	.LASF43
 1585 0239 06       		.byte	0x6
 1586 023a D3       		.byte	0xd3
 1587 023b A6020000 		.4byte	0x2a6
 1588 023f 02       		.byte	0x2
 1589 0240 23       		.byte	0x23
 1590 0241 48       		.uleb128 0x48
 1591 0242 00       		.byte	0
 1592 0243 08       		.uleb128 0x8
 1593 0244 08       		.byte	0x8
 1594 0245 05       		.byte	0x5
 1595 0246 5A       		.byte	0x5a
 1596 0247 68020000 		.4byte	0x268
 1597 024b 06       		.uleb128 0x6
 1598 024c 06030000 		.4byte	.LASF24
 1599 0250 05       		.byte	0x5
 1600 0251 5B       		.byte	0x5b
 1601 0252 68020000 		.4byte	0x268
 1602 0256 02       		.byte	0x2
 1603 0257 23       		.byte	0x23
 1604 0258 00       		.uleb128 0
 1605 0259 06       		.uleb128 0x6
 1606 025a 9E020000 		.4byte	.LASF25
 1607 025e 05       		.byte	0x5
 1608 025f 5D       		.byte	0x5d
 1609 0260 68020000 		.4byte	0x268
 1610 0264 02       		.byte	0x2
 1611 0265 23       		.byte	0x23
 1612 0266 04       		.uleb128 0x4
 1613 0267 00       		.byte	0
 1614 0268 09       		.uleb128 0x9
 1615 0269 04       		.byte	0x4
 1616 026a 05010000 		.4byte	0x105
 1617 026e 04       		.uleb128 0x4
 1618 026f 4A020000 		.4byte	.LASF44
 1619 0273 05       		.byte	0x5
 1620 0274 5F       		.byte	0x5f
 1621 0275 43020000 		.4byte	0x243
 1622 0279 08       		.uleb128 0x8
 1623 027a 04       		.byte	0x4
 1624 027b 05       		.byte	0x5
 1625 027c 64       		.byte	0x64
 1626 027d 90020000 		.4byte	0x290
 1627 0281 06       		.uleb128 0x6
 1628 0282 06030000 		.4byte	.LASF24
 1629 0286 05       		.byte	0x5
 1630 0287 66       		.byte	0x66
 1631 0288 68020000 		.4byte	0x268
 1632 028c 02       		.byte	0x2
 1633 028d 23       		.byte	0x23
ARM GAS  /tmp/ccuOaQcJ.s 			page 30


 1634 028e 00       		.uleb128 0
 1635 028f 00       		.byte	0
 1636 0290 04       		.uleb128 0x4
 1637 0291 EB010000 		.4byte	.LASF45
 1638 0295 05       		.byte	0x5
 1639 0296 69       		.byte	0x69
 1640 0297 79020000 		.4byte	0x279
 1641 029b 04       		.uleb128 0x4
 1642 029c 4D010000 		.4byte	.LASF46
 1643 02a0 07       		.byte	0x7
 1644 02a1 DE       		.byte	0xde
 1645 02a2 A6020000 		.4byte	0x2a6
 1646 02a6 0A       		.uleb128 0xa
 1647 02a7 04       		.byte	0x4
 1648 02a8 04       		.uleb128 0x4
 1649 02a9 09020000 		.4byte	.LASF47
 1650 02ad 07       		.byte	0x7
 1651 02ae E4       		.byte	0xe4
 1652 02af 89000000 		.4byte	0x89
 1653 02b3 0B       		.uleb128 0xb
 1654 02b4 9C030000 		.4byte	.LASF48
 1655 02b8 24       		.byte	0x24
 1656 02b9 07       		.byte	0x7
 1657 02ba 0501     		.2byte	0x105
 1658 02bc 41030000 		.4byte	0x341
 1659 02c0 0C       		.uleb128 0xc
 1660 02c1 723400   		.ascii	"r4\000"
 1661 02c4 07       		.byte	0x7
 1662 02c5 1801     		.2byte	0x118
 1663 02c7 9B020000 		.4byte	0x29b
 1664 02cb 02       		.byte	0x2
 1665 02cc 23       		.byte	0x23
 1666 02cd 00       		.uleb128 0
 1667 02ce 0C       		.uleb128 0xc
 1668 02cf 723500   		.ascii	"r5\000"
 1669 02d2 07       		.byte	0x7
 1670 02d3 1901     		.2byte	0x119
 1671 02d5 9B020000 		.4byte	0x29b
 1672 02d9 02       		.byte	0x2
 1673 02da 23       		.byte	0x23
 1674 02db 04       		.uleb128 0x4
 1675 02dc 0C       		.uleb128 0xc
 1676 02dd 723600   		.ascii	"r6\000"
 1677 02e0 07       		.byte	0x7
 1678 02e1 1A01     		.2byte	0x11a
 1679 02e3 9B020000 		.4byte	0x29b
 1680 02e7 02       		.byte	0x2
 1681 02e8 23       		.byte	0x23
 1682 02e9 08       		.uleb128 0x8
 1683 02ea 0C       		.uleb128 0xc
 1684 02eb 723700   		.ascii	"r7\000"
 1685 02ee 07       		.byte	0x7
 1686 02ef 1B01     		.2byte	0x11b
 1687 02f1 9B020000 		.4byte	0x29b
 1688 02f5 02       		.byte	0x2
 1689 02f6 23       		.byte	0x23
 1690 02f7 0C       		.uleb128 0xc
ARM GAS  /tmp/ccuOaQcJ.s 			page 31


 1691 02f8 0C       		.uleb128 0xc
 1692 02f9 723800   		.ascii	"r8\000"
 1693 02fc 07       		.byte	0x7
 1694 02fd 1C01     		.2byte	0x11c
 1695 02ff 9B020000 		.4byte	0x29b
 1696 0303 02       		.byte	0x2
 1697 0304 23       		.byte	0x23
 1698 0305 10       		.uleb128 0x10
 1699 0306 0C       		.uleb128 0xc
 1700 0307 723900   		.ascii	"r9\000"
 1701 030a 07       		.byte	0x7
 1702 030b 1D01     		.2byte	0x11d
 1703 030d 9B020000 		.4byte	0x29b
 1704 0311 02       		.byte	0x2
 1705 0312 23       		.byte	0x23
 1706 0313 14       		.uleb128 0x14
 1707 0314 0C       		.uleb128 0xc
 1708 0315 72313000 		.ascii	"r10\000"
 1709 0319 07       		.byte	0x7
 1710 031a 1E01     		.2byte	0x11e
 1711 031c 9B020000 		.4byte	0x29b
 1712 0320 02       		.byte	0x2
 1713 0321 23       		.byte	0x23
 1714 0322 18       		.uleb128 0x18
 1715 0323 0C       		.uleb128 0xc
 1716 0324 72313100 		.ascii	"r11\000"
 1717 0328 07       		.byte	0x7
 1718 0329 1F01     		.2byte	0x11f
 1719 032b 9B020000 		.4byte	0x29b
 1720 032f 02       		.byte	0x2
 1721 0330 23       		.byte	0x23
 1722 0331 1C       		.uleb128 0x1c
 1723 0332 0C       		.uleb128 0xc
 1724 0333 6C7200   		.ascii	"lr\000"
 1725 0336 07       		.byte	0x7
 1726 0337 2001     		.2byte	0x120
 1727 0339 9B020000 		.4byte	0x29b
 1728 033d 02       		.byte	0x2
 1729 033e 23       		.byte	0x23
 1730 033f 20       		.uleb128 0x20
 1731 0340 00       		.byte	0
 1732 0341 0B       		.uleb128 0xb
 1733 0342 B5010000 		.4byte	.LASF49
 1734 0346 04       		.byte	0x4
 1735 0347 07       		.byte	0x7
 1736 0348 2A01     		.2byte	0x12a
 1737 034a 5E030000 		.4byte	0x35e
 1738 034e 0C       		.uleb128 0xc
 1739 034f 72313300 		.ascii	"r13\000"
 1740 0353 07       		.byte	0x7
 1741 0354 2B01     		.2byte	0x12b
 1742 0356 5E030000 		.4byte	0x35e
 1743 035a 02       		.byte	0x2
 1744 035b 23       		.byte	0x23
 1745 035c 00       		.uleb128 0
 1746 035d 00       		.byte	0
 1747 035e 09       		.uleb128 0x9
ARM GAS  /tmp/ccuOaQcJ.s 			page 32


 1748 035f 04       		.byte	0x4
 1749 0360 B3020000 		.4byte	0x2b3
 1750 0364 04       		.uleb128 0x4
 1751 0365 8C030000 		.4byte	.LASF50
 1752 0369 08       		.byte	0x8
 1753 036a 4E       		.byte	0x4e
 1754 036b 6F030000 		.4byte	0x36f
 1755 036f 09       		.uleb128 0x9
 1756 0370 04       		.byte	0x4
 1757 0371 75030000 		.4byte	0x375
 1758 0375 0D       		.uleb128 0xd
 1759 0376 01       		.byte	0x1
 1760 0377 81030000 		.4byte	0x381
 1761 037b 0E       		.uleb128 0xe
 1762 037c A6020000 		.4byte	0x2a6
 1763 0380 00       		.byte	0
 1764 0381 04       		.uleb128 0x4
 1765 0382 46030000 		.4byte	.LASF51
 1766 0386 08       		.byte	0x8
 1767 0387 53       		.byte	0x53
 1768 0388 8C030000 		.4byte	0x38c
 1769 038c 05       		.uleb128 0x5
 1770 038d 46030000 		.4byte	.LASF51
 1771 0391 14       		.byte	0x14
 1772 0392 08       		.byte	0x8
 1773 0393 5A       		.byte	0x5a
 1774 0394 DF030000 		.4byte	0x3df
 1775 0398 06       		.uleb128 0x6
 1776 0399 95010000 		.4byte	.LASF52
 1777 039d 08       		.byte	0x8
 1778 039e 5B       		.byte	0x5b
 1779 039f DF030000 		.4byte	0x3df
 1780 03a3 02       		.byte	0x2
 1781 03a4 23       		.byte	0x23
 1782 03a5 00       		.uleb128 0
 1783 03a6 06       		.uleb128 0x6
 1784 03a7 56010000 		.4byte	.LASF53
 1785 03ab 08       		.byte	0x8
 1786 03ac 5D       		.byte	0x5d
 1787 03ad DF030000 		.4byte	0x3df
 1788 03b1 02       		.byte	0x2
 1789 03b2 23       		.byte	0x23
 1790 03b3 04       		.uleb128 0x4
 1791 03b4 06       		.uleb128 0x6
 1792 03b5 14020000 		.4byte	.LASF54
 1793 03b9 08       		.byte	0x8
 1794 03ba 5F       		.byte	0x5f
 1795 03bb EF000000 		.4byte	0xef
 1796 03bf 02       		.byte	0x2
 1797 03c0 23       		.byte	0x23
 1798 03c1 08       		.uleb128 0x8
 1799 03c2 06       		.uleb128 0x6
 1800 03c3 1C020000 		.4byte	.LASF55
 1801 03c7 08       		.byte	0x8
 1802 03c8 60       		.byte	0x60
 1803 03c9 64030000 		.4byte	0x364
 1804 03cd 02       		.byte	0x2
ARM GAS  /tmp/ccuOaQcJ.s 			page 33


 1805 03ce 23       		.byte	0x23
 1806 03cf 0C       		.uleb128 0xc
 1807 03d0 06       		.uleb128 0x6
 1808 03d1 B3030000 		.4byte	.LASF56
 1809 03d5 08       		.byte	0x8
 1810 03d6 62       		.byte	0x62
 1811 03d7 A6020000 		.4byte	0x2a6
 1812 03db 02       		.byte	0x2
 1813 03dc 23       		.byte	0x23
 1814 03dd 10       		.uleb128 0x10
 1815 03de 00       		.byte	0
 1816 03df 09       		.uleb128 0x9
 1817 03e0 04       		.byte	0x4
 1818 03e1 81030000 		.4byte	0x381
 1819 03e5 0F       		.uleb128 0xf
 1820 03e6 EF000000 		.4byte	0xef
 1821 03ea 08       		.uleb128 0x8
 1822 03eb 1C       		.byte	0x1c
 1823 03ec 09       		.byte	0x9
 1824 03ed 57       		.byte	0x57
 1825 03ee 47040000 		.4byte	0x447
 1826 03f2 06       		.uleb128 0x6
 1827 03f3 3E030000 		.4byte	.LASF57
 1828 03f7 09       		.byte	0x9
 1829 03f8 58       		.byte	0x58
 1830 03f9 6E020000 		.4byte	0x26e
 1831 03fd 02       		.byte	0x2
 1832 03fe 23       		.byte	0x23
 1833 03ff 00       		.uleb128 0
 1834 0400 06       		.uleb128 0x6
 1835 0401 F8020000 		.4byte	.LASF58
 1836 0405 09       		.byte	0x9
 1837 0406 59       		.byte	0x59
 1838 0407 CE000000 		.4byte	0xce
 1839 040b 02       		.byte	0x2
 1840 040c 23       		.byte	0x23
 1841 040d 08       		.uleb128 0x8
 1842 040e 06       		.uleb128 0x6
 1843 040f 44020000 		.4byte	.LASF59
 1844 0413 09       		.byte	0x9
 1845 0414 5B       		.byte	0x5b
 1846 0415 41030000 		.4byte	0x341
 1847 0419 02       		.byte	0x2
 1848 041a 23       		.byte	0x23
 1849 041b 0C       		.uleb128 0xc
 1850 041c 06       		.uleb128 0x6
 1851 041d 45010000 		.4byte	.LASF60
 1852 0421 09       		.byte	0x9
 1853 0422 5E       		.byte	0x5e
 1854 0423 68020000 		.4byte	0x268
 1855 0427 02       		.byte	0x2
 1856 0428 23       		.byte	0x23
 1857 0429 10       		.uleb128 0x10
 1858 042a 06       		.uleb128 0x6
 1859 042b 69020000 		.4byte	.LASF61
 1860 042f 09       		.byte	0x9
 1861 0430 5F       		.byte	0x5f
ARM GAS  /tmp/ccuOaQcJ.s 			page 34


 1862 0431 68020000 		.4byte	0x268
 1863 0435 02       		.byte	0x2
 1864 0436 23       		.byte	0x23
 1865 0437 14       		.uleb128 0x14
 1866 0438 06       		.uleb128 0x6
 1867 0439 5F020000 		.4byte	.LASF62
 1868 043d 09       		.byte	0x9
 1869 043e 62       		.byte	0x62
 1870 043f 68020000 		.4byte	0x268
 1871 0443 02       		.byte	0x2
 1872 0444 23       		.byte	0x23
 1873 0445 18       		.uleb128 0x18
 1874 0446 00       		.byte	0
 1875 0447 04       		.uleb128 0x4
 1876 0448 CB030000 		.4byte	.LASF63
 1877 044c 09       		.byte	0x9
 1878 044d 64       		.byte	0x64
 1879 044e EA030000 		.4byte	0x3ea
 1880 0452 05       		.uleb128 0x5
 1881 0453 BA030000 		.4byte	.LASF64
 1882 0457 0C       		.byte	0xc
 1883 0458 0A       		.byte	0xa
 1884 0459 25       		.byte	0x25
 1885 045a 7B040000 		.4byte	0x47b
 1886 045e 06       		.uleb128 0x6
 1887 045f 2C010000 		.4byte	.LASF65
 1888 0463 0A       		.byte	0xa
 1889 0464 26       		.byte	0x26
 1890 0465 6E020000 		.4byte	0x26e
 1891 0469 02       		.byte	0x2
 1892 046a 23       		.byte	0x23
 1893 046b 00       		.uleb128 0
 1894 046c 06       		.uleb128 0x6
 1895 046d AF010000 		.4byte	.LASF66
 1896 0471 0A       		.byte	0xa
 1897 0472 28       		.byte	0x28
 1898 0473 FA000000 		.4byte	0xfa
 1899 0477 02       		.byte	0x2
 1900 0478 23       		.byte	0x23
 1901 0479 08       		.uleb128 0x8
 1902 047a 00       		.byte	0
 1903 047b 04       		.uleb128 0x4
 1904 047c BA030000 		.4byte	.LASF64
 1905 0480 0A       		.byte	0xa
 1906 0481 29       		.byte	0x29
 1907 0482 52040000 		.4byte	0x452
 1908 0486 05       		.uleb128 0x5
 1909 0487 03020000 		.4byte	.LASF67
 1910 048b 10       		.byte	0x10
 1911 048c 0B       		.byte	0xb
 1912 048d 25       		.byte	0x25
 1913 048e BD040000 		.4byte	0x4bd
 1914 0492 06       		.uleb128 0x6
 1915 0493 86000000 		.4byte	.LASF68
 1916 0497 0B       		.byte	0xb
 1917 0498 26       		.byte	0x26
 1918 0499 6E020000 		.4byte	0x26e
ARM GAS  /tmp/ccuOaQcJ.s 			page 35


 1919 049d 02       		.byte	0x2
 1920 049e 23       		.byte	0x23
 1921 049f 00       		.uleb128 0
 1922 04a0 06       		.uleb128 0x6
 1923 04a1 06040000 		.4byte	.LASF69
 1924 04a5 0B       		.byte	0xb
 1925 04a6 28       		.byte	0x28
 1926 04a7 68020000 		.4byte	0x268
 1927 04ab 02       		.byte	0x2
 1928 04ac 23       		.byte	0x23
 1929 04ad 08       		.uleb128 0x8
 1930 04ae 06       		.uleb128 0x6
 1931 04af 70030000 		.4byte	.LASF70
 1932 04b3 0B       		.byte	0xb
 1933 04b4 2A       		.byte	0x2a
 1934 04b5 BD040000 		.4byte	0x4bd
 1935 04b9 02       		.byte	0x2
 1936 04ba 23       		.byte	0x23
 1937 04bb 0C       		.uleb128 0xc
 1938 04bc 00       		.byte	0
 1939 04bd 09       		.uleb128 0x9
 1940 04be 04       		.byte	0x4
 1941 04bf 86040000 		.4byte	0x486
 1942 04c3 04       		.uleb128 0x4
 1943 04c4 03020000 		.4byte	.LASF67
 1944 04c8 0B       		.byte	0xb
 1945 04c9 2C       		.byte	0x2c
 1946 04ca 86040000 		.4byte	0x486
 1947 04ce 10       		.uleb128 0x10
 1948 04cf 04       		.byte	0x4
 1949 04d0 06       		.byte	0x6
 1950 04d1 8F       		.byte	0x8f
 1951 04d2 03050000 		.4byte	0x503
 1952 04d6 11       		.uleb128 0x11
 1953 04d7 06000000 		.4byte	.LASF71
 1954 04db 06       		.byte	0x6
 1955 04dc 96       		.byte	0x96
 1956 04dd D9000000 		.4byte	0xd9
 1957 04e1 11       		.uleb128 0x11
 1958 04e2 44000000 		.4byte	.LASF72
 1959 04e6 06       		.byte	0x6
 1960 04e7 9D       		.byte	0x9d
 1961 04e8 D9000000 		.4byte	0xd9
 1962 04ec 11       		.uleb128 0x11
 1963 04ed E3030000 		.4byte	.LASF73
 1964 04f1 06       		.byte	0x6
 1965 04f2 A4       		.byte	0xa4
 1966 04f3 A6020000 		.4byte	0x2a6
 1967 04f7 11       		.uleb128 0x11
 1968 04f8 FF020000 		.4byte	.LASF74
 1969 04fc 06       		.byte	0x6
 1970 04fd AB       		.byte	0xab
 1971 04fe E4000000 		.4byte	0xe4
 1972 0502 00       		.byte	0
 1973 0503 09       		.uleb128 0x9
 1974 0504 04       		.byte	0x4
 1975 0505 09050000 		.4byte	0x509
ARM GAS  /tmp/ccuOaQcJ.s 			page 36


 1976 0509 12       		.uleb128 0x12
 1977 050a 0E050000 		.4byte	0x50e
 1978 050e 03       		.uleb128 0x3
 1979 050f 01       		.byte	0x1
 1980 0510 08       		.byte	0x8
 1981 0511 53030000 		.4byte	.LASF75
 1982 0515 09       		.uleb128 0x9
 1983 0516 04       		.byte	0x4
 1984 0517 A8020000 		.4byte	0x2a8
 1985 051b 09       		.uleb128 0x9
 1986 051c 04       		.byte	0x4
 1987 051d C3040000 		.4byte	0x4c3
 1988 0521 13       		.uleb128 0x13
 1989 0522 57020000 		.4byte	.LASF76
 1990 0526 02       		.byte	0x2
 1991 0527 42       		.byte	0x42
 1992 0528 01       		.byte	0x1
 1993 0529 68020000 		.4byte	0x268
 1994 052d 03       		.byte	0x3
 1995 052e 3D050000 		.4byte	0x53d
 1996 0532 14       		.uleb128 0x14
 1997 0533 747000   		.ascii	"tp\000"
 1998 0536 02       		.byte	0x2
 1999 0537 42       		.byte	0x42
 2000 0538 68020000 		.4byte	0x268
 2001 053c 00       		.byte	0
 2002 053d 15       		.uleb128 0x15
 2003 053e 8E010000 		.4byte	.LASF90
 2004 0542 01       		.byte	0x1
 2005 0543 81       		.byte	0x81
 2006 0544 01       		.byte	0x1
 2007 0545 01       		.byte	0x1
 2008 0546 8D050000 		.4byte	0x58d
 2009 054a 14       		.uleb128 0x14
 2010 054b 7000     		.ascii	"p\000"
 2011 054d 01       		.byte	0x1
 2012 054e 81       		.byte	0x81
 2013 054f A6020000 		.4byte	0x2a6
 2014 0553 16       		.uleb128 0x16
 2015 0554 747000   		.ascii	"tp\000"
 2016 0557 01       		.byte	0x1
 2017 0558 82       		.byte	0x82
 2018 0559 68020000 		.4byte	0x268
 2019 055d 17       		.uleb128 0x17
 2020 055e 6E050000 		.4byte	0x56e
 2021 0562 16       		.uleb128 0x16
 2022 0563 746D7000 		.ascii	"tmp\000"
 2023 0567 01       		.byte	0x1
 2024 0568 84       		.byte	0x84
 2025 0569 70000000 		.4byte	0x70
 2026 056d 00       		.byte	0
 2027 056e 17       		.uleb128 0x17
 2028 056f 7F050000 		.4byte	0x57f
 2029 0573 16       		.uleb128 0x16
 2030 0574 746D7000 		.ascii	"tmp\000"
 2031 0578 01       		.byte	0x1
 2032 0579 89       		.byte	0x89
ARM GAS  /tmp/ccuOaQcJ.s 			page 37


 2033 057a 70000000 		.4byte	0x70
 2034 057e 00       		.byte	0
 2035 057f 18       		.uleb128 0x18
 2036 0580 16       		.uleb128 0x16
 2037 0581 746D7000 		.ascii	"tmp\000"
 2038 0585 01       		.byte	0x1
 2039 0586 9E       		.byte	0x9e
 2040 0587 70000000 		.4byte	0x70
 2041 058b 00       		.byte	0
 2042 058c 00       		.byte	0
 2043 058d 13       		.uleb128 0x13
 2044 058e 58030000 		.4byte	.LASF77
 2045 0592 02       		.byte	0x2
 2046 0593 34       		.byte	0x34
 2047 0594 01       		.byte	0x1
 2048 0595 68020000 		.4byte	0x268
 2049 0599 03       		.byte	0x3
 2050 059a B4050000 		.4byte	0x5b4
 2051 059e 14       		.uleb128 0x14
 2052 059f 74717000 		.ascii	"tqp\000"
 2053 05a3 02       		.byte	0x2
 2054 05a4 34       		.byte	0x34
 2055 05a5 B4050000 		.4byte	0x5b4
 2056 05a9 16       		.uleb128 0x16
 2057 05aa 747000   		.ascii	"tp\000"
 2058 05ad 02       		.byte	0x2
 2059 05ae 35       		.byte	0x35
 2060 05af 68020000 		.4byte	0x268
 2061 05b3 00       		.byte	0
 2062 05b4 09       		.uleb128 0x9
 2063 05b5 04       		.byte	0x4
 2064 05b6 6E020000 		.4byte	0x26e
 2065 05ba 19       		.uleb128 0x19
 2066 05bb 01       		.byte	0x1
 2067 05bc 64030000 		.4byte	.LASF91
 2068 05c0 01       		.byte	0x1
 2069 05c1 4A       		.byte	0x4a
 2070 05c2 01       		.byte	0x1
 2071 05c3 68020000 		.4byte	0x268
 2072 05c7 01       		.byte	0x1
 2073 05c8 E1050000 		.4byte	0x5e1
 2074 05cc 14       		.uleb128 0x14
 2075 05cd 747000   		.ascii	"tp\000"
 2076 05d0 01       		.byte	0x1
 2077 05d1 4A       		.byte	0x4a
 2078 05d2 68020000 		.4byte	0x268
 2079 05d6 16       		.uleb128 0x16
 2080 05d7 637000   		.ascii	"cp\000"
 2081 05da 01       		.byte	0x1
 2082 05db 4B       		.byte	0x4b
 2083 05dc 68020000 		.4byte	0x268
 2084 05e0 00       		.byte	0
 2085 05e1 1A       		.uleb128 0x1a
 2086 05e2 3D050000 		.4byte	0x53d
 2087 05e6 00000000 		.4byte	.LFB10
 2088 05ea 84000000 		.4byte	.LFE10
 2089 05ee 00000000 		.4byte	.LLST0
ARM GAS  /tmp/ccuOaQcJ.s 			page 38


 2090 05f2 7C060000 		.4byte	0x67c
 2091 05f6 1B       		.uleb128 0x1b
 2092 05f7 4A050000 		.4byte	0x54a
 2093 05fb 20000000 		.4byte	.LLST1
 2094 05ff 1C       		.uleb128 0x1c
 2095 0600 53050000 		.4byte	0x553
 2096 0604 3E000000 		.4byte	.LLST2
 2097 0608 1D       		.uleb128 0x1d
 2098 0609 00000000 		.4byte	.Ldebug_ranges0+0
 2099 060d 1B060000 		.4byte	0x61b
 2100 0611 1C       		.uleb128 0x1c
 2101 0612 62050000 		.4byte	0x562
 2102 0616 5C000000 		.4byte	.LLST3
 2103 061a 00       		.byte	0
 2104 061b 1E       		.uleb128 0x1e
 2105 061c 21050000 		.4byte	0x521
 2106 0620 30000000 		.4byte	.LBB36
 2107 0624 3A000000 		.4byte	.LBE36
 2108 0628 01       		.byte	0x1
 2109 0629 99       		.byte	0x99
 2110 062a 38060000 		.4byte	0x638
 2111 062e 1B       		.uleb128 0x1b
 2112 062f 32050000 		.4byte	0x532
 2113 0633 6F000000 		.4byte	.LLST4
 2114 0637 00       		.byte	0
 2115 0638 1E       		.uleb128 0x1e
 2116 0639 BA050000 		.4byte	0x5ba
 2117 063d 40000000 		.4byte	.LBB38
 2118 0641 70000000 		.4byte	.LBE38
 2119 0645 01       		.byte	0x1
 2120 0646 9D       		.byte	0x9d
 2121 0647 68060000 		.4byte	0x668
 2122 064b 1B       		.uleb128 0x1b
 2123 064c CC050000 		.4byte	0x5cc
 2124 0650 82000000 		.4byte	.LLST5
 2125 0654 1F       		.uleb128 0x1f
 2126 0655 40000000 		.4byte	.LBB39
 2127 0659 70000000 		.4byte	.LBE39
 2128 065d 1C       		.uleb128 0x1c
 2129 065e D6050000 		.4byte	0x5d6
 2130 0662 95000000 		.4byte	.LLST6
 2131 0666 00       		.byte	0
 2132 0667 00       		.byte	0
 2133 0668 1F       		.uleb128 0x1f
 2134 0669 74000000 		.4byte	.LBB40
 2135 066d 84000000 		.4byte	.LBE40
 2136 0671 1C       		.uleb128 0x1c
 2137 0672 80050000 		.4byte	0x580
 2138 0676 A8000000 		.4byte	.LLST7
 2139 067a 00       		.byte	0
 2140 067b 00       		.byte	0
 2141 067c 20       		.uleb128 0x20
 2142 067d 01       		.byte	0x1
 2143 067e 54000000 		.4byte	.LASF92
 2144 0682 01       		.byte	0x1
 2145 0683 30       		.byte	0x30
 2146 0684 01       		.byte	0x1
ARM GAS  /tmp/ccuOaQcJ.s 			page 39


 2147 0685 00000000 		.4byte	.LFB7
 2148 0689 16000000 		.4byte	.LFE7
 2149 068d 02       		.byte	0x2
 2150 068e 7D       		.byte	0x7d
 2151 068f 00       		.sleb128 0
 2152 0690 1A       		.uleb128 0x1a
 2153 0691 BA050000 		.4byte	0x5ba
 2154 0695 00000000 		.4byte	.LFB8
 2155 0699 44000000 		.4byte	.LFE8
 2156 069d BB000000 		.4byte	.LLST8
 2157 06a1 B8060000 		.4byte	0x6b8
 2158 06a5 1B       		.uleb128 0x1b
 2159 06a6 CC050000 		.4byte	0x5cc
 2160 06aa DB000000 		.4byte	.LLST9
 2161 06ae 1C       		.uleb128 0x1c
 2162 06af D6050000 		.4byte	0x5d6
 2163 06b3 F9000000 		.4byte	.LLST10
 2164 06b7 00       		.byte	0
 2165 06b8 21       		.uleb128 0x21
 2166 06b9 01       		.byte	0x1
 2167 06ba 1C030000 		.4byte	.LASF80
 2168 06be 01       		.byte	0x1
 2169 06bf 6C       		.byte	0x6c
 2170 06c0 01       		.byte	0x1
 2171 06c1 01       		.byte	0x1
 2172 06c2 EA060000 		.4byte	0x6ea
 2173 06c6 22       		.uleb128 0x22
 2174 06c7 C9020000 		.4byte	.LASF78
 2175 06cb 01       		.byte	0x1
 2176 06cc 6C       		.byte	0x6c
 2177 06cd AD000000 		.4byte	0xad
 2178 06d1 16       		.uleb128 0x16
 2179 06d2 6F747000 		.ascii	"otp\000"
 2180 06d6 01       		.byte	0x1
 2181 06d7 6D       		.byte	0x6d
 2182 06d8 68020000 		.4byte	0x268
 2183 06dc 18       		.uleb128 0x18
 2184 06dd 16       		.uleb128 0x16
 2185 06de 72313300 		.ascii	"r13\000"
 2186 06e2 01       		.byte	0x1
 2187 06e3 79       		.byte	0x79
 2188 06e4 5E030000 		.4byte	0x35e
 2189 06e8 00       		.byte	0
 2190 06e9 00       		.byte	0
 2191 06ea 1A       		.uleb128 0x1a
 2192 06eb B8060000 		.4byte	0x6b8
 2193 06ef 00000000 		.4byte	.LFB9
 2194 06f3 50000000 		.4byte	.LFE9
 2195 06f7 0C010000 		.4byte	.LLST11
 2196 06fb 4E070000 		.4byte	0x74e
 2197 06ff 1B       		.uleb128 0x1b
 2198 0700 C6060000 		.4byte	0x6c6
 2199 0704 2C010000 		.4byte	.LLST12
 2200 0708 1C       		.uleb128 0x1c
 2201 0709 D1060000 		.4byte	0x6d1
 2202 070d 3F010000 		.4byte	.LLST13
 2203 0711 23       		.uleb128 0x23
ARM GAS  /tmp/ccuOaQcJ.s 			page 40


 2204 0712 8D050000 		.4byte	0x58d
 2205 0716 0A000000 		.4byte	.LBB44
 2206 071a 18000000 		.4byte	.Ldebug_ranges0+0x18
 2207 071e 01       		.byte	0x1
 2208 071f 77       		.byte	0x77
 2209 0720 40070000 		.4byte	0x740
 2210 0724 24       		.uleb128 0x24
 2211 0725 9E050000 		.4byte	0x59e
 2212 0729 06       		.byte	0x6
 2213 072a 03       		.byte	0x3
 2214 072b 00000000 		.4byte	rlist
 2215 072f 9F       		.byte	0x9f
 2216 0730 25       		.uleb128 0x25
 2217 0731 40000000 		.4byte	.Ldebug_ranges0+0x40
 2218 0735 1C       		.uleb128 0x1c
 2219 0736 A9050000 		.4byte	0x5a9
 2220 073a 61010000 		.4byte	.LLST14
 2221 073e 00       		.byte	0
 2222 073f 00       		.byte	0
 2223 0740 25       		.uleb128 0x25
 2224 0741 68000000 		.4byte	.Ldebug_ranges0+0x68
 2225 0745 26       		.uleb128 0x26
 2226 0746 DD060000 		.4byte	0x6dd
 2227 074a 01       		.byte	0x1
 2228 074b 5D       		.byte	0x5d
 2229 074c 00       		.byte	0
 2230 074d 00       		.byte	0
 2231 074e 27       		.uleb128 0x27
 2232 074f 01       		.byte	0x1
 2233 0750 F1030000 		.4byte	.LASF93
 2234 0754 01       		.byte	0x1
 2235 0755 B6       		.byte	0xb6
 2236 0756 01       		.byte	0x1
 2237 0757 D9000000 		.4byte	0xd9
 2238 075b 00000000 		.4byte	.LFB11
 2239 075f C8000000 		.4byte	.LFE11
 2240 0763 78010000 		.4byte	.LLST15
 2241 0767 6C080000 		.4byte	0x86c
 2242 076b 28       		.uleb128 0x28
 2243 076c C9020000 		.4byte	.LASF78
 2244 0770 01       		.byte	0x1
 2245 0771 B6       		.byte	0xb6
 2246 0772 AD000000 		.4byte	0xad
 2247 0776 A4010000 		.4byte	.LLST16
 2248 077a 28       		.uleb128 0x28
 2249 077b AE030000 		.4byte	.LASF79
 2250 077f 01       		.byte	0x1
 2251 0780 B6       		.byte	0xb6
 2252 0781 EF000000 		.4byte	0xef
 2253 0785 B7010000 		.4byte	.LLST17
 2254 0789 1D       		.uleb128 0x1d
 2255 078a 80000000 		.4byte	.Ldebug_ranges0+0x80
 2256 078e 01080000 		.4byte	0x801
 2257 0792 29       		.uleb128 0x29
 2258 0793 767400   		.ascii	"vt\000"
 2259 0796 01       		.byte	0x1
 2260 0797 BB       		.byte	0xbb
ARM GAS  /tmp/ccuOaQcJ.s 			page 41


 2261 0798 81030000 		.4byte	0x381
 2262 079c 02       		.byte	0x2
 2263 079d 91       		.byte	0x91
 2264 079e 5C       		.sleb128 -36
 2265 079f 2A       		.uleb128 0x2a
 2266 07a0 B8060000 		.4byte	0x6b8
 2267 07a4 1E000000 		.4byte	.LBB66
 2268 07a8 A0000000 		.4byte	.Ldebug_ranges0+0xa0
 2269 07ac 01       		.byte	0x1
 2270 07ad BE       		.byte	0xbe
 2271 07ae 1B       		.uleb128 0x1b
 2272 07af C6060000 		.4byte	0x6c6
 2273 07b3 E0010000 		.4byte	.LLST18
 2274 07b7 25       		.uleb128 0x25
 2275 07b8 B8000000 		.4byte	.Ldebug_ranges0+0xb8
 2276 07bc 1C       		.uleb128 0x1c
 2277 07bd D1060000 		.4byte	0x6d1
 2278 07c1 FE010000 		.4byte	.LLST19
 2279 07c5 23       		.uleb128 0x23
 2280 07c6 8D050000 		.4byte	0x58d
 2281 07ca 22000000 		.4byte	.LBB68
 2282 07ce D0000000 		.4byte	.Ldebug_ranges0+0xd0
 2283 07d2 01       		.byte	0x1
 2284 07d3 77       		.byte	0x77
 2285 07d4 F1070000 		.4byte	0x7f1
 2286 07d8 1B       		.uleb128 0x1b
 2287 07d9 9E050000 		.4byte	0x59e
 2288 07dd 2B020000 		.4byte	.LLST20
 2289 07e1 25       		.uleb128 0x25
 2290 07e2 F8000000 		.4byte	.Ldebug_ranges0+0xf8
 2291 07e6 1C       		.uleb128 0x1c
 2292 07e7 A9050000 		.4byte	0x5a9
 2293 07eb 53020000 		.4byte	.LLST21
 2294 07ef 00       		.byte	0
 2295 07f0 00       		.byte	0
 2296 07f1 25       		.uleb128 0x25
 2297 07f2 20010000 		.4byte	.Ldebug_ranges0+0x120
 2298 07f6 26       		.uleb128 0x26
 2299 07f7 DD060000 		.4byte	0x6dd
 2300 07fb 01       		.byte	0x1
 2301 07fc 5D       		.byte	0x5d
 2302 07fd 00       		.byte	0
 2303 07fe 00       		.byte	0
 2304 07ff 00       		.byte	0
 2305 0800 00       		.byte	0
 2306 0801 2B       		.uleb128 0x2b
 2307 0802 B8060000 		.4byte	0x6b8
 2308 0806 70000000 		.4byte	.LBB82
 2309 080a C8000000 		.4byte	.LBE82
 2310 080e 01       		.byte	0x1
 2311 080f C3       		.byte	0xc3
 2312 0810 24       		.uleb128 0x24
 2313 0811 C6060000 		.4byte	0x6c6
 2314 0815 01       		.byte	0x1
 2315 0816 55       		.byte	0x55
 2316 0817 1F       		.uleb128 0x1f
 2317 0818 70000000 		.4byte	.LBB83
ARM GAS  /tmp/ccuOaQcJ.s 			page 42


 2318 081c C8000000 		.4byte	.LBE83
 2319 0820 1C       		.uleb128 0x1c
 2320 0821 D1060000 		.4byte	0x6d1
 2321 0825 6A020000 		.4byte	.LLST22
 2322 0829 23       		.uleb128 0x23
 2323 082a 8D050000 		.4byte	0x58d
 2324 082e 74000000 		.4byte	.LBB84
 2325 0832 38010000 		.4byte	.Ldebug_ranges0+0x138
 2326 0836 01       		.byte	0x1
 2327 0837 77       		.byte	0x77
 2328 0838 58080000 		.4byte	0x858
 2329 083c 24       		.uleb128 0x24
 2330 083d 9E050000 		.4byte	0x59e
 2331 0841 06       		.byte	0x6
 2332 0842 03       		.byte	0x3
 2333 0843 00000000 		.4byte	rlist
 2334 0847 9F       		.byte	0x9f
 2335 0848 25       		.uleb128 0x25
 2336 0849 60010000 		.4byte	.Ldebug_ranges0+0x160
 2337 084d 1C       		.uleb128 0x1c
 2338 084e A9050000 		.4byte	0x5a9
 2339 0852 8C020000 		.4byte	.LLST23
 2340 0856 00       		.byte	0
 2341 0857 00       		.byte	0
 2342 0858 1F       		.uleb128 0x1f
 2343 0859 96000000 		.4byte	.LBB92
 2344 085d C8000000 		.4byte	.LBE92
 2345 0861 26       		.uleb128 0x26
 2346 0862 DD060000 		.4byte	0x6dd
 2347 0866 01       		.byte	0x1
 2348 0867 5D       		.byte	0x5d
 2349 0868 00       		.byte	0
 2350 0869 00       		.byte	0
 2351 086a 00       		.byte	0
 2352 086b 00       		.byte	0
 2353 086c 2C       		.uleb128 0x2c
 2354 086d 01       		.byte	0x1
 2355 086e D0010000 		.4byte	.LASF82
 2356 0872 01       		.byte	0x1
 2357 0873 DA       		.byte	0xda
 2358 0874 01       		.byte	0x1
 2359 0875 00000000 		.4byte	.LFB12
 2360 0879 B8000000 		.4byte	.LFE12
 2361 087d A3020000 		.4byte	.LLST24
 2362 0881 20090000 		.4byte	0x920
 2363 0885 2D       		.uleb128 0x2d
 2364 0886 6E747000 		.ascii	"ntp\000"
 2365 088a 01       		.byte	0x1
 2366 088b DA       		.byte	0xda
 2367 088c 68020000 		.4byte	0x268
 2368 0890 C3020000 		.4byte	.LLST25
 2369 0894 2D       		.uleb128 0x2d
 2370 0895 6D736700 		.ascii	"msg\000"
 2371 0899 01       		.byte	0x1
 2372 089a DA       		.byte	0xda
 2373 089b D9000000 		.4byte	0xd9
 2374 089f E1020000 		.4byte	.LLST26
ARM GAS  /tmp/ccuOaQcJ.s 			page 43


 2375 08a3 1D       		.uleb128 0x1d
 2376 08a4 88010000 		.4byte	.Ldebug_ranges0+0x188
 2377 08a8 F7080000 		.4byte	0x8f7
 2378 08ac 16       		.uleb128 0x16
 2379 08ad 6F747000 		.ascii	"otp\000"
 2380 08b1 01       		.byte	0x1
 2381 08b2 E6       		.byte	0xe6
 2382 08b3 68020000 		.4byte	0x268
 2383 08b7 23       		.uleb128 0x23
 2384 08b8 BA050000 		.4byte	0x5ba
 2385 08bc 18000000 		.4byte	.LBB100
 2386 08c0 A8010000 		.4byte	.Ldebug_ranges0+0x1a8
 2387 08c4 01       		.byte	0x1
 2388 08c5 E6       		.byte	0xe6
 2389 08c6 E3080000 		.4byte	0x8e3
 2390 08ca 1B       		.uleb128 0x1b
 2391 08cb CC050000 		.4byte	0x5cc
 2392 08cf FF020000 		.4byte	.LLST27
 2393 08d3 25       		.uleb128 0x25
 2394 08d4 C8010000 		.4byte	.Ldebug_ranges0+0x1c8
 2395 08d8 1C       		.uleb128 0x1c
 2396 08d9 D6050000 		.4byte	0x5d6
 2397 08dd 2C030000 		.4byte	.LLST28
 2398 08e1 00       		.byte	0
 2399 08e2 00       		.byte	0
 2400 08e3 25       		.uleb128 0x25
 2401 08e4 E8010000 		.4byte	.Ldebug_ranges0+0x1e8
 2402 08e8 29       		.uleb128 0x29
 2403 08e9 72313300 		.ascii	"r13\000"
 2404 08ed 01       		.byte	0x1
 2405 08ee E9       		.byte	0xe9
 2406 08ef 5E030000 		.4byte	0x35e
 2407 08f3 01       		.byte	0x1
 2408 08f4 5D       		.byte	0x5d
 2409 08f5 00       		.byte	0
 2410 08f6 00       		.byte	0
 2411 08f7 2A       		.uleb128 0x2a
 2412 08f8 BA050000 		.4byte	0x5ba
 2413 08fc 70000000 		.4byte	.LBB110
 2414 0900 08020000 		.4byte	.Ldebug_ranges0+0x208
 2415 0904 01       		.byte	0x1
 2416 0905 E4       		.byte	0xe4
 2417 0906 1B       		.uleb128 0x1b
 2418 0907 CC050000 		.4byte	0x5cc
 2419 090b 4B030000 		.4byte	.LLST29
 2420 090f 25       		.uleb128 0x25
 2421 0910 20020000 		.4byte	.Ldebug_ranges0+0x220
 2422 0914 1C       		.uleb128 0x1c
 2423 0915 D6050000 		.4byte	0x5d6
 2424 0919 5E030000 		.4byte	.LLST30
 2425 091d 00       		.byte	0
 2426 091e 00       		.byte	0
 2427 091f 00       		.byte	0
 2428 0920 2E       		.uleb128 0x2e
 2429 0921 01       		.byte	0x1
 2430 0922 16000000 		.4byte	.LASF81
 2431 0926 01       		.byte	0x1
ARM GAS  /tmp/ccuOaQcJ.s 			page 44


 2432 0927 4201     		.2byte	0x142
 2433 0929 01       		.byte	0x1
 2434 092a 01       		.byte	0x1
 2435 092b 55090000 		.4byte	0x955
 2436 092f 2F       		.uleb128 0x2f
 2437 0930 6F747000 		.ascii	"otp\000"
 2438 0934 01       		.byte	0x1
 2439 0935 4301     		.2byte	0x143
 2440 0937 68020000 		.4byte	0x268
 2441 093b 2F       		.uleb128 0x2f
 2442 093c 637000   		.ascii	"cp\000"
 2443 093f 01       		.byte	0x1
 2444 0940 4301     		.2byte	0x143
 2445 0942 68020000 		.4byte	0x268
 2446 0946 18       		.uleb128 0x18
 2447 0947 2F       		.uleb128 0x2f
 2448 0948 72313300 		.ascii	"r13\000"
 2449 094c 01       		.byte	0x1
 2450 094d 5401     		.2byte	0x154
 2451 094f 5E030000 		.4byte	0x35e
 2452 0953 00       		.byte	0
 2453 0954 00       		.byte	0
 2454 0955 2C       		.uleb128 0x2c
 2455 0956 01       		.byte	0x1
 2456 0957 34010000 		.4byte	.LASF83
 2457 095b 01       		.byte	0x1
 2458 095c F6       		.byte	0xf6
 2459 095d 01       		.byte	0x1
 2460 095e 00000000 		.4byte	.LFB13
 2461 0962 68000000 		.4byte	.LFE13
 2462 0966 71030000 		.4byte	.LLST31
 2463 096a D4090000 		.4byte	0x9d4
 2464 096e 2A       		.uleb128 0x2a
 2465 096f 20090000 		.4byte	0x920
 2466 0973 16000000 		.4byte	.LBB120
 2467 0977 38020000 		.4byte	.Ldebug_ranges0+0x238
 2468 097b 01       		.byte	0x1
 2469 097c FB       		.byte	0xfb
 2470 097d 25       		.uleb128 0x25
 2471 097e 50020000 		.4byte	.Ldebug_ranges0+0x250
 2472 0982 1C       		.uleb128 0x1c
 2473 0983 2F090000 		.4byte	0x92f
 2474 0987 91030000 		.4byte	.LLST32
 2475 098b 1C       		.uleb128 0x1c
 2476 098c 3B090000 		.4byte	0x93b
 2477 0990 B3030000 		.4byte	.LLST33
 2478 0994 30       		.uleb128 0x30
 2479 0995 8D050000 		.4byte	0x58d
 2480 0999 16000000 		.4byte	.LBB122
 2481 099d 68020000 		.4byte	.Ldebug_ranges0+0x268
 2482 09a1 01       		.byte	0x1
 2483 09a2 4701     		.2byte	0x147
 2484 09a4 C4090000 		.4byte	0x9c4
 2485 09a8 24       		.uleb128 0x24
 2486 09a9 9E050000 		.4byte	0x59e
 2487 09ad 06       		.byte	0x6
 2488 09ae 03       		.byte	0x3
ARM GAS  /tmp/ccuOaQcJ.s 			page 45


 2489 09af 00000000 		.4byte	rlist
 2490 09b3 9F       		.byte	0x9f
 2491 09b4 25       		.uleb128 0x25
 2492 09b5 80020000 		.4byte	.Ldebug_ranges0+0x280
 2493 09b9 1C       		.uleb128 0x1c
 2494 09ba A9050000 		.4byte	0x5a9
 2495 09be C6030000 		.4byte	.LLST34
 2496 09c2 00       		.byte	0
 2497 09c3 00       		.byte	0
 2498 09c4 25       		.uleb128 0x25
 2499 09c5 98020000 		.4byte	.Ldebug_ranges0+0x298
 2500 09c9 26       		.uleb128 0x26
 2501 09ca 47090000 		.4byte	0x947
 2502 09ce 01       		.byte	0x1
 2503 09cf 5D       		.byte	0x5d
 2504 09d0 00       		.byte	0
 2505 09d1 00       		.byte	0
 2506 09d2 00       		.byte	0
 2507 09d3 00       		.byte	0
 2508 09d4 31       		.uleb128 0x31
 2509 09d5 01       		.byte	0x1
 2510 09d6 24020000 		.4byte	.LASF84
 2511 09da 01       		.byte	0x1
 2512 09db 2901     		.2byte	0x129
 2513 09dd 01       		.byte	0x1
 2514 09de 00000000 		.4byte	.LFB14
 2515 09e2 80000000 		.4byte	.LFE14
 2516 09e6 DD030000 		.4byte	.LLST35
 2517 09ea 700A0000 		.4byte	0xa70
 2518 09ee 32       		.uleb128 0x32
 2519 09ef 6F747000 		.ascii	"otp\000"
 2520 09f3 01       		.byte	0x1
 2521 09f4 2A01     		.2byte	0x12a
 2522 09f6 68020000 		.4byte	0x268
 2523 09fa FD030000 		.4byte	.LLST36
 2524 09fe 30       		.uleb128 0x30
 2525 09ff 8D050000 		.4byte	0x58d
 2526 0a03 06000000 		.4byte	.LBB135
 2527 0a07 B0020000 		.4byte	.Ldebug_ranges0+0x2b0
 2528 0a0b 01       		.byte	0x1
 2529 0a0c 2E01     		.2byte	0x12e
 2530 0a0e 2E0A0000 		.4byte	0xa2e
 2531 0a12 24       		.uleb128 0x24
 2532 0a13 9E050000 		.4byte	0x59e
 2533 0a17 06       		.byte	0x6
 2534 0a18 03       		.byte	0x3
 2535 0a19 00000000 		.4byte	rlist
 2536 0a1d 9F       		.byte	0x9f
 2537 0a1e 25       		.uleb128 0x25
 2538 0a1f D8020000 		.4byte	.Ldebug_ranges0+0x2d8
 2539 0a23 1C       		.uleb128 0x1c
 2540 0a24 A9050000 		.4byte	0x5a9
 2541 0a28 1F040000 		.4byte	.LLST37
 2542 0a2c 00       		.byte	0
 2543 0a2d 00       		.byte	0
 2544 0a2e 30       		.uleb128 0x30
 2545 0a2f BA050000 		.4byte	0x5ba
ARM GAS  /tmp/ccuOaQcJ.s 			page 46


 2546 0a33 1C000000 		.4byte	.LBB143
 2547 0a37 00030000 		.4byte	.Ldebug_ranges0+0x300
 2548 0a3b 01       		.byte	0x1
 2549 0a3c 3301     		.2byte	0x133
 2550 0a3e 5B0A0000 		.4byte	0xa5b
 2551 0a42 1B       		.uleb128 0x1b
 2552 0a43 CC050000 		.4byte	0x5cc
 2553 0a47 36040000 		.4byte	.LLST38
 2554 0a4b 25       		.uleb128 0x25
 2555 0a4c 18030000 		.4byte	.Ldebug_ranges0+0x318
 2556 0a50 1C       		.uleb128 0x1c
 2557 0a51 D6050000 		.4byte	0x5d6
 2558 0a55 58040000 		.4byte	.LLST39
 2559 0a59 00       		.byte	0
 2560 0a5a 00       		.byte	0
 2561 0a5b 25       		.uleb128 0x25
 2562 0a5c 30030000 		.4byte	.Ldebug_ranges0+0x330
 2563 0a60 33       		.uleb128 0x33
 2564 0a61 72313300 		.ascii	"r13\000"
 2565 0a65 01       		.byte	0x1
 2566 0a66 3401     		.2byte	0x134
 2567 0a68 5E030000 		.4byte	0x35e
 2568 0a6c 01       		.byte	0x1
 2569 0a6d 5D       		.byte	0x5d
 2570 0a6e 00       		.byte	0
 2571 0a6f 00       		.byte	0
 2572 0a70 1A       		.uleb128 0x1a
 2573 0a71 20090000 		.4byte	0x920
 2574 0a75 00000000 		.4byte	.LFB15
 2575 0a79 5C000000 		.4byte	.LFE15
 2576 0a7d 6B040000 		.4byte	.LLST40
 2577 0a81 D50A0000 		.4byte	0xad5
 2578 0a85 1C       		.uleb128 0x1c
 2579 0a86 2F090000 		.4byte	0x92f
 2580 0a8a 8B040000 		.4byte	.LLST41
 2581 0a8e 1C       		.uleb128 0x1c
 2582 0a8f 3B090000 		.4byte	0x93b
 2583 0a93 AD040000 		.4byte	.LLST42
 2584 0a97 30       		.uleb128 0x30
 2585 0a98 8D050000 		.4byte	0x58d
 2586 0a9c 06000000 		.4byte	.LBB152
 2587 0aa0 48030000 		.4byte	.Ldebug_ranges0+0x348
 2588 0aa4 01       		.byte	0x1
 2589 0aa5 4701     		.2byte	0x147
 2590 0aa7 C70A0000 		.4byte	0xac7
 2591 0aab 24       		.uleb128 0x24
 2592 0aac 9E050000 		.4byte	0x59e
 2593 0ab0 06       		.byte	0x6
 2594 0ab1 03       		.byte	0x3
 2595 0ab2 00000000 		.4byte	rlist
 2596 0ab6 9F       		.byte	0x9f
 2597 0ab7 25       		.uleb128 0x25
 2598 0ab8 68030000 		.4byte	.Ldebug_ranges0+0x368
 2599 0abc 1C       		.uleb128 0x1c
 2600 0abd A9050000 		.4byte	0x5a9
 2601 0ac1 D0040000 		.4byte	.LLST43
 2602 0ac5 00       		.byte	0
ARM GAS  /tmp/ccuOaQcJ.s 			page 47


 2603 0ac6 00       		.byte	0
 2604 0ac7 25       		.uleb128 0x25
 2605 0ac8 88030000 		.4byte	.Ldebug_ranges0+0x388
 2606 0acc 26       		.uleb128 0x26
 2607 0acd 47090000 		.4byte	0x947
 2608 0ad1 01       		.byte	0x1
 2609 0ad2 5D       		.byte	0x5d
 2610 0ad3 00       		.byte	0
 2611 0ad4 00       		.byte	0
 2612 0ad5 31       		.uleb128 0x31
 2613 0ad6 01       		.byte	0x1
 2614 0ad7 5E010000 		.4byte	.LASF85
 2615 0adb 01       		.byte	0x1
 2616 0adc 6301     		.2byte	0x163
 2617 0ade 01       		.byte	0x1
 2618 0adf 00000000 		.4byte	.LFB16
 2619 0ae3 70000000 		.4byte	.LFE16
 2620 0ae7 E7040000 		.4byte	.LLST44
 2621 0aeb 530B0000 		.4byte	0xb53
 2622 0aef 34       		.uleb128 0x34
 2623 0af0 20090000 		.4byte	0x920
 2624 0af4 0E000000 		.4byte	.LBB165
 2625 0af8 A0030000 		.4byte	.Ldebug_ranges0+0x3a0
 2626 0afc 01       		.byte	0x1
 2627 0afd 7001     		.2byte	0x170
 2628 0aff 25       		.uleb128 0x25
 2629 0b00 B8030000 		.4byte	.Ldebug_ranges0+0x3b8
 2630 0b04 1C       		.uleb128 0x1c
 2631 0b05 2F090000 		.4byte	0x92f
 2632 0b09 07050000 		.4byte	.LLST45
 2633 0b0d 1C       		.uleb128 0x1c
 2634 0b0e 3B090000 		.4byte	0x93b
 2635 0b12 29050000 		.4byte	.LLST46
 2636 0b16 30       		.uleb128 0x30
 2637 0b17 8D050000 		.4byte	0x58d
 2638 0b1b 0E000000 		.4byte	.LBB167
 2639 0b1f D0030000 		.4byte	.Ldebug_ranges0+0x3d0
 2640 0b23 01       		.byte	0x1
 2641 0b24 4701     		.2byte	0x147
 2642 0b26 430B0000 		.4byte	0xb43
 2643 0b2a 1B       		.uleb128 0x1b
 2644 0b2b 9E050000 		.4byte	0x59e
 2645 0b2f 4C050000 		.4byte	.LLST47
 2646 0b33 25       		.uleb128 0x25
 2647 0b34 F0030000 		.4byte	.Ldebug_ranges0+0x3f0
 2648 0b38 1C       		.uleb128 0x1c
 2649 0b39 A9050000 		.4byte	0x5a9
 2650 0b3d 64050000 		.4byte	.LLST48
 2651 0b41 00       		.byte	0
 2652 0b42 00       		.byte	0
 2653 0b43 25       		.uleb128 0x25
 2654 0b44 10040000 		.4byte	.Ldebug_ranges0+0x410
 2655 0b48 26       		.uleb128 0x26
 2656 0b49 47090000 		.4byte	0x947
 2657 0b4d 01       		.byte	0x1
 2658 0b4e 5D       		.byte	0x5d
 2659 0b4f 00       		.byte	0
ARM GAS  /tmp/ccuOaQcJ.s 			page 48


 2660 0b50 00       		.byte	0
 2661 0b51 00       		.byte	0
 2662 0b52 00       		.byte	0
 2663 0b53 35       		.uleb128 0x35
 2664 0b54 D5030000 		.4byte	.LASF86
 2665 0b58 09       		.byte	0x9
 2666 0b59 68       		.byte	0x68
 2667 0b5a 47040000 		.4byte	0x447
 2668 0b5e 01       		.byte	0x1
 2669 0b5f 01       		.byte	0x1
 2670 0b60 36       		.uleb128 0x36
 2671 0b61 D5030000 		.4byte	.LASF86
 2672 0b65 01       		.byte	0x1
 2673 0b66 28       		.byte	0x28
 2674 0b67 47040000 		.4byte	0x447
 2675 0b6b 01       		.byte	0x1
 2676 0b6c 05       		.byte	0x5
 2677 0b6d 03       		.byte	0x3
 2678 0b6e 00000000 		.4byte	rlist
 2679 0b72 00       		.byte	0
 2680              		.section	.debug_abbrev,"",%progbits
 2681              	.Ldebug_abbrev0:
 2682 0000 01       		.uleb128 0x1
 2683 0001 11       		.uleb128 0x11
 2684 0002 01       		.byte	0x1
 2685 0003 25       		.uleb128 0x25
 2686 0004 0E       		.uleb128 0xe
 2687 0005 13       		.uleb128 0x13
 2688 0006 0B       		.uleb128 0xb
 2689 0007 03       		.uleb128 0x3
 2690 0008 0E       		.uleb128 0xe
 2691 0009 1B       		.uleb128 0x1b
 2692 000a 0E       		.uleb128 0xe
 2693 000b 11       		.uleb128 0x11
 2694 000c 01       		.uleb128 0x1
 2695 000d 52       		.uleb128 0x52
 2696 000e 01       		.uleb128 0x1
 2697 000f 55       		.uleb128 0x55
 2698 0010 06       		.uleb128 0x6
 2699 0011 10       		.uleb128 0x10
 2700 0012 06       		.uleb128 0x6
 2701 0013 00       		.byte	0
 2702 0014 00       		.byte	0
 2703 0015 02       		.uleb128 0x2
 2704 0016 24       		.uleb128 0x24
 2705 0017 00       		.byte	0
 2706 0018 0B       		.uleb128 0xb
 2707 0019 0B       		.uleb128 0xb
 2708 001a 3E       		.uleb128 0x3e
 2709 001b 0B       		.uleb128 0xb
 2710 001c 03       		.uleb128 0x3
 2711 001d 08       		.uleb128 0x8
 2712 001e 00       		.byte	0
 2713 001f 00       		.byte	0
 2714 0020 03       		.uleb128 0x3
 2715 0021 24       		.uleb128 0x24
 2716 0022 00       		.byte	0
ARM GAS  /tmp/ccuOaQcJ.s 			page 49


 2717 0023 0B       		.uleb128 0xb
 2718 0024 0B       		.uleb128 0xb
 2719 0025 3E       		.uleb128 0x3e
 2720 0026 0B       		.uleb128 0xb
 2721 0027 03       		.uleb128 0x3
 2722 0028 0E       		.uleb128 0xe
 2723 0029 00       		.byte	0
 2724 002a 00       		.byte	0
 2725 002b 04       		.uleb128 0x4
 2726 002c 16       		.uleb128 0x16
 2727 002d 00       		.byte	0
 2728 002e 03       		.uleb128 0x3
 2729 002f 0E       		.uleb128 0xe
 2730 0030 3A       		.uleb128 0x3a
 2731 0031 0B       		.uleb128 0xb
 2732 0032 3B       		.uleb128 0x3b
 2733 0033 0B       		.uleb128 0xb
 2734 0034 49       		.uleb128 0x49
 2735 0035 13       		.uleb128 0x13
 2736 0036 00       		.byte	0
 2737 0037 00       		.byte	0
 2738 0038 05       		.uleb128 0x5
 2739 0039 13       		.uleb128 0x13
 2740 003a 01       		.byte	0x1
 2741 003b 03       		.uleb128 0x3
 2742 003c 0E       		.uleb128 0xe
 2743 003d 0B       		.uleb128 0xb
 2744 003e 0B       		.uleb128 0xb
 2745 003f 3A       		.uleb128 0x3a
 2746 0040 0B       		.uleb128 0xb
 2747 0041 3B       		.uleb128 0x3b
 2748 0042 0B       		.uleb128 0xb
 2749 0043 01       		.uleb128 0x1
 2750 0044 13       		.uleb128 0x13
 2751 0045 00       		.byte	0
 2752 0046 00       		.byte	0
 2753 0047 06       		.uleb128 0x6
 2754 0048 0D       		.uleb128 0xd
 2755 0049 00       		.byte	0
 2756 004a 03       		.uleb128 0x3
 2757 004b 0E       		.uleb128 0xe
 2758 004c 3A       		.uleb128 0x3a
 2759 004d 0B       		.uleb128 0xb
 2760 004e 3B       		.uleb128 0x3b
 2761 004f 0B       		.uleb128 0xb
 2762 0050 49       		.uleb128 0x49
 2763 0051 13       		.uleb128 0x13
 2764 0052 38       		.uleb128 0x38
 2765 0053 0A       		.uleb128 0xa
 2766 0054 00       		.byte	0
 2767 0055 00       		.byte	0
 2768 0056 07       		.uleb128 0x7
 2769 0057 0D       		.uleb128 0xd
 2770 0058 00       		.byte	0
 2771 0059 03       		.uleb128 0x3
 2772 005a 08       		.uleb128 0x8
 2773 005b 3A       		.uleb128 0x3a
ARM GAS  /tmp/ccuOaQcJ.s 			page 50


 2774 005c 0B       		.uleb128 0xb
 2775 005d 3B       		.uleb128 0x3b
 2776 005e 0B       		.uleb128 0xb
 2777 005f 49       		.uleb128 0x49
 2778 0060 13       		.uleb128 0x13
 2779 0061 38       		.uleb128 0x38
 2780 0062 0A       		.uleb128 0xa
 2781 0063 00       		.byte	0
 2782 0064 00       		.byte	0
 2783 0065 08       		.uleb128 0x8
 2784 0066 13       		.uleb128 0x13
 2785 0067 01       		.byte	0x1
 2786 0068 0B       		.uleb128 0xb
 2787 0069 0B       		.uleb128 0xb
 2788 006a 3A       		.uleb128 0x3a
 2789 006b 0B       		.uleb128 0xb
 2790 006c 3B       		.uleb128 0x3b
 2791 006d 0B       		.uleb128 0xb
 2792 006e 01       		.uleb128 0x1
 2793 006f 13       		.uleb128 0x13
 2794 0070 00       		.byte	0
 2795 0071 00       		.byte	0
 2796 0072 09       		.uleb128 0x9
 2797 0073 0F       		.uleb128 0xf
 2798 0074 00       		.byte	0
 2799 0075 0B       		.uleb128 0xb
 2800 0076 0B       		.uleb128 0xb
 2801 0077 49       		.uleb128 0x49
 2802 0078 13       		.uleb128 0x13
 2803 0079 00       		.byte	0
 2804 007a 00       		.byte	0
 2805 007b 0A       		.uleb128 0xa
 2806 007c 0F       		.uleb128 0xf
 2807 007d 00       		.byte	0
 2808 007e 0B       		.uleb128 0xb
 2809 007f 0B       		.uleb128 0xb
 2810 0080 00       		.byte	0
 2811 0081 00       		.byte	0
 2812 0082 0B       		.uleb128 0xb
 2813 0083 13       		.uleb128 0x13
 2814 0084 01       		.byte	0x1
 2815 0085 03       		.uleb128 0x3
 2816 0086 0E       		.uleb128 0xe
 2817 0087 0B       		.uleb128 0xb
 2818 0088 0B       		.uleb128 0xb
 2819 0089 3A       		.uleb128 0x3a
 2820 008a 0B       		.uleb128 0xb
 2821 008b 3B       		.uleb128 0x3b
 2822 008c 05       		.uleb128 0x5
 2823 008d 01       		.uleb128 0x1
 2824 008e 13       		.uleb128 0x13
 2825 008f 00       		.byte	0
 2826 0090 00       		.byte	0
 2827 0091 0C       		.uleb128 0xc
 2828 0092 0D       		.uleb128 0xd
 2829 0093 00       		.byte	0
 2830 0094 03       		.uleb128 0x3
ARM GAS  /tmp/ccuOaQcJ.s 			page 51


 2831 0095 08       		.uleb128 0x8
 2832 0096 3A       		.uleb128 0x3a
 2833 0097 0B       		.uleb128 0xb
 2834 0098 3B       		.uleb128 0x3b
 2835 0099 05       		.uleb128 0x5
 2836 009a 49       		.uleb128 0x49
 2837 009b 13       		.uleb128 0x13
 2838 009c 38       		.uleb128 0x38
 2839 009d 0A       		.uleb128 0xa
 2840 009e 00       		.byte	0
 2841 009f 00       		.byte	0
 2842 00a0 0D       		.uleb128 0xd
 2843 00a1 15       		.uleb128 0x15
 2844 00a2 01       		.byte	0x1
 2845 00a3 27       		.uleb128 0x27
 2846 00a4 0C       		.uleb128 0xc
 2847 00a5 01       		.uleb128 0x1
 2848 00a6 13       		.uleb128 0x13
 2849 00a7 00       		.byte	0
 2850 00a8 00       		.byte	0
 2851 00a9 0E       		.uleb128 0xe
 2852 00aa 05       		.uleb128 0x5
 2853 00ab 00       		.byte	0
 2854 00ac 49       		.uleb128 0x49
 2855 00ad 13       		.uleb128 0x13
 2856 00ae 00       		.byte	0
 2857 00af 00       		.byte	0
 2858 00b0 0F       		.uleb128 0xf
 2859 00b1 35       		.uleb128 0x35
 2860 00b2 00       		.byte	0
 2861 00b3 49       		.uleb128 0x49
 2862 00b4 13       		.uleb128 0x13
 2863 00b5 00       		.byte	0
 2864 00b6 00       		.byte	0
 2865 00b7 10       		.uleb128 0x10
 2866 00b8 17       		.uleb128 0x17
 2867 00b9 01       		.byte	0x1
 2868 00ba 0B       		.uleb128 0xb
 2869 00bb 0B       		.uleb128 0xb
 2870 00bc 3A       		.uleb128 0x3a
 2871 00bd 0B       		.uleb128 0xb
 2872 00be 3B       		.uleb128 0x3b
 2873 00bf 0B       		.uleb128 0xb
 2874 00c0 01       		.uleb128 0x1
 2875 00c1 13       		.uleb128 0x13
 2876 00c2 00       		.byte	0
 2877 00c3 00       		.byte	0
 2878 00c4 11       		.uleb128 0x11
 2879 00c5 0D       		.uleb128 0xd
 2880 00c6 00       		.byte	0
 2881 00c7 03       		.uleb128 0x3
 2882 00c8 0E       		.uleb128 0xe
 2883 00c9 3A       		.uleb128 0x3a
 2884 00ca 0B       		.uleb128 0xb
 2885 00cb 3B       		.uleb128 0x3b
 2886 00cc 0B       		.uleb128 0xb
 2887 00cd 49       		.uleb128 0x49
ARM GAS  /tmp/ccuOaQcJ.s 			page 52


 2888 00ce 13       		.uleb128 0x13
 2889 00cf 00       		.byte	0
 2890 00d0 00       		.byte	0
 2891 00d1 12       		.uleb128 0x12
 2892 00d2 26       		.uleb128 0x26
 2893 00d3 00       		.byte	0
 2894 00d4 49       		.uleb128 0x49
 2895 00d5 13       		.uleb128 0x13
 2896 00d6 00       		.byte	0
 2897 00d7 00       		.byte	0
 2898 00d8 13       		.uleb128 0x13
 2899 00d9 2E       		.uleb128 0x2e
 2900 00da 01       		.byte	0x1
 2901 00db 03       		.uleb128 0x3
 2902 00dc 0E       		.uleb128 0xe
 2903 00dd 3A       		.uleb128 0x3a
 2904 00de 0B       		.uleb128 0xb
 2905 00df 3B       		.uleb128 0x3b
 2906 00e0 0B       		.uleb128 0xb
 2907 00e1 27       		.uleb128 0x27
 2908 00e2 0C       		.uleb128 0xc
 2909 00e3 49       		.uleb128 0x49
 2910 00e4 13       		.uleb128 0x13
 2911 00e5 20       		.uleb128 0x20
 2912 00e6 0B       		.uleb128 0xb
 2913 00e7 01       		.uleb128 0x1
 2914 00e8 13       		.uleb128 0x13
 2915 00e9 00       		.byte	0
 2916 00ea 00       		.byte	0
 2917 00eb 14       		.uleb128 0x14
 2918 00ec 05       		.uleb128 0x5
 2919 00ed 00       		.byte	0
 2920 00ee 03       		.uleb128 0x3
 2921 00ef 08       		.uleb128 0x8
 2922 00f0 3A       		.uleb128 0x3a
 2923 00f1 0B       		.uleb128 0xb
 2924 00f2 3B       		.uleb128 0x3b
 2925 00f3 0B       		.uleb128 0xb
 2926 00f4 49       		.uleb128 0x49
 2927 00f5 13       		.uleb128 0x13
 2928 00f6 00       		.byte	0
 2929 00f7 00       		.byte	0
 2930 00f8 15       		.uleb128 0x15
 2931 00f9 2E       		.uleb128 0x2e
 2932 00fa 01       		.byte	0x1
 2933 00fb 03       		.uleb128 0x3
 2934 00fc 0E       		.uleb128 0xe
 2935 00fd 3A       		.uleb128 0x3a
 2936 00fe 0B       		.uleb128 0xb
 2937 00ff 3B       		.uleb128 0x3b
 2938 0100 0B       		.uleb128 0xb
 2939 0101 27       		.uleb128 0x27
 2940 0102 0C       		.uleb128 0xc
 2941 0103 20       		.uleb128 0x20
 2942 0104 0B       		.uleb128 0xb
 2943 0105 01       		.uleb128 0x1
 2944 0106 13       		.uleb128 0x13
ARM GAS  /tmp/ccuOaQcJ.s 			page 53


 2945 0107 00       		.byte	0
 2946 0108 00       		.byte	0
 2947 0109 16       		.uleb128 0x16
 2948 010a 34       		.uleb128 0x34
 2949 010b 00       		.byte	0
 2950 010c 03       		.uleb128 0x3
 2951 010d 08       		.uleb128 0x8
 2952 010e 3A       		.uleb128 0x3a
 2953 010f 0B       		.uleb128 0xb
 2954 0110 3B       		.uleb128 0x3b
 2955 0111 0B       		.uleb128 0xb
 2956 0112 49       		.uleb128 0x49
 2957 0113 13       		.uleb128 0x13
 2958 0114 00       		.byte	0
 2959 0115 00       		.byte	0
 2960 0116 17       		.uleb128 0x17
 2961 0117 0B       		.uleb128 0xb
 2962 0118 01       		.byte	0x1
 2963 0119 01       		.uleb128 0x1
 2964 011a 13       		.uleb128 0x13
 2965 011b 00       		.byte	0
 2966 011c 00       		.byte	0
 2967 011d 18       		.uleb128 0x18
 2968 011e 0B       		.uleb128 0xb
 2969 011f 01       		.byte	0x1
 2970 0120 00       		.byte	0
 2971 0121 00       		.byte	0
 2972 0122 19       		.uleb128 0x19
 2973 0123 2E       		.uleb128 0x2e
 2974 0124 01       		.byte	0x1
 2975 0125 3F       		.uleb128 0x3f
 2976 0126 0C       		.uleb128 0xc
 2977 0127 03       		.uleb128 0x3
 2978 0128 0E       		.uleb128 0xe
 2979 0129 3A       		.uleb128 0x3a
 2980 012a 0B       		.uleb128 0xb
 2981 012b 3B       		.uleb128 0x3b
 2982 012c 0B       		.uleb128 0xb
 2983 012d 27       		.uleb128 0x27
 2984 012e 0C       		.uleb128 0xc
 2985 012f 49       		.uleb128 0x49
 2986 0130 13       		.uleb128 0x13
 2987 0131 20       		.uleb128 0x20
 2988 0132 0B       		.uleb128 0xb
 2989 0133 01       		.uleb128 0x1
 2990 0134 13       		.uleb128 0x13
 2991 0135 00       		.byte	0
 2992 0136 00       		.byte	0
 2993 0137 1A       		.uleb128 0x1a
 2994 0138 2E       		.uleb128 0x2e
 2995 0139 01       		.byte	0x1
 2996 013a 31       		.uleb128 0x31
 2997 013b 13       		.uleb128 0x13
 2998 013c 11       		.uleb128 0x11
 2999 013d 01       		.uleb128 0x1
 3000 013e 12       		.uleb128 0x12
 3001 013f 01       		.uleb128 0x1
ARM GAS  /tmp/ccuOaQcJ.s 			page 54


 3002 0140 40       		.uleb128 0x40
 3003 0141 06       		.uleb128 0x6
 3004 0142 01       		.uleb128 0x1
 3005 0143 13       		.uleb128 0x13
 3006 0144 00       		.byte	0
 3007 0145 00       		.byte	0
 3008 0146 1B       		.uleb128 0x1b
 3009 0147 05       		.uleb128 0x5
 3010 0148 00       		.byte	0
 3011 0149 31       		.uleb128 0x31
 3012 014a 13       		.uleb128 0x13
 3013 014b 02       		.uleb128 0x2
 3014 014c 06       		.uleb128 0x6
 3015 014d 00       		.byte	0
 3016 014e 00       		.byte	0
 3017 014f 1C       		.uleb128 0x1c
 3018 0150 34       		.uleb128 0x34
 3019 0151 00       		.byte	0
 3020 0152 31       		.uleb128 0x31
 3021 0153 13       		.uleb128 0x13
 3022 0154 02       		.uleb128 0x2
 3023 0155 06       		.uleb128 0x6
 3024 0156 00       		.byte	0
 3025 0157 00       		.byte	0
 3026 0158 1D       		.uleb128 0x1d
 3027 0159 0B       		.uleb128 0xb
 3028 015a 01       		.byte	0x1
 3029 015b 55       		.uleb128 0x55
 3030 015c 06       		.uleb128 0x6
 3031 015d 01       		.uleb128 0x1
 3032 015e 13       		.uleb128 0x13
 3033 015f 00       		.byte	0
 3034 0160 00       		.byte	0
 3035 0161 1E       		.uleb128 0x1e
 3036 0162 1D       		.uleb128 0x1d
 3037 0163 01       		.byte	0x1
 3038 0164 31       		.uleb128 0x31
 3039 0165 13       		.uleb128 0x13
 3040 0166 11       		.uleb128 0x11
 3041 0167 01       		.uleb128 0x1
 3042 0168 12       		.uleb128 0x12
 3043 0169 01       		.uleb128 0x1
 3044 016a 58       		.uleb128 0x58
 3045 016b 0B       		.uleb128 0xb
 3046 016c 59       		.uleb128 0x59
 3047 016d 0B       		.uleb128 0xb
 3048 016e 01       		.uleb128 0x1
 3049 016f 13       		.uleb128 0x13
 3050 0170 00       		.byte	0
 3051 0171 00       		.byte	0
 3052 0172 1F       		.uleb128 0x1f
 3053 0173 0B       		.uleb128 0xb
 3054 0174 01       		.byte	0x1
 3055 0175 11       		.uleb128 0x11
 3056 0176 01       		.uleb128 0x1
 3057 0177 12       		.uleb128 0x12
 3058 0178 01       		.uleb128 0x1
ARM GAS  /tmp/ccuOaQcJ.s 			page 55


 3059 0179 00       		.byte	0
 3060 017a 00       		.byte	0
 3061 017b 20       		.uleb128 0x20
 3062 017c 2E       		.uleb128 0x2e
 3063 017d 00       		.byte	0
 3064 017e 3F       		.uleb128 0x3f
 3065 017f 0C       		.uleb128 0xc
 3066 0180 03       		.uleb128 0x3
 3067 0181 0E       		.uleb128 0xe
 3068 0182 3A       		.uleb128 0x3a
 3069 0183 0B       		.uleb128 0xb
 3070 0184 3B       		.uleb128 0x3b
 3071 0185 0B       		.uleb128 0xb
 3072 0186 27       		.uleb128 0x27
 3073 0187 0C       		.uleb128 0xc
 3074 0188 11       		.uleb128 0x11
 3075 0189 01       		.uleb128 0x1
 3076 018a 12       		.uleb128 0x12
 3077 018b 01       		.uleb128 0x1
 3078 018c 40       		.uleb128 0x40
 3079 018d 0A       		.uleb128 0xa
 3080 018e 00       		.byte	0
 3081 018f 00       		.byte	0
 3082 0190 21       		.uleb128 0x21
 3083 0191 2E       		.uleb128 0x2e
 3084 0192 01       		.byte	0x1
 3085 0193 3F       		.uleb128 0x3f
 3086 0194 0C       		.uleb128 0xc
 3087 0195 03       		.uleb128 0x3
 3088 0196 0E       		.uleb128 0xe
 3089 0197 3A       		.uleb128 0x3a
 3090 0198 0B       		.uleb128 0xb
 3091 0199 3B       		.uleb128 0x3b
 3092 019a 0B       		.uleb128 0xb
 3093 019b 27       		.uleb128 0x27
 3094 019c 0C       		.uleb128 0xc
 3095 019d 20       		.uleb128 0x20
 3096 019e 0B       		.uleb128 0xb
 3097 019f 01       		.uleb128 0x1
 3098 01a0 13       		.uleb128 0x13
 3099 01a1 00       		.byte	0
 3100 01a2 00       		.byte	0
 3101 01a3 22       		.uleb128 0x22
 3102 01a4 05       		.uleb128 0x5
 3103 01a5 00       		.byte	0
 3104 01a6 03       		.uleb128 0x3
 3105 01a7 0E       		.uleb128 0xe
 3106 01a8 3A       		.uleb128 0x3a
 3107 01a9 0B       		.uleb128 0xb
 3108 01aa 3B       		.uleb128 0x3b
 3109 01ab 0B       		.uleb128 0xb
 3110 01ac 49       		.uleb128 0x49
 3111 01ad 13       		.uleb128 0x13
 3112 01ae 00       		.byte	0
 3113 01af 00       		.byte	0
 3114 01b0 23       		.uleb128 0x23
 3115 01b1 1D       		.uleb128 0x1d
ARM GAS  /tmp/ccuOaQcJ.s 			page 56


 3116 01b2 01       		.byte	0x1
 3117 01b3 31       		.uleb128 0x31
 3118 01b4 13       		.uleb128 0x13
 3119 01b5 52       		.uleb128 0x52
 3120 01b6 01       		.uleb128 0x1
 3121 01b7 55       		.uleb128 0x55
 3122 01b8 06       		.uleb128 0x6
 3123 01b9 58       		.uleb128 0x58
 3124 01ba 0B       		.uleb128 0xb
 3125 01bb 59       		.uleb128 0x59
 3126 01bc 0B       		.uleb128 0xb
 3127 01bd 01       		.uleb128 0x1
 3128 01be 13       		.uleb128 0x13
 3129 01bf 00       		.byte	0
 3130 01c0 00       		.byte	0
 3131 01c1 24       		.uleb128 0x24
 3132 01c2 05       		.uleb128 0x5
 3133 01c3 00       		.byte	0
 3134 01c4 31       		.uleb128 0x31
 3135 01c5 13       		.uleb128 0x13
 3136 01c6 02       		.uleb128 0x2
 3137 01c7 0A       		.uleb128 0xa
 3138 01c8 00       		.byte	0
 3139 01c9 00       		.byte	0
 3140 01ca 25       		.uleb128 0x25
 3141 01cb 0B       		.uleb128 0xb
 3142 01cc 01       		.byte	0x1
 3143 01cd 55       		.uleb128 0x55
 3144 01ce 06       		.uleb128 0x6
 3145 01cf 00       		.byte	0
 3146 01d0 00       		.byte	0
 3147 01d1 26       		.uleb128 0x26
 3148 01d2 34       		.uleb128 0x34
 3149 01d3 00       		.byte	0
 3150 01d4 31       		.uleb128 0x31
 3151 01d5 13       		.uleb128 0x13
 3152 01d6 02       		.uleb128 0x2
 3153 01d7 0A       		.uleb128 0xa
 3154 01d8 00       		.byte	0
 3155 01d9 00       		.byte	0
 3156 01da 27       		.uleb128 0x27
 3157 01db 2E       		.uleb128 0x2e
 3158 01dc 01       		.byte	0x1
 3159 01dd 3F       		.uleb128 0x3f
 3160 01de 0C       		.uleb128 0xc
 3161 01df 03       		.uleb128 0x3
 3162 01e0 0E       		.uleb128 0xe
 3163 01e1 3A       		.uleb128 0x3a
 3164 01e2 0B       		.uleb128 0xb
 3165 01e3 3B       		.uleb128 0x3b
 3166 01e4 0B       		.uleb128 0xb
 3167 01e5 27       		.uleb128 0x27
 3168 01e6 0C       		.uleb128 0xc
 3169 01e7 49       		.uleb128 0x49
 3170 01e8 13       		.uleb128 0x13
 3171 01e9 11       		.uleb128 0x11
 3172 01ea 01       		.uleb128 0x1
ARM GAS  /tmp/ccuOaQcJ.s 			page 57


 3173 01eb 12       		.uleb128 0x12
 3174 01ec 01       		.uleb128 0x1
 3175 01ed 40       		.uleb128 0x40
 3176 01ee 06       		.uleb128 0x6
 3177 01ef 01       		.uleb128 0x1
 3178 01f0 13       		.uleb128 0x13
 3179 01f1 00       		.byte	0
 3180 01f2 00       		.byte	0
 3181 01f3 28       		.uleb128 0x28
 3182 01f4 05       		.uleb128 0x5
 3183 01f5 00       		.byte	0
 3184 01f6 03       		.uleb128 0x3
 3185 01f7 0E       		.uleb128 0xe
 3186 01f8 3A       		.uleb128 0x3a
 3187 01f9 0B       		.uleb128 0xb
 3188 01fa 3B       		.uleb128 0x3b
 3189 01fb 0B       		.uleb128 0xb
 3190 01fc 49       		.uleb128 0x49
 3191 01fd 13       		.uleb128 0x13
 3192 01fe 02       		.uleb128 0x2
 3193 01ff 06       		.uleb128 0x6
 3194 0200 00       		.byte	0
 3195 0201 00       		.byte	0
 3196 0202 29       		.uleb128 0x29
 3197 0203 34       		.uleb128 0x34
 3198 0204 00       		.byte	0
 3199 0205 03       		.uleb128 0x3
 3200 0206 08       		.uleb128 0x8
 3201 0207 3A       		.uleb128 0x3a
 3202 0208 0B       		.uleb128 0xb
 3203 0209 3B       		.uleb128 0x3b
 3204 020a 0B       		.uleb128 0xb
 3205 020b 49       		.uleb128 0x49
 3206 020c 13       		.uleb128 0x13
 3207 020d 02       		.uleb128 0x2
 3208 020e 0A       		.uleb128 0xa
 3209 020f 00       		.byte	0
 3210 0210 00       		.byte	0
 3211 0211 2A       		.uleb128 0x2a
 3212 0212 1D       		.uleb128 0x1d
 3213 0213 01       		.byte	0x1
 3214 0214 31       		.uleb128 0x31
 3215 0215 13       		.uleb128 0x13
 3216 0216 52       		.uleb128 0x52
 3217 0217 01       		.uleb128 0x1
 3218 0218 55       		.uleb128 0x55
 3219 0219 06       		.uleb128 0x6
 3220 021a 58       		.uleb128 0x58
 3221 021b 0B       		.uleb128 0xb
 3222 021c 59       		.uleb128 0x59
 3223 021d 0B       		.uleb128 0xb
 3224 021e 00       		.byte	0
 3225 021f 00       		.byte	0
 3226 0220 2B       		.uleb128 0x2b
 3227 0221 1D       		.uleb128 0x1d
 3228 0222 01       		.byte	0x1
 3229 0223 31       		.uleb128 0x31
ARM GAS  /tmp/ccuOaQcJ.s 			page 58


 3230 0224 13       		.uleb128 0x13
 3231 0225 11       		.uleb128 0x11
 3232 0226 01       		.uleb128 0x1
 3233 0227 12       		.uleb128 0x12
 3234 0228 01       		.uleb128 0x1
 3235 0229 58       		.uleb128 0x58
 3236 022a 0B       		.uleb128 0xb
 3237 022b 59       		.uleb128 0x59
 3238 022c 0B       		.uleb128 0xb
 3239 022d 00       		.byte	0
 3240 022e 00       		.byte	0
 3241 022f 2C       		.uleb128 0x2c
 3242 0230 2E       		.uleb128 0x2e
 3243 0231 01       		.byte	0x1
 3244 0232 3F       		.uleb128 0x3f
 3245 0233 0C       		.uleb128 0xc
 3246 0234 03       		.uleb128 0x3
 3247 0235 0E       		.uleb128 0xe
 3248 0236 3A       		.uleb128 0x3a
 3249 0237 0B       		.uleb128 0xb
 3250 0238 3B       		.uleb128 0x3b
 3251 0239 0B       		.uleb128 0xb
 3252 023a 27       		.uleb128 0x27
 3253 023b 0C       		.uleb128 0xc
 3254 023c 11       		.uleb128 0x11
 3255 023d 01       		.uleb128 0x1
 3256 023e 12       		.uleb128 0x12
 3257 023f 01       		.uleb128 0x1
 3258 0240 40       		.uleb128 0x40
 3259 0241 06       		.uleb128 0x6
 3260 0242 01       		.uleb128 0x1
 3261 0243 13       		.uleb128 0x13
 3262 0244 00       		.byte	0
 3263 0245 00       		.byte	0
 3264 0246 2D       		.uleb128 0x2d
 3265 0247 05       		.uleb128 0x5
 3266 0248 00       		.byte	0
 3267 0249 03       		.uleb128 0x3
 3268 024a 08       		.uleb128 0x8
 3269 024b 3A       		.uleb128 0x3a
 3270 024c 0B       		.uleb128 0xb
 3271 024d 3B       		.uleb128 0x3b
 3272 024e 0B       		.uleb128 0xb
 3273 024f 49       		.uleb128 0x49
 3274 0250 13       		.uleb128 0x13
 3275 0251 02       		.uleb128 0x2
 3276 0252 06       		.uleb128 0x6
 3277 0253 00       		.byte	0
 3278 0254 00       		.byte	0
 3279 0255 2E       		.uleb128 0x2e
 3280 0256 2E       		.uleb128 0x2e
 3281 0257 01       		.byte	0x1
 3282 0258 3F       		.uleb128 0x3f
 3283 0259 0C       		.uleb128 0xc
 3284 025a 03       		.uleb128 0x3
 3285 025b 0E       		.uleb128 0xe
 3286 025c 3A       		.uleb128 0x3a
ARM GAS  /tmp/ccuOaQcJ.s 			page 59


 3287 025d 0B       		.uleb128 0xb
 3288 025e 3B       		.uleb128 0x3b
 3289 025f 05       		.uleb128 0x5
 3290 0260 27       		.uleb128 0x27
 3291 0261 0C       		.uleb128 0xc
 3292 0262 20       		.uleb128 0x20
 3293 0263 0B       		.uleb128 0xb
 3294 0264 01       		.uleb128 0x1
 3295 0265 13       		.uleb128 0x13
 3296 0266 00       		.byte	0
 3297 0267 00       		.byte	0
 3298 0268 2F       		.uleb128 0x2f
 3299 0269 34       		.uleb128 0x34
 3300 026a 00       		.byte	0
 3301 026b 03       		.uleb128 0x3
 3302 026c 08       		.uleb128 0x8
 3303 026d 3A       		.uleb128 0x3a
 3304 026e 0B       		.uleb128 0xb
 3305 026f 3B       		.uleb128 0x3b
 3306 0270 05       		.uleb128 0x5
 3307 0271 49       		.uleb128 0x49
 3308 0272 13       		.uleb128 0x13
 3309 0273 00       		.byte	0
 3310 0274 00       		.byte	0
 3311 0275 30       		.uleb128 0x30
 3312 0276 1D       		.uleb128 0x1d
 3313 0277 01       		.byte	0x1
 3314 0278 31       		.uleb128 0x31
 3315 0279 13       		.uleb128 0x13
 3316 027a 52       		.uleb128 0x52
 3317 027b 01       		.uleb128 0x1
 3318 027c 55       		.uleb128 0x55
 3319 027d 06       		.uleb128 0x6
 3320 027e 58       		.uleb128 0x58
 3321 027f 0B       		.uleb128 0xb
 3322 0280 59       		.uleb128 0x59
 3323 0281 05       		.uleb128 0x5
 3324 0282 01       		.uleb128 0x1
 3325 0283 13       		.uleb128 0x13
 3326 0284 00       		.byte	0
 3327 0285 00       		.byte	0
 3328 0286 31       		.uleb128 0x31
 3329 0287 2E       		.uleb128 0x2e
 3330 0288 01       		.byte	0x1
 3331 0289 3F       		.uleb128 0x3f
 3332 028a 0C       		.uleb128 0xc
 3333 028b 03       		.uleb128 0x3
 3334 028c 0E       		.uleb128 0xe
 3335 028d 3A       		.uleb128 0x3a
 3336 028e 0B       		.uleb128 0xb
 3337 028f 3B       		.uleb128 0x3b
 3338 0290 05       		.uleb128 0x5
 3339 0291 27       		.uleb128 0x27
 3340 0292 0C       		.uleb128 0xc
 3341 0293 11       		.uleb128 0x11
 3342 0294 01       		.uleb128 0x1
 3343 0295 12       		.uleb128 0x12
ARM GAS  /tmp/ccuOaQcJ.s 			page 60


 3344 0296 01       		.uleb128 0x1
 3345 0297 40       		.uleb128 0x40
 3346 0298 06       		.uleb128 0x6
 3347 0299 01       		.uleb128 0x1
 3348 029a 13       		.uleb128 0x13
 3349 029b 00       		.byte	0
 3350 029c 00       		.byte	0
 3351 029d 32       		.uleb128 0x32
 3352 029e 34       		.uleb128 0x34
 3353 029f 00       		.byte	0
 3354 02a0 03       		.uleb128 0x3
 3355 02a1 08       		.uleb128 0x8
 3356 02a2 3A       		.uleb128 0x3a
 3357 02a3 0B       		.uleb128 0xb
 3358 02a4 3B       		.uleb128 0x3b
 3359 02a5 05       		.uleb128 0x5
 3360 02a6 49       		.uleb128 0x49
 3361 02a7 13       		.uleb128 0x13
 3362 02a8 02       		.uleb128 0x2
 3363 02a9 06       		.uleb128 0x6
 3364 02aa 00       		.byte	0
 3365 02ab 00       		.byte	0
 3366 02ac 33       		.uleb128 0x33
 3367 02ad 34       		.uleb128 0x34
 3368 02ae 00       		.byte	0
 3369 02af 03       		.uleb128 0x3
 3370 02b0 08       		.uleb128 0x8
 3371 02b1 3A       		.uleb128 0x3a
 3372 02b2 0B       		.uleb128 0xb
 3373 02b3 3B       		.uleb128 0x3b
 3374 02b4 05       		.uleb128 0x5
 3375 02b5 49       		.uleb128 0x49
 3376 02b6 13       		.uleb128 0x13
 3377 02b7 02       		.uleb128 0x2
 3378 02b8 0A       		.uleb128 0xa
 3379 02b9 00       		.byte	0
 3380 02ba 00       		.byte	0
 3381 02bb 34       		.uleb128 0x34
 3382 02bc 1D       		.uleb128 0x1d
 3383 02bd 01       		.byte	0x1
 3384 02be 31       		.uleb128 0x31
 3385 02bf 13       		.uleb128 0x13
 3386 02c0 52       		.uleb128 0x52
 3387 02c1 01       		.uleb128 0x1
 3388 02c2 55       		.uleb128 0x55
 3389 02c3 06       		.uleb128 0x6
 3390 02c4 58       		.uleb128 0x58
 3391 02c5 0B       		.uleb128 0xb
 3392 02c6 59       		.uleb128 0x59
 3393 02c7 05       		.uleb128 0x5
 3394 02c8 00       		.byte	0
 3395 02c9 00       		.byte	0
 3396 02ca 35       		.uleb128 0x35
 3397 02cb 34       		.uleb128 0x34
 3398 02cc 00       		.byte	0
 3399 02cd 03       		.uleb128 0x3
 3400 02ce 0E       		.uleb128 0xe
ARM GAS  /tmp/ccuOaQcJ.s 			page 61


 3401 02cf 3A       		.uleb128 0x3a
 3402 02d0 0B       		.uleb128 0xb
 3403 02d1 3B       		.uleb128 0x3b
 3404 02d2 0B       		.uleb128 0xb
 3405 02d3 49       		.uleb128 0x49
 3406 02d4 13       		.uleb128 0x13
 3407 02d5 3F       		.uleb128 0x3f
 3408 02d6 0C       		.uleb128 0xc
 3409 02d7 3C       		.uleb128 0x3c
 3410 02d8 0C       		.uleb128 0xc
 3411 02d9 00       		.byte	0
 3412 02da 00       		.byte	0
 3413 02db 36       		.uleb128 0x36
 3414 02dc 34       		.uleb128 0x34
 3415 02dd 00       		.byte	0
 3416 02de 03       		.uleb128 0x3
 3417 02df 0E       		.uleb128 0xe
 3418 02e0 3A       		.uleb128 0x3a
 3419 02e1 0B       		.uleb128 0xb
 3420 02e2 3B       		.uleb128 0x3b
 3421 02e3 0B       		.uleb128 0xb
 3422 02e4 49       		.uleb128 0x49
 3423 02e5 13       		.uleb128 0x13
 3424 02e6 3F       		.uleb128 0x3f
 3425 02e7 0C       		.uleb128 0xc
 3426 02e8 02       		.uleb128 0x2
 3427 02e9 0A       		.uleb128 0xa
 3428 02ea 00       		.byte	0
 3429 02eb 00       		.byte	0
 3430 02ec 00       		.byte	0
 3431              		.section	.debug_loc,"",%progbits
 3432              	.Ldebug_loc0:
 3433              	.LLST0:
 3434 0000 00000000 		.4byte	.LFB10
 3435 0004 02000000 		.4byte	.LCFI0
 3436 0008 0200     		.2byte	0x2
 3437 000a 7D       		.byte	0x7d
 3438 000b 00       		.sleb128 0
 3439 000c 02000000 		.4byte	.LCFI0
 3440 0010 84000000 		.4byte	.LFE10
 3441 0014 0200     		.2byte	0x2
 3442 0016 7D       		.byte	0x7d
 3443 0017 08       		.sleb128 8
 3444 0018 00000000 		.4byte	0
 3445 001c 00000000 		.4byte	0
 3446              	.LLST1:
 3447 0020 00000000 		.4byte	.LVL0
 3448 0024 0D000000 		.4byte	.LVL4-1
 3449 0028 0100     		.2byte	0x1
 3450 002a 50       		.byte	0x50
 3451 002b 28000000 		.4byte	.LVL5
 3452 002f 84000000 		.4byte	.LFE10
 3453 0033 0100     		.2byte	0x1
 3454 0035 54       		.byte	0x54
 3455 0036 00000000 		.4byte	0
 3456 003a 00000000 		.4byte	0
 3457              	.LLST2:
ARM GAS  /tmp/ccuOaQcJ.s 			page 62


 3458 003e 06000000 		.4byte	.LVL2
 3459 0042 0D000000 		.4byte	.LVL4-1
 3460 0046 0100     		.2byte	0x1
 3461 0048 50       		.byte	0x50
 3462 0049 0D000000 		.4byte	.LVL4-1
 3463 004d 84000000 		.4byte	.LFE10
 3464 0051 0100     		.2byte	0x1
 3465 0053 54       		.byte	0x54
 3466 0054 00000000 		.4byte	0
 3467 0058 00000000 		.4byte	0
 3468              	.LLST3:
 3469 005c 0A000000 		.4byte	.LVL3
 3470 0060 0D000000 		.4byte	.LVL4-1
 3471 0064 0100     		.2byte	0x1
 3472 0066 53       		.byte	0x53
 3473 0067 00000000 		.4byte	0
 3474 006b 00000000 		.4byte	0
 3475              	.LLST4:
 3476 006f 30000000 		.4byte	.LVL6
 3477 0073 3A000000 		.4byte	.LVL7
 3478 0077 0100     		.2byte	0x1
 3479 0079 54       		.byte	0x54
 3480 007a 00000000 		.4byte	0
 3481 007e 00000000 		.4byte	0
 3482              	.LLST5:
 3483 0082 40000000 		.4byte	.LVL8
 3484 0086 70000000 		.4byte	.LVL11
 3485 008a 0100     		.2byte	0x1
 3486 008c 54       		.byte	0x54
 3487 008d 00000000 		.4byte	0
 3488 0091 00000000 		.4byte	0
 3489              	.LLST6:
 3490 0095 5E000000 		.4byte	.LVL9
 3491 0099 70000000 		.4byte	.LVL11
 3492 009d 0100     		.2byte	0x1
 3493 009f 53       		.byte	0x53
 3494 00a0 00000000 		.4byte	0
 3495 00a4 00000000 		.4byte	0
 3496              	.LLST7:
 3497 00a8 7A000000 		.4byte	.LVL13
 3498 00ac 84000000 		.4byte	.LFE10
 3499 00b0 0100     		.2byte	0x1
 3500 00b2 53       		.byte	0x53
 3501 00b3 00000000 		.4byte	0
 3502 00b7 00000000 		.4byte	0
 3503              	.LLST8:
 3504 00bb 00000000 		.4byte	.LFB8
 3505 00bf 02000000 		.4byte	.LCFI1
 3506 00c3 0200     		.2byte	0x2
 3507 00c5 7D       		.byte	0x7d
 3508 00c6 00       		.sleb128 0
 3509 00c7 02000000 		.4byte	.LCFI1
 3510 00cb 44000000 		.4byte	.LFE8
 3511 00cf 0200     		.2byte	0x2
 3512 00d1 7D       		.byte	0x7d
 3513 00d2 08       		.sleb128 8
 3514 00d3 00000000 		.4byte	0
ARM GAS  /tmp/ccuOaQcJ.s 			page 63


 3515 00d7 00000000 		.4byte	0
 3516              	.LLST9:
 3517 00db 00000000 		.4byte	.LVL14
 3518 00df 07000000 		.4byte	.LVL15-1
 3519 00e3 0100     		.2byte	0x1
 3520 00e5 50       		.byte	0x50
 3521 00e6 07000000 		.4byte	.LVL15-1
 3522 00ea 44000000 		.4byte	.LFE8
 3523 00ee 0100     		.2byte	0x1
 3524 00f0 54       		.byte	0x54
 3525 00f1 00000000 		.4byte	0
 3526 00f5 00000000 		.4byte	0
 3527              	.LLST10:
 3528 00f9 1C000000 		.4byte	.LVL16
 3529 00fd 32000000 		.4byte	.LVL18
 3530 0101 0100     		.2byte	0x1
 3531 0103 53       		.byte	0x53
 3532 0104 00000000 		.4byte	0
 3533 0108 00000000 		.4byte	0
 3534              	.LLST11:
 3535 010c 00000000 		.4byte	.LFB9
 3536 0110 02000000 		.4byte	.LCFI2
 3537 0114 0200     		.2byte	0x2
 3538 0116 7D       		.byte	0x7d
 3539 0117 00       		.sleb128 0
 3540 0118 02000000 		.4byte	.LCFI2
 3541 011c 50000000 		.4byte	.LFE9
 3542 0120 0200     		.2byte	0x2
 3543 0122 7D       		.byte	0x7d
 3544 0123 10       		.sleb128 16
 3545 0124 00000000 		.4byte	0
 3546 0128 00000000 		.4byte	0
 3547              	.LLST12:
 3548 012c 00000000 		.4byte	.LVL19
 3549 0130 09000000 		.4byte	.LVL20-1
 3550 0134 0100     		.2byte	0x1
 3551 0136 50       		.byte	0x50
 3552 0137 00000000 		.4byte	0
 3553 013b 00000000 		.4byte	0
 3554              	.LLST13:
 3555 013f 0E000000 		.4byte	.LVL21
 3556 0143 2B000000 		.4byte	.LVL23-1
 3557 0147 0500     		.2byte	0x5
 3558 0149 03       		.byte	0x3
 3559 014a 18000000 		.4byte	rlist+24
 3560 014e 2B000000 		.4byte	.LVL23-1
 3561 0152 50000000 		.4byte	.LFE9
 3562 0156 0100     		.2byte	0x1
 3563 0158 55       		.byte	0x55
 3564 0159 00000000 		.4byte	0
 3565 015d 00000000 		.4byte	0
 3566              	.LLST14:
 3567 0161 1E000000 		.4byte	.LVL22
 3568 0165 2B000000 		.4byte	.LVL23-1
 3569 0169 0500     		.2byte	0x5
 3570 016b 03       		.byte	0x3
 3571 016c 00000000 		.4byte	rlist
ARM GAS  /tmp/ccuOaQcJ.s 			page 64


 3572 0170 00000000 		.4byte	0
 3573 0174 00000000 		.4byte	0
 3574              	.LLST15:
 3575 0178 00000000 		.4byte	.LFB11
 3576 017c 02000000 		.4byte	.LCFI3
 3577 0180 0200     		.2byte	0x2
 3578 0182 7D       		.byte	0x7d
 3579 0183 00       		.sleb128 0
 3580 0184 02000000 		.4byte	.LCFI3
 3581 0188 06000000 		.4byte	.LCFI4
 3582 018c 0200     		.2byte	0x2
 3583 018e 7D       		.byte	0x7d
 3584 018f 10       		.sleb128 16
 3585 0190 06000000 		.4byte	.LCFI4
 3586 0194 C8000000 		.4byte	.LFE11
 3587 0198 0200     		.2byte	0x2
 3588 019a 7D       		.byte	0x7d
 3589 019b 28       		.sleb128 40
 3590 019c 00000000 		.4byte	0
 3591 01a0 00000000 		.4byte	0
 3592              	.LLST16:
 3593 01a4 00000000 		.4byte	.LVL24
 3594 01a8 0B000000 		.4byte	.LVL25-1
 3595 01ac 0100     		.2byte	0x1
 3596 01ae 50       		.byte	0x50
 3597 01af 00000000 		.4byte	0
 3598 01b3 00000000 		.4byte	0
 3599              	.LLST17:
 3600 01b7 00000000 		.4byte	.LVL24
 3601 01bb 0B000000 		.4byte	.LVL25-1
 3602 01bf 0100     		.2byte	0x1
 3603 01c1 51       		.byte	0x51
 3604 01c2 0B000000 		.4byte	.LVL25-1
 3605 01c6 26000000 		.4byte	.LVL27
 3606 01ca 0100     		.2byte	0x1
 3607 01cc 56       		.byte	0x56
 3608 01cd 70000000 		.4byte	.LVL32
 3609 01d1 78000000 		.4byte	.LVL33
 3610 01d5 0100     		.2byte	0x1
 3611 01d7 56       		.byte	0x56
 3612 01d8 00000000 		.4byte	0
 3613 01dc 00000000 		.4byte	0
 3614              	.LLST18:
 3615 01e0 1E000000 		.4byte	.LVL26
 3616 01e4 60000000 		.4byte	.LVL30
 3617 01e8 0100     		.2byte	0x1
 3618 01ea 55       		.byte	0x55
 3619 01eb 68000000 		.4byte	.LVL31
 3620 01ef 70000000 		.4byte	.LVL32
 3621 01f3 0100     		.2byte	0x1
 3622 01f5 55       		.byte	0x55
 3623 01f6 00000000 		.4byte	0
 3624 01fa 00000000 		.4byte	0
 3625              	.LLST19:
 3626 01fe 26000000 		.4byte	.LVL27
 3627 0202 43000000 		.4byte	.LVL29-1
 3628 0206 0500     		.2byte	0x5
ARM GAS  /tmp/ccuOaQcJ.s 			page 65


 3629 0208 03       		.byte	0x3
 3630 0209 18000000 		.4byte	rlist+24
 3631 020d 43000000 		.4byte	.LVL29-1
 3632 0211 60000000 		.4byte	.LVL30
 3633 0215 0100     		.2byte	0x1
 3634 0217 56       		.byte	0x56
 3635 0218 68000000 		.4byte	.LVL31
 3636 021c 70000000 		.4byte	.LVL32
 3637 0220 0100     		.2byte	0x1
 3638 0222 56       		.byte	0x56
 3639 0223 00000000 		.4byte	0
 3640 0227 00000000 		.4byte	0
 3641              	.LLST20:
 3642 022b 36000000 		.4byte	.LVL28
 3643 022f 60000000 		.4byte	.LVL30
 3644 0233 0600     		.2byte	0x6
 3645 0235 03       		.byte	0x3
 3646 0236 00000000 		.4byte	rlist
 3647 023a 9F       		.byte	0x9f
 3648 023b 68000000 		.4byte	.LVL31
 3649 023f 70000000 		.4byte	.LVL32
 3650 0243 0600     		.2byte	0x6
 3651 0245 03       		.byte	0x3
 3652 0246 00000000 		.4byte	rlist
 3653 024a 9F       		.byte	0x9f
 3654 024b 00000000 		.4byte	0
 3655 024f 00000000 		.4byte	0
 3656              	.LLST21:
 3657 0253 36000000 		.4byte	.LVL28
 3658 0257 43000000 		.4byte	.LVL29-1
 3659 025b 0500     		.2byte	0x5
 3660 025d 03       		.byte	0x3
 3661 025e 00000000 		.4byte	rlist
 3662 0262 00000000 		.4byte	0
 3663 0266 00000000 		.4byte	0
 3664              	.LLST22:
 3665 026a 78000000 		.4byte	.LVL33
 3666 026e 95000000 		.4byte	.LVL35-1
 3667 0272 0500     		.2byte	0x5
 3668 0274 03       		.byte	0x3
 3669 0275 18000000 		.4byte	rlist+24
 3670 0279 95000000 		.4byte	.LVL35-1
 3671 027d C8000000 		.4byte	.LFE11
 3672 0281 0100     		.2byte	0x1
 3673 0283 56       		.byte	0x56
 3674 0284 00000000 		.4byte	0
 3675 0288 00000000 		.4byte	0
 3676              	.LLST23:
 3677 028c 88000000 		.4byte	.LVL34
 3678 0290 95000000 		.4byte	.LVL35-1
 3679 0294 0500     		.2byte	0x5
 3680 0296 03       		.byte	0x3
 3681 0297 00000000 		.4byte	rlist
 3682 029b 00000000 		.4byte	0
 3683 029f 00000000 		.4byte	0
 3684              	.LLST24:
 3685 02a3 00000000 		.4byte	.LFB12
ARM GAS  /tmp/ccuOaQcJ.s 			page 66


 3686 02a7 02000000 		.4byte	.LCFI5
 3687 02ab 0200     		.2byte	0x2
 3688 02ad 7D       		.byte	0x7d
 3689 02ae 00       		.sleb128 0
 3690 02af 02000000 		.4byte	.LCFI5
 3691 02b3 B8000000 		.4byte	.LFE12
 3692 02b7 0200     		.2byte	0x2
 3693 02b9 7D       		.byte	0x7d
 3694 02ba 18       		.sleb128 24
 3695 02bb 00000000 		.4byte	0
 3696 02bf 00000000 		.4byte	0
 3697              	.LLST25:
 3698 02c3 00000000 		.4byte	.LVL36
 3699 02c7 0B000000 		.4byte	.LVL37-1
 3700 02cb 0100     		.2byte	0x1
 3701 02cd 50       		.byte	0x50
 3702 02ce 0B000000 		.4byte	.LVL37-1
 3703 02d2 B8000000 		.4byte	.LFE12
 3704 02d6 0100     		.2byte	0x1
 3705 02d8 54       		.byte	0x54
 3706 02d9 00000000 		.4byte	0
 3707 02dd 00000000 		.4byte	0
 3708              	.LLST26:
 3709 02e1 00000000 		.4byte	.LVL36
 3710 02e5 0B000000 		.4byte	.LVL37-1
 3711 02e9 0100     		.2byte	0x1
 3712 02eb 51       		.byte	0x51
 3713 02ec 0B000000 		.4byte	.LVL37-1
 3714 02f0 B8000000 		.4byte	.LFE12
 3715 02f4 0100     		.2byte	0x1
 3716 02f6 57       		.byte	0x57
 3717 02f7 00000000 		.4byte	0
 3718 02fb 00000000 		.4byte	0
 3719              	.LLST27:
 3720 02ff 18000000 		.4byte	.LVL38
 3721 0303 1B000000 		.4byte	.LVL39-1
 3722 0307 0500     		.2byte	0x5
 3723 0309 03       		.byte	0x3
 3724 030a 18000000 		.4byte	rlist+24
 3725 030e 1B000000 		.4byte	.LVL39-1
 3726 0312 70000000 		.4byte	.LVL44
 3727 0316 0100     		.2byte	0x1
 3728 0318 56       		.byte	0x56
 3729 0319 A4000000 		.4byte	.LVL48
 3730 031d B8000000 		.4byte	.LFE12
 3731 0321 0100     		.2byte	0x1
 3732 0323 56       		.byte	0x56
 3733 0324 00000000 		.4byte	0
 3734 0328 00000000 		.4byte	0
 3735              	.LLST28:
 3736 032c 32000000 		.4byte	.LVL40
 3737 0330 44000000 		.4byte	.LVL42
 3738 0334 0100     		.2byte	0x1
 3739 0336 53       		.byte	0x53
 3740 0337 44000000 		.4byte	.LVL42
 3741 033b 51000000 		.4byte	.LVL43-1
 3742 033f 0200     		.2byte	0x2
ARM GAS  /tmp/ccuOaQcJ.s 			page 67


 3743 0341 76       		.byte	0x76
 3744 0342 00       		.sleb128 0
 3745 0343 00000000 		.4byte	0
 3746 0347 00000000 		.4byte	0
 3747              	.LLST29:
 3748 034b 70000000 		.4byte	.LVL44
 3749 034f A4000000 		.4byte	.LVL48
 3750 0353 0100     		.2byte	0x1
 3751 0355 54       		.byte	0x54
 3752 0356 00000000 		.4byte	0
 3753 035a 00000000 		.4byte	0
 3754              	.LLST30:
 3755 035e 88000000 		.4byte	.LVL45
 3756 0362 9C000000 		.4byte	.LVL47
 3757 0366 0100     		.2byte	0x1
 3758 0368 53       		.byte	0x53
 3759 0369 00000000 		.4byte	0
 3760 036d 00000000 		.4byte	0
 3761              	.LLST31:
 3762 0371 00000000 		.4byte	.LFB13
 3763 0375 02000000 		.4byte	.LCFI6
 3764 0379 0200     		.2byte	0x2
 3765 037b 7D       		.byte	0x7d
 3766 037c 00       		.sleb128 0
 3767 037d 02000000 		.4byte	.LCFI6
 3768 0381 68000000 		.4byte	.LFE13
 3769 0385 0200     		.2byte	0x2
 3770 0387 7D       		.byte	0x7d
 3771 0388 10       		.sleb128 16
 3772 0389 00000000 		.4byte	0
 3773 038d 00000000 		.4byte	0
 3774              	.LLST32:
 3775 0391 16000000 		.4byte	.LVL49
 3776 0395 41000000 		.4byte	.LVL52-1
 3777 0399 0500     		.2byte	0x5
 3778 039b 03       		.byte	0x3
 3779 039c 18000000 		.4byte	rlist+24
 3780 03a0 41000000 		.4byte	.LVL52-1
 3781 03a4 68000000 		.4byte	.LFE13
 3782 03a8 0100     		.2byte	0x1
 3783 03aa 54       		.byte	0x54
 3784 03ab 00000000 		.4byte	0
 3785 03af 00000000 		.4byte	0
 3786              	.LLST33:
 3787 03b3 2A000000 		.4byte	.LVL50
 3788 03b7 41000000 		.4byte	.LVL52-1
 3789 03bb 0100     		.2byte	0x1
 3790 03bd 53       		.byte	0x53
 3791 03be 00000000 		.4byte	0
 3792 03c2 00000000 		.4byte	0
 3793              	.LLST34:
 3794 03c6 16000000 		.4byte	.LVL49
 3795 03ca 41000000 		.4byte	.LVL52-1
 3796 03ce 0500     		.2byte	0x5
 3797 03d0 03       		.byte	0x3
 3798 03d1 00000000 		.4byte	rlist
 3799 03d5 00000000 		.4byte	0
ARM GAS  /tmp/ccuOaQcJ.s 			page 68


 3800 03d9 00000000 		.4byte	0
 3801              	.LLST35:
 3802 03dd 00000000 		.4byte	.LFB14
 3803 03e1 02000000 		.4byte	.LCFI7
 3804 03e5 0200     		.2byte	0x2
 3805 03e7 7D       		.byte	0x7d
 3806 03e8 00       		.sleb128 0
 3807 03e9 02000000 		.4byte	.LCFI7
 3808 03ed 80000000 		.4byte	.LFE14
 3809 03f1 0200     		.2byte	0x2
 3810 03f3 7D       		.byte	0x7d
 3811 03f4 10       		.sleb128 16
 3812 03f5 00000000 		.4byte	0
 3813 03f9 00000000 		.4byte	0
 3814              	.LLST36:
 3815 03fd 0A000000 		.4byte	.LVL53
 3816 0401 1F000000 		.4byte	.LVL55-1
 3817 0405 0500     		.2byte	0x5
 3818 0407 03       		.byte	0x3
 3819 0408 18000000 		.4byte	rlist+24
 3820 040c 1F000000 		.4byte	.LVL55-1
 3821 0410 80000000 		.4byte	.LFE14
 3822 0414 0100     		.2byte	0x1
 3823 0416 54       		.byte	0x54
 3824 0417 00000000 		.4byte	0
 3825 041b 00000000 		.4byte	0
 3826              	.LLST37:
 3827 041f 0A000000 		.4byte	.LVL53
 3828 0423 1F000000 		.4byte	.LVL55-1
 3829 0427 0500     		.2byte	0x5
 3830 0429 03       		.byte	0x3
 3831 042a 00000000 		.4byte	rlist
 3832 042e 00000000 		.4byte	0
 3833 0432 00000000 		.4byte	0
 3834              	.LLST38:
 3835 0436 18000000 		.4byte	.LVL54
 3836 043a 1F000000 		.4byte	.LVL55-1
 3837 043e 0500     		.2byte	0x5
 3838 0440 03       		.byte	0x3
 3839 0441 18000000 		.4byte	rlist+24
 3840 0445 1F000000 		.4byte	.LVL55-1
 3841 0449 80000000 		.4byte	.LFE14
 3842 044d 0100     		.2byte	0x1
 3843 044f 54       		.byte	0x54
 3844 0450 00000000 		.4byte	0
 3845 0454 00000000 		.4byte	0
 3846              	.LLST39:
 3847 0458 36000000 		.4byte	.LVL56
 3848 045c 4D000000 		.4byte	.LVL58-1
 3849 0460 0100     		.2byte	0x1
 3850 0462 53       		.byte	0x53
 3851 0463 00000000 		.4byte	0
 3852 0467 00000000 		.4byte	0
 3853              	.LLST40:
 3854 046b 00000000 		.4byte	.LFB15
 3855 046f 02000000 		.4byte	.LCFI8
 3856 0473 0200     		.2byte	0x2
ARM GAS  /tmp/ccuOaQcJ.s 			page 69


 3857 0475 7D       		.byte	0x7d
 3858 0476 00       		.sleb128 0
 3859 0477 02000000 		.4byte	.LCFI8
 3860 047b 5C000000 		.4byte	.LFE15
 3861 047f 0200     		.2byte	0x2
 3862 0481 7D       		.byte	0x7d
 3863 0482 10       		.sleb128 16
 3864 0483 00000000 		.4byte	0
 3865 0487 00000000 		.4byte	0
 3866              	.LLST41:
 3867 048b 0A000000 		.4byte	.LVL59
 3868 048f 37000000 		.4byte	.LVL63-1
 3869 0493 0500     		.2byte	0x5
 3870 0495 03       		.byte	0x3
 3871 0496 18000000 		.4byte	rlist+24
 3872 049a 37000000 		.4byte	.LVL63-1
 3873 049e 5C000000 		.4byte	.LFE15
 3874 04a2 0100     		.2byte	0x1
 3875 04a4 54       		.byte	0x54
 3876 04a5 00000000 		.4byte	0
 3877 04a9 00000000 		.4byte	0
 3878              	.LLST42:
 3879 04ad 1E000000 		.4byte	.LVL60
 3880 04b1 20000000 		.4byte	.LVL61
 3881 04b5 0600     		.2byte	0x6
 3882 04b7 03       		.byte	0x3
 3883 04b8 00000000 		.4byte	rlist
 3884 04bc 9F       		.byte	0x9f
 3885 04bd 20000000 		.4byte	.LVL61
 3886 04c1 37000000 		.4byte	.LVL63-1
 3887 04c5 0100     		.2byte	0x1
 3888 04c7 53       		.byte	0x53
 3889 04c8 00000000 		.4byte	0
 3890 04cc 00000000 		.4byte	0
 3891              	.LLST43:
 3892 04d0 0A000000 		.4byte	.LVL59
 3893 04d4 37000000 		.4byte	.LVL63-1
 3894 04d8 0500     		.2byte	0x5
 3895 04da 03       		.byte	0x3
 3896 04db 00000000 		.4byte	rlist
 3897 04df 00000000 		.4byte	0
 3898 04e3 00000000 		.4byte	0
 3899              	.LLST44:
 3900 04e7 00000000 		.4byte	.LFB16
 3901 04eb 02000000 		.4byte	.LCFI9
 3902 04ef 0200     		.2byte	0x2
 3903 04f1 7D       		.byte	0x7d
 3904 04f2 00       		.sleb128 0
 3905 04f3 02000000 		.4byte	.LCFI9
 3906 04f7 70000000 		.4byte	.LFE16
 3907 04fb 0200     		.2byte	0x2
 3908 04fd 7D       		.byte	0x7d
 3909 04fe 10       		.sleb128 16
 3910 04ff 00000000 		.4byte	0
 3911 0503 00000000 		.4byte	0
 3912              	.LLST45:
 3913 0507 0E000000 		.4byte	.LVL64
ARM GAS  /tmp/ccuOaQcJ.s 			page 70


 3914 050b 3F000000 		.4byte	.LVL69-1
 3915 050f 0500     		.2byte	0x5
 3916 0511 03       		.byte	0x3
 3917 0512 18000000 		.4byte	rlist+24
 3918 0516 3F000000 		.4byte	.LVL69-1
 3919 051a 5E000000 		.4byte	.LVL70
 3920 051e 0100     		.2byte	0x1
 3921 0520 54       		.byte	0x54
 3922 0521 00000000 		.4byte	0
 3923 0525 00000000 		.4byte	0
 3924              	.LLST46:
 3925 0529 26000000 		.4byte	.LVL66
 3926 052d 28000000 		.4byte	.LVL67
 3927 0531 0600     		.2byte	0x6
 3928 0533 03       		.byte	0x3
 3929 0534 00000000 		.4byte	rlist
 3930 0538 9F       		.byte	0x9f
 3931 0539 28000000 		.4byte	.LVL67
 3932 053d 3F000000 		.4byte	.LVL69-1
 3933 0541 0100     		.2byte	0x1
 3934 0543 53       		.byte	0x53
 3935 0544 00000000 		.4byte	0
 3936 0548 00000000 		.4byte	0
 3937              	.LLST47:
 3938 054c 0E000000 		.4byte	.LVL64
 3939 0550 5E000000 		.4byte	.LVL70
 3940 0554 0600     		.2byte	0x6
 3941 0556 03       		.byte	0x3
 3942 0557 00000000 		.4byte	rlist
 3943 055b 9F       		.byte	0x9f
 3944 055c 00000000 		.4byte	0
 3945 0560 00000000 		.4byte	0
 3946              	.LLST48:
 3947 0564 10000000 		.4byte	.LVL65
 3948 0568 3F000000 		.4byte	.LVL69-1
 3949 056c 0500     		.2byte	0x5
 3950 056e 03       		.byte	0x3
 3951 056f 00000000 		.4byte	rlist
 3952 0573 00000000 		.4byte	0
 3953 0577 00000000 		.4byte	0
 3954              		.section	.debug_aranges,"",%progbits
 3955 0000 64000000 		.4byte	0x64
 3956 0004 0200     		.2byte	0x2
 3957 0006 00000000 		.4byte	.Ldebug_info0
 3958 000a 04       		.byte	0x4
 3959 000b 00       		.byte	0
 3960 000c 0000     		.2byte	0
 3961 000e 0000     		.2byte	0
 3962 0010 00000000 		.4byte	.LFB10
 3963 0014 84000000 		.4byte	.LFE10-.LFB10
 3964 0018 00000000 		.4byte	.LFB7
 3965 001c 16000000 		.4byte	.LFE7-.LFB7
 3966 0020 00000000 		.4byte	.LFB8
 3967 0024 44000000 		.4byte	.LFE8-.LFB8
 3968 0028 00000000 		.4byte	.LFB9
 3969 002c 50000000 		.4byte	.LFE9-.LFB9
 3970 0030 00000000 		.4byte	.LFB11
ARM GAS  /tmp/ccuOaQcJ.s 			page 71


 3971 0034 C8000000 		.4byte	.LFE11-.LFB11
 3972 0038 00000000 		.4byte	.LFB12
 3973 003c B8000000 		.4byte	.LFE12-.LFB12
 3974 0040 00000000 		.4byte	.LFB13
 3975 0044 68000000 		.4byte	.LFE13-.LFB13
 3976 0048 00000000 		.4byte	.LFB14
 3977 004c 80000000 		.4byte	.LFE14-.LFB14
 3978 0050 00000000 		.4byte	.LFB15
 3979 0054 5C000000 		.4byte	.LFE15-.LFB15
 3980 0058 00000000 		.4byte	.LFB16
 3981 005c 70000000 		.4byte	.LFE16-.LFB16
 3982 0060 00000000 		.4byte	0
 3983 0064 00000000 		.4byte	0
 3984              		.section	.debug_ranges,"",%progbits
 3985              	.Ldebug_ranges0:
 3986 0000 02000000 		.4byte	.LBB34
 3987 0004 04000000 		.4byte	.LBE34
 3988 0008 06000000 		.4byte	.LBB35
 3989 000c 0A000000 		.4byte	.LBE35
 3990 0010 00000000 		.4byte	0
 3991 0014 00000000 		.4byte	0
 3992 0018 0A000000 		.4byte	.LBB44
 3993 001c 0C000000 		.4byte	.LBE44
 3994 0020 0E000000 		.4byte	.LBB49
 3995 0024 10000000 		.4byte	.LBE49
 3996 0028 14000000 		.4byte	.LBB50
 3997 002c 16000000 		.4byte	.LBE50
 3998 0030 24000000 		.4byte	.LBB51
 3999 0034 26000000 		.4byte	.LBE51
 4000 0038 00000000 		.4byte	0
 4001 003c 00000000 		.4byte	0
 4002 0040 0A000000 		.4byte	.LBB45
 4003 0044 0C000000 		.4byte	.LBE45
 4004 0048 0E000000 		.4byte	.LBB46
 4005 004c 10000000 		.4byte	.LBE46
 4006 0050 14000000 		.4byte	.LBB47
 4007 0054 16000000 		.4byte	.LBE47
 4008 0058 24000000 		.4byte	.LBB48
 4009 005c 26000000 		.4byte	.LBE48
 4010 0060 00000000 		.4byte	0
 4011 0064 00000000 		.4byte	0
 4012 0068 2C000000 		.4byte	.LBB52
 4013 006c 40000000 		.4byte	.LBE52
 4014 0070 44000000 		.4byte	.LBB53
 4015 0074 50000000 		.4byte	.LBE53
 4016 0078 00000000 		.4byte	0
 4017 007c 00000000 		.4byte	0
 4018 0080 0E000000 		.4byte	.LBB65
 4019 0084 10000000 		.4byte	.LBE65
 4020 0088 12000000 		.4byte	.LBB80
 4021 008c 60000000 		.4byte	.LBE80
 4022 0090 68000000 		.4byte	.LBB81
 4023 0094 70000000 		.4byte	.LBE81
 4024 0098 00000000 		.4byte	0
 4025 009c 00000000 		.4byte	0
 4026 00a0 1E000000 		.4byte	.LBB66
 4027 00a4 56000000 		.4byte	.LBE66
ARM GAS  /tmp/ccuOaQcJ.s 			page 72


 4028 00a8 68000000 		.4byte	.LBB79
 4029 00ac 70000000 		.4byte	.LBE79
 4030 00b0 00000000 		.4byte	0
 4031 00b4 00000000 		.4byte	0
 4032 00b8 1E000000 		.4byte	.LBB67
 4033 00bc 56000000 		.4byte	.LBE67
 4034 00c0 68000000 		.4byte	.LBB78
 4035 00c4 70000000 		.4byte	.LBE78
 4036 00c8 00000000 		.4byte	0
 4037 00cc 00000000 		.4byte	0
 4038 00d0 22000000 		.4byte	.LBB68
 4039 00d4 24000000 		.4byte	.LBE68
 4040 00d8 26000000 		.4byte	.LBB73
 4041 00dc 28000000 		.4byte	.LBE73
 4042 00e0 2C000000 		.4byte	.LBB74
 4043 00e4 2E000000 		.4byte	.LBE74
 4044 00e8 3C000000 		.4byte	.LBB75
 4045 00ec 3E000000 		.4byte	.LBE75
 4046 00f0 00000000 		.4byte	0
 4047 00f4 00000000 		.4byte	0
 4048 00f8 22000000 		.4byte	.LBB69
 4049 00fc 24000000 		.4byte	.LBE69
 4050 0100 26000000 		.4byte	.LBB70
 4051 0104 28000000 		.4byte	.LBE70
 4052 0108 2C000000 		.4byte	.LBB71
 4053 010c 2E000000 		.4byte	.LBE71
 4054 0110 3C000000 		.4byte	.LBB72
 4055 0114 3E000000 		.4byte	.LBE72
 4056 0118 00000000 		.4byte	0
 4057 011c 00000000 		.4byte	0
 4058 0120 44000000 		.4byte	.LBB76
 4059 0124 56000000 		.4byte	.LBE76
 4060 0128 68000000 		.4byte	.LBB77
 4061 012c 70000000 		.4byte	.LBE77
 4062 0130 00000000 		.4byte	0
 4063 0134 00000000 		.4byte	0
 4064 0138 74000000 		.4byte	.LBB84
 4065 013c 76000000 		.4byte	.LBE84
 4066 0140 78000000 		.4byte	.LBB89
 4067 0144 7A000000 		.4byte	.LBE89
 4068 0148 7E000000 		.4byte	.LBB90
 4069 014c 80000000 		.4byte	.LBE90
 4070 0150 8E000000 		.4byte	.LBB91
 4071 0154 90000000 		.4byte	.LBE91
 4072 0158 00000000 		.4byte	0
 4073 015c 00000000 		.4byte	0
 4074 0160 74000000 		.4byte	.LBB85
 4075 0164 76000000 		.4byte	.LBE85
 4076 0168 78000000 		.4byte	.LBB86
 4077 016c 7A000000 		.4byte	.LBE86
 4078 0170 7E000000 		.4byte	.LBB87
 4079 0174 80000000 		.4byte	.LBE87
 4080 0178 8E000000 		.4byte	.LBB88
 4081 017c 90000000 		.4byte	.LBE88
 4082 0180 00000000 		.4byte	0
 4083 0184 00000000 		.4byte	0
 4084 0188 18000000 		.4byte	.LBB99
ARM GAS  /tmp/ccuOaQcJ.s 			page 73


 4085 018c 60000000 		.4byte	.LBE99
 4086 0190 64000000 		.4byte	.LBB109
 4087 0194 70000000 		.4byte	.LBE109
 4088 0198 A4000000 		.4byte	.LBB114
 4089 019c B8000000 		.4byte	.LBE114
 4090 01a0 00000000 		.4byte	0
 4091 01a4 00000000 		.4byte	0
 4092 01a8 18000000 		.4byte	.LBB100
 4093 01ac 42000000 		.4byte	.LBE100
 4094 01b0 44000000 		.4byte	.LBB104
 4095 01b4 46000000 		.4byte	.LBE104
 4096 01b8 68000000 		.4byte	.LBB107
 4097 01bc 70000000 		.4byte	.LBE107
 4098 01c0 00000000 		.4byte	0
 4099 01c4 00000000 		.4byte	0
 4100 01c8 18000000 		.4byte	.LBB101
 4101 01cc 42000000 		.4byte	.LBE101
 4102 01d0 44000000 		.4byte	.LBB102
 4103 01d4 46000000 		.4byte	.LBE102
 4104 01d8 68000000 		.4byte	.LBB103
 4105 01dc 70000000 		.4byte	.LBE103
 4106 01e0 00000000 		.4byte	0
 4107 01e4 00000000 		.4byte	0
 4108 01e8 52000000 		.4byte	.LBB105
 4109 01ec 60000000 		.4byte	.LBE105
 4110 01f0 64000000 		.4byte	.LBB106
 4111 01f4 68000000 		.4byte	.LBE106
 4112 01f8 A4000000 		.4byte	.LBB108
 4113 01fc B8000000 		.4byte	.LBE108
 4114 0200 00000000 		.4byte	0
 4115 0204 00000000 		.4byte	0
 4116 0208 70000000 		.4byte	.LBB110
 4117 020c 9A000000 		.4byte	.LBE110
 4118 0210 9C000000 		.4byte	.LBB113
 4119 0214 A4000000 		.4byte	.LBE113
 4120 0218 00000000 		.4byte	0
 4121 021c 00000000 		.4byte	0
 4122 0220 70000000 		.4byte	.LBB111
 4123 0224 9A000000 		.4byte	.LBE111
 4124 0228 9C000000 		.4byte	.LBB112
 4125 022c A4000000 		.4byte	.LBE112
 4126 0230 00000000 		.4byte	0
 4127 0234 00000000 		.4byte	0
 4128 0238 16000000 		.4byte	.LBB120
 4129 023c 56000000 		.4byte	.LBE120
 4130 0240 5A000000 		.4byte	.LBB129
 4131 0244 68000000 		.4byte	.LBE129
 4132 0248 00000000 		.4byte	0
 4133 024c 00000000 		.4byte	0
 4134 0250 16000000 		.4byte	.LBB121
 4135 0254 56000000 		.4byte	.LBE121
 4136 0258 5A000000 		.4byte	.LBB128
 4137 025c 68000000 		.4byte	.LBE128
 4138 0260 00000000 		.4byte	0
 4139 0264 00000000 		.4byte	0
 4140 0268 16000000 		.4byte	.LBB122
 4141 026c 18000000 		.4byte	.LBE122
ARM GAS  /tmp/ccuOaQcJ.s 			page 74


 4142 0270 20000000 		.4byte	.LBB125
 4143 0274 24000000 		.4byte	.LBE125
 4144 0278 00000000 		.4byte	0
 4145 027c 00000000 		.4byte	0
 4146 0280 16000000 		.4byte	.LBB123
 4147 0284 18000000 		.4byte	.LBE123
 4148 0288 20000000 		.4byte	.LBB124
 4149 028c 24000000 		.4byte	.LBE124
 4150 0290 00000000 		.4byte	0
 4151 0294 00000000 		.4byte	0
 4152 0298 42000000 		.4byte	.LBB126
 4153 029c 56000000 		.4byte	.LBE126
 4154 02a0 5A000000 		.4byte	.LBB127
 4155 02a4 68000000 		.4byte	.LBE127
 4156 02a8 00000000 		.4byte	0
 4157 02ac 00000000 		.4byte	0
 4158 02b0 06000000 		.4byte	.LBB135
 4159 02b4 08000000 		.4byte	.LBE135
 4160 02b8 0A000000 		.4byte	.LBB140
 4161 02bc 0C000000 		.4byte	.LBE140
 4162 02c0 0E000000 		.4byte	.LBB141
 4163 02c4 10000000 		.4byte	.LBE141
 4164 02c8 1A000000 		.4byte	.LBB142
 4165 02cc 1C000000 		.4byte	.LBE142
 4166 02d0 00000000 		.4byte	0
 4167 02d4 00000000 		.4byte	0
 4168 02d8 06000000 		.4byte	.LBB136
 4169 02dc 08000000 		.4byte	.LBE136
 4170 02e0 0A000000 		.4byte	.LBB137
 4171 02e4 0C000000 		.4byte	.LBE137
 4172 02e8 0E000000 		.4byte	.LBB138
 4173 02ec 10000000 		.4byte	.LBE138
 4174 02f0 1A000000 		.4byte	.LBB139
 4175 02f4 1C000000 		.4byte	.LBE139
 4176 02f8 00000000 		.4byte	0
 4177 02fc 00000000 		.4byte	0
 4178 0300 1C000000 		.4byte	.LBB143
 4179 0304 48000000 		.4byte	.LBE143
 4180 0308 6A000000 		.4byte	.LBB148
 4181 030c 80000000 		.4byte	.LBE148
 4182 0310 00000000 		.4byte	0
 4183 0314 00000000 		.4byte	0
 4184 0318 1C000000 		.4byte	.LBB144
 4185 031c 48000000 		.4byte	.LBE144
 4186 0320 6A000000 		.4byte	.LBB145
 4187 0324 80000000 		.4byte	.LBE145
 4188 0328 00000000 		.4byte	0
 4189 032c 00000000 		.4byte	0
 4190 0330 4E000000 		.4byte	.LBB146
 4191 0334 62000000 		.4byte	.LBE146
 4192 0338 66000000 		.4byte	.LBB147
 4193 033c 6A000000 		.4byte	.LBE147
 4194 0340 00000000 		.4byte	0
 4195 0344 00000000 		.4byte	0
 4196 0348 06000000 		.4byte	.LBB152
 4197 034c 08000000 		.4byte	.LBE152
 4198 0350 0A000000 		.4byte	.LBB156
ARM GAS  /tmp/ccuOaQcJ.s 			page 75


 4199 0354 0C000000 		.4byte	.LBE156
 4200 0358 0E000000 		.4byte	.LBB157
 4201 035c 12000000 		.4byte	.LBE157
 4202 0360 00000000 		.4byte	0
 4203 0364 00000000 		.4byte	0
 4204 0368 06000000 		.4byte	.LBB153
 4205 036c 08000000 		.4byte	.LBE153
 4206 0370 0A000000 		.4byte	.LBB154
 4207 0374 0C000000 		.4byte	.LBE154
 4208 0378 0E000000 		.4byte	.LBB155
 4209 037c 12000000 		.4byte	.LBE155
 4210 0380 00000000 		.4byte	0
 4211 0384 00000000 		.4byte	0
 4212 0388 38000000 		.4byte	.LBB158
 4213 038c 4C000000 		.4byte	.LBE158
 4214 0390 50000000 		.4byte	.LBB159
 4215 0394 5C000000 		.4byte	.LBE159
 4216 0398 00000000 		.4byte	0
 4217 039c 00000000 		.4byte	0
 4218 03a0 0E000000 		.4byte	.LBB165
 4219 03a4 4E000000 		.4byte	.LBE165
 4220 03a8 52000000 		.4byte	.LBB176
 4221 03ac 5E000000 		.4byte	.LBE176
 4222 03b0 00000000 		.4byte	0
 4223 03b4 00000000 		.4byte	0
 4224 03b8 0E000000 		.4byte	.LBB166
 4225 03bc 4E000000 		.4byte	.LBE166
 4226 03c0 52000000 		.4byte	.LBB175
 4227 03c4 5E000000 		.4byte	.LBE175
 4228 03c8 00000000 		.4byte	0
 4229 03cc 00000000 		.4byte	0
 4230 03d0 0E000000 		.4byte	.LBB167
 4231 03d4 10000000 		.4byte	.LBE167
 4232 03d8 12000000 		.4byte	.LBB171
 4233 03dc 14000000 		.4byte	.LBE171
 4234 03e0 16000000 		.4byte	.LBB172
 4235 03e4 1A000000 		.4byte	.LBE172
 4236 03e8 00000000 		.4byte	0
 4237 03ec 00000000 		.4byte	0
 4238 03f0 0E000000 		.4byte	.LBB168
 4239 03f4 10000000 		.4byte	.LBE168
 4240 03f8 12000000 		.4byte	.LBB169
 4241 03fc 14000000 		.4byte	.LBE169
 4242 0400 16000000 		.4byte	.LBB170
 4243 0404 1A000000 		.4byte	.LBE170
 4244 0408 00000000 		.4byte	0
 4245 040c 00000000 		.4byte	0
 4246 0410 40000000 		.4byte	.LBB173
 4247 0414 4E000000 		.4byte	.LBE173
 4248 0418 52000000 		.4byte	.LBB174
 4249 041c 5E000000 		.4byte	.LBE174
 4250 0420 00000000 		.4byte	0
 4251 0424 00000000 		.4byte	0
 4252 0428 00000000 		.4byte	.LFB10
 4253 042c 84000000 		.4byte	.LFE10
 4254 0430 00000000 		.4byte	.LFB7
 4255 0434 16000000 		.4byte	.LFE7
ARM GAS  /tmp/ccuOaQcJ.s 			page 76


 4256 0438 00000000 		.4byte	.LFB8
 4257 043c 44000000 		.4byte	.LFE8
 4258 0440 00000000 		.4byte	.LFB9
 4259 0444 50000000 		.4byte	.LFE9
 4260 0448 00000000 		.4byte	.LFB11
 4261 044c C8000000 		.4byte	.LFE11
 4262 0450 00000000 		.4byte	.LFB12
 4263 0454 B8000000 		.4byte	.LFE12
 4264 0458 00000000 		.4byte	.LFB13
 4265 045c 68000000 		.4byte	.LFE13
 4266 0460 00000000 		.4byte	.LFB14
 4267 0464 80000000 		.4byte	.LFE14
 4268 0468 00000000 		.4byte	.LFB15
 4269 046c 5C000000 		.4byte	.LFE15
 4270 0470 00000000 		.4byte	.LFB16
 4271 0474 70000000 		.4byte	.LFE16
 4272 0478 00000000 		.4byte	0
 4273 047c 00000000 		.4byte	0
 4274              		.section	.debug_line,"",%progbits
 4275              	.Ldebug_line0:
 4276 0000 98040000 		.section	.debug_str,"MS",%progbits,1
 4276      02008001 
 4276      00000201 
 4276      FB0E0D00 
 4276      01010101 
 4277              	.LASF39:
 4278 0000 705F6D73 		.ascii	"p_msg\000"
 4278      6700
 4279              	.LASF71:
 4280 0006 7264796D 		.ascii	"rdymsg\000"
 4280      736700
 4281              	.LASF11:
 4282 000d 75696E74 		.ascii	"uint64_t\000"
 4282      36345F74 
 4282      00
 4283              	.LASF81:
 4284 0016 63685363 		.ascii	"chSchDoRescheduleAhead\000"
 4284      68446F52 
 4284      65736368 
 4284      6564756C 
 4284      65416865 
 4285              	.LASF12:
 4286 002d 6C6F6E67 		.ascii	"long long unsigned int\000"
 4286      206C6F6E 
 4286      6720756E 
 4286      7369676E 
 4286      65642069 
 4287              	.LASF72:
 4288 0044 65786974 		.ascii	"exitcode\000"
 4288      636F6465 
 4288      00
 4289              	.LASF26:
 4290 004d 705F7072 		.ascii	"p_prio\000"
 4290      696F00
 4291              	.LASF92:
 4292 0054 5F736368 		.ascii	"_scheduler_init\000"
 4292      6564756C 
ARM GAS  /tmp/ccuOaQcJ.s 			page 77


 4292      65725F69 
 4292      6E697400 
 4293              	.LASF10:
 4294 0064 6C6F6E67 		.ascii	"long long int\000"
 4294      206C6F6E 
 4294      6720696E 
 4294      7400
 4295              	.LASF1:
 4296 0072 7369676E 		.ascii	"signed char\000"
 4296      65642063 
 4296      68617200 
 4297              	.LASF43:
 4298 007e 705F6D70 		.ascii	"p_mpool\000"
 4298      6F6F6C00 
 4299              	.LASF68:
 4300 0086 6D5F7175 		.ascii	"m_queue\000"
 4300      65756500 
 4301              	.LASF17:
 4302 008e 74736C69 		.ascii	"tslices_t\000"
 4302      6365735F 
 4302      7400
 4303              	.LASF7:
 4304 0098 6C6F6E67 		.ascii	"long int\000"
 4304      20696E74 
 4304      00
 4305              	.LASF87:
 4306 00a1 474E5520 		.ascii	"GNU C 4.6.2 20120613 (release) [ARM/embedded-4_6-br"
 4306      4320342E 
 4306      362E3220 
 4306      32303132 
 4306      30363133 
 4307 00d4 616E6368 		.ascii	"anch revision 188521]\000"
 4307      20726576 
 4307      6973696F 
 4307      6E203138 
 4307      38353231 
 4308              	.LASF89:
 4309 00ea 2F686F6D 		.ascii	"/home/tino/workspace/openrobots/R2P_IR_module/fw\000"
 4309      652F7469 
 4309      6E6F2F77 
 4309      6F726B73 
 4309      70616365 
 4310              	.LASF15:
 4311 011b 74737461 		.ascii	"tstate_t\000"
 4311      74655F74 
 4311      00
 4312              	.LASF28:
 4313 0124 705F6E65 		.ascii	"p_newer\000"
 4313      77657200 
 4314              	.LASF65:
 4315 012c 735F7175 		.ascii	"s_queue\000"
 4315      65756500 
 4316              	.LASF83:
 4317 0134 63685363 		.ascii	"chSchRescheduleS\000"
 4317      68526573 
 4317      63686564 
 4317      756C6553 
ARM GAS  /tmp/ccuOaQcJ.s 			page 78


 4317      00
 4318              	.LASF60:
 4319 0145 725F6E65 		.ascii	"r_newer\000"
 4319      77657200 
 4320              	.LASF46:
 4321 014d 72656761 		.ascii	"regarm_t\000"
 4321      726D5F74 
 4321      00
 4322              	.LASF53:
 4323 0156 76745F70 		.ascii	"vt_prev\000"
 4323      72657600 
 4324              	.LASF85:
 4325 015e 63685363 		.ascii	"chSchDoReschedule\000"
 4325      68446F52 
 4325      65736368 
 4325      6564756C 
 4325      6500
 4326              	.LASF22:
 4327 0170 636E745F 		.ascii	"cnt_t\000"
 4327      7400
 4328              	.LASF31:
 4329 0176 705F7374 		.ascii	"p_stklimit\000"
 4329      6B6C696D 
 4329      697400
 4330              	.LASF0:
 4331 0181 756E7369 		.ascii	"unsigned int\000"
 4331      676E6564 
 4331      20696E74 
 4331      00
 4332              	.LASF90:
 4333 018e 77616B65 		.ascii	"wakeup\000"
 4333      757000
 4334              	.LASF52:
 4335 0195 76745F6E 		.ascii	"vt_next\000"
 4335      65787400 
 4336              	.LASF9:
 4337 019d 6C6F6E67 		.ascii	"long unsigned int\000"
 4337      20756E73 
 4337      69676E65 
 4337      6420696E 
 4337      7400
 4338              	.LASF66:
 4339 01af 735F636E 		.ascii	"s_cnt\000"
 4339      7400
 4340              	.LASF49:
 4341 01b5 636F6E74 		.ascii	"context\000"
 4341      65787400 
 4342              	.LASF4:
 4343 01bd 73686F72 		.ascii	"short unsigned int\000"
 4343      7420756E 
 4343      7369676E 
 4343      65642069 
 4343      6E7400
 4344              	.LASF82:
 4345 01d0 63685363 		.ascii	"chSchWakeupS\000"
 4345      6857616B 
 4345      65757053 
ARM GAS  /tmp/ccuOaQcJ.s 			page 79


 4345      00
 4346              	.LASF19:
 4347 01dd 6D73675F 		.ascii	"msg_t\000"
 4347      7400
 4348              	.LASF14:
 4349 01e3 746D6F64 		.ascii	"tmode_t\000"
 4349      655F7400 
 4350              	.LASF45:
 4351 01eb 54687265 		.ascii	"ThreadsList\000"
 4351      6164734C 
 4351      69737400 
 4352              	.LASF20:
 4353 01f7 6576656E 		.ascii	"eventmask_t\000"
 4353      746D6173 
 4353      6B5F7400 
 4354              	.LASF67:
 4355 0203 4D757465 		.ascii	"Mutex\000"
 4355      7800
 4356              	.LASF47:
 4357 0209 73746B61 		.ascii	"stkalign_t\000"
 4357      6C69676E 
 4357      5F7400
 4358              	.LASF54:
 4359 0214 76745F74 		.ascii	"vt_time\000"
 4359      696D6500 
 4360              	.LASF55:
 4361 021c 76745F66 		.ascii	"vt_func\000"
 4361      756E6300 
 4362              	.LASF84:
 4363 0224 63685363 		.ascii	"chSchDoRescheduleBehind\000"
 4363      68446F52 
 4363      65736368 
 4363      6564756C 
 4363      65426568 
 4364              	.LASF29:
 4365 023c 705F6F6C 		.ascii	"p_older\000"
 4365      64657200 
 4366              	.LASF59:
 4367 0244 725F6374 		.ascii	"r_ctx\000"
 4367      7800
 4368              	.LASF44:
 4369 024a 54687265 		.ascii	"ThreadsQueue\000"
 4369      61647351 
 4369      75657565 
 4369      00
 4370              	.LASF76:
 4371 0257 64657175 		.ascii	"dequeue\000"
 4371      65756500 
 4372              	.LASF62:
 4373 025f 725F6375 		.ascii	"r_current\000"
 4373      7272656E 
 4373      7400
 4374              	.LASF61:
 4375 0269 725F6F6C 		.ascii	"r_older\000"
 4375      64657200 
 4376              	.LASF88:
 4377 0271 2E2E2F2E 		.ascii	"../../ChibiOS/os/kernel/src/chschd.c\000"
ARM GAS  /tmp/ccuOaQcJ.s 			page 80


 4377      2E2F4368 
 4377      6962694F 
 4377      532F6F73 
 4377      2F6B6572 
 4378              	.LASF16:
 4379 0296 74726566 		.ascii	"trefs_t\000"
 4379      735F7400 
 4380              	.LASF25:
 4381 029e 705F7072 		.ascii	"p_prev\000"
 4381      657600
 4382              	.LASF18:
 4383 02a5 74707269 		.ascii	"tprio_t\000"
 4383      6F5F7400 
 4384              	.LASF13:
 4385 02ad 5F426F6F 		.ascii	"_Bool\000"
 4385      6C00
 4386              	.LASF6:
 4387 02b3 696E7433 		.ascii	"int32_t\000"
 4387      325F7400 
 4388              	.LASF2:
 4389 02bb 756E7369 		.ascii	"unsigned char\000"
 4389      676E6564 
 4389      20636861 
 4389      7200
 4390              	.LASF78:
 4391 02c9 6E657773 		.ascii	"newstate\000"
 4391      74617465 
 4391      00
 4392              	.LASF41:
 4393 02d2 705F6D74 		.ascii	"p_mtxlist\000"
 4393      786C6973 
 4393      7400
 4394              	.LASF3:
 4395 02dc 73686F72 		.ascii	"short int\000"
 4395      7420696E 
 4395      7400
 4396              	.LASF32:
 4397 02e6 705F7374 		.ascii	"p_state\000"
 4397      61746500 
 4398              	.LASF35:
 4399 02ee 705F7072 		.ascii	"p_preempt\000"
 4399      65656D70 
 4399      7400
 4400              	.LASF58:
 4401 02f8 725F7072 		.ascii	"r_prio\000"
 4401      696F00
 4402              	.LASF74:
 4403 02ff 65776D61 		.ascii	"ewmask\000"
 4403      736B00
 4404              	.LASF24:
 4405 0306 705F6E65 		.ascii	"p_next\000"
 4405      787400
 4406              	.LASF33:
 4407 030d 705F666C 		.ascii	"p_flags\000"
 4407      61677300 
 4408              	.LASF23:
 4409 0315 54687265 		.ascii	"Thread\000"
ARM GAS  /tmp/ccuOaQcJ.s 			page 81


 4409      616400
 4410              	.LASF80:
 4411 031c 63685363 		.ascii	"chSchGoSleepS\000"
 4411      68476F53 
 4411      6C656570 
 4411      5300
 4412              	.LASF40:
 4413 032a 705F6570 		.ascii	"p_epending\000"
 4413      656E6469 
 4413      6E6700
 4414              	.LASF8:
 4415 0335 75696E74 		.ascii	"uint32_t\000"
 4415      33325F74 
 4415      00
 4416              	.LASF57:
 4417 033e 725F7175 		.ascii	"r_queue\000"
 4417      65756500 
 4418              	.LASF51:
 4419 0346 56697274 		.ascii	"VirtualTimer\000"
 4419      75616C54 
 4419      696D6572 
 4419      00
 4420              	.LASF75:
 4421 0353 63686172 		.ascii	"char\000"
 4421      00
 4422              	.LASF77:
 4423 0358 6669666F 		.ascii	"fifo_remove\000"
 4423      5F72656D 
 4423      6F766500 
 4424              	.LASF91:
 4425 0364 63685363 		.ascii	"chSchReadyI\000"
 4425      68526561 
 4425      64794900 
 4426              	.LASF70:
 4427 0370 6D5F6E65 		.ascii	"m_next\000"
 4427      787400
 4428              	.LASF21:
 4429 0377 73797374 		.ascii	"systime_t\000"
 4429      696D655F 
 4429      7400
 4430              	.LASF42:
 4431 0381 705F7265 		.ascii	"p_realprio\000"
 4431      616C7072 
 4431      696F00
 4432              	.LASF50:
 4433 038c 76746675 		.ascii	"vtfunc_t\000"
 4433      6E635F74 
 4433      00
 4434              	.LASF36:
 4435 0395 705F7469 		.ascii	"p_time\000"
 4435      6D6500
 4436              	.LASF48:
 4437 039c 696E7463 		.ascii	"intctx\000"
 4437      747800
 4438              	.LASF38:
 4439 03a3 705F6D73 		.ascii	"p_msgqueue\000"
 4439      67717565 
ARM GAS  /tmp/ccuOaQcJ.s 			page 82


 4439      756500
 4440              	.LASF79:
 4441 03ae 74696D65 		.ascii	"time\000"
 4441      00
 4442              	.LASF56:
 4443 03b3 76745F70 		.ascii	"vt_par\000"
 4443      617200
 4444              	.LASF64:
 4445 03ba 53656D61 		.ascii	"Semaphore\000"
 4445      70686F72 
 4445      6500
 4446              	.LASF34:
 4447 03c4 705F7265 		.ascii	"p_refs\000"
 4447      667300
 4448              	.LASF63:
 4449 03cb 52656164 		.ascii	"ReadyList\000"
 4449      794C6973 
 4449      7400
 4450              	.LASF86:
 4451 03d5 726C6973 		.ascii	"rlist\000"
 4451      7400
 4452              	.LASF5:
 4453 03db 75696E74 		.ascii	"uint8_t\000"
 4453      385F7400 
 4454              	.LASF73:
 4455 03e3 77746F62 		.ascii	"wtobjp\000"
 4455      6A7000
 4456              	.LASF30:
 4457 03ea 705F6E61 		.ascii	"p_name\000"
 4457      6D6500
 4458              	.LASF93:
 4459 03f1 63685363 		.ascii	"chSchGoSleepTimeoutS\000"
 4459      68476F53 
 4459      6C656570 
 4459      54696D65 
 4459      6F757453 
 4460              	.LASF69:
 4461 0406 6D5F6F77 		.ascii	"m_owner\000"
 4461      6E657200 
 4462              	.LASF27:
 4463 040e 705F6374 		.ascii	"p_ctx\000"
 4463      7800
 4464              	.LASF37:
 4465 0414 705F7761 		.ascii	"p_waiting\000"
 4465      6974696E 
 4465      6700
 4466              		.ident	"GCC: (GNU Tools for ARM Embedded Processors) 4.6.2 20120613 (release) [ARM/embedded-4_6-br
ARM GAS  /tmp/ccuOaQcJ.s 			page 83


DEFINED SYMBOLS
                            *ABS*:00000000 chschd.c
     /tmp/ccuOaQcJ.s:19     .text.wakeup:00000000 $t
     /tmp/ccuOaQcJ.s:24     .text.wakeup:00000000 wakeup
     /tmp/ccuOaQcJ.s:61     .text.wakeup:0000001a $d
     /tmp/ccuOaQcJ.s:75     .text.wakeup:00000028 $t
     /tmp/ccuOaQcJ.s:158    .text.wakeup:0000007c $d
     /tmp/ccuOaQcJ.s:165    .text._scheduler_init:00000000 $t
     /tmp/ccuOaQcJ.s:171    .text._scheduler_init:00000000 _scheduler_init
     /tmp/ccuOaQcJ.s:1272   .bss.rlist:00000000 .LANCHOR0
     /tmp/ccuOaQcJ.s:197    .text.chSchReadyI:00000000 $t
     /tmp/ccuOaQcJ.s:203    .text.chSchReadyI:00000000 chSchReadyI
     /tmp/ccuOaQcJ.s:264    .text.chSchReadyI:0000003c $d
     /tmp/ccuOaQcJ.s:270    .text.chSchGoSleepS:00000000 $t
     /tmp/ccuOaQcJ.s:276    .text.chSchGoSleepS:00000000 chSchGoSleepS
     /tmp/ccuOaQcJ.s:363    .text.chSchGoSleepS:00000048 $d
     /tmp/ccuOaQcJ.s:370    .text.chSchGoSleepTimeoutS:00000000 $t
     /tmp/ccuOaQcJ.s:376    .text.chSchGoSleepTimeoutS:00000000 chSchGoSleepTimeoutS
     /tmp/ccuOaQcJ.s:575    .text.chSchGoSleepTimeoutS:000000bc $d
     /tmp/ccuOaQcJ.s:585    .text.chSchWakeupS:00000000 $t
     /tmp/ccuOaQcJ.s:591    .text.chSchWakeupS:00000000 chSchWakeupS
     /tmp/ccuOaQcJ.s:772    .text.chSchWakeupS:000000ac $d
     /tmp/ccuOaQcJ.s:781    .text.chSchRescheduleS:00000000 $t
     /tmp/ccuOaQcJ.s:787    .text.chSchRescheduleS:00000000 chSchRescheduleS
     /tmp/ccuOaQcJ.s:882    .text.chSchRescheduleS:00000060 $d
     /tmp/ccuOaQcJ.s:891    .text.chSchDoRescheduleBehind:00000000 $t
     /tmp/ccuOaQcJ.s:897    .text.chSchDoRescheduleBehind:00000000 chSchDoRescheduleBehind
     /tmp/ccuOaQcJ.s:1022   .text.chSchDoRescheduleBehind:00000074 $d
     /tmp/ccuOaQcJ.s:1031   .text.chSchDoRescheduleAhead:00000000 $t
     /tmp/ccuOaQcJ.s:1037   .text.chSchDoRescheduleAhead:00000000 chSchDoRescheduleAhead
     /tmp/ccuOaQcJ.s:1132   .text.chSchDoRescheduleAhead:00000054 $d
     /tmp/ccuOaQcJ.s:1139   .text.chSchDoReschedule:00000000 $t
     /tmp/ccuOaQcJ.s:1145   .text.chSchDoReschedule:00000000 chSchDoReschedule
     /tmp/ccuOaQcJ.s:1257   .text.chSchDoReschedule:00000068 $d
     /tmp/ccuOaQcJ.s:1275   .bss.rlist:00000000 rlist
     /tmp/ccuOaQcJ.s:1264   .rodata.str1.4:00000000 $d
     /tmp/ccuOaQcJ.s:1271   .bss.rlist:00000000 $d
                     .debug_frame:00000010 $d
     /tmp/ccuOaQcJ.s:164    .text.wakeup:00000084 $t
     /tmp/ccuOaQcJ.s:269    .text.chSchReadyI:00000044 $t
     /tmp/ccuOaQcJ.s:584    .text.chSchGoSleepTimeoutS:000000c8 $t
     /tmp/ccuOaQcJ.s:780    .text.chSchWakeupS:000000b8 $t
     /tmp/ccuOaQcJ.s:890    .text.chSchRescheduleS:00000068 $t
     /tmp/ccuOaQcJ.s:1138   .text.chSchDoRescheduleAhead:0000005c $t

UNDEFINED SYMBOLS
dbg_check_lock_from_isr
chDbgCheckClassI
chDbgPanic
dbg_check_unlock_from_isr
chDbgCheckClassS
dbg_trace
_port_switch
chVTSetI
chVTResetI
