ARM GAS  /tmp/cc27QMOZ.s 			page 1


   1              		.syntax unified
   2              		.cpu cortex-m3
   3              		.fpu softvfp
   4              		.eabi_attribute 20, 1
   5              		.eabi_attribute 21, 1
   6              		.eabi_attribute 23, 3
   7              		.eabi_attribute 24, 1
   8              		.eabi_attribute 25, 1
   9              		.eabi_attribute 26, 1
  10              		.eabi_attribute 30, 2
  11              		.eabi_attribute 34, 1
  12              		.eabi_attribute 18, 4
  13              		.thumb
  14              		.file	"chsem.c"
  15              		.text
  16              	.Ltext0:
  17              		.cfi_sections	.debug_frame
  18              		.section	.text.chSemInit,"ax",%progbits
  19              		.align	2
  20              		.p2align 4,,15
  21              		.global	chSemInit
  22              		.thumb
  23              		.thumb_func
  24              		.type	chSemInit, %function
  25              	chSemInit:
  26              	.LFB7:
  27              		.file 1 "../../ChibiOS/os/kernel/src/chsem.c"
  28              		.loc 1 79 0
  29              		.cfi_startproc
  30              		@ args = 0, pretend = 0, frame = 0
  31              		@ frame_needed = 0, uses_anonymous_args = 0
  32              	.LVL0:
  33 0000 38B5     		push	{r3, r4, r5, lr}
  34              	.LCFI0:
  35              		.cfi_def_cfa_offset 16
  36              		.cfi_offset 14, -4
  37              		.cfi_offset 5, -8
  38              		.cfi_offset 4, -12
  39              		.cfi_offset 3, -16
  40              		.loc 1 79 0
  41 0002 0446     		mov	r4, r0
  42 0004 0D46     		mov	r5, r1
  43              		.loc 1 81 0
  44 0006 28B1     		cbz	r0, .L2
  45              		.loc 1 81 0 is_stmt 0 discriminator 2
  46 0008 0029     		cmp	r1, #0
  47 000a 03DB     		blt	.L2
  48              		.loc 1 83 0 is_stmt 1
  49 000c 6460     		str	r4, [r4, #4]
  50 000e 2460     		str	r4, [r4, #0]
  51              		.loc 1 84 0
  52 0010 A560     		str	r5, [r4, #8]
  53              		.loc 1 85 0
  54 0012 38BD     		pop	{r3, r4, r5, pc}
  55              	.L2:
  56              		.loc 1 81 0 discriminator 1
  57 0014 0348     		ldr	r0, .L5
ARM GAS  /tmp/cc27QMOZ.s 			page 2


  58              	.LVL1:
  59 0016 FFF7FEFF 		bl	chDbgPanic
  60              	.LVL2:
  61              		.loc 1 83 0 discriminator 1
  62 001a 6460     		str	r4, [r4, #4]
  63 001c 2460     		str	r4, [r4, #0]
  64              		.loc 1 84 0 discriminator 1
  65 001e A560     		str	r5, [r4, #8]
  66              		.loc 1 85 0 discriminator 1
  67 0020 38BD     		pop	{r3, r4, r5, pc}
  68              	.L6:
  69 0022 00BF     		.align	2
  70              	.L5:
  71 0024 00000000 		.word	.LC0
  72              		.cfi_endproc
  73              	.LFE7:
  74              		.size	chSemInit, .-chSemInit
  75 0028 AFF30080 		.section	.text.chSemResetI,"ax",%progbits
  75      AFF30080 
  76              		.align	2
  77              		.p2align 4,,15
  78              		.global	chSemResetI
  79              		.thumb
  80              		.thumb_func
  81              		.type	chSemResetI, %function
  82              	chSemResetI:
  83              	.LFB9:
  84              		.loc 1 129 0
  85              		.cfi_startproc
  86              		@ args = 0, pretend = 0, frame = 0
  87              		@ frame_needed = 0, uses_anonymous_args = 0
  88              	.LVL3:
  89 0000 F8B5     		push	{r3, r4, r5, r6, r7, lr}
  90              	.LCFI1:
  91              		.cfi_def_cfa_offset 24
  92              		.cfi_offset 14, -4
  93              		.cfi_offset 7, -8
  94              		.cfi_offset 6, -12
  95              		.cfi_offset 5, -16
  96              		.cfi_offset 4, -20
  97              		.cfi_offset 3, -24
  98              		.loc 1 129 0
  99 0002 0446     		mov	r4, r0
 100 0004 0E46     		mov	r6, r1
 101              		.loc 1 132 0
 102 0006 FFF7FEFF 		bl	chDbgCheckClassI
 103              	.LVL4:
 104              		.loc 1 133 0
 105 000a 002C     		cmp	r4, #0
 106 000c 3ED0     		beq	.L8
 107              		.loc 1 133 0 is_stmt 0 discriminator 2
 108 000e 002E     		cmp	r6, #0
 109 0010 3CDB     		blt	.L8
 110              	.L9:
 111              		.loc 1 134 0 is_stmt 1
 112 0012 A568     		ldr	r5, [r4, #8]
 113 0014 2368     		ldr	r3, [r4, #0]
ARM GAS  /tmp/cc27QMOZ.s 			page 3


 114 0016 002D     		cmp	r5, #0
 115 0018 35DB     		blt	.L10
 116              		.loc 1 134 0 is_stmt 0 discriminator 2
 117 001a A342     		cmp	r3, r4
 118 001c 03D0     		beq	.L12
 119              	.L11:
 120              		.loc 1 134 0 discriminator 3
 121 001e 1E48     		ldr	r0, .L24
 122 0020 FFF7FEFF 		bl	chDbgPanic
 123 0024 A568     		ldr	r5, [r4, #8]
 124              	.L12:
 125              	.LVL5:
 126              		.loc 1 141 0 is_stmt 1
 127 0026 0135     		adds	r5, r5, #1
 128              	.LVL6:
 129 0028 002D     		cmp	r5, #0
 130              		.loc 1 140 0
 131 002a A660     		str	r6, [r4, #8]
 132              	.LVL7:
 133              		.loc 1 141 0
 134 002c 2ADC     		bgt	.L7
 135              	.LBB24:
 136              	.LBB25:
 137              		.file 2 "../../ChibiOS/os/kernel/include/chinline.h"
 138              		.loc 2 60 0
 139 002e 6068     		ldr	r0, [r4, #4]
 140              	.LBE25:
 141              	.LBE24:
 142              		.loc 1 142 0
 143 0030 6FF00107 		mvn	r7, #1
 144              	.LBB34:
 145              	.LBB26:
 146              		.loc 2 62 0
 147 0034 4368     		ldr	r3, [r0, #4]
 148              	.LBE26:
 149              	.LBE34:
 150              		.loc 1 141 0
 151 0036 6E1C     		adds	r6, r5, #1
 152              	.LVL8:
 153              	.LBB35:
 154              	.LBB27:
 155              		.loc 2 62 0
 156 0038 6360     		str	r3, [r4, #4]
 157 003a 1C60     		str	r4, [r3, #0]
 158              	.LBE27:
 159              	.LBE35:
 160              		.loc 1 142 0
 161 003c FFF7FEFF 		bl	chSchReadyI
 162              	.LVL9:
 163 0040 05F00103 		and	r3, r5, #1
 164              	.LVL10:
 165 0044 8762     		str	r7, [r0, #40]
 166              		.loc 1 141 0
 167 0046 002D     		cmp	r5, #0
 168 0048 24D0     		beq	.L22
 169 004a 4BB1     		cbz	r3, .L15
 170              	.LBB36:
ARM GAS  /tmp/cc27QMOZ.s 			page 4


 171              	.LBB28:
 172              		.loc 2 60 0
 173 004c 6068     		ldr	r0, [r4, #4]
 174              	.LVL11:
 175              	.LBE28:
 176              	.LBE36:
 177              		.loc 1 141 0
 178 004e 0136     		adds	r6, r6, #1
 179              	.LBB37:
 180              	.LBB29:
 181              		.loc 2 62 0
 182 0050 4368     		ldr	r3, [r0, #4]
 183 0052 6360     		str	r3, [r4, #4]
 184 0054 1C60     		str	r4, [r3, #0]
 185              	.LBE29:
 186              	.LBE37:
 187              		.loc 1 142 0
 188 0056 FFF7FEFF 		bl	chSchReadyI
 189              		.loc 1 141 0
 190 005a 012E     		cmp	r6, #1
 191              		.loc 1 142 0
 192 005c 8762     		str	r7, [r0, #40]
 193              	.LVL12:
 194              		.loc 1 141 0
 195 005e 1AD0     		beq	.L23
 196              	.L15:
 197              	.LBB38:
 198              	.LBB30:
 199              		.loc 2 60 0
 200 0060 6068     		ldr	r0, [r4, #4]
 201              	.LBE30:
 202              	.LBE38:
 203              		.loc 1 141 0
 204 0062 751C     		adds	r5, r6, #1
 205              	.LBB39:
 206              	.LBB31:
 207              		.loc 2 62 0
 208 0064 4268     		ldr	r2, [r0, #4]
 209              	.LBE31:
 210              	.LBE39:
 211              		.loc 1 141 0
 212 0066 0236     		adds	r6, r6, #2
 213              	.LBB40:
 214              	.LBB32:
 215              		.loc 2 62 0
 216 0068 6260     		str	r2, [r4, #4]
 217 006a 1460     		str	r4, [r2, #0]
 218              	.LBE32:
 219              	.LBE40:
 220              		.loc 1 142 0
 221 006c FFF7FEFF 		bl	chSchReadyI
 222 0070 8762     		str	r7, [r0, #40]
 223              	.LBB41:
 224              	.LBB33:
 225              		.loc 2 60 0
 226 0072 6068     		ldr	r0, [r4, #4]
 227              		.loc 2 62 0
ARM GAS  /tmp/cc27QMOZ.s 			page 5


 228 0074 4168     		ldr	r1, [r0, #4]
 229 0076 6160     		str	r1, [r4, #4]
 230 0078 0C60     		str	r4, [r1, #0]
 231              	.LBE33:
 232              	.LBE41:
 233              		.loc 1 142 0
 234 007a FFF7FEFF 		bl	chSchReadyI
 235 007e 8762     		str	r7, [r0, #40]
 236              		.loc 1 141 0
 237 0080 002D     		cmp	r5, #0
 238 0082 EDD1     		bne	.L15
 239              	.LVL13:
 240              	.L7:
 241 0084 F8BD     		pop	{r3, r4, r5, r6, r7, pc}
 242              	.LVL14:
 243              	.L10:
 244              		.loc 1 134 0 discriminator 4
 245 0086 A342     		cmp	r3, r4
 246 0088 CDD1     		bne	.L12
 247 008a C8E7     		b	.L11
 248              	.L8:
 249              		.loc 1 133 0 discriminator 1
 250 008c 0348     		ldr	r0, .L24+4
 251 008e FFF7FEFF 		bl	chDbgPanic
 252 0092 BEE7     		b	.L9
 253              	.LVL15:
 254              	.L22:
 255 0094 F8BD     		pop	{r3, r4, r5, r6, r7, pc}
 256              	.LVL16:
 257              	.L23:
 258 0096 F8BD     		pop	{r3, r4, r5, r6, r7, pc}
 259              	.L25:
 260              		.align	2
 261              	.L24:
 262 0098 20000000 		.word	.LC2
 263 009c 10000000 		.word	.LC1
 264              		.cfi_endproc
 265              	.LFE9:
 266              		.size	chSemResetI, .-chSemResetI
 267              		.section	.text.chSemReset,"ax",%progbits
 268              		.align	2
 269              		.p2align 4,,15
 270              		.global	chSemReset
 271              		.thumb
 272              		.thumb_func
 273              		.type	chSemReset, %function
 274              	chSemReset:
 275              	.LFB8:
 276              		.loc 1 102 0
 277              		.cfi_startproc
 278              		@ args = 0, pretend = 0, frame = 0
 279              		@ frame_needed = 0, uses_anonymous_args = 0
 280              	.LVL17:
 281 0000 38B5     		push	{r3, r4, r5, lr}
 282              	.LCFI2:
 283              		.cfi_def_cfa_offset 16
 284              		.cfi_offset 14, -4
ARM GAS  /tmp/cc27QMOZ.s 			page 6


 285              		.cfi_offset 5, -8
 286              		.cfi_offset 4, -12
 287              		.cfi_offset 3, -16
 288              		.loc 1 102 0
 289 0002 0546     		mov	r5, r0
 290 0004 0C46     		mov	r4, r1
 291              	.LBB42:
 292              		.loc 1 104 0
 293 0006 2023     		movs	r3, #32
 294              	.LVL18:
 295              	@ 104 "../../ChibiOS/os/kernel/src/chsem.c" 1
 296 0008 83F31188 		msr     BASEPRI, r3
 297              	@ 0 "" 2
 298              	.LVL19:
 299              		.thumb
 300              	.LBE42:
 301 000c FFF7FEFF 		bl	dbg_check_lock
 302              	.LVL20:
 303              		.loc 1 105 0
 304 0010 2846     		mov	r0, r5
 305 0012 2146     		mov	r1, r4
 306 0014 FFF7FEFF 		bl	chSemResetI
 307              		.loc 1 106 0
 308 0018 FFF7FEFF 		bl	chSchRescheduleS
 309              		.loc 1 107 0
 310 001c FFF7FEFF 		bl	dbg_check_unlock
 311              	.LBB43:
 312 0020 0023     		movs	r3, #0
 313              	.LVL21:
 314              	@ 107 "../../ChibiOS/os/kernel/src/chsem.c" 1
 315 0022 83F31188 		msr     BASEPRI, r3
 316              	@ 0 "" 2
 317              	.LVL22:
 318              		.thumb
 319              	.LBE43:
 320              		.loc 1 108 0
 321 0026 38BD     		pop	{r3, r4, r5, pc}
 322              		.cfi_endproc
 323              	.LFE8:
 324              		.size	chSemReset, .-chSemReset
 325 0028 AFF30080 		.section	.text.chSemWaitS,"ax",%progbits
 325      AFF30080 
 326              		.align	2
 327              		.p2align 4,,15
 328              		.global	chSemWaitS
 329              		.thumb
 330              		.thumb_func
 331              		.type	chSemWaitS, %function
 332              	chSemWaitS:
 333              	.LFB11:
 334              		.loc 1 178 0
 335              		.cfi_startproc
 336              		@ args = 0, pretend = 0, frame = 0
 337              		@ frame_needed = 0, uses_anonymous_args = 0
 338              	.LVL23:
 339 0000 38B5     		push	{r3, r4, r5, lr}
 340              	.LCFI3:
ARM GAS  /tmp/cc27QMOZ.s 			page 7


 341              		.cfi_def_cfa_offset 16
 342              		.cfi_offset 14, -4
 343              		.cfi_offset 5, -8
 344              		.cfi_offset 4, -12
 345              		.cfi_offset 3, -16
 346              		.loc 1 178 0
 347 0002 0446     		mov	r4, r0
 348              		.loc 1 180 0
 349 0004 FFF7FEFF 		bl	chDbgCheckClassS
 350              	.LVL24:
 351              		.loc 1 181 0
 352 0008 002C     		cmp	r4, #0
 353 000a 23D0     		beq	.L35
 354              	.L28:
 355              		.loc 1 182 0
 356 000c A368     		ldr	r3, [r4, #8]
 357 000e 2268     		ldr	r2, [r4, #0]
 358 0010 002B     		cmp	r3, #0
 359 0012 0BDB     		blt	.L29
 360              		.loc 1 182 0 is_stmt 0 discriminator 2
 361 0014 A242     		cmp	r2, r4
 362 0016 03D0     		beq	.L31
 363              	.L30:
 364              		.loc 1 182 0 discriminator 3
 365 0018 1048     		ldr	r0, .L37
 366 001a FFF7FEFF 		bl	chDbgPanic
 367 001e A368     		ldr	r3, [r4, #8]
 368              	.L31:
 369              		.loc 1 187 0 is_stmt 1
 370 0020 013B     		subs	r3, r3, #1
 371 0022 002B     		cmp	r3, #0
 372 0024 A360     		str	r3, [r4, #8]
 373 0026 07DB     		blt	.L36
 374              	.L33:
 375              		.loc 1 193 0
 376 0028 0020     		movs	r0, #0
 377              		.loc 1 194 0
 378 002a 38BD     		pop	{r3, r4, r5, pc}
 379              	.L29:
 380              		.loc 1 182 0 discriminator 4
 381 002c A242     		cmp	r2, r4
 382 002e F3D0     		beq	.L30
 383              		.loc 1 187 0
 384 0030 013B     		subs	r3, r3, #1
 385 0032 002B     		cmp	r3, #0
 386 0034 A360     		str	r3, [r4, #8]
 387 0036 F7DA     		bge	.L33
 388              	.L36:
 389              		.loc 1 188 0
 390 0038 094D     		ldr	r5, .L37+4
 391              		.loc 1 190 0
 392 003a 0320     		movs	r0, #3
 393              		.loc 1 188 0
 394 003c A969     		ldr	r1, [r5, #24]
 395 003e 8C62     		str	r4, [r1, #40]
 396              	.LVL25:
 397              	.LBB44:
ARM GAS  /tmp/cc27QMOZ.s 			page 8


 398              	.LBB45:
 399              		.loc 2 48 0
 400 0040 6268     		ldr	r2, [r4, #4]
 401              		.loc 2 47 0
 402 0042 0C60     		str	r4, [r1, #0]
 403              		.loc 2 48 0
 404 0044 4A60     		str	r2, [r1, #4]
 405              		.loc 2 49 0
 406 0046 6160     		str	r1, [r4, #4]
 407 0048 1160     		str	r1, [r2, #0]
 408              	.LBE45:
 409              	.LBE44:
 410              		.loc 1 190 0
 411 004a FFF7FEFF 		bl	chSchGoSleepS
 412              	.LVL26:
 413              		.loc 1 191 0
 414 004e A869     		ldr	r0, [r5, #24]
 415 0050 806A     		ldr	r0, [r0, #40]
 416 0052 38BD     		pop	{r3, r4, r5, pc}
 417              	.LVL27:
 418              	.L35:
 419              		.loc 1 181 0 discriminator 1
 420 0054 0348     		ldr	r0, .L37+8
 421 0056 FFF7FEFF 		bl	chDbgPanic
 422 005a D7E7     		b	.L28
 423              	.L38:
 424              		.align	2
 425              	.L37:
 426 005c 44000000 		.word	.LC4
 427 0060 00000000 		.word	rlist
 428 0064 34000000 		.word	.LC3
 429              		.cfi_endproc
 430              	.LFE11:
 431              		.size	chSemWaitS, .-chSemWaitS
 432 0068 AFF30080 		.section	.text.chSemWait,"ax",%progbits
 432      AFF30080 
 433              		.align	2
 434              		.p2align 4,,15
 435              		.global	chSemWait
 436              		.thumb
 437              		.thumb_func
 438              		.type	chSemWait, %function
 439              	chSemWait:
 440              	.LFB10:
 441              		.loc 1 157 0
 442              		.cfi_startproc
 443              		@ args = 0, pretend = 0, frame = 0
 444              		@ frame_needed = 0, uses_anonymous_args = 0
 445              	.LVL28:
 446 0000 10B5     		push	{r4, lr}
 447              	.LCFI4:
 448              		.cfi_def_cfa_offset 8
 449              		.cfi_offset 14, -4
 450              		.cfi_offset 4, -8
 451              	.LBB46:
 452              		.loc 1 160 0
 453 0002 2023     		movs	r3, #32
ARM GAS  /tmp/cc27QMOZ.s 			page 9


 454              	.LVL29:
 455              	.LBE46:
 456              		.loc 1 157 0
 457 0004 0446     		mov	r4, r0
 458              	.LBB47:
 459              		.loc 1 160 0
 460              	@ 160 "../../ChibiOS/os/kernel/src/chsem.c" 1
 461 0006 83F31188 		msr     BASEPRI, r3
 462              	@ 0 "" 2
 463              	.LVL30:
 464              		.thumb
 465              	.LBE47:
 466 000a FFF7FEFF 		bl	dbg_check_lock
 467              	.LVL31:
 468              		.loc 1 161 0
 469 000e 2046     		mov	r0, r4
 470 0010 FFF7FEFF 		bl	chSemWaitS
 471 0014 0446     		mov	r4, r0
 472              	.LVL32:
 473              		.loc 1 162 0
 474 0016 FFF7FEFF 		bl	dbg_check_unlock
 475              	.LVL33:
 476              	.LBB48:
 477 001a 0023     		movs	r3, #0
 478              	.LVL34:
 479              	@ 162 "../../ChibiOS/os/kernel/src/chsem.c" 1
 480 001c 83F31188 		msr     BASEPRI, r3
 481              	@ 0 "" 2
 482              	.LVL35:
 483              		.thumb
 484              	.LBE48:
 485              		.loc 1 164 0
 486 0020 2046     		mov	r0, r4
 487 0022 10BD     		pop	{r4, pc}
 488              		.cfi_endproc
 489              	.LFE10:
 490              		.size	chSemWait, .-chSemWait
 491 0024 AFF30080 		.section	.text.chSemWaitTimeoutS,"ax",%progbits
 491      AFF30080 
 491      AFF30080 
 492              		.align	2
 493              		.p2align 4,,15
 494              		.global	chSemWaitTimeoutS
 495              		.thumb
 496              		.thumb_func
 497              		.type	chSemWaitTimeoutS, %function
 498              	chSemWaitTimeoutS:
 499              	.LFB13:
 500              		.loc 1 243 0
 501              		.cfi_startproc
 502              		@ args = 0, pretend = 0, frame = 0
 503              		@ frame_needed = 0, uses_anonymous_args = 0
 504              	.LVL36:
 505 0000 38B5     		push	{r3, r4, r5, lr}
 506              	.LCFI5:
 507              		.cfi_def_cfa_offset 16
 508              		.cfi_offset 14, -4
ARM GAS  /tmp/cc27QMOZ.s 			page 10


 509              		.cfi_offset 5, -8
 510              		.cfi_offset 4, -12
 511              		.cfi_offset 3, -16
 512              		.loc 1 243 0
 513 0002 0446     		mov	r4, r0
 514 0004 0D46     		mov	r5, r1
 515              		.loc 1 245 0
 516 0006 FFF7FEFF 		bl	chDbgCheckClassS
 517              	.LVL37:
 518              		.loc 1 246 0
 519 000a 002C     		cmp	r4, #0
 520 000c 24D0     		beq	.L49
 521              	.L41:
 522              		.loc 1 247 0
 523 000e A368     		ldr	r3, [r4, #8]
 524 0010 2268     		ldr	r2, [r4, #0]
 525 0012 002B     		cmp	r3, #0
 526 0014 0BDB     		blt	.L42
 527              		.loc 1 247 0 is_stmt 0 discriminator 2
 528 0016 A242     		cmp	r2, r4
 529 0018 03D0     		beq	.L44
 530              	.L43:
 531              		.loc 1 247 0 discriminator 3
 532 001a 1348     		ldr	r0, .L52
 533 001c FFF7FEFF 		bl	chDbgPanic
 534 0020 A368     		ldr	r3, [r4, #8]
 535              	.L44:
 536              		.loc 1 252 0 is_stmt 1
 537 0022 5A1E     		subs	r2, r3, #1
 538 0024 002A     		cmp	r2, #0
 539 0026 A260     		str	r2, [r4, #8]
 540 0028 07DB     		blt	.L50
 541              	.L47:
 542              		.loc 1 261 0
 543 002a 0020     		movs	r0, #0
 544              		.loc 1 262 0
 545 002c 38BD     		pop	{r3, r4, r5, pc}
 546              	.L42:
 547              		.loc 1 247 0 discriminator 4
 548 002e A242     		cmp	r2, r4
 549 0030 F3D0     		beq	.L43
 550              		.loc 1 252 0
 551 0032 5A1E     		subs	r2, r3, #1
 552 0034 002A     		cmp	r2, #0
 553 0036 A260     		str	r2, [r4, #8]
 554 0038 F7DA     		bge	.L47
 555              	.L50:
 556              		.loc 1 253 0
 557 003a 8DB1     		cbz	r5, .L51
 558              		.loc 1 257 0
 559 003c 0B49     		ldr	r1, .L52+4
 560 003e 8B69     		ldr	r3, [r1, #24]
 561              		.loc 1 259 0
 562 0040 2946     		mov	r1, r5
 563              		.loc 1 257 0
 564 0042 9C62     		str	r4, [r3, #40]
 565              	.LVL38:
ARM GAS  /tmp/cc27QMOZ.s 			page 11


 566              	.LBB49:
 567              	.LBB50:
 568              		.loc 2 48 0
 569 0044 6068     		ldr	r0, [r4, #4]
 570              		.loc 2 47 0
 571 0046 1C60     		str	r4, [r3, #0]
 572              		.loc 2 48 0
 573 0048 5860     		str	r0, [r3, #4]
 574              		.loc 2 49 0
 575 004a 6360     		str	r3, [r4, #4]
 576 004c 0360     		str	r3, [r0, #0]
 577              	.LBE50:
 578              	.LBE49:
 579              		.loc 1 259 0
 580 004e 0320     		movs	r0, #3
 581              		.loc 1 262 0
 582 0050 BDE83840 		pop	{r3, r4, r5, lr}
 583              		.loc 1 259 0
 584 0054 FFF7FEBF 		b	chSchGoSleepTimeoutS
 585              	.LVL39:
 586              	.L49:
 587              		.loc 1 246 0 discriminator 1
 588 0058 0548     		ldr	r0, .L52+8
 589 005a FFF7FEFF 		bl	chDbgPanic
 590 005e D6E7     		b	.L41
 591              	.L51:
 592              		.loc 1 254 0
 593 0060 A360     		str	r3, [r4, #8]
 594              		.loc 1 255 0
 595 0062 4FF0FF30 		mov	r0, #-1
 596 0066 38BD     		pop	{r3, r4, r5, pc}
 597              	.L53:
 598              		.align	2
 599              	.L52:
 600 0068 70000000 		.word	.LC6
 601 006c 00000000 		.word	rlist
 602 0070 58000000 		.word	.LC5
 603              		.cfi_endproc
 604              	.LFE13:
 605              		.size	chSemWaitTimeoutS, .-chSemWaitTimeoutS
 606 0074 AFF30080 		.section	.text.chSemWaitTimeout,"ax",%progbits
 606      AFF30080 
 606      AFF30080 
 607              		.align	2
 608              		.p2align 4,,15
 609              		.global	chSemWaitTimeout
 610              		.thumb
 611              		.thumb_func
 612              		.type	chSemWaitTimeout, %function
 613              	chSemWaitTimeout:
 614              	.LFB12:
 615              		.loc 1 215 0
 616              		.cfi_startproc
 617              		@ args = 0, pretend = 0, frame = 0
 618              		@ frame_needed = 0, uses_anonymous_args = 0
 619              	.LVL40:
 620 0000 38B5     		push	{r3, r4, r5, lr}
ARM GAS  /tmp/cc27QMOZ.s 			page 12


 621              	.LCFI6:
 622              		.cfi_def_cfa_offset 16
 623              		.cfi_offset 14, -4
 624              		.cfi_offset 5, -8
 625              		.cfi_offset 4, -12
 626              		.cfi_offset 3, -16
 627              		.loc 1 215 0
 628 0002 0546     		mov	r5, r0
 629 0004 0C46     		mov	r4, r1
 630              	.LBB51:
 631              		.loc 1 218 0
 632 0006 2023     		movs	r3, #32
 633              	.LVL41:
 634              	@ 218 "../../ChibiOS/os/kernel/src/chsem.c" 1
 635 0008 83F31188 		msr     BASEPRI, r3
 636              	@ 0 "" 2
 637              	.LVL42:
 638              		.thumb
 639              	.LBE51:
 640 000c FFF7FEFF 		bl	dbg_check_lock
 641              	.LVL43:
 642              		.loc 1 219 0
 643 0010 2146     		mov	r1, r4
 644 0012 2846     		mov	r0, r5
 645 0014 FFF7FEFF 		bl	chSemWaitTimeoutS
 646 0018 0446     		mov	r4, r0
 647              	.LVL44:
 648              		.loc 1 220 0
 649 001a FFF7FEFF 		bl	dbg_check_unlock
 650              	.LVL45:
 651              	.LBB52:
 652 001e 0023     		movs	r3, #0
 653              	.LVL46:
 654              	@ 220 "../../ChibiOS/os/kernel/src/chsem.c" 1
 655 0020 83F31188 		msr     BASEPRI, r3
 656              	@ 0 "" 2
 657              	.LVL47:
 658              		.thumb
 659              	.LBE52:
 660              		.loc 1 222 0
 661 0024 2046     		mov	r0, r4
 662 0026 38BD     		pop	{r3, r4, r5, pc}
 663              		.cfi_endproc
 664              	.LFE12:
 665              		.size	chSemWaitTimeout, .-chSemWaitTimeout
 666 0028 AFF30080 		.section	.text.chSemSignal,"ax",%progbits
 666      AFF30080 
 667              		.align	2
 668              		.p2align 4,,15
 669              		.global	chSemSignal
 670              		.thumb
 671              		.thumb_func
 672              		.type	chSemSignal, %function
 673              	chSemSignal:
 674              	.LFB14:
 675              		.loc 1 271 0
 676              		.cfi_startproc
ARM GAS  /tmp/cc27QMOZ.s 			page 13


 677              		@ args = 0, pretend = 0, frame = 0
 678              		@ frame_needed = 0, uses_anonymous_args = 0
 679              	.LVL48:
 680 0000 10B5     		push	{r4, lr}
 681              	.LCFI7:
 682              		.cfi_def_cfa_offset 8
 683              		.cfi_offset 14, -4
 684              		.cfi_offset 4, -8
 685              		.loc 1 271 0
 686 0002 0446     		mov	r4, r0
 687              		.loc 1 273 0
 688 0004 0028     		cmp	r0, #0
 689 0006 31D0     		beq	.L62
 690              	.LVL49:
 691              	.L56:
 692              		.loc 1 274 0
 693 0008 A368     		ldr	r3, [r4, #8]
 694 000a 002B     		cmp	r3, #0
 695 000c 2368     		ldr	r3, [r4, #0]
 696 000e 14DB     		blt	.L57
 697              		.loc 1 274 0 is_stmt 0 discriminator 2
 698 0010 A342     		cmp	r3, r4
 699 0012 02D0     		beq	.L59
 700              	.L58:
 701              		.loc 1 274 0 discriminator 3
 702 0014 1748     		ldr	r0, .L64
 703 0016 FFF7FEFF 		bl	chDbgPanic
 704              	.L59:
 705              	.LBB53:
 706              		.loc 1 279 0 is_stmt 1
 707 001a 2023     		movs	r3, #32
 708              	.LVL50:
 709              	@ 279 "../../ChibiOS/os/kernel/src/chsem.c" 1
 710 001c 83F31188 		msr     BASEPRI, r3
 711              	@ 0 "" 2
 712              	.LVL51:
 713              		.thumb
 714              	.LBE53:
 715 0020 FFF7FEFF 		bl	dbg_check_lock
 716              	.LVL52:
 717              		.loc 1 280 0
 718 0024 A168     		ldr	r1, [r4, #8]
 719 0026 481C     		adds	r0, r1, #1
 720 0028 0028     		cmp	r0, #0
 721 002a A060     		str	r0, [r4, #8]
 722 002c 11DD     		ble	.L63
 723              	.L60:
 724              		.loc 1 282 0
 725 002e FFF7FEFF 		bl	dbg_check_unlock
 726              	.LBB54:
 727 0032 0023     		movs	r3, #0
 728              	.LVL53:
 729              	@ 282 "../../ChibiOS/os/kernel/src/chsem.c" 1
 730 0034 83F31188 		msr     BASEPRI, r3
 731              	@ 0 "" 2
 732              	.LVL54:
 733              		.thumb
ARM GAS  /tmp/cc27QMOZ.s 			page 14


 734              	.LBE54:
 735              		.loc 1 283 0
 736 0038 10BD     		pop	{r4, pc}
 737              	.LVL55:
 738              	.L57:
 739              		.loc 1 274 0 discriminator 4
 740 003a A342     		cmp	r3, r4
 741 003c EAD0     		beq	.L58
 742              	.LBB55:
 743              		.loc 1 279 0
 744 003e 2023     		movs	r3, #32
 745              	@ 279 "../../ChibiOS/os/kernel/src/chsem.c" 1
 746 0040 83F31188 		msr     BASEPRI, r3
 747              	@ 0 "" 2
 748              	.LVL56:
 749              		.thumb
 750              	.LBE55:
 751 0044 FFF7FEFF 		bl	dbg_check_lock
 752              	.LVL57:
 753              		.loc 1 280 0
 754 0048 A168     		ldr	r1, [r4, #8]
 755 004a 481C     		adds	r0, r1, #1
 756 004c 0028     		cmp	r0, #0
 757 004e A060     		str	r0, [r4, #8]
 758 0050 EDDC     		bgt	.L60
 759              	.L63:
 760              	.LVL58:
 761              	.LBB56:
 762              	.LBB57:
 763              		.loc 2 53 0
 764 0052 2068     		ldr	r0, [r4, #0]
 765              	.LVL59:
 766              	.LBE57:
 767              	.LBE56:
 768              		.loc 1 281 0
 769 0054 0021     		movs	r1, #0
 770              	.LBB59:
 771              	.LBB58:
 772              		.loc 2 55 0
 773 0056 0268     		ldr	r2, [r0, #0]
 774 0058 2260     		str	r2, [r4, #0]
 775 005a 5460     		str	r4, [r2, #4]
 776              	.LBE58:
 777              	.LBE59:
 778              		.loc 1 281 0
 779 005c FFF7FEFF 		bl	chSchWakeupS
 780              	.LVL60:
 781              		.loc 1 282 0
 782 0060 FFF7FEFF 		bl	dbg_check_unlock
 783              	.LBB60:
 784 0064 0023     		movs	r3, #0
 785              	@ 282 "../../ChibiOS/os/kernel/src/chsem.c" 1
 786 0066 83F31188 		msr     BASEPRI, r3
 787              	@ 0 "" 2
 788              	.LVL61:
 789              		.thumb
 790              	.LBE60:
ARM GAS  /tmp/cc27QMOZ.s 			page 15


 791              		.loc 1 283 0
 792 006a 10BD     		pop	{r4, pc}
 793              	.LVL62:
 794              	.L62:
 795              		.loc 1 273 0 discriminator 1
 796 006c 0248     		ldr	r0, .L64+4
 797 006e FFF7FEFF 		bl	chDbgPanic
 798 0072 C9E7     		b	.L56
 799              	.L65:
 800              		.align	2
 801              	.L64:
 802 0074 98000000 		.word	.LC8
 803 0078 88000000 		.word	.LC7
 804              		.cfi_endproc
 805              	.LFE14:
 806              		.size	chSemSignal, .-chSemSignal
 807 007c AFF30080 		.section	.text.chSemSignalI,"ax",%progbits
 808              		.align	2
 809              		.p2align 4,,15
 810              		.global	chSemSignalI
 811              		.thumb
 812              		.thumb_func
 813              		.type	chSemSignalI, %function
 814              	chSemSignalI:
 815              	.LFB15:
 816              		.loc 1 296 0
 817              		.cfi_startproc
 818              		@ args = 0, pretend = 0, frame = 0
 819              		@ frame_needed = 0, uses_anonymous_args = 0
 820              	.LVL63:
 821 0000 10B5     		push	{r4, lr}
 822              	.LCFI8:
 823              		.cfi_def_cfa_offset 8
 824              		.cfi_offset 14, -4
 825              		.cfi_offset 4, -8
 826              		.loc 1 296 0
 827 0002 0446     		mov	r4, r0
 828              		.loc 1 298 0
 829 0004 FFF7FEFF 		bl	chDbgCheckClassI
 830              	.LVL64:
 831              		.loc 1 299 0
 832 0008 002C     		cmp	r4, #0
 833 000a 1ED0     		beq	.L73
 834              	.L67:
 835              		.loc 1 300 0
 836 000c A368     		ldr	r3, [r4, #8]
 837 000e 2268     		ldr	r2, [r4, #0]
 838 0010 002B     		cmp	r3, #0
 839 0012 0ADB     		blt	.L68
 840              		.loc 1 300 0 is_stmt 0 discriminator 2
 841 0014 A242     		cmp	r2, r4
 842 0016 03D0     		beq	.L70
 843              	.L69:
 844              		.loc 1 300 0 discriminator 3
 845 0018 0E48     		ldr	r0, .L75
 846 001a FFF7FEFF 		bl	chDbgPanic
 847 001e A368     		ldr	r3, [r4, #8]
ARM GAS  /tmp/cc27QMOZ.s 			page 16


 848              	.L70:
 849              		.loc 1 305 0 is_stmt 1
 850 0020 0133     		adds	r3, r3, #1
 851 0022 002B     		cmp	r3, #0
 852 0024 A360     		str	r3, [r4, #8]
 853 0026 06DD     		ble	.L74
 854              	.L66:
 855 0028 10BD     		pop	{r4, pc}
 856              	.L68:
 857              		.loc 1 300 0 discriminator 4
 858 002a A242     		cmp	r2, r4
 859 002c F4D0     		beq	.L69
 860              		.loc 1 305 0
 861 002e 0133     		adds	r3, r3, #1
 862 0030 002B     		cmp	r3, #0
 863 0032 A360     		str	r3, [r4, #8]
 864 0034 F8DC     		bgt	.L66
 865              	.L74:
 866              	.LVL65:
 867              	.LBB61:
 868              	.LBB62:
 869              	.LBB63:
 870              		.loc 2 53 0
 871 0036 2068     		ldr	r0, [r4, #0]
 872              	.LVL66:
 873              	.LBE63:
 874              	.LBE62:
 875              		.loc 1 309 0
 876 0038 0021     		movs	r1, #0
 877              	.LBB65:
 878              	.LBB64:
 879              		.loc 2 55 0
 880 003a 0268     		ldr	r2, [r0, #0]
 881 003c 2260     		str	r2, [r4, #0]
 882 003e 5460     		str	r4, [r2, #4]
 883              	.LBE64:
 884              	.LBE65:
 885              		.loc 1 309 0
 886 0040 8162     		str	r1, [r0, #40]
 887              	.LBE61:
 888              		.loc 1 312 0
 889 0042 BDE81040 		pop	{r4, lr}
 890              	.LBB66:
 891              		.loc 1 310 0
 892 0046 FFF7FEBF 		b	chSchReadyI
 893              	.LVL67:
 894              	.L73:
 895              	.LBE66:
 896              		.loc 1 299 0 discriminator 1
 897 004a 0348     		ldr	r0, .L75+4
 898 004c FFF7FEFF 		bl	chDbgPanic
 899 0050 DCE7     		b	.L67
 900              	.L76:
 901 0052 00BF     		.align	2
 902              	.L75:
 903 0054 C0000000 		.word	.LC10
 904 0058 AC000000 		.word	.LC9
ARM GAS  /tmp/cc27QMOZ.s 			page 17


 905              		.cfi_endproc
 906              	.LFE15:
 907              		.size	chSemSignalI, .-chSemSignalI
 908 005c AFF30080 		.section	.text.chSemAddCounterI,"ax",%progbits
 909              		.align	2
 910              		.p2align 4,,15
 911              		.global	chSemAddCounterI
 912              		.thumb
 913              		.thumb_func
 914              		.type	chSemAddCounterI, %function
 915              	chSemAddCounterI:
 916              	.LFB16:
 917              		.loc 1 327 0
 918              		.cfi_startproc
 919              		@ args = 0, pretend = 0, frame = 0
 920              		@ frame_needed = 0, uses_anonymous_args = 0
 921              	.LVL68:
 922 0000 F8B5     		push	{r3, r4, r5, r6, r7, lr}
 923              	.LCFI9:
 924              		.cfi_def_cfa_offset 24
 925              		.cfi_offset 14, -4
 926              		.cfi_offset 7, -8
 927              		.cfi_offset 6, -12
 928              		.cfi_offset 5, -16
 929              		.cfi_offset 4, -20
 930              		.cfi_offset 3, -24
 931              		.loc 1 327 0
 932 0002 0446     		mov	r4, r0
 933 0004 0D46     		mov	r5, r1
 934              		.loc 1 329 0
 935 0006 FFF7FEFF 		bl	chDbgCheckClassI
 936              	.LVL69:
 937              		.loc 1 330 0
 938 000a 002C     		cmp	r4, #0
 939 000c 46D0     		beq	.L78
 940              		.loc 1 330 0 is_stmt 0 discriminator 2
 941 000e 002D     		cmp	r5, #0
 942 0010 44DD     		ble	.L78
 943              	.L79:
 944              		.loc 1 331 0 is_stmt 1
 945 0012 A368     		ldr	r3, [r4, #8]
 946 0014 002B     		cmp	r3, #0
 947 0016 2368     		ldr	r3, [r4, #0]
 948 0018 3DDB     		blt	.L80
 949              		.loc 1 331 0 is_stmt 0 discriminator 2
 950 001a A342     		cmp	r3, r4
 951 001c 02D0     		beq	.L82
 952              	.L81:
 953              		.loc 1 331 0 discriminator 3
 954 001e 2A48     		ldr	r0, .L104
 955 0020 FFF7FEFF 		bl	chDbgPanic
 956              	.L82:
 957              		.loc 1 336 0 is_stmt 1 discriminator 1
 958 0024 002D     		cmp	r5, #0
 959 0026 35DD     		ble	.L77
 960              		.loc 1 337 0
 961 0028 A168     		ldr	r1, [r4, #8]
ARM GAS  /tmp/cc27QMOZ.s 			page 18


 962              		.loc 1 338 0
 963 002a 0026     		movs	r6, #0
 964              		.loc 1 337 0
 965 002c 481C     		adds	r0, r1, #1
 966 002e 6F1E     		subs	r7, r5, #1
 967 0030 B042     		cmp	r0, r6
 968 0032 A060     		str	r0, [r4, #8]
 969 0034 07F00107 		and	r7, r7, #1
 970 0038 34DD     		ble	.L98
 971              	.L88:
 972              		.loc 1 336 0
 973 003a 013D     		subs	r5, r5, #1
 974              	.LVL70:
 975 003c 2AD0     		beq	.L77
 976 003e 6FB1     		cbz	r7, .L86
 977              		.loc 1 337 0
 978 0040 A368     		ldr	r3, [r4, #8]
 979 0042 5A1C     		adds	r2, r3, #1
 980 0044 002A     		cmp	r2, #0
 981 0046 A260     		str	r2, [r4, #8]
 982 0048 34DD     		ble	.L99
 983              	.L90:
 984              	.LVL71:
 985              		.loc 1 336 0
 986 004a 013D     		subs	r5, r5, #1
 987 004c 06D1     		bne	.L86
 988 004e 39E0     		b	.L103
 989              	.L84:
 990              		.loc 1 337 0
 991 0050 581C     		adds	r0, r3, #1
 992 0052 0028     		cmp	r0, #0
 993 0054 A060     		str	r0, [r4, #8]
 994 0056 13DD     		ble	.L101
 995              	.L93:
 996              		.loc 1 336 0
 997 0058 013D     		subs	r5, r5, #1
 998 005a 1AD0     		beq	.L102
 999              	.L86:
 1000              		.loc 1 337 0
 1001 005c A268     		ldr	r2, [r4, #8]
 1002              		.loc 1 339 0
 1003 005e 013D     		subs	r5, r5, #1
 1004              		.loc 1 337 0
 1005 0060 531C     		adds	r3, r2, #1
 1006 0062 002B     		cmp	r3, #0
 1007 0064 A360     		str	r3, [r4, #8]
 1008 0066 F3DC     		bgt	.L84
 1009              	.LVL72:
 1010              	.LBB67:
 1011              	.LBB68:
 1012              		.loc 2 53 0
 1013 0068 2068     		ldr	r0, [r4, #0]
 1014              	.LVL73:
 1015              		.loc 2 55 0
 1016 006a 0368     		ldr	r3, [r0, #0]
 1017 006c 2360     		str	r3, [r4, #0]
 1018 006e 5C60     		str	r4, [r3, #4]
ARM GAS  /tmp/cc27QMOZ.s 			page 19


 1019              	.LBE68:
 1020              	.LBE67:
 1021              		.loc 1 338 0
 1022 0070 FFF7FEFF 		bl	chSchReadyI
 1023              	.LVL74:
 1024 0074 8662     		str	r6, [r0, #40]
 1025 0076 A368     		ldr	r3, [r4, #8]
 1026              		.loc 1 337 0
 1027 0078 581C     		adds	r0, r3, #1
 1028 007a 0028     		cmp	r0, #0
 1029 007c A060     		str	r0, [r4, #8]
 1030 007e EBDC     		bgt	.L93
 1031              	.LVL75:
 1032              	.L101:
 1033              	.LBB72:
 1034              	.LBB69:
 1035              		.loc 2 53 0
 1036 0080 2068     		ldr	r0, [r4, #0]
 1037              		.loc 2 55 0
 1038 0082 0268     		ldr	r2, [r0, #0]
 1039 0084 2260     		str	r2, [r4, #0]
 1040 0086 5460     		str	r4, [r2, #4]
 1041              	.LBE69:
 1042              	.LBE72:
 1043              		.loc 1 338 0
 1044 0088 FFF7FEFF 		bl	chSchReadyI
 1045              		.loc 1 336 0
 1046 008c 013D     		subs	r5, r5, #1
 1047              		.loc 1 338 0
 1048 008e 8662     		str	r6, [r0, #40]
 1049              		.loc 1 336 0
 1050 0090 E4D1     		bne	.L86
 1051              	.LVL76:
 1052              	.L102:
 1053 0092 F8BD     		pop	{r3, r4, r5, r6, r7, pc}
 1054              	.L77:
 1055 0094 F8BD     		pop	{r3, r4, r5, r6, r7, pc}
 1056              	.LVL77:
 1057              	.L80:
 1058              		.loc 1 331 0 discriminator 4
 1059 0096 A342     		cmp	r3, r4
 1060 0098 C4D1     		bne	.L82
 1061 009a C0E7     		b	.L81
 1062              	.L78:
 1063              		.loc 1 330 0 discriminator 1
 1064 009c 0B48     		ldr	r0, .L104+4
 1065 009e FFF7FEFF 		bl	chDbgPanic
 1066 00a2 B6E7     		b	.L79
 1067              	.L98:
 1068              	.LVL78:
 1069              	.LBB73:
 1070              	.LBB70:
 1071              		.loc 2 53 0
 1072 00a4 2068     		ldr	r0, [r4, #0]
 1073              		.loc 2 55 0
 1074 00a6 0168     		ldr	r1, [r0, #0]
 1075 00a8 2160     		str	r1, [r4, #0]
ARM GAS  /tmp/cc27QMOZ.s 			page 20


 1076 00aa 4C60     		str	r4, [r1, #4]
 1077              	.LBE70:
 1078              	.LBE73:
 1079              		.loc 1 338 0
 1080 00ac FFF7FEFF 		bl	chSchReadyI
 1081 00b0 8662     		str	r6, [r0, #40]
 1082 00b2 C2E7     		b	.L88
 1083              	.LVL79:
 1084              	.L99:
 1085              	.LBB74:
 1086              	.LBB71:
 1087              		.loc 2 53 0
 1088 00b4 2068     		ldr	r0, [r4, #0]
 1089              		.loc 2 55 0
 1090 00b6 0168     		ldr	r1, [r0, #0]
 1091 00b8 2160     		str	r1, [r4, #0]
 1092 00ba 4C60     		str	r4, [r1, #4]
 1093              	.LBE71:
 1094              	.LBE74:
 1095              		.loc 1 338 0
 1096 00bc FFF7FEFF 		bl	chSchReadyI
 1097 00c0 8662     		str	r6, [r0, #40]
 1098 00c2 C2E7     		b	.L90
 1099              	.LVL80:
 1100              	.L103:
 1101 00c4 F8BD     		pop	{r3, r4, r5, r6, r7, pc}
 1102              	.L105:
 1103 00c6 00BF     		.align	2
 1104              	.L104:
 1105 00c8 EC000000 		.word	.LC12
 1106 00cc D4000000 		.word	.LC11
 1107              		.cfi_endproc
 1108              	.LFE16:
 1109              		.size	chSemAddCounterI, .-chSemAddCounterI
 1110              		.section	.text.chSemSignalWait,"ax",%progbits
 1111              		.align	2
 1112              		.p2align 4,,15
 1113              		.global	chSemSignalWait
 1114              		.thumb
 1115              		.thumb_func
 1116              		.type	chSemSignalWait, %function
 1117              	chSemSignalWait:
 1118              	.LFB17:
 1119              		.loc 1 359 0
 1120              		.cfi_startproc
 1121              		@ args = 0, pretend = 0, frame = 0
 1122              		@ frame_needed = 0, uses_anonymous_args = 0
 1123              	.LVL81:
 1124 0000 38B5     		push	{r3, r4, r5, lr}
 1125              	.LCFI10:
 1126              		.cfi_def_cfa_offset 16
 1127              		.cfi_offset 14, -4
 1128              		.cfi_offset 5, -8
 1129              		.cfi_offset 4, -12
 1130              		.cfi_offset 3, -16
 1131              		.loc 1 359 0
 1132 0002 0446     		mov	r4, r0
ARM GAS  /tmp/cc27QMOZ.s 			page 21


 1133 0004 0D46     		mov	r5, r1
 1134              		.loc 1 362 0
 1135 0006 0028     		cmp	r0, #0
 1136 0008 5ED0     		beq	.L107
 1137              		.loc 1 362 0 is_stmt 0 discriminator 2
 1138 000a 0029     		cmp	r1, #0
 1139 000c 5CD0     		beq	.L107
 1140              	.LVL82:
 1141              	.L108:
 1142              		.loc 1 363 0 is_stmt 1
 1143 000e A368     		ldr	r3, [r4, #8]
 1144 0010 002B     		cmp	r3, #0
 1145 0012 2368     		ldr	r3, [r4, #0]
 1146 0014 26DB     		blt	.L109
 1147              		.loc 1 363 0 is_stmt 0 discriminator 2
 1148 0016 A342     		cmp	r3, r4
 1149 0018 02D0     		beq	.L111
 1150              	.L110:
 1151              		.loc 1 363 0 discriminator 3
 1152 001a 2D48     		ldr	r0, .L123
 1153 001c FFF7FEFF 		bl	chDbgPanic
 1154              	.L111:
 1155              		.loc 1 367 0 is_stmt 1
 1156 0020 A868     		ldr	r0, [r5, #8]
 1157 0022 2B68     		ldr	r3, [r5, #0]
 1158 0024 0028     		cmp	r0, #0
 1159 0026 23DB     		blt	.L112
 1160              	.L122:
 1161              		.loc 1 367 0 is_stmt 0 discriminator 2
 1162 0028 AB42     		cmp	r3, r5
 1163 002a 02D0     		beq	.L114
 1164              	.L113:
 1165              		.loc 1 367 0 discriminator 3
 1166 002c 2948     		ldr	r0, .L123+4
 1167 002e FFF7FEFF 		bl	chDbgPanic
 1168              	.L114:
 1169              	.LBB75:
 1170              		.loc 1 372 0 is_stmt 1
 1171 0032 2023     		movs	r3, #32
 1172              	.LVL83:
 1173              	@ 372 "../../ChibiOS/os/kernel/src/chsem.c" 1
 1174 0034 83F31188 		msr     BASEPRI, r3
 1175              	@ 0 "" 2
 1176              	.LVL84:
 1177              		.thumb
 1178              	.LBE75:
 1179 0038 FFF7FEFF 		bl	dbg_check_lock
 1180              	.LVL85:
 1181              		.loc 1 373 0
 1182 003c A268     		ldr	r2, [r4, #8]
 1183 003e 511C     		adds	r1, r2, #1
 1184 0040 0029     		cmp	r1, #0
 1185 0042 A160     		str	r1, [r4, #8]
 1186 0044 20DD     		ble	.L120
 1187              	.L115:
 1188              		.loc 1 375 0
 1189 0046 A968     		ldr	r1, [r5, #8]
ARM GAS  /tmp/cc27QMOZ.s 			page 22


 1190 0048 481E     		subs	r0, r1, #1
 1191 004a 0028     		cmp	r0, #0
 1192 004c A860     		str	r0, [r5, #8]
 1193 004e 28DB     		blt	.L121
 1194              	.LVL86:
 1195              	.L116:
 1196              		.loc 1 383 0
 1197 0050 FFF7FEFF 		bl	chSchRescheduleS
 1198              	.LVL87:
 1199              		.loc 1 384 0
 1200 0054 0024     		movs	r4, #0
 1201              	.LVL88:
 1202              		.loc 1 386 0
 1203 0056 FFF7FEFF 		bl	dbg_check_unlock
 1204              	.LBB76:
 1205 005a 0023     		movs	r3, #0
 1206              	.LVL89:
 1207              	@ 386 "../../ChibiOS/os/kernel/src/chsem.c" 1
 1208 005c 83F31188 		msr     BASEPRI, r3
 1209              	@ 0 "" 2
 1210              	.LVL90:
 1211              		.thumb
 1212              	.LBE76:
 1213              		.loc 1 388 0
 1214 0060 2046     		mov	r0, r4
 1215 0062 38BD     		pop	{r3, r4, r5, pc}
 1216              	.LVL91:
 1217              	.L109:
 1218              		.loc 1 363 0 discriminator 4
 1219 0064 A342     		cmp	r3, r4
 1220 0066 D8D0     		beq	.L110
 1221              		.loc 1 367 0
 1222 0068 A868     		ldr	r0, [r5, #8]
 1223 006a 2B68     		ldr	r3, [r5, #0]
 1224 006c 0028     		cmp	r0, #0
 1225 006e DBDA     		bge	.L122
 1226              	.L112:
 1227              		.loc 1 367 0 is_stmt 0 discriminator 4
 1228 0070 AB42     		cmp	r3, r5
 1229 0072 DBD0     		beq	.L113
 1230              	.LBB77:
 1231              		.loc 1 372 0 is_stmt 1
 1232 0074 2023     		movs	r3, #32
 1233              	@ 372 "../../ChibiOS/os/kernel/src/chsem.c" 1
 1234 0076 83F31188 		msr     BASEPRI, r3
 1235              	@ 0 "" 2
 1236              	.LVL92:
 1237              		.thumb
 1238              	.LBE77:
 1239 007a FFF7FEFF 		bl	dbg_check_lock
 1240              	.LVL93:
 1241              		.loc 1 373 0
 1242 007e A268     		ldr	r2, [r4, #8]
 1243 0080 511C     		adds	r1, r2, #1
 1244 0082 0029     		cmp	r1, #0
 1245 0084 A160     		str	r1, [r4, #8]
 1246 0086 DEDC     		bgt	.L115
ARM GAS  /tmp/cc27QMOZ.s 			page 23


 1247              	.L120:
 1248              	.LVL94:
 1249              	.LBB78:
 1250              	.LBB79:
 1251              		.loc 2 53 0
 1252 0088 2068     		ldr	r0, [r4, #0]
 1253              	.LVL95:
 1254              		.loc 2 55 0
 1255 008a 0368     		ldr	r3, [r0, #0]
 1256 008c 2360     		str	r3, [r4, #0]
 1257 008e 5C60     		str	r4, [r3, #4]
 1258              	.LBE79:
 1259              	.LBE78:
 1260              		.loc 1 374 0
 1261 0090 FFF7FEFF 		bl	chSchReadyI
 1262              	.LVL96:
 1263 0094 0024     		movs	r4, #0
 1264              	.LVL97:
 1265 0096 8462     		str	r4, [r0, #40]
 1266              		.loc 1 375 0
 1267 0098 A968     		ldr	r1, [r5, #8]
 1268 009a 481E     		subs	r0, r1, #1
 1269 009c 0028     		cmp	r0, #0
 1270 009e A860     		str	r0, [r5, #8]
 1271 00a0 D6DA     		bge	.L116
 1272              	.L121:
 1273              	.LBB80:
 1274              		.loc 1 376 0
 1275 00a2 0D4A     		ldr	r2, .L123+8
 1276              	.LBB81:
 1277              	.LBB82:
 1278              		.loc 2 48 0
 1279 00a4 6B68     		ldr	r3, [r5, #4]
 1280              	.LBE82:
 1281              	.LBE81:
 1282              		.loc 1 376 0
 1283 00a6 9469     		ldr	r4, [r2, #24]
 1284              	.LVL98:
 1285              		.loc 1 379 0
 1286 00a8 0320     		movs	r0, #3
 1287              	.LBB84:
 1288              	.LBB83:
 1289              		.loc 2 47 0
 1290 00aa 2560     		str	r5, [r4, #0]
 1291              		.loc 2 48 0
 1292 00ac 6360     		str	r3, [r4, #4]
 1293              		.loc 2 49 0
 1294 00ae 6C60     		str	r4, [r5, #4]
 1295 00b0 1C60     		str	r4, [r3, #0]
 1296              	.LBE83:
 1297              	.LBE84:
 1298              		.loc 1 378 0
 1299 00b2 A562     		str	r5, [r4, #40]
 1300              		.loc 1 379 0
 1301 00b4 FFF7FEFF 		bl	chSchGoSleepS
 1302              	.LVL99:
 1303              		.loc 1 380 0
ARM GAS  /tmp/cc27QMOZ.s 			page 24


 1304 00b8 A46A     		ldr	r4, [r4, #40]
 1305              	.LVL100:
 1306              	.LBE80:
 1307              		.loc 1 386 0
 1308 00ba FFF7FEFF 		bl	dbg_check_unlock
 1309              	.LBB85:
 1310 00be 0023     		movs	r3, #0
 1311              	@ 386 "../../ChibiOS/os/kernel/src/chsem.c" 1
 1312 00c0 83F31188 		msr     BASEPRI, r3
 1313              	@ 0 "" 2
 1314              	.LVL101:
 1315              		.thumb
 1316              	.LBE85:
 1317              		.loc 1 388 0
 1318 00c4 2046     		mov	r0, r4
 1319 00c6 38BD     		pop	{r3, r4, r5, pc}
 1320              	.LVL102:
 1321              	.L107:
 1322              		.loc 1 362 0 discriminator 1
 1323 00c8 0448     		ldr	r0, .L123+12
 1324              	.LVL103:
 1325 00ca FFF7FEFF 		bl	chDbgPanic
 1326 00ce 9EE7     		b	.L108
 1327              	.L124:
 1328              		.align	2
 1329              	.L123:
 1330 00d0 18010000 		.word	.LC14
 1331 00d4 30010000 		.word	.LC15
 1332 00d8 00000000 		.word	rlist
 1333 00dc 04010000 		.word	.LC13
 1334              		.cfi_endproc
 1335              	.LFE17:
 1336              		.size	chSemSignalWait, .-chSemSignalWait
 1337              		.section	.rodata.str1.4,"aMS",%progbits,1
 1338              		.align	2
 1339              	.LC0:
 1340 0000 22636853 		.ascii	"\"chSemInit\"()\000"
 1340      656D496E 
 1340      69742228 
 1340      2900
 1341 000e 0000     		.space	2
 1342              	.LC1:
 1343 0010 22636853 		.ascii	"\"chSemResetI\"()\000"
 1343      656D5265 
 1343      73657449 
 1343      22282900 
 1344              	.LC2:
 1345 0020 63685365 		.ascii	"chSemResetI(), #1\000"
 1345      6D526573 
 1345      65744928 
 1345      292C2023 
 1345      3100
 1346 0032 0000     		.space	2
 1347              	.LC3:
 1348 0034 22636853 		.ascii	"\"chSemWaitS\"()\000"
 1348      656D5761 
 1348      69745322 
ARM GAS  /tmp/cc27QMOZ.s 			page 25


 1348      282900
 1349 0043 00       		.space	1
 1350              	.LC4:
 1351 0044 63685365 		.ascii	"chSemWaitS(), #1\000"
 1351      6D576169 
 1351      74532829 
 1351      2C202331 
 1351      00
 1352 0055 000000   		.space	3
 1353              	.LC5:
 1354 0058 22636853 		.ascii	"\"chSemWaitTimeoutS\"()\000"
 1354      656D5761 
 1354      69745469 
 1354      6D656F75 
 1354      74532228 
 1355 006e 0000     		.space	2
 1356              	.LC6:
 1357 0070 63685365 		.ascii	"chSemWaitTimeoutS(), #1\000"
 1357      6D576169 
 1357      7454696D 
 1357      656F7574 
 1357      5328292C 
 1358              	.LC7:
 1359 0088 22636853 		.ascii	"\"chSemSignal\"()\000"
 1359      656D5369 
 1359      676E616C 
 1359      22282900 
 1360              	.LC8:
 1361 0098 63685365 		.ascii	"chSemSignal(), #1\000"
 1361      6D536967 
 1361      6E616C28 
 1361      292C2023 
 1361      3100
 1362 00aa 0000     		.space	2
 1363              	.LC9:
 1364 00ac 22636853 		.ascii	"\"chSemSignalI\"()\000"
 1364      656D5369 
 1364      676E616C 
 1364      49222829 
 1364      00
 1365 00bd 000000   		.space	3
 1366              	.LC10:
 1367 00c0 63685365 		.ascii	"chSemSignalI(), #1\000"
 1367      6D536967 
 1367      6E616C49 
 1367      28292C20 
 1367      233100
 1368 00d3 00       		.space	1
 1369              	.LC11:
 1370 00d4 22636853 		.ascii	"\"chSemAddCounterI\"()\000"
 1370      656D4164 
 1370      64436F75 
 1370      6E746572 
 1370      49222829 
 1371 00e9 000000   		.space	3
 1372              	.LC12:
 1373 00ec 63685365 		.ascii	"chSemAddCounterI(), #1\000"
ARM GAS  /tmp/cc27QMOZ.s 			page 26


 1373      6D416464 
 1373      436F756E 
 1373      74657249 
 1373      28292C20 
 1374 0103 00       		.space	1
 1375              	.LC13:
 1376 0104 22636853 		.ascii	"\"chSemSignalWait\"()\000"
 1376      656D5369 
 1376      676E616C 
 1376      57616974 
 1376      22282900 
 1377              	.LC14:
 1378 0118 63685365 		.ascii	"chSemSignalWait(), #1\000"
 1378      6D536967 
 1378      6E616C57 
 1378      61697428 
 1378      292C2023 
 1379 012e 0000     		.space	2
 1380              	.LC15:
 1381 0130 63685365 		.ascii	"chSemSignalWait(), #2\000"
 1381      6D536967 
 1381      6E616C57 
 1381      61697428 
 1381      292C2023 
 1382 0146 0000     		.text
 1383              	.Letext0:
 1384              		.file 3 "/home/tino/ChibiStudio/tools/GNU Tools ARM Embedded/4.6 2012q2/bin/../lib/gcc/arm-none-ea
 1385              		.file 4 "../../ChibiOS/os/ports/GCC/ARMCMx/chtypes.h"
 1386              		.file 5 "../../ChibiOS/os/kernel/include/chlists.h"
 1387              		.file 6 "../../ChibiOS/os/kernel/include/chthreads.h"
 1388              		.file 7 "../../ChibiOS/os/ports/GCC/ARMCMx/chcore_v7m.h"
 1389              		.file 8 "../../ChibiOS/os/kernel/include/chschd.h"
 1390              		.file 9 "../../ChibiOS/os/kernel/include/chsem.h"
 1391              		.file 10 "../../ChibiOS/os/kernel/include/chmtx.h"