ARM GAS  /tmp/ccknmkdz.s 			page 1


   1              		.syntax unified
   2              		.cpu cortex-m3
   3              		.fpu softvfp
   4              		.eabi_attribute 20, 1
   5              		.eabi_attribute 21, 1
   6              		.eabi_attribute 23, 3
   7              		.eabi_attribute 24, 1
   8              		.eabi_attribute 25, 1
   9              		.eabi_attribute 26, 1
  10              		.eabi_attribute 30, 2
  11              		.eabi_attribute 34, 1
  12              		.eabi_attribute 18, 4
  13              		.thumb
  14              		.file	"chsys.c"
  15              		.text
  16              	.Ltext0:
  17              		.cfi_sections	.debug_frame
  18              		.section	.text._idle_thread,"ax",%progbits
  19              		.align	2
  20              		.p2align 4,,15
  21              		.global	_idle_thread
  22              		.thumb
  23              		.thumb_func
  24              		.type	_idle_thread, %function
  25              	_idle_thread:
  26              	.LFB7:
  27              		.file 1 "../../ChibiOS/os/kernel/src/chsys.c"
  28              		.loc 1 54 0
  29              		.cfi_startproc
  30              		@ args = 0, pretend = 0, frame = 0
  31              		@ frame_needed = 0, uses_anonymous_args = 0
  32              		@ link register save eliminated.
  33              	.LVL0:
  34              		.loc 1 57 0
  35 0000 0248     		ldr	r0, .L4
  36              	.LVL1:
  37 0002 034A     		ldr	r2, .L4+4
  38 0004 8369     		ldr	r3, [r0, #24]
  39 0006 9A61     		str	r2, [r3, #24]
  40              	.L2:
  41 0008 FEE7     		b	.L2
  42              	.L5:
  43 000a 00BF     		.align	2
  44              	.L4:
  45 000c 00000000 		.word	rlist
  46 0010 00000000 		.word	.LC0
  47              		.cfi_endproc
  48              	.LFE7:
  49              		.size	_idle_thread, .-_idle_thread
  50 0014 AFF30080 		.section	.text.chSysInit,"ax",%progbits
  50      AFF30080 
  50      AFF30080 
  51              		.align	2
  52              		.p2align 4,,15
  53              		.global	chSysInit
  54              		.thumb
  55              		.thumb_func
ARM GAS  /tmp/ccknmkdz.s 			page 2


  56              		.type	chSysInit, %function
  57              	chSysInit:
  58              	.LFB8:
  59              		.loc 1 77 0
  60              		.cfi_startproc
  61              		@ args = 0, pretend = 0, frame = 0
  62              		@ frame_needed = 0, uses_anonymous_args = 0
  63 0000 30B5     		push	{r4, r5, lr}
  64              	.LCFI0:
  65              		.cfi_def_cfa_offset 12
  66              		.cfi_offset 14, -4
  67              		.cfi_offset 5, -8
  68              		.cfi_offset 4, -12
  69 0002 83B0     		sub	sp, sp, #12
  70              	.LCFI1:
  71              		.cfi_def_cfa_offset 24
  72              		.loc 1 83 0
  73 0004 FFF7FEFF 		bl	_port_init
  74              		.loc 1 84 0
  75 0008 FFF7FEFF 		bl	_scheduler_init
  76              		.loc 1 85 0
  77 000c FFF7FEFF 		bl	_vt_init
  78              		.loc 1 87 0
  79 0010 FFF7FEFF 		bl	_core_init
  80              		.loc 1 90 0
  81 0014 FFF7FEFF 		bl	_heap_init
  82              		.loc 1 93 0
  83 0018 FFF7FEFF 		bl	_trace_init
  84              		.loc 1 97 0
  85 001c 40F20000 		movw	r0, #:lower16:.LANCHOR0
  86 0020 4021     		movs	r1, #64
  87 0022 C0F20000 		movt	r0, #:upper16:.LANCHOR0
  88 0026 FFF7FEFF 		bl	_thread_init
  89              		.loc 1 102 0
  90 002a 40F20003 		movw	r3, #:lower16:__main_thread_stack_base__
  91 002e C0F20003 		movt	r3, #:upper16:__main_thread_stack_base__
  92              		.loc 1 98 0
  93 0032 0124     		movs	r4, #1
  94              		.loc 1 97 0
  95 0034 40F20005 		movw	r5, #:lower16:rlist
  96              		.loc 1 102 0
  97 0038 C361     		str	r3, [r0, #28]
  98              		.loc 1 97 0
  99 003a C0F20005 		movt	r5, #:upper16:rlist
 100              		.loc 1 98 0
 101 003e 80F82040 		strb	r4, [r0, #32]
 102              		.loc 1 97 0
 103 0042 A861     		str	r0, [r5, #24]
 104              		.loc 1 104 0
 105 0044 FFF7FEFF 		bl	dbg_check_enable
 106              	.LBB2:
 107 0048 0023     		movs	r3, #0
 108              	.LVL2:
 109              	@ 104 "../../ChibiOS/os/kernel/src/chsys.c" 1
 110 004a 83F31188 		msr     BASEPRI, r3                    
 111 004e 62B6     		cpsie   i
 112              	@ 0 "" 2
ARM GAS  /tmp/ccknmkdz.s 			page 3


 113              	.LVL3:
 114              		.thumb
 115              	.LBE2:
 116              		.loc 1 108 0
 117 0050 40F20001 		movw	r1, #:lower16:ch_debug
 118 0054 AA69     		ldr	r2, [r5, #24]
 119 0056 C0F20001 		movt	r1, #:upper16:ch_debug
 120 005a 9161     		str	r1, [r2, #24]
 121              		.loc 1 114 0
 122 005c 40F20000 		movw	r0, #:lower16:.LANCHOR1
 123 0060 0022     		movs	r2, #0
 124 0062 40F20003 		movw	r3, #:lower16:_idle_thread
 125              	.LVL4:
 126 0066 0092     		str	r2, [sp, #0]
 127 0068 C0F20003 		movt	r3, #:upper16:_idle_thread
 128 006c 4FF4D071 		mov	r1, #416
 129 0070 2246     		mov	r2, r4
 130 0072 C0F20000 		movt	r0, #:upper16:.LANCHOR1
 131 0076 FFF7FEFF 		bl	chThdCreateStatic
 132              		.loc 1 117 0
 133 007a 03B0     		add	sp, sp, #12
 134 007c 30BD     		pop	{r4, r5, pc}
 135              		.cfi_endproc
 136              	.LFE8:
 137              		.size	chSysInit, .-chSysInit
 138 007e 00BF     		.section	.text.chSysTimerHandlerI,"ax",%progbits
 139              		.align	2
 140              		.p2align 4,,15
 141              		.global	chSysTimerHandlerI
 142              		.thumb
 143              		.thumb_func
 144              		.type	chSysTimerHandlerI, %function
 145              	chSysTimerHandlerI:
 146              	.LFB9:
 147              		.loc 1 130 0
 148              		.cfi_startproc
 149              		@ args = 0, pretend = 0, frame = 0
 150              		@ frame_needed = 0, uses_anonymous_args = 0
 151 0000 F8B5     		push	{r3, r4, r5, r6, r7, lr}
 152              	.LCFI2:
 153              		.cfi_def_cfa_offset 24
 154              		.cfi_offset 14, -4
 155              		.cfi_offset 7, -8
 156              		.cfi_offset 6, -12
 157              		.cfi_offset 5, -16
 158              		.cfi_offset 4, -20
 159              		.cfi_offset 3, -24
 160              		.loc 1 132 0
 161 0002 FFF7FEFF 		bl	chDbgCheckClassI
 162              		.loc 1 136 0
 163 0006 164B     		ldr	r3, .L13
 164 0008 9B69     		ldr	r3, [r3, #24]
 165 000a 93F82320 		ldrb	r2, [r3, #35]	@ zero_extendqisi2
 166 000e 12B1     		cbz	r2, .L8
 167              		.loc 1 138 0
 168 0010 013A     		subs	r2, r2, #1
 169 0012 83F82320 		strb	r2, [r3, #35]
ARM GAS  /tmp/ccknmkdz.s 			page 4


 170              	.L8:
 171              		.loc 1 141 0
 172 0016 5A6A     		ldr	r2, [r3, #36]
 173              		.loc 1 143 0
 174 0018 124C     		ldr	r4, .L13+4
 175              		.loc 1 141 0
 176 001a 571C     		adds	r7, r2, #1
 177 001c 5F62     		str	r7, [r3, #36]
 178              		.loc 1 143 0
 179 001e E168     		ldr	r1, [r4, #12]
 180 0020 2768     		ldr	r7, [r4, #0]
 181 0022 481C     		adds	r0, r1, #1
 182 0024 A742     		cmp	r7, r4
 183 0026 E060     		str	r0, [r4, #12]
 184 0028 18D0     		beq	.L7
 185              	.LBB3:
 186              		.loc 1 143 0 is_stmt 0 discriminator 1
 187 002a BE68     		ldr	r6, [r7, #8]
 188 002c 013E     		subs	r6, r6, #1
 189 002e BE60     		str	r6, [r7, #8]
 190              	.LVL5:
 191 0030 A6B9     		cbnz	r6, .L7
 192              	.LVL6:
 193              	.L11:
 194              	.LBB4:
 195              		.loc 1 143 0 discriminator 3
 196 0032 3868     		ldr	r0, [r7, #0]
 197 0034 FD68     		ldr	r5, [r7, #12]
 198              	.LVL7:
 199 0036 4460     		str	r4, [r0, #4]
 200 0038 FE60     		str	r6, [r7, #12]
 201 003a 2060     		str	r0, [r4, #0]
 202 003c FFF7FEFF 		bl	dbg_check_unlock_from_isr
 203              	.LVL8:
 204              	.LBB5:
 205 0040 0023     		movs	r3, #0
 206              	.LVL9:
 207              	@ 143 "../../ChibiOS/os/kernel/src/chsys.c" 1
 208 0042 83F31188 		msr     BASEPRI, r3
 209              	@ 0 "" 2
 210              	.LVL10:
 211              		.thumb
 212              	.LBE5:
 213 0046 3869     		ldr	r0, [r7, #16]
 214 0048 A847     		blx	r5
 215              	.LVL11:
 216              	.LBB6:
 217 004a 2023     		movs	r3, #32
 218              	.LVL12:
 219              	@ 143 "../../ChibiOS/os/kernel/src/chsys.c" 1
 220 004c 83F31188 		msr     BASEPRI, r3
 221              	@ 0 "" 2
 222              	.LVL13:
 223              		.thumb
 224              	.LBE6:
 225 0050 FFF7FEFF 		bl	dbg_check_lock_from_isr
 226              	.LVL14:
ARM GAS  /tmp/ccknmkdz.s 			page 5


 227              	.LBE4:
 228 0054 2768     		ldr	r7, [r4, #0]
 229              	.LVL15:
 230 0056 BB68     		ldr	r3, [r7, #8]
 231 0058 002B     		cmp	r3, #0
 232 005a EAD0     		beq	.L11
 233              	.LVL16:
 234              	.L7:
 235 005c F8BD     		pop	{r3, r4, r5, r6, r7, pc}
 236              	.L14:
 237 005e 00BF     		.align	2
 238              	.L13:
 239 0060 00000000 		.word	rlist
 240 0064 00000000 		.word	vtlist
 241              	.LBE3:
 242              		.cfi_endproc
 243              	.LFE9:
 244              		.size	chSysTimerHandlerI, .-chSysTimerHandlerI
 245              		.global	_idle_thread_wa
 246 0068 AFF30080 		.section	.bss.mainthread.4704,"aw",%nobits
 246      AFF30080 
 247              		.align	2
 248              		.set	.LANCHOR0,. + 0
 249              		.type	mainthread.4704, %object
 250              		.size	mainthread.4704, 76
 251              	mainthread.4704:
 252 0000 00000000 		.space	76
 252      00000000 
 252      00000000 
 252      00000000 
 252      00000000 
 253              		.section	.rodata.str1.4,"aMS",%progbits,1
 254              		.align	2
 255              	.LC0:
 256 0000 69646C65 		.ascii	"idle\000"
 256      00
 257 0005 000000   		.section	.bss._idle_thread_wa,"aw",%nobits
 258              		.align	3
 259              		.set	.LANCHOR1,. + 0
 260              		.type	_idle_thread_wa, %object
 261              		.size	_idle_thread_wa, 416
 262              	_idle_thread_wa:
 263 0000 00000000 		.space	416
 263      00000000 
 263      00000000 
 263      00000000 
 263      00000000 
 264              		.text
 265              	.Letext0:
 266              		.file 2 "/home/tino/ChibiStudio/tools/GNU Tools ARM Embedded/4.6 2012q2/bin/../lib/gcc/arm-none-ea
 267              		.file 3 "../../ChibiOS/os/ports/GCC/ARMCMx/chtypes.h"
 268              		.file 4 "../../ChibiOS/os/kernel/include/chlists.h"
 269              		.file 5 "../../ChibiOS/os/kernel/include/chthreads.h"
 270              		.file 6 "../../ChibiOS/os/ports/GCC/ARMCMx/chcore_v7m.h"
 271              		.file 7 "../../ChibiOS/os/kernel/include/chvt.h"
 272              		.file 8 "../../ChibiOS/os/kernel/include/chschd.h"
 273              		.file 9 "../../ChibiOS/os/kernel/include/chmtx.h"
ARM GAS  /tmp/ccknmkdz.s 			page 6


 274              		.file 10 "../../ChibiOS/os/kernel/include/chregistry.h"
 275              		.file 11 "../../ChibiOS/os/kernel/include/ch.h"