ARM GAS  /tmp/ccDJhnOM.s 			page 1


   1              		.syntax unified
   2              		.cpu cortex-m3
   3              		.fpu softvfp
   4              		.eabi_attribute 20, 1
   5              		.eabi_attribute 21, 1
   6              		.eabi_attribute 23, 3
   7              		.eabi_attribute 24, 1
   8              		.eabi_attribute 25, 1
   9              		.eabi_attribute 26, 1
  10              		.eabi_attribute 30, 2
  11              		.eabi_attribute 34, 1
  12              		.eabi_attribute 18, 4
  13              		.thumb
  14              		.file	"chthreads.c"
  15              		.text
  16              	.Ltext0:
  17              		.cfi_sections	.debug_frame
  18              		.section	.text._thread_init,"ax",%progbits
  19              		.align	2
  20              		.p2align 4,,15
  21              		.global	_thread_init
  22              		.thumb
  23              		.thumb_func
  24              		.type	_thread_init, %function
  25              	_thread_init:
  26              	.LFB7:
  27              		.file 1 "../../ChibiOS/os/kernel/src/chthreads.c"
  28              		.loc 1 69 0
  29              		.cfi_startproc
  30              		@ args = 0, pretend = 0, frame = 0
  31              		@ frame_needed = 0, uses_anonymous_args = 0
  32              		@ link register save eliminated.
  33              	.LVL0:
  34              		.loc 1 92 0
  35 0000 40F20003 		movw	r3, #:lower16:rlist
  36 0004 C0F20003 		movt	r3, #:upper16:rlist
  37              		.loc 1 69 0
  38 0008 F0B4     		push	{r4, r5, r6, r7}
  39              	.LCFI0:
  40              		.cfi_def_cfa_offset 16
  41              		.cfi_offset 7, -4
  42              		.cfi_offset 6, -8
  43              		.cfi_offset 5, -12
  44              		.cfi_offset 4, -16
  45              		.loc 1 92 0
  46 000a 5C69     		ldr	r4, [r3, #20]
  47 000c 0361     		str	r3, [r0, #16]
  48              		.loc 1 71 0
  49 000e 8160     		str	r1, [r0, #8]
  50              		.loc 1 92 0
  51 0010 4461     		str	r4, [r0, #20]
  52 0012 5861     		str	r0, [r3, #20]
  53              		.loc 1 75 0
  54 0014 1423     		movs	r3, #20
  55              		.loc 1 73 0
  56 0016 0022     		movs	r2, #0
  57              		.loc 1 98 0
ARM GAS  /tmp/ccDJhnOM.s 			page 2


  58 0018 00F13005 		add	r5, r0, #48
  59              		.loc 1 95 0
  60 001c 00F12C07 		add	r7, r0, #44
  61              		.loc 1 101 0
  62 0020 00F14C06 		add	r6, r0, #76
  63              		.loc 1 72 0
  64 0024 4FF0020C 		mov	ip, #2
  65              		.loc 1 75 0
  66 0028 80F82330 		strb	r3, [r0, #35]
  67              		.loc 1 88 0
  68 002c 0123     		movs	r3, #1
  69              		.loc 1 72 0
  70 002e 80F820C0 		strb	ip, [r0, #32]
  71              		.loc 1 73 0
  72 0032 80F82120 		strb	r2, [r0, #33]
  73              		.loc 1 78 0
  74 0036 4164     		str	r1, [r0, #68]
  75              		.loc 1 79 0
  76 0038 0264     		str	r2, [r0, #64]
  77              		.loc 1 82 0
  78 003a C263     		str	r2, [r0, #60]
  79              		.loc 1 85 0
  80 003c 4262     		str	r2, [r0, #36]
  81              		.loc 1 88 0
  82 003e 80F82230 		strb	r3, [r0, #34]
  83              		.loc 1 91 0
  84 0042 8261     		str	r2, [r0, #24]
  85              		.loc 1 92 0
  86 0044 2061     		str	r0, [r4, #16]
  87              		.loc 1 95 0
  88 0046 C762     		str	r7, [r0, #44]
  89              		.loc 1 98 0
  90 0048 4563     		str	r5, [r0, #52]
  91 004a 0563     		str	r5, [r0, #48]
  92              		.loc 1 101 0
  93 004c C661     		str	r6, [r0, #28]
  94              		.loc 1 107 0
  95 004e F0BC     		pop	{r4, r5, r6, r7}
  96 0050 7047     		bx	lr
  97              		.cfi_endproc
  98              	.LFE7:
  99              		.size	_thread_init, .-_thread_init
 100 0052 00BFAFF3 		.section	.text._thread_memfill,"ax",%progbits
 100      0080AFF3 
 100      0080AFF3 
 100      0080
 101              		.align	2
 102              		.p2align 4,,15
 103              		.global	_thread_memfill
 104              		.thumb
 105              		.thumb_func
 106              		.type	_thread_memfill, %function
 107              	_thread_memfill:
 108              	.LFB8:
 109              		.loc 1 119 0
 110              		.cfi_startproc
 111              		@ args = 0, pretend = 0, frame = 0
ARM GAS  /tmp/ccDJhnOM.s 			page 3


 112              		@ frame_needed = 0, uses_anonymous_args = 0
 113              		@ link register save eliminated.
 114              	.LVL1:
 115              		.loc 1 121 0
 116 0000 8842     		cmp	r0, r1
 117              		.loc 1 119 0
 118 0002 2DE9F003 		push	{r4, r5, r6, r7, r8, r9}
 119              	.LCFI1:
 120              		.cfi_def_cfa_offset 24
 121              		.cfi_offset 9, -4
 122              		.cfi_offset 8, -8
 123              		.cfi_offset 7, -12
 124              		.cfi_offset 6, -16
 125              		.cfi_offset 5, -20
 126              		.cfi_offset 4, -24
 127              		.loc 1 121 0
 128 0006 6DD2     		bcs	.L2
 129              		.loc 1 119 0
 130 0008 4742     		negs	r7, r0
 131 000a C0EB010C 		rsb	ip, r0, r1
 132 000e 07F00307 		and	r7, r7, #3
 133 0012 BC45     		cmp	ip, r7
 134 0014 38BF     		it	cc
 135 0016 6746     		movcc	r7, ip
 136 0018 461C     		adds	r6, r0, #1
 137 001a 002F     		cmp	r7, #0
 138 001c 65D0     		beq	.L9
 139              		.loc 1 122 0
 140 001e 0125     		movs	r5, #1
 141 0020 7B1E     		subs	r3, r7, #1
 142 0022 AF42     		cmp	r7, r5
 143 0024 03F00108 		and	r8, r3, #1
 144 0028 0270     		strb	r2, [r0, #0]
 145 002a 3446     		mov	r4, r6
 146 002c 3346     		mov	r3, r6
 147 002e 12D9     		bls	.L30
 148 0030 B8F1000F 		cmp	r8, #0
 149 0034 06D0     		beq	.L5
 150 0036 3446     		mov	r4, r6
 151 0038 0225     		movs	r5, #2
 152 003a 04F8012B 		strb	r2, [r4], #1
 153 003e AF42     		cmp	r7, r5
 154 0040 2346     		mov	r3, r4
 155 0042 08D9     		bls	.L30
 156              	.L5:
 157 0044 2346     		mov	r3, r4
 158 0046 03F8012B 		strb	r2, [r3], #1
 159 004a 0235     		adds	r5, r5, #2
 160 004c 6270     		strb	r2, [r4, #1]
 161 004e 5C1C     		adds	r4, r3, #1
 162 0050 AF42     		cmp	r7, r5
 163 0052 2346     		mov	r3, r4
 164 0054 F6D8     		bhi	.L5
 165              	.L30:
 166 0056 BC45     		cmp	ip, r7
 167 0058 44D0     		beq	.L2
 168              	.L4:
ARM GAS  /tmp/ccDJhnOM.s 			page 4


 169              		.loc 1 119 0
 170 005a C6EB0109 		rsb	r9, r6, r1
 171 005e 09F10108 		add	r8, r9, #1
 172              		.loc 1 122 0
 173 0062 C7EB0808 		rsb	r8, r7, r8
 174 0066 4FEA980C 		lsr	ip, r8, #2
 175 006a 4FEA8C09 		lsl	r9, ip, #2
 176 006e BCF1000F 		cmp	ip, #0
 177 0072 23D0     		beq	.L27
 178 0074 0026     		movs	r6, #0
 179 0076 62F30706 		bfi	r6, r2, #0, #8
 180 007a 62F30F26 		bfi	r6, r2, #8, #8
 181 007e 0125     		movs	r5, #1
 182 0080 62F31746 		bfi	r6, r2, #16, #8
 183 0084 62F31F66 		bfi	r6, r2, #24, #8
 184 0088 0CF1FF34 		add	r4, ip, #-1
 185 008c C019     		adds	r0, r0, r7
 186              	.LVL2:
 187 008e 6545     		cmp	r5, ip
 188 0090 40F8046B 		str	r6, [r0], #4
 189 0094 04EA0504 		and	r4, r4, r5
 190 0098 0DD2     		bcs	.L31
 191 009a 24B1     		cbz	r4, .L7
 192 009c 0225     		movs	r5, #2
 193 009e 6545     		cmp	r5, ip
 194 00a0 40F8046B 		str	r6, [r0], #4
 195 00a4 07D2     		bcs	.L31
 196              	.L7:
 197 00a6 0446     		mov	r4, r0
 198 00a8 44F8046B 		str	r6, [r4], #4
 199 00ac 0235     		adds	r5, r5, #2
 200 00ae 4660     		str	r6, [r0, #4]
 201 00b0 201D     		adds	r0, r4, #4
 202 00b2 6545     		cmp	r5, ip
 203 00b4 F7D3     		bcc	.L7
 204              	.L31:
 205 00b6 C845     		cmp	r8, r9
 206 00b8 4B44     		add	r3, r3, r9
 207 00ba 13D0     		beq	.L2
 208              	.L27:
 209 00bc D843     		mvns	r0, r3
 210 00be 03F8012B 		strb	r2, [r3], #1
 211 00c2 0818     		adds	r0, r1, r0
 212              		.loc 1 121 0
 213 00c4 9942     		cmp	r1, r3
 214 00c6 00F00100 		and	r0, r0, #1
 215              	.LVL3:
 216 00ca 0BD9     		bls	.L2
 217 00cc 18B1     		cbz	r0, .L10
 218              		.loc 1 122 0
 219 00ce 03F8012B 		strb	r2, [r3], #1
 220              	.LVL4:
 221              		.loc 1 121 0
 222 00d2 9942     		cmp	r1, r3
 223 00d4 06D9     		bls	.L2
 224              	.L10:
 225              		.loc 1 122 0
ARM GAS  /tmp/ccDJhnOM.s 			page 5


 226 00d6 1846     		mov	r0, r3
 227 00d8 00F8012B 		strb	r2, [r0], #1
 228 00dc 5A70     		strb	r2, [r3, #1]
 229 00de 431C     		adds	r3, r0, #1
 230              		.loc 1 121 0
 231 00e0 9942     		cmp	r1, r3
 232 00e2 F8D8     		bhi	.L10
 233              	.L2:
 234              		.loc 1 123 0
 235 00e4 BDE8F003 		pop	{r4, r5, r6, r7, r8, r9}
 236 00e8 7047     		bx	lr
 237              	.LVL5:
 238              	.L9:
 239              		.loc 1 119 0
 240 00ea 0346     		mov	r3, r0
 241 00ec B5E7     		b	.L4
 242              		.cfi_endproc
 243              	.LFE8:
 244              		.size	_thread_memfill, .-_thread_memfill
 245 00ee 00BF     		.section	.text.chThdCreateI,"ax",%progbits
 246              		.align	2
 247              		.p2align 4,,15
 248              		.global	chThdCreateI
 249              		.thumb
 250              		.thumb_func
 251              		.type	chThdCreateI, %function
 252              	chThdCreateI:
 253              	.LFB9:
 254              		.loc 1 151 0
 255              		.cfi_startproc
 256              		@ args = 4, pretend = 0, frame = 0
 257              		@ frame_needed = 0, uses_anonymous_args = 0
 258              	.LVL6:
 259 0000 2DE9F843 		push	{r3, r4, r5, r6, r7, r8, r9, lr}
 260              	.LCFI2:
 261              		.cfi_def_cfa_offset 32
 262              		.cfi_offset 14, -4
 263              		.cfi_offset 9, -8
 264              		.cfi_offset 8, -12
 265              		.cfi_offset 7, -16
 266              		.cfi_offset 6, -20
 267              		.cfi_offset 5, -24
 268              		.cfi_offset 4, -28
 269              		.cfi_offset 3, -32
 270              		.loc 1 151 0
 271 0004 0446     		mov	r4, r0
 272              	.LVL7:
 273 0006 0D46     		mov	r5, r1
 274 0008 1646     		mov	r6, r2
 275 000a 1F46     		mov	r7, r3
 276              		.loc 1 155 0
 277 000c FFF7FEFF 		bl	chDbgCheckClassI
 278              	.LVL8:
 279              		.loc 1 157 0
 280 0010 14B1     		cbz	r4, .L34
 281              		.loc 1 157 0 is_stmt 0 discriminator 2
 282 0012 B5F5C87F 		cmp	r5, #400
ARM GAS  /tmp/ccDJhnOM.s 			page 6


 283 0016 34D2     		bcs	.L36
 284              	.LVL9:
 285              	.L34:
 286              		.loc 1 157 0 discriminator 1
 287 0018 1C48     		ldr	r0, .L37
 288 001a FFF7FEFF 		bl	chDbgPanic
 289              	.L35:
 290              	.LBB16:
 291              	.LBB17:
 292              		.loc 1 92 0 is_stmt 1
 293 001e 1C4A     		ldr	r2, .L37+4
 294              	.LBE17:
 295              	.LBE16:
 296              		.loc 1 160 0
 297 0020 A5F1240C 		sub	ip, r5, #36
 298 0024 04EB0C01 		add	r1, r4, ip
 299              	.LBB22:
 300              	.LBB18:
 301              		.loc 1 92 0
 302 0028 5569     		ldr	r5, [r2, #20]
 303              	.LVL10:
 304              	.LBE18:
 305              	.LBE22:
 306              		.loc 1 160 0
 307 002a E160     		str	r1, [r4, #12]
 308 002c 44F80C70 		str	r7, [r4, ip]
 309 0030 089F     		ldr	r7, [sp, #32]
 310              	.LVL11:
 311              	.LBB23:
 312              	.LBB19:
 313              		.loc 1 73 0
 314 0032 0023     		movs	r3, #0
 315              	.LBE19:
 316              	.LBE23:
 317              		.loc 1 160 0
 318 0034 4F60     		str	r7, [r1, #4]
 319 0036 174F     		ldr	r7, .L37+8
 320              	.LBB24:
 321              	.LBB20:
 322              		.loc 1 98 0
 323 0038 04F13000 		add	r0, r4, #48
 324              	.LBE20:
 325              	.LBE24:
 326              		.loc 1 160 0
 327 003c 0F62     		str	r7, [r1, #32]
 328              	.LVL12:
 329              	.LBB25:
 330              	.LBB21:
 331              		.loc 1 72 0
 332 003e 0221     		movs	r1, #2
 333              	.LVL13:
 334              		.loc 1 92 0
 335 0040 2261     		str	r2, [r4, #16]
 336              		.loc 1 95 0
 337 0042 04F12C09 		add	r9, r4, #44
 338              		.loc 1 101 0
 339 0046 04F14C08 		add	r8, r4, #76
ARM GAS  /tmp/ccDJhnOM.s 			page 7


 340              		.loc 1 71 0
 341 004a A660     		str	r6, [r4, #8]
 342              		.loc 1 92 0
 343 004c 6561     		str	r5, [r4, #20]
 344              		.loc 1 72 0
 345 004e 84F82010 		strb	r1, [r4, #32]
 346              		.loc 1 92 0
 347 0052 5461     		str	r4, [r2, #20]
 348              		.loc 1 75 0
 349 0054 1421     		movs	r1, #20
 350              		.loc 1 88 0
 351 0056 0122     		movs	r2, #1
 352              		.loc 1 98 0
 353 0058 6063     		str	r0, [r4, #52]
 354 005a 2063     		str	r0, [r4, #48]
 355              		.loc 1 73 0
 356 005c 84F82130 		strb	r3, [r4, #33]
 357              		.loc 1 75 0
 358 0060 84F82310 		strb	r1, [r4, #35]
 359              		.loc 1 78 0
 360 0064 6664     		str	r6, [r4, #68]
 361              		.loc 1 79 0
 362 0066 2364     		str	r3, [r4, #64]
 363              		.loc 1 82 0
 364 0068 E363     		str	r3, [r4, #60]
 365              		.loc 1 85 0
 366 006a 6362     		str	r3, [r4, #36]
 367              		.loc 1 88 0
 368 006c 84F82220 		strb	r2, [r4, #34]
 369              		.loc 1 91 0
 370 0070 A361     		str	r3, [r4, #24]
 371              		.loc 1 92 0
 372 0072 2C61     		str	r4, [r5, #16]
 373              		.loc 1 95 0
 374 0074 C4F82C90 		str	r9, [r4, #44]
 375              		.loc 1 101 0
 376 0078 C4F81C80 		str	r8, [r4, #28]
 377              	.LBE21:
 378              	.LBE25:
 379              		.loc 1 162 0
 380 007c 2046     		mov	r0, r4
 381 007e BDE8F883 		pop	{r3, r4, r5, r6, r7, r8, r9, pc}
 382              	.LVL14:
 383              	.L36:
 384              		.loc 1 157 0 discriminator 3
 385 0082 7F2E     		cmp	r6, #127
 386 0084 C8D8     		bhi	.L34
 387              		.loc 1 157 0 is_stmt 0 discriminator 4
 388 0086 002F     		cmp	r7, #0
 389 0088 C9D1     		bne	.L35
 390 008a C5E7     		b	.L34
 391              	.L38:
 392              		.align	2
 393              	.L37:
 394 008c 00000000 		.word	.LC0
 395 0090 00000000 		.word	rlist
 396 0094 00000000 		.word	_port_thread_start
ARM GAS  /tmp/ccDJhnOM.s 			page 8


 397              		.cfi_endproc
 398              	.LFE9:
 399              		.size	chThdCreateI, .-chThdCreateI
 400 0098 AFF30080 		.section	.text.chThdCreateStatic,"ax",%progbits
 400      AFF30080 
 401              		.align	2
 402              		.p2align 4,,15
 403              		.global	chThdCreateStatic
 404              		.thumb
 405              		.thumb_func
 406              		.type	chThdCreateStatic, %function
 407              	chThdCreateStatic:
 408              	.LFB10:
 409              		.loc 1 181 0 is_stmt 1
 410              		.cfi_startproc
 411              		@ args = 4, pretend = 0, frame = 0
 412              		@ frame_needed = 0, uses_anonymous_args = 0
 413              	.LVL15:
 414 0000 2DE9F84F 		push	{r3, r4, r5, r6, r7, r8, r9, sl, fp, lr}
 415              	.LCFI3:
 416              		.cfi_def_cfa_offset 40
 417              		.cfi_offset 14, -4
 418              		.cfi_offset 11, -8
 419              		.cfi_offset 10, -12
 420              		.cfi_offset 9, -16
 421              		.cfi_offset 8, -20
 422              		.cfi_offset 7, -24
 423              		.cfi_offset 6, -28
 424              		.cfi_offset 5, -32
 425              		.cfi_offset 4, -36
 426              		.cfi_offset 3, -40
 427              		.loc 1 181 0
 428 0004 0446     		mov	r4, r0
 429              		.loc 1 180 0
 430 0006 4042     		negs	r0, r0
 431              	.LVL16:
 432              		.loc 1 181 0
 433 0008 0E46     		mov	r6, r1
 434              		.loc 1 185 0
 435 000a 10F00301 		ands	r1, r0, #3
 436              	.LVL17:
 437              		.loc 1 181 0
 438 000e 1746     		mov	r7, r2
 439 0010 9846     		mov	r8, r3
 440              		.loc 1 185 0
 441 0012 04F14C05 		add	r5, r4, #76
 442              	.LVL18:
 443 0016 00F02181 		beq	.L56
 444 001a 4A1E     		subs	r2, r1, #1
 445              	.LVL19:
 446 001c 02F0010C 		and	ip, r2, #1
 447              	.LBB36:
 448              	.LBB37:
 449              		.loc 1 122 0
 450 0020 0122     		movs	r2, #1
 451 0022 FF20     		movs	r0, #255
 452 0024 2346     		mov	r3, r4
ARM GAS  /tmp/ccDJhnOM.s 			page 9


 453              	.LVL20:
 454 0026 9142     		cmp	r1, r2
 455 0028 03F8010B 		strb	r0, [r3], #1
 456 002c 4FF04B0E 		mov	lr, #75
 457 0030 14D9     		bls	.L40
 458 0032 BCF1000F 		cmp	ip, #0
 459 0036 06D0     		beq	.L41
 460 0038 0222     		movs	r2, #2
 461 003a 0133     		adds	r3, r3, #1
 462              	.LVL21:
 463 003c 9142     		cmp	r1, r2
 464 003e 6070     		strb	r0, [r4, #1]
 465 0040 4FF04A0E 		mov	lr, #74
 466 0044 0AD9     		bls	.L40
 467              	.L41:
 468 0046 02F1010E 		add	lr, r2, #1
 469 004a A054     		strb	r0, [r4, r2]
 470 004c 0232     		adds	r2, r2, #2
 471 004e 0233     		adds	r3, r3, #2
 472 0050 9142     		cmp	r1, r2
 473 0052 04F80E00 		strb	r0, [r4, lr]
 474 0056 CEF14B0E 		rsb	lr, lr, #75
 475 005a F4D8     		bhi	.L41
 476              	.L40:
 477 005c C1F14C0B 		rsb	fp, r1, #76
 478 0060 4FEA9B09 		lsr	r9, fp, #2
 479 0064 4FEA890A 		lsl	sl, r9, #2
 480 0068 B9F1000F 		cmp	r9, #0
 481 006c 1FD0     		beq	.L42
 482 006e 4FF0FF3C 		mov	ip, #-1
 483 0072 0120     		movs	r0, #1
 484 0074 09EB0C02 		add	r2, r9, ip
 485 0078 6118     		adds	r1, r4, r1
 486 007a 4845     		cmp	r0, r9
 487 007c 41F804CB 		str	ip, [r1], #4
 488 0080 02EA0002 		and	r2, r2, r0
 489 0084 0ED2     		bcs	.L95
 490 0086 22B1     		cbz	r2, .L43
 491 0088 0220     		movs	r0, #2
 492 008a 4845     		cmp	r0, r9
 493 008c 41F804CB 		str	ip, [r1], #4
 494 0090 08D2     		bcs	.L95
 495              	.L43:
 496 0092 0A46     		mov	r2, r1
 497 0094 42F804CB 		str	ip, [r2], #4
 498 0098 0230     		adds	r0, r0, #2
 499 009a C1F804C0 		str	ip, [r1, #4]
 500 009e 111D     		adds	r1, r2, #4
 501 00a0 4845     		cmp	r0, r9
 502 00a2 F6D3     		bcc	.L43
 503              	.L95:
 504 00a4 D345     		cmp	fp, sl
 505 00a6 5344     		add	r3, r3, sl
 506 00a8 CAEB0E0E 		rsb	lr, sl, lr
 507 00ac 13D0     		beq	.L44
 508              	.L42:
 509 00ae 0122     		movs	r2, #1
ARM GAS  /tmp/ccDJhnOM.s 			page 10


 510 00b0 FF20     		movs	r0, #255
 511 00b2 0EF1FF31 		add	r1, lr, #-1
 512              		.loc 1 121 0
 513 00b6 7245     		cmp	r2, lr
 514              		.loc 1 122 0
 515 00b8 1870     		strb	r0, [r3, #0]
 516 00ba 01EA0201 		and	r1, r1, r2
 517              		.loc 1 121 0
 518 00be 0AD0     		beq	.L44
 519 00c0 19B1     		cbz	r1, .L45
 520              		.loc 1 122 0
 521 00c2 0222     		movs	r2, #2
 522              		.loc 1 121 0
 523 00c4 7245     		cmp	r2, lr
 524              		.loc 1 122 0
 525 00c6 5870     		strb	r0, [r3, #1]
 526              		.loc 1 121 0
 527 00c8 05D0     		beq	.L44
 528              	.L45:
 529              		.loc 1 122 0
 530 00ca 511C     		adds	r1, r2, #1
 531 00cc 9854     		strb	r0, [r3, r2]
 532 00ce 0232     		adds	r2, r2, #2
 533              		.loc 1 121 0
 534 00d0 7245     		cmp	r2, lr
 535              		.loc 1 122 0
 536 00d2 5854     		strb	r0, [r3, r1]
 537              		.loc 1 121 0
 538 00d4 F9D1     		bne	.L45
 539              	.L44:
 540              	.LBE37:
 541              	.LBE36:
 542              		.loc 1 188 0
 543 00d6 04EB060E 		add	lr, r4, r6
 544              	.LVL22:
 545              	.LBB38:
 546              	.LBB39:
 547              		.loc 1 121 0
 548 00da 7545     		cmp	r5, lr
 549 00dc 6AD2     		bcs	.L46
 550              		.loc 1 180 0
 551 00de 6B42     		negs	r3, r5
 552 00e0 C4EB0E09 		rsb	r9, r4, lr
 553 00e4 03F00300 		and	r0, r3, #3
 554              		.loc 1 121 0
 555 00e8 A9F14C09 		sub	r9, r9, #76
 556              		.loc 1 180 0
 557 00ec 8145     		cmp	r9, r0
 558 00ee 38BF     		it	cc
 559 00f0 4846     		movcc	r0, r9
 560              		.loc 1 122 0
 561 00f2 2B46     		mov	r3, r5
 562              		.loc 1 180 0
 563 00f4 F8B1     		cbz	r0, .L47
 564              		.loc 1 122 0
 565 00f6 4FF0550C 		mov	ip, #85
 566 00fa 0121     		movs	r1, #1
ARM GAS  /tmp/ccDJhnOM.s 			page 11


 567 00fc 421E     		subs	r2, r0, #1
 568 00fe 03F801CB 		strb	ip, [r3], #1
 569 0102 8842     		cmp	r0, r1
 570 0104 02F0010A 		and	sl, r2, #1
 571 0108 1A46     		mov	r2, r3
 572              	.LVL23:
 573 010a 12D9     		bls	.L96
 574 010c BAF1000F 		cmp	sl, #0
 575 0110 05D0     		beq	.L48
 576 0112 0221     		movs	r1, #2
 577 0114 03F801CB 		strb	ip, [r3], #1
 578              	.LVL24:
 579 0118 8842     		cmp	r0, r1
 580 011a 1A46     		mov	r2, r3
 581 011c 09D9     		bls	.L96
 582              	.LVL25:
 583              	.L48:
 584 011e 1346     		mov	r3, r2
 585 0120 03F801CB 		strb	ip, [r3], #1
 586 0124 0231     		adds	r1, r1, #2
 587 0126 82F801C0 		strb	ip, [r2, #1]
 588 012a 5A1C     		adds	r2, r3, #1
 589 012c 8842     		cmp	r0, r1
 590 012e 1346     		mov	r3, r2
 591 0130 F5D8     		bhi	.L48
 592              	.L96:
 593 0132 4845     		cmp	r0, r9
 594 0134 3ED0     		beq	.L46
 595              	.L47:
 596 0136 C0EB0909 		rsb	r9, r0, r9
 597 013a 4FEA990C 		lsr	ip, r9, #2
 598 013e 4FEA8C0A 		lsl	sl, ip, #2
 599 0142 BCF1000F 		cmp	ip, #0
 600 0146 1FD0     		beq	.L53
 601 0148 00F14C00 		add	r0, r0, #76
 602 014c 2118     		adds	r1, r4, r0
 603 014e 0120     		movs	r0, #1
 604 0150 4FF0553B 		mov	fp, #1431655765
 605 0154 0CF1FF32 		add	r2, ip, #-1
 606 0158 6045     		cmp	r0, ip
 607 015a 41F804BB 		str	fp, [r1], #4
 608 015e 02EA0002 		and	r2, r2, r0
 609 0162 0ED2     		bcs	.L97
 610 0164 22B1     		cbz	r2, .L51
 611 0166 0220     		movs	r0, #2
 612 0168 6045     		cmp	r0, ip
 613 016a 41F804BB 		str	fp, [r1], #4
 614 016e 08D2     		bcs	.L97
 615              	.L51:
 616 0170 0A46     		mov	r2, r1
 617 0172 42F804BB 		str	fp, [r2], #4
 618 0176 0230     		adds	r0, r0, #2
 619 0178 C1F804B0 		str	fp, [r1, #4]
 620 017c 111D     		adds	r1, r2, #4
 621 017e 6045     		cmp	r0, ip
 622 0180 F6D3     		bcc	.L51
 623              	.L97:
ARM GAS  /tmp/ccDJhnOM.s 			page 12


 624 0182 D145     		cmp	r9, sl
 625 0184 5344     		add	r3, r3, sl
 626 0186 15D0     		beq	.L46
 627              	.L53:
 628 0188 5521     		movs	r1, #85
 629 018a DA43     		mvns	r2, r3
 630 018c 03F8011B 		strb	r1, [r3], #1
 631 0190 0EEB0200 		add	r0, lr, r2
 632              		.loc 1 121 0
 633 0194 9E45     		cmp	lr, r3
 634 0196 00F00102 		and	r2, r0, #1
 635              	.LVL26:
 636 019a 0BD9     		bls	.L46
 637 019c 1AB1     		cbz	r2, .L58
 638              		.loc 1 122 0
 639 019e 03F8011B 		strb	r1, [r3], #1
 640              	.LVL27:
 641              		.loc 1 121 0
 642 01a2 9E45     		cmp	lr, r3
 643 01a4 06D9     		bls	.L46
 644              	.L58:
 645              		.loc 1 122 0
 646 01a6 1846     		mov	r0, r3
 647 01a8 00F8011B 		strb	r1, [r0], #1
 648 01ac 5970     		strb	r1, [r3, #1]
 649 01ae 431C     		adds	r3, r0, #1
 650              		.loc 1 121 0
 651 01b0 9E45     		cmp	lr, r3
 652 01b2 F8D8     		bhi	.L58
 653              	.L46:
 654              	.LBE39:
 655              	.LBE38:
 656              	.LBB40:
 657              		.loc 1 192 0
 658 01b4 2023     		movs	r3, #32
 659              	.LVL28:
 660              	@ 192 "../../ChibiOS/os/kernel/src/chthreads.c" 1
 661 01b6 83F31188 		msr     BASEPRI, r3
 662              	@ 0 "" 2
 663              	.LVL29:
 664              		.thumb
 665              	.LBE40:
 666 01ba FFF7FEFF 		bl	dbg_check_lock
 667              	.LVL30:
 668              	.LBB41:
 669              	.LBB42:
 670              		.loc 1 155 0
 671 01be FFF7FEFF 		bl	chDbgCheckClassI
 672              		.loc 1 157 0
 673 01c2 14B1     		cbz	r4, .L54
 674 01c4 B6F5C87F 		cmp	r6, #400
 675 01c8 42D2     		bcs	.L98
 676              	.L54:
 677 01ca 2648     		ldr	r0, .L99
 678 01cc FFF7FEFF 		bl	chDbgPanic
 679              	.L55:
 680              	.LBB43:
ARM GAS  /tmp/ccDJhnOM.s 			page 13


 681              	.LBB44:
 682              		.loc 1 92 0
 683 01d0 254B     		ldr	r3, .L99+4
 684              	.LBE44:
 685              	.LBE43:
 686              		.loc 1 160 0
 687 01d2 A6F12409 		sub	r9, r6, #36
 688 01d6 04EB0901 		add	r1, r4, r9
 689              	.LBB50:
 690              	.LBB45:
 691              		.loc 1 92 0
 692 01da D3F814E0 		ldr	lr, [r3, #20]
 693              	.LBE45:
 694              	.LBE50:
 695              		.loc 1 160 0
 696 01de E160     		str	r1, [r4, #12]
 697 01e0 44F80980 		str	r8, [r4, r9]
 698 01e4 DDF82880 		ldr	r8, [sp, #40]
 699              	.LVL31:
 700              	.LBB51:
 701              	.LBB46:
 702              		.loc 1 73 0
 703 01e8 0026     		movs	r6, #0
 704              	.LVL32:
 705              	.LBE46:
 706              	.LBE51:
 707              		.loc 1 160 0
 708 01ea C1F80480 		str	r8, [r1, #4]
 709 01ee DFF87C80 		ldr	r8, .L99+8
 710              	.LBB52:
 711              	.LBB47:
 712              		.loc 1 98 0
 713 01f2 04F13002 		add	r2, r4, #48
 714              	.LBE47:
 715              	.LBE52:
 716              		.loc 1 160 0
 717 01f6 C1F82080 		str	r8, [r1, #32]
 718              	.LVL33:
 719              	.LBB53:
 720              	.LBB48:
 721              		.loc 1 92 0
 722 01fa 2361     		str	r3, [r4, #16]
 723 01fc C4F814E0 		str	lr, [r4, #20]
 724              		.loc 1 71 0
 725 0200 A760     		str	r7, [r4, #8]
 726              		.loc 1 92 0
 727 0202 5C61     		str	r4, [r3, #20]
 728              		.loc 1 75 0
 729 0204 1423     		movs	r3, #20
 730              		.loc 1 95 0
 731 0206 04F12C0C 		add	ip, r4, #44
 732              		.loc 1 75 0
 733 020a 84F82330 		strb	r3, [r4, #35]
 734              		.loc 1 72 0
 735 020e 4FF00208 		mov	r8, #2
 736              		.loc 1 88 0
 737 0212 0123     		movs	r3, #1
ARM GAS  /tmp/ccDJhnOM.s 			page 14


 738 0214 84F82230 		strb	r3, [r4, #34]
 739              	.LBE48:
 740              	.LBE53:
 741              	.LBE42:
 742              	.LBE41:
 743              		.loc 1 193 0
 744 0218 2046     		mov	r0, r4
 745 021a 3146     		mov	r1, r6
 746              	.LVL34:
 747              	.LBB57:
 748              	.LBB55:
 749              	.LBB54:
 750              	.LBB49:
 751              		.loc 1 92 0
 752 021c CEF81040 		str	r4, [lr, #16]
 753              		.loc 1 95 0
 754 0220 C4F82CC0 		str	ip, [r4, #44]
 755              		.loc 1 98 0
 756 0224 6263     		str	r2, [r4, #52]
 757 0226 2263     		str	r2, [r4, #48]
 758              		.loc 1 72 0
 759 0228 84F82080 		strb	r8, [r4, #32]
 760              		.loc 1 73 0
 761 022c 84F82160 		strb	r6, [r4, #33]
 762              		.loc 1 78 0
 763 0230 6764     		str	r7, [r4, #68]
 764              		.loc 1 79 0
 765 0232 2664     		str	r6, [r4, #64]
 766              		.loc 1 82 0
 767 0234 E663     		str	r6, [r4, #60]
 768              		.loc 1 85 0
 769 0236 6662     		str	r6, [r4, #36]
 770              		.loc 1 91 0
 771 0238 A661     		str	r6, [r4, #24]
 772              		.loc 1 101 0
 773 023a E561     		str	r5, [r4, #28]
 774              	.LBE49:
 775              	.LBE54:
 776              	.LBE55:
 777              	.LBE57:
 778              		.loc 1 193 0
 779 023c FFF7FEFF 		bl	chSchWakeupS
 780              	.LVL35:
 781              		.loc 1 194 0
 782 0240 FFF7FEFF 		bl	dbg_check_unlock
 783              	.LBB58:
 784 0244 3346     		mov	r3, r6
 785              	.LVL36:
 786              	@ 194 "../../ChibiOS/os/kernel/src/chthreads.c" 1
 787 0246 83F31188 		msr     BASEPRI, r3
 788              	@ 0 "" 2
 789              	.LVL37:
 790              		.thumb
 791              	.LBE58:
 792              		.loc 1 196 0
 793 024a 2046     		mov	r0, r4
 794 024c BDE8F88F 		pop	{r3, r4, r5, r6, r7, r8, r9, sl, fp, pc}
ARM GAS  /tmp/ccDJhnOM.s 			page 15


 795              	.LVL38:
 796              	.L98:
 797              	.LBB59:
 798              	.LBB56:
 799              		.loc 1 157 0
 800 0250 7F2F     		cmp	r7, #127
 801 0252 BAD8     		bhi	.L54
 802 0254 B8F1000F 		cmp	r8, #0
 803 0258 BAD1     		bne	.L55
 804 025a B6E7     		b	.L54
 805              	.LVL39:
 806              	.L56:
 807              	.LBE56:
 808              	.LBE59:
 809              		.loc 1 180 0
 810 025c 2346     		mov	r3, r4
 811 025e 4FF04C0E 		mov	lr, #76
 812 0262 FBE6     		b	.L40
 813              	.L100:
 814              		.align	2
 815              	.L99:
 816 0264 00000000 		.word	.LC0
 817 0268 00000000 		.word	rlist
 818 026c 00000000 		.word	_port_thread_start
 819              		.cfi_endproc
 820              	.LFE10:
 821              		.size	chThdCreateStatic, .-chThdCreateStatic
 822              		.section	.text.chThdSetPriority,"ax",%progbits
 823              		.align	2
 824              		.p2align 4,,15
 825              		.global	chThdSetPriority
 826              		.thumb
 827              		.thumb_func
 828              		.type	chThdSetPriority, %function
 829              	chThdSetPriority:
 830              	.LFB11:
 831              		.loc 1 210 0
 832              		.cfi_startproc
 833              		@ args = 0, pretend = 0, frame = 0
 834              		@ frame_needed = 0, uses_anonymous_args = 0
 835              	.LVL40:
 836              		.loc 1 213 0
 837 0000 7F28     		cmp	r0, #127
 838              		.loc 1 210 0
 839 0002 38B5     		push	{r3, r4, r5, lr}
 840              	.LCFI4:
 841              		.cfi_def_cfa_offset 16
 842              		.cfi_offset 14, -4
 843              		.cfi_offset 5, -8
 844              		.cfi_offset 4, -12
 845              		.cfi_offset 3, -16
 846              		.loc 1 210 0
 847 0004 0446     		mov	r4, r0
 848              		.loc 1 213 0
 849 0006 17D8     		bhi	.L105
 850              	.LVL41:
 851              	.L102:
ARM GAS  /tmp/ccDJhnOM.s 			page 16


 852              	.LBB60:
 853              		.loc 1 215 0
 854 0008 2023     		movs	r3, #32
 855              	.LVL42:
 856              	@ 215 "../../ChibiOS/os/kernel/src/chthreads.c" 1
 857 000a 83F31188 		msr     BASEPRI, r3
 858              	@ 0 "" 2
 859              	.LVL43:
 860              		.thumb
 861              	.LBE60:
 862 000e FFF7FEFF 		bl	dbg_check_lock
 863              	.LVL44:
 864              		.loc 1 217 0
 865 0012 0B4B     		ldr	r3, .L106
 866 0014 9B69     		ldr	r3, [r3, #24]
 867 0016 5D6C     		ldr	r5, [r3, #68]
 868              	.LVL45:
 869              		.loc 1 218 0
 870 0018 9A68     		ldr	r2, [r3, #8]
 871 001a 9542     		cmp	r5, r2
 872 001c 01D0     		beq	.L103
 873              		.loc 1 218 0 is_stmt 0 discriminator 1
 874 001e 9442     		cmp	r4, r2
 875 0020 00D9     		bls	.L104
 876              	.L103:
 877              		.loc 1 219 0 is_stmt 1
 878 0022 9C60     		str	r4, [r3, #8]
 879              	.L104:
 880              		.loc 1 220 0
 881 0024 5C64     		str	r4, [r3, #68]
 882              		.loc 1 225 0
 883 0026 FFF7FEFF 		bl	chSchRescheduleS
 884              	.LVL46:
 885              		.loc 1 226 0
 886 002a FFF7FEFF 		bl	dbg_check_unlock
 887              	.LBB61:
 888 002e 0023     		movs	r3, #0
 889              	.LVL47:
 890              	@ 226 "../../ChibiOS/os/kernel/src/chthreads.c" 1
 891 0030 83F31188 		msr     BASEPRI, r3
 892              	@ 0 "" 2
 893              	.LVL48:
 894              		.thumb
 895              	.LBE61:
 896              		.loc 1 228 0
 897 0034 2846     		mov	r0, r5
 898 0036 38BD     		pop	{r3, r4, r5, pc}
 899              	.LVL49:
 900              	.L105:
 901              		.loc 1 213 0 discriminator 1
 902 0038 0248     		ldr	r0, .L106+4
 903 003a FFF7FEFF 		bl	chDbgPanic
 904 003e E3E7     		b	.L102
 905              	.L107:
 906              		.align	2
 907              	.L106:
 908 0040 00000000 		.word	rlist
ARM GAS  /tmp/ccDJhnOM.s 			page 17


 909 0044 14000000 		.word	.LC1
 910              		.cfi_endproc
 911              	.LFE11:
 912              		.size	chThdSetPriority, .-chThdSetPriority
 913 0048 AFF30080 		.section	.text.chThdResume,"ax",%progbits
 913      AFF30080 
 914              		.align	2
 915              		.p2align 4,,15
 916              		.global	chThdResume
 917              		.thumb
 918              		.thumb_func
 919              		.type	chThdResume, %function
 920              	chThdResume:
 921              	.LFB12:
 922              		.loc 1 243 0
 923              		.cfi_startproc
 924              		@ args = 0, pretend = 0, frame = 0
 925              		@ frame_needed = 0, uses_anonymous_args = 0
 926              	.LVL50:
 927 0000 10B5     		push	{r4, lr}
 928              	.LCFI5:
 929              		.cfi_def_cfa_offset 8
 930              		.cfi_offset 14, -4
 931              		.cfi_offset 4, -8
 932              	.LBB62:
 933              		.loc 1 245 0
 934 0002 2023     		movs	r3, #32
 935              	.LVL51:
 936              	.LBE62:
 937              		.loc 1 243 0
 938 0004 0446     		mov	r4, r0
 939              	.LBB63:
 940              		.loc 1 245 0
 941              	@ 245 "../../ChibiOS/os/kernel/src/chthreads.c" 1
 942 0006 83F31188 		msr     BASEPRI, r3
 943              	@ 0 "" 2
 944              	.LVL52:
 945              		.thumb
 946              	.LBE63:
 947 000a FFF7FEFF 		bl	dbg_check_lock
 948              	.LVL53:
 949              		.loc 1 246 0
 950 000e 94F82030 		ldrb	r3, [r4, #32]	@ zero_extendqisi2
 951 0012 022B     		cmp	r3, #2
 952 0014 02D0     		beq	.L109
 953              		.loc 1 246 0 is_stmt 0 discriminator 1
 954 0016 0748     		ldr	r0, .L110
 955 0018 FFF7FEFF 		bl	chDbgPanic
 956              	.L109:
 957              		.loc 1 249 0 is_stmt 1
 958 001c 2046     		mov	r0, r4
 959 001e 0021     		movs	r1, #0
 960 0020 FFF7FEFF 		bl	chSchWakeupS
 961              		.loc 1 250 0
 962 0024 FFF7FEFF 		bl	dbg_check_unlock
 963              	.LBB64:
 964 0028 0023     		movs	r3, #0
ARM GAS  /tmp/ccDJhnOM.s 			page 18


 965              	.LVL54:
 966              	@ 250 "../../ChibiOS/os/kernel/src/chthreads.c" 1
 967 002a 83F31188 		msr     BASEPRI, r3
 968              	@ 0 "" 2
 969              	.LVL55:
 970              		.thumb
 971              	.LBE64:
 972              		.loc 1 252 0
 973 002e 2046     		mov	r0, r4
 974 0030 10BD     		pop	{r4, pc}
 975              	.L111:
 976 0032 00BF     		.align	2
 977              	.L110:
 978 0034 2C000000 		.word	.LC2
 979              		.cfi_endproc
 980              	.LFE12:
 981              		.size	chThdResume, .-chThdResume
 982 0038 AFF30080 		.section	.text.chThdTerminate,"ax",%progbits
 982      AFF30080 
 983              		.align	2
 984              		.p2align 4,,15
 985              		.global	chThdTerminate
 986              		.thumb
 987              		.thumb_func
 988              		.type	chThdTerminate, %function
 989              	chThdTerminate:
 990              	.LFB13:
 991              		.loc 1 266 0
 992              		.cfi_startproc
 993              		@ args = 0, pretend = 0, frame = 0
 994              		@ frame_needed = 0, uses_anonymous_args = 0
 995              	.LVL56:
 996 0000 10B5     		push	{r4, lr}
 997              	.LCFI6:
 998              		.cfi_def_cfa_offset 8
 999              		.cfi_offset 14, -4
 1000              		.cfi_offset 4, -8
 1001              	.LBB65:
 1002              		.loc 1 268 0
 1003 0002 2023     		movs	r3, #32
 1004              	.LVL57:
 1005              	.LBE65:
 1006              		.loc 1 266 0
 1007 0004 0446     		mov	r4, r0
 1008              	.LBB66:
 1009              		.loc 1 268 0
 1010              	@ 268 "../../ChibiOS/os/kernel/src/chthreads.c" 1
 1011 0006 83F31188 		msr     BASEPRI, r3
 1012              	@ 0 "" 2
 1013              	.LVL58:
 1014              		.thumb
 1015              	.LBE66:
 1016 000a FFF7FEFF 		bl	dbg_check_lock
 1017              	.LVL59:
 1018              		.loc 1 269 0
 1019 000e 94F82100 		ldrb	r0, [r4, #33]	@ zero_extendqisi2
 1020 0012 40F00403 		orr	r3, r0, #4
ARM GAS  /tmp/ccDJhnOM.s 			page 19


 1021 0016 84F82130 		strb	r3, [r4, #33]
 1022              		.loc 1 270 0
 1023 001a FFF7FEFF 		bl	dbg_check_unlock
 1024              	.LBB67:
 1025 001e 0023     		movs	r3, #0
 1026              	.LVL60:
 1027              	@ 270 "../../ChibiOS/os/kernel/src/chthreads.c" 1
 1028 0020 83F31188 		msr     BASEPRI, r3
 1029              	@ 0 "" 2
 1030              	.LVL61:
 1031              		.thumb
 1032              	.LBE67:
 1033              		.loc 1 271 0
 1034 0024 10BD     		pop	{r4, pc}
 1035              		.cfi_endproc
 1036              	.LFE13:
 1037              		.size	chThdTerminate, .-chThdTerminate
 1038 0026 00BFAFF3 		.section	.text.chThdSleep,"ax",%progbits
 1038      0080AFF3 
 1038      0080
 1039              		.align	2
 1040              		.p2align 4,,15
 1041              		.global	chThdSleep
 1042              		.thumb
 1043              		.thumb_func
 1044              		.type	chThdSleep, %function
 1045              	chThdSleep:
 1046              	.LFB14:
 1047              		.loc 1 285 0
 1048              		.cfi_startproc
 1049              		@ args = 0, pretend = 0, frame = 0
 1050              		@ frame_needed = 0, uses_anonymous_args = 0
 1051              	.LVL62:
 1052 0000 10B5     		push	{r4, lr}
 1053              	.LCFI7:
 1054              		.cfi_def_cfa_offset 8
 1055              		.cfi_offset 14, -4
 1056              		.cfi_offset 4, -8
 1057              		.loc 1 285 0
 1058 0002 0446     		mov	r4, r0
 1059              		.loc 1 287 0
 1060 0004 10B9     		cbnz	r0, .L114
 1061              		.loc 1 287 0 is_stmt 0 discriminator 1
 1062 0006 0948     		ldr	r0, .L115
 1063              	.LVL63:
 1064 0008 FFF7FEFF 		bl	chDbgPanic
 1065              	.L114:
 1066              	.LBB68:
 1067              		.loc 1 289 0 is_stmt 1
 1068 000c 2023     		movs	r3, #32
 1069              	.LVL64:
 1070              	@ 289 "../../ChibiOS/os/kernel/src/chthreads.c" 1
 1071 000e 83F31188 		msr     BASEPRI, r3
 1072              	@ 0 "" 2
 1073              	.LVL65:
 1074              		.thumb
 1075              	.LBE68:
ARM GAS  /tmp/ccDJhnOM.s 			page 20


 1076 0012 FFF7FEFF 		bl	dbg_check_lock
 1077              	.LVL66:
 1078              		.loc 1 290 0
 1079 0016 2146     		mov	r1, r4
 1080 0018 0620     		movs	r0, #6
 1081 001a FFF7FEFF 		bl	chSchGoSleepTimeoutS
 1082              		.loc 1 291 0
 1083 001e FFF7FEFF 		bl	dbg_check_unlock
 1084              	.LBB69:
 1085 0022 0023     		movs	r3, #0
 1086              	.LVL67:
 1087              	@ 291 "../../ChibiOS/os/kernel/src/chthreads.c" 1
 1088 0024 83F31188 		msr     BASEPRI, r3
 1089              	@ 0 "" 2
 1090              	.LVL68:
 1091              		.thumb
 1092              	.LBE69:
 1093              		.loc 1 292 0
 1094 0028 10BD     		pop	{r4, pc}
 1095              	.L116:
 1096 002a 00BF     		.align	2
 1097              	.L115:
 1098 002c 40000000 		.word	.LC3
 1099              		.cfi_endproc
 1100              	.LFE14:
 1101              		.size	chThdSleep, .-chThdSleep
 1102              		.section	.text.chThdSleepUntil,"ax",%progbits
 1103              		.align	2
 1104              		.p2align 4,,15
 1105              		.global	chThdSleepUntil
 1106              		.thumb
 1107              		.thumb_func
 1108              		.type	chThdSleepUntil, %function
 1109              	chThdSleepUntil:
 1110              	.LFB15:
 1111              		.loc 1 302 0
 1112              		.cfi_startproc
 1113              		@ args = 0, pretend = 0, frame = 0
 1114              		@ frame_needed = 0, uses_anonymous_args = 0
 1115              	.LVL69:
 1116 0000 10B5     		push	{r4, lr}
 1117              	.LCFI8:
 1118              		.cfi_def_cfa_offset 8
 1119              		.cfi_offset 14, -4
 1120              		.cfi_offset 4, -8
 1121              	.LBB70:
 1122              		.loc 1 304 0
 1123 0002 2023     		movs	r3, #32
 1124              	.LVL70:
 1125              	.LBE70:
 1126              		.loc 1 302 0
 1127 0004 0446     		mov	r4, r0
 1128              	.LBB71:
 1129              		.loc 1 304 0
 1130              	@ 304 "../../ChibiOS/os/kernel/src/chthreads.c" 1
 1131 0006 83F31188 		msr     BASEPRI, r3
 1132              	@ 0 "" 2
ARM GAS  /tmp/ccDJhnOM.s 			page 21


 1133              	.LVL71:
 1134              		.thumb
 1135              	.LBE71:
 1136 000a FFF7FEFF 		bl	dbg_check_lock
 1137              	.LVL72:
 1138              		.loc 1 305 0
 1139 000e 064B     		ldr	r3, .L119
 1140 0010 D968     		ldr	r1, [r3, #12]
 1141              	.LVL73:
 1142 0012 611A     		subs	r1, r4, r1
 1143              	.LVL74:
 1144 0014 02D0     		beq	.L118
 1145              		.loc 1 306 0
 1146 0016 0620     		movs	r0, #6
 1147 0018 FFF7FEFF 		bl	chSchGoSleepTimeoutS
 1148              	.LVL75:
 1149              	.L118:
 1150              		.loc 1 307 0
 1151 001c FFF7FEFF 		bl	dbg_check_unlock
 1152              	.LBB72:
 1153 0020 0023     		movs	r3, #0
 1154              	.LVL76:
 1155              	@ 307 "../../ChibiOS/os/kernel/src/chthreads.c" 1
 1156 0022 83F31188 		msr     BASEPRI, r3
 1157              	@ 0 "" 2
 1158              	.LVL77:
 1159              		.thumb
 1160              	.LBE72:
 1161              		.loc 1 308 0
 1162 0026 10BD     		pop	{r4, pc}
 1163              	.L120:
 1164              		.align	2
 1165              	.L119:
 1166 0028 00000000 		.word	vtlist
 1167              		.cfi_endproc
 1168              	.LFE15:
 1169              		.size	chThdSleepUntil, .-chThdSleepUntil
 1170 002c AFF30080 		.section	.text.chThdYield,"ax",%progbits
 1171              		.align	2
 1172              		.p2align 4,,15
 1173              		.global	chThdYield
 1174              		.thumb
 1175              		.thumb_func
 1176              		.type	chThdYield, %function
 1177              	chThdYield:
 1178              	.LFB16:
 1179              		.loc 1 317 0
 1180              		.cfi_startproc
 1181              		@ args = 0, pretend = 0, frame = 0
 1182              		@ frame_needed = 0, uses_anonymous_args = 0
 1183 0000 08B5     		push	{r3, lr}
 1184              	.LCFI9:
 1185              		.cfi_def_cfa_offset 8
 1186              		.cfi_offset 14, -4
 1187              		.cfi_offset 3, -8
 1188              	.LBB73:
 1189              		.loc 1 319 0
ARM GAS  /tmp/ccDJhnOM.s 			page 22


 1190 0002 2023     		movs	r3, #32
 1191              	.LVL78:
 1192              	@ 319 "../../ChibiOS/os/kernel/src/chthreads.c" 1
 1193 0004 83F31188 		msr     BASEPRI, r3
 1194              	@ 0 "" 2
 1195              	.LVL79:
 1196              		.thumb
 1197              	.LBE73:
 1198 0008 FFF7FEFF 		bl	dbg_check_lock
 1199              	.LVL80:
 1200              		.loc 1 320 0
 1201 000c 074A     		ldr	r2, .L123
 1202 000e 9069     		ldr	r0, [r2, #24]
 1203 0010 1168     		ldr	r1, [r2, #0]
 1204 0012 8368     		ldr	r3, [r0, #8]
 1205 0014 8A68     		ldr	r2, [r1, #8]
 1206 0016 9A42     		cmp	r2, r3
 1207 0018 01D3     		bcc	.L122
 1208              		.loc 1 320 0 is_stmt 0 discriminator 1
 1209 001a FFF7FEFF 		bl	chSchDoRescheduleBehind
 1210              	.L122:
 1211              		.loc 1 321 0 is_stmt 1
 1212 001e FFF7FEFF 		bl	dbg_check_unlock
 1213              	.LBB74:
 1214 0022 0023     		movs	r3, #0
 1215              	.LVL81:
 1216              	@ 321 "../../ChibiOS/os/kernel/src/chthreads.c" 1
 1217 0024 83F31188 		msr     BASEPRI, r3
 1218              	@ 0 "" 2
 1219              	.LVL82:
 1220              		.thumb
 1221              	.LBE74:
 1222              		.loc 1 322 0
 1223 0028 08BD     		pop	{r3, pc}
 1224              	.L124:
 1225 002a 00BF     		.align	2
 1226              	.L123:
 1227 002c 00000000 		.word	rlist
 1228              		.cfi_endproc
 1229              	.LFE16:
 1230              		.size	chThdYield, .-chThdYield
 1231              		.section	.text.chThdExit,"ax",%progbits
 1232              		.align	2
 1233              		.p2align 4,,15
 1234              		.global	chThdExit
 1235              		.thumb
 1236              		.thumb_func
 1237              		.type	chThdExit, %function
 1238              	chThdExit:
 1239              	.LFB17:
 1240              		.loc 1 338 0
 1241              		.cfi_startproc
 1242              		@ args = 0, pretend = 0, frame = 0
 1243              		@ frame_needed = 0, uses_anonymous_args = 0
 1244              	.LVL83:
 1245 0000 70B5     		push	{r4, r5, r6, lr}
 1246              	.LCFI10:
ARM GAS  /tmp/ccDJhnOM.s 			page 23


 1247              		.cfi_def_cfa_offset 16
 1248              		.cfi_offset 14, -4
 1249              		.cfi_offset 6, -8
 1250              		.cfi_offset 5, -12
 1251              		.cfi_offset 4, -16
 1252              	.LBB80:
 1253              		.loc 1 340 0
 1254 0002 2023     		movs	r3, #32
 1255              	.LVL84:
 1256              	.LBE80:
 1257              		.loc 1 338 0
 1258 0004 0646     		mov	r6, r0
 1259              	.LBB81:
 1260              		.loc 1 340 0
 1261              	@ 340 "../../ChibiOS/os/kernel/src/chthreads.c" 1
 1262 0006 83F31188 		msr     BASEPRI, r3
 1263              	@ 0 "" 2
 1264              	.LVL85:
 1265              		.thumb
 1266              	.LBE81:
 1267 000a FFF7FEFF 		bl	dbg_check_lock
 1268              	.LVL86:
 1269              	.LBB82:
 1270              	.LBB83:
 1271              		.loc 1 360 0
 1272 000e 104B     		ldr	r3, .L131
 1273 0010 9C69     		ldr	r4, [r3, #24]
 1274              	.LVL87:
 1275              		.loc 1 367 0
 1276 0012 2546     		mov	r5, r4
 1277 0014 55F82C0F 		ldr	r0, [r5, #44]!
 1278              		.loc 1 362 0
 1279 0018 A662     		str	r6, [r4, #40]
 1280              		.loc 1 367 0
 1281 001a A842     		cmp	r0, r5
 1282 001c 06D0     		beq	.L126
 1283              	.LVL88:
 1284              	.L129:
 1285              	.LBB84:
 1286              	.LBB85:
 1287              		.file 2 "../../ChibiOS/os/kernel/include/chinline.h"
 1288              		.loc 2 82 0
 1289 001e 0168     		ldr	r1, [r0, #0]
 1290 0020 E162     		str	r1, [r4, #44]
 1291              	.LBE85:
 1292              	.LBE84:
 1293              		.loc 1 368 0
 1294 0022 FFF7FEFF 		bl	chSchReadyI
 1295              	.LVL89:
 1296              		.loc 1 367 0
 1297 0026 E06A     		ldr	r0, [r4, #44]
 1298 0028 A842     		cmp	r0, r5
 1299 002a F8D1     		bne	.L129
 1300              	.LVL90:
 1301              	.L126:
 1302              		.loc 1 373 0
 1303 002c 94F82100 		ldrb	r0, [r4, #33]	@ zero_extendqisi2
ARM GAS  /tmp/ccDJhnOM.s 			page 24


 1304 0030 8307     		lsls	r3, r0, #30
 1305 0032 04D1     		bne	.L128
 1306              		.loc 1 374 0
 1307 0034 6369     		ldr	r3, [r4, #20]
 1308 0036 2169     		ldr	r1, [r4, #16]
 1309 0038 1961     		str	r1, [r3, #16]
 1310 003a 2269     		ldr	r2, [r4, #16]
 1311 003c 5361     		str	r3, [r2, #20]
 1312              	.L128:
 1313              		.loc 1 376 0
 1314 003e 0E20     		movs	r0, #14
 1315 0040 FFF7FEFF 		bl	chSchGoSleepS
 1316              		.loc 1 378 0
 1317 0044 0348     		ldr	r0, .L131+4
 1318              	.LBE83:
 1319              	.LBE82:
 1320              		.loc 1 343 0
 1321 0046 BDE87040 		pop	{r4, r5, r6, lr}
 1322              	.LBB87:
 1323              	.LBB86:
 1324              		.loc 1 378 0
 1325 004a FFF7FEBF 		b	chDbgPanic
 1326              	.L132:
 1327 004e 00BF     		.align	2
 1328              	.L131:
 1329 0050 00000000 		.word	rlist
 1330 0054 50000000 		.word	.LC4
 1331              	.LBE86:
 1332              	.LBE87:
 1333              		.cfi_endproc
 1334              	.LFE17:
 1335              		.size	chThdExit, .-chThdExit
 1336 0058 AFF30080 		.section	.text.chThdExitS,"ax",%progbits
 1336      AFF30080 
 1337              		.align	2
 1338              		.p2align 4,,15
 1339              		.global	chThdExitS
 1340              		.thumb
 1341              		.thumb_func
 1342              		.type	chThdExitS, %function
 1343              	chThdExitS:
 1344              	.LFB18:
 1345              		.loc 1 359 0
 1346              		.cfi_startproc
 1347              		@ args = 0, pretend = 0, frame = 0
 1348              		@ frame_needed = 0, uses_anonymous_args = 0
 1349              	.LVL91:
 1350              		.loc 1 360 0
 1351 0000 104A     		ldr	r2, .L139
 1352              		.loc 1 359 0
 1353 0002 38B5     		push	{r3, r4, r5, lr}
 1354              	.LCFI11:
 1355              		.cfi_def_cfa_offset 16
 1356              		.cfi_offset 14, -4
 1357              		.cfi_offset 5, -8
 1358              		.cfi_offset 4, -12
 1359              		.cfi_offset 3, -16
ARM GAS  /tmp/ccDJhnOM.s 			page 25


 1360              		.loc 1 360 0
 1361 0004 9469     		ldr	r4, [r2, #24]
 1362              	.LVL92:
 1363              		.loc 1 359 0
 1364 0006 0346     		mov	r3, r0
 1365              		.loc 1 367 0
 1366 0008 2546     		mov	r5, r4
 1367 000a 55F82C0F 		ldr	r0, [r5, #44]!
 1368              	.LVL93:
 1369              		.loc 1 362 0
 1370 000e A362     		str	r3, [r4, #40]
 1371              		.loc 1 367 0
 1372 0010 A842     		cmp	r0, r5
 1373 0012 06D0     		beq	.L134
 1374              	.LVL94:
 1375              	.L137:
 1376              	.LBB88:
 1377              	.LBB89:
 1378              		.loc 2 82 0
 1379 0014 0168     		ldr	r1, [r0, #0]
 1380 0016 E162     		str	r1, [r4, #44]
 1381              	.LBE89:
 1382              	.LBE88:
 1383              		.loc 1 368 0
 1384 0018 FFF7FEFF 		bl	chSchReadyI
 1385              	.LVL95:
 1386              		.loc 1 367 0
 1387 001c E06A     		ldr	r0, [r4, #44]
 1388 001e A842     		cmp	r0, r5
 1389 0020 F8D1     		bne	.L137
 1390              	.LVL96:
 1391              	.L134:
 1392              		.loc 1 373 0
 1393 0022 94F82100 		ldrb	r0, [r4, #33]	@ zero_extendqisi2
 1394 0026 8207     		lsls	r2, r0, #30
 1395 0028 04D1     		bne	.L136
 1396              		.loc 1 374 0
 1397 002a 6369     		ldr	r3, [r4, #20]
 1398 002c 2169     		ldr	r1, [r4, #16]
 1399 002e 1961     		str	r1, [r3, #16]
 1400 0030 2269     		ldr	r2, [r4, #16]
 1401 0032 5361     		str	r3, [r2, #20]
 1402              	.L136:
 1403              		.loc 1 376 0
 1404 0034 0E20     		movs	r0, #14
 1405 0036 FFF7FEFF 		bl	chSchGoSleepS
 1406              		.loc 1 378 0
 1407 003a 0348     		ldr	r0, .L139+4
 1408              		.loc 1 379 0
 1409 003c BDE83840 		pop	{r3, r4, r5, lr}
 1410              		.loc 1 378 0
 1411 0040 FFF7FEBF 		b	chDbgPanic
 1412              	.L140:
 1413              		.align	2
 1414              	.L139:
 1415 0044 00000000 		.word	rlist
 1416 0048 50000000 		.word	.LC4
ARM GAS  /tmp/ccDJhnOM.s 			page 26


 1417              		.cfi_endproc
 1418              	.LFE18:
 1419              		.size	chThdExitS, .-chThdExitS
 1420 004c AFF30080 		.section	.text.chThdWait,"ax",%progbits
 1421              		.align	2
 1422              		.p2align 4,,15
 1423              		.global	chThdWait
 1424              		.thumb
 1425              		.thumb_func
 1426              		.type	chThdWait, %function
 1427              	chThdWait:
 1428              	.LFB19:
 1429              		.loc 1 413 0
 1430              		.cfi_startproc
 1431              		@ args = 0, pretend = 0, frame = 0
 1432              		@ frame_needed = 0, uses_anonymous_args = 0
 1433              	.LVL97:
 1434 0000 38B5     		push	{r3, r4, r5, lr}
 1435              	.LCFI12:
 1436              		.cfi_def_cfa_offset 16
 1437              		.cfi_offset 14, -4
 1438              		.cfi_offset 5, -8
 1439              		.cfi_offset 4, -12
 1440              		.cfi_offset 3, -16
 1441              		.loc 1 413 0
 1442 0002 0446     		mov	r4, r0
 1443              		.loc 1 416 0
 1444 0004 48B3     		cbz	r0, .L146
 1445              	.LVL98:
 1446              	.L142:
 1447              	.LBB90:
 1448              		.loc 1 418 0
 1449 0006 2023     		movs	r3, #32
 1450              	.LVL99:
 1451              	@ 418 "../../ChibiOS/os/kernel/src/chthreads.c" 1
 1452 0008 83F31188 		msr     BASEPRI, r3
 1453              	@ 0 "" 2
 1454              	.LVL100:
 1455              		.thumb
 1456              	.LBE90:
 1457              		.loc 1 419 0
 1458 000c 154D     		ldr	r5, .L149
 1459              		.loc 1 418 0
 1460 000e FFF7FEFF 		bl	dbg_check_lock
 1461              	.LVL101:
 1462              		.loc 1 419 0
 1463 0012 AB69     		ldr	r3, [r5, #24]
 1464 0014 A342     		cmp	r3, r4
 1465 0016 1CD0     		beq	.L147
 1466              	.L143:
 1467              		.loc 1 421 0
 1468 0018 94F82200 		ldrb	r0, [r4, #34]	@ zero_extendqisi2
 1469 001c A8B1     		cbz	r0, .L148
 1470              	.L144:
 1471              		.loc 1 423 0
 1472 001e 94F82010 		ldrb	r1, [r4, #32]	@ zero_extendqisi2
 1473 0022 0E29     		cmp	r1, #14
ARM GAS  /tmp/ccDJhnOM.s 			page 27


 1474 0024 06D0     		beq	.L145
 1475              		.loc 1 424 0
 1476 0026 AD69     		ldr	r5, [r5, #24]
 1477              	.LVL102:
 1478              	.LBB91:
 1479              	.LBB92:
 1480              		.loc 2 75 0
 1481 0028 E26A     		ldr	r2, [r4, #44]
 1482              	.LBE92:
 1483              	.LBE91:
 1484              		.loc 1 425 0
 1485 002a 0720     		movs	r0, #7
 1486              	.LBB94:
 1487              	.LBB93:
 1488              		.loc 2 75 0
 1489 002c 2A60     		str	r2, [r5, #0]
 1490              		.loc 2 76 0
 1491 002e E562     		str	r5, [r4, #44]
 1492              	.LBE93:
 1493              	.LBE94:
 1494              		.loc 1 425 0
 1495 0030 FFF7FEFF 		bl	chSchGoSleepS
 1496              	.LVL103:
 1497              	.L145:
 1498              		.loc 1 427 0
 1499 0034 A56A     		ldr	r5, [r4, #40]
 1500              	.LVL104:
 1501              		.loc 1 428 0
 1502 0036 FFF7FEFF 		bl	dbg_check_unlock
 1503              	.LVL105:
 1504              	.LBB95:
 1505 003a 0023     		movs	r3, #0
 1506              	.LVL106:
 1507              	@ 428 "../../ChibiOS/os/kernel/src/chthreads.c" 1
 1508 003c 83F31188 		msr     BASEPRI, r3
 1509              	@ 0 "" 2
 1510              	.LVL107:
 1511              		.thumb
 1512              	.LBE95:
 1513              		.loc 1 430 0
 1514 0040 2046     		mov	r0, r4
 1515 0042 FFF7FEFF 		bl	chThdRelease
 1516              	.LVL108:
 1517              		.loc 1 433 0
 1518 0046 2846     		mov	r0, r5
 1519 0048 38BD     		pop	{r3, r4, r5, pc}
 1520              	.LVL109:
 1521              	.L148:
 1522              		.loc 1 421 0 discriminator 1
 1523 004a 0748     		ldr	r0, .L149+4
 1524 004c FFF7FEFF 		bl	chDbgPanic
 1525 0050 E5E7     		b	.L144
 1526              	.L147:
 1527              		.loc 1 419 0 discriminator 1
 1528 0052 0648     		ldr	r0, .L149+8
 1529 0054 FFF7FEFF 		bl	chDbgPanic
 1530 0058 DEE7     		b	.L143
ARM GAS  /tmp/ccDJhnOM.s 			page 28


 1531              	.L146:
 1532              		.loc 1 416 0 discriminator 1
 1533 005a 0548     		ldr	r0, .L149+12
 1534 005c FFF7FEFF 		bl	chDbgPanic
 1535 0060 D1E7     		b	.L142
 1536              	.L150:
 1537 0062 00BF     		.align	2
 1538              	.L149:
 1539 0064 00000000 		.word	rlist
 1540 0068 84000000 		.word	.LC7
 1541 006c 74000000 		.word	.LC6
 1542 0070 64000000 		.word	.LC5
 1543              		.cfi_endproc
 1544              	.LFE19:
 1545              		.size	chThdWait, .-chThdWait
 1546 0074 AFF30080 		.section	.rodata.str1.4,"aMS",%progbits,1
 1546      AFF30080 
 1546      AFF30080 
 1547              		.align	2
 1548              	.LC0:
 1549 0000 22636854 		.ascii	"\"chThdCreateI\"()\000"
 1549      68644372 
 1549      65617465 
 1549      49222829 
 1549      00
 1550 0011 000000   		.space	3
 1551              	.LC1:
 1552 0014 22636854 		.ascii	"\"chThdSetPriority\"()\000"
 1552      68645365 
 1552      74507269 
 1552      6F726974 
 1552      79222829 
 1553 0029 000000   		.space	3
 1554              	.LC2:
 1555 002c 63685468 		.ascii	"chThdResume(), #1\000"
 1555      64526573 
 1555      756D6528 
 1555      292C2023 
 1555      3100
 1556 003e 0000     		.space	2
 1557              	.LC3:
 1558 0040 22636854 		.ascii	"\"chThdSleep\"()\000"
 1558      6864536C 
 1558      65657022 
 1558      282900
 1559 004f 00       		.space	1
 1560              	.LC4:
 1561 0050 63685468 		.ascii	"chThdExitS(), #1\000"
 1561      64457869 
 1561      74532829 
 1561      2C202331 
 1561      00
 1562 0061 000000   		.space	3
 1563              	.LC5:
 1564 0064 22636854 		.ascii	"\"chThdWait\"()\000"
 1564      68645761 
 1564      69742228 
ARM GAS  /tmp/ccDJhnOM.s 			page 29


 1564      2900
 1565 0072 0000     		.space	2
 1566              	.LC6:
 1567 0074 63685468 		.ascii	"chThdWait(), #1\000"
 1567      64576169 
 1567      7428292C 
 1567      20233100 
 1568              	.LC7:
 1569 0084 63685468 		.ascii	"chThdWait(), #2\000"
 1569      64576169 
 1569      7428292C 
 1569      20233200 
 1570              		.text
 1571              	.Letext0:
 1572              		.file 3 "/home/tino/ChibiStudio/tools/GNU Tools ARM Embedded/4.6 2012q2/bin/../lib/gcc/arm-none-ea
 1573              		.file 4 "/home/tino/ChibiStudio/tools/GNU Tools ARM Embedded/4.6 2012q2/bin/../lib/gcc/arm-none-ea
 1574              		.file 5 "../../ChibiOS/os/ports/GCC/ARMCMx/chtypes.h"
 1575              		.file 6 "../../ChibiOS/os/kernel/include/chlists.h"
 1576              		.file 7 "../../ChibiOS/os/kernel/include/chthreads.h"
 1577              		.file 8 "../../ChibiOS/os/ports/GCC/ARMCMx/chcore_v7m.h"
 1578              		.file 9 "../../ChibiOS/os/kernel/include/chvt.h"
 1579              		.file 10 "../../ChibiOS/os/kernel/include/chschd.h"
 1580              		.file 11 "../../ChibiOS/os/kernel/include/chmtx.h"