ARM GAS  /tmp/ccDJhnOM.s 			page 1


   1              		.syntax unified
   2              		.cpu cortex-m3
   3              		.fpu softvfp
   4              		.eabi_attribute 20, 1
   5              		.eabi_attribute 21, 1
   6              		.eabi_attribute 23, 3
   7              		.eabi_attribute 24, 1
   8              		.eabi_attribute 25, 1
   9              		.eabi_attribute 26, 1
  10              		.eabi_attribute 30, 2
  11              		.eabi_attribute 34, 1
  12              		.eabi_attribute 18, 4
  13              		.thumb
  14              		.file	"chthreads.c"
  15              		.text
  16              	.Ltext0:
  17              		.cfi_sections	.debug_frame
  18              		.section	.text._thread_init,"ax",%progbits
  19              		.align	2
  20              		.p2align 4,,15
  21              		.global	_thread_init
  22              		.thumb
  23              		.thumb_func
  24              		.type	_thread_init, %function
  25              	_thread_init:
  26              	.LFB7:
  27              		.file 1 "../../ChibiOS/os/kernel/src/chthreads.c"
  28              		.loc 1 69 0
  29              		.cfi_startproc
  30              		@ args = 0, pretend = 0, frame = 0
  31              		@ frame_needed = 0, uses_anonymous_args = 0
  32              		@ link register save eliminated.
  33              	.LVL0:
  34              		.loc 1 92 0
  35 0000 40F20003 		movw	r3, #:lower16:rlist
  36 0004 C0F20003 		movt	r3, #:upper16:rlist
  37              		.loc 1 69 0
  38 0008 F0B4     		push	{r4, r5, r6, r7}
  39              	.LCFI0:
  40              		.cfi_def_cfa_offset 16
  41              		.cfi_offset 7, -4
  42              		.cfi_offset 6, -8
  43              		.cfi_offset 5, -12
  44              		.cfi_offset 4, -16
  45              		.loc 1 92 0
  46 000a 5C69     		ldr	r4, [r3, #20]
  47 000c 0361     		str	r3, [r0, #16]
  48              		.loc 1 71 0
  49 000e 8160     		str	r1, [r0, #8]
  50              		.loc 1 92 0
  51 0010 4461     		str	r4, [r0, #20]
  52 0012 5861     		str	r0, [r3, #20]
  53              		.loc 1 75 0
  54 0014 1423     		movs	r3, #20
  55              		.loc 1 73 0
  56 0016 0022     		movs	r2, #0
  57              		.loc 1 98 0
ARM GAS  /tmp/ccDJhnOM.s 			page 2


  58 0018 00F13005 		add	r5, r0, #48
  59              		.loc 1 95 0
  60 001c 00F12C07 		add	r7, r0, #44
  61              		.loc 1 101 0
  62 0020 00F14C06 		add	r6, r0, #76
  63              		.loc 1 72 0
  64 0024 4FF0020C 		mov	ip, #2
  65              		.loc 1 75 0
  66 0028 80F82330 		strb	r3, [r0, #35]
  67              		.loc 1 88 0
  68 002c 0123     		movs	r3, #1
  69              		.loc 1 72 0
  70 002e 80F820C0 		strb	ip, [r0, #32]
  71              		.loc 1 73 0
  72 0032 80F82120 		strb	r2, [r0, #33]
  73              		.loc 1 78 0
  74 0036 4164     		str	r1, [r0, #68]
  75              		.loc 1 79 0
  76 0038 0264     		str	r2, [r0, #64]
  77              		.loc 1 82 0
  78 003a C263     		str	r2, [r0, #60]
  79              		.loc 1 85 0
  80 003c 4262     		str	r2, [r0, #36]
  81              		.loc 1 88 0
  82 003e 80F82230 		strb	r3, [r0, #34]
  83              		.loc 1 91 0
  84 0042 8261     		str	r2, [r0, #24]
  85              		.loc 1 92 0
  86 0044 2061     		str	r0, [r4, #16]
  87              		.loc 1 95 0
  88 0046 C762     		str	r7, [r0, #44]
  89              		.loc 1 98 0
  90 0048 4563     		str	r5, [r0, #52]
  91 004a 0563     		str	r5, [r0, #48]
  92              		.loc 1 101 0
  93 004c C661     		str	r6, [r0, #28]
  94              		.loc 1 107 0
  95 004e F0BC     		pop	{r4, r5, r6, r7}
  96 0050 7047     		bx	lr
  97              		.cfi_endproc
  98              	.LFE7:
  99              		.size	_thread_init, .-_thread_init
 100 0052 00BFAFF3 		.section	.text._thread_memfill,"ax",%progbits
 100      0080AFF3 
 100      0080AFF3 
 100      0080
 101              		.align	2
 102              		.p2align 4,,15
 103              		.global	_thread_memfill
 104              		.thumb
 105              		.thumb_func
 106              		.type	_thread_memfill, %function
 107              	_thread_memfill:
 108              	.LFB8:
 109              		.loc 1 119 0
 110              		.cfi_startproc
 111              		@ args = 0, pretend = 0, frame = 0
ARM GAS  /tmp/ccDJhnOM.s 			page 3


 112              		@ frame_needed = 0, uses_anonymous_args = 0
 113              		@ link register save eliminated.
 114              	.LVL1:
 115              		.loc 1 121 0
 116 0000 8842     		cmp	r0, r1
 117              		.loc 1 119 0
 118 0002 2DE9F003 		push	{r4, r5, r6, r7, r8, r9}
 119              	.LCFI1:
 120              		.cfi_def_cfa_offset 24
 121              		.cfi_offset 9, -4
 122              		.cfi_offset 8, -8
 123              		.cfi_offset 7, -12
 124              		.cfi_offset 6, -16
 125              		.cfi_offset 5, -20
 126              		.cfi_offset 4, -24
 127              		.loc 1 121 0
 128 0006 6DD2     		bcs	.L2
 129              		.loc 1 119 0
 130 0008 4742     		negs	r7, r0
 131 000a C0EB010C 		rsb	ip, r0, r1
 132 000e 07F00307 		and	r7, r7, #3
 133 0012 BC45     		cmp	ip, r7
 134 0014 38BF     		it	cc
 135 0016 6746     		movcc	r7, ip
 136 0018 461C     		adds	r6, r0, #1
 137 001a 002F     		cmp	r7, #0
 138 001c 65D0     		beq	.L9
 139              		.loc 1 122 0
 140 001e 0125     		movs	r5, #1
 141 0020 7B1E     		subs	r3, r7, #1
 142 0022 AF42     		cmp	r7, r5
 143 0024 03F00108 		and	r8, r3, #1
 144 0028 0270     		strb	r2, [r0, #0]
 145 002a 3446     		mov	r4, r6
 146 002c 3346     		mov	r3, r6
 147 002e 12D9     		bls	.L30
 148 0030 B8F1000F 		cmp	r8, #0
 149 0034 06D0     		beq	.L5
 150 0036 3446     		mov	r4, r6
 151 0038 0225     		movs	r5, #2
 152 003a 04F8012B 		strb	r2, [r4], #1
 153 003e AF42     		cmp	r7, r5
 154 0040 2346     		mov	r3, r4
 155 0042 08D9     		bls	.L30
 156              	.L5:
 157 0044 2346     		mov	r3, r4
 158 0046 03F8012B 		strb	r2, [r3], #1
 159 004a 0235     		adds	r5, r5, #2
 160 004c 6270     		strb	r2, [r4, #1]
 161 004e 5C1C     		adds	r4, r3, #1
 162 0050 AF42     		cmp	r7, r5
 163 0052 2346     		mov	r3, r4
 164 0054 F6D8     		bhi	.L5
 165              	.L30:
 166 0056 BC45     		cmp	ip, r7
 167 0058 44D0     		beq	.L2
 168              	.L4:
ARM GAS  /tmp/ccDJhnOM.s 			page 4


 169              		.loc 1 119 0
 170 005a C6EB0109 		rsb	r9, r6, r1
 171 005e 09F10108 		add	r8, r9, #1
 172              		.loc 1 122 0
 173 0062 C7EB0808 		rsb	r8, r7, r8
 174 0066 4FEA980C 		lsr	ip, r8, #2
 175 006a 4FEA8C09 		lsl	r9, ip, #2
 176 006e BCF1000F 		cmp	ip, #0
 177 0072 23D0     		beq	.L27
 178 0074 0026     		movs	r6, #0
 179 0076 62F30706 		bfi	r6, r2, #0, #8
 180 007a 62F30F26 		bfi	r6, r2, #8, #8
 181 007e 0125     		movs	r5, #1
 182 0080 62F31746 		bfi	r6, r2, #16, #8
 183 0084 62F31F66 		bfi	r6, r2, #24, #8
 184 0088 0CF1FF34 		add	r4, ip, #-1
 185 008c C019     		adds	r0, r0, r7
 186              	.LVL2:
 187 008e 6545     		cmp	r5, ip
 188 0090 40F8046B 		str	r6, [r0], #4
 189 0094 04EA0504 		and	r4, r4, r5
 190 0098 0DD2     		bcs	.L31
 191 009a 24B1     		cbz	r4, .L7
 192 009c 0225     		movs	r5, #2
 193 009e 6545     		cmp	r5, ip
 194 00a0 40F8046B 		str	r6, [r0], #4
 195 00a4 07D2     		bcs	.L31
 196              	.L7:
 197 00a6 0446     		mov	r4, r0
 198 00a8 44F8046B 		str	r6, [r4], #4
 199 00ac 0235     		adds	r5, r5, #2
 200 00ae 4660     		str	r6, [r0, #4]
 201 00b0 201D     		adds	r0, r4, #4
 202 00b2 6545     		cmp	r5, ip
 203 00b4 F7D3     		bcc	.L7
 204              	.L31:
 205 00b6 C845     		cmp	r8, r9
 206 00b8 4B44     		add	r3, r3, r9
 207 00ba 13D0     		beq	.L2
 208              	.L27:
 209 00bc D843     		mvns	r0, r3
 210 00be 03F8012B 		strb	r2, [r3], #1
 211 00c2 0818     		adds	r0, r1, r0
 212              		.loc 1 121 0
 213 00c4 9942     		cmp	r1, r3
 214 00c6 00F00100 		and	r0, r0, #1
 215              	.LVL3:
 216 00ca 0BD9     		bls	.L2
 217 00cc 18B1     		cbz	r0, .L10
 218              		.loc 1 122 0
 219 00ce 03F8012B 		strb	r2, [r3], #1
 220              	.LVL4:
 221              		.loc 1 121 0
 222 00d2 9942     		cmp	r1, r3
 223 00d4 06D9     		bls	.L2
 224              	.L10:
 225              		.loc 1 122 0
ARM GAS  /tmp/ccDJhnOM.s 			page 5


 226 00d6 1846     		mov	r0, r3
 227 00d8 00F8012B 		strb	r2, [r0], #1
 228 00dc 5A70     		strb	r2, [r3, #1]
 229 00de 431C     		adds	r3, r0, #1
 230              		.loc 1 121 0
 231 00e0 9942     		cmp	r1, r3
 232 00e2 F8D8     		bhi	.L10
 233              	.L2:
 234              		.loc 1 123 0
 235 00e4 BDE8F003 		pop	{r4, r5, r6, r7, r8, r9}
 236 00e8 7047     		bx	lr
 237              	.LVL5:
 238              	.L9:
 239              		.loc 1 119 0
 240 00ea 0346     		mov	r3, r0
 241 00ec B5E7     		b	.L4
 242              		.cfi_endproc
 243              	.LFE8:
 244              		.size	_thread_memfill, .-_thread_memfill
 245 00ee 00BF     		.section	.text.chThdCreateI,"ax",%progbits
 246              		.align	2
 247              		.p2align 4,,15
 248              		.global	chThdCreateI
 249              		.thumb
 250              		.thumb_func
 251              		.type	chThdCreateI, %function
 252              	chThdCreateI:
 253              	.LFB9:
 254              		.loc 1 151 0
 255              		.cfi_startproc
 256              		@ args = 4, pretend = 0, frame = 0
 257              		@ frame_needed = 0, uses_anonymous_args = 0
 258              	.LVL6:
 259 0000 2DE9F843 		push	{r3, r4, r5, r6, r7, r8, r9, lr}
 260              	.LCFI2:
 261              		.cfi_def_cfa_offset 32
 262              		.cfi_offset 14, -4
 263              		.cfi_offset 9, -8
 264              		.cfi_offset 8, -12
 265              		.cfi_offset 7, -16
 266              		.cfi_offset 6, -20
 267              		.cfi_offset 5, -24
 268              		.cfi_offset 4, -28
 269              		.cfi_offset 3, -32
 270              		.loc 1 151 0
 271 0004 0446     		mov	r4, r0
 272              	.LVL7:
 273 0006 0D46     		mov	r5, r1
 274 0008 1646     		mov	r6, r2
 275 000a 1F46     		mov	r7, r3
 276              		.loc 1 155 0
 277 000c FFF7FEFF 		bl	chDbgCheckClassI
 278              	.LVL8:
 279              		.loc 1 157 0
 280 0010 14B1     		cbz	r4, .L34
 281              		.loc 1 157 0 is_stmt 0 discriminator 2
 282 0012 B5F5C87F 		cmp	r5, #400
ARM GAS  /tmp/ccDJhnOM.s 			page 6


 283 0016 34D2     		bcs	.L36
 284              	.LVL9:
 285              	.L34:
 286              		.loc 1 157 0 discriminator 1
 287 0018 1C48     		ldr	r0, .L37
 288 001a FFF7FEFF 		bl	chDbgPanic
 289              	.L35:
 290              	.LBB16:
 291              	.LBB17:
 292              		.loc 1 92 0 is_stmt 1
 293 001e 1C4A     		ldr	r2, .L37+4
 294              	.LBE17:
 295              	.LBE16:
 296              		.loc 1 160 0
 297 0020 A5F1240C 		sub	ip, r5, #36
 298 0024 04EB0C01 		add	r1, r4, ip
 299              	.LBB22:
 300              	.LBB18:
 301              		.loc 1 92 0
 302 0028 5569     		ldr	r5, [r2, #20]
 303              	.LVL10:
 304              	.LBE18:
 305              	.LBE22:
 306              		.loc 1 160 0
 307 002a E160     		str	r1, [r4, #12]
 308 002c 44F80C70 		str	r7, [r4, ip]
 309 0030 089F     		ldr	r7, [sp, #32]
 310              	.LVL11:
 311              	.LBB23:
 312              	.LBB19:
 313              		.loc 1 73 0
 314 0032 0023     		movs	r3, #0
 315              	.LBE19:
 316              	.LBE23:
 317              		.loc 1 160 0
 318 0034 4F60     		str	r7, [r1, #4]
 319 0036 174F     		ldr	r7, .L37+8
 320              	.LBB24:
 321              	.LBB20:
 322              		.loc 1 98 0
 323 0038 04F13000 		add	r0, r4, #48
 324              	.LBE20:
 325              	.LBE24:
 326              		.loc 1 160 0
 327 003c 0F62     		str	r7, [r1, #32]
 328              	.LVL12:
 329              	.LBB25:
 330              	.LBB21:
 331              		.loc 1 72 0
 332 003e 0221     		movs	r1, #2
 333              	.LVL13:
 334              		.loc 1 92 0
 335 0040 2261     		str	r2, [r4, #16]
 336              		.loc 1 95 0
 337 0042 04F12C09 		add	r9, r4, #44
 338              		.loc 1 101 0
 339 0046 04F14C08 		add	r8, r4, #76
ARM GAS  /tmp/ccDJhnOM.s 			page 7


 340              		.loc 1 71 0
 341 004a A660     		str	r6, [r4, #8]
 342              		.loc 1 92 0
 343 004c 6561     		str	r5, [r4, #20]
 344              		.loc 1 72 0
 345 004e 84F82010 		strb	r1, [r4, #32]
 346              		.loc 1 92 0
 347 0052 5461     		str	r4, [r2, #20]
 348              		.loc 1 75 0
 349 0054 1421     		movs	r1, #20
 350              		.loc 1 88 0
 351 0056 0122     		movs	r2, #1
 352              		.loc 1 98 0
 353 0058 6063     		str	r0, [r4, #52]
 354 005a 2063     		str	r0, [r4, #48]
 355              		.loc 1 73 0
 356 005c 84F82130 		strb	r3, [r4, #33]
 357              		.loc 1 75 0
 358 0060 84F82310 		strb	r1, [r4, #35]
 359              		.loc 1 78 0
 360 0064 6664     		str	r6, [r4, #68]
 361              		.loc 1 79 0
 362 0066 2364     		str	r3, [r4, #64]
 363              		.loc 1 82 0
 364 0068 E363     		str	r3, [r4, #60]
 365              		.loc 1 85 0
 366 006a 6362     		str	r3, [r4, #36]
 367              		.loc 1 88 0
 368 006c 84F82220 		strb	r2, [r4, #34]
 369              		.loc 1 91 0
 370 0070 A361     		str	r3, [r4, #24]
 371              		.loc 1 92 0
 372 0072 2C61     		str	r4, [r5, #16]
 373              		.loc 1 95 0
 374 0074 C4F82C90 		str	r9, [r4, #44]
 375              		.loc 1 101 0
 376 0078 C4F81C80 		str	r8, [r4, #28]
 377              	.LBE21:
 378              	.LBE25:
 379              		.loc 1 162 0
 380 007c 2046     		mov	r0, r4
 381 007e BDE8F883 		pop	{r3, r4, r5, r6, r7, r8, r9, pc}
 382              	.LVL14:
 383              	.L36:
 384              		.loc 1 157 0 discriminator 3
 385 0082 7F2E     		cmp	r6, #127
 386 0084 C8D8     		bhi	.L34
 387              		.loc 1 157 0 is_stmt 0 discriminator 4
 388 0086 002F     		cmp	r7, #0
 389 0088 C9D1     		bne	.L35
 390 008a C5E7     		b	.L34
 391              	.L38:
 392              		.align	2
 393              	.L37:
 394 008c 00000000 		.word	.LC0
 395 0090 00000000 		.word	rlist
 396 0094 00000000 		.word	_port_thread_start
ARM GAS  /tmp/ccDJhnOM.s 			page 8


 397              		.cfi_endproc
 398              	.LFE9:
 399              		.size	chThdCreateI, .-chThdCreateI
 400 0098 AFF30080 		.section	.text.chThdCreateStatic,"ax",%progbits
 400      AFF30080 
 401              		.align	2
 402              		.p2align 4,,15
 403              		.global	chThdCreateStatic
 404              		.thumb
 405              		.thumb_func
 406              		.type	chThdCreateStatic, %function
 407              	chThdCreateStatic:
 408              	.LFB10:
 409              		.loc 1 181 0 is_stmt 1
 410              		.cfi_startproc
 411              		@ args = 4, pretend = 0, frame = 0
 412              		@ frame_needed = 0, uses_anonymous_args = 0
 413              	.LVL15:
 414 0000 2DE9F84F 		push	{r3, r4, r5, r6, r7, r8, r9, sl, fp, lr}
 415              	.LCFI3:
 416              		.cfi_def_cfa_offset 40
 417              		.cfi_offset 14, -4
 418              		.cfi_offset 11, -8
 419              		.cfi_offset 10, -12
 420              		.cfi_offset 9, -16
 421              		.cfi_offset 8, -20
 422              		.cfi_offset 7, -24
 423              		.cfi_offset 6, -28
 424              		.cfi_offset 5, -32
 425              		.cfi_offset 4, -36
 426              		.cfi_offset 3, -40
 427              		.loc 1 181 0
 428 0004 0446     		mov	r4, r0
 429              		.loc 1 180 0
 430 0006 4042     		negs	r0, r0
 431              	.LVL16:
 432              		.loc 1 181 0
 433 0008 0E46     		mov	r6, r1
 434              		.loc 1 185 0
 435 000a 10F00301 		ands	r1, r0, #3
 436              	.LVL17:
 437              		.loc 1 181 0
 438 000e 1746     		mov	r7, r2
 439 0010 9846     		mov	r8, r3
 440              		.loc 1 185 0
 441 0012 04F14C05 		add	r5, r4, #76
 442              	.LVL18:
 443 0016 00F02181 		beq	.L56
 444 001a 4A1E     		subs	r2, r1, #1
 445              	.LVL19:
 446 001c 02F0010C 		and	ip, r2, #1
 447              	.LBB36:
 448              	.LBB37:
 449              		.loc 1 122 0
 450 0020 0122     		movs	r2, #1
 451 0022 FF20     		movs	r0, #255
 452 0024 2346     		mov	r3, r4
ARM GAS  /tmp/ccDJhnOM.s 			page 9


 453              	.LVL20:
 454 0026 9142     		cmp	r1, r2
 455 0028 03F8010B 		strb	r0, [r3], #1
 456 002c 4FF04B0E 		mov	lr, #75
 457 0030 14D9     		bls	.L40
 458 0032 BCF1000F 		cmp	ip, #0
 459 0036 06D0     		beq	.L41
 460 0038 0222     		movs	r2, #2
 461 003a 0133     		adds	r3, r3, #1
 462              	.LVL21:
 463 003c 9142     		cmp	r1, r2
 464 003e 6070     		strb	r0, [r4, #1]
 465 0040 4FF04A0E 		mov	lr, #74
 466 0044 0AD9     		bls	.L40
 467              	.L41:
 468 0046 02F1010E 		add	lr, r2, #1
 469 004a A054     		strb	r0, [r4, r2]
 470 004c 0232     		adds	r2, r2, #2
 471 004e 0233     		adds	r3, r3, #2
 472 0050 9142     		cmp	r1, r2
 473 0052 04F80E00 		strb	r0, [r4, lr]
 474 0056 CEF14B0E 		rsb	lr, lr, #75
 475 005a F4D8     		bhi	.L41
 476              	.L40:
 477 005c C1F14C0B 		rsb	fp, r1, #76
 478 0060 4FEA9B09 		lsr	r9, fp, #2
 479 0064 4FEA890A 		lsl	sl, r9, #2
 480 0068 B9F1000F 		cmp	r9, #0
 481 006c 1FD0     		beq	.L42
 482 006e 4FF0FF3C 		mov	ip, #-1
 483 0072 0120     		movs	r0, #1
 484 0074 09EB0C02 		add	r2, r9, ip
 485 0078 6118     		adds	r1, r4, r1
 486 007a 4845     		cmp	r0, r9
 487 007c 41F804CB 		str	ip, [r1], #4
 488 0080 02EA0002 		and	r2, r2, r0
 489 0084 0ED2     		bcs	.L95
 490 0086 22B1     		cbz	r2, .L43
 491 0088 0220     		movs	r0, #2
 492 008a 4845     		cmp	r0, r9
 493 008c 41F804CB 		str	ip, [r1], #4
 494 0090 08D2     		bcs	.L95
 495              	.L43:
 496 0092 0A46     		mov	r2, r1
 497 0094 42F804CB 		str	ip, [r2], #4
 498 0098 0230     		adds	r0, r0, #2
 499 009a C1F804C0 		str	ip, [r1, #4]
 500 009e 111D     		adds	r1, r2, #4
 501 00a0 4845     		cmp	r0, r9
 502 00a2 F6D3     		bcc	.L43
 503              	.L95:
 504 00a4 D345     		cmp	fp, sl
 505 00a6 5344     		add	r3, r3, sl
 506 00a8 CAEB0E0E 		rsb	lr, sl, lr
 507 00ac 13D0     		beq	.L44
 508              	.L42:
 509 00ae 0122     		movs	r2, #1
ARM GAS  /tmp/ccDJhnOM.s 			page 10


 510 00b0 FF20     		movs	r0, #255
 511 00b2 0EF1FF31 		add	r1, lr, #-1
 512              		.loc 1 121 0
 513 00b6 7245     		cmp	r2, lr
 514              		.loc 1 122 0
 515 00b8 1870     		strb	r0, [r3, #0]
 516 00ba 01EA0201 		and	r1, r1, r2
 517              		.loc 1 121 0
 518 00be 0AD0     		beq	.L44
 519 00c0 19B1     		cbz	r1, .L45
 520              		.loc 1 122 0
 521 00c2 0222     		movs	r2, #2
 522              		.loc 1 121 0
 523 00c4 7245     		cmp	r2, lr
 524              		.loc 1 122 0
 525 00c6 5870     		strb	r0, [r3, #1]
 526              		.loc 1 121 0
 527 00c8 05D0     		beq	.L44
 528              	.L45:
 529              		.loc 1 122 0
 530 00ca 511C     		adds	r1, r2, #1
 531 00cc 9854     		strb	r0, [r3, r2]
 532 00ce 0232     		adds	r2, r2, #2
 533              		.loc 1 121 0
 534 00d0 7245     		cmp	r2, lr
 535              		.loc 1 122 0
 536 00d2 5854     		strb	r0, [r3, r1]
 537              		.loc 1 121 0
 538 00d4 F9D1     		bne	.L45
 539              	.L44:
 540              	.LBE37:
 541              	.LBE36:
 542              		.loc 1 188 0
 543 00d6 04EB060E 		add	lr, r4, r6
 544              	.LVL22:
 545              	.LBB38:
 546              	.LBB39:
 547              		.loc 1 121 0
 548 00da 7545     		cmp	r5, lr
 549 00dc 6AD2     		bcs	.L46
 550              		.loc 1 180 0
 551 00de 6B42     		negs	r3, r5
 552 00e0 C4EB0E09 		rsb	r9, r4, lr
 553 00e4 03F00300 		and	r0, r3, #3
 554              		.loc 1 121 0
 555 00e8 A9F14C09 		sub	r9, r9, #76
 556              		.loc 1 180 0
 557 00ec 8145     		cmp	r9, r0
 558 00ee 38BF     		it	cc
 559 00f0 4846     		movcc	r0, r9
 560              		.loc 1 122 0
 561 00f2 2B46     		mov	r3, r5
 562              		.loc 1 180 0
 563 00f4 F8B1     		cbz	r0, .L47
 564              		.loc 1 122 0
 565 00f6 4FF0550C 		mov	ip, #85
 566 00fa 0121     		movs	r1, #1
ARM GAS  /tmp/ccDJhnOM.s 			page 11


 567 00fc 421E     		subs	r2, r0, #1
 568 00fe 03F801CB 		strb	ip, [r3], #1
 569 0102 8842     		cmp	r0, r1
 570 0104 02F0010A 		and	sl, r2, #1
 571 0108 1A46     		mov	r2, r3
 572              	.LVL23:
 573 010a 12D9     		bls	.L96
 574 010c BAF1000F 		cmp	sl, #0
 575 0110 05D0     		beq	.L48
 576 0112 0221     		movs	r1, #2
 577 0114 03F801CB 		strb	ip, [r3], #1
 578              	.LVL24:
 579 0118 8842     		cmp	r0, r1
 580 011a 1A46     		mov	r2, r3
 581 011c 09D9     		bls	.L96
 582              	.LVL25:
 583              	.L48:
 584 011e 1346     		mov	r3, r2
 585 0120 03F801CB 		strb	ip, [r3], #1
 586 0124 0231     		adds	r1, r1, #2
 587 0126 82F801C0 		strb	ip, [r2, #1]
 588 012a 5A1C     		adds	r2, r3, #1
 589 012c 8842     		cmp	r0, r1
 590 012e 1346     		mov	r3, r2
 591 0130 F5D8     		bhi	.L48
 592              	.L96:
 593 0132 4845     		cmp	r0, r9
 594 0134 3ED0     		beq	.L46
 595              	.L47:
 596 0136 C0EB0909 		rsb	r9, r0, r9
 597 013a 4FEA990C 		lsr	ip, r9, #2
 598 013e 4FEA8C0A 		lsl	sl, ip, #2
 599 0142 BCF1000F 		cmp	ip, #0
 600 0146 1FD0     		beq	.L53
 601 0148 00F14C00 		add	r0, r0, #76
 602 014c 2118     		adds	r1, r4, r0
 603 014e 0120     		movs	r0, #1
 604 0150 4FF0553B 		mov	fp, #1431655765
 605 0154 0CF1FF32 		add	r2, ip, #-1
 606 0158 6045     		cmp	r0, ip
 607 015a 41F804BB 		str	fp, [r1], #4
 608 015e 02EA0002 		and	r2, r2, r0
 609 0162 0ED2     		bcs	.L97
 610 0164 22B1     		cbz	r2, .L51
 611 0166 0220     		movs	r0, #2
 612 0168 6045     		cmp	r0, ip
 613 016a 41F804BB 		str	fp, [r1], #4
 614 016e 08D2     		bcs	.L97
 615              	.L51:
 616 0170 0A46     		mov	r2, r1
 617 0172 42F804BB 		str	fp, [r2], #4
 618 0176 0230     		adds	r0, r0, #2
 619 0178 C1F804B0 		str	fp, [r1, #4]
 620 017c 111D     		adds	r1, r2, #4
 621 017e 6045     		cmp	r0, ip
 622 0180 F6D3     		bcc	.L51
 623              	.L97:
ARM GAS  /tmp/ccDJhnOM.s 			page 12


 624 0182 D145     		cmp	r9, sl
 625 0184 5344     		add	r3, r3, sl
 626 0186 15D0     		beq	.L46
 627              	.L53:
 628 0188 5521     		movs	r1, #85
 629 018a DA43     		mvns	r2, r3
 630 018c 03F8011B 		strb	r1, [r3], #1
 631 0190 0EEB0200 		add	r0, lr, r2
 632              		.loc 1 121 0
 633 0194 9E45     		cmp	lr, r3
 634 0196 00F00102 		and	r2, r0, #1
 635              	.LVL26:
 636 019a 0BD9     		bls	.L46
 637 019c 1AB1     		cbz	r2, .L58
 638              		.loc 1 122 0
 639 019e 03F8011B 		strb	r1, [r3], #1
 640              	.LVL27:
 641              		.loc 1 121 0
 642 01a2 9E45     		cmp	lr, r3
 643 01a4 06D9     		bls	.L46
 644              	.L58:
 645              		.loc 1 122 0
 646 01a6 1846     		mov	r0, r3
 647 01a8 00F8011B 		strb	r1, [r0], #1
 648 01ac 5970     		strb	r1, [r3, #1]
 649 01ae 431C     		adds	r3, r0, #1
 650              		.loc 1 121 0
 651 01b0 9E45     		cmp	lr, r3
 652 01b2 F8D8     		bhi	.L58
 653              	.L46:
 654              	.LBE39:
 655              	.LBE38:
 656              	.LBB40:
 657              		.loc 1 192 0
 658 01b4 2023     		movs	r3, #32
 659              	.LVL28:
 660              	@ 192 "../../ChibiOS/os/kernel/src/chthreads.c" 1
 661 01b6 83F31188 		msr     BASEPRI, r3
 662              	@ 0 "" 2
 663              	.LVL29:
 664              		.thumb
 665              	.LBE40:
 666 01ba FFF7FEFF 		bl	dbg_check_lock
 667              	.LVL30:
 668              	.LBB41:
 669              	.LBB42:
 670              		.loc 1 155 0
 671 01be FFF7FEFF 		bl	chDbgCheckClassI
 672              		.loc 1 157 0
 673 01c2 14B1     		cbz	r4, .L54
 674 01c4 B6F5C87F 		cmp	r6, #400
 675 01c8 42D2     		bcs	.L98
 676              	.L54:
 677 01ca 2648     		ldr	r0, .L99
 678 01cc FFF7FEFF 		bl	chDbgPanic
 679              	.L55:
 680              	.LBB43:
ARM GAS  /tmp/ccDJhnOM.s 			page 13


 681              	.LBB44:
 682              		.loc 1 92 0
 683 01d0 254B     		ldr	r3, .L99+4
 684              	.LBE44:
 685              	.LBE43:
 686              		.loc 1 160 0
 687 01d2 A6F12409 		sub	r9, r6, #36
 688 01d6 04EB0901 		add	r1, r4, r9
 689              	.LBB50:
 690              	.LBB45:
 691              		.loc 1 92 0
 692 01da D3F814E0 		ldr	lr, [r3, #20]
 693              	.LBE45:
 694              	.LBE50:
 695              		.loc 1 160 0
 696 01de E160     		str	r1, [r4, #12]
 697 01e0 44F80980 		str	r8, [r4, r9]
 698 01e4 DDF82880 		ldr	r8, [sp, #40]
 699              	.LVL31:
 700              	.LBB51:
 701              	.LBB46:
 702              		.loc 1 73 0
 703 01e8 0026     		movs	r6, #0
 704              	.LVL32:
 705              	.LBE46:
 706              	.LBE51:
 707              		.loc 1 160 0
 708 01ea C1F80480 		str	r8, [r1, #4]
 709 01ee DFF87C80 		ldr	r8, .L99+8
 710              	.LBB52:
 711              	.LBB47:
 712              		.loc 1 98 0
 713 01f2 04F13002 		add	r2, r4, #48
 714              	.LBE47:
 715              	.LBE52:
 716              		.loc 1 160 0
 717 01f6 C1F82080 		str	r8, [r1, #32]
 718              	.LVL33:
 719              	.LBB53:
 720              	.LBB48:
 721              		.loc 1 92 0
 722 01fa 2361     		str	r3, [r4, #16]
 723 01fc C4F814E0 		str	lr, [r4, #20]
 724              		.loc 1 71 0
 725 0200 A760     		str	r7, [r4, #8]
 726              		.loc 1 92 0
 727 0202 5C61     		str	r4, [r3, #20]
 728              		.loc 1 75 0
 729 0204 1423     		movs	r3, #20
 730              		.loc 1 95 0
 731 0206 04F12C0C 		add	ip, r4, #44
 732              		.loc 1 75 0
 733 020a 84F82330 		strb	r3, [r4, #35]
 734              		.loc 1 72 0
 735 020e 4FF00208 		mov	r8, #2
 736              		.loc 1 88 0
 737 0212 0123     		movs	r3, #1
ARM GAS  /tmp/ccDJhnOM.s 			page 14


 738 0214 84F82230 		strb	r3, [r4, #34]
 739              	.LBE48:
 740              	.LBE53:
 741              	.LBE42:
 742              	.LBE41:
 743              		.loc 1 193 0
 744 0218 2046     		mov	r0, r4
 745 021a 3146     		mov	r1, r6
 746              	.LVL34:
 747              	.LBB57:
 748              	.LBB55:
 749              	.LBB54:
 750              	.LBB49:
 751              		.loc 1 92 0
 752 021c CEF81040 		str	r4, [lr, #16]
 753              		.loc 1 95 0
 754 0220 C4F82CC0 		str	ip, [r4, #44]
 755              		.loc 1 98 0
 756 0224 6263     		str	r2, [r4, #52]
 757 0226 2263     		str	r2, [r4, #48]
 758              		.loc 1 72 0
 759 0228 84F82080 		strb	r8, [r4, #32]
 760              		.loc 1 73 0
 761 022c 84F82160 		strb	r6, [r4, #33]
 762              		.loc 1 78 0
 763 0230 6764     		str	r7, [r4, #68]
 764              		.loc 1 79 0
 765 0232 2664     		str	r6, [r4, #64]
 766              		.loc 1 82 0
 767 0234 E663     		str	r6, [r4, #60]
 768              		.loc 1 85 0
 769 0236 6662     		str	r6, [r4, #36]
 770              		.loc 1 91 0
 771 0238 A661     		str	r6, [r4, #24]
 772              		.loc 1 101 0
 773 023a E561     		str	r5, [r4, #28]
 774              	.LBE49:
 775              	.LBE54:
 776              	.LBE55:
 777              	.LBE57:
 778              		.loc 1 193 0
 779 023c FFF7FEFF 		bl	chSchWakeupS
 780              	.LVL35:
 781              		.loc 1 194 0
 782 0240 FFF7FEFF 		bl	dbg_check_unlock
 783              	.LBB58:
 784 0244 3346     		mov	r3, r6
 785              	.LVL36:
 786              	@ 194 "../../ChibiOS/os/kernel/src/chthreads.c" 1
 787 0246 83F31188 		msr     BASEPRI, r3
 788              	@ 0 "" 2
 789              	.LVL37:
 790              		.thumb
 791              	.LBE58:
 792              		.loc 1 196 0
 793 024a 2046     		mov	r0, r4
 794 024c BDE8F88F 		pop	{r3, r4, r5, r6, r7, r8, r9, sl, fp, pc}
ARM GAS  /tmp/ccDJhnOM.s 			page 15


 795              	.LVL38:
 796              	.L98:
 797              	.LBB59:
 798              	.LBB56:
 799              		.loc 1 157 0
 800 0250 7F2F     		cmp	r7, #127
 801 0252 BAD8     		bhi	.L54
 802 0254 B8F1000F 		cmp	r8, #0
 803 0258 BAD1     		bne	.L55
 804 025a B6E7     		b	.L54
 805              	.LVL39:
 806              	.L56:
 807              	.LBE56:
 808              	.LBE59:
 809              		.loc 1 180 0
 810 025c 2346     		mov	r3, r4
 811 025e 4FF04C0E 		mov	lr, #76
 812 0262 FBE6     		b	.L40
 813              	.L100:
 814              		.align	2
 815              	.L99:
 816 0264 00000000 		.word	.LC0
 817 0268 00000000 		.word	rlist
 818 026c 00000000 		.word	_port_thread_start
 819              		.cfi_endproc
 820              	.LFE10:
 821              		.size	chThdCreateStatic, .-chThdCreateStatic
 822              		.section	.text.chThdSetPriority,"ax",%progbits
 823              		.align	2
 824              		.p2align 4,,15
 825              		.global	chThdSetPriority
 826              		.thumb
 827              		.thumb_func
 828              		.type	chThdSetPriority, %function
 829              	chThdSetPriority:
 830              	.LFB11:
 831              		.loc 1 210 0
 832              		.cfi_startproc
 833              		@ args = 0, pretend = 0, frame = 0
 834              		@ frame_needed = 0, uses_anonymous_args = 0
 835              	.LVL40:
 836              		.loc 1 213 0
 837 0000 7F28     		cmp	r0, #127
 838              		.loc 1 210 0
 839 0002 38B5     		push	{r3, r4, r5, lr}
 840              	.LCFI4:
 841              		.cfi_def_cfa_offset 16
 842              		.cfi_offset 14, -4
 843              		.cfi_offset 5, -8
 844              		.cfi_offset 4, -12
 845              		.cfi_offset 3, -16
 846              		.loc 1 210 0
 847 0004 0446     		mov	r4, r0
 848              		.loc 1 213 0
 849 0006 17D8     		bhi	.L105
 850              	.LVL41:
 851              	.L102:
ARM GAS  /tmp/ccDJhnOM.s 			page 16


 852              	.LBB60:
 853              		.loc 1 215 0
 854 0008 2023     		movs	r3, #32
 855              	.LVL42:
 856              	@ 215 "../../ChibiOS/os/kernel/src/chthreads.c" 1
 857 000a 83F31188 		msr     BASEPRI, r3
 858              	@ 0 "" 2
 859              	.LVL43:
 860              		.thumb
 861              	.LBE60:
 862 000e FFF7FEFF 		bl	dbg_check_lock
 863              	.LVL44:
 864              		.loc 1 217 0
 865 0012 0B4B     		ldr	r3, .L106
 866 0014 9B69     		ldr	r3, [r3, #24]
 867 0016 5D6C     		ldr	r5, [r3, #68]
 868              	.LVL45:
 869              		.loc 1 218 0
 870 0018 9A68     		ldr	r2, [r3, #8]
 871 001a 9542     		cmp	r5, r2
 872 001c 01D0     		beq	.L103
 873              		.loc 1 218 0 is_stmt 0 discriminator 1
 874 001e 9442     		cmp	r4, r2
 875 0020 00D9     		bls	.L104
 876              	.L103:
 877              		.loc 1 219 0 is_stmt 1
 878 0022 9C60     		str	r4, [r3, #8]
 879              	.L104:
 880              		.loc 1 220 0
 881 0024 5C64     		str	r4, [r3, #68]
 882              		.loc 1 225 0
 883 0026 FFF7FEFF 		bl	chSchRescheduleS
 884              	.LVL46:
 885              		.loc 1 226 0
 886 002a FFF7FEFF 		bl	dbg_check_unlock
 887              	.LBB61:
 888 002e 0023     		movs	r3, #0
 889              	.LVL47:
 890              	@ 226 "../../ChibiOS/os/kernel/src/chthreads.c" 1
 891 0030 83F31188 		msr     BASEPRI, r3
 892              	@ 0 "" 2
 893              	.LVL48:
 894              		.thumb
 895              	.LBE61:
 896              		.loc 1 228 0
 897 0034 2846     		mov	r0, r5
 898 0036 38BD     		pop	{r3, r4, r5, pc}
 899              	.LVL49:
 900              	.L105:
 901              		.loc 1 213 0 discriminator 1
 902 0038 0248     		ldr	r0, .L106+4
 903 003a FFF7FEFF 		bl	chDbgPanic
 904 003e E3E7     		b	.L102
 905              	.L107:
 906              		.align	2
 907              	.L106:
 908 0040 00000000 		.word	rlist
ARM GAS  /tmp/ccDJhnOM.s 			page 17


 909 0044 14000000 		.word	.LC1
 910              		.cfi_endproc
 911              	.LFE11:
 912              		.size	chThdSetPriority, .-chThdSetPriority
 913 0048 AFF30080 		.section	.text.chThdResume,"ax",%progbits
 913      AFF30080 
 914              		.align	2
 915              		.p2align 4,,15
 916              		.global	chThdResume
 917              		.thumb
 918              		.thumb_func
 919              		.type	chThdResume, %function
 920              	chThdResume:
 921              	.LFB12:
 922              		.loc 1 243 0
 923              		.cfi_startproc
 924              		@ args = 0, pretend = 0, frame = 0
 925              		@ frame_needed = 0, uses_anonymous_args = 0
 926              	.LVL50:
 927 0000 10B5     		push	{r4, lr}
 928              	.LCFI5:
 929              		.cfi_def_cfa_offset 8
 930              		.cfi_offset 14, -4
 931              		.cfi_offset 4, -8
 932              	.LBB62:
 933              		.loc 1 245 0
 934 0002 2023     		movs	r3, #32
 935              	.LVL51:
 936              	.LBE62:
 937              		.loc 1 243 0
 938 0004 0446     		mov	r4, r0
 939              	.LBB63:
 940              		.loc 1 245 0
 941              	@ 245 "../../ChibiOS/os/kernel/src/chthreads.c" 1
 942 0006 83F31188 		msr     BASEPRI, r3
 943              	@ 0 "" 2
 944              	.LVL52:
 945              		.thumb
 946              	.LBE63:
 947 000a FFF7FEFF 		bl	dbg_check_lock
 948              	.LVL53:
 949              		.loc 1 246 0
 950 000e 94F82030 		ldrb	r3, [r4, #32]	@ zero_extendqisi2
 951 0012 022B     		cmp	r3, #2
 952 0014 02D0     		beq	.L109
 953              		.loc 1 246 0 is_stmt 0 discriminator 1
 954 0016 0748     		ldr	r0, .L110
 955 0018 FFF7FEFF 		bl	chDbgPanic
 956              	.L109:
 957              		.loc 1 249 0 is_stmt 1
 958 001c 2046     		mov	r0, r4
 959 001e 0021     		movs	r1, #0
 960 0020 FFF7FEFF 		bl	chSchWakeupS
 961              		.loc 1 250 0
 962 0024 FFF7FEFF 		bl	dbg_check_unlock
 963              	.LBB64:
 964 0028 0023     		movs	r3, #0
ARM GAS  /tmp/ccDJhnOM.s 			page 18


 965              	.LVL54:
 966              	@ 250 "../../ChibiOS/os/kernel/src/chthreads.c" 1
 967 002a 83F31188 		msr     BASEPRI, r3
 968              	@ 0 "" 2
 969              	.LVL55:
 970              		.thumb
 971              	.LBE64:
 972              		.loc 1 252 0
 973 002e 2046     		mov	r0, r4
 974 0030 10BD     		pop	{r4, pc}
 975              	.L111:
 976 0032 00BF     		.align	2
 977              	.L110:
 978 0034 2C000000 		.word	.LC2
 979              		.cfi_endproc
 980              	.LFE12:
 981              		.size	chThdResume, .-chThdResume
 982 0038 AFF30080 		.section	.text.chThdTerminate,"ax",%progbits
 982      AFF30080 
 983              		.align	2
 984              		.p2align 4,,15
 985              		.global	chThdTerminate
 986              		.thumb
 987              		.thumb_func
 988              		.type	chThdTerminate, %function
 989              	chThdTerminate:
 990              	.LFB13:
 991              		.loc 1 266 0
 992              		.cfi_startproc
 993              		@ args = 0, pretend = 0, frame = 0
 994              		@ frame_needed = 0, uses_anonymous_args = 0
 995              	.LVL56:
 996 0000 10B5     		push	{r4, lr}
 997              	.LCFI6:
 998              		.cfi_def_cfa_offset 8
 999              		.cfi_offset 14, -4
 1000              		.cfi_offset 4, -8
 1001              	.LBB65:
 1002              		.loc 1 268 0
 1003 0002 2023     		movs	r3, #32
 1004              	.LVL57:
 1005              	.LBE65:
 1006              		.loc 1 266 0
 1007 0004 0446     		mov	r4, r0
 1008              	.LBB66:
 1009              		.loc 1 268 0
 1010              	@ 268 "../../ChibiOS/os/kernel/src/chthreads.c" 1
 1011 0006 83F31188 		msr     BASEPRI, r3
 1012              	@ 0 "" 2
 1013              	.LVL58:
 1014              		.thumb
 1015              	.LBE66:
 1016 000a FFF7FEFF 		bl	dbg_check_lock
 1017              	.LVL59:
 1018              		.loc 1 269 0
 1019 000e 94F82100 		ldrb	r0, [r4, #33]	@ zero_extendqisi2
 1020 0012 40F00403 		orr	r3, r0, #4
ARM GAS  /tmp/ccDJhnOM.s 			page 19


 1021 0016 84F82130 		strb	r3, [r4, #33]
 1022              		.loc 1 270 0
 1023 001a FFF7FEFF 		bl	dbg_check_unlock
 1024              	.LBB67:
 1025 001e 0023     		movs	r3, #0
 1026              	.LVL60:
 1027              	@ 270 "../../ChibiOS/os/kernel/src/chthreads.c" 1
 1028 0020 83F31188 		msr     BASEPRI, r3
 1029              	@ 0 "" 2
 1030              	.LVL61:
 1031              		.thumb
 1032              	.LBE67:
 1033              		.loc 1 271 0
 1034 0024 10BD     		pop	{r4, pc}
 1035              		.cfi_endproc
 1036              	.LFE13:
 1037              		.size	chThdTerminate, .-chThdTerminate
 1038 0026 00BFAFF3 		.section	.text.chThdSleep,"ax",%progbits
 1038      0080AFF3 
 1038      0080
 1039              		.align	2
 1040              		.p2align 4,,15
 1041              		.global	chThdSleep
 1042              		.thumb
 1043              		.thumb_func
 1044              		.type	chThdSleep, %function
 1045              	chThdSleep:
 1046              	.LFB14:
 1047              		.loc 1 285 0
 1048              		.cfi_startproc
 1049              		@ args = 0, pretend = 0, frame = 0
 1050              		@ frame_needed = 0, uses_anonymous_args = 0
 1051              	.LVL62:
 1052 0000 10B5     		push	{r4, lr}
 1053              	.LCFI7:
 1054              		.cfi_def_cfa_offset 8
 1055              		.cfi_offset 14, -4
 1056              		.cfi_offset 4, -8
 1057              		.loc 1 285 0
 1058 0002 0446     		mov	r4, r0
 1059              		.loc 1 287 0
 1060 0004 10B9     		cbnz	r0, .L114
 1061              		.loc 1 287 0 is_stmt 0 discriminator 1
 1062 0006 0948     		ldr	r0, .L115
 1063              	.LVL63:
 1064 0008 FFF7FEFF 		bl	chDbgPanic
 1065              	.L114:
 1066              	.LBB68:
 1067              		.loc 1 289 0 is_stmt 1
 1068 000c 2023     		movs	r3, #32
 1069              	.LVL64:
 1070              	@ 289 "../../ChibiOS/os/kernel/src/chthreads.c" 1
 1071 000e 83F31188 		msr     BASEPRI, r3
 1072              	@ 0 "" 2
 1073              	.LVL65:
 1074              		.thumb
 1075              	.LBE68:
ARM GAS  /tmp/ccDJhnOM.s 			page 20


 1076 0012 FFF7FEFF 		bl	dbg_check_lock
 1077              	.LVL66:
 1078              		.loc 1 290 0
 1079 0016 2146     		mov	r1, r4
 1080 0018 0620     		movs	r0, #6
 1081 001a FFF7FEFF 		bl	chSchGoSleepTimeoutS
 1082              		.loc 1 291 0
 1083 001e FFF7FEFF 		bl	dbg_check_unlock
 1084              	.LBB69:
 1085 0022 0023     		movs	r3, #0
 1086              	.LVL67:
 1087              	@ 291 "../../ChibiOS/os/kernel/src/chthreads.c" 1
 1088 0024 83F31188 		msr     BASEPRI, r3
 1089              	@ 0 "" 2
 1090              	.LVL68:
 1091              		.thumb
 1092              	.LBE69:
 1093              		.loc 1 292 0
 1094 0028 10BD     		pop	{r4, pc}
 1095              	.L116:
 1096 002a 00BF     		.align	2
 1097              	.L115:
 1098 002c 40000000 		.word	.LC3
 1099              		.cfi_endproc
 1100              	.LFE14:
 1101              		.size	chThdSleep, .-chThdSleep
 1102              		.section	.text.chThdSleepUntil,"ax",%progbits
 1103              		.align	2
 1104              		.p2align 4,,15
 1105              		.global	chThdSleepUntil
 1106              		.thumb
 1107              		.thumb_func
 1108              		.type	chThdSleepUntil, %function
 1109              	chThdSleepUntil:
 1110              	.LFB15:
 1111              		.loc 1 302 0
 1112              		.cfi_startproc
 1113              		@ args = 0, pretend = 0, frame = 0
 1114              		@ frame_needed = 0, uses_anonymous_args = 0
 1115              	.LVL69:
 1116 0000 10B5     		push	{r4, lr}
 1117              	.LCFI8:
 1118              		.cfi_def_cfa_offset 8
 1119              		.cfi_offset 14, -4
 1120              		.cfi_offset 4, -8
 1121              	.LBB70:
 1122              		.loc 1 304 0
 1123 0002 2023     		movs	r3, #32
 1124              	.LVL70:
 1125              	.LBE70:
 1126              		.loc 1 302 0
 1127 0004 0446     		mov	r4, r0
 1128              	.LBB71:
 1129              		.loc 1 304 0
 1130              	@ 304 "../../ChibiOS/os/kernel/src/chthreads.c" 1
 1131 0006 83F31188 		msr     BASEPRI, r3
 1132              	@ 0 "" 2
ARM GAS  /tmp/ccDJhnOM.s 			page 21


 1133              	.LVL71:
 1134              		.thumb
 1135              	.LBE71:
 1136 000a FFF7FEFF 		bl	dbg_check_lock
 1137              	.LVL72:
 1138              		.loc 1 305 0
 1139 000e 064B     		ldr	r3, .L119
 1140 0010 D968     		ldr	r1, [r3, #12]
 1141              	.LVL73:
 1142 0012 611A     		subs	r1, r4, r1
 1143              	.LVL74:
 1144 0014 02D0     		beq	.L118
 1145              		.loc 1 306 0
 1146 0016 0620     		movs	r0, #6
 1147 0018 FFF7FEFF 		bl	chSchGoSleepTimeoutS
 1148              	.LVL75:
 1149              	.L118:
 1150              		.loc 1 307 0
 1151 001c FFF7FEFF 		bl	dbg_check_unlock
 1152              	.LBB72:
 1153 0020 0023     		movs	r3, #0
 1154              	.LVL76:
 1155              	@ 307 "../../ChibiOS/os/kernel/src/chthreads.c" 1
 1156 0022 83F31188 		msr     BASEPRI, r3
 1157              	@ 0 "" 2
 1158              	.LVL77:
 1159              		.thumb
 1160              	.LBE72:
 1161              		.loc 1 308 0
 1162 0026 10BD     		pop	{r4, pc}
 1163              	.L120:
 1164              		.align	2
 1165              	.L119:
 1166 0028 00000000 		.word	vtlist
 1167              		.cfi_endproc
 1168              	.LFE15:
 1169              		.size	chThdSleepUntil, .-chThdSleepUntil
 1170 002c AFF30080 		.section	.text.chThdYield,"ax",%progbits
 1171              		.align	2
 1172              		.p2align 4,,15
 1173              		.global	chThdYield
 1174              		.thumb
 1175              		.thumb_func
 1176              		.type	chThdYield, %function
 1177              	chThdYield:
 1178              	.LFB16:
 1179              		.loc 1 317 0
 1180              		.cfi_startproc
 1181              		@ args = 0, pretend = 0, frame = 0
 1182              		@ frame_needed = 0, uses_anonymous_args = 0
 1183 0000 08B5     		push	{r3, lr}
 1184              	.LCFI9:
 1185              		.cfi_def_cfa_offset 8
 1186              		.cfi_offset 14, -4
 1187              		.cfi_offset 3, -8
 1188              	.LBB73:
 1189              		.loc 1 319 0
ARM GAS  /tmp/ccDJhnOM.s 			page 22


 1190 0002 2023     		movs	r3, #32
 1191              	.LVL78:
 1192              	@ 319 "../../ChibiOS/os/kernel/src/chthreads.c" 1
 1193 0004 83F31188 		msr     BASEPRI, r3
 1194              	@ 0 "" 2
 1195              	.LVL79:
 1196              		.thumb
 1197              	.LBE73:
 1198 0008 FFF7FEFF 		bl	dbg_check_lock
 1199              	.LVL80:
 1200              		.loc 1 320 0
 1201 000c 074A     		ldr	r2, .L123
 1202 000e 9069     		ldr	r0, [r2, #24]
 1203 0010 1168     		ldr	r1, [r2, #0]
 1204 0012 8368     		ldr	r3, [r0, #8]
 1205 0014 8A68     		ldr	r2, [r1, #8]
 1206 0016 9A42     		cmp	r2, r3
 1207 0018 01D3     		bcc	.L122
 1208              		.loc 1 320 0 is_stmt 0 discriminator 1
 1209 001a FFF7FEFF 		bl	chSchDoRescheduleBehind
 1210              	.L122:
 1211              		.loc 1 321 0 is_stmt 1
 1212 001e FFF7FEFF 		bl	dbg_check_unlock
 1213              	.LBB74:
 1214 0022 0023     		movs	r3, #0
 1215              	.LVL81:
 1216              	@ 321 "../../ChibiOS/os/kernel/src/chthreads.c" 1
 1217 0024 83F31188 		msr     BASEPRI, r3
 1218              	@ 0 "" 2
 1219              	.LVL82:
 1220              		.thumb
 1221              	.LBE74:
 1222              		.loc 1 322 0
 1223 0028 08BD     		pop	{r3, pc}
 1224              	.L124:
 1225 002a 00BF     		.align	2
 1226              	.L123:
 1227 002c 00000000 		.word	rlist
 1228              		.cfi_endproc
 1229              	.LFE16:
 1230              		.size	chThdYield, .-chThdYield
 1231              		.section	.text.chThdExit,"ax",%progbits
 1232              		.align	2
 1233              		.p2align 4,,15
 1234              		.global	chThdExit
 1235              		.thumb
 1236              		.thumb_func
 1237              		.type	chThdExit, %function
 1238              	chThdExit:
 1239              	.LFB17:
 1240              		.loc 1 338 0
 1241              		.cfi_startproc
 1242              		@ args = 0, pretend = 0, frame = 0
 1243              		@ frame_needed = 0, uses_anonymous_args = 0
 1244              	.LVL83:
 1245 0000 70B5     		push	{r4, r5, r6, lr}
 1246              	.LCFI10:
ARM GAS  /tmp/ccDJhnOM.s 			page 23


 1247              		.cfi_def_cfa_offset 16
 1248              		.cfi_offset 14, -4
 1249              		.cfi_offset 6, -8
 1250              		.cfi_offset 5, -12
 1251              		.cfi_offset 4, -16
 1252              	.LBB80:
 1253              		.loc 1 340 0
 1254 0002 2023     		movs	r3, #32
 1255              	.LVL84:
 1256              	.LBE80:
 1257              		.loc 1 338 0
 1258 0004 0646     		mov	r6, r0
 1259              	.LBB81:
 1260              		.loc 1 340 0
 1261              	@ 340 "../../ChibiOS/os/kernel/src/chthreads.c" 1
 1262 0006 83F31188 		msr     BASEPRI, r3
 1263              	@ 0 "" 2
 1264              	.LVL85:
 1265              		.thumb
 1266              	.LBE81:
 1267 000a FFF7FEFF 		bl	dbg_check_lock
 1268              	.LVL86:
 1269              	.LBB82:
 1270              	.LBB83:
 1271              		.loc 1 360 0
 1272 000e 104B     		ldr	r3, .L131
 1273 0010 9C69     		ldr	r4, [r3, #24]
 1274              	.LVL87:
 1275              		.loc 1 367 0
 1276 0012 2546     		mov	r5, r4
 1277 0014 55F82C0F 		ldr	r0, [r5, #44]!
 1278              		.loc 1 362 0
 1279 0018 A662     		str	r6, [r4, #40]
 1280              		.loc 1 367 0
 1281 001a A842     		cmp	r0, r5
 1282 001c 06D0     		beq	.L126
 1283              	.LVL88:
 1284              	.L129:
 1285              	.LBB84:
 1286              	.LBB85:
 1287              		.file 2 "../../ChibiOS/os/kernel/include/chinline.h"
 1288              		.loc 2 82 0
 1289 001e 0168     		ldr	r1, [r0, #0]
 1290 0020 E162     		str	r1, [r4, #44]
 1291              	.LBE85:
 1292              	.LBE84:
 1293              		.loc 1 368 0
 1294 0022 FFF7FEFF 		bl	chSchReadyI
 1295              	.LVL89:
 1296              		.loc 1 367 0
 1297 0026 E06A     		ldr	r0, [r4, #44]
 1298 0028 A842     		cmp	r0, r5
 1299 002a F8D1     		bne	.L129
 1300              	.LVL90:
 1301              	.L126:
 1302              		.loc 1 373 0
 1303 002c 94F82100 		ldrb	r0, [r4, #33]	@ zero_extendqisi2
ARM GAS  /tmp/ccDJhnOM.s 			page 24


 1304 0030 8307     		lsls	r3, r0, #30
 1305 0032 04D1     		bne	.L128
 1306              		.loc 1 374 0
 1307 0034 6369     		ldr	r3, [r4, #20]
 1308 0036 2169     		ldr	r1, [r4, #16]
 1309 0038 1961     		str	r1, [r3, #16]
 1310 003a 2269     		ldr	r2, [r4, #16]
 1311 003c 5361     		str	r3, [r2, #20]
 1312              	.L128:
 1313              		.loc 1 376 0
 1314 003e 0E20     		movs	r0, #14
 1315 0040 FFF7FEFF 		bl	chSchGoSleepS
 1316              		.loc 1 378 0
 1317 0044 0348     		ldr	r0, .L131+4
 1318              	.LBE83:
 1319              	.LBE82:
 1320              		.loc 1 343 0
 1321 0046 BDE87040 		pop	{r4, r5, r6, lr}
 1322              	.LBB87:
 1323              	.LBB86:
 1324              		.loc 1 378 0
 1325 004a FFF7FEBF 		b	chDbgPanic
 1326              	.L132:
 1327 004e 00BF     		.align	2
 1328              	.L131:
 1329 0050 00000000 		.word	rlist
 1330 0054 50000000 		.word	.LC4
 1331              	.LBE86:
 1332              	.LBE87:
 1333              		.cfi_endproc
 1334              	.LFE17:
 1335              		.size	chThdExit, .-chThdExit
 1336 0058 AFF30080 		.section	.text.chThdExitS,"ax",%progbits
 1336      AFF30080 
 1337              		.align	2
 1338              		.p2align 4,,15
 1339              		.global	chThdExitS
 1340              		.thumb
 1341              		.thumb_func
 1342              		.type	chThdExitS, %function
 1343              	chThdExitS:
 1344              	.LFB18:
 1345              		.loc 1 359 0
 1346              		.cfi_startproc
 1347              		@ args = 0, pretend = 0, frame = 0
 1348              		@ frame_needed = 0, uses_anonymous_args = 0
 1349              	.LVL91:
 1350              		.loc 1 360 0
 1351 0000 104A     		ldr	r2, .L139
 1352              		.loc 1 359 0
 1353 0002 38B5     		push	{r3, r4, r5, lr}
 1354              	.LCFI11:
 1355              		.cfi_def_cfa_offset 16
 1356              		.cfi_offset 14, -4
 1357              		.cfi_offset 5, -8
 1358              		.cfi_offset 4, -12
 1359              		.cfi_offset 3, -16
ARM GAS  /tmp/ccDJhnOM.s 			page 25


 1360              		.loc 1 360 0
 1361 0004 9469     		ldr	r4, [r2, #24]
 1362              	.LVL92:
 1363              		.loc 1 359 0
 1364 0006 0346     		mov	r3, r0
 1365              		.loc 1 367 0
 1366 0008 2546     		mov	r5, r4
 1367 000a 55F82C0F 		ldr	r0, [r5, #44]!
 1368              	.LVL93:
 1369              		.loc 1 362 0
 1370 000e A362     		str	r3, [r4, #40]
 1371              		.loc 1 367 0
 1372 0010 A842     		cmp	r0, r5
 1373 0012 06D0     		beq	.L134
 1374              	.LVL94:
 1375              	.L137:
 1376              	.LBB88:
 1377              	.LBB89:
 1378              		.loc 2 82 0
 1379 0014 0168     		ldr	r1, [r0, #0]
 1380 0016 E162     		str	r1, [r4, #44]
 1381              	.LBE89:
 1382              	.LBE88:
 1383              		.loc 1 368 0
 1384 0018 FFF7FEFF 		bl	chSchReadyI
 1385              	.LVL95:
 1386              		.loc 1 367 0
 1387 001c E06A     		ldr	r0, [r4, #44]
 1388 001e A842     		cmp	r0, r5
 1389 0020 F8D1     		bne	.L137
 1390              	.LVL96:
 1391              	.L134:
 1392              		.loc 1 373 0
 1393 0022 94F82100 		ldrb	r0, [r4, #33]	@ zero_extendqisi2
 1394 0026 8207     		lsls	r2, r0, #30
 1395 0028 04D1     		bne	.L136
 1396              		.loc 1 374 0
 1397 002a 6369     		ldr	r3, [r4, #20]
 1398 002c 2169     		ldr	r1, [r4, #16]
 1399 002e 1961     		str	r1, [r3, #16]
 1400 0030 2269     		ldr	r2, [r4, #16]
 1401 0032 5361     		str	r3, [r2, #20]
 1402              	.L136:
 1403              		.loc 1 376 0
 1404 0034 0E20     		movs	r0, #14
 1405 0036 FFF7FEFF 		bl	chSchGoSleepS
 1406              		.loc 1 378 0
 1407 003a 0348     		ldr	r0, .L139+4
 1408              		.loc 1 379 0
 1409 003c BDE83840 		pop	{r3, r4, r5, lr}
 1410              		.loc 1 378 0
 1411 0040 FFF7FEBF 		b	chDbgPanic
 1412              	.L140:
 1413              		.align	2
 1414              	.L139:
 1415 0044 00000000 		.word	rlist
 1416 0048 50000000 		.word	.LC4
ARM GAS  /tmp/ccDJhnOM.s 			page 26


 1417              		.cfi_endproc
 1418              	.LFE18:
 1419              		.size	chThdExitS, .-chThdExitS
 1420 004c AFF30080 		.section	.text.chThdWait,"ax",%progbits
 1421              		.align	2
 1422              		.p2align 4,,15
 1423              		.global	chThdWait
 1424              		.thumb
 1425              		.thumb_func
 1426              		.type	chThdWait, %function
 1427              	chThdWait:
 1428              	.LFB19:
 1429              		.loc 1 413 0
 1430              		.cfi_startproc
 1431              		@ args = 0, pretend = 0, frame = 0
 1432              		@ frame_needed = 0, uses_anonymous_args = 0
 1433              	.LVL97:
 1434 0000 38B5     		push	{r3, r4, r5, lr}
 1435              	.LCFI12:
 1436              		.cfi_def_cfa_offset 16
 1437              		.cfi_offset 14, -4
 1438              		.cfi_offset 5, -8
 1439              		.cfi_offset 4, -12
 1440              		.cfi_offset 3, -16
 1441              		.loc 1 413 0
 1442 0002 0446     		mov	r4, r0
 1443              		.loc 1 416 0
 1444 0004 48B3     		cbz	r0, .L146
 1445              	.LVL98:
 1446              	.L142:
 1447              	.LBB90:
 1448              		.loc 1 418 0
 1449 0006 2023     		movs	r3, #32
 1450              	.LVL99:
 1451              	@ 418 "../../ChibiOS/os/kernel/src/chthreads.c" 1
 1452 0008 83F31188 		msr     BASEPRI, r3
 1453              	@ 0 "" 2
 1454              	.LVL100:
 1455              		.thumb
 1456              	.LBE90:
 1457              		.loc 1 419 0
 1458 000c 154D     		ldr	r5, .L149
 1459              		.loc 1 418 0
 1460 000e FFF7FEFF 		bl	dbg_check_lock
 1461              	.LVL101:
 1462              		.loc 1 419 0
 1463 0012 AB69     		ldr	r3, [r5, #24]
 1464 0014 A342     		cmp	r3, r4
 1465 0016 1CD0     		beq	.L147
 1466              	.L143:
 1467              		.loc 1 421 0
 1468 0018 94F82200 		ldrb	r0, [r4, #34]	@ zero_extendqisi2
 1469 001c A8B1     		cbz	r0, .L148
 1470              	.L144:
 1471              		.loc 1 423 0
 1472 001e 94F82010 		ldrb	r1, [r4, #32]	@ zero_extendqisi2
 1473 0022 0E29     		cmp	r1, #14
ARM GAS  /tmp/ccDJhnOM.s 			page 27


 1474 0024 06D0     		beq	.L145
 1475              		.loc 1 424 0
 1476 0026 AD69     		ldr	r5, [r5, #24]
 1477              	.LVL102:
 1478              	.LBB91:
 1479              	.LBB92:
 1480              		.loc 2 75 0
 1481 0028 E26A     		ldr	r2, [r4, #44]
 1482              	.LBE92:
 1483              	.LBE91:
 1484              		.loc 1 425 0
 1485 002a 0720     		movs	r0, #7
 1486              	.LBB94:
 1487              	.LBB93:
 1488              		.loc 2 75 0
 1489 002c 2A60     		str	r2, [r5, #0]
 1490              		.loc 2 76 0
 1491 002e E562     		str	r5, [r4, #44]
 1492              	.LBE93:
 1493              	.LBE94:
 1494              		.loc 1 425 0
 1495 0030 FFF7FEFF 		bl	chSchGoSleepS
 1496              	.LVL103:
 1497              	.L145:
 1498              		.loc 1 427 0
 1499 0034 A56A     		ldr	r5, [r4, #40]
 1500              	.LVL104:
 1501              		.loc 1 428 0
 1502 0036 FFF7FEFF 		bl	dbg_check_unlock
 1503              	.LVL105:
 1504              	.LBB95:
 1505 003a 0023     		movs	r3, #0
 1506              	.LVL106:
 1507              	@ 428 "../../ChibiOS/os/kernel/src/chthreads.c" 1
 1508 003c 83F31188 		msr     BASEPRI, r3
 1509              	@ 0 "" 2
 1510              	.LVL107:
 1511              		.thumb
 1512              	.LBE95:
 1513              		.loc 1 430 0
 1514 0040 2046     		mov	r0, r4
 1515 0042 FFF7FEFF 		bl	chThdRelease
 1516              	.LVL108:
 1517              		.loc 1 433 0
 1518 0046 2846     		mov	r0, r5
 1519 0048 38BD     		pop	{r3, r4, r5, pc}
 1520              	.LVL109:
 1521              	.L148:
 1522              		.loc 1 421 0 discriminator 1
 1523 004a 0748     		ldr	r0, .L149+4
 1524 004c FFF7FEFF 		bl	chDbgPanic
 1525 0050 E5E7     		b	.L144
 1526              	.L147:
 1527              		.loc 1 419 0 discriminator 1
 1528 0052 0648     		ldr	r0, .L149+8
 1529 0054 FFF7FEFF 		bl	chDbgPanic
 1530 0058 DEE7     		b	.L143
ARM GAS  /tmp/ccDJhnOM.s 			page 28


 1531              	.L146:
 1532              		.loc 1 416 0 discriminator 1
 1533 005a 0548     		ldr	r0, .L149+12
 1534 005c FFF7FEFF 		bl	chDbgPanic
 1535 0060 D1E7     		b	.L142
 1536              	.L150:
 1537 0062 00BF     		.align	2
 1538              	.L149:
 1539 0064 00000000 		.word	rlist
 1540 0068 84000000 		.word	.LC7
 1541 006c 74000000 		.word	.LC6
 1542 0070 64000000 		.word	.LC5
 1543              		.cfi_endproc
 1544              	.LFE19:
 1545              		.size	chThdWait, .-chThdWait
 1546 0074 AFF30080 		.section	.rodata.str1.4,"aMS",%progbits,1
 1546      AFF30080 
 1546      AFF30080 
 1547              		.align	2
 1548              	.LC0:
 1549 0000 22636854 		.ascii	"\"chThdCreateI\"()\000"
 1549      68644372 
 1549      65617465 
 1549      49222829 
 1549      00
 1550 0011 000000   		.space	3
 1551              	.LC1:
 1552 0014 22636854 		.ascii	"\"chThdSetPriority\"()\000"
 1552      68645365 
 1552      74507269 
 1552      6F726974 
 1552      79222829 
 1553 0029 000000   		.space	3
 1554              	.LC2:
 1555 002c 63685468 		.ascii	"chThdResume(), #1\000"
 1555      64526573 
 1555      756D6528 
 1555      292C2023 
 1555      3100
 1556 003e 0000     		.space	2
 1557              	.LC3:
 1558 0040 22636854 		.ascii	"\"chThdSleep\"()\000"
 1558      6864536C 
 1558      65657022 
 1558      282900
 1559 004f 00       		.space	1
 1560              	.LC4:
 1561 0050 63685468 		.ascii	"chThdExitS(), #1\000"
 1561      64457869 
 1561      74532829 
 1561      2C202331 
 1561      00
 1562 0061 000000   		.space	3
 1563              	.LC5:
 1564 0064 22636854 		.ascii	"\"chThdWait\"()\000"
 1564      68645761 
 1564      69742228 
ARM GAS  /tmp/ccDJhnOM.s 			page 29


 1564      2900
 1565 0072 0000     		.space	2
 1566              	.LC6:
 1567 0074 63685468 		.ascii	"chThdWait(), #1\000"
 1567      64576169 
 1567      7428292C 
 1567      20233100 
 1568              	.LC7:
 1569 0084 63685468 		.ascii	"chThdWait(), #2\000"
 1569      64576169 
 1569      7428292C 
 1569      20233200 
 1570              		.text
 1571              	.Letext0:
 1572              		.file 3 "/home/tino/ChibiStudio/tools/GNU Tools ARM Embedded/4.6 2012q2/bin/../lib/gcc/arm-none-ea
 1573              		.file 4 "/home/tino/ChibiStudio/tools/GNU Tools ARM Embedded/4.6 2012q2/bin/../lib/gcc/arm-none-ea
 1574              		.file 5 "../../ChibiOS/os/ports/GCC/ARMCMx/chtypes.h"
 1575              		.file 6 "../../ChibiOS/os/kernel/include/chlists.h"
 1576              		.file 7 "../../ChibiOS/os/kernel/include/chthreads.h"
 1577              		.file 8 "../../ChibiOS/os/ports/GCC/ARMCMx/chcore_v7m.h"
 1578              		.file 9 "../../ChibiOS/os/kernel/include/chvt.h"
 1579              		.file 10 "../../ChibiOS/os/kernel/include/chschd.h"
 1580              		.file 11 "../../ChibiOS/os/kernel/include/chmtx.h"
 1581              		.section	.debug_info,"",%progbits
 1582              	.Ldebug_info0:
 1583 0000 AF0C0000 		.4byte	0xcaf
 1584 0004 0200     		.2byte	0x2
 1585 0006 00000000 		.4byte	.Ldebug_abbrev0
 1586 000a 04       		.byte	0x4
 1587 000b 01       		.uleb128 0x1
 1588 000c DF000000 		.4byte	.LASF98
 1589 0010 01       		.byte	0x1
 1590 0011 2A000000 		.4byte	.LASF99
 1591 0015 28010000 		.4byte	.LASF100
 1592 0019 00000000 		.4byte	0
 1593 001d 00000000 		.4byte	0
 1594 0021 50010000 		.4byte	.Ldebug_ranges0+0x150
 1595 0025 00000000 		.4byte	.Ldebug_line0
 1596 0029 02       		.uleb128 0x2
 1597 002a 04       		.byte	0x4
 1598 002b 05       		.byte	0x5
 1599 002c 696E7400 		.ascii	"int\000"
 1600 0030 03       		.uleb128 0x3
 1601 0031 0E000000 		.4byte	.LASF2
 1602 0035 03       		.byte	0x3
 1603 0036 D4       		.byte	0xd4
 1604 0037 3B000000 		.4byte	0x3b
 1605 003b 04       		.uleb128 0x4
 1606 003c 04       		.byte	0x4
 1607 003d 07       		.byte	0x7
 1608 003e AB010000 		.4byte	.LASF0
 1609 0042 04       		.uleb128 0x4
 1610 0043 01       		.byte	0x1
 1611 0044 06       		.byte	0x6
 1612 0045 99000000 		.4byte	.LASF1
 1613 0049 03       		.uleb128 0x3
 1614 004a 09040000 		.4byte	.LASF3
ARM GAS  /tmp/ccDJhnOM.s 			page 30


 1615 004e 04       		.byte	0x4
 1616 004f 2A       		.byte	0x2a
 1617 0050 54000000 		.4byte	0x54
 1618 0054 04       		.uleb128 0x4
 1619 0055 01       		.byte	0x1
 1620 0056 08       		.byte	0x8
 1621 0057 F0020000 		.4byte	.LASF4
 1622 005b 04       		.uleb128 0x4
 1623 005c 02       		.byte	0x2
 1624 005d 05       		.byte	0x5
 1625 005e 08030000 		.4byte	.LASF5
 1626 0062 04       		.uleb128 0x4
 1627 0063 02       		.byte	0x2
 1628 0064 07       		.byte	0x7
 1629 0065 DF010000 		.4byte	.LASF6
 1630 0069 03       		.uleb128 0x3
 1631 006a E8020000 		.4byte	.LASF7
 1632 006e 04       		.byte	0x4
 1633 006f 4F       		.byte	0x4f
 1634 0070 74000000 		.4byte	0x74
 1635 0074 04       		.uleb128 0x4
 1636 0075 04       		.byte	0x4
 1637 0076 05       		.byte	0x5
 1638 0077 D6000000 		.4byte	.LASF8
 1639 007b 03       		.uleb128 0x3
 1640 007c 63030000 		.4byte	.LASF9
 1641 0080 04       		.byte	0x4
 1642 0081 50       		.byte	0x50
 1643 0082 86000000 		.4byte	0x86
 1644 0086 04       		.uleb128 0x4
 1645 0087 04       		.byte	0x4
 1646 0088 07       		.byte	0x7
 1647 0089 C0010000 		.4byte	.LASF10
 1648 008d 04       		.uleb128 0x4
 1649 008e 08       		.byte	0x8
 1650 008f 05       		.byte	0x5
 1651 0090 8B000000 		.4byte	.LASF11
 1652 0094 03       		.uleb128 0x3
 1653 0095 21000000 		.4byte	.LASF12
 1654 0099 04       		.byte	0x4
 1655 009a 78       		.byte	0x78
 1656 009b 9F000000 		.4byte	0x9f
 1657 009f 04       		.uleb128 0x4
 1658 00a0 08       		.byte	0x8
 1659 00a1 07       		.byte	0x7
 1660 00a2 64000000 		.4byte	.LASF13
 1661 00a6 04       		.uleb128 0x4
 1662 00a7 01       		.byte	0x1
 1663 00a8 02       		.byte	0x2
 1664 00a9 E2020000 		.4byte	.LASF14
 1665 00ad 03       		.uleb128 0x3
 1666 00ae 00020000 		.4byte	.LASF15
 1667 00b2 05       		.byte	0x5
 1668 00b3 25       		.byte	0x25
 1669 00b4 49000000 		.4byte	0x49
 1670 00b8 03       		.uleb128 0x3
 1671 00b9 59010000 		.4byte	.LASF16
ARM GAS  /tmp/ccDJhnOM.s 			page 31


 1672 00bd 05       		.byte	0x5
 1673 00be 26       		.byte	0x26
 1674 00bf 49000000 		.4byte	0x49
 1675 00c3 03       		.uleb128 0x3
 1676 00c4 CB020000 		.4byte	.LASF17
 1677 00c8 05       		.byte	0x5
 1678 00c9 27       		.byte	0x27
 1679 00ca 49000000 		.4byte	0x49
 1680 00ce 03       		.uleb128 0x3
 1681 00cf BF000000 		.4byte	.LASF18
 1682 00d3 05       		.byte	0x5
 1683 00d4 28       		.byte	0x28
 1684 00d5 49000000 		.4byte	0x49
 1685 00d9 03       		.uleb128 0x3
 1686 00da DA020000 		.4byte	.LASF19
 1687 00de 05       		.byte	0x5
 1688 00df 29       		.byte	0x29
 1689 00e0 7B000000 		.4byte	0x7b
 1690 00e4 03       		.uleb128 0x3
 1691 00e5 F2010000 		.4byte	.LASF20
 1692 00e9 05       		.byte	0x5
 1693 00ea 2A       		.byte	0x2a
 1694 00eb 69000000 		.4byte	0x69
 1695 00ef 03       		.uleb128 0x3
 1696 00f0 23020000 		.4byte	.LASF21
 1697 00f4 05       		.byte	0x5
 1698 00f5 2C       		.byte	0x2c
 1699 00f6 7B000000 		.4byte	0x7b
 1700 00fa 03       		.uleb128 0x3
 1701 00fb 9A030000 		.4byte	.LASF22
 1702 00ff 05       		.byte	0x5
 1703 0100 2E       		.byte	0x2e
 1704 0101 7B000000 		.4byte	0x7b
 1705 0105 03       		.uleb128 0x3
 1706 0106 51030000 		.4byte	.LASF23
 1707 010a 06       		.byte	0x6
 1708 010b 23       		.byte	0x23
 1709 010c 10010000 		.4byte	0x110
 1710 0110 05       		.uleb128 0x5
 1711 0111 51030000 		.4byte	.LASF23
 1712 0115 4C       		.byte	0x4c
 1713 0116 07       		.byte	0x7
 1714 0117 57       		.byte	0x57
 1715 0118 43020000 		.4byte	0x243
 1716 011c 06       		.uleb128 0x6
 1717 011d 32030000 		.4byte	.LASF24
 1718 0121 07       		.byte	0x7
 1719 0122 58       		.byte	0x58
 1720 0123 68020000 		.4byte	0x268
 1721 0127 02       		.byte	0x2
 1722 0128 23       		.byte	0x23
 1723 0129 00       		.uleb128 0
 1724 012a 06       		.uleb128 0x6
 1725 012b D3020000 		.4byte	.LASF25
 1726 012f 07       		.byte	0x7
 1727 0130 5A       		.byte	0x5a
 1728 0131 68020000 		.4byte	0x268
ARM GAS  /tmp/ccDJhnOM.s 			page 32


 1729 0135 02       		.byte	0x2
 1730 0136 23       		.byte	0x23
 1731 0137 04       		.uleb128 0x4
 1732 0138 06       		.uleb128 0x6
 1733 0139 84000000 		.4byte	.LASF26
 1734 013d 07       		.byte	0x7
 1735 013e 5C       		.byte	0x5c
 1736 013f D9000000 		.4byte	0xd9
 1737 0143 02       		.byte	0x2
 1738 0144 23       		.byte	0x23
 1739 0145 08       		.uleb128 0x8
 1740 0146 06       		.uleb128 0x6
 1741 0147 44040000 		.4byte	.LASF27
 1742 014b 07       		.byte	0x7
 1743 014c 5D       		.byte	0x5d
 1744 014d 41030000 		.4byte	0x341
 1745 0151 02       		.byte	0x2
 1746 0152 23       		.byte	0x23
 1747 0153 0C       		.uleb128 0xc
 1748 0154 06       		.uleb128 0x6
 1749 0155 62010000 		.4byte	.LASF28
 1750 0159 07       		.byte	0x7
 1751 015a 5F       		.byte	0x5f
 1752 015b 68020000 		.4byte	0x268
 1753 015f 02       		.byte	0x2
 1754 0160 23       		.byte	0x23
 1755 0161 10       		.uleb128 0x10
 1756 0162 06       		.uleb128 0x6
 1757 0163 7D020000 		.4byte	.LASF29
 1758 0167 07       		.byte	0x7
 1759 0168 60       		.byte	0x60
 1760 0169 68020000 		.4byte	0x268
 1761 016d 02       		.byte	0x2
 1762 016e 23       		.byte	0x23
 1763 016f 14       		.uleb128 0x14
 1764 0170 06       		.uleb128 0x6
 1765 0171 23040000 		.4byte	.LASF30
 1766 0175 07       		.byte	0x7
 1767 0176 67       		.byte	0x67
 1768 0177 1B050000 		.4byte	0x51b
 1769 017b 02       		.byte	0x2
 1770 017c 23       		.byte	0x23
 1771 017d 18       		.uleb128 0x18
 1772 017e 06       		.uleb128 0x6
 1773 017f A0010000 		.4byte	.LASF31
 1774 0183 07       		.byte	0x7
 1775 0184 6D       		.byte	0x6d
 1776 0185 2D050000 		.4byte	0x52d
 1777 0189 02       		.byte	0x2
 1778 018a 23       		.byte	0x23
 1779 018b 1C       		.uleb128 0x1c
 1780 018c 06       		.uleb128 0x6
 1781 018d 12030000 		.4byte	.LASF32
 1782 0191 07       		.byte	0x7
 1783 0192 72       		.byte	0x72
 1784 0193 B8000000 		.4byte	0xb8
 1785 0197 02       		.byte	0x2
ARM GAS  /tmp/ccDJhnOM.s 			page 33


 1786 0198 23       		.byte	0x23
 1787 0199 20       		.uleb128 0x20
 1788 019a 06       		.uleb128 0x6
 1789 019b 39030000 		.4byte	.LASF33
 1790 019f 07       		.byte	0x7
 1791 01a0 76       		.byte	0x76
 1792 01a1 AD000000 		.4byte	0xad
 1793 01a5 02       		.byte	0x2
 1794 01a6 23       		.byte	0x23
 1795 01a7 21       		.uleb128 0x21
 1796 01a8 06       		.uleb128 0x6
 1797 01a9 F2030000 		.4byte	.LASF34
 1798 01ad 07       		.byte	0x7
 1799 01ae 7B       		.byte	0x7b
 1800 01af C3000000 		.4byte	0xc3
 1801 01b3 02       		.byte	0x2
 1802 01b4 23       		.byte	0x23
 1803 01b5 22       		.uleb128 0x22
 1804 01b6 06       		.uleb128 0x6
 1805 01b7 1A030000 		.4byte	.LASF35
 1806 01bb 07       		.byte	0x7
 1807 01bc 81       		.byte	0x81
 1808 01bd CE000000 		.4byte	0xce
 1809 01c1 02       		.byte	0x2
 1810 01c2 23       		.byte	0x23
 1811 01c3 23       		.uleb128 0x23
 1812 01c4 06       		.uleb128 0x6
 1813 01c5 B8030000 		.4byte	.LASF36
 1814 01c9 07       		.byte	0x7
 1815 01ca 88       		.byte	0x88
 1816 01cb 26040000 		.4byte	0x426
 1817 01cf 02       		.byte	0x2
 1818 01d0 23       		.byte	0x23
 1819 01d1 24       		.uleb128 0x24
 1820 01d2 07       		.uleb128 0x7
 1821 01d3 705F7500 		.ascii	"p_u\000"
 1822 01d7 07       		.byte	0x7
 1823 01d8 AD       		.byte	0xad
 1824 01d9 E6040000 		.4byte	0x4e6
 1825 01dd 02       		.byte	0x2
 1826 01de 23       		.byte	0x23
 1827 01df 28       		.uleb128 0x28
 1828 01e0 06       		.uleb128 0x6
 1829 01e1 4A040000 		.4byte	.LASF37
 1830 01e5 07       		.byte	0x7
 1831 01e6 B2       		.byte	0xb2
 1832 01e7 90020000 		.4byte	0x290
 1833 01eb 02       		.byte	0x2
 1834 01ec 23       		.byte	0x23
 1835 01ed 2C       		.uleb128 0x2c
 1836 01ee 06       		.uleb128 0x6
 1837 01ef C6030000 		.4byte	.LASF38
 1838 01f3 07       		.byte	0x7
 1839 01f4 B8       		.byte	0xb8
 1840 01f5 6E020000 		.4byte	0x26e
 1841 01f9 02       		.byte	0x2
 1842 01fa 23       		.byte	0x23
ARM GAS  /tmp/ccDJhnOM.s 			page 34


 1843 01fb 30       		.uleb128 0x30
 1844 01fc 06       		.uleb128 0x6
 1845 01fd 08000000 		.4byte	.LASF39
 1846 0201 07       		.byte	0x7
 1847 0202 BC       		.byte	0xbc
 1848 0203 E4000000 		.4byte	0xe4
 1849 0207 02       		.byte	0x2
 1850 0208 23       		.byte	0x23
 1851 0209 38       		.uleb128 0x38
 1852 020a 06       		.uleb128 0x6
 1853 020b 58030000 		.4byte	.LASF40
 1854 020f 07       		.byte	0x7
 1855 0210 C2       		.byte	0xc2
 1856 0211 EF000000 		.4byte	0xef
 1857 0215 02       		.byte	0x2
 1858 0216 23       		.byte	0x23
 1859 0217 3C       		.uleb128 0x3c
 1860 0218 06       		.uleb128 0x6
 1861 0219 FE020000 		.4byte	.LASF41
 1862 021d 07       		.byte	0x7
 1863 021e C9       		.byte	0xc9
 1864 021f 33050000 		.4byte	0x533
 1865 0223 02       		.byte	0x2
 1866 0224 23       		.byte	0x23
 1867 0225 40       		.uleb128 0x40
 1868 0226 06       		.uleb128 0x6
 1869 0227 A4030000 		.4byte	.LASF42
 1870 022b 07       		.byte	0x7
 1871 022c CD       		.byte	0xcd
 1872 022d D9000000 		.4byte	0xd9
 1873 0231 02       		.byte	0x2
 1874 0232 23       		.byte	0x23
 1875 0233 44       		.uleb128 0x44
 1876 0234 06       		.uleb128 0x6
 1877 0235 AF000000 		.4byte	.LASF43
 1878 0239 07       		.byte	0x7
 1879 023a D3       		.byte	0xd3
 1880 023b A6020000 		.4byte	0x2a6
 1881 023f 02       		.byte	0x2
 1882 0240 23       		.byte	0x23
 1883 0241 48       		.uleb128 0x48
 1884 0242 00       		.byte	0
 1885 0243 08       		.uleb128 0x8
 1886 0244 08       		.byte	0x8
 1887 0245 06       		.byte	0x6
 1888 0246 5A       		.byte	0x5a
 1889 0247 68020000 		.4byte	0x268
 1890 024b 06       		.uleb128 0x6
 1891 024c 32030000 		.4byte	.LASF24
 1892 0250 06       		.byte	0x6
 1893 0251 5B       		.byte	0x5b
 1894 0252 68020000 		.4byte	0x268
 1895 0256 02       		.byte	0x2
 1896 0257 23       		.byte	0x23
 1897 0258 00       		.uleb128 0
 1898 0259 06       		.uleb128 0x6
 1899 025a D3020000 		.4byte	.LASF25
ARM GAS  /tmp/ccDJhnOM.s 			page 35


 1900 025e 06       		.byte	0x6
 1901 025f 5D       		.byte	0x5d
 1902 0260 68020000 		.4byte	0x268
 1903 0264 02       		.byte	0x2
 1904 0265 23       		.byte	0x23
 1905 0266 04       		.uleb128 0x4
 1906 0267 00       		.byte	0
 1907 0268 09       		.uleb128 0x9
 1908 0269 04       		.byte	0x4
 1909 026a 05010000 		.4byte	0x105
 1910 026e 03       		.uleb128 0x3
 1911 026f 8B020000 		.4byte	.LASF44
 1912 0273 06       		.byte	0x6
 1913 0274 5F       		.byte	0x5f
 1914 0275 43020000 		.4byte	0x243
 1915 0279 08       		.uleb128 0x8
 1916 027a 04       		.byte	0x4
 1917 027b 06       		.byte	0x6
 1918 027c 64       		.byte	0x64
 1919 027d 90020000 		.4byte	0x290
 1920 0281 06       		.uleb128 0x6
 1921 0282 32030000 		.4byte	.LASF24
 1922 0286 06       		.byte	0x6
 1923 0287 66       		.byte	0x66
 1924 0288 68020000 		.4byte	0x268
 1925 028c 02       		.byte	0x2
 1926 028d 23       		.byte	0x23
 1927 028e 00       		.uleb128 0
 1928 028f 00       		.byte	0
 1929 0290 03       		.uleb128 0x3
 1930 0291 17020000 		.4byte	.LASF45
 1931 0295 06       		.byte	0x6
 1932 0296 69       		.byte	0x69
 1933 0297 79020000 		.4byte	0x279
 1934 029b 03       		.uleb128 0x3
 1935 029c 7E010000 		.4byte	.LASF46
 1936 02a0 08       		.byte	0x8
 1937 02a1 DE       		.byte	0xde
 1938 02a2 A6020000 		.4byte	0x2a6
 1939 02a6 0A       		.uleb128 0xa
 1940 02a7 04       		.byte	0x4
 1941 02a8 03       		.uleb128 0x3
 1942 02a9 3D020000 		.4byte	.LASF47
 1943 02ad 08       		.byte	0x8
 1944 02ae E4       		.byte	0xe4
 1945 02af 94000000 		.4byte	0x94
 1946 02b3 0B       		.uleb128 0xb
 1947 02b4 BF030000 		.4byte	.LASF48
 1948 02b8 24       		.byte	0x24
 1949 02b9 08       		.byte	0x8
 1950 02ba 0501     		.2byte	0x105
 1951 02bc 41030000 		.4byte	0x341
 1952 02c0 0C       		.uleb128 0xc
 1953 02c1 723400   		.ascii	"r4\000"
 1954 02c4 08       		.byte	0x8
 1955 02c5 1801     		.2byte	0x118
 1956 02c7 9B020000 		.4byte	0x29b
ARM GAS  /tmp/ccDJhnOM.s 			page 36


 1957 02cb 02       		.byte	0x2
 1958 02cc 23       		.byte	0x23
 1959 02cd 00       		.uleb128 0
 1960 02ce 0C       		.uleb128 0xc
 1961 02cf 723500   		.ascii	"r5\000"
 1962 02d2 08       		.byte	0x8
 1963 02d3 1901     		.2byte	0x119
 1964 02d5 9B020000 		.4byte	0x29b
 1965 02d9 02       		.byte	0x2
 1966 02da 23       		.byte	0x23
 1967 02db 04       		.uleb128 0x4
 1968 02dc 0C       		.uleb128 0xc
 1969 02dd 723600   		.ascii	"r6\000"
 1970 02e0 08       		.byte	0x8
 1971 02e1 1A01     		.2byte	0x11a
 1972 02e3 9B020000 		.4byte	0x29b
 1973 02e7 02       		.byte	0x2
 1974 02e8 23       		.byte	0x23
 1975 02e9 08       		.uleb128 0x8
 1976 02ea 0C       		.uleb128 0xc
 1977 02eb 723700   		.ascii	"r7\000"
 1978 02ee 08       		.byte	0x8
 1979 02ef 1B01     		.2byte	0x11b
 1980 02f1 9B020000 		.4byte	0x29b
 1981 02f5 02       		.byte	0x2
 1982 02f6 23       		.byte	0x23
 1983 02f7 0C       		.uleb128 0xc
 1984 02f8 0C       		.uleb128 0xc
 1985 02f9 723800   		.ascii	"r8\000"
 1986 02fc 08       		.byte	0x8
 1987 02fd 1C01     		.2byte	0x11c
 1988 02ff 9B020000 		.4byte	0x29b
 1989 0303 02       		.byte	0x2
 1990 0304 23       		.byte	0x23
 1991 0305 10       		.uleb128 0x10
 1992 0306 0C       		.uleb128 0xc
 1993 0307 723900   		.ascii	"r9\000"
 1994 030a 08       		.byte	0x8
 1995 030b 1D01     		.2byte	0x11d
 1996 030d 9B020000 		.4byte	0x29b
 1997 0311 02       		.byte	0x2
 1998 0312 23       		.byte	0x23
 1999 0313 14       		.uleb128 0x14
 2000 0314 0C       		.uleb128 0xc
 2001 0315 72313000 		.ascii	"r10\000"
 2002 0319 08       		.byte	0x8
 2003 031a 1E01     		.2byte	0x11e
 2004 031c 9B020000 		.4byte	0x29b
 2005 0320 02       		.byte	0x2
 2006 0321 23       		.byte	0x23
 2007 0322 18       		.uleb128 0x18
 2008 0323 0C       		.uleb128 0xc
 2009 0324 72313100 		.ascii	"r11\000"
 2010 0328 08       		.byte	0x8
 2011 0329 1F01     		.2byte	0x11f
 2012 032b 9B020000 		.4byte	0x29b
 2013 032f 02       		.byte	0x2
ARM GAS  /tmp/ccDJhnOM.s 			page 37


 2014 0330 23       		.byte	0x23
 2015 0331 1C       		.uleb128 0x1c
 2016 0332 0C       		.uleb128 0xc
 2017 0333 6C7200   		.ascii	"lr\000"
 2018 0336 08       		.byte	0x8
 2019 0337 2001     		.2byte	0x120
 2020 0339 9B020000 		.4byte	0x29b
 2021 033d 02       		.byte	0x2
 2022 033e 23       		.byte	0x23
 2023 033f 20       		.uleb128 0x20
 2024 0340 00       		.byte	0
 2025 0341 0B       		.uleb128 0xb
 2026 0342 D2010000 		.4byte	.LASF49
 2027 0346 04       		.byte	0x4
 2028 0347 08       		.byte	0x8
 2029 0348 2A01     		.2byte	0x12a
 2030 034a 5E030000 		.4byte	0x35e
 2031 034e 0C       		.uleb128 0xc
 2032 034f 72313300 		.ascii	"r13\000"
 2033 0353 08       		.byte	0x8
 2034 0354 2B01     		.2byte	0x12b
 2035 0356 5E030000 		.4byte	0x35e
 2036 035a 02       		.byte	0x2
 2037 035b 23       		.byte	0x23
 2038 035c 00       		.uleb128 0
 2039 035d 00       		.byte	0
 2040 035e 09       		.uleb128 0x9
 2041 035f 04       		.byte	0x4
 2042 0360 B3020000 		.4byte	0x2b3
 2043 0364 03       		.uleb128 0x3
 2044 0365 AF030000 		.4byte	.LASF50
 2045 0369 09       		.byte	0x9
 2046 036a 4E       		.byte	0x4e
 2047 036b 6F030000 		.4byte	0x36f
 2048 036f 09       		.uleb128 0x9
 2049 0370 04       		.byte	0x4
 2050 0371 75030000 		.4byte	0x375
 2051 0375 0D       		.uleb128 0xd
 2052 0376 01       		.byte	0x1
 2053 0377 81030000 		.4byte	0x381
 2054 037b 0E       		.uleb128 0xe
 2055 037c A6020000 		.4byte	0x2a6
 2056 0380 00       		.byte	0
 2057 0381 03       		.uleb128 0x3
 2058 0382 81030000 		.4byte	.LASF51
 2059 0386 09       		.byte	0x9
 2060 0387 53       		.byte	0x53
 2061 0388 8C030000 		.4byte	0x38c
 2062 038c 05       		.uleb128 0x5
 2063 038d 81030000 		.4byte	.LASF51
 2064 0391 14       		.byte	0x14
 2065 0392 09       		.byte	0x9
 2066 0393 5A       		.byte	0x5a
 2067 0394 DF030000 		.4byte	0x3df
 2068 0398 06       		.uleb128 0x6
 2069 0399 B8010000 		.4byte	.LASF52
 2070 039d 09       		.byte	0x9
ARM GAS  /tmp/ccDJhnOM.s 			page 38


 2071 039e 5B       		.byte	0x5b
 2072 039f DF030000 		.4byte	0x3df
 2073 03a3 02       		.byte	0x2
 2074 03a4 23       		.byte	0x23
 2075 03a5 00       		.uleb128 0
 2076 03a6 06       		.uleb128 0x6
 2077 03a7 87010000 		.4byte	.LASF53
 2078 03ab 09       		.byte	0x9
 2079 03ac 5D       		.byte	0x5d
 2080 03ad DF030000 		.4byte	0x3df
 2081 03b1 02       		.byte	0x2
 2082 03b2 23       		.byte	0x23
 2083 03b3 04       		.uleb128 0x4
 2084 03b4 06       		.uleb128 0x6
 2085 03b5 5A020000 		.4byte	.LASF54
 2086 03b9 09       		.byte	0x9
 2087 03ba 5F       		.byte	0x5f
 2088 03bb FA000000 		.4byte	0xfa
 2089 03bf 02       		.byte	0x2
 2090 03c0 23       		.byte	0x23
 2091 03c1 08       		.uleb128 0x8
 2092 03c2 06       		.uleb128 0x6
 2093 03c3 62020000 		.4byte	.LASF55
 2094 03c7 09       		.byte	0x9
 2095 03c8 60       		.byte	0x60
 2096 03c9 64030000 		.4byte	0x364
 2097 03cd 02       		.byte	0x2
 2098 03ce 23       		.byte	0x23
 2099 03cf 0C       		.uleb128 0xc
 2100 03d0 06       		.uleb128 0x6
 2101 03d1 E0030000 		.4byte	.LASF56
 2102 03d5 09       		.byte	0x9
 2103 03d6 62       		.byte	0x62
 2104 03d7 A6020000 		.4byte	0x2a6
 2105 03db 02       		.byte	0x2
 2106 03dc 23       		.byte	0x23
 2107 03dd 10       		.uleb128 0x10
 2108 03de 00       		.byte	0
 2109 03df 09       		.uleb128 0x9
 2110 03e0 04       		.byte	0x4
 2111 03e1 81030000 		.4byte	0x381
 2112 03e5 08       		.uleb128 0x8
 2113 03e6 10       		.byte	0x10
 2114 03e7 09       		.byte	0x9
 2115 03e8 6C       		.byte	0x6c
 2116 03e9 26040000 		.4byte	0x426
 2117 03ed 06       		.uleb128 0x6
 2118 03ee B8010000 		.4byte	.LASF52
 2119 03f2 09       		.byte	0x9
 2120 03f3 6D       		.byte	0x6d
 2121 03f4 DF030000 		.4byte	0x3df
 2122 03f8 02       		.byte	0x2
 2123 03f9 23       		.byte	0x23
 2124 03fa 00       		.uleb128 0
 2125 03fb 06       		.uleb128 0x6
 2126 03fc 87010000 		.4byte	.LASF53
 2127 0400 09       		.byte	0x9
ARM GAS  /tmp/ccDJhnOM.s 			page 39


 2128 0401 6F       		.byte	0x6f
 2129 0402 DF030000 		.4byte	0x3df
 2130 0406 02       		.byte	0x2
 2131 0407 23       		.byte	0x23
 2132 0408 04       		.uleb128 0x4
 2133 0409 06       		.uleb128 0x6
 2134 040a 5A020000 		.4byte	.LASF54
 2135 040e 09       		.byte	0x9
 2136 040f 71       		.byte	0x71
 2137 0410 FA000000 		.4byte	0xfa
 2138 0414 02       		.byte	0x2
 2139 0415 23       		.byte	0x23
 2140 0416 08       		.uleb128 0x8
 2141 0417 06       		.uleb128 0x6
 2142 0418 2A040000 		.4byte	.LASF57
 2143 041c 09       		.byte	0x9
 2144 041d 72       		.byte	0x72
 2145 041e 26040000 		.4byte	0x426
 2146 0422 02       		.byte	0x2
 2147 0423 23       		.byte	0x23
 2148 0424 0C       		.uleb128 0xc
 2149 0425 00       		.byte	0
 2150 0426 0F       		.uleb128 0xf
 2151 0427 FA000000 		.4byte	0xfa
 2152 042b 03       		.uleb128 0x3
 2153 042c 35040000 		.4byte	.LASF58
 2154 0430 09       		.byte	0x9
 2155 0431 73       		.byte	0x73
 2156 0432 E5030000 		.4byte	0x3e5
 2157 0436 08       		.uleb128 0x8
 2158 0437 1C       		.byte	0x1c
 2159 0438 0A       		.byte	0xa
 2160 0439 57       		.byte	0x57
 2161 043a 93040000 		.4byte	0x493
 2162 043e 06       		.uleb128 0x6
 2163 043f 79030000 		.4byte	.LASF59
 2164 0443 0A       		.byte	0xa
 2165 0444 58       		.byte	0x58
 2166 0445 6E020000 		.4byte	0x26e
 2167 0449 02       		.byte	0x2
 2168 044a 23       		.byte	0x23
 2169 044b 00       		.uleb128 0
 2170 044c 06       		.uleb128 0x6
 2171 044d 24030000 		.4byte	.LASF60
 2172 0451 0A       		.byte	0xa
 2173 0452 59       		.byte	0x59
 2174 0453 D9000000 		.4byte	0xd9
 2175 0457 02       		.byte	0x2
 2176 0458 23       		.byte	0x23
 2177 0459 08       		.uleb128 0x8
 2178 045a 06       		.uleb128 0x6
 2179 045b 85020000 		.4byte	.LASF61
 2180 045f 0A       		.byte	0xa
 2181 0460 5B       		.byte	0x5b
 2182 0461 41030000 		.4byte	0x341
 2183 0465 02       		.byte	0x2
 2184 0466 23       		.byte	0x23
ARM GAS  /tmp/ccDJhnOM.s 			page 40


 2185 0467 0C       		.uleb128 0xc
 2186 0468 06       		.uleb128 0x6
 2187 0469 76010000 		.4byte	.LASF62
 2188 046d 0A       		.byte	0xa
 2189 046e 5E       		.byte	0x5e
 2190 046f 68020000 		.4byte	0x268
 2191 0473 02       		.byte	0x2
 2192 0474 23       		.byte	0x23
 2193 0475 10       		.uleb128 0x10
 2194 0476 06       		.uleb128 0x6
 2195 0477 B3020000 		.4byte	.LASF63
 2196 047b 0A       		.byte	0xa
 2197 047c 5F       		.byte	0x5f
 2198 047d 68020000 		.4byte	0x268
 2199 0481 02       		.byte	0x2
 2200 0482 23       		.byte	0x23
 2201 0483 14       		.uleb128 0x14
 2202 0484 06       		.uleb128 0x6
 2203 0485 A9020000 		.4byte	.LASF64
 2204 0489 0A       		.byte	0xa
 2205 048a 62       		.byte	0x62
 2206 048b 68020000 		.4byte	0x268
 2207 048f 02       		.byte	0x2
 2208 0490 23       		.byte	0x23
 2209 0491 18       		.uleb128 0x18
 2210 0492 00       		.byte	0
 2211 0493 03       		.uleb128 0x3
 2212 0494 F9030000 		.4byte	.LASF65
 2213 0498 0A       		.byte	0xa
 2214 0499 64       		.byte	0x64
 2215 049a 36040000 		.4byte	0x436
 2216 049e 05       		.uleb128 0x5
 2217 049f 2F020000 		.4byte	.LASF66
 2218 04a3 10       		.byte	0x10
 2219 04a4 0B       		.byte	0xb
 2220 04a5 25       		.byte	0x25
 2221 04a6 D5040000 		.4byte	0x4d5
 2222 04aa 06       		.uleb128 0x6
 2223 04ab B7000000 		.4byte	.LASF67
 2224 04af 0B       		.byte	0xb
 2225 04b0 26       		.byte	0x26
 2226 04b1 6E020000 		.4byte	0x26e
 2227 04b5 02       		.byte	0x2
 2228 04b6 23       		.byte	0x23
 2229 04b7 00       		.uleb128 0
 2230 04b8 06       		.uleb128 0x6
 2231 04b9 3C040000 		.4byte	.LASF68
 2232 04bd 0B       		.byte	0xb
 2233 04be 28       		.byte	0x28
 2234 04bf 68020000 		.4byte	0x268
 2235 04c3 02       		.byte	0x2
 2236 04c4 23       		.byte	0x23
 2237 04c5 08       		.uleb128 0x8
 2238 04c6 06       		.uleb128 0x6
 2239 04c7 93030000 		.4byte	.LASF69
 2240 04cb 0B       		.byte	0xb
 2241 04cc 2A       		.byte	0x2a
ARM GAS  /tmp/ccDJhnOM.s 			page 41


 2242 04cd D5040000 		.4byte	0x4d5
 2243 04d1 02       		.byte	0x2
 2244 04d2 23       		.byte	0x23
 2245 04d3 0C       		.uleb128 0xc
 2246 04d4 00       		.byte	0
 2247 04d5 09       		.uleb128 0x9
 2248 04d6 04       		.byte	0x4
 2249 04d7 9E040000 		.4byte	0x49e
 2250 04db 03       		.uleb128 0x3
 2251 04dc 2F020000 		.4byte	.LASF66
 2252 04e0 0B       		.byte	0xb
 2253 04e1 2C       		.byte	0x2c
 2254 04e2 9E040000 		.4byte	0x49e
 2255 04e6 10       		.uleb128 0x10
 2256 04e7 04       		.byte	0x4
 2257 04e8 07       		.byte	0x7
 2258 04e9 8F       		.byte	0x8f
 2259 04ea 1B050000 		.4byte	0x51b
 2260 04ee 11       		.uleb128 0x11
 2261 04ef 1A000000 		.4byte	.LASF70
 2262 04f3 07       		.byte	0x7
 2263 04f4 96       		.byte	0x96
 2264 04f5 E4000000 		.4byte	0xe4
 2265 04f9 11       		.uleb128 0x11
 2266 04fa 7B000000 		.4byte	.LASF71
 2267 04fe 07       		.byte	0x7
 2268 04ff 9D       		.byte	0x9d
 2269 0500 E4000000 		.4byte	0xe4
 2270 0504 11       		.uleb128 0x11
 2271 0505 1C040000 		.4byte	.LASF72
 2272 0509 07       		.byte	0x7
 2273 050a A4       		.byte	0xa4
 2274 050b A6020000 		.4byte	0x2a6
 2275 050f 11       		.uleb128 0x11
 2276 0510 2B030000 		.4byte	.LASF73
 2277 0514 07       		.byte	0x7
 2278 0515 AB       		.byte	0xab
 2279 0516 EF000000 		.4byte	0xef
 2280 051a 00       		.byte	0
 2281 051b 09       		.uleb128 0x9
 2282 051c 04       		.byte	0x4
 2283 051d 21050000 		.4byte	0x521
 2284 0521 12       		.uleb128 0x12
 2285 0522 26050000 		.4byte	0x526
 2286 0526 04       		.uleb128 0x4
 2287 0527 01       		.byte	0x1
 2288 0528 08       		.byte	0x8
 2289 0529 8E030000 		.4byte	.LASF74
 2290 052d 09       		.uleb128 0x9
 2291 052e 04       		.byte	0x4
 2292 052f A8020000 		.4byte	0x2a8
 2293 0533 09       		.uleb128 0x9
 2294 0534 04       		.byte	0x4
 2295 0535 DB040000 		.4byte	0x4db
 2296 0539 03       		.uleb128 0x3
 2297 053a 00000000 		.4byte	.LASF75
 2298 053e 07       		.byte	0x7
ARM GAS  /tmp/ccDJhnOM.s 			page 42


 2299 053f DE       		.byte	0xde
 2300 0540 44050000 		.4byte	0x544
 2301 0544 09       		.uleb128 0x9
 2302 0545 04       		.byte	0x4
 2303 0546 4A050000 		.4byte	0x54a
 2304 054a 13       		.uleb128 0x13
 2305 054b 01       		.byte	0x1
 2306 054c E4000000 		.4byte	0xe4
 2307 0550 5A050000 		.4byte	0x55a
 2308 0554 0E       		.uleb128 0xe
 2309 0555 A6020000 		.4byte	0x2a6
 2310 0559 00       		.byte	0
 2311 055a 09       		.uleb128 0x9
 2312 055b 04       		.byte	0x4
 2313 055c 49000000 		.4byte	0x49
 2314 0560 14       		.uleb128 0x14
 2315 0561 01       		.byte	0x1
 2316 0562 41030000 		.4byte	.LASF92
 2317 0566 01       		.byte	0x1
 2318 0567 77       		.byte	0x77
 2319 0568 01       		.byte	0x1
 2320 0569 01       		.byte	0x1
 2321 056a 8E050000 		.4byte	0x58e
 2322 056e 15       		.uleb128 0x15
 2323 056f 76020000 		.4byte	.LASF76
 2324 0573 01       		.byte	0x1
 2325 0574 77       		.byte	0x77
 2326 0575 5A050000 		.4byte	0x55a
 2327 0579 15       		.uleb128 0x15
 2328 057a D1030000 		.4byte	.LASF77
 2329 057e 01       		.byte	0x1
 2330 057f 77       		.byte	0x77
 2331 0580 5A050000 		.4byte	0x55a
 2332 0584 16       		.uleb128 0x16
 2333 0585 7600     		.ascii	"v\000"
 2334 0587 01       		.byte	0x1
 2335 0588 77       		.byte	0x77
 2336 0589 49000000 		.4byte	0x49
 2337 058d 00       		.byte	0
 2338 058e 17       		.uleb128 0x17
 2339 058f 6A010000 		.4byte	.LASF101
 2340 0593 02       		.byte	0x2
 2341 0594 4F       		.byte	0x4f
 2342 0595 01       		.byte	0x1
 2343 0596 68020000 		.4byte	0x268
 2344 059a 03       		.byte	0x3
 2345 059b B5050000 		.4byte	0x5b5
 2346 059f 16       		.uleb128 0x16
 2347 05a0 746C7000 		.ascii	"tlp\000"
 2348 05a4 02       		.byte	0x2
 2349 05a5 4F       		.byte	0x4f
 2350 05a6 B5050000 		.4byte	0x5b5
 2351 05aa 18       		.uleb128 0x18
 2352 05ab 747000   		.ascii	"tp\000"
 2353 05ae 02       		.byte	0x2
 2354 05af 51       		.byte	0x51
 2355 05b0 68020000 		.4byte	0x268
ARM GAS  /tmp/ccDJhnOM.s 			page 43


 2356 05b4 00       		.byte	0
 2357 05b5 09       		.uleb128 0x9
 2358 05b6 04       		.byte	0x4
 2359 05b7 90020000 		.4byte	0x290
 2360 05bb 19       		.uleb128 0x19
 2361 05bc 9D020000 		.4byte	.LASF102
 2362 05c0 02       		.byte	0x2
 2363 05c1 49       		.byte	0x49
 2364 05c2 01       		.byte	0x1
 2365 05c3 03       		.byte	0x3
 2366 05c4 DE050000 		.4byte	0x5de
 2367 05c8 16       		.uleb128 0x16
 2368 05c9 747000   		.ascii	"tp\000"
 2369 05cc 02       		.byte	0x2
 2370 05cd 49       		.byte	0x49
 2371 05ce 68020000 		.4byte	0x268
 2372 05d2 16       		.uleb128 0x16
 2373 05d3 746C7000 		.ascii	"tlp\000"
 2374 05d7 02       		.byte	0x2
 2375 05d8 49       		.byte	0x49
 2376 05d9 B5050000 		.4byte	0x5b5
 2377 05dd 00       		.byte	0
 2378 05de 1A       		.uleb128 0x1a
 2379 05df 01       		.byte	0x1
 2380 05e0 6C030000 		.4byte	.LASF79
 2381 05e4 01       		.byte	0x1
 2382 05e5 45       		.byte	0x45
 2383 05e6 01       		.byte	0x1
 2384 05e7 68020000 		.4byte	0x268
 2385 05eb 01       		.byte	0x1
 2386 05ec 06060000 		.4byte	0x606
 2387 05f0 16       		.uleb128 0x16
 2388 05f1 747000   		.ascii	"tp\000"
 2389 05f4 01       		.byte	0x1
 2390 05f5 45       		.byte	0x45
 2391 05f6 68020000 		.4byte	0x268
 2392 05fa 15       		.uleb128 0x15
 2393 05fb 15000000 		.4byte	.LASF78
 2394 05ff 01       		.byte	0x1
 2395 0600 45       		.byte	0x45
 2396 0601 D9000000 		.4byte	0xd9
 2397 0605 00       		.byte	0
 2398 0606 1B       		.uleb128 0x1b
 2399 0607 DE050000 		.4byte	0x5de
 2400 060b 00000000 		.4byte	.LFB7
 2401 060f 52000000 		.4byte	.LFE7
 2402 0613 00000000 		.4byte	.LLST0
 2403 0617 2A060000 		.4byte	0x62a
 2404 061b 1C       		.uleb128 0x1c
 2405 061c F0050000 		.4byte	0x5f0
 2406 0620 01       		.byte	0x1
 2407 0621 50       		.byte	0x50
 2408 0622 1C       		.uleb128 0x1c
 2409 0623 FA050000 		.4byte	0x5fa
 2410 0627 01       		.byte	0x1
 2411 0628 51       		.byte	0x51
 2412 0629 00       		.byte	0
ARM GAS  /tmp/ccDJhnOM.s 			page 44


 2413 062a 1B       		.uleb128 0x1b
 2414 062b 60050000 		.4byte	0x560
 2415 062f 00000000 		.4byte	.LFB8
 2416 0633 EE000000 		.4byte	.LFE8
 2417 0637 20000000 		.4byte	.LLST1
 2418 063b 57060000 		.4byte	0x657
 2419 063f 1D       		.uleb128 0x1d
 2420 0640 6E050000 		.4byte	0x56e
 2421 0644 40000000 		.4byte	.LLST2
 2422 0648 1C       		.uleb128 0x1c
 2423 0649 79050000 		.4byte	0x579
 2424 064d 01       		.byte	0x1
 2425 064e 51       		.byte	0x51
 2426 064f 1C       		.uleb128 0x1c
 2427 0650 84050000 		.4byte	0x584
 2428 0654 01       		.byte	0x1
 2429 0655 52       		.byte	0x52
 2430 0656 00       		.byte	0
 2431 0657 1A       		.uleb128 0x1a
 2432 0658 01       		.byte	0x1
 2433 0659 C9000000 		.4byte	.LASF80
 2434 065d 01       		.byte	0x1
 2435 065e 96       		.byte	0x96
 2436 065f 01       		.byte	0x1
 2437 0660 68020000 		.4byte	0x268
 2438 0664 01       		.byte	0x1
 2439 0665 AA060000 		.4byte	0x6aa
 2440 0669 16       		.uleb128 0x16
 2441 066a 77737000 		.ascii	"wsp\000"
 2442 066e 01       		.byte	0x1
 2443 066f 96       		.byte	0x96
 2444 0670 A6020000 		.4byte	0x2a6
 2445 0674 15       		.uleb128 0x15
 2446 0675 DA010000 		.4byte	.LASF81
 2447 0679 01       		.byte	0x1
 2448 067a 96       		.byte	0x96
 2449 067b 30000000 		.4byte	0x30
 2450 067f 15       		.uleb128 0x15
 2451 0680 15000000 		.4byte	.LASF78
 2452 0684 01       		.byte	0x1
 2453 0685 97       		.byte	0x97
 2454 0686 D9000000 		.4byte	0xd9
 2455 068a 16       		.uleb128 0x16
 2456 068b 706600   		.ascii	"pf\000"
 2457 068e 01       		.byte	0x1
 2458 068f 97       		.byte	0x97
 2459 0690 39050000 		.4byte	0x539
 2460 0694 16       		.uleb128 0x16
 2461 0695 61726700 		.ascii	"arg\000"
 2462 0699 01       		.byte	0x1
 2463 069a 97       		.byte	0x97
 2464 069b A6020000 		.4byte	0x2a6
 2465 069f 18       		.uleb128 0x18
 2466 06a0 747000   		.ascii	"tp\000"
 2467 06a3 01       		.byte	0x1
 2468 06a4 99       		.byte	0x99
 2469 06a5 68020000 		.4byte	0x268
ARM GAS  /tmp/ccDJhnOM.s 			page 45


 2470 06a9 00       		.byte	0
 2471 06aa 1B       		.uleb128 0x1b
 2472 06ab 57060000 		.4byte	0x657
 2473 06af 00000000 		.4byte	.LFB9
 2474 06b3 98000000 		.4byte	.LFE9
 2475 06b7 6B000000 		.4byte	.LLST3
 2476 06bb 17070000 		.4byte	0x717
 2477 06bf 1D       		.uleb128 0x1d
 2478 06c0 69060000 		.4byte	0x669
 2479 06c4 8B000000 		.4byte	.LLST4
 2480 06c8 1D       		.uleb128 0x1d
 2481 06c9 74060000 		.4byte	0x674
 2482 06cd A9000000 		.4byte	.LLST5
 2483 06d1 1D       		.uleb128 0x1d
 2484 06d2 7F060000 		.4byte	0x67f
 2485 06d6 DF000000 		.4byte	.LLST6
 2486 06da 1D       		.uleb128 0x1d
 2487 06db 8A060000 		.4byte	0x68a
 2488 06df FD000000 		.4byte	.LLST7
 2489 06e3 1C       		.uleb128 0x1c
 2490 06e4 94060000 		.4byte	0x694
 2491 06e8 02       		.byte	0x2
 2492 06e9 91       		.byte	0x91
 2493 06ea 00       		.sleb128 0
 2494 06eb 1E       		.uleb128 0x1e
 2495 06ec 9F060000 		.4byte	0x69f
 2496 06f0 3F010000 		.4byte	.LLST8
 2497 06f4 1F       		.uleb128 0x1f
 2498 06f5 DE050000 		.4byte	0x5de
 2499 06f9 1E000000 		.4byte	.LBB16
 2500 06fd 00000000 		.4byte	.Ldebug_ranges0+0
 2501 0701 01       		.byte	0x1
 2502 0702 A1       		.byte	0xa1
 2503 0703 1D       		.uleb128 0x1d
 2504 0704 FA050000 		.4byte	0x5fa
 2505 0708 5D010000 		.4byte	.LLST9
 2506 070c 1D       		.uleb128 0x1d
 2507 070d F0050000 		.4byte	0x5f0
 2508 0711 70010000 		.4byte	.LLST10
 2509 0715 00       		.byte	0
 2510 0716 00       		.byte	0
 2511 0717 20       		.uleb128 0x20
 2512 0718 01       		.byte	0x1
 2513 0719 48020000 		.4byte	.LASF82
 2514 071d 01       		.byte	0x1
 2515 071e B4       		.byte	0xb4
 2516 071f 01       		.byte	0x1
 2517 0720 68020000 		.4byte	0x268
 2518 0724 00000000 		.4byte	.LFB10
 2519 0728 70020000 		.4byte	.LFE10
 2520 072c 83010000 		.4byte	.LLST11
 2521 0730 89080000 		.4byte	0x889
 2522 0734 21       		.uleb128 0x21
 2523 0735 77737000 		.ascii	"wsp\000"
 2524 0739 01       		.byte	0x1
 2525 073a B4       		.byte	0xb4
 2526 073b A6020000 		.4byte	0x2a6
ARM GAS  /tmp/ccDJhnOM.s 			page 46


 2527 073f A3010000 		.4byte	.LLST12
 2528 0743 22       		.uleb128 0x22
 2529 0744 DA010000 		.4byte	.LASF81
 2530 0748 01       		.byte	0x1
 2531 0749 B4       		.byte	0xb4
 2532 074a 30000000 		.4byte	0x30
 2533 074e C1010000 		.4byte	.LLST13
 2534 0752 22       		.uleb128 0x22
 2535 0753 15000000 		.4byte	.LASF78
 2536 0757 01       		.byte	0x1
 2537 0758 B5       		.byte	0xb5
 2538 0759 D9000000 		.4byte	0xd9
 2539 075d F7010000 		.4byte	.LLST14
 2540 0761 21       		.uleb128 0x21
 2541 0762 706600   		.ascii	"pf\000"
 2542 0765 01       		.byte	0x1
 2543 0766 B5       		.byte	0xb5
 2544 0767 39050000 		.4byte	0x539
 2545 076b 15020000 		.4byte	.LLST15
 2546 076f 23       		.uleb128 0x23
 2547 0770 61726700 		.ascii	"arg\000"
 2548 0774 01       		.byte	0x1
 2549 0775 B5       		.byte	0xb5
 2550 0776 A6020000 		.4byte	0x2a6
 2551 077a 02       		.byte	0x2
 2552 077b 91       		.byte	0x91
 2553 077c 00       		.sleb128 0
 2554 077d 18       		.uleb128 0x18
 2555 077e 747000   		.ascii	"tp\000"
 2556 0781 01       		.byte	0x1
 2557 0782 B6       		.byte	0xb6
 2558 0783 68020000 		.4byte	0x268
 2559 0787 24       		.uleb128 0x24
 2560 0788 60050000 		.4byte	0x560
 2561 078c 20000000 		.4byte	.LBB36
 2562 0790 D6000000 		.4byte	.LBE36
 2563 0794 01       		.byte	0x1
 2564 0795 B9       		.byte	0xb9
 2565 0796 B1070000 		.4byte	0x7b1
 2566 079a 25       		.uleb128 0x25
 2567 079b 84050000 		.4byte	0x584
 2568 079f 7F       		.sleb128 -1
 2569 07a0 1C       		.uleb128 0x1c
 2570 07a1 79050000 		.4byte	0x579
 2571 07a5 01       		.byte	0x1
 2572 07a6 55       		.byte	0x55
 2573 07a7 1D       		.uleb128 0x1d
 2574 07a8 6E050000 		.4byte	0x56e
 2575 07ac 57020000 		.4byte	.LLST16
 2576 07b0 00       		.byte	0
 2577 07b1 24       		.uleb128 0x24
 2578 07b2 60050000 		.4byte	0x560
 2579 07b6 DA000000 		.4byte	.LBB38
 2580 07ba B4010000 		.4byte	.LBE38
 2581 07be 01       		.byte	0x1
 2582 07bf BC       		.byte	0xbc
 2583 07c0 E0070000 		.4byte	0x7e0
ARM GAS  /tmp/ccDJhnOM.s 			page 47


 2584 07c4 1D       		.uleb128 0x1d
 2585 07c5 84050000 		.4byte	0x584
 2586 07c9 75020000 		.4byte	.LLST17
 2587 07cd 1D       		.uleb128 0x1d
 2588 07ce 79050000 		.4byte	0x579
 2589 07d2 8A020000 		.4byte	.LLST18
 2590 07d6 1D       		.uleb128 0x1d
 2591 07d7 6E050000 		.4byte	0x56e
 2592 07db 9D020000 		.4byte	.LLST19
 2593 07df 00       		.byte	0
 2594 07e0 26       		.uleb128 0x26
 2595 07e1 B4010000 		.4byte	.LBB40
 2596 07e5 BA010000 		.4byte	.LBE40
 2597 07e9 FD070000 		.4byte	0x7fd
 2598 07ed 27       		.uleb128 0x27
 2599 07ee 746D7000 		.ascii	"tmp\000"
 2600 07f2 01       		.byte	0x1
 2601 07f3 C0       		.byte	0xc0
 2602 07f4 7B000000 		.4byte	0x7b
 2603 07f8 C8020000 		.4byte	.LLST20
 2604 07fc 00       		.byte	0
 2605 07fd 28       		.uleb128 0x28
 2606 07fe 57060000 		.4byte	0x657
 2607 0802 BE010000 		.4byte	.LBB41
 2608 0806 30000000 		.4byte	.Ldebug_ranges0+0x30
 2609 080a 01       		.byte	0x1
 2610 080b C1       		.byte	0xc1
 2611 080c 6F080000 		.4byte	0x86f
 2612 0810 1D       		.uleb128 0x1d
 2613 0811 94060000 		.4byte	0x694
 2614 0815 DB020000 		.4byte	.LLST21
 2615 0819 1D       		.uleb128 0x1d
 2616 081a 8A060000 		.4byte	0x68a
 2617 081e EF020000 		.4byte	.LLST22
 2618 0822 1D       		.uleb128 0x1d
 2619 0823 7F060000 		.4byte	0x67f
 2620 0827 26030000 		.4byte	.LLST23
 2621 082b 1D       		.uleb128 0x1d
 2622 082c 74060000 		.4byte	0x674
 2623 0830 39030000 		.4byte	.LLST24
 2624 0834 1D       		.uleb128 0x1d
 2625 0835 69060000 		.4byte	0x669
 2626 0839 64030000 		.4byte	.LLST25
 2627 083d 29       		.uleb128 0x29
 2628 083e 50000000 		.4byte	.Ldebug_ranges0+0x50
 2629 0842 1E       		.uleb128 0x1e
 2630 0843 9F060000 		.4byte	0x69f
 2631 0847 64030000 		.4byte	.LLST25
 2632 084b 1F       		.uleb128 0x1f
 2633 084c DE050000 		.4byte	0x5de
 2634 0850 D0010000 		.4byte	.LBB43
 2635 0854 70000000 		.4byte	.Ldebug_ranges0+0x70
 2636 0858 01       		.byte	0x1
 2637 0859 A1       		.byte	0xa1
 2638 085a 1D       		.uleb128 0x1d
 2639 085b FA050000 		.4byte	0x5fa
 2640 085f 77030000 		.4byte	.LLST27
ARM GAS  /tmp/ccDJhnOM.s 			page 48


 2641 0863 1D       		.uleb128 0x1d
 2642 0864 F0050000 		.4byte	0x5f0
 2643 0868 8A030000 		.4byte	.LLST28
 2644 086c 00       		.byte	0
 2645 086d 00       		.byte	0
 2646 086e 00       		.byte	0
 2647 086f 2A       		.uleb128 0x2a
 2648 0870 44020000 		.4byte	.LBB58
 2649 0874 4A020000 		.4byte	.LBE58
 2650 0878 27       		.uleb128 0x27
 2651 0879 746D7000 		.ascii	"tmp\000"
 2652 087d 01       		.byte	0x1
 2653 087e C2       		.byte	0xc2
 2654 087f 7B000000 		.4byte	0x7b
 2655 0883 9D030000 		.4byte	.LLST29
 2656 0887 00       		.byte	0
 2657 0888 00       		.byte	0
 2658 0889 20       		.uleb128 0x20
 2659 088a 01       		.byte	0x1
 2660 088b 8F010000 		.4byte	.LASF83
 2661 088f 01       		.byte	0x1
 2662 0890 D2       		.byte	0xd2
 2663 0891 01       		.byte	0x1
 2664 0892 D9000000 		.4byte	0xd9
 2665 0896 00000000 		.4byte	.LFB11
 2666 089a 48000000 		.4byte	.LFE11
 2667 089e B0030000 		.4byte	.LLST30
 2668 08a2 FB080000 		.4byte	0x8fb
 2669 08a6 22       		.uleb128 0x22
 2670 08a7 F8010000 		.4byte	.LASF84
 2671 08ab 01       		.byte	0x1
 2672 08ac D2       		.byte	0xd2
 2673 08ad D9000000 		.4byte	0xd9
 2674 08b1 D0030000 		.4byte	.LLST31
 2675 08b5 2B       		.uleb128 0x2b
 2676 08b6 35020000 		.4byte	.LASF85
 2677 08ba 01       		.byte	0x1
 2678 08bb D3       		.byte	0xd3
 2679 08bc D9000000 		.4byte	0xd9
 2680 08c0 EE030000 		.4byte	.LLST32
 2681 08c4 26       		.uleb128 0x26
 2682 08c5 08000000 		.4byte	.LBB60
 2683 08c9 0E000000 		.4byte	.LBE60
 2684 08cd E1080000 		.4byte	0x8e1
 2685 08d1 27       		.uleb128 0x27
 2686 08d2 746D7000 		.ascii	"tmp\000"
 2687 08d6 01       		.byte	0x1
 2688 08d7 D7       		.byte	0xd7
 2689 08d8 7B000000 		.4byte	0x7b
 2690 08dc 01040000 		.4byte	.LLST33
 2691 08e0 00       		.byte	0
 2692 08e1 2A       		.uleb128 0x2a
 2693 08e2 2E000000 		.4byte	.LBB61
 2694 08e6 34000000 		.4byte	.LBE61
 2695 08ea 27       		.uleb128 0x27
 2696 08eb 746D7000 		.ascii	"tmp\000"
 2697 08ef 01       		.byte	0x1
ARM GAS  /tmp/ccDJhnOM.s 			page 49


 2698 08f0 E2       		.byte	0xe2
 2699 08f1 7B000000 		.4byte	0x7b
 2700 08f5 14040000 		.4byte	.LLST34
 2701 08f9 00       		.byte	0
 2702 08fa 00       		.byte	0
 2703 08fb 20       		.uleb128 0x20
 2704 08fc 01       		.byte	0x1
 2705 08fd 6A020000 		.4byte	.LASF86
 2706 0901 01       		.byte	0x1
 2707 0902 F3       		.byte	0xf3
 2708 0903 01       		.byte	0x1
 2709 0904 68020000 		.4byte	0x268
 2710 0908 00000000 		.4byte	.LFB12
 2711 090c 38000000 		.4byte	.LFE12
 2712 0910 27040000 		.4byte	.LLST35
 2713 0914 59090000 		.4byte	0x959
 2714 0918 21       		.uleb128 0x21
 2715 0919 747000   		.ascii	"tp\000"
 2716 091c 01       		.byte	0x1
 2717 091d F3       		.byte	0xf3
 2718 091e 68020000 		.4byte	0x268
 2719 0922 47040000 		.4byte	.LLST36
 2720 0926 2C       		.uleb128 0x2c
 2721 0927 A8000000 		.4byte	.Ldebug_ranges0+0xa8
 2722 092b 3F090000 		.4byte	0x93f
 2723 092f 27       		.uleb128 0x27
 2724 0930 746D7000 		.ascii	"tmp\000"
 2725 0934 01       		.byte	0x1
 2726 0935 F5       		.byte	0xf5
 2727 0936 7B000000 		.4byte	0x7b
 2728 093a 65040000 		.4byte	.LLST37
 2729 093e 00       		.byte	0
 2730 093f 2A       		.uleb128 0x2a
 2731 0940 28000000 		.4byte	.LBB64
 2732 0944 2E000000 		.4byte	.LBE64
 2733 0948 27       		.uleb128 0x27
 2734 0949 746D7000 		.ascii	"tmp\000"
 2735 094d 01       		.byte	0x1
 2736 094e FA       		.byte	0xfa
 2737 094f 7B000000 		.4byte	0x7b
 2738 0953 78040000 		.4byte	.LLST38
 2739 0957 00       		.byte	0
 2740 0958 00       		.byte	0
 2741 0959 2D       		.uleb128 0x2d
 2742 095a 01       		.byte	0x1
 2743 095b 08020000 		.4byte	.LASF87
 2744 095f 01       		.byte	0x1
 2745 0960 0A01     		.2byte	0x10a
 2746 0962 01       		.byte	0x1
 2747 0963 00000000 		.4byte	.LFB13
 2748 0967 26000000 		.4byte	.LFE13
 2749 096b 8B040000 		.4byte	.LLST39
 2750 096f B7090000 		.4byte	0x9b7
 2751 0973 2E       		.uleb128 0x2e
 2752 0974 747000   		.ascii	"tp\000"
 2753 0977 01       		.byte	0x1
 2754 0978 0A01     		.2byte	0x10a
ARM GAS  /tmp/ccDJhnOM.s 			page 50


 2755 097a 68020000 		.4byte	0x268
 2756 097e AB040000 		.4byte	.LLST40
 2757 0982 2C       		.uleb128 0x2c
 2758 0983 C0000000 		.4byte	.Ldebug_ranges0+0xc0
 2759 0987 9C090000 		.4byte	0x99c
 2760 098b 2F       		.uleb128 0x2f
 2761 098c 746D7000 		.ascii	"tmp\000"
 2762 0990 01       		.byte	0x1
 2763 0991 0C01     		.2byte	0x10c
 2764 0993 7B000000 		.4byte	0x7b
 2765 0997 C9040000 		.4byte	.LLST41
 2766 099b 00       		.byte	0
 2767 099c 2A       		.uleb128 0x2a
 2768 099d 1E000000 		.4byte	.LBB67
 2769 09a1 24000000 		.4byte	.LBE67
 2770 09a5 2F       		.uleb128 0x2f
 2771 09a6 746D7000 		.ascii	"tmp\000"
 2772 09aa 01       		.byte	0x1
 2773 09ab 0E01     		.2byte	0x10e
 2774 09ad 7B000000 		.4byte	0x7b
 2775 09b1 DC040000 		.4byte	.LLST42
 2776 09b5 00       		.byte	0
 2777 09b6 00       		.byte	0
 2778 09b7 2D       		.uleb128 0x2d
 2779 09b8 01       		.byte	0x1
 2780 09b9 E7030000 		.4byte	.LASF88
 2781 09bd 01       		.byte	0x1
 2782 09be 1D01     		.2byte	0x11d
 2783 09c0 01       		.byte	0x1
 2784 09c1 00000000 		.4byte	.LFB14
 2785 09c5 30000000 		.4byte	.LFE14
 2786 09c9 EF040000 		.4byte	.LLST43
 2787 09cd 1A0A0000 		.4byte	0xa1a
 2788 09d1 30       		.uleb128 0x30
 2789 09d2 98020000 		.4byte	.LASF89
 2790 09d6 01       		.byte	0x1
 2791 09d7 1D01     		.2byte	0x11d
 2792 09d9 FA000000 		.4byte	0xfa
 2793 09dd 0F050000 		.4byte	.LLST44
 2794 09e1 26       		.uleb128 0x26
 2795 09e2 0C000000 		.4byte	.LBB68
 2796 09e6 12000000 		.4byte	.LBE68
 2797 09ea FF090000 		.4byte	0x9ff
 2798 09ee 2F       		.uleb128 0x2f
 2799 09ef 746D7000 		.ascii	"tmp\000"
 2800 09f3 01       		.byte	0x1
 2801 09f4 2101     		.2byte	0x121
 2802 09f6 7B000000 		.4byte	0x7b
 2803 09fa 2D050000 		.4byte	.LLST45
 2804 09fe 00       		.byte	0
 2805 09ff 2A       		.uleb128 0x2a
 2806 0a00 22000000 		.4byte	.LBB69
 2807 0a04 28000000 		.4byte	.LBE69
 2808 0a08 2F       		.uleb128 0x2f
 2809 0a09 746D7000 		.ascii	"tmp\000"
 2810 0a0d 01       		.byte	0x1
 2811 0a0e 2301     		.2byte	0x123
ARM GAS  /tmp/ccDJhnOM.s 			page 51


 2812 0a10 7B000000 		.4byte	0x7b
 2813 0a14 40050000 		.4byte	.LLST46
 2814 0a18 00       		.byte	0
 2815 0a19 00       		.byte	0
 2816 0a1a 2D       		.uleb128 0x2d
 2817 0a1b 01       		.byte	0x1
 2818 0a1c BB020000 		.4byte	.LASF90
 2819 0a20 01       		.byte	0x1
 2820 0a21 2E01     		.2byte	0x12e
 2821 0a23 01       		.byte	0x1
 2822 0a24 00000000 		.4byte	.LFB15
 2823 0a28 2C000000 		.4byte	.LFE15
 2824 0a2c 53050000 		.4byte	.LLST47
 2825 0a30 790A0000 		.4byte	0xa79
 2826 0a34 30       		.uleb128 0x30
 2827 0a35 98020000 		.4byte	.LASF89
 2828 0a39 01       		.byte	0x1
 2829 0a3a 2E01     		.2byte	0x12e
 2830 0a3c FA000000 		.4byte	0xfa
 2831 0a40 73050000 		.4byte	.LLST48
 2832 0a44 2C       		.uleb128 0x2c
 2833 0a45 D8000000 		.4byte	.Ldebug_ranges0+0xd8
 2834 0a49 5E0A0000 		.4byte	0xa5e
 2835 0a4d 2F       		.uleb128 0x2f
 2836 0a4e 746D7000 		.ascii	"tmp\000"
 2837 0a52 01       		.byte	0x1
 2838 0a53 3001     		.2byte	0x130
 2839 0a55 7B000000 		.4byte	0x7b
 2840 0a59 AC050000 		.4byte	.LLST49
 2841 0a5d 00       		.byte	0
 2842 0a5e 2A       		.uleb128 0x2a
 2843 0a5f 20000000 		.4byte	.LBB72
 2844 0a63 26000000 		.4byte	.LBE72
 2845 0a67 2F       		.uleb128 0x2f
 2846 0a68 746D7000 		.ascii	"tmp\000"
 2847 0a6c 01       		.byte	0x1
 2848 0a6d 3301     		.2byte	0x133
 2849 0a6f 7B000000 		.4byte	0x7b
 2850 0a73 BF050000 		.4byte	.LLST50
 2851 0a77 00       		.byte	0
 2852 0a78 00       		.byte	0
 2853 0a79 2D       		.uleb128 0x2d
 2854 0a7a 01       		.byte	0x1
 2855 0a7b 11040000 		.4byte	.LASF91
 2856 0a7f 01       		.byte	0x1
 2857 0a80 3D01     		.2byte	0x13d
 2858 0a82 01       		.byte	0x1
 2859 0a83 00000000 		.4byte	.LFB16
 2860 0a87 30000000 		.4byte	.LFE16
 2861 0a8b D2050000 		.4byte	.LLST51
 2862 0a8f CC0A0000 		.4byte	0xacc
 2863 0a93 26       		.uleb128 0x26
 2864 0a94 02000000 		.4byte	.LBB73
 2865 0a98 08000000 		.4byte	.LBE73
 2866 0a9c B10A0000 		.4byte	0xab1
 2867 0aa0 2F       		.uleb128 0x2f
 2868 0aa1 746D7000 		.ascii	"tmp\000"
ARM GAS  /tmp/ccDJhnOM.s 			page 52


 2869 0aa5 01       		.byte	0x1
 2870 0aa6 3F01     		.2byte	0x13f
 2871 0aa8 7B000000 		.4byte	0x7b
 2872 0aac F2050000 		.4byte	.LLST52
 2873 0ab0 00       		.byte	0
 2874 0ab1 2A       		.uleb128 0x2a
 2875 0ab2 22000000 		.4byte	.LBB74
 2876 0ab6 28000000 		.4byte	.LBE74
 2877 0aba 2F       		.uleb128 0x2f
 2878 0abb 746D7000 		.ascii	"tmp\000"
 2879 0abf 01       		.byte	0x1
 2880 0ac0 4101     		.2byte	0x141
 2881 0ac2 7B000000 		.4byte	0x7b
 2882 0ac6 05060000 		.4byte	.LLST53
 2883 0aca 00       		.byte	0
 2884 0acb 00       		.byte	0
 2885 0acc 31       		.uleb128 0x31
 2886 0acd 01       		.byte	0x1
 2887 0ace 59000000 		.4byte	.LASF93
 2888 0ad2 01       		.byte	0x1
 2889 0ad3 6701     		.2byte	0x167
 2890 0ad5 01       		.byte	0x1
 2891 0ad6 01       		.byte	0x1
 2892 0ad7 F30A0000 		.4byte	0xaf3
 2893 0adb 32       		.uleb128 0x32
 2894 0adc 6D736700 		.ascii	"msg\000"
 2895 0ae0 01       		.byte	0x1
 2896 0ae1 6701     		.2byte	0x167
 2897 0ae3 E4000000 		.4byte	0xe4
 2898 0ae7 33       		.uleb128 0x33
 2899 0ae8 747000   		.ascii	"tp\000"
 2900 0aeb 01       		.byte	0x1
 2901 0aec 6801     		.2byte	0x168
 2902 0aee 68020000 		.4byte	0x268
 2903 0af2 00       		.byte	0
 2904 0af3 2D       		.uleb128 0x2d
 2905 0af4 01       		.byte	0x1
 2906 0af5 A5000000 		.4byte	.LASF94
 2907 0af9 01       		.byte	0x1
 2908 0afa 5201     		.2byte	0x152
 2909 0afc 01       		.byte	0x1
 2910 0afd 00000000 		.4byte	.LFB17
 2911 0b01 58000000 		.4byte	.LFE17
 2912 0b05 18060000 		.4byte	.LLST54
 2913 0b09 8C0B0000 		.4byte	0xb8c
 2914 0b0d 2E       		.uleb128 0x2e
 2915 0b0e 6D736700 		.ascii	"msg\000"
 2916 0b12 01       		.byte	0x1
 2917 0b13 5201     		.2byte	0x152
 2918 0b15 E4000000 		.4byte	0xe4
 2919 0b19 38060000 		.4byte	.LLST55
 2920 0b1d 2C       		.uleb128 0x2c
 2921 0b1e F0000000 		.4byte	.Ldebug_ranges0+0xf0
 2922 0b22 370B0000 		.4byte	0xb37
 2923 0b26 2F       		.uleb128 0x2f
 2924 0b27 746D7000 		.ascii	"tmp\000"
 2925 0b2b 01       		.byte	0x1
ARM GAS  /tmp/ccDJhnOM.s 			page 53


 2926 0b2c 5401     		.2byte	0x154
 2927 0b2e 7B000000 		.4byte	0x7b
 2928 0b32 56060000 		.4byte	.LLST56
 2929 0b36 00       		.byte	0
 2930 0b37 34       		.uleb128 0x34
 2931 0b38 CC0A0000 		.4byte	0xacc
 2932 0b3c 0E000000 		.4byte	.LBB82
 2933 0b40 08010000 		.4byte	.Ldebug_ranges0+0x108
 2934 0b44 01       		.byte	0x1
 2935 0b45 5501     		.2byte	0x155
 2936 0b47 1C       		.uleb128 0x1c
 2937 0b48 DB0A0000 		.4byte	0xadb
 2938 0b4c 01       		.byte	0x1
 2939 0b4d 56       		.byte	0x56
 2940 0b4e 29       		.uleb128 0x29
 2941 0b4f 20010000 		.4byte	.Ldebug_ranges0+0x120
 2942 0b53 1E       		.uleb128 0x1e
 2943 0b54 E70A0000 		.4byte	0xae7
 2944 0b58 69060000 		.4byte	.LLST57
 2945 0b5c 35       		.uleb128 0x35
 2946 0b5d 8E050000 		.4byte	0x58e
 2947 0b61 1E000000 		.4byte	.LBB84
 2948 0b65 22000000 		.4byte	.LBE84
 2949 0b69 01       		.byte	0x1
 2950 0b6a 7001     		.2byte	0x170
 2951 0b6c 1D       		.uleb128 0x1d
 2952 0b6d 9F050000 		.4byte	0x59f
 2953 0b71 88060000 		.4byte	.LLST58
 2954 0b75 2A       		.uleb128 0x2a
 2955 0b76 1E000000 		.4byte	.LBB85
 2956 0b7a 22000000 		.4byte	.LBE85
 2957 0b7e 1E       		.uleb128 0x1e
 2958 0b7f AA050000 		.4byte	0x5aa
 2959 0b83 9D060000 		.4byte	.LLST59
 2960 0b87 00       		.byte	0
 2961 0b88 00       		.byte	0
 2962 0b89 00       		.byte	0
 2963 0b8a 00       		.byte	0
 2964 0b8b 00       		.byte	0
 2965 0b8c 1B       		.uleb128 0x1b
 2966 0b8d CC0A0000 		.4byte	0xacc
 2967 0b91 00000000 		.4byte	.LFB18
 2968 0b95 4C000000 		.4byte	.LFE18
 2969 0b99 B0060000 		.4byte	.LLST60
 2970 0b9d E10B0000 		.4byte	0xbe1
 2971 0ba1 1D       		.uleb128 0x1d
 2972 0ba2 DB0A0000 		.4byte	0xadb
 2973 0ba6 D0060000 		.4byte	.LLST61
 2974 0baa 1E       		.uleb128 0x1e
 2975 0bab E70A0000 		.4byte	0xae7
 2976 0baf EE060000 		.4byte	.LLST62
 2977 0bb3 35       		.uleb128 0x35
 2978 0bb4 8E050000 		.4byte	0x58e
 2979 0bb8 14000000 		.4byte	.LBB88
 2980 0bbc 18000000 		.4byte	.LBE88
 2981 0bc0 01       		.byte	0x1
 2982 0bc1 7001     		.2byte	0x170
ARM GAS  /tmp/ccDJhnOM.s 			page 54


 2983 0bc3 1D       		.uleb128 0x1d
 2984 0bc4 9F050000 		.4byte	0x59f
 2985 0bc8 0D070000 		.4byte	.LLST63
 2986 0bcc 2A       		.uleb128 0x2a
 2987 0bcd 14000000 		.4byte	.LBB89
 2988 0bd1 18000000 		.4byte	.LBE89
 2989 0bd5 1E       		.uleb128 0x1e
 2990 0bd6 AA050000 		.4byte	0x5aa
 2991 0bda 22070000 		.4byte	.LLST64
 2992 0bde 00       		.byte	0
 2993 0bdf 00       		.byte	0
 2994 0be0 00       		.byte	0
 2995 0be1 36       		.uleb128 0x36
 2996 0be2 01       		.byte	0x1
 2997 0be3 D6030000 		.4byte	.LASF95
 2998 0be7 01       		.byte	0x1
 2999 0be8 9D01     		.2byte	0x19d
 3000 0bea 01       		.byte	0x1
 3001 0beb E4000000 		.4byte	0xe4
 3002 0bef 00000000 		.4byte	.LFB19
 3003 0bf3 74000000 		.4byte	.LFE19
 3004 0bf7 35070000 		.4byte	.LLST65
 3005 0bfb 7E0C0000 		.4byte	0xc7e
 3006 0bff 2E       		.uleb128 0x2e
 3007 0c00 747000   		.ascii	"tp\000"
 3008 0c03 01       		.byte	0x1
 3009 0c04 9D01     		.2byte	0x19d
 3010 0c06 68020000 		.4byte	0x268
 3011 0c0a 55070000 		.4byte	.LLST66
 3012 0c0e 2F       		.uleb128 0x2f
 3013 0c0f 6D736700 		.ascii	"msg\000"
 3014 0c13 01       		.byte	0x1
 3015 0c14 9E01     		.2byte	0x19e
 3016 0c16 E4000000 		.4byte	0xe4
 3017 0c1a 73070000 		.4byte	.LLST67
 3018 0c1e 26       		.uleb128 0x26
 3019 0c1f 06000000 		.4byte	.LBB90
 3020 0c23 0C000000 		.4byte	.LBE90
 3021 0c27 3C0C0000 		.4byte	0xc3c
 3022 0c2b 2F       		.uleb128 0x2f
 3023 0c2c 746D7000 		.ascii	"tmp\000"
 3024 0c30 01       		.byte	0x1
 3025 0c31 A201     		.2byte	0x1a2
 3026 0c33 7B000000 		.4byte	0x7b
 3027 0c37 92070000 		.4byte	.LLST68
 3028 0c3b 00       		.byte	0
 3029 0c3c 37       		.uleb128 0x37
 3030 0c3d BB050000 		.4byte	0x5bb
 3031 0c41 28000000 		.4byte	.LBB91
 3032 0c45 38010000 		.4byte	.Ldebug_ranges0+0x138
 3033 0c49 01       		.byte	0x1
 3034 0c4a A801     		.2byte	0x1a8
 3035 0c4c 630C0000 		.4byte	0xc63
 3036 0c50 1D       		.uleb128 0x1d
 3037 0c51 D2050000 		.4byte	0x5d2
 3038 0c55 A5070000 		.4byte	.LLST69
 3039 0c59 1D       		.uleb128 0x1d
ARM GAS  /tmp/ccDJhnOM.s 			page 55


 3040 0c5a C8050000 		.4byte	0x5c8
 3041 0c5e BA070000 		.4byte	.LLST70
 3042 0c62 00       		.byte	0
 3043 0c63 2A       		.uleb128 0x2a
 3044 0c64 3A000000 		.4byte	.LBB95
 3045 0c68 40000000 		.4byte	.LBE95
 3046 0c6c 2F       		.uleb128 0x2f
 3047 0c6d 746D7000 		.ascii	"tmp\000"
 3048 0c71 01       		.byte	0x1
 3049 0c72 AC01     		.2byte	0x1ac
 3050 0c74 7B000000 		.4byte	0x7b
 3051 0c78 CD070000 		.4byte	.LLST71
 3052 0c7c 00       		.byte	0
 3053 0c7d 00       		.byte	0
 3054 0c7e 38       		.uleb128 0x38
 3055 0c7f 52000000 		.4byte	.LASF96
 3056 0c83 09       		.byte	0x9
 3057 0c84 D1       		.byte	0xd1
 3058 0c85 2B040000 		.4byte	0x42b
 3059 0c89 01       		.byte	0x1
 3060 0c8a 01       		.byte	0x1
 3061 0c8b 38       		.uleb128 0x38
 3062 0c8c 03040000 		.4byte	.LASF97
 3063 0c90 0A       		.byte	0xa
 3064 0c91 68       		.byte	0x68
 3065 0c92 93040000 		.4byte	0x493
 3066 0c96 01       		.byte	0x1
 3067 0c97 01       		.byte	0x1
 3068 0c98 38       		.uleb128 0x38
 3069 0c99 52000000 		.4byte	.LASF96
 3070 0c9d 09       		.byte	0x9
 3071 0c9e D1       		.byte	0xd1
 3072 0c9f 2B040000 		.4byte	0x42b
 3073 0ca3 01       		.byte	0x1
 3074 0ca4 01       		.byte	0x1
 3075 0ca5 38       		.uleb128 0x38
 3076 0ca6 03040000 		.4byte	.LASF97
 3077 0caa 0A       		.byte	0xa
 3078 0cab 68       		.byte	0x68
 3079 0cac 93040000 		.4byte	0x493
 3080 0cb0 01       		.byte	0x1
 3081 0cb1 01       		.byte	0x1
 3082 0cb2 00       		.byte	0
 3083              		.section	.debug_abbrev,"",%progbits
 3084              	.Ldebug_abbrev0:
 3085 0000 01       		.uleb128 0x1
 3086 0001 11       		.uleb128 0x11
 3087 0002 01       		.byte	0x1
 3088 0003 25       		.uleb128 0x25
 3089 0004 0E       		.uleb128 0xe
 3090 0005 13       		.uleb128 0x13
 3091 0006 0B       		.uleb128 0xb
 3092 0007 03       		.uleb128 0x3
 3093 0008 0E       		.uleb128 0xe
 3094 0009 1B       		.uleb128 0x1b
 3095 000a 0E       		.uleb128 0xe
 3096 000b 11       		.uleb128 0x11
ARM GAS  /tmp/ccDJhnOM.s 			page 56


 3097 000c 01       		.uleb128 0x1
 3098 000d 52       		.uleb128 0x52
 3099 000e 01       		.uleb128 0x1
 3100 000f 55       		.uleb128 0x55
 3101 0010 06       		.uleb128 0x6
 3102 0011 10       		.uleb128 0x10
 3103 0012 06       		.uleb128 0x6
 3104 0013 00       		.byte	0
 3105 0014 00       		.byte	0
 3106 0015 02       		.uleb128 0x2
 3107 0016 24       		.uleb128 0x24
 3108 0017 00       		.byte	0
 3109 0018 0B       		.uleb128 0xb
 3110 0019 0B       		.uleb128 0xb
 3111 001a 3E       		.uleb128 0x3e
 3112 001b 0B       		.uleb128 0xb
 3113 001c 03       		.uleb128 0x3
 3114 001d 08       		.uleb128 0x8
 3115 001e 00       		.byte	0
 3116 001f 00       		.byte	0
 3117 0020 03       		.uleb128 0x3
 3118 0021 16       		.uleb128 0x16
 3119 0022 00       		.byte	0
 3120 0023 03       		.uleb128 0x3
 3121 0024 0E       		.uleb128 0xe
 3122 0025 3A       		.uleb128 0x3a
 3123 0026 0B       		.uleb128 0xb
 3124 0027 3B       		.uleb128 0x3b
 3125 0028 0B       		.uleb128 0xb
 3126 0029 49       		.uleb128 0x49
 3127 002a 13       		.uleb128 0x13
 3128 002b 00       		.byte	0
 3129 002c 00       		.byte	0
 3130 002d 04       		.uleb128 0x4
 3131 002e 24       		.uleb128 0x24
 3132 002f 00       		.byte	0
 3133 0030 0B       		.uleb128 0xb
 3134 0031 0B       		.uleb128 0xb
 3135 0032 3E       		.uleb128 0x3e
 3136 0033 0B       		.uleb128 0xb
 3137 0034 03       		.uleb128 0x3
 3138 0035 0E       		.uleb128 0xe
 3139 0036 00       		.byte	0
 3140 0037 00       		.byte	0
 3141 0038 05       		.uleb128 0x5
 3142 0039 13       		.uleb128 0x13
 3143 003a 01       		.byte	0x1
 3144 003b 03       		.uleb128 0x3
 3145 003c 0E       		.uleb128 0xe
 3146 003d 0B       		.uleb128 0xb
 3147 003e 0B       		.uleb128 0xb
 3148 003f 3A       		.uleb128 0x3a
 3149 0040 0B       		.uleb128 0xb
 3150 0041 3B       		.uleb128 0x3b
 3151 0042 0B       		.uleb128 0xb
 3152 0043 01       		.uleb128 0x1
 3153 0044 13       		.uleb128 0x13
ARM GAS  /tmp/ccDJhnOM.s 			page 57


 3154 0045 00       		.byte	0
 3155 0046 00       		.byte	0
 3156 0047 06       		.uleb128 0x6
 3157 0048 0D       		.uleb128 0xd
 3158 0049 00       		.byte	0
 3159 004a 03       		.uleb128 0x3
 3160 004b 0E       		.uleb128 0xe
 3161 004c 3A       		.uleb128 0x3a
 3162 004d 0B       		.uleb128 0xb
 3163 004e 3B       		.uleb128 0x3b
 3164 004f 0B       		.uleb128 0xb
 3165 0050 49       		.uleb128 0x49
 3166 0051 13       		.uleb128 0x13
 3167 0052 38       		.uleb128 0x38
 3168 0053 0A       		.uleb128 0xa
 3169 0054 00       		.byte	0
 3170 0055 00       		.byte	0
 3171 0056 07       		.uleb128 0x7
 3172 0057 0D       		.uleb128 0xd
 3173 0058 00       		.byte	0
 3174 0059 03       		.uleb128 0x3
 3175 005a 08       		.uleb128 0x8
 3176 005b 3A       		.uleb128 0x3a
 3177 005c 0B       		.uleb128 0xb
 3178 005d 3B       		.uleb128 0x3b
 3179 005e 0B       		.uleb128 0xb
 3180 005f 49       		.uleb128 0x49
 3181 0060 13       		.uleb128 0x13
 3182 0061 38       		.uleb128 0x38
 3183 0062 0A       		.uleb128 0xa
 3184 0063 00       		.byte	0
 3185 0064 00       		.byte	0
 3186 0065 08       		.uleb128 0x8
 3187 0066 13       		.uleb128 0x13
 3188 0067 01       		.byte	0x1
 3189 0068 0B       		.uleb128 0xb
 3190 0069 0B       		.uleb128 0xb
 3191 006a 3A       		.uleb128 0x3a
 3192 006b 0B       		.uleb128 0xb
 3193 006c 3B       		.uleb128 0x3b
 3194 006d 0B       		.uleb128 0xb
 3195 006e 01       		.uleb128 0x1
 3196 006f 13       		.uleb128 0x13
 3197 0070 00       		.byte	0
 3198 0071 00       		.byte	0
 3199 0072 09       		.uleb128 0x9
 3200 0073 0F       		.uleb128 0xf
 3201 0074 00       		.byte	0
 3202 0075 0B       		.uleb128 0xb
 3203 0076 0B       		.uleb128 0xb
 3204 0077 49       		.uleb128 0x49
 3205 0078 13       		.uleb128 0x13
 3206 0079 00       		.byte	0
 3207 007a 00       		.byte	0
 3208 007b 0A       		.uleb128 0xa
 3209 007c 0F       		.uleb128 0xf
 3210 007d 00       		.byte	0
ARM GAS  /tmp/ccDJhnOM.s 			page 58


 3211 007e 0B       		.uleb128 0xb
 3212 007f 0B       		.uleb128 0xb
 3213 0080 00       		.byte	0
 3214 0081 00       		.byte	0
 3215 0082 0B       		.uleb128 0xb
 3216 0083 13       		.uleb128 0x13
 3217 0084 01       		.byte	0x1
 3218 0085 03       		.uleb128 0x3
 3219 0086 0E       		.uleb128 0xe
 3220 0087 0B       		.uleb128 0xb
 3221 0088 0B       		.uleb128 0xb
 3222 0089 3A       		.uleb128 0x3a
 3223 008a 0B       		.uleb128 0xb
 3224 008b 3B       		.uleb128 0x3b
 3225 008c 05       		.uleb128 0x5
 3226 008d 01       		.uleb128 0x1
 3227 008e 13       		.uleb128 0x13
 3228 008f 00       		.byte	0
 3229 0090 00       		.byte	0
 3230 0091 0C       		.uleb128 0xc
 3231 0092 0D       		.uleb128 0xd
 3232 0093 00       		.byte	0
 3233 0094 03       		.uleb128 0x3
 3234 0095 08       		.uleb128 0x8
 3235 0096 3A       		.uleb128 0x3a
 3236 0097 0B       		.uleb128 0xb
 3237 0098 3B       		.uleb128 0x3b
 3238 0099 05       		.uleb128 0x5
 3239 009a 49       		.uleb128 0x49
 3240 009b 13       		.uleb128 0x13
 3241 009c 38       		.uleb128 0x38
 3242 009d 0A       		.uleb128 0xa
 3243 009e 00       		.byte	0
 3244 009f 00       		.byte	0
 3245 00a0 0D       		.uleb128 0xd
 3246 00a1 15       		.uleb128 0x15
 3247 00a2 01       		.byte	0x1
 3248 00a3 27       		.uleb128 0x27
 3249 00a4 0C       		.uleb128 0xc
 3250 00a5 01       		.uleb128 0x1
 3251 00a6 13       		.uleb128 0x13
 3252 00a7 00       		.byte	0
 3253 00a8 00       		.byte	0
 3254 00a9 0E       		.uleb128 0xe
 3255 00aa 05       		.uleb128 0x5
 3256 00ab 00       		.byte	0
 3257 00ac 49       		.uleb128 0x49
 3258 00ad 13       		.uleb128 0x13
 3259 00ae 00       		.byte	0
 3260 00af 00       		.byte	0
 3261 00b0 0F       		.uleb128 0xf
 3262 00b1 35       		.uleb128 0x35
 3263 00b2 00       		.byte	0
 3264 00b3 49       		.uleb128 0x49
 3265 00b4 13       		.uleb128 0x13
 3266 00b5 00       		.byte	0
 3267 00b6 00       		.byte	0
ARM GAS  /tmp/ccDJhnOM.s 			page 59


 3268 00b7 10       		.uleb128 0x10
 3269 00b8 17       		.uleb128 0x17
 3270 00b9 01       		.byte	0x1
 3271 00ba 0B       		.uleb128 0xb
 3272 00bb 0B       		.uleb128 0xb
 3273 00bc 3A       		.uleb128 0x3a
 3274 00bd 0B       		.uleb128 0xb
 3275 00be 3B       		.uleb128 0x3b
 3276 00bf 0B       		.uleb128 0xb
 3277 00c0 01       		.uleb128 0x1
 3278 00c1 13       		.uleb128 0x13
 3279 00c2 00       		.byte	0
 3280 00c3 00       		.byte	0
 3281 00c4 11       		.uleb128 0x11
 3282 00c5 0D       		.uleb128 0xd
 3283 00c6 00       		.byte	0
 3284 00c7 03       		.uleb128 0x3
 3285 00c8 0E       		.uleb128 0xe
 3286 00c9 3A       		.uleb128 0x3a
 3287 00ca 0B       		.uleb128 0xb
 3288 00cb 3B       		.uleb128 0x3b
 3289 00cc 0B       		.uleb128 0xb
 3290 00cd 49       		.uleb128 0x49
 3291 00ce 13       		.uleb128 0x13
 3292 00cf 00       		.byte	0
 3293 00d0 00       		.byte	0
 3294 00d1 12       		.uleb128 0x12
 3295 00d2 26       		.uleb128 0x26
 3296 00d3 00       		.byte	0
 3297 00d4 49       		.uleb128 0x49
 3298 00d5 13       		.uleb128 0x13
 3299 00d6 00       		.byte	0
 3300 00d7 00       		.byte	0
 3301 00d8 13       		.uleb128 0x13
 3302 00d9 15       		.uleb128 0x15
 3303 00da 01       		.byte	0x1
 3304 00db 27       		.uleb128 0x27
 3305 00dc 0C       		.uleb128 0xc
 3306 00dd 49       		.uleb128 0x49
 3307 00de 13       		.uleb128 0x13
 3308 00df 01       		.uleb128 0x1
 3309 00e0 13       		.uleb128 0x13
 3310 00e1 00       		.byte	0
 3311 00e2 00       		.byte	0
 3312 00e3 14       		.uleb128 0x14
 3313 00e4 2E       		.uleb128 0x2e
 3314 00e5 01       		.byte	0x1
 3315 00e6 3F       		.uleb128 0x3f
 3316 00e7 0C       		.uleb128 0xc
 3317 00e8 03       		.uleb128 0x3
 3318 00e9 0E       		.uleb128 0xe
 3319 00ea 3A       		.uleb128 0x3a
 3320 00eb 0B       		.uleb128 0xb
 3321 00ec 3B       		.uleb128 0x3b
 3322 00ed 0B       		.uleb128 0xb
 3323 00ee 27       		.uleb128 0x27
 3324 00ef 0C       		.uleb128 0xc
ARM GAS  /tmp/ccDJhnOM.s 			page 60


 3325 00f0 20       		.uleb128 0x20
 3326 00f1 0B       		.uleb128 0xb
 3327 00f2 01       		.uleb128 0x1
 3328 00f3 13       		.uleb128 0x13
 3329 00f4 00       		.byte	0
 3330 00f5 00       		.byte	0
 3331 00f6 15       		.uleb128 0x15
 3332 00f7 05       		.uleb128 0x5
 3333 00f8 00       		.byte	0
 3334 00f9 03       		.uleb128 0x3
 3335 00fa 0E       		.uleb128 0xe
 3336 00fb 3A       		.uleb128 0x3a
 3337 00fc 0B       		.uleb128 0xb
 3338 00fd 3B       		.uleb128 0x3b
 3339 00fe 0B       		.uleb128 0xb
 3340 00ff 49       		.uleb128 0x49
 3341 0100 13       		.uleb128 0x13
 3342 0101 00       		.byte	0
 3343 0102 00       		.byte	0
 3344 0103 16       		.uleb128 0x16
 3345 0104 05       		.uleb128 0x5
 3346 0105 00       		.byte	0
 3347 0106 03       		.uleb128 0x3
 3348 0107 08       		.uleb128 0x8
 3349 0108 3A       		.uleb128 0x3a
 3350 0109 0B       		.uleb128 0xb
 3351 010a 3B       		.uleb128 0x3b
 3352 010b 0B       		.uleb128 0xb
 3353 010c 49       		.uleb128 0x49
 3354 010d 13       		.uleb128 0x13
 3355 010e 00       		.byte	0
 3356 010f 00       		.byte	0
 3357 0110 17       		.uleb128 0x17
 3358 0111 2E       		.uleb128 0x2e
 3359 0112 01       		.byte	0x1
 3360 0113 03       		.uleb128 0x3
 3361 0114 0E       		.uleb128 0xe
 3362 0115 3A       		.uleb128 0x3a
 3363 0116 0B       		.uleb128 0xb
 3364 0117 3B       		.uleb128 0x3b
 3365 0118 0B       		.uleb128 0xb
 3366 0119 27       		.uleb128 0x27
 3367 011a 0C       		.uleb128 0xc
 3368 011b 49       		.uleb128 0x49
 3369 011c 13       		.uleb128 0x13
 3370 011d 20       		.uleb128 0x20
 3371 011e 0B       		.uleb128 0xb
 3372 011f 01       		.uleb128 0x1
 3373 0120 13       		.uleb128 0x13
 3374 0121 00       		.byte	0
 3375 0122 00       		.byte	0
 3376 0123 18       		.uleb128 0x18
 3377 0124 34       		.uleb128 0x34
 3378 0125 00       		.byte	0
 3379 0126 03       		.uleb128 0x3
 3380 0127 08       		.uleb128 0x8
 3381 0128 3A       		.uleb128 0x3a
ARM GAS  /tmp/ccDJhnOM.s 			page 61


 3382 0129 0B       		.uleb128 0xb
 3383 012a 3B       		.uleb128 0x3b
 3384 012b 0B       		.uleb128 0xb
 3385 012c 49       		.uleb128 0x49
 3386 012d 13       		.uleb128 0x13
 3387 012e 00       		.byte	0
 3388 012f 00       		.byte	0
 3389 0130 19       		.uleb128 0x19
 3390 0131 2E       		.uleb128 0x2e
 3391 0132 01       		.byte	0x1
 3392 0133 03       		.uleb128 0x3
 3393 0134 0E       		.uleb128 0xe
 3394 0135 3A       		.uleb128 0x3a
 3395 0136 0B       		.uleb128 0xb
 3396 0137 3B       		.uleb128 0x3b
 3397 0138 0B       		.uleb128 0xb
 3398 0139 27       		.uleb128 0x27
 3399 013a 0C       		.uleb128 0xc
 3400 013b 20       		.uleb128 0x20
 3401 013c 0B       		.uleb128 0xb
 3402 013d 01       		.uleb128 0x1
 3403 013e 13       		.uleb128 0x13
 3404 013f 00       		.byte	0
 3405 0140 00       		.byte	0
 3406 0141 1A       		.uleb128 0x1a
 3407 0142 2E       		.uleb128 0x2e
 3408 0143 01       		.byte	0x1
 3409 0144 3F       		.uleb128 0x3f
 3410 0145 0C       		.uleb128 0xc
 3411 0146 03       		.uleb128 0x3
 3412 0147 0E       		.uleb128 0xe
 3413 0148 3A       		.uleb128 0x3a
 3414 0149 0B       		.uleb128 0xb
 3415 014a 3B       		.uleb128 0x3b
 3416 014b 0B       		.uleb128 0xb
 3417 014c 27       		.uleb128 0x27
 3418 014d 0C       		.uleb128 0xc
 3419 014e 49       		.uleb128 0x49
 3420 014f 13       		.uleb128 0x13
 3421 0150 20       		.uleb128 0x20
 3422 0151 0B       		.uleb128 0xb
 3423 0152 01       		.uleb128 0x1
 3424 0153 13       		.uleb128 0x13
 3425 0154 00       		.byte	0
 3426 0155 00       		.byte	0
 3427 0156 1B       		.uleb128 0x1b
 3428 0157 2E       		.uleb128 0x2e
 3429 0158 01       		.byte	0x1
 3430 0159 31       		.uleb128 0x31
 3431 015a 13       		.uleb128 0x13
 3432 015b 11       		.uleb128 0x11
 3433 015c 01       		.uleb128 0x1
 3434 015d 12       		.uleb128 0x12
 3435 015e 01       		.uleb128 0x1
 3436 015f 40       		.uleb128 0x40
 3437 0160 06       		.uleb128 0x6
 3438 0161 01       		.uleb128 0x1
ARM GAS  /tmp/ccDJhnOM.s 			page 62


 3439 0162 13       		.uleb128 0x13
 3440 0163 00       		.byte	0
 3441 0164 00       		.byte	0
 3442 0165 1C       		.uleb128 0x1c
 3443 0166 05       		.uleb128 0x5
 3444 0167 00       		.byte	0
 3445 0168 31       		.uleb128 0x31
 3446 0169 13       		.uleb128 0x13
 3447 016a 02       		.uleb128 0x2
 3448 016b 0A       		.uleb128 0xa
 3449 016c 00       		.byte	0
 3450 016d 00       		.byte	0
 3451 016e 1D       		.uleb128 0x1d
 3452 016f 05       		.uleb128 0x5
 3453 0170 00       		.byte	0
 3454 0171 31       		.uleb128 0x31
 3455 0172 13       		.uleb128 0x13
 3456 0173 02       		.uleb128 0x2
 3457 0174 06       		.uleb128 0x6
 3458 0175 00       		.byte	0
 3459 0176 00       		.byte	0
 3460 0177 1E       		.uleb128 0x1e
 3461 0178 34       		.uleb128 0x34
 3462 0179 00       		.byte	0
 3463 017a 31       		.uleb128 0x31
 3464 017b 13       		.uleb128 0x13
 3465 017c 02       		.uleb128 0x2
 3466 017d 06       		.uleb128 0x6
 3467 017e 00       		.byte	0
 3468 017f 00       		.byte	0
 3469 0180 1F       		.uleb128 0x1f
 3470 0181 1D       		.uleb128 0x1d
 3471 0182 01       		.byte	0x1
 3472 0183 31       		.uleb128 0x31
 3473 0184 13       		.uleb128 0x13
 3474 0185 52       		.uleb128 0x52
 3475 0186 01       		.uleb128 0x1
 3476 0187 55       		.uleb128 0x55
 3477 0188 06       		.uleb128 0x6
 3478 0189 58       		.uleb128 0x58
 3479 018a 0B       		.uleb128 0xb
 3480 018b 59       		.uleb128 0x59
 3481 018c 0B       		.uleb128 0xb
 3482 018d 00       		.byte	0
 3483 018e 00       		.byte	0
 3484 018f 20       		.uleb128 0x20
 3485 0190 2E       		.uleb128 0x2e
 3486 0191 01       		.byte	0x1
 3487 0192 3F       		.uleb128 0x3f
 3488 0193 0C       		.uleb128 0xc
 3489 0194 03       		.uleb128 0x3
 3490 0195 0E       		.uleb128 0xe
 3491 0196 3A       		.uleb128 0x3a
 3492 0197 0B       		.uleb128 0xb
 3493 0198 3B       		.uleb128 0x3b
 3494 0199 0B       		.uleb128 0xb
 3495 019a 27       		.uleb128 0x27
ARM GAS  /tmp/ccDJhnOM.s 			page 63


 3496 019b 0C       		.uleb128 0xc
 3497 019c 49       		.uleb128 0x49
 3498 019d 13       		.uleb128 0x13
 3499 019e 11       		.uleb128 0x11
 3500 019f 01       		.uleb128 0x1
 3501 01a0 12       		.uleb128 0x12
 3502 01a1 01       		.uleb128 0x1
 3503 01a2 40       		.uleb128 0x40
 3504 01a3 06       		.uleb128 0x6
 3505 01a4 01       		.uleb128 0x1
 3506 01a5 13       		.uleb128 0x13
 3507 01a6 00       		.byte	0
 3508 01a7 00       		.byte	0
 3509 01a8 21       		.uleb128 0x21
 3510 01a9 05       		.uleb128 0x5
 3511 01aa 00       		.byte	0
 3512 01ab 03       		.uleb128 0x3
 3513 01ac 08       		.uleb128 0x8
 3514 01ad 3A       		.uleb128 0x3a
 3515 01ae 0B       		.uleb128 0xb
 3516 01af 3B       		.uleb128 0x3b
 3517 01b0 0B       		.uleb128 0xb
 3518 01b1 49       		.uleb128 0x49
 3519 01b2 13       		.uleb128 0x13
 3520 01b3 02       		.uleb128 0x2
 3521 01b4 06       		.uleb128 0x6
 3522 01b5 00       		.byte	0
 3523 01b6 00       		.byte	0
 3524 01b7 22       		.uleb128 0x22
 3525 01b8 05       		.uleb128 0x5
 3526 01b9 00       		.byte	0
 3527 01ba 03       		.uleb128 0x3
 3528 01bb 0E       		.uleb128 0xe
 3529 01bc 3A       		.uleb128 0x3a
 3530 01bd 0B       		.uleb128 0xb
 3531 01be 3B       		.uleb128 0x3b
 3532 01bf 0B       		.uleb128 0xb
 3533 01c0 49       		.uleb128 0x49
 3534 01c1 13       		.uleb128 0x13
 3535 01c2 02       		.uleb128 0x2
 3536 01c3 06       		.uleb128 0x6
 3537 01c4 00       		.byte	0
 3538 01c5 00       		.byte	0
 3539 01c6 23       		.uleb128 0x23
 3540 01c7 05       		.uleb128 0x5
 3541 01c8 00       		.byte	0
 3542 01c9 03       		.uleb128 0x3
 3543 01ca 08       		.uleb128 0x8
 3544 01cb 3A       		.uleb128 0x3a
 3545 01cc 0B       		.uleb128 0xb
 3546 01cd 3B       		.uleb128 0x3b
 3547 01ce 0B       		.uleb128 0xb
 3548 01cf 49       		.uleb128 0x49
 3549 01d0 13       		.uleb128 0x13
 3550 01d1 02       		.uleb128 0x2
 3551 01d2 0A       		.uleb128 0xa
 3552 01d3 00       		.byte	0
ARM GAS  /tmp/ccDJhnOM.s 			page 64


 3553 01d4 00       		.byte	0
 3554 01d5 24       		.uleb128 0x24
 3555 01d6 1D       		.uleb128 0x1d
 3556 01d7 01       		.byte	0x1
 3557 01d8 31       		.uleb128 0x31
 3558 01d9 13       		.uleb128 0x13
 3559 01da 11       		.uleb128 0x11
 3560 01db 01       		.uleb128 0x1
 3561 01dc 12       		.uleb128 0x12
 3562 01dd 01       		.uleb128 0x1
 3563 01de 58       		.uleb128 0x58
 3564 01df 0B       		.uleb128 0xb
 3565 01e0 59       		.uleb128 0x59
 3566 01e1 0B       		.uleb128 0xb
 3567 01e2 01       		.uleb128 0x1
 3568 01e3 13       		.uleb128 0x13
 3569 01e4 00       		.byte	0
 3570 01e5 00       		.byte	0
 3571 01e6 25       		.uleb128 0x25
 3572 01e7 05       		.uleb128 0x5
 3573 01e8 00       		.byte	0
 3574 01e9 31       		.uleb128 0x31
 3575 01ea 13       		.uleb128 0x13
 3576 01eb 1C       		.uleb128 0x1c
 3577 01ec 0D       		.uleb128 0xd
 3578 01ed 00       		.byte	0
 3579 01ee 00       		.byte	0
 3580 01ef 26       		.uleb128 0x26
 3581 01f0 0B       		.uleb128 0xb
 3582 01f1 01       		.byte	0x1
 3583 01f2 11       		.uleb128 0x11
 3584 01f3 01       		.uleb128 0x1
 3585 01f4 12       		.uleb128 0x12
 3586 01f5 01       		.uleb128 0x1
 3587 01f6 01       		.uleb128 0x1
 3588 01f7 13       		.uleb128 0x13
 3589 01f8 00       		.byte	0
 3590 01f9 00       		.byte	0
 3591 01fa 27       		.uleb128 0x27
 3592 01fb 34       		.uleb128 0x34
 3593 01fc 00       		.byte	0
 3594 01fd 03       		.uleb128 0x3
 3595 01fe 08       		.uleb128 0x8
 3596 01ff 3A       		.uleb128 0x3a
 3597 0200 0B       		.uleb128 0xb
 3598 0201 3B       		.uleb128 0x3b
 3599 0202 0B       		.uleb128 0xb
 3600 0203 49       		.uleb128 0x49
 3601 0204 13       		.uleb128 0x13
 3602 0205 02       		.uleb128 0x2
 3603 0206 06       		.uleb128 0x6
 3604 0207 00       		.byte	0
 3605 0208 00       		.byte	0
 3606 0209 28       		.uleb128 0x28
 3607 020a 1D       		.uleb128 0x1d
 3608 020b 01       		.byte	0x1
 3609 020c 31       		.uleb128 0x31
ARM GAS  /tmp/ccDJhnOM.s 			page 65


 3610 020d 13       		.uleb128 0x13
 3611 020e 52       		.uleb128 0x52
 3612 020f 01       		.uleb128 0x1
 3613 0210 55       		.uleb128 0x55
 3614 0211 06       		.uleb128 0x6
 3615 0212 58       		.uleb128 0x58
 3616 0213 0B       		.uleb128 0xb
 3617 0214 59       		.uleb128 0x59
 3618 0215 0B       		.uleb128 0xb
 3619 0216 01       		.uleb128 0x1
 3620 0217 13       		.uleb128 0x13
 3621 0218 00       		.byte	0
 3622 0219 00       		.byte	0
 3623 021a 29       		.uleb128 0x29
 3624 021b 0B       		.uleb128 0xb
 3625 021c 01       		.byte	0x1
 3626 021d 55       		.uleb128 0x55
 3627 021e 06       		.uleb128 0x6
 3628 021f 00       		.byte	0
 3629 0220 00       		.byte	0
 3630 0221 2A       		.uleb128 0x2a
 3631 0222 0B       		.uleb128 0xb
 3632 0223 01       		.byte	0x1
 3633 0224 11       		.uleb128 0x11
 3634 0225 01       		.uleb128 0x1
 3635 0226 12       		.uleb128 0x12
 3636 0227 01       		.uleb128 0x1
 3637 0228 00       		.byte	0
 3638 0229 00       		.byte	0
 3639 022a 2B       		.uleb128 0x2b
 3640 022b 34       		.uleb128 0x34
 3641 022c 00       		.byte	0
 3642 022d 03       		.uleb128 0x3
 3643 022e 0E       		.uleb128 0xe
 3644 022f 3A       		.uleb128 0x3a
 3645 0230 0B       		.uleb128 0xb
 3646 0231 3B       		.uleb128 0x3b
 3647 0232 0B       		.uleb128 0xb
 3648 0233 49       		.uleb128 0x49
 3649 0234 13       		.uleb128 0x13
 3650 0235 02       		.uleb128 0x2
 3651 0236 06       		.uleb128 0x6
 3652 0237 00       		.byte	0
 3653 0238 00       		.byte	0
 3654 0239 2C       		.uleb128 0x2c
 3655 023a 0B       		.uleb128 0xb
 3656 023b 01       		.byte	0x1
 3657 023c 55       		.uleb128 0x55
 3658 023d 06       		.uleb128 0x6
 3659 023e 01       		.uleb128 0x1
 3660 023f 13       		.uleb128 0x13
 3661 0240 00       		.byte	0
 3662 0241 00       		.byte	0
 3663 0242 2D       		.uleb128 0x2d
 3664 0243 2E       		.uleb128 0x2e
 3665 0244 01       		.byte	0x1
 3666 0245 3F       		.uleb128 0x3f
ARM GAS  /tmp/ccDJhnOM.s 			page 66


 3667 0246 0C       		.uleb128 0xc
 3668 0247 03       		.uleb128 0x3
 3669 0248 0E       		.uleb128 0xe
 3670 0249 3A       		.uleb128 0x3a
 3671 024a 0B       		.uleb128 0xb
 3672 024b 3B       		.uleb128 0x3b
 3673 024c 05       		.uleb128 0x5
 3674 024d 27       		.uleb128 0x27
 3675 024e 0C       		.uleb128 0xc
 3676 024f 11       		.uleb128 0x11
 3677 0250 01       		.uleb128 0x1
 3678 0251 12       		.uleb128 0x12
 3679 0252 01       		.uleb128 0x1
 3680 0253 40       		.uleb128 0x40
 3681 0254 06       		.uleb128 0x6
 3682 0255 01       		.uleb128 0x1
 3683 0256 13       		.uleb128 0x13
 3684 0257 00       		.byte	0
 3685 0258 00       		.byte	0
 3686 0259 2E       		.uleb128 0x2e
 3687 025a 05       		.uleb128 0x5
 3688 025b 00       		.byte	0
 3689 025c 03       		.uleb128 0x3
 3690 025d 08       		.uleb128 0x8
 3691 025e 3A       		.uleb128 0x3a
 3692 025f 0B       		.uleb128 0xb
 3693 0260 3B       		.uleb128 0x3b
 3694 0261 05       		.uleb128 0x5
 3695 0262 49       		.uleb128 0x49
 3696 0263 13       		.uleb128 0x13
 3697 0264 02       		.uleb128 0x2
 3698 0265 06       		.uleb128 0x6
 3699 0266 00       		.byte	0
 3700 0267 00       		.byte	0
 3701 0268 2F       		.uleb128 0x2f
 3702 0269 34       		.uleb128 0x34
 3703 026a 00       		.byte	0
 3704 026b 03       		.uleb128 0x3
 3705 026c 08       		.uleb128 0x8
 3706 026d 3A       		.uleb128 0x3a
 3707 026e 0B       		.uleb128 0xb
 3708 026f 3B       		.uleb128 0x3b
 3709 0270 05       		.uleb128 0x5
 3710 0271 49       		.uleb128 0x49
 3711 0272 13       		.uleb128 0x13
 3712 0273 02       		.uleb128 0x2
 3713 0274 06       		.uleb128 0x6
 3714 0275 00       		.byte	0
 3715 0276 00       		.byte	0
 3716 0277 30       		.uleb128 0x30
 3717 0278 05       		.uleb128 0x5
 3718 0279 00       		.byte	0
 3719 027a 03       		.uleb128 0x3
 3720 027b 0E       		.uleb128 0xe
 3721 027c 3A       		.uleb128 0x3a
 3722 027d 0B       		.uleb128 0xb
 3723 027e 3B       		.uleb128 0x3b
ARM GAS  /tmp/ccDJhnOM.s 			page 67


 3724 027f 05       		.uleb128 0x5
 3725 0280 49       		.uleb128 0x49
 3726 0281 13       		.uleb128 0x13
 3727 0282 02       		.uleb128 0x2
 3728 0283 06       		.uleb128 0x6
 3729 0284 00       		.byte	0
 3730 0285 00       		.byte	0
 3731 0286 31       		.uleb128 0x31
 3732 0287 2E       		.uleb128 0x2e
 3733 0288 01       		.byte	0x1
 3734 0289 3F       		.uleb128 0x3f
 3735 028a 0C       		.uleb128 0xc
 3736 028b 03       		.uleb128 0x3
 3737 028c 0E       		.uleb128 0xe
 3738 028d 3A       		.uleb128 0x3a
 3739 028e 0B       		.uleb128 0xb
 3740 028f 3B       		.uleb128 0x3b
 3741 0290 05       		.uleb128 0x5
 3742 0291 27       		.uleb128 0x27
 3743 0292 0C       		.uleb128 0xc
 3744 0293 20       		.uleb128 0x20
 3745 0294 0B       		.uleb128 0xb
 3746 0295 01       		.uleb128 0x1
 3747 0296 13       		.uleb128 0x13
 3748 0297 00       		.byte	0
 3749 0298 00       		.byte	0
 3750 0299 32       		.uleb128 0x32
 3751 029a 05       		.uleb128 0x5
 3752 029b 00       		.byte	0
 3753 029c 03       		.uleb128 0x3
 3754 029d 08       		.uleb128 0x8
 3755 029e 3A       		.uleb128 0x3a
 3756 029f 0B       		.uleb128 0xb
 3757 02a0 3B       		.uleb128 0x3b
 3758 02a1 05       		.uleb128 0x5
 3759 02a2 49       		.uleb128 0x49
 3760 02a3 13       		.uleb128 0x13
 3761 02a4 00       		.byte	0
 3762 02a5 00       		.byte	0
 3763 02a6 33       		.uleb128 0x33
 3764 02a7 34       		.uleb128 0x34
 3765 02a8 00       		.byte	0
 3766 02a9 03       		.uleb128 0x3
 3767 02aa 08       		.uleb128 0x8
 3768 02ab 3A       		.uleb128 0x3a
 3769 02ac 0B       		.uleb128 0xb
 3770 02ad 3B       		.uleb128 0x3b
 3771 02ae 05       		.uleb128 0x5
 3772 02af 49       		.uleb128 0x49
 3773 02b0 13       		.uleb128 0x13
 3774 02b1 00       		.byte	0
 3775 02b2 00       		.byte	0
 3776 02b3 34       		.uleb128 0x34
 3777 02b4 1D       		.uleb128 0x1d
 3778 02b5 01       		.byte	0x1
 3779 02b6 31       		.uleb128 0x31
 3780 02b7 13       		.uleb128 0x13
ARM GAS  /tmp/ccDJhnOM.s 			page 68


 3781 02b8 52       		.uleb128 0x52
 3782 02b9 01       		.uleb128 0x1
 3783 02ba 55       		.uleb128 0x55
 3784 02bb 06       		.uleb128 0x6
 3785 02bc 58       		.uleb128 0x58
 3786 02bd 0B       		.uleb128 0xb
 3787 02be 59       		.uleb128 0x59
 3788 02bf 05       		.uleb128 0x5
 3789 02c0 00       		.byte	0
 3790 02c1 00       		.byte	0
 3791 02c2 35       		.uleb128 0x35
 3792 02c3 1D       		.uleb128 0x1d
 3793 02c4 01       		.byte	0x1
 3794 02c5 31       		.uleb128 0x31
 3795 02c6 13       		.uleb128 0x13
 3796 02c7 11       		.uleb128 0x11
 3797 02c8 01       		.uleb128 0x1
 3798 02c9 12       		.uleb128 0x12
 3799 02ca 01       		.uleb128 0x1
 3800 02cb 58       		.uleb128 0x58
 3801 02cc 0B       		.uleb128 0xb
 3802 02cd 59       		.uleb128 0x59
 3803 02ce 05       		.uleb128 0x5
 3804 02cf 00       		.byte	0
 3805 02d0 00       		.byte	0
 3806 02d1 36       		.uleb128 0x36
 3807 02d2 2E       		.uleb128 0x2e
 3808 02d3 01       		.byte	0x1
 3809 02d4 3F       		.uleb128 0x3f
 3810 02d5 0C       		.uleb128 0xc
 3811 02d6 03       		.uleb128 0x3
 3812 02d7 0E       		.uleb128 0xe
 3813 02d8 3A       		.uleb128 0x3a
 3814 02d9 0B       		.uleb128 0xb
 3815 02da 3B       		.uleb128 0x3b
 3816 02db 05       		.uleb128 0x5
 3817 02dc 27       		.uleb128 0x27
 3818 02dd 0C       		.uleb128 0xc
 3819 02de 49       		.uleb128 0x49
 3820 02df 13       		.uleb128 0x13
 3821 02e0 11       		.uleb128 0x11
 3822 02e1 01       		.uleb128 0x1
 3823 02e2 12       		.uleb128 0x12
 3824 02e3 01       		.uleb128 0x1
 3825 02e4 40       		.uleb128 0x40
 3826 02e5 06       		.uleb128 0x6
 3827 02e6 01       		.uleb128 0x1
 3828 02e7 13       		.uleb128 0x13
 3829 02e8 00       		.byte	0
 3830 02e9 00       		.byte	0
 3831 02ea 37       		.uleb128 0x37
 3832 02eb 1D       		.uleb128 0x1d
 3833 02ec 01       		.byte	0x1
 3834 02ed 31       		.uleb128 0x31
 3835 02ee 13       		.uleb128 0x13
 3836 02ef 52       		.uleb128 0x52
 3837 02f0 01       		.uleb128 0x1
ARM GAS  /tmp/ccDJhnOM.s 			page 69


 3838 02f1 55       		.uleb128 0x55
 3839 02f2 06       		.uleb128 0x6
 3840 02f3 58       		.uleb128 0x58
 3841 02f4 0B       		.uleb128 0xb
 3842 02f5 59       		.uleb128 0x59
 3843 02f6 05       		.uleb128 0x5
 3844 02f7 01       		.uleb128 0x1
 3845 02f8 13       		.uleb128 0x13
 3846 02f9 00       		.byte	0
 3847 02fa 00       		.byte	0
 3848 02fb 38       		.uleb128 0x38
 3849 02fc 34       		.uleb128 0x34
 3850 02fd 00       		.byte	0
 3851 02fe 03       		.uleb128 0x3
 3852 02ff 0E       		.uleb128 0xe
 3853 0300 3A       		.uleb128 0x3a
 3854 0301 0B       		.uleb128 0xb
 3855 0302 3B       		.uleb128 0x3b
 3856 0303 0B       		.uleb128 0xb
 3857 0304 49       		.uleb128 0x49
 3858 0305 13       		.uleb128 0x13
 3859 0306 3F       		.uleb128 0x3f
 3860 0307 0C       		.uleb128 0xc
 3861 0308 3C       		.uleb128 0x3c
 3862 0309 0C       		.uleb128 0xc
 3863 030a 00       		.byte	0
 3864 030b 00       		.byte	0
 3865 030c 00       		.byte	0
 3866              		.section	.debug_loc,"",%progbits
 3867              	.Ldebug_loc0:
 3868              	.LLST0:
 3869 0000 00000000 		.4byte	.LFB7
 3870 0004 0A000000 		.4byte	.LCFI0
 3871 0008 0200     		.2byte	0x2
 3872 000a 7D       		.byte	0x7d
 3873 000b 00       		.sleb128 0
 3874 000c 0A000000 		.4byte	.LCFI0
 3875 0010 52000000 		.4byte	.LFE7
 3876 0014 0200     		.2byte	0x2
 3877 0016 7D       		.byte	0x7d
 3878 0017 10       		.sleb128 16
 3879 0018 00000000 		.4byte	0
 3880 001c 00000000 		.4byte	0
 3881              	.LLST1:
 3882 0020 00000000 		.4byte	.LFB8
 3883 0024 06000000 		.4byte	.LCFI1
 3884 0028 0200     		.2byte	0x2
 3885 002a 7D       		.byte	0x7d
 3886 002b 00       		.sleb128 0
 3887 002c 06000000 		.4byte	.LCFI1
 3888 0030 EE000000 		.4byte	.LFE8
 3889 0034 0200     		.2byte	0x2
 3890 0036 7D       		.byte	0x7d
 3891 0037 18       		.sleb128 24
 3892 0038 00000000 		.4byte	0
 3893 003c 00000000 		.4byte	0
 3894              	.LLST2:
ARM GAS  /tmp/ccDJhnOM.s 			page 70


 3895 0040 00000000 		.4byte	.LVL1
 3896 0044 8E000000 		.4byte	.LVL2
 3897 0048 0100     		.2byte	0x1
 3898 004a 50       		.byte	0x50
 3899 004b CA000000 		.4byte	.LVL3
 3900 004f D2000000 		.4byte	.LVL4
 3901 0053 0300     		.2byte	0x3
 3902 0055 73       		.byte	0x73
 3903 0056 7F       		.sleb128 -1
 3904 0057 9F       		.byte	0x9f
 3905 0058 EA000000 		.4byte	.LVL5
 3906 005c EE000000 		.4byte	.LFE8
 3907 0060 0100     		.2byte	0x1
 3908 0062 50       		.byte	0x50
 3909 0063 00000000 		.4byte	0
 3910 0067 00000000 		.4byte	0
 3911              	.LLST3:
 3912 006b 00000000 		.4byte	.LFB9
 3913 006f 04000000 		.4byte	.LCFI2
 3914 0073 0200     		.2byte	0x2
 3915 0075 7D       		.byte	0x7d
 3916 0076 00       		.sleb128 0
 3917 0077 04000000 		.4byte	.LCFI2
 3918 007b 98000000 		.4byte	.LFE9
 3919 007f 0200     		.2byte	0x2
 3920 0081 7D       		.byte	0x7d
 3921 0082 20       		.sleb128 32
 3922 0083 00000000 		.4byte	0
 3923 0087 00000000 		.4byte	0
 3924              	.LLST4:
 3925 008b 00000000 		.4byte	.LVL6
 3926 008f 0F000000 		.4byte	.LVL8-1
 3927 0093 0100     		.2byte	0x1
 3928 0095 50       		.byte	0x50
 3929 0096 18000000 		.4byte	.LVL9
 3930 009a 98000000 		.4byte	.LFE9
 3931 009e 0100     		.2byte	0x1
 3932 00a0 54       		.byte	0x54
 3933 00a1 00000000 		.4byte	0
 3934 00a5 00000000 		.4byte	0
 3935              	.LLST5:
 3936 00a9 00000000 		.4byte	.LVL6
 3937 00ad 0F000000 		.4byte	.LVL8-1
 3938 00b1 0100     		.2byte	0x1
 3939 00b3 51       		.byte	0x51
 3940 00b4 0F000000 		.4byte	.LVL8-1
 3941 00b8 2A000000 		.4byte	.LVL10
 3942 00bc 0100     		.2byte	0x1
 3943 00be 55       		.byte	0x55
 3944 00bf 2A000000 		.4byte	.LVL10
 3945 00c3 82000000 		.4byte	.LVL14
 3946 00c7 0300     		.2byte	0x3
 3947 00c9 7C       		.byte	0x7c
 3948 00ca 24       		.sleb128 36
 3949 00cb 9F       		.byte	0x9f
 3950 00cc 82000000 		.4byte	.LVL14
 3951 00d0 98000000 		.4byte	.LFE9
ARM GAS  /tmp/ccDJhnOM.s 			page 71


 3952 00d4 0100     		.2byte	0x1
 3953 00d6 55       		.byte	0x55
 3954 00d7 00000000 		.4byte	0
 3955 00db 00000000 		.4byte	0
 3956              	.LLST6:
 3957 00df 00000000 		.4byte	.LVL6
 3958 00e3 0F000000 		.4byte	.LVL8-1
 3959 00e7 0100     		.2byte	0x1
 3960 00e9 52       		.byte	0x52
 3961 00ea 0F000000 		.4byte	.LVL8-1
 3962 00ee 98000000 		.4byte	.LFE9
 3963 00f2 0100     		.2byte	0x1
 3964 00f4 56       		.byte	0x56
 3965 00f5 00000000 		.4byte	0
 3966 00f9 00000000 		.4byte	0
 3967              	.LLST7:
 3968 00fd 00000000 		.4byte	.LVL6
 3969 0101 0F000000 		.4byte	.LVL8-1
 3970 0105 0100     		.2byte	0x1
 3971 0107 53       		.byte	0x53
 3972 0108 0F000000 		.4byte	.LVL8-1
 3973 010c 32000000 		.4byte	.LVL11
 3974 0110 0100     		.2byte	0x1
 3975 0112 57       		.byte	0x57
 3976 0113 32000000 		.4byte	.LVL11
 3977 0117 40000000 		.4byte	.LVL13
 3978 011b 0200     		.2byte	0x2
 3979 011d 71       		.byte	0x71
 3980 011e 00       		.sleb128 0
 3981 011f 40000000 		.4byte	.LVL13
 3982 0123 82000000 		.4byte	.LVL14
 3983 0127 0300     		.2byte	0x3
 3984 0129 74       		.byte	0x74
 3985 012a 0C       		.sleb128 12
 3986 012b 06       		.byte	0x6
 3987 012c 82000000 		.4byte	.LVL14
 3988 0130 98000000 		.4byte	.LFE9
 3989 0134 0100     		.2byte	0x1
 3990 0136 57       		.byte	0x57
 3991 0137 00000000 		.4byte	0
 3992 013b 00000000 		.4byte	0
 3993              	.LLST8:
 3994 013f 06000000 		.4byte	.LVL7
 3995 0143 0F000000 		.4byte	.LVL8-1
 3996 0147 0100     		.2byte	0x1
 3997 0149 50       		.byte	0x50
 3998 014a 0F000000 		.4byte	.LVL8-1
 3999 014e 98000000 		.4byte	.LFE9
 4000 0152 0100     		.2byte	0x1
 4001 0154 54       		.byte	0x54
 4002 0155 00000000 		.4byte	0
 4003 0159 00000000 		.4byte	0
 4004              	.LLST9:
 4005 015d 3E000000 		.4byte	.LVL12
 4006 0161 82000000 		.4byte	.LVL14
 4007 0165 0100     		.2byte	0x1
 4008 0167 56       		.byte	0x56
ARM GAS  /tmp/ccDJhnOM.s 			page 72


 4009 0168 00000000 		.4byte	0
 4010 016c 00000000 		.4byte	0
 4011              	.LLST10:
 4012 0170 3E000000 		.4byte	.LVL12
 4013 0174 82000000 		.4byte	.LVL14
 4014 0178 0100     		.2byte	0x1
 4015 017a 54       		.byte	0x54
 4016 017b 00000000 		.4byte	0
 4017 017f 00000000 		.4byte	0
 4018              	.LLST11:
 4019 0183 00000000 		.4byte	.LFB10
 4020 0187 04000000 		.4byte	.LCFI3
 4021 018b 0200     		.2byte	0x2
 4022 018d 7D       		.byte	0x7d
 4023 018e 00       		.sleb128 0
 4024 018f 04000000 		.4byte	.LCFI3
 4025 0193 70020000 		.4byte	.LFE10
 4026 0197 0200     		.2byte	0x2
 4027 0199 7D       		.byte	0x7d
 4028 019a 28       		.sleb128 40
 4029 019b 00000000 		.4byte	0
 4030 019f 00000000 		.4byte	0
 4031              	.LLST12:
 4032 01a3 00000000 		.4byte	.LVL15
 4033 01a7 08000000 		.4byte	.LVL16
 4034 01ab 0100     		.2byte	0x1
 4035 01ad 50       		.byte	0x50
 4036 01ae 08000000 		.4byte	.LVL16
 4037 01b2 70020000 		.4byte	.LFE10
 4038 01b6 0100     		.2byte	0x1
 4039 01b8 54       		.byte	0x54
 4040 01b9 00000000 		.4byte	0
 4041 01bd 00000000 		.4byte	0
 4042              	.LLST13:
 4043 01c1 00000000 		.4byte	.LVL15
 4044 01c5 0E000000 		.4byte	.LVL17
 4045 01c9 0100     		.2byte	0x1
 4046 01cb 51       		.byte	0x51
 4047 01cc 0E000000 		.4byte	.LVL17
 4048 01d0 EA010000 		.4byte	.LVL32
 4049 01d4 0100     		.2byte	0x1
 4050 01d6 56       		.byte	0x56
 4051 01d7 EA010000 		.4byte	.LVL32
 4052 01db 50020000 		.4byte	.LVL38
 4053 01df 0300     		.2byte	0x3
 4054 01e1 79       		.byte	0x79
 4055 01e2 24       		.sleb128 36
 4056 01e3 9F       		.byte	0x9f
 4057 01e4 50020000 		.4byte	.LVL38
 4058 01e8 70020000 		.4byte	.LFE10
 4059 01ec 0100     		.2byte	0x1
 4060 01ee 56       		.byte	0x56
 4061 01ef 00000000 		.4byte	0
 4062 01f3 00000000 		.4byte	0
 4063              	.LLST14:
 4064 01f7 00000000 		.4byte	.LVL15
 4065 01fb 1C000000 		.4byte	.LVL19
ARM GAS  /tmp/ccDJhnOM.s 			page 73


 4066 01ff 0100     		.2byte	0x1
 4067 0201 52       		.byte	0x52
 4068 0202 1C000000 		.4byte	.LVL19
 4069 0206 70020000 		.4byte	.LFE10
 4070 020a 0100     		.2byte	0x1
 4071 020c 57       		.byte	0x57
 4072 020d 00000000 		.4byte	0
 4073 0211 00000000 		.4byte	0
 4074              	.LLST15:
 4075 0215 00000000 		.4byte	.LVL15
 4076 0219 26000000 		.4byte	.LVL20
 4077 021d 0100     		.2byte	0x1
 4078 021f 53       		.byte	0x53
 4079 0220 26000000 		.4byte	.LVL20
 4080 0224 E8010000 		.4byte	.LVL31
 4081 0228 0100     		.2byte	0x1
 4082 022a 58       		.byte	0x58
 4083 022b E8010000 		.4byte	.LVL31
 4084 022f 1C020000 		.4byte	.LVL34
 4085 0233 0200     		.2byte	0x2
 4086 0235 71       		.byte	0x71
 4087 0236 00       		.sleb128 0
 4088 0237 1C020000 		.4byte	.LVL34
 4089 023b 3F020000 		.4byte	.LVL35-1
 4090 023f 0300     		.2byte	0x3
 4091 0241 74       		.byte	0x74
 4092 0242 0C       		.sleb128 12
 4093 0243 06       		.byte	0x6
 4094 0244 50020000 		.4byte	.LVL38
 4095 0248 70020000 		.4byte	.LFE10
 4096 024c 0100     		.2byte	0x1
 4097 024e 58       		.byte	0x58
 4098 024f 00000000 		.4byte	0
 4099 0253 00000000 		.4byte	0
 4100              	.LLST16:
 4101 0257 16000000 		.4byte	.LVL18
 4102 025b 3C000000 		.4byte	.LVL21
 4103 025f 0100     		.2byte	0x1
 4104 0261 54       		.byte	0x54
 4105 0262 5C020000 		.4byte	.LVL39
 4106 0266 70020000 		.4byte	.LFE10
 4107 026a 0100     		.2byte	0x1
 4108 026c 54       		.byte	0x54
 4109 026d 00000000 		.4byte	0
 4110 0271 00000000 		.4byte	0
 4111              	.LLST17:
 4112 0275 DA000000 		.4byte	.LVL22
 4113 0279 5C020000 		.4byte	.LVL39
 4114 027d 0300     		.2byte	0x3
 4115 027f 08       		.byte	0x8
 4116 0280 55       		.byte	0x55
 4117 0281 9F       		.byte	0x9f
 4118 0282 00000000 		.4byte	0
 4119 0286 00000000 		.4byte	0
 4120              	.LLST18:
 4121 028a DA000000 		.4byte	.LVL22
 4122 028e BD010000 		.4byte	.LVL30-1
ARM GAS  /tmp/ccDJhnOM.s 			page 74


 4123 0292 0100     		.2byte	0x1
 4124 0294 5E       		.byte	0x5e
 4125 0295 00000000 		.4byte	0
 4126 0299 00000000 		.4byte	0
 4127              	.LLST19:
 4128 029d DA000000 		.4byte	.LVL22
 4129 02a1 0A010000 		.4byte	.LVL23
 4130 02a5 0100     		.2byte	0x1
 4131 02a7 55       		.byte	0x55
 4132 02a8 0A010000 		.4byte	.LVL23
 4133 02ac 1E010000 		.4byte	.LVL25
 4134 02b0 0100     		.2byte	0x1
 4135 02b2 53       		.byte	0x53
 4136 02b3 9A010000 		.4byte	.LVL26
 4137 02b7 A2010000 		.4byte	.LVL27
 4138 02bb 0300     		.2byte	0x3
 4139 02bd 73       		.byte	0x73
 4140 02be 7F       		.sleb128 -1
 4141 02bf 9F       		.byte	0x9f
 4142 02c0 00000000 		.4byte	0
 4143 02c4 00000000 		.4byte	0
 4144              	.LLST20:
 4145 02c8 BA010000 		.4byte	.LVL29
 4146 02cc BD010000 		.4byte	.LVL30-1
 4147 02d0 0100     		.2byte	0x1
 4148 02d2 53       		.byte	0x53
 4149 02d3 00000000 		.4byte	0
 4150 02d7 00000000 		.4byte	0
 4151              	.LLST21:
 4152 02db BE010000 		.4byte	.LVL30
 4153 02df 5C020000 		.4byte	.LVL39
 4154 02e3 0200     		.2byte	0x2
 4155 02e5 91       		.byte	0x91
 4156 02e6 00       		.sleb128 0
 4157 02e7 00000000 		.4byte	0
 4158 02eb 00000000 		.4byte	0
 4159              	.LLST22:
 4160 02ef BE010000 		.4byte	.LVL30
 4161 02f3 E8010000 		.4byte	.LVL31
 4162 02f7 0100     		.2byte	0x1
 4163 02f9 58       		.byte	0x58
 4164 02fa E8010000 		.4byte	.LVL31
 4165 02fe 1C020000 		.4byte	.LVL34
 4166 0302 0200     		.2byte	0x2
 4167 0304 71       		.byte	0x71
 4168 0305 00       		.sleb128 0
 4169 0306 1C020000 		.4byte	.LVL34
 4170 030a 3F020000 		.4byte	.LVL35-1
 4171 030e 0300     		.2byte	0x3
 4172 0310 74       		.byte	0x74
 4173 0311 0C       		.sleb128 12
 4174 0312 06       		.byte	0x6
 4175 0313 50020000 		.4byte	.LVL38
 4176 0317 5C020000 		.4byte	.LVL39
 4177 031b 0100     		.2byte	0x1
 4178 031d 58       		.byte	0x58
 4179 031e 00000000 		.4byte	0
ARM GAS  /tmp/ccDJhnOM.s 			page 75


 4180 0322 00000000 		.4byte	0
 4181              	.LLST23:
 4182 0326 BE010000 		.4byte	.LVL30
 4183 032a 5C020000 		.4byte	.LVL39
 4184 032e 0100     		.2byte	0x1
 4185 0330 57       		.byte	0x57
 4186 0331 00000000 		.4byte	0
 4187 0335 00000000 		.4byte	0
 4188              	.LLST24:
 4189 0339 BE010000 		.4byte	.LVL30
 4190 033d EA010000 		.4byte	.LVL32
 4191 0341 0100     		.2byte	0x1
 4192 0343 56       		.byte	0x56
 4193 0344 EA010000 		.4byte	.LVL32
 4194 0348 50020000 		.4byte	.LVL38
 4195 034c 0300     		.2byte	0x3
 4196 034e 79       		.byte	0x79
 4197 034f 24       		.sleb128 36
 4198 0350 9F       		.byte	0x9f
 4199 0351 50020000 		.4byte	.LVL38
 4200 0355 5C020000 		.4byte	.LVL39
 4201 0359 0100     		.2byte	0x1
 4202 035b 56       		.byte	0x56
 4203 035c 00000000 		.4byte	0
 4204 0360 00000000 		.4byte	0
 4205              	.LLST25:
 4206 0364 BE010000 		.4byte	.LVL30
 4207 0368 5C020000 		.4byte	.LVL39
 4208 036c 0100     		.2byte	0x1
 4209 036e 54       		.byte	0x54
 4210 036f 00000000 		.4byte	0
 4211 0373 00000000 		.4byte	0
 4212              	.LLST27:
 4213 0377 FA010000 		.4byte	.LVL33
 4214 037b 50020000 		.4byte	.LVL38
 4215 037f 0100     		.2byte	0x1
 4216 0381 57       		.byte	0x57
 4217 0382 00000000 		.4byte	0
 4218 0386 00000000 		.4byte	0
 4219              	.LLST28:
 4220 038a FA010000 		.4byte	.LVL33
 4221 038e 50020000 		.4byte	.LVL38
 4222 0392 0100     		.2byte	0x1
 4223 0394 54       		.byte	0x54
 4224 0395 00000000 		.4byte	0
 4225 0399 00000000 		.4byte	0
 4226              	.LLST29:
 4227 039d 4A020000 		.4byte	.LVL37
 4228 03a1 50020000 		.4byte	.LVL38
 4229 03a5 0100     		.2byte	0x1
 4230 03a7 53       		.byte	0x53
 4231 03a8 00000000 		.4byte	0
 4232 03ac 00000000 		.4byte	0
 4233              	.LLST30:
 4234 03b0 00000000 		.4byte	.LFB11
 4235 03b4 04000000 		.4byte	.LCFI4
 4236 03b8 0200     		.2byte	0x2
ARM GAS  /tmp/ccDJhnOM.s 			page 76


 4237 03ba 7D       		.byte	0x7d
 4238 03bb 00       		.sleb128 0
 4239 03bc 04000000 		.4byte	.LCFI4
 4240 03c0 48000000 		.4byte	.LFE11
 4241 03c4 0200     		.2byte	0x2
 4242 03c6 7D       		.byte	0x7d
 4243 03c7 10       		.sleb128 16
 4244 03c8 00000000 		.4byte	0
 4245 03cc 00000000 		.4byte	0
 4246              	.LLST31:
 4247 03d0 00000000 		.4byte	.LVL40
 4248 03d4 08000000 		.4byte	.LVL41
 4249 03d8 0100     		.2byte	0x1
 4250 03da 50       		.byte	0x50
 4251 03db 08000000 		.4byte	.LVL41
 4252 03df 48000000 		.4byte	.LFE11
 4253 03e3 0100     		.2byte	0x1
 4254 03e5 54       		.byte	0x54
 4255 03e6 00000000 		.4byte	0
 4256 03ea 00000000 		.4byte	0
 4257              	.LLST32:
 4258 03ee 29000000 		.4byte	.LVL46-1
 4259 03f2 38000000 		.4byte	.LVL49
 4260 03f6 0100     		.2byte	0x1
 4261 03f8 55       		.byte	0x55
 4262 03f9 00000000 		.4byte	0
 4263 03fd 00000000 		.4byte	0
 4264              	.LLST33:
 4265 0401 0E000000 		.4byte	.LVL43
 4266 0405 11000000 		.4byte	.LVL44-1
 4267 0409 0100     		.2byte	0x1
 4268 040b 53       		.byte	0x53
 4269 040c 00000000 		.4byte	0
 4270 0410 00000000 		.4byte	0
 4271              	.LLST34:
 4272 0414 34000000 		.4byte	.LVL48
 4273 0418 38000000 		.4byte	.LVL49
 4274 041c 0100     		.2byte	0x1
 4275 041e 53       		.byte	0x53
 4276 041f 00000000 		.4byte	0
 4277 0423 00000000 		.4byte	0
 4278              	.LLST35:
 4279 0427 00000000 		.4byte	.LFB12
 4280 042b 02000000 		.4byte	.LCFI5
 4281 042f 0200     		.2byte	0x2
 4282 0431 7D       		.byte	0x7d
 4283 0432 00       		.sleb128 0
 4284 0433 02000000 		.4byte	.LCFI5
 4285 0437 38000000 		.4byte	.LFE12
 4286 043b 0200     		.2byte	0x2
 4287 043d 7D       		.byte	0x7d
 4288 043e 08       		.sleb128 8
 4289 043f 00000000 		.4byte	0
 4290 0443 00000000 		.4byte	0
 4291              	.LLST36:
 4292 0447 00000000 		.4byte	.LVL50
 4293 044b 0D000000 		.4byte	.LVL53-1
ARM GAS  /tmp/ccDJhnOM.s 			page 77


 4294 044f 0100     		.2byte	0x1
 4295 0451 50       		.byte	0x50
 4296 0452 0D000000 		.4byte	.LVL53-1
 4297 0456 38000000 		.4byte	.LFE12
 4298 045a 0100     		.2byte	0x1
 4299 045c 54       		.byte	0x54
 4300 045d 00000000 		.4byte	0
 4301 0461 00000000 		.4byte	0
 4302              	.LLST37:
 4303 0465 0A000000 		.4byte	.LVL52
 4304 0469 0D000000 		.4byte	.LVL53-1
 4305 046d 0100     		.2byte	0x1
 4306 046f 53       		.byte	0x53
 4307 0470 00000000 		.4byte	0
 4308 0474 00000000 		.4byte	0
 4309              	.LLST38:
 4310 0478 2E000000 		.4byte	.LVL55
 4311 047c 38000000 		.4byte	.LFE12
 4312 0480 0100     		.2byte	0x1
 4313 0482 53       		.byte	0x53
 4314 0483 00000000 		.4byte	0
 4315 0487 00000000 		.4byte	0
 4316              	.LLST39:
 4317 048b 00000000 		.4byte	.LFB13
 4318 048f 02000000 		.4byte	.LCFI6
 4319 0493 0200     		.2byte	0x2
 4320 0495 7D       		.byte	0x7d
 4321 0496 00       		.sleb128 0
 4322 0497 02000000 		.4byte	.LCFI6
 4323 049b 26000000 		.4byte	.LFE13
 4324 049f 0200     		.2byte	0x2
 4325 04a1 7D       		.byte	0x7d
 4326 04a2 08       		.sleb128 8
 4327 04a3 00000000 		.4byte	0
 4328 04a7 00000000 		.4byte	0
 4329              	.LLST40:
 4330 04ab 00000000 		.4byte	.LVL56
 4331 04af 0D000000 		.4byte	.LVL59-1
 4332 04b3 0100     		.2byte	0x1
 4333 04b5 50       		.byte	0x50
 4334 04b6 0D000000 		.4byte	.LVL59-1
 4335 04ba 26000000 		.4byte	.LFE13
 4336 04be 0100     		.2byte	0x1
 4337 04c0 54       		.byte	0x54
 4338 04c1 00000000 		.4byte	0
 4339 04c5 00000000 		.4byte	0
 4340              	.LLST41:
 4341 04c9 0A000000 		.4byte	.LVL58
 4342 04cd 0D000000 		.4byte	.LVL59-1
 4343 04d1 0100     		.2byte	0x1
 4344 04d3 53       		.byte	0x53
 4345 04d4 00000000 		.4byte	0
 4346 04d8 00000000 		.4byte	0
 4347              	.LLST42:
 4348 04dc 24000000 		.4byte	.LVL61
 4349 04e0 26000000 		.4byte	.LFE13
 4350 04e4 0100     		.2byte	0x1
ARM GAS  /tmp/ccDJhnOM.s 			page 78


 4351 04e6 53       		.byte	0x53
 4352 04e7 00000000 		.4byte	0
 4353 04eb 00000000 		.4byte	0
 4354              	.LLST43:
 4355 04ef 00000000 		.4byte	.LFB14
 4356 04f3 02000000 		.4byte	.LCFI7
 4357 04f7 0200     		.2byte	0x2
 4358 04f9 7D       		.byte	0x7d
 4359 04fa 00       		.sleb128 0
 4360 04fb 02000000 		.4byte	.LCFI7
 4361 04ff 30000000 		.4byte	.LFE14
 4362 0503 0200     		.2byte	0x2
 4363 0505 7D       		.byte	0x7d
 4364 0506 08       		.sleb128 8
 4365 0507 00000000 		.4byte	0
 4366 050b 00000000 		.4byte	0
 4367              	.LLST44:
 4368 050f 00000000 		.4byte	.LVL62
 4369 0513 08000000 		.4byte	.LVL63
 4370 0517 0100     		.2byte	0x1
 4371 0519 50       		.byte	0x50
 4372 051a 08000000 		.4byte	.LVL63
 4373 051e 30000000 		.4byte	.LFE14
 4374 0522 0100     		.2byte	0x1
 4375 0524 54       		.byte	0x54
 4376 0525 00000000 		.4byte	0
 4377 0529 00000000 		.4byte	0
 4378              	.LLST45:
 4379 052d 12000000 		.4byte	.LVL65
 4380 0531 15000000 		.4byte	.LVL66-1
 4381 0535 0100     		.2byte	0x1
 4382 0537 53       		.byte	0x53
 4383 0538 00000000 		.4byte	0
 4384 053c 00000000 		.4byte	0
 4385              	.LLST46:
 4386 0540 28000000 		.4byte	.LVL68
 4387 0544 30000000 		.4byte	.LFE14
 4388 0548 0100     		.2byte	0x1
 4389 054a 53       		.byte	0x53
 4390 054b 00000000 		.4byte	0
 4391 054f 00000000 		.4byte	0
 4392              	.LLST47:
 4393 0553 00000000 		.4byte	.LFB15
 4394 0557 02000000 		.4byte	.LCFI8
 4395 055b 0200     		.2byte	0x2
 4396 055d 7D       		.byte	0x7d
 4397 055e 00       		.sleb128 0
 4398 055f 02000000 		.4byte	.LCFI8
 4399 0563 2C000000 		.4byte	.LFE15
 4400 0567 0200     		.2byte	0x2
 4401 0569 7D       		.byte	0x7d
 4402 056a 08       		.sleb128 8
 4403 056b 00000000 		.4byte	0
 4404 056f 00000000 		.4byte	0
 4405              	.LLST48:
 4406 0573 00000000 		.4byte	.LVL69
 4407 0577 0D000000 		.4byte	.LVL72-1
ARM GAS  /tmp/ccDJhnOM.s 			page 79


 4408 057b 0100     		.2byte	0x1
 4409 057d 50       		.byte	0x50
 4410 057e 0D000000 		.4byte	.LVL72-1
 4411 0582 12000000 		.4byte	.LVL73
 4412 0586 0100     		.2byte	0x1
 4413 0588 54       		.byte	0x54
 4414 0589 12000000 		.4byte	.LVL73
 4415 058d 14000000 		.4byte	.LVL74
 4416 0591 0600     		.2byte	0x6
 4417 0593 74       		.byte	0x74
 4418 0594 00       		.sleb128 0
 4419 0595 71       		.byte	0x71
 4420 0596 00       		.sleb128 0
 4421 0597 1C       		.byte	0x1c
 4422 0598 9F       		.byte	0x9f
 4423 0599 14000000 		.4byte	.LVL74
 4424 059d 1B000000 		.4byte	.LVL75-1
 4425 05a1 0100     		.2byte	0x1
 4426 05a3 51       		.byte	0x51
 4427 05a4 00000000 		.4byte	0
 4428 05a8 00000000 		.4byte	0
 4429              	.LLST49:
 4430 05ac 0A000000 		.4byte	.LVL71
 4431 05b0 0D000000 		.4byte	.LVL72-1
 4432 05b4 0100     		.2byte	0x1
 4433 05b6 53       		.byte	0x53
 4434 05b7 00000000 		.4byte	0
 4435 05bb 00000000 		.4byte	0
 4436              	.LLST50:
 4437 05bf 26000000 		.4byte	.LVL77
 4438 05c3 2C000000 		.4byte	.LFE15
 4439 05c7 0100     		.2byte	0x1
 4440 05c9 53       		.byte	0x53
 4441 05ca 00000000 		.4byte	0
 4442 05ce 00000000 		.4byte	0
 4443              	.LLST51:
 4444 05d2 00000000 		.4byte	.LFB16
 4445 05d6 02000000 		.4byte	.LCFI9
 4446 05da 0200     		.2byte	0x2
 4447 05dc 7D       		.byte	0x7d
 4448 05dd 00       		.sleb128 0
 4449 05de 02000000 		.4byte	.LCFI9
 4450 05e2 30000000 		.4byte	.LFE16
 4451 05e6 0200     		.2byte	0x2
 4452 05e8 7D       		.byte	0x7d
 4453 05e9 08       		.sleb128 8
 4454 05ea 00000000 		.4byte	0
 4455 05ee 00000000 		.4byte	0
 4456              	.LLST52:
 4457 05f2 08000000 		.4byte	.LVL79
 4458 05f6 0B000000 		.4byte	.LVL80-1
 4459 05fa 0100     		.2byte	0x1
 4460 05fc 53       		.byte	0x53
 4461 05fd 00000000 		.4byte	0
 4462 0601 00000000 		.4byte	0
 4463              	.LLST53:
 4464 0605 28000000 		.4byte	.LVL82
ARM GAS  /tmp/ccDJhnOM.s 			page 80


 4465 0609 30000000 		.4byte	.LFE16
 4466 060d 0100     		.2byte	0x1
 4467 060f 53       		.byte	0x53
 4468 0610 00000000 		.4byte	0
 4469 0614 00000000 		.4byte	0
 4470              	.LLST54:
 4471 0618 00000000 		.4byte	.LFB17
 4472 061c 02000000 		.4byte	.LCFI10
 4473 0620 0200     		.2byte	0x2
 4474 0622 7D       		.byte	0x7d
 4475 0623 00       		.sleb128 0
 4476 0624 02000000 		.4byte	.LCFI10
 4477 0628 58000000 		.4byte	.LFE17
 4478 062c 0200     		.2byte	0x2
 4479 062e 7D       		.byte	0x7d
 4480 062f 10       		.sleb128 16
 4481 0630 00000000 		.4byte	0
 4482 0634 00000000 		.4byte	0
 4483              	.LLST55:
 4484 0638 00000000 		.4byte	.LVL83
 4485 063c 0D000000 		.4byte	.LVL86-1
 4486 0640 0100     		.2byte	0x1
 4487 0642 50       		.byte	0x50
 4488 0643 0D000000 		.4byte	.LVL86-1
 4489 0647 58000000 		.4byte	.LFE17
 4490 064b 0100     		.2byte	0x1
 4491 064d 56       		.byte	0x56
 4492 064e 00000000 		.4byte	0
 4493 0652 00000000 		.4byte	0
 4494              	.LLST56:
 4495 0656 0A000000 		.4byte	.LVL85
 4496 065a 0D000000 		.4byte	.LVL86-1
 4497 065e 0100     		.2byte	0x1
 4498 0660 53       		.byte	0x53
 4499 0661 00000000 		.4byte	0
 4500 0665 00000000 		.4byte	0
 4501              	.LLST57:
 4502 0669 12000000 		.4byte	.LVL87
 4503 066d 1E000000 		.4byte	.LVL88
 4504 0671 0200     		.2byte	0x2
 4505 0673 73       		.byte	0x73
 4506 0674 18       		.sleb128 24
 4507 0675 1E000000 		.4byte	.LVL88
 4508 0679 58000000 		.4byte	.LFE17
 4509 067d 0100     		.2byte	0x1
 4510 067f 54       		.byte	0x54
 4511 0680 00000000 		.4byte	0
 4512 0684 00000000 		.4byte	0
 4513              	.LLST58:
 4514 0688 1E000000 		.4byte	.LVL88
 4515 068c 2C000000 		.4byte	.LVL90
 4516 0690 0300     		.2byte	0x3
 4517 0692 74       		.byte	0x74
 4518 0693 2C       		.sleb128 44
 4519 0694 9F       		.byte	0x9f
 4520 0695 00000000 		.4byte	0
 4521 0699 00000000 		.4byte	0
ARM GAS  /tmp/ccDJhnOM.s 			page 81


 4522              	.LLST59:
 4523 069d 1E000000 		.4byte	.LVL88
 4524 06a1 25000000 		.4byte	.LVL89-1
 4525 06a5 0100     		.2byte	0x1
 4526 06a7 50       		.byte	0x50
 4527 06a8 00000000 		.4byte	0
 4528 06ac 00000000 		.4byte	0
 4529              	.LLST60:
 4530 06b0 00000000 		.4byte	.LFB18
 4531 06b4 04000000 		.4byte	.LCFI11
 4532 06b8 0200     		.2byte	0x2
 4533 06ba 7D       		.byte	0x7d
 4534 06bb 00       		.sleb128 0
 4535 06bc 04000000 		.4byte	.LCFI11
 4536 06c0 4C000000 		.4byte	.LFE18
 4537 06c4 0200     		.2byte	0x2
 4538 06c6 7D       		.byte	0x7d
 4539 06c7 10       		.sleb128 16
 4540 06c8 00000000 		.4byte	0
 4541 06cc 00000000 		.4byte	0
 4542              	.LLST61:
 4543 06d0 00000000 		.4byte	.LVL91
 4544 06d4 0E000000 		.4byte	.LVL93
 4545 06d8 0100     		.2byte	0x1
 4546 06da 50       		.byte	0x50
 4547 06db 0E000000 		.4byte	.LVL93
 4548 06df 14000000 		.4byte	.LVL94
 4549 06e3 0100     		.2byte	0x1
 4550 06e5 53       		.byte	0x53
 4551 06e6 00000000 		.4byte	0
 4552 06ea 00000000 		.4byte	0
 4553              	.LLST62:
 4554 06ee 06000000 		.4byte	.LVL92
 4555 06f2 14000000 		.4byte	.LVL94
 4556 06f6 0200     		.2byte	0x2
 4557 06f8 72       		.byte	0x72
 4558 06f9 18       		.sleb128 24
 4559 06fa 14000000 		.4byte	.LVL94
 4560 06fe 4C000000 		.4byte	.LFE18
 4561 0702 0100     		.2byte	0x1
 4562 0704 54       		.byte	0x54
 4563 0705 00000000 		.4byte	0
 4564 0709 00000000 		.4byte	0
 4565              	.LLST63:
 4566 070d 14000000 		.4byte	.LVL94
 4567 0711 22000000 		.4byte	.LVL96
 4568 0715 0300     		.2byte	0x3
 4569 0717 74       		.byte	0x74
 4570 0718 2C       		.sleb128 44
 4571 0719 9F       		.byte	0x9f
 4572 071a 00000000 		.4byte	0
 4573 071e 00000000 		.4byte	0
 4574              	.LLST64:
 4575 0722 14000000 		.4byte	.LVL94
 4576 0726 1B000000 		.4byte	.LVL95-1
 4577 072a 0100     		.2byte	0x1
 4578 072c 50       		.byte	0x50
ARM GAS  /tmp/ccDJhnOM.s 			page 82


 4579 072d 00000000 		.4byte	0
 4580 0731 00000000 		.4byte	0
 4581              	.LLST65:
 4582 0735 00000000 		.4byte	.LFB19
 4583 0739 02000000 		.4byte	.LCFI12
 4584 073d 0200     		.2byte	0x2
 4585 073f 7D       		.byte	0x7d
 4586 0740 00       		.sleb128 0
 4587 0741 02000000 		.4byte	.LCFI12
 4588 0745 74000000 		.4byte	.LFE19
 4589 0749 0200     		.2byte	0x2
 4590 074b 7D       		.byte	0x7d
 4591 074c 10       		.sleb128 16
 4592 074d 00000000 		.4byte	0
 4593 0751 00000000 		.4byte	0
 4594              	.LLST66:
 4595 0755 00000000 		.4byte	.LVL97
 4596 0759 06000000 		.4byte	.LVL98
 4597 075d 0100     		.2byte	0x1
 4598 075f 50       		.byte	0x50
 4599 0760 06000000 		.4byte	.LVL98
 4600 0764 74000000 		.4byte	.LFE19
 4601 0768 0100     		.2byte	0x1
 4602 076a 54       		.byte	0x54
 4603 076b 00000000 		.4byte	0
 4604 076f 00000000 		.4byte	0
 4605              	.LLST67:
 4606 0773 36000000 		.4byte	.LVL104
 4607 0777 39000000 		.4byte	.LVL105-1
 4608 077b 0200     		.2byte	0x2
 4609 077d 74       		.byte	0x74
 4610 077e 28       		.sleb128 40
 4611 077f 39000000 		.4byte	.LVL105-1
 4612 0783 4A000000 		.4byte	.LVL109
 4613 0787 0100     		.2byte	0x1
 4614 0789 55       		.byte	0x55
 4615 078a 00000000 		.4byte	0
 4616 078e 00000000 		.4byte	0
 4617              	.LLST68:
 4618 0792 0C000000 		.4byte	.LVL100
 4619 0796 11000000 		.4byte	.LVL101-1
 4620 079a 0100     		.2byte	0x1
 4621 079c 53       		.byte	0x53
 4622 079d 00000000 		.4byte	0
 4623 07a1 00000000 		.4byte	0
 4624              	.LLST69:
 4625 07a5 28000000 		.4byte	.LVL102
 4626 07a9 34000000 		.4byte	.LVL103
 4627 07ad 0300     		.2byte	0x3
 4628 07af 74       		.byte	0x74
 4629 07b0 2C       		.sleb128 44
 4630 07b1 9F       		.byte	0x9f
 4631 07b2 00000000 		.4byte	0
 4632 07b6 00000000 		.4byte	0
 4633              	.LLST70:
 4634 07ba 33000000 		.4byte	.LVL103-1
 4635 07be 34000000 		.4byte	.LVL103
ARM GAS  /tmp/ccDJhnOM.s 			page 83


 4636 07c2 0100     		.2byte	0x1
 4637 07c4 55       		.byte	0x55
 4638 07c5 00000000 		.4byte	0
 4639 07c9 00000000 		.4byte	0
 4640              	.LLST71:
 4641 07cd 40000000 		.4byte	.LVL107
 4642 07d1 45000000 		.4byte	.LVL108-1
 4643 07d5 0100     		.2byte	0x1
 4644 07d7 53       		.byte	0x53
 4645 07d8 00000000 		.4byte	0
 4646 07dc 00000000 		.4byte	0
 4647              		.section	.debug_aranges,"",%progbits
 4648 0000 7C000000 		.4byte	0x7c
 4649 0004 0200     		.2byte	0x2
 4650 0006 00000000 		.4byte	.Ldebug_info0
 4651 000a 04       		.byte	0x4
 4652 000b 00       		.byte	0
 4653 000c 0000     		.2byte	0
 4654 000e 0000     		.2byte	0
 4655 0010 00000000 		.4byte	.LFB7
 4656 0014 52000000 		.4byte	.LFE7-.LFB7
 4657 0018 00000000 		.4byte	.LFB8
 4658 001c EE000000 		.4byte	.LFE8-.LFB8
 4659 0020 00000000 		.4byte	.LFB9
 4660 0024 98000000 		.4byte	.LFE9-.LFB9
 4661 0028 00000000 		.4byte	.LFB10
 4662 002c 70020000 		.4byte	.LFE10-.LFB10
 4663 0030 00000000 		.4byte	.LFB11
 4664 0034 48000000 		.4byte	.LFE11-.LFB11
 4665 0038 00000000 		.4byte	.LFB12
 4666 003c 38000000 		.4byte	.LFE12-.LFB12
 4667 0040 00000000 		.4byte	.LFB13
 4668 0044 26000000 		.4byte	.LFE13-.LFB13
 4669 0048 00000000 		.4byte	.LFB14
 4670 004c 30000000 		.4byte	.LFE14-.LFB14
 4671 0050 00000000 		.4byte	.LFB15
 4672 0054 2C000000 		.4byte	.LFE15-.LFB15
 4673 0058 00000000 		.4byte	.LFB16
 4674 005c 30000000 		.4byte	.LFE16-.LFB16
 4675 0060 00000000 		.4byte	.LFB17
 4676 0064 58000000 		.4byte	.LFE17-.LFB17
 4677 0068 00000000 		.4byte	.LFB18
 4678 006c 4C000000 		.4byte	.LFE18-.LFB18
 4679 0070 00000000 		.4byte	.LFB19
 4680 0074 74000000 		.4byte	.LFE19-.LFB19
 4681 0078 00000000 		.4byte	0
 4682 007c 00000000 		.4byte	0
 4683              		.section	.debug_ranges,"",%progbits
 4684              	.Ldebug_ranges0:
 4685 0000 1E000000 		.4byte	.LBB16
 4686 0004 20000000 		.4byte	.LBE16
 4687 0008 28000000 		.4byte	.LBB22
 4688 000c 2A000000 		.4byte	.LBE22
 4689 0010 32000000 		.4byte	.LBB23
 4690 0014 34000000 		.4byte	.LBE23
 4691 0018 38000000 		.4byte	.LBB24
 4692 001c 3C000000 		.4byte	.LBE24
ARM GAS  /tmp/ccDJhnOM.s 			page 84


 4693 0020 3E000000 		.4byte	.LBB25
 4694 0024 7C000000 		.4byte	.LBE25
 4695 0028 00000000 		.4byte	0
 4696 002c 00000000 		.4byte	0
 4697 0030 BE010000 		.4byte	.LBB41
 4698 0034 18020000 		.4byte	.LBE41
 4699 0038 1C020000 		.4byte	.LBB57
 4700 003c 3C020000 		.4byte	.LBE57
 4701 0040 50020000 		.4byte	.LBB59
 4702 0044 5C020000 		.4byte	.LBE59
 4703 0048 00000000 		.4byte	0
 4704 004c 00000000 		.4byte	0
 4705 0050 BE010000 		.4byte	.LBB42
 4706 0054 18020000 		.4byte	.LBE42
 4707 0058 1C020000 		.4byte	.LBB55
 4708 005c 3C020000 		.4byte	.LBE55
 4709 0060 50020000 		.4byte	.LBB56
 4710 0064 5C020000 		.4byte	.LBE56
 4711 0068 00000000 		.4byte	0
 4712 006c 00000000 		.4byte	0
 4713 0070 D0010000 		.4byte	.LBB43
 4714 0074 D2010000 		.4byte	.LBE43
 4715 0078 DA010000 		.4byte	.LBB50
 4716 007c DE010000 		.4byte	.LBE50
 4717 0080 E8010000 		.4byte	.LBB51
 4718 0084 EA010000 		.4byte	.LBE51
 4719 0088 F2010000 		.4byte	.LBB52
 4720 008c F6010000 		.4byte	.LBE52
 4721 0090 FA010000 		.4byte	.LBB53
 4722 0094 18020000 		.4byte	.LBE53
 4723 0098 1C020000 		.4byte	.LBB54
 4724 009c 3C020000 		.4byte	.LBE54
 4725 00a0 00000000 		.4byte	0
 4726 00a4 00000000 		.4byte	0
 4727 00a8 02000000 		.4byte	.LBB62
 4728 00ac 04000000 		.4byte	.LBE62
 4729 00b0 06000000 		.4byte	.LBB63
 4730 00b4 0A000000 		.4byte	.LBE63
 4731 00b8 00000000 		.4byte	0
 4732 00bc 00000000 		.4byte	0
 4733 00c0 02000000 		.4byte	.LBB65
 4734 00c4 04000000 		.4byte	.LBE65
 4735 00c8 06000000 		.4byte	.LBB66
 4736 00cc 0A000000 		.4byte	.LBE66
 4737 00d0 00000000 		.4byte	0
 4738 00d4 00000000 		.4byte	0
 4739 00d8 02000000 		.4byte	.LBB70
 4740 00dc 04000000 		.4byte	.LBE70
 4741 00e0 06000000 		.4byte	.LBB71
 4742 00e4 0A000000 		.4byte	.LBE71
 4743 00e8 00000000 		.4byte	0
 4744 00ec 00000000 		.4byte	0
 4745 00f0 02000000 		.4byte	.LBB80
 4746 00f4 04000000 		.4byte	.LBE80
 4747 00f8 06000000 		.4byte	.LBB81
 4748 00fc 0A000000 		.4byte	.LBE81
 4749 0100 00000000 		.4byte	0
ARM GAS  /tmp/ccDJhnOM.s 			page 85


 4750 0104 00000000 		.4byte	0
 4751 0108 0E000000 		.4byte	.LBB82
 4752 010c 46000000 		.4byte	.LBE82
 4753 0110 4A000000 		.4byte	.LBB87
 4754 0114 58000000 		.4byte	.LBE87
 4755 0118 00000000 		.4byte	0
 4756 011c 00000000 		.4byte	0
 4757 0120 0E000000 		.4byte	.LBB83
 4758 0124 46000000 		.4byte	.LBE83
 4759 0128 4A000000 		.4byte	.LBB86
 4760 012c 58000000 		.4byte	.LBE86
 4761 0130 00000000 		.4byte	0
 4762 0134 00000000 		.4byte	0
 4763 0138 28000000 		.4byte	.LBB91
 4764 013c 2A000000 		.4byte	.LBE91
 4765 0140 2C000000 		.4byte	.LBB94
 4766 0144 30000000 		.4byte	.LBE94
 4767 0148 00000000 		.4byte	0
 4768 014c 00000000 		.4byte	0
 4769 0150 00000000 		.4byte	.LFB7
 4770 0154 52000000 		.4byte	.LFE7
 4771 0158 00000000 		.4byte	.LFB8
 4772 015c EE000000 		.4byte	.LFE8
 4773 0160 00000000 		.4byte	.LFB9
 4774 0164 98000000 		.4byte	.LFE9
 4775 0168 00000000 		.4byte	.LFB10
 4776 016c 70020000 		.4byte	.LFE10
 4777 0170 00000000 		.4byte	.LFB11
 4778 0174 48000000 		.4byte	.LFE11
 4779 0178 00000000 		.4byte	.LFB12
 4780 017c 38000000 		.4byte	.LFE12
 4781 0180 00000000 		.4byte	.LFB13
 4782 0184 26000000 		.4byte	.LFE13
 4783 0188 00000000 		.4byte	.LFB14
 4784 018c 30000000 		.4byte	.LFE14
 4785 0190 00000000 		.4byte	.LFB15
 4786 0194 2C000000 		.4byte	.LFE15
 4787 0198 00000000 		.4byte	.LFB16
 4788 019c 30000000 		.4byte	.LFE16
 4789 01a0 00000000 		.4byte	.LFB17
 4790 01a4 58000000 		.4byte	.LFE17
 4791 01a8 00000000 		.4byte	.LFB18
 4792 01ac 4C000000 		.4byte	.LFE18
 4793 01b0 00000000 		.4byte	.LFB19
 4794 01b4 74000000 		.4byte	.LFE19
 4795 01b8 00000000 		.4byte	0
 4796 01bc 00000000 		.4byte	0
 4797              		.section	.debug_line,"",%progbits
 4798              	.Ldebug_line0:
 4799 0000 BD040000 		.section	.debug_str,"MS",%progbits,1
 4799      0200EE01 
 4799      00000201 
 4799      FB0E0D00 
 4799      01010101 
 4800              	.LASF75:
 4801 0000 7466756E 		.ascii	"tfunc_t\000"
 4801      635F7400 
ARM GAS  /tmp/ccDJhnOM.s 			page 86


 4802              	.LASF39:
 4803 0008 705F6D73 		.ascii	"p_msg\000"
 4803      6700
 4804              	.LASF2:
 4805 000e 73697A65 		.ascii	"size_t\000"
 4805      5F7400
 4806              	.LASF78:
 4807 0015 7072696F 		.ascii	"prio\000"
 4807      00
 4808              	.LASF70:
 4809 001a 7264796D 		.ascii	"rdymsg\000"
 4809      736700
 4810              	.LASF12:
 4811 0021 75696E74 		.ascii	"uint64_t\000"
 4811      36345F74 
 4811      00
 4812              	.LASF99:
 4813 002a 2E2E2F2E 		.ascii	"../../ChibiOS/os/kernel/src/chthreads.c\000"
 4813      2E2F4368 
 4813      6962694F 
 4813      532F6F73 
 4813      2F6B6572 
 4814              	.LASF96:
 4815 0052 76746C69 		.ascii	"vtlist\000"
 4815      737400
 4816              	.LASF93:
 4817 0059 63685468 		.ascii	"chThdExitS\000"
 4817      64457869 
 4817      745300
 4818              	.LASF13:
 4819 0064 6C6F6E67 		.ascii	"long long unsigned int\000"
 4819      206C6F6E 
 4819      6720756E 
 4819      7369676E 
 4819      65642069 
 4820              	.LASF71:
 4821 007b 65786974 		.ascii	"exitcode\000"
 4821      636F6465 
 4821      00
 4822              	.LASF26:
 4823 0084 705F7072 		.ascii	"p_prio\000"
 4823      696F00
 4824              	.LASF11:
 4825 008b 6C6F6E67 		.ascii	"long long int\000"
 4825      206C6F6E 
 4825      6720696E 
 4825      7400
 4826              	.LASF1:
 4827 0099 7369676E 		.ascii	"signed char\000"
 4827      65642063 
 4827      68617200 
 4828              	.LASF94:
 4829 00a5 63685468 		.ascii	"chThdExit\000"
 4829      64457869 
 4829      7400
 4830              	.LASF43:
 4831 00af 705F6D70 		.ascii	"p_mpool\000"
ARM GAS  /tmp/ccDJhnOM.s 			page 87


 4831      6F6F6C00 
 4832              	.LASF67:
 4833 00b7 6D5F7175 		.ascii	"m_queue\000"
 4833      65756500 
 4834              	.LASF18:
 4835 00bf 74736C69 		.ascii	"tslices_t\000"
 4835      6365735F 
 4835      7400
 4836              	.LASF80:
 4837 00c9 63685468 		.ascii	"chThdCreateI\000"
 4837      64437265 
 4837      61746549 
 4837      00
 4838              	.LASF8:
 4839 00d6 6C6F6E67 		.ascii	"long int\000"
 4839      20696E74 
 4839      00
 4840              	.LASF98:
 4841 00df 474E5520 		.ascii	"GNU C 4.6.2 20120613 (release) [ARM/embedded-4_6-br"
 4841      4320342E 
 4841      362E3220 
 4841      32303132 
 4841      30363133 
 4842 0112 616E6368 		.ascii	"anch revision 188521]\000"
 4842      20726576 
 4842      6973696F 
 4842      6E203138 
 4842      38353231 
 4843              	.LASF100:
 4844 0128 2F686F6D 		.ascii	"/home/tino/workspace/openrobots/R2P_IR_module/fw\000"
 4844      652F7469 
 4844      6E6F2F77 
 4844      6F726B73 
 4844      70616365 
 4845              	.LASF16:
 4846 0159 74737461 		.ascii	"tstate_t\000"
 4846      74655F74 
 4846      00
 4847              	.LASF28:
 4848 0162 705F6E65 		.ascii	"p_newer\000"
 4848      77657200 
 4849              	.LASF101:
 4850 016a 6C697374 		.ascii	"list_remove\000"
 4850      5F72656D 
 4850      6F766500 
 4851              	.LASF62:
 4852 0176 725F6E65 		.ascii	"r_newer\000"
 4852      77657200 
 4853              	.LASF46:
 4854 017e 72656761 		.ascii	"regarm_t\000"
 4854      726D5F74 
 4854      00
 4855              	.LASF53:
 4856 0187 76745F70 		.ascii	"vt_prev\000"
 4856      72657600 
 4857              	.LASF83:
 4858 018f 63685468 		.ascii	"chThdSetPriority\000"
ARM GAS  /tmp/ccDJhnOM.s 			page 88


 4858      64536574 
 4858      5072696F 
 4858      72697479 
 4858      00
 4859              	.LASF31:
 4860 01a0 705F7374 		.ascii	"p_stklimit\000"
 4860      6B6C696D 
 4860      697400
 4861              	.LASF0:
 4862 01ab 756E7369 		.ascii	"unsigned int\000"
 4862      676E6564 
 4862      20696E74 
 4862      00
 4863              	.LASF52:
 4864 01b8 76745F6E 		.ascii	"vt_next\000"
 4864      65787400 
 4865              	.LASF10:
 4866 01c0 6C6F6E67 		.ascii	"long unsigned int\000"
 4866      20756E73 
 4866      69676E65 
 4866      6420696E 
 4866      7400
 4867              	.LASF49:
 4868 01d2 636F6E74 		.ascii	"context\000"
 4868      65787400 
 4869              	.LASF81:
 4870 01da 73697A65 		.ascii	"size\000"
 4870      00
 4871              	.LASF6:
 4872 01df 73686F72 		.ascii	"short unsigned int\000"
 4872      7420756E 
 4872      7369676E 
 4872      65642069 
 4872      6E7400
 4873              	.LASF20:
 4874 01f2 6D73675F 		.ascii	"msg_t\000"
 4874      7400
 4875              	.LASF84:
 4876 01f8 6E657770 		.ascii	"newprio\000"
 4876      72696F00 
 4877              	.LASF15:
 4878 0200 746D6F64 		.ascii	"tmode_t\000"
 4878      655F7400 
 4879              	.LASF87:
 4880 0208 63685468 		.ascii	"chThdTerminate\000"
 4880      64546572 
 4880      6D696E61 
 4880      746500
 4881              	.LASF45:
 4882 0217 54687265 		.ascii	"ThreadsList\000"
 4882      6164734C 
 4882      69737400 
 4883              	.LASF21:
 4884 0223 6576656E 		.ascii	"eventmask_t\000"
 4884      746D6173 
 4884      6B5F7400 
 4885              	.LASF66:
ARM GAS  /tmp/ccDJhnOM.s 			page 89


 4886 022f 4D757465 		.ascii	"Mutex\000"
 4886      7800
 4887              	.LASF85:
 4888 0235 6F6C6470 		.ascii	"oldprio\000"
 4888      72696F00 
 4889              	.LASF47:
 4890 023d 73746B61 		.ascii	"stkalign_t\000"
 4890      6C69676E 
 4890      5F7400
 4891              	.LASF82:
 4892 0248 63685468 		.ascii	"chThdCreateStatic\000"
 4892      64437265 
 4892      61746553 
 4892      74617469 
 4892      6300
 4893              	.LASF54:
 4894 025a 76745F74 		.ascii	"vt_time\000"
 4894      696D6500 
 4895              	.LASF55:
 4896 0262 76745F66 		.ascii	"vt_func\000"
 4896      756E6300 
 4897              	.LASF86:
 4898 026a 63685468 		.ascii	"chThdResume\000"
 4898      64526573 
 4898      756D6500 
 4899              	.LASF76:
 4900 0276 73746172 		.ascii	"startp\000"
 4900      747000
 4901              	.LASF29:
 4902 027d 705F6F6C 		.ascii	"p_older\000"
 4902      64657200 
 4903              	.LASF61:
 4904 0285 725F6374 		.ascii	"r_ctx\000"
 4904      7800
 4905              	.LASF44:
 4906 028b 54687265 		.ascii	"ThreadsQueue\000"
 4906      61647351 
 4906      75657565 
 4906      00
 4907              	.LASF89:
 4908 0298 74696D65 		.ascii	"time\000"
 4908      00
 4909              	.LASF102:
 4910 029d 6C697374 		.ascii	"list_insert\000"
 4910      5F696E73 
 4910      65727400 
 4911              	.LASF64:
 4912 02a9 725F6375 		.ascii	"r_current\000"
 4912      7272656E 
 4912      7400
 4913              	.LASF63:
 4914 02b3 725F6F6C 		.ascii	"r_older\000"
 4914      64657200 
 4915              	.LASF90:
 4916 02bb 63685468 		.ascii	"chThdSleepUntil\000"
 4916      64536C65 
 4916      6570556E 
ARM GAS  /tmp/ccDJhnOM.s 			page 90


 4916      74696C00 
 4917              	.LASF17:
 4918 02cb 74726566 		.ascii	"trefs_t\000"
 4918      735F7400 
 4919              	.LASF25:
 4920 02d3 705F7072 		.ascii	"p_prev\000"
 4920      657600
 4921              	.LASF19:
 4922 02da 74707269 		.ascii	"tprio_t\000"
 4922      6F5F7400 
 4923              	.LASF14:
 4924 02e2 5F426F6F 		.ascii	"_Bool\000"
 4924      6C00
 4925              	.LASF7:
 4926 02e8 696E7433 		.ascii	"int32_t\000"
 4926      325F7400 
 4927              	.LASF4:
 4928 02f0 756E7369 		.ascii	"unsigned char\000"
 4928      676E6564 
 4928      20636861 
 4928      7200
 4929              	.LASF41:
 4930 02fe 705F6D74 		.ascii	"p_mtxlist\000"
 4930      786C6973 
 4930      7400
 4931              	.LASF5:
 4932 0308 73686F72 		.ascii	"short int\000"
 4932      7420696E 
 4932      7400
 4933              	.LASF32:
 4934 0312 705F7374 		.ascii	"p_state\000"
 4934      61746500 
 4935              	.LASF35:
 4936 031a 705F7072 		.ascii	"p_preempt\000"
 4936      65656D70 
 4936      7400
 4937              	.LASF60:
 4938 0324 725F7072 		.ascii	"r_prio\000"
 4938      696F00
 4939              	.LASF73:
 4940 032b 65776D61 		.ascii	"ewmask\000"
 4940      736B00
 4941              	.LASF24:
 4942 0332 705F6E65 		.ascii	"p_next\000"
 4942      787400
 4943              	.LASF33:
 4944 0339 705F666C 		.ascii	"p_flags\000"
 4944      61677300 
 4945              	.LASF92:
 4946 0341 5F746872 		.ascii	"_thread_memfill\000"
 4946      6561645F 
 4946      6D656D66 
 4946      696C6C00 
 4947              	.LASF23:
 4948 0351 54687265 		.ascii	"Thread\000"
 4948      616400
 4949              	.LASF40:
ARM GAS  /tmp/ccDJhnOM.s 			page 91


 4950 0358 705F6570 		.ascii	"p_epending\000"
 4950      656E6469 
 4950      6E6700
 4951              	.LASF9:
 4952 0363 75696E74 		.ascii	"uint32_t\000"
 4952      33325F74 
 4952      00
 4953              	.LASF79:
 4954 036c 5F746872 		.ascii	"_thread_init\000"
 4954      6561645F 
 4954      696E6974 
 4954      00
 4955              	.LASF59:
 4956 0379 725F7175 		.ascii	"r_queue\000"
 4956      65756500 
 4957              	.LASF51:
 4958 0381 56697274 		.ascii	"VirtualTimer\000"
 4958      75616C54 
 4958      696D6572 
 4958      00
 4959              	.LASF74:
 4960 038e 63686172 		.ascii	"char\000"
 4960      00
 4961              	.LASF69:
 4962 0393 6D5F6E65 		.ascii	"m_next\000"
 4962      787400
 4963              	.LASF22:
 4964 039a 73797374 		.ascii	"systime_t\000"
 4964      696D655F 
 4964      7400
 4965              	.LASF42:
 4966 03a4 705F7265 		.ascii	"p_realprio\000"
 4966      616C7072 
 4966      696F00
 4967              	.LASF50:
 4968 03af 76746675 		.ascii	"vtfunc_t\000"
 4968      6E635F74 
 4968      00
 4969              	.LASF36:
 4970 03b8 705F7469 		.ascii	"p_time\000"
 4970      6D6500
 4971              	.LASF48:
 4972 03bf 696E7463 		.ascii	"intctx\000"
 4972      747800
 4973              	.LASF38:
 4974 03c6 705F6D73 		.ascii	"p_msgqueue\000"
 4974      67717565 
 4974      756500
 4975              	.LASF77:
 4976 03d1 656E6470 		.ascii	"endp\000"
 4976      00
 4977              	.LASF95:
 4978 03d6 63685468 		.ascii	"chThdWait\000"
 4978      64576169 
 4978      7400
 4979              	.LASF56:
 4980 03e0 76745F70 		.ascii	"vt_par\000"
ARM GAS  /tmp/ccDJhnOM.s 			page 92


 4980      617200
 4981              	.LASF88:
 4982 03e7 63685468 		.ascii	"chThdSleep\000"
 4982      64536C65 
 4982      657000
 4983              	.LASF34:
 4984 03f2 705F7265 		.ascii	"p_refs\000"
 4984      667300
 4985              	.LASF65:
 4986 03f9 52656164 		.ascii	"ReadyList\000"
 4986      794C6973 
 4986      7400
 4987              	.LASF97:
 4988 0403 726C6973 		.ascii	"rlist\000"
 4988      7400
 4989              	.LASF3:
 4990 0409 75696E74 		.ascii	"uint8_t\000"
 4990      385F7400 
 4991              	.LASF91:
 4992 0411 63685468 		.ascii	"chThdYield\000"
 4992      64596965 
 4992      6C6400
 4993              	.LASF72:
 4994 041c 77746F62 		.ascii	"wtobjp\000"
 4994      6A7000
 4995              	.LASF30:
 4996 0423 705F6E61 		.ascii	"p_name\000"
 4996      6D6500
 4997              	.LASF57:
 4998 042a 76745F73 		.ascii	"vt_systime\000"
 4998      79737469 
 4998      6D6500
 4999              	.LASF58:
 5000 0435 56544C69 		.ascii	"VTList\000"
 5000      737400
 5001              	.LASF68:
 5002 043c 6D5F6F77 		.ascii	"m_owner\000"
 5002      6E657200 
 5003              	.LASF27:
 5004 0444 705F6374 		.ascii	"p_ctx\000"
 5004      7800
 5005              	.LASF37:
 5006 044a 705F7761 		.ascii	"p_waiting\000"
 5006      6974696E 
 5006      6700
 5007              		.ident	"GCC: (GNU Tools for ARM Embedded Processors) 4.6.2 20120613 (release) [ARM/embedded-4_6-br
ARM GAS  /tmp/ccDJhnOM.s 			page 93


DEFINED SYMBOLS
                            *ABS*:00000000 chthreads.c
     /tmp/ccDJhnOM.s:19     .text._thread_init:00000000 $t
     /tmp/ccDJhnOM.s:25     .text._thread_init:00000000 _thread_init
     /tmp/ccDJhnOM.s:101    .text._thread_memfill:00000000 $t
     /tmp/ccDJhnOM.s:107    .text._thread_memfill:00000000 _thread_memfill
     /tmp/ccDJhnOM.s:246    .text.chThdCreateI:00000000 $t
     /tmp/ccDJhnOM.s:252    .text.chThdCreateI:00000000 chThdCreateI
     /tmp/ccDJhnOM.s:394    .text.chThdCreateI:0000008c $d
     /tmp/ccDJhnOM.s:401    .text.chThdCreateStatic:00000000 $t
     /tmp/ccDJhnOM.s:407    .text.chThdCreateStatic:00000000 chThdCreateStatic
     /tmp/ccDJhnOM.s:816    .text.chThdCreateStatic:00000264 $d
     /tmp/ccDJhnOM.s:823    .text.chThdSetPriority:00000000 $t
     /tmp/ccDJhnOM.s:829    .text.chThdSetPriority:00000000 chThdSetPriority
     /tmp/ccDJhnOM.s:908    .text.chThdSetPriority:00000040 $d
     /tmp/ccDJhnOM.s:914    .text.chThdResume:00000000 $t
     /tmp/ccDJhnOM.s:920    .text.chThdResume:00000000 chThdResume
     /tmp/ccDJhnOM.s:978    .text.chThdResume:00000034 $d
     /tmp/ccDJhnOM.s:983    .text.chThdTerminate:00000000 $t
     /tmp/ccDJhnOM.s:989    .text.chThdTerminate:00000000 chThdTerminate
     /tmp/ccDJhnOM.s:1039   .text.chThdSleep:00000000 $t
     /tmp/ccDJhnOM.s:1045   .text.chThdSleep:00000000 chThdSleep
     /tmp/ccDJhnOM.s:1098   .text.chThdSleep:0000002c $d
     /tmp/ccDJhnOM.s:1103   .text.chThdSleepUntil:00000000 $t
     /tmp/ccDJhnOM.s:1109   .text.chThdSleepUntil:00000000 chThdSleepUntil
     /tmp/ccDJhnOM.s:1166   .text.chThdSleepUntil:00000028 $d
     /tmp/ccDJhnOM.s:1171   .text.chThdYield:00000000 $t
     /tmp/ccDJhnOM.s:1177   .text.chThdYield:00000000 chThdYield
     /tmp/ccDJhnOM.s:1227   .text.chThdYield:0000002c $d
     /tmp/ccDJhnOM.s:1232   .text.chThdExit:00000000 $t
     /tmp/ccDJhnOM.s:1238   .text.chThdExit:00000000 chThdExit
     /tmp/ccDJhnOM.s:1329   .text.chThdExit:00000050 $d
     /tmp/ccDJhnOM.s:1337   .text.chThdExitS:00000000 $t
     /tmp/ccDJhnOM.s:1343   .text.chThdExitS:00000000 chThdExitS
     /tmp/ccDJhnOM.s:1415   .text.chThdExitS:00000044 $d
     /tmp/ccDJhnOM.s:1421   .text.chThdWait:00000000 $t
     /tmp/ccDJhnOM.s:1427   .text.chThdWait:00000000 chThdWait
     /tmp/ccDJhnOM.s:1539   .text.chThdWait:00000064 $d
     /tmp/ccDJhnOM.s:1547   .rodata.str1.4:00000000 $d
                     .debug_frame:00000010 $d
     /tmp/ccDJhnOM.s:400    .text.chThdCreateI:00000098 $t
     /tmp/ccDJhnOM.s:913    .text.chThdSetPriority:00000048 $t
     /tmp/ccDJhnOM.s:982    .text.chThdResume:00000038 $t
     /tmp/ccDJhnOM.s:1170   .text.chThdSleepUntil:0000002c $t
     /tmp/ccDJhnOM.s:1336   .text.chThdExit:00000058 $t
     /tmp/ccDJhnOM.s:1420   .text.chThdExitS:0000004c $t
     /tmp/ccDJhnOM.s:1546   .text.chThdWait:00000074 $t

UNDEFINED SYMBOLS
rlist
chDbgCheckClassI
chDbgPanic
_port_thread_start
dbg_check_lock
chSchWakeupS
dbg_check_unlock
chSchRescheduleS
ARM GAS  /tmp/ccDJhnOM.s 			page 94


chSchGoSleepTimeoutS
vtlist
chSchDoRescheduleBehind
chSchReadyI
chSchGoSleepS
chThdRelease
