ARM GAS  /tmp/cc9aDeQG.s 			page 1


   1              		.syntax unified
   2              		.cpu cortex-m3
   3              		.fpu softvfp
   4              		.eabi_attribute 20, 1
   5              		.eabi_attribute 21, 1
   6              		.eabi_attribute 23, 3
   7              		.eabi_attribute 24, 1
   8              		.eabi_attribute 25, 1
   9              		.eabi_attribute 26, 1
  10              		.eabi_attribute 30, 2
  11              		.eabi_attribute 34, 1
  12              		.eabi_attribute 18, 4
  13              		.thumb
  14              		.file	"chvt.c"
  15              		.text
  16              	.Ltext0:
  17              		.cfi_sections	.debug_frame
  18              		.section	.text._vt_init,"ax",%progbits
  19              		.align	2
  20              		.p2align 4,,15
  21              		.global	_vt_init
  22              		.thumb
  23              		.thumb_func
  24              		.type	_vt_init, %function
  25              	_vt_init:
  26              	.LFB7:
  27              		.file 1 "../../ChibiOS/os/kernel/src/chvt.c"
  28              		.loc 1 43 0
  29              		.cfi_startproc
  30              		@ args = 0, pretend = 0, frame = 0
  31              		@ frame_needed = 0, uses_anonymous_args = 0
  32              		@ link register save eliminated.
  33              		.loc 1 45 0
  34 0000 40F20003 		movw	r3, #:lower16:.LANCHOR0
  35 0004 C0F20003 		movt	r3, #:upper16:.LANCHOR0
  36              		.loc 1 46 0
  37 0008 4FF0FF30 		mov	r0, #-1
  38              		.loc 1 47 0
  39 000c 0022     		movs	r2, #0
  40              		.loc 1 45 0
  41 000e 5B60     		str	r3, [r3, #4]
  42 0010 1B60     		str	r3, [r3, #0]
  43              		.loc 1 46 0
  44 0012 9860     		str	r0, [r3, #8]
  45              		.loc 1 47 0
  46 0014 DA60     		str	r2, [r3, #12]
  47              		.loc 1 48 0
  48 0016 7047     		bx	lr
  49              		.cfi_endproc
  50              	.LFE7:
  51              		.size	_vt_init, .-_vt_init
  52 0018 AFF30080 		.section	.text.chVTSetI,"ax",%progbits
  52      AFF30080 
  53              		.align	2
  54              		.p2align 4,,15
  55              		.global	chVTSetI
  56              		.thumb
ARM GAS  /tmp/cc9aDeQG.s 			page 2


  57              		.thumb_func
  58              		.type	chVTSetI, %function
  59              	chVTSetI:
  60              	.LFB8:
  61              		.loc 1 69 0
  62              		.cfi_startproc
  63              		@ args = 0, pretend = 0, frame = 0
  64              		@ frame_needed = 0, uses_anonymous_args = 0
  65              	.LVL0:
  66 0000 F8B5     		push	{r3, r4, r5, r6, r7, lr}
  67              	.LCFI0:
  68              		.cfi_def_cfa_offset 24
  69              		.cfi_offset 14, -4
  70              		.cfi_offset 7, -8
  71              		.cfi_offset 6, -12
  72              		.cfi_offset 5, -16
  73              		.cfi_offset 4, -20
  74              		.cfi_offset 3, -24
  75              		.loc 1 69 0
  76 0002 0446     		mov	r4, r0
  77 0004 0D46     		mov	r5, r1
  78 0006 1646     		mov	r6, r2
  79 0008 1F46     		mov	r7, r3
  80              		.loc 1 72 0
  81 000a FFF7FEFF 		bl	chDbgCheckClassI
  82              	.LVL1:
  83              		.loc 1 73 0
  84 000e CCB1     		cbz	r4, .L3
  85              		.loc 1 73 0 is_stmt 0 discriminator 2
  86 0010 C6B1     		cbz	r6, .L3
  87              		.loc 1 73 0 discriminator 3
  88 0012 BDB1     		cbz	r5, .L3
  89              	.L4:
  90              		.loc 1 78 0 is_stmt 1
  91 0014 0D49     		ldr	r1, .L11
  92              		.loc 1 76 0
  93 0016 2761     		str	r7, [r4, #16]
  94              		.loc 1 78 0
  95 0018 0B68     		ldr	r3, [r1, #0]
  96              	.LVL2:
  97              		.loc 1 77 0
  98 001a E660     		str	r6, [r4, #12]
  99              		.loc 1 79 0
 100 001c 9A68     		ldr	r2, [r3, #8]
 101 001e 9542     		cmp	r5, r2
 102 0020 04D9     		bls	.L5
 103              	.LVL3:
 104              	.L8:
 105              		.loc 1 81 0
 106 0022 1B68     		ldr	r3, [r3, #0]
 107              	.LVL4:
 108              		.loc 1 80 0
 109 0024 AD1A     		subs	r5, r5, r2
 110              	.LVL5:
 111              		.loc 1 79 0
 112 0026 9A68     		ldr	r2, [r3, #8]
 113 0028 AA42     		cmp	r2, r5
ARM GAS  /tmp/cc9aDeQG.s 			page 3


 114 002a FAD3     		bcc	.L8
 115              	.L5:
 116              		.loc 1 84 0
 117 002c 5A68     		ldr	r2, [r3, #4]
 118              		.loc 1 87 0
 119 002e 8B42     		cmp	r3, r1
 120              		.loc 1 84 0
 121 0030 2360     		str	r3, [r4, #0]
 122 0032 6260     		str	r2, [r4, #4]
 123              		.loc 1 85 0
 124 0034 1460     		str	r4, [r2, #0]
 125 0036 5C60     		str	r4, [r3, #4]
 126              		.loc 1 86 0
 127 0038 A560     		str	r5, [r4, #8]
 128              		.loc 1 87 0
 129 003a 02D0     		beq	.L2
 130              		.loc 1 88 0
 131 003c 9868     		ldr	r0, [r3, #8]
 132 003e 451B     		subs	r5, r0, r5
 133              	.LVL6:
 134 0040 9D60     		str	r5, [r3, #8]
 135              	.L2:
 136 0042 F8BD     		pop	{r3, r4, r5, r6, r7, pc}
 137              	.LVL7:
 138              	.L3:
 139              		.loc 1 73 0 discriminator 1
 140 0044 0248     		ldr	r0, .L11+4
 141 0046 FFF7FEFF 		bl	chDbgPanic
 142 004a E3E7     		b	.L4
 143              	.L12:
 144              		.align	2
 145              	.L11:
 146 004c 00000000 		.word	.LANCHOR0
 147 0050 00000000 		.word	.LC0
 148              		.cfi_endproc
 149              	.LFE8:
 150              		.size	chVTSetI, .-chVTSetI
 151 0054 AFF30080 		.section	.text.chVTResetI,"ax",%progbits
 151      AFF30080 
 151      AFF30080 
 152              		.align	2
 153              		.p2align 4,,15
 154              		.global	chVTResetI
 155              		.thumb
 156              		.thumb_func
 157              		.type	chVTResetI, %function
 158              	chVTResetI:
 159              	.LFB9:
 160              		.loc 1 99 0
 161              		.cfi_startproc
 162              		@ args = 0, pretend = 0, frame = 0
 163              		@ frame_needed = 0, uses_anonymous_args = 0
 164              	.LVL8:
 165 0000 10B5     		push	{r4, lr}
 166              	.LCFI1:
 167              		.cfi_def_cfa_offset 8
 168              		.cfi_offset 14, -4
ARM GAS  /tmp/cc9aDeQG.s 			page 4


 169              		.cfi_offset 4, -8
 170              		.loc 1 99 0
 171 0002 0446     		mov	r4, r0
 172              		.loc 1 101 0
 173 0004 FFF7FEFF 		bl	chDbgCheckClassI
 174              	.LVL9:
 175              		.loc 1 102 0
 176 0008 84B1     		cbz	r4, .L17
 177              	.L14:
 178              		.loc 1 103 0
 179 000a E368     		ldr	r3, [r4, #12]
 180 000c 93B1     		cbz	r3, .L18
 181              	.L15:
 182              		.loc 1 107 0
 183 000e 2368     		ldr	r3, [r4, #0]
 184 0010 0A4A     		ldr	r2, .L19
 185 0012 9342     		cmp	r3, r2
 186 0014 03D0     		beq	.L16
 187              		.loc 1 108 0
 188 0016 9968     		ldr	r1, [r3, #8]
 189 0018 A268     		ldr	r2, [r4, #8]
 190 001a 8818     		adds	r0, r1, r2
 191 001c 9860     		str	r0, [r3, #8]
 192              	.L16:
 193              		.loc 1 109 0
 194 001e 6068     		ldr	r0, [r4, #4]
 195              		.loc 1 111 0
 196 0020 0022     		movs	r2, #0
 197              		.loc 1 109 0
 198 0022 0360     		str	r3, [r0, #0]
 199              		.loc 1 110 0
 200 0024 2368     		ldr	r3, [r4, #0]
 201              		.loc 1 111 0
 202 0026 E260     		str	r2, [r4, #12]
 203              		.loc 1 110 0
 204 0028 5860     		str	r0, [r3, #4]
 205              		.loc 1 112 0
 206 002a 10BD     		pop	{r4, pc}
 207              	.L17:
 208              		.loc 1 102 0 discriminator 1
 209 002c 0448     		ldr	r0, .L19+4
 210 002e FFF7FEFF 		bl	chDbgPanic
 211 0032 EAE7     		b	.L14
 212              	.L18:
 213              		.loc 1 103 0 discriminator 1
 214 0034 0348     		ldr	r0, .L19+8
 215 0036 FFF7FEFF 		bl	chDbgPanic
 216 003a E8E7     		b	.L15
 217              	.L20:
 218              		.align	2
 219              	.L19:
 220 003c 00000000 		.word	.LANCHOR0
 221 0040 10000000 		.word	.LC1
 222 0044 20000000 		.word	.LC2
 223              		.cfi_endproc
 224              	.LFE9:
 225              		.size	chVTResetI, .-chVTResetI
ARM GAS  /tmp/cc9aDeQG.s 			page 5


 226 0048 AFF30080 		.section	.text.chTimeIsWithin,"ax",%progbits
 226      AFF30080 
 227              		.align	2
 228              		.p2align 4,,15
 229              		.global	chTimeIsWithin
 230              		.thumb
 231              		.thumb_func
 232              		.type	chTimeIsWithin, %function
 233              	chTimeIsWithin:
 234              	.LFB10:
 235              		.loc 1 127 0
 236              		.cfi_startproc
 237              		@ args = 0, pretend = 0, frame = 0
 238              		@ frame_needed = 0, uses_anonymous_args = 0
 239              		@ link register save eliminated.
 240              	.LVL10:
 241              		.loc 1 129 0
 242 0000 084B     		ldr	r3, .L29
 243              		.loc 1 130 0
 244 0002 8142     		cmp	r1, r0
 245              		.loc 1 129 0
 246 0004 DB68     		ldr	r3, [r3, #12]
 247              	.LVL11:
 248              		.loc 1 130 0
 249 0006 06D9     		bls	.L22
 250              		.loc 1 130 0 is_stmt 0 discriminator 1
 251 0008 8342     		cmp	r3, r0
 252 000a 08D3     		bcc	.L26
 253              	.L28:
 254              		.loc 1 130 0
 255 000c 8B42     		cmp	r3, r1
 256 000e 2CBF     		ite	cs
 257 0010 0020     		movcs	r0, #0
 258              	.LVL12:
 259 0012 0120     		movcc	r0, #1
 260 0014 7047     		bx	lr
 261              	.LVL13:
 262              	.L22:
 263              		.loc 1 130 0 discriminator 2
 264 0016 8342     		cmp	r3, r0
 265 0018 F8D3     		bcc	.L28
 266              		.loc 1 130 0
 267 001a 0120     		movs	r0, #1
 268              	.LVL14:
 269              		.loc 1 132 0 is_stmt 1
 270 001c 7047     		bx	lr
 271              	.LVL15:
 272              	.L26:
 273              		.loc 1 130 0
 274 001e 0020     		movs	r0, #0
 275              	.LVL16:
 276 0020 7047     		bx	lr
 277              	.L30:
 278 0022 00BF     		.align	2
 279              	.L29:
 280 0024 00000000 		.word	.LANCHOR0
 281              		.cfi_endproc
ARM GAS  /tmp/cc9aDeQG.s 			page 6


 282              	.LFE10:
 283              		.size	chTimeIsWithin, .-chTimeIsWithin
 284              		.global	vtlist
 285 0028 AFF30080 		.section	.bss.vtlist,"aw",%nobits
 285      AFF30080 
 286              		.align	2
 287              		.set	.LANCHOR0,. + 0
 288              		.type	vtlist, %object
 289              		.size	vtlist, 16
 290              	vtlist:
 291 0000 00000000 		.space	16
 291      00000000 
 291      00000000 
 291      00000000 
 292              		.section	.rodata.str1.4,"aMS",%progbits,1
 293              		.align	2
 294              	.LC0:
 295 0000 22636856 		.ascii	"\"chVTSetI\"()\000"
 295      54536574 
 295      49222829 
 295      00
 296 000d 000000   		.space	3
 297              	.LC1:
 298 0010 22636856 		.ascii	"\"chVTResetI\"()\000"
 298      54526573 
 298      65744922 
 298      282900
 299 001f 00       		.space	1
 300              	.LC2:
 301 0020 63685654 		.ascii	"chVTResetI(), #1\000"
 301      52657365 
 301      74492829 
 301      2C202331 
 301      00
 302 0031 000000   		.text
 303              	.Letext0:
 304              		.file 2 "/home/tino/ChibiStudio/tools/GNU Tools ARM Embedded/4.6 2012q2/bin/../lib/gcc/arm-none-ea
 305              		.file 3 "../../ChibiOS/os/ports/GCC/ARMCMx/chtypes.h"
 306              		.file 4 "../../ChibiOS/os/kernel/include/chvt.h"