ARM GAS  /tmp/ccNHNHyl.s 			page 1


   1              		.syntax unified
   2              		.cpu cortex-m3
   3              		.fpu softvfp
   4              		.eabi_attribute 20, 1
   5              		.eabi_attribute 21, 1
   6              		.eabi_attribute 23, 3
   7              		.eabi_attribute 24, 1
   8              		.eabi_attribute 25, 1
   9              		.eabi_attribute 26, 1
  10              		.eabi_attribute 30, 2
  11              		.eabi_attribute 34, 1
  12              		.eabi_attribute 18, 4
  13              		.thumb
  14              		.file	"crt0.c"
  15              		.text
  16              	.Ltext0:
  17              		.cfi_sections	.debug_frame
  18              		.section	.text.__early_init,"ax",%progbits
  19              		.align	2
  20              		.p2align 4,,15
  21              		.weak	__early_init
  22              		.thumb
  23              		.thumb_func
  24              		.type	__early_init, %function
  25              	__early_init:
  26              	.LFB0:
  27              		.file 1 "../../ChibiOS/os/ports/GCC/ARMCMx/crt0.c"
  28              		.loc 1 227 0
  29              		.cfi_startproc
  30              		@ args = 0, pretend = 0, frame = 0
  31              		@ frame_needed = 0, uses_anonymous_args = 0
  32              		@ link register save eliminated.
  33              		.loc 1 227 0
  34 0000 7047     		bx	lr
  35              		.cfi_endproc
  36              	.LFE0:
  37              		.size	__early_init, .-__early_init
  38 0002 00BFAFF3 		.section	.text.__late_init,"ax",%progbits
  38      0080AFF3 
  38      0080AFF3 
  38      0080
  39              		.align	2
  40              		.p2align 4,,15
  41              		.weak	__late_init
  42              		.thumb
  43              		.thumb_func
  44              		.type	__late_init, %function
  45              	__late_init:
  46              	.LFB1:
  47              		.loc 1 239 0
  48              		.cfi_startproc
  49              		@ args = 0, pretend = 0, frame = 0
  50              		@ frame_needed = 0, uses_anonymous_args = 0
  51              		@ link register save eliminated.
  52              		.loc 1 239 0
  53 0000 7047     		bx	lr
  54              		.cfi_endproc
ARM GAS  /tmp/ccNHNHyl.s 			page 2


  55              	.LFE1:
  56              		.size	__late_init, .-__late_init
  57 0002 00BFAFF3 		.section	.text._default_exit,"ax",%progbits
  57      0080AFF3 
  57      0080AFF3 
  57      0080
  58              		.align	2
  59              		.p2align 4,,15
  60              		.weak	_default_exit
  61              		.thumb
  62              		.thumb_func
  63              		.type	_default_exit, %function
  64              	_default_exit:
  65              	.LFB2:
  66              		.loc 1 250 0
  67              		.cfi_startproc
  68              		@ Naked Function: prologue and epilogue provided by programmer.
  69              		@ args = 0, pretend = 0, frame = 0
  70              		@ frame_needed = 0, uses_anonymous_args = 0
  71              	.L4:
  72 0000 FEE7     		b	.L4
  73              		.cfi_endproc
  74              	.LFE2:
  75              		.size	_default_exit, .-_default_exit
  76 0002 00BFAFF3 		.section	.text.ResetHandler,"ax",%progbits
  76      0080AFF3 
  76      0080AFF3 
  76      0080
  77              		.align	2
  78              		.p2align 4,,15
  79              		.global	ResetHandler
  80              		.thumb
  81              		.thumb_func
  82              		.type	ResetHandler, %function
  83              	ResetHandler:
  84              	.LFB3:
  85              		.loc 1 261 0
  86              		.cfi_startproc
  87              		@ Naked Function: prologue and epilogue provided by programmer.
  88              		@ args = 0, pretend = 0, frame = 0
  89              		@ frame_needed = 0, uses_anonymous_args = 0
  90              		.loc 1 267 0
  91              	@ 267 "../../ChibiOS/os/ports/GCC/ARMCMx/crt0.c" 1
  92 0000 72B6     		cpsid   i
  93              	@ 0 "" 2
  94              	.LVL0:
  95              		.loc 1 269 0
  96              		.thumb
  97 0002 6348     		ldr	r0, .L55
  98              	@ 269 "../../ChibiOS/os/ports/GCC/ARMCMx/crt0.c" 1
  99 0004 80F30988 		msr     PSP, r0
 100              	@ 0 "" 2
 101              	.LVL1:
 102              		.loc 1 289 0
 103              		.thumb
 104 0008 0223     		movs	r3, #2
 105              	@ 289 "../../ChibiOS/os/ports/GCC/ARMCMx/crt0.c" 1
ARM GAS  /tmp/ccNHNHyl.s 			page 3


 106 000a 83F31488 		msr     CONTROL, r3
 107              	@ 0 "" 2
 108              		.loc 1 290 0
 109              	@ 290 "../../ChibiOS/os/ports/GCC/ARMCMx/crt0.c" 1
 110 000e BFF36F8F 		isb
 111              	@ 0 "" 2
 112              	.LVL2:
 113              		.thumb
 114              	.LBB2:
 115              		.loc 1 294 0
 116 0012 604A     		ldr	r2, .L55+4
 117 0014 604C     		ldr	r4, .L55+8
 118 0016 A242     		cmp	r2, r4
 119 0018 17D2     		bcs	.L6
 120 001a 1346     		mov	r3, r2
 121 001c 4FF05531 		mov	r1, #1431655765
 122 0020 D643     		mvns	r6, r2
 123 0022 43F8041B 		str	r1, [r3], #4
 124              	.LVL3:
 125 0026 A519     		adds	r5, r4, r6
 126 0028 A342     		cmp	r3, r4
 127 002a C5F38005 		ubfx	r5, r5, #2, #1
 128 002e 0CD2     		bcs	.L6
 129 0030 25B1     		cbz	r5, .L7
 130 0032 1960     		str	r1, [r3, #0]
 131 0034 02F10803 		add	r3, r2, #8
 132 0038 A342     		cmp	r3, r4
 133 003a 06D2     		bcs	.L6
 134              	.LVL4:
 135              	.L7:
 136              		.loc 1 294 0 is_stmt 0 discriminator 2
 137 003c 1A46     		mov	r2, r3
 138 003e 42F8041B 		str	r1, [r2], #4
 139              	.LVL5:
 140 0042 5960     		str	r1, [r3, #4]
 141 0044 131D     		adds	r3, r2, #4
 142 0046 A342     		cmp	r3, r4
 143 0048 F8D3     		bcc	.L7
 144              	.LVL6:
 145              	.L6:
 146              	.LBE2:
 147              	.LBB3:
 148              		.loc 1 297 0 is_stmt 1 discriminator 1
 149 004a 544A     		ldr	r2, .L55+12
 150 004c 8242     		cmp	r2, r0
 151 004e 17D2     		bcs	.L8
 152              		.loc 1 297 0 is_stmt 0
 153 0050 1346     		mov	r3, r2
 154 0052 4FF05531 		mov	r1, #1431655765
 155 0056 D543     		mvns	r5, r2
 156 0058 43F8041B 		str	r1, [r3], #4
 157              	.LVL7:
 158 005c 4419     		adds	r4, r0, r5
 159 005e 8342     		cmp	r3, r0
 160 0060 C4F38004 		ubfx	r4, r4, #2, #1
 161 0064 0CD2     		bcs	.L8
 162 0066 24B1     		cbz	r4, .L9
ARM GAS  /tmp/ccNHNHyl.s 			page 4


 163 0068 1960     		str	r1, [r3, #0]
 164 006a 02F10803 		add	r3, r2, #8
 165 006e 8342     		cmp	r3, r0
 166 0070 06D2     		bcs	.L8
 167              	.LVL8:
 168              	.L9:
 169              		.loc 1 297 0 discriminator 2
 170 0072 1E46     		mov	r6, r3
 171 0074 46F8041B 		str	r1, [r6], #4
 172              	.LVL9:
 173 0078 5960     		str	r1, [r3, #4]
 174 007a 331D     		adds	r3, r6, #4
 175 007c 8342     		cmp	r3, r0
 176 007e F8D3     		bcc	.L9
 177              	.LVL10:
 178              	.L8:
 179              	.LBE3:
 180              		.loc 1 303 0 is_stmt 1
 181 0080 FFF7FEFF 		bl	__early_init
 182              	.LVL11:
 183              	.LBB4:
 184              		.loc 1 312 0
 185 0084 464C     		ldr	r4, .L55+16
 186 0086 4749     		ldr	r1, .L55+20
 187 0088 A142     		cmp	r1, r4
 188 008a 22D2     		bcs	.L10
 189 008c 4648     		ldr	r0, .L55+24
 190              		.loc 1 313 0
 191 008e 0B46     		mov	r3, r1
 192 0090 0246     		mov	r2, r0
 193 0092 52F8046B 		ldr	r6, [r2], #4
 194 0096 CD43     		mvns	r5, r1
 195 0098 43F8046B 		str	r6, [r3], #4
 196              	.LVL12:
 197 009c 04EB050C 		add	ip, r4, r5
 198              		.loc 1 312 0
 199 00a0 A342     		cmp	r3, r4
 200 00a2 CCF38005 		ubfx	r5, ip, #2, #1
 201 00a6 14D2     		bcs	.L10
 202 00a8 3DB1     		cbz	r5, .L11
 203              		.loc 1 313 0
 204 00aa 1668     		ldr	r6, [r2, #0]
 205 00ac 00F10802 		add	r2, r0, #8
 206 00b0 1E60     		str	r6, [r3, #0]
 207 00b2 01F10803 		add	r3, r1, #8
 208              		.loc 1 312 0
 209 00b6 A342     		cmp	r3, r4
 210 00b8 0BD2     		bcs	.L10
 211              	.LVL13:
 212              	.L11:
 213              		.loc 1 313 0
 214 00ba 1146     		mov	r1, r2
 215 00bc 51F8046B 		ldr	r6, [r1], #4
 216 00c0 1846     		mov	r0, r3
 217 00c2 5268     		ldr	r2, [r2, #4]
 218 00c4 40F8046B 		str	r6, [r0], #4
 219              	.LVL14:
ARM GAS  /tmp/ccNHNHyl.s 			page 5


 220 00c8 5A60     		str	r2, [r3, #4]
 221 00ca 031D     		adds	r3, r0, #4
 222 00cc 0A1D     		adds	r2, r1, #4
 223              		.loc 1 312 0
 224 00ce A342     		cmp	r3, r4
 225 00d0 F3D3     		bcc	.L11
 226              	.LVL15:
 227              	.L10:
 228              	.LBE4:
 229              	.LBB5:
 230              		.loc 1 319 0 discriminator 1
 231 00d2 364A     		ldr	r2, .L55+28
 232 00d4 3648     		ldr	r0, .L55+32
 233 00d6 8242     		cmp	r2, r0
 234 00d8 17D2     		bcs	.L12
 235              		.loc 1 319 0 is_stmt 0
 236 00da 0021     		movs	r1, #0
 237 00dc 1346     		mov	r3, r2
 238 00de D443     		mvns	r4, r2
 239 00e0 43F8041B 		str	r1, [r3], #4
 240              	.LVL16:
 241 00e4 00EB040E 		add	lr, r0, r4
 242 00e8 8342     		cmp	r3, r0
 243 00ea CEF38004 		ubfx	r4, lr, #2, #1
 244 00ee 0CD2     		bcs	.L12
 245 00f0 24B1     		cbz	r4, .L13
 246 00f2 1960     		str	r1, [r3, #0]
 247 00f4 02F10803 		add	r3, r2, #8
 248 00f8 8342     		cmp	r3, r0
 249 00fa 06D2     		bcs	.L12
 250              	.LVL17:
 251              	.L13:
 252              		.loc 1 319 0 discriminator 2
 253 00fc 1D46     		mov	r5, r3
 254 00fe 45F8041B 		str	r1, [r5], #4
 255              	.LVL18:
 256 0102 5960     		str	r1, [r3, #4]
 257 0104 2B1D     		adds	r3, r5, #4
 258 0106 8342     		cmp	r3, r0
 259 0108 F8D3     		bcc	.L13
 260              	.LVL19:
 261              	.L12:
 262              	.LBE5:
 263              	.LBB6:
 264              		.loc 1 329 0 is_stmt 1
 265 010a 2A4D     		ldr	r5, .L55+36
 266 010c 2A4E     		ldr	r6, .L55+40
 267              	.LBE6:
 268              		.loc 1 323 0
 269 010e FFF7FEFF 		bl	__late_init
 270              	.LVL20:
 271              	.LBB7:
 272              		.loc 1 329 0
 273 0112 B542     		cmp	r5, r6
 274 0114 19D2     		bcs	.L14
 275              		.loc 1 330 0
 276 0116 2C46     		mov	r4, r5
ARM GAS  /tmp/ccNHNHyl.s 			page 6


 277 0118 54F8043B 		ldr	r3, [r4], #4
 278 011c E943     		mvns	r1, r5
 279 011e 7718     		adds	r7, r6, r1
 280 0120 9847     		blx	r3
 281              	.LVL21:
 282              		.loc 1 329 0
 283 0122 B442     		cmp	r4, r6
 284 0124 C7F38007 		ubfx	r7, r7, #2, #1
 285 0128 0FD2     		bcs	.L14
 286 012a 2FB1     		cbz	r7, .L15
 287              		.loc 1 330 0
 288 012c 2368     		ldr	r3, [r4, #0]
 289              		.loc 1 331 0
 290 012e 05F10804 		add	r4, r5, #8
 291              		.loc 1 330 0
 292 0132 9847     		blx	r3
 293              		.loc 1 329 0
 294 0134 B442     		cmp	r4, r6
 295 0136 08D2     		bcs	.L14
 296              	.LVL22:
 297              	.L15:
 298              		.loc 1 330 0
 299 0138 2546     		mov	r5, r4
 300 013a 55F8042B 		ldr	r2, [r5], #4
 301 013e 9047     		blx	r2
 302              	.LVL23:
 303 0140 6068     		ldr	r0, [r4, #4]
 304              		.loc 1 331 0
 305 0142 2C1D     		adds	r4, r5, #4
 306              		.loc 1 330 0
 307 0144 8047     		blx	r0
 308              		.loc 1 329 0
 309 0146 B442     		cmp	r4, r6
 310 0148 F6D3     		bcc	.L15
 311              	.LVL24:
 312              	.L14:
 313              	.LBE7:
 314              	.LBB8:
 315              		.loc 1 343 0
 316 014a 1C4D     		ldr	r5, .L55+44
 317 014c 1C4E     		ldr	r6, .L55+48
 318              	.LBE8:
 319              		.loc 1 337 0
 320 014e FFF7FEFF 		bl	main
 321              	.LVL25:
 322              	.LBB9:
 323              		.loc 1 343 0
 324 0152 B542     		cmp	r5, r6
 325 0154 1AD2     		bcs	.L16
 326              		.loc 1 344 0
 327 0156 2C46     		mov	r4, r5
 328 0158 EF43     		mvns	r7, r5
 329 015a 54F8043B 		ldr	r3, [r4], #4
 330 015e 06EB070C 		add	ip, r6, r7
 331 0162 CCF38007 		ubfx	r7, ip, #2, #1
 332 0166 9847     		blx	r3
 333              	.LVL26:
ARM GAS  /tmp/ccNHNHyl.s 			page 7


 334              		.loc 1 343 0
 335 0168 B442     		cmp	r4, r6
 336 016a 0FD2     		bcs	.L16
 337 016c 2FB1     		cbz	r7, .L17
 338              		.loc 1 344 0
 339 016e 2268     		ldr	r2, [r4, #0]
 340              		.loc 1 345 0
 341 0170 05F10804 		add	r4, r5, #8
 342              		.loc 1 344 0
 343 0174 9047     		blx	r2
 344              		.loc 1 343 0
 345 0176 B442     		cmp	r4, r6
 346 0178 08D2     		bcs	.L16
 347              	.LVL27:
 348              	.L17:
 349              		.loc 1 344 0
 350 017a 2546     		mov	r5, r4
 351 017c 55F8040B 		ldr	r0, [r5], #4
 352 0180 8047     		blx	r0
 353              	.LVL28:
 354 0182 6168     		ldr	r1, [r4, #4]
 355              		.loc 1 345 0
 356 0184 2C1D     		adds	r4, r5, #4
 357              		.loc 1 344 0
 358 0186 8847     		blx	r1
 359              		.loc 1 343 0
 360 0188 B442     		cmp	r4, r6
 361 018a F6D3     		bcc	.L17
 362              	.LVL29:
 363              	.L16:
 364              	.LBE9:
 365              		.loc 1 351 0
 366 018c FFF7FEFF 		bl	_default_exit
 367              		.loc 1 352 0
 368              	.L56:
 369              		.align	2
 370              	.L55:
 371 0190 00000000 		.word	__process_stack_end__
 372 0194 00000000 		.word	__main_stack_base__
 373 0198 00000000 		.word	__main_stack_end__
 374 019c 00000000 		.word	__process_stack_base__
 375 01a0 00000000 		.word	_edata
 376 01a4 00000000 		.word	_data
 377 01a8 00000000 		.word	_textdata
 378 01ac 00000000 		.word	_bss_start
 379 01b0 00000000 		.word	_bss_end
 380 01b4 00000000 		.word	__init_array_start
 381 01b8 00000000 		.word	__init_array_end
 382 01bc 00000000 		.word	__fini_array_start
 383 01c0 00000000 		.word	__fini_array_end
 384              		.cfi_endproc
 385              	.LFE3:
 386              		.size	ResetHandler, .-ResetHandler
 387 01c4 AFF30080 		.text
 387      AFF30080 
 387      AFF30080 
 388              	.Letext0:
ARM GAS  /tmp/ccNHNHyl.s 			page 8


 389              		.file 2 "/home/tino/ChibiStudio/tools/GNU Tools ARM Embedded/4.6 2012q2/bin/../lib/gcc/arm-none-ea