ARM GAS  /tmp/ccNHNHyl.s 			page 1


   1              		.syntax unified
   2              		.cpu cortex-m3
   3              		.fpu softvfp
   4              		.eabi_attribute 20, 1
   5              		.eabi_attribute 21, 1
   6              		.eabi_attribute 23, 3
   7              		.eabi_attribute 24, 1
   8              		.eabi_attribute 25, 1
   9              		.eabi_attribute 26, 1
  10              		.eabi_attribute 30, 2
  11              		.eabi_attribute 34, 1
  12              		.eabi_attribute 18, 4
  13              		.thumb
  14              		.file	"crt0.c"
  15              		.text
  16              	.Ltext0:
  17              		.cfi_sections	.debug_frame
  18              		.section	.text.__early_init,"ax",%progbits
  19              		.align	2
  20              		.p2align 4,,15
  21              		.weak	__early_init
  22              		.thumb
  23              		.thumb_func
  24              		.type	__early_init, %function
  25              	__early_init:
  26              	.LFB0:
  27              		.file 1 "../../ChibiOS/os/ports/GCC/ARMCMx/crt0.c"
  28              		.loc 1 227 0
  29              		.cfi_startproc
  30              		@ args = 0, pretend = 0, frame = 0
  31              		@ frame_needed = 0, uses_anonymous_args = 0
  32              		@ link register save eliminated.
  33              		.loc 1 227 0
  34 0000 7047     		bx	lr
  35              		.cfi_endproc
  36              	.LFE0:
  37              		.size	__early_init, .-__early_init
  38 0002 00BFAFF3 		.section	.text.__late_init,"ax",%progbits
  38      0080AFF3 
  38      0080AFF3 
  38      0080
  39              		.align	2
  40              		.p2align 4,,15
  41              		.weak	__late_init
  42              		.thumb
  43              		.thumb_func
  44              		.type	__late_init, %function
  45              	__late_init:
  46              	.LFB1:
  47              		.loc 1 239 0
  48              		.cfi_startproc
  49              		@ args = 0, pretend = 0, frame = 0
  50              		@ frame_needed = 0, uses_anonymous_args = 0
  51              		@ link register save eliminated.
  52              		.loc 1 239 0
  53 0000 7047     		bx	lr
  54              		.cfi_endproc
ARM GAS  /tmp/ccNHNHyl.s 			page 2


  55              	.LFE1:
  56              		.size	__late_init, .-__late_init
  57 0002 00BFAFF3 		.section	.text._default_exit,"ax",%progbits
  57      0080AFF3 
  57      0080AFF3 
  57      0080
  58              		.align	2
  59              		.p2align 4,,15
  60              		.weak	_default_exit
  61              		.thumb
  62              		.thumb_func
  63              		.type	_default_exit, %function
  64              	_default_exit:
  65              	.LFB2:
  66              		.loc 1 250 0
  67              		.cfi_startproc
  68              		@ Naked Function: prologue and epilogue provided by programmer.
  69              		@ args = 0, pretend = 0, frame = 0
  70              		@ frame_needed = 0, uses_anonymous_args = 0
  71              	.L4:
  72 0000 FEE7     		b	.L4
  73              		.cfi_endproc
  74              	.LFE2:
  75              		.size	_default_exit, .-_default_exit
  76 0002 00BFAFF3 		.section	.text.ResetHandler,"ax",%progbits
  76      0080AFF3 
  76      0080AFF3 
  76      0080
  77              		.align	2
  78              		.p2align 4,,15
  79              		.global	ResetHandler
  80              		.thumb
  81              		.thumb_func
  82              		.type	ResetHandler, %function
  83              	ResetHandler:
  84              	.LFB3:
  85              		.loc 1 261 0
  86              		.cfi_startproc
  87              		@ Naked Function: prologue and epilogue provided by programmer.
  88              		@ args = 0, pretend = 0, frame = 0
  89              		@ frame_needed = 0, uses_anonymous_args = 0
  90              		.loc 1 267 0
  91              	@ 267 "../../ChibiOS/os/ports/GCC/ARMCMx/crt0.c" 1
  92 0000 72B6     		cpsid   i
  93              	@ 0 "" 2
  94              	.LVL0:
  95              		.loc 1 269 0
  96              		.thumb
  97 0002 6348     		ldr	r0, .L55
  98              	@ 269 "../../ChibiOS/os/ports/GCC/ARMCMx/crt0.c" 1
  99 0004 80F30988 		msr     PSP, r0
 100              	@ 0 "" 2
 101              	.LVL1:
 102              		.loc 1 289 0
 103              		.thumb
 104 0008 0223     		movs	r3, #2
 105              	@ 289 "../../ChibiOS/os/ports/GCC/ARMCMx/crt0.c" 1
ARM GAS  /tmp/ccNHNHyl.s 			page 3


 106 000a 83F31488 		msr     CONTROL, r3
 107              	@ 0 "" 2
 108              		.loc 1 290 0
 109              	@ 290 "../../ChibiOS/os/ports/GCC/ARMCMx/crt0.c" 1
 110 000e BFF36F8F 		isb
 111              	@ 0 "" 2
 112              	.LVL2:
 113              		.thumb
 114              	.LBB2:
 115              		.loc 1 294 0
 116 0012 604A     		ldr	r2, .L55+4
 117 0014 604C     		ldr	r4, .L55+8
 118 0016 A242     		cmp	r2, r4
 119 0018 17D2     		bcs	.L6
 120 001a 1346     		mov	r3, r2
 121 001c 4FF05531 		mov	r1, #1431655765
 122 0020 D643     		mvns	r6, r2
 123 0022 43F8041B 		str	r1, [r3], #4
 124              	.LVL3:
 125 0026 A519     		adds	r5, r4, r6
 126 0028 A342     		cmp	r3, r4
 127 002a C5F38005 		ubfx	r5, r5, #2, #1
 128 002e 0CD2     		bcs	.L6
 129 0030 25B1     		cbz	r5, .L7
 130 0032 1960     		str	r1, [r3, #0]
 131 0034 02F10803 		add	r3, r2, #8
 132 0038 A342     		cmp	r3, r4
 133 003a 06D2     		bcs	.L6
 134              	.LVL4:
 135              	.L7:
 136              		.loc 1 294 0 is_stmt 0 discriminator 2
 137 003c 1A46     		mov	r2, r3
 138 003e 42F8041B 		str	r1, [r2], #4
 139              	.LVL5:
 140 0042 5960     		str	r1, [r3, #4]
 141 0044 131D     		adds	r3, r2, #4
 142 0046 A342     		cmp	r3, r4
 143 0048 F8D3     		bcc	.L7
 144              	.LVL6:
 145              	.L6:
 146              	.LBE2:
 147              	.LBB3:
 148              		.loc 1 297 0 is_stmt 1 discriminator 1
 149 004a 544A     		ldr	r2, .L55+12
 150 004c 8242     		cmp	r2, r0
 151 004e 17D2     		bcs	.L8
 152              		.loc 1 297 0 is_stmt 0
 153 0050 1346     		mov	r3, r2
 154 0052 4FF05531 		mov	r1, #1431655765
 155 0056 D543     		mvns	r5, r2
 156 0058 43F8041B 		str	r1, [r3], #4
 157              	.LVL7:
 158 005c 4419     		adds	r4, r0, r5
 159 005e 8342     		cmp	r3, r0
 160 0060 C4F38004 		ubfx	r4, r4, #2, #1
 161 0064 0CD2     		bcs	.L8
 162 0066 24B1     		cbz	r4, .L9
ARM GAS  /tmp/ccNHNHyl.s 			page 4


 163 0068 1960     		str	r1, [r3, #0]
 164 006a 02F10803 		add	r3, r2, #8
 165 006e 8342     		cmp	r3, r0
 166 0070 06D2     		bcs	.L8
 167              	.LVL8:
 168              	.L9:
 169              		.loc 1 297 0 discriminator 2
 170 0072 1E46     		mov	r6, r3
 171 0074 46F8041B 		str	r1, [r6], #4
 172              	.LVL9:
 173 0078 5960     		str	r1, [r3, #4]
 174 007a 331D     		adds	r3, r6, #4
 175 007c 8342     		cmp	r3, r0
 176 007e F8D3     		bcc	.L9
 177              	.LVL10:
 178              	.L8:
 179              	.LBE3:
 180              		.loc 1 303 0 is_stmt 1
 181 0080 FFF7FEFF 		bl	__early_init
 182              	.LVL11:
 183              	.LBB4:
 184              		.loc 1 312 0
 185 0084 464C     		ldr	r4, .L55+16
 186 0086 4749     		ldr	r1, .L55+20
 187 0088 A142     		cmp	r1, r4
 188 008a 22D2     		bcs	.L10
 189 008c 4648     		ldr	r0, .L55+24
 190              		.loc 1 313 0
 191 008e 0B46     		mov	r3, r1
 192 0090 0246     		mov	r2, r0
 193 0092 52F8046B 		ldr	r6, [r2], #4
 194 0096 CD43     		mvns	r5, r1
 195 0098 43F8046B 		str	r6, [r3], #4
 196              	.LVL12:
 197 009c 04EB050C 		add	ip, r4, r5
 198              		.loc 1 312 0
 199 00a0 A342     		cmp	r3, r4
 200 00a2 CCF38005 		ubfx	r5, ip, #2, #1
 201 00a6 14D2     		bcs	.L10
 202 00a8 3DB1     		cbz	r5, .L11
 203              		.loc 1 313 0
 204 00aa 1668     		ldr	r6, [r2, #0]
 205 00ac 00F10802 		add	r2, r0, #8
 206 00b0 1E60     		str	r6, [r3, #0]
 207 00b2 01F10803 		add	r3, r1, #8
 208              		.loc 1 312 0
 209 00b6 A342     		cmp	r3, r4
 210 00b8 0BD2     		bcs	.L10
 211              	.LVL13:
 212              	.L11:
 213              		.loc 1 313 0
 214 00ba 1146     		mov	r1, r2
 215 00bc 51F8046B 		ldr	r6, [r1], #4
 216 00c0 1846     		mov	r0, r3
 217 00c2 5268     		ldr	r2, [r2, #4]
 218 00c4 40F8046B 		str	r6, [r0], #4
 219              	.LVL14:
ARM GAS  /tmp/ccNHNHyl.s 			page 5


 220 00c8 5A60     		str	r2, [r3, #4]
 221 00ca 031D     		adds	r3, r0, #4
 222 00cc 0A1D     		adds	r2, r1, #4
 223              		.loc 1 312 0
 224 00ce A342     		cmp	r3, r4
 225 00d0 F3D3     		bcc	.L11
 226              	.LVL15:
 227              	.L10:
 228              	.LBE4:
 229              	.LBB5:
 230              		.loc 1 319 0 discriminator 1
 231 00d2 364A     		ldr	r2, .L55+28
 232 00d4 3648     		ldr	r0, .L55+32
 233 00d6 8242     		cmp	r2, r0
 234 00d8 17D2     		bcs	.L12
 235              		.loc 1 319 0 is_stmt 0
 236 00da 0021     		movs	r1, #0
 237 00dc 1346     		mov	r3, r2
 238 00de D443     		mvns	r4, r2
 239 00e0 43F8041B 		str	r1, [r3], #4
 240              	.LVL16:
 241 00e4 00EB040E 		add	lr, r0, r4
 242 00e8 8342     		cmp	r3, r0
 243 00ea CEF38004 		ubfx	r4, lr, #2, #1
 244 00ee 0CD2     		bcs	.L12
 245 00f0 24B1     		cbz	r4, .L13
 246 00f2 1960     		str	r1, [r3, #0]
 247 00f4 02F10803 		add	r3, r2, #8
 248 00f8 8342     		cmp	r3, r0
 249 00fa 06D2     		bcs	.L12
 250              	.LVL17:
 251              	.L13:
 252              		.loc 1 319 0 discriminator 2
 253 00fc 1D46     		mov	r5, r3
 254 00fe 45F8041B 		str	r1, [r5], #4
 255              	.LVL18:
 256 0102 5960     		str	r1, [r3, #4]
 257 0104 2B1D     		adds	r3, r5, #4
 258 0106 8342     		cmp	r3, r0
 259 0108 F8D3     		bcc	.L13
 260              	.LVL19:
 261              	.L12:
 262              	.LBE5:
 263              	.LBB6:
 264              		.loc 1 329 0 is_stmt 1
 265 010a 2A4D     		ldr	r5, .L55+36
 266 010c 2A4E     		ldr	r6, .L55+40
 267              	.LBE6:
 268              		.loc 1 323 0
 269 010e FFF7FEFF 		bl	__late_init
 270              	.LVL20:
 271              	.LBB7:
 272              		.loc 1 329 0
 273 0112 B542     		cmp	r5, r6
 274 0114 19D2     		bcs	.L14
 275              		.loc 1 330 0
 276 0116 2C46     		mov	r4, r5
ARM GAS  /tmp/ccNHNHyl.s 			page 6


 277 0118 54F8043B 		ldr	r3, [r4], #4
 278 011c E943     		mvns	r1, r5
 279 011e 7718     		adds	r7, r6, r1
 280 0120 9847     		blx	r3
 281              	.LVL21:
 282              		.loc 1 329 0
 283 0122 B442     		cmp	r4, r6
 284 0124 C7F38007 		ubfx	r7, r7, #2, #1
 285 0128 0FD2     		bcs	.L14
 286 012a 2FB1     		cbz	r7, .L15
 287              		.loc 1 330 0
 288 012c 2368     		ldr	r3, [r4, #0]
 289              		.loc 1 331 0
 290 012e 05F10804 		add	r4, r5, #8
 291              		.loc 1 330 0
 292 0132 9847     		blx	r3
 293              		.loc 1 329 0
 294 0134 B442     		cmp	r4, r6
 295 0136 08D2     		bcs	.L14
 296              	.LVL22:
 297              	.L15:
 298              		.loc 1 330 0
 299 0138 2546     		mov	r5, r4
 300 013a 55F8042B 		ldr	r2, [r5], #4
 301 013e 9047     		blx	r2
 302              	.LVL23:
 303 0140 6068     		ldr	r0, [r4, #4]
 304              		.loc 1 331 0
 305 0142 2C1D     		adds	r4, r5, #4
 306              		.loc 1 330 0
 307 0144 8047     		blx	r0
 308              		.loc 1 329 0
 309 0146 B442     		cmp	r4, r6
 310 0148 F6D3     		bcc	.L15
 311              	.LVL24:
 312              	.L14:
 313              	.LBE7:
 314              	.LBB8:
 315              		.loc 1 343 0
 316 014a 1C4D     		ldr	r5, .L55+44
 317 014c 1C4E     		ldr	r6, .L55+48
 318              	.LBE8:
 319              		.loc 1 337 0
 320 014e FFF7FEFF 		bl	main
 321              	.LVL25:
 322              	.LBB9:
 323              		.loc 1 343 0
 324 0152 B542     		cmp	r5, r6
 325 0154 1AD2     		bcs	.L16
 326              		.loc 1 344 0
 327 0156 2C46     		mov	r4, r5
 328 0158 EF43     		mvns	r7, r5
 329 015a 54F8043B 		ldr	r3, [r4], #4
 330 015e 06EB070C 		add	ip, r6, r7
 331 0162 CCF38007 		ubfx	r7, ip, #2, #1
 332 0166 9847     		blx	r3
 333              	.LVL26:
ARM GAS  /tmp/ccNHNHyl.s 			page 7


 334              		.loc 1 343 0
 335 0168 B442     		cmp	r4, r6
 336 016a 0FD2     		bcs	.L16
 337 016c 2FB1     		cbz	r7, .L17
 338              		.loc 1 344 0
 339 016e 2268     		ldr	r2, [r4, #0]
 340              		.loc 1 345 0
 341 0170 05F10804 		add	r4, r5, #8
 342              		.loc 1 344 0
 343 0174 9047     		blx	r2
 344              		.loc 1 343 0
 345 0176 B442     		cmp	r4, r6
 346 0178 08D2     		bcs	.L16
 347              	.LVL27:
 348              	.L17:
 349              		.loc 1 344 0
 350 017a 2546     		mov	r5, r4
 351 017c 55F8040B 		ldr	r0, [r5], #4
 352 0180 8047     		blx	r0
 353              	.LVL28:
 354 0182 6168     		ldr	r1, [r4, #4]
 355              		.loc 1 345 0
 356 0184 2C1D     		adds	r4, r5, #4
 357              		.loc 1 344 0
 358 0186 8847     		blx	r1
 359              		.loc 1 343 0
 360 0188 B442     		cmp	r4, r6
 361 018a F6D3     		bcc	.L17
 362              	.LVL29:
 363              	.L16:
 364              	.LBE9:
 365              		.loc 1 351 0
 366 018c FFF7FEFF 		bl	_default_exit
 367              		.loc 1 352 0
 368              	.L56:
 369              		.align	2
 370              	.L55:
 371 0190 00000000 		.word	__process_stack_end__
 372 0194 00000000 		.word	__main_stack_base__
 373 0198 00000000 		.word	__main_stack_end__
 374 019c 00000000 		.word	__process_stack_base__
 375 01a0 00000000 		.word	_edata
 376 01a4 00000000 		.word	_data
 377 01a8 00000000 		.word	_textdata
 378 01ac 00000000 		.word	_bss_start
 379 01b0 00000000 		.word	_bss_end
 380 01b4 00000000 		.word	__init_array_start
 381 01b8 00000000 		.word	__init_array_end
 382 01bc 00000000 		.word	__fini_array_start
 383 01c0 00000000 		.word	__fini_array_end
 384              		.cfi_endproc
 385              	.LFE3:
 386              		.size	ResetHandler, .-ResetHandler
 387 01c4 AFF30080 		.text
 387      AFF30080 
 387      AFF30080 
 388              	.Letext0:
ARM GAS  /tmp/ccNHNHyl.s 			page 8


 389              		.file 2 "/home/tino/ChibiStudio/tools/GNU Tools ARM Embedded/4.6 2012q2/bin/../lib/gcc/arm-none-ea
 390              		.section	.debug_info,"",%progbits
 391              	.Ldebug_info0:
 392 0000 3D030000 		.4byte	0x33d
 393 0004 0200     		.2byte	0x2
 394 0006 00000000 		.4byte	.Ldebug_abbrev0
 395 000a 04       		.byte	0x4
 396 000b 01       		.uleb128 0x1
 397 000c 83000000 		.4byte	.LASF29
 398 0010 01       		.byte	0x1
 399 0011 23000000 		.4byte	.LASF30
 400 0015 68010000 		.4byte	.LASF31
 401 0019 00000000 		.4byte	0
 402 001d 00000000 		.4byte	0
 403 0021 30000000 		.4byte	.Ldebug_ranges0+0x30
 404 0025 00000000 		.4byte	.Ldebug_line0
 405 0029 02       		.uleb128 0x2
 406 002a 01       		.byte	0x1
 407 002b 06       		.byte	0x6
 408 002c FC010000 		.4byte	.LASF0
 409 0030 03       		.uleb128 0x3
 410 0031 60010000 		.4byte	.LASF5
 411 0035 02       		.byte	0x2
 412 0036 2A       		.byte	0x2a
 413 0037 3B000000 		.4byte	0x3b
 414 003b 02       		.uleb128 0x2
 415 003c 01       		.byte	0x1
 416 003d 08       		.byte	0x8
 417 003e 2E010000 		.4byte	.LASF1
 418 0042 02       		.uleb128 0x2
 419 0043 02       		.byte	0x2
 420 0044 05       		.byte	0x5
 421 0045 D2010000 		.4byte	.LASF2
 422 0049 02       		.uleb128 0x2
 423 004a 02       		.byte	0x2
 424 004b 07       		.byte	0x7
 425 004c F7000000 		.4byte	.LASF3
 426 0050 02       		.uleb128 0x2
 427 0051 04       		.byte	0x4
 428 0052 05       		.byte	0x5
 429 0053 ED010000 		.4byte	.LASF4
 430 0057 03       		.uleb128 0x3
 431 0058 E4010000 		.4byte	.LASF6
 432 005c 02       		.byte	0x2
 433 005d 50       		.byte	0x50
 434 005e 62000000 		.4byte	0x62
 435 0062 02       		.uleb128 0x2
 436 0063 04       		.byte	0x4
 437 0064 07       		.byte	0x7
 438 0065 D8000000 		.4byte	.LASF7
 439 0069 02       		.uleb128 0x2
 440 006a 08       		.byte	0x8
 441 006b 05       		.byte	0x5
 442 006c B0010000 		.4byte	.LASF8
 443 0070 02       		.uleb128 0x2
 444 0071 08       		.byte	0x8
 445 0072 07       		.byte	0x7
ARM GAS  /tmp/ccNHNHyl.s 			page 9


 446 0073 49010000 		.4byte	.LASF9
 447 0077 04       		.uleb128 0x4
 448 0078 04       		.byte	0x4
 449 0079 05       		.byte	0x5
 450 007a 696E7400 		.ascii	"int\000"
 451 007e 02       		.uleb128 0x2
 452 007f 04       		.byte	0x4
 453 0080 07       		.byte	0x7
 454 0081 3C010000 		.4byte	.LASF10
 455 0085 03       		.uleb128 0x3
 456 0086 DC010000 		.4byte	.LASF11
 457 008a 01       		.byte	0x1
 458 008b 2D       		.byte	0x2d
 459 008c 90000000 		.4byte	0x90
 460 0090 05       		.uleb128 0x5
 461 0091 04       		.byte	0x4
 462 0092 96000000 		.4byte	0x96
 463 0096 06       		.uleb128 0x6
 464 0097 01       		.byte	0x1
 465 0098 03       		.uleb128 0x3
 466 0099 63000000 		.4byte	.LASF12
 467 009d 01       		.byte	0x1
 468 009e 2E       		.byte	0x2e
 469 009f A3000000 		.4byte	0xa3
 470 00a3 05       		.uleb128 0x5
 471 00a4 04       		.byte	0x4
 472 00a5 85000000 		.4byte	0x85
 473 00a9 07       		.uleb128 0x7
 474 00aa 01       		.byte	0x1
 475 00ab A3010000 		.4byte	.LASF13
 476 00af 01       		.byte	0x1
 477 00b0 E3       		.byte	0xe3
 478 00b1 01       		.byte	0x1
 479 00b2 00000000 		.4byte	.LFB0
 480 00b6 02000000 		.4byte	.LFE0
 481 00ba 02       		.byte	0x2
 482 00bb 7D       		.byte	0x7d
 483 00bc 00       		.sleb128 0
 484 00bd 07       		.uleb128 0x7
 485 00be 01       		.byte	0x1
 486 00bf CC000000 		.4byte	.LASF14
 487 00c3 01       		.byte	0x1
 488 00c4 EF       		.byte	0xef
 489 00c5 01       		.byte	0x1
 490 00c6 00000000 		.4byte	.LFB1
 491 00ca 02000000 		.4byte	.LFE1
 492 00ce 02       		.byte	0x2
 493 00cf 7D       		.byte	0x7d
 494 00d0 00       		.sleb128 0
 495 00d1 07       		.uleb128 0x7
 496 00d2 01       		.byte	0x1
 497 00d3 6C000000 		.4byte	.LASF15
 498 00d7 01       		.byte	0x1
 499 00d8 FA       		.byte	0xfa
 500 00d9 01       		.byte	0x1
 501 00da 00000000 		.4byte	.LFB2
 502 00de 02000000 		.4byte	.LFE2
ARM GAS  /tmp/ccNHNHyl.s 			page 10


 503 00e2 02       		.byte	0x2
 504 00e3 7D       		.byte	0x7d
 505 00e4 00       		.sleb128 0
 506 00e5 08       		.uleb128 0x8
 507 00e6 01       		.byte	0x1
 508 00e7 EA000000 		.4byte	.LASF32
 509 00eb 01       		.byte	0x1
 510 00ec 0501     		.2byte	0x105
 511 00ee 01       		.byte	0x1
 512 00ef 00000000 		.4byte	.LFB3
 513 00f3 C4010000 		.4byte	.LFE3
 514 00f7 02       		.byte	0x2
 515 00f8 7D       		.byte	0x7d
 516 00f9 00       		.sleb128 0
 517 00fa E8010000 		.4byte	0x1e8
 518 00fe 09       		.uleb128 0x9
 519 00ff 70737000 		.ascii	"psp\000"
 520 0103 01       		.byte	0x1
 521 0104 0601     		.2byte	0x106
 522 0106 57000000 		.4byte	0x57
 523 010a 0A       		.uleb128 0xa
 524 010b 72656700 		.ascii	"reg\000"
 525 010f 01       		.byte	0x1
 526 0110 0601     		.2byte	0x106
 527 0112 57000000 		.4byte	0x57
 528 0116 02       		.byte	0x2
 529 0117 0B       		.uleb128 0xb
 530 0118 12000000 		.4byte	.LBB2
 531 011c 4A000000 		.4byte	.LBE2
 532 0120 3F010000 		.4byte	0x13f
 533 0124 0C       		.uleb128 0xc
 534 0125 703100   		.ascii	"p1\000"
 535 0128 01       		.byte	0x1
 536 0129 2601     		.2byte	0x126
 537 012b E8010000 		.4byte	0x1e8
 538 012f 00000000 		.4byte	.LLST0
 539 0133 09       		.uleb128 0x9
 540 0134 703200   		.ascii	"p2\000"
 541 0137 01       		.byte	0x1
 542 0138 2601     		.2byte	0x126
 543 013a E8010000 		.4byte	0x1e8
 544 013e 00       		.byte	0
 545 013f 0B       		.uleb128 0xb
 546 0140 4A000000 		.4byte	.LBB3
 547 0144 80000000 		.4byte	.LBE3
 548 0148 67010000 		.4byte	0x167
 549 014c 0C       		.uleb128 0xc
 550 014d 703100   		.ascii	"p1\000"
 551 0150 01       		.byte	0x1
 552 0151 2901     		.2byte	0x129
 553 0153 E8010000 		.4byte	0x1e8
 554 0157 13000000 		.4byte	.LLST1
 555 015b 09       		.uleb128 0x9
 556 015c 703200   		.ascii	"p2\000"
 557 015f 01       		.byte	0x1
 558 0160 2901     		.2byte	0x129
 559 0162 E8010000 		.4byte	0x1e8
ARM GAS  /tmp/ccNHNHyl.s 			page 11


 560 0166 00       		.byte	0
 561 0167 0B       		.uleb128 0xb
 562 0168 84000000 		.4byte	.LBB4
 563 016c D2000000 		.4byte	.LBE4
 564 0170 8F010000 		.4byte	0x18f
 565 0174 09       		.uleb128 0x9
 566 0175 747000   		.ascii	"tp\000"
 567 0178 01       		.byte	0x1
 568 0179 3401     		.2byte	0x134
 569 017b E8010000 		.4byte	0x1e8
 570 017f 0C       		.uleb128 0xc
 571 0180 647000   		.ascii	"dp\000"
 572 0183 01       		.byte	0x1
 573 0184 3401     		.2byte	0x134
 574 0186 E8010000 		.4byte	0x1e8
 575 018a 31000000 		.4byte	.LLST2
 576 018e 00       		.byte	0
 577 018f 0B       		.uleb128 0xb
 578 0190 D2000000 		.4byte	.LBB5
 579 0194 0A010000 		.4byte	.LBE5
 580 0198 B7010000 		.4byte	0x1b7
 581 019c 0C       		.uleb128 0xc
 582 019d 703100   		.ascii	"p1\000"
 583 01a0 01       		.byte	0x1
 584 01a1 3F01     		.2byte	0x13f
 585 01a3 E8010000 		.4byte	0x1e8
 586 01a7 44000000 		.4byte	.LLST3
 587 01ab 09       		.uleb128 0x9
 588 01ac 703200   		.ascii	"p2\000"
 589 01af 01       		.byte	0x1
 590 01b0 3F01     		.2byte	0x13f
 591 01b2 E8010000 		.4byte	0x1e8
 592 01b6 00       		.byte	0
 593 01b7 0D       		.uleb128 0xd
 594 01b8 00000000 		.4byte	.Ldebug_ranges0+0
 595 01bc D1010000 		.4byte	0x1d1
 596 01c0 0C       		.uleb128 0xc
 597 01c1 66707000 		.ascii	"fpp\000"
 598 01c5 01       		.byte	0x1
 599 01c6 4801     		.2byte	0x148
 600 01c8 98000000 		.4byte	0x98
 601 01cc 62000000 		.4byte	.LLST4
 602 01d0 00       		.byte	0
 603 01d1 0E       		.uleb128 0xe
 604 01d2 18000000 		.4byte	.Ldebug_ranges0+0x18
 605 01d6 0C       		.uleb128 0xc
 606 01d7 66707000 		.ascii	"fpp\000"
 607 01db 01       		.byte	0x1
 608 01dc 5601     		.2byte	0x156
 609 01de 98000000 		.4byte	0x98
 610 01e2 75000000 		.4byte	.LLST5
 611 01e6 00       		.byte	0
 612 01e7 00       		.byte	0
 613 01e8 05       		.uleb128 0x5
 614 01e9 04       		.byte	0x4
 615 01ea 57000000 		.4byte	0x57
 616 01ee 0F       		.uleb128 0xf
ARM GAS  /tmp/ccNHNHyl.s 			page 12


 617 01ef BE010000 		.4byte	.LASF16
 618 01f3 01       		.byte	0x1
 619 01f4 84       		.byte	0x84
 620 01f5 57000000 		.4byte	0x57
 621 01f9 01       		.byte	0x1
 622 01fa 01       		.byte	0x1
 623 01fb 0F       		.uleb128 0xf
 624 01fc 31020000 		.4byte	.LASF17
 625 0200 01       		.byte	0x1
 626 0201 8C       		.byte	0x8c
 627 0202 57000000 		.4byte	0x57
 628 0206 01       		.byte	0x1
 629 0207 01       		.byte	0x1
 630 0208 0F       		.uleb128 0xf
 631 0209 4C000000 		.4byte	.LASF18
 632 020d 01       		.byte	0x1
 633 020e 93       		.byte	0x93
 634 020f 57000000 		.4byte	0x57
 635 0213 01       		.byte	0x1
 636 0214 01       		.byte	0x1
 637 0215 0F       		.uleb128 0xf
 638 0216 08020000 		.4byte	.LASF19
 639 021a 01       		.byte	0x1
 640 021b 9A       		.byte	0x9a
 641 021c 57000000 		.4byte	0x57
 642 0220 01       		.byte	0x1
 643 0221 01       		.byte	0x1
 644 0222 0F       		.uleb128 0xf
 645 0223 99010000 		.4byte	.LASF20
 646 0227 01       		.byte	0x1
 647 0228 A0       		.byte	0xa0
 648 0229 57000000 		.4byte	0x57
 649 022d 01       		.byte	0x1
 650 022e 01       		.byte	0x1
 651 022f 0F       		.uleb128 0xf
 652 0230 F6010000 		.4byte	.LASF21
 653 0234 01       		.byte	0x1
 654 0235 A6       		.byte	0xa6
 655 0236 57000000 		.4byte	0x57
 656 023a 01       		.byte	0x1
 657 023b 01       		.byte	0x1
 658 023c 0F       		.uleb128 0xf
 659 023d 0B000000 		.4byte	.LASF22
 660 0241 01       		.byte	0x1
 661 0242 AC       		.byte	0xac
 662 0243 57000000 		.4byte	0x57
 663 0247 01       		.byte	0x1
 664 0248 01       		.byte	0x1
 665 0249 0F       		.uleb128 0xf
 666 024a 00000000 		.4byte	.LASF23
 667 024e 01       		.byte	0x1
 668 024f B2       		.byte	0xb2
 669 0250 57000000 		.4byte	0x57
 670 0254 01       		.byte	0x1
 671 0255 01       		.byte	0x1
 672 0256 0F       		.uleb128 0xf
 673 0257 7A000000 		.4byte	.LASF24
ARM GAS  /tmp/ccNHNHyl.s 			page 13


 674 025b 01       		.byte	0x1
 675 025c B8       		.byte	0xb8
 676 025d 57000000 		.4byte	0x57
 677 0261 01       		.byte	0x1
 678 0262 01       		.byte	0x1
 679 0263 0F       		.uleb128 0xf
 680 0264 1E020000 		.4byte	.LASF25
 681 0268 01       		.byte	0x1
 682 0269 BE       		.byte	0xbe
 683 026a 85000000 		.4byte	0x85
 684 026e 01       		.byte	0x1
 685 026f 01       		.byte	0x1
 686 0270 0F       		.uleb128 0xf
 687 0271 1D010000 		.4byte	.LASF26
 688 0275 01       		.byte	0x1
 689 0276 C4       		.byte	0xc4
 690 0277 85000000 		.4byte	0x85
 691 027b 01       		.byte	0x1
 692 027c 01       		.byte	0x1
 693 027d 0F       		.uleb128 0xf
 694 027e 0A010000 		.4byte	.LASF27
 695 0282 01       		.byte	0x1
 696 0283 CA       		.byte	0xca
 697 0284 85000000 		.4byte	0x85
 698 0288 01       		.byte	0x1
 699 0289 01       		.byte	0x1
 700 028a 0F       		.uleb128 0xf
 701 028b 12000000 		.4byte	.LASF28
 702 028f 01       		.byte	0x1
 703 0290 D0       		.byte	0xd0
 704 0291 85000000 		.4byte	0x85
 705 0295 01       		.byte	0x1
 706 0296 01       		.byte	0x1
 707 0297 0F       		.uleb128 0xf
 708 0298 BE010000 		.4byte	.LASF16
 709 029c 01       		.byte	0x1
 710 029d 84       		.byte	0x84
 711 029e 57000000 		.4byte	0x57
 712 02a2 01       		.byte	0x1
 713 02a3 01       		.byte	0x1
 714 02a4 0F       		.uleb128 0xf
 715 02a5 31020000 		.4byte	.LASF17
 716 02a9 01       		.byte	0x1
 717 02aa 8C       		.byte	0x8c
 718 02ab 57000000 		.4byte	0x57
 719 02af 01       		.byte	0x1
 720 02b0 01       		.byte	0x1
 721 02b1 0F       		.uleb128 0xf
 722 02b2 4C000000 		.4byte	.LASF18
 723 02b6 01       		.byte	0x1
 724 02b7 93       		.byte	0x93
 725 02b8 57000000 		.4byte	0x57
 726 02bc 01       		.byte	0x1
 727 02bd 01       		.byte	0x1
 728 02be 0F       		.uleb128 0xf
 729 02bf 08020000 		.4byte	.LASF19
 730 02c3 01       		.byte	0x1
ARM GAS  /tmp/ccNHNHyl.s 			page 14


 731 02c4 9A       		.byte	0x9a
 732 02c5 57000000 		.4byte	0x57
 733 02c9 01       		.byte	0x1
 734 02ca 01       		.byte	0x1
 735 02cb 0F       		.uleb128 0xf
 736 02cc 99010000 		.4byte	.LASF20
 737 02d0 01       		.byte	0x1
 738 02d1 A0       		.byte	0xa0
 739 02d2 57000000 		.4byte	0x57
 740 02d6 01       		.byte	0x1
 741 02d7 01       		.byte	0x1
 742 02d8 0F       		.uleb128 0xf
 743 02d9 F6010000 		.4byte	.LASF21
 744 02dd 01       		.byte	0x1
 745 02de A6       		.byte	0xa6
 746 02df 57000000 		.4byte	0x57
 747 02e3 01       		.byte	0x1
 748 02e4 01       		.byte	0x1
 749 02e5 0F       		.uleb128 0xf
 750 02e6 0B000000 		.4byte	.LASF22
 751 02ea 01       		.byte	0x1
 752 02eb AC       		.byte	0xac
 753 02ec 57000000 		.4byte	0x57
 754 02f0 01       		.byte	0x1
 755 02f1 01       		.byte	0x1
 756 02f2 0F       		.uleb128 0xf
 757 02f3 00000000 		.4byte	.LASF23
 758 02f7 01       		.byte	0x1
 759 02f8 B2       		.byte	0xb2
 760 02f9 57000000 		.4byte	0x57
 761 02fd 01       		.byte	0x1
 762 02fe 01       		.byte	0x1
 763 02ff 0F       		.uleb128 0xf
 764 0300 7A000000 		.4byte	.LASF24
 765 0304 01       		.byte	0x1
 766 0305 B8       		.byte	0xb8
 767 0306 57000000 		.4byte	0x57
 768 030a 01       		.byte	0x1
 769 030b 01       		.byte	0x1
 770 030c 0F       		.uleb128 0xf
 771 030d 1E020000 		.4byte	.LASF25
 772 0311 01       		.byte	0x1
 773 0312 BE       		.byte	0xbe
 774 0313 85000000 		.4byte	0x85
 775 0317 01       		.byte	0x1
 776 0318 01       		.byte	0x1
 777 0319 0F       		.uleb128 0xf
 778 031a 1D010000 		.4byte	.LASF26
 779 031e 01       		.byte	0x1
 780 031f C4       		.byte	0xc4
 781 0320 85000000 		.4byte	0x85
 782 0324 01       		.byte	0x1
 783 0325 01       		.byte	0x1
 784 0326 0F       		.uleb128 0xf
 785 0327 0A010000 		.4byte	.LASF27
 786 032b 01       		.byte	0x1
 787 032c CA       		.byte	0xca
ARM GAS  /tmp/ccNHNHyl.s 			page 15


 788 032d 85000000 		.4byte	0x85
 789 0331 01       		.byte	0x1
 790 0332 01       		.byte	0x1
 791 0333 0F       		.uleb128 0xf
 792 0334 12000000 		.4byte	.LASF28
 793 0338 01       		.byte	0x1
 794 0339 D0       		.byte	0xd0
 795 033a 85000000 		.4byte	0x85
 796 033e 01       		.byte	0x1
 797 033f 01       		.byte	0x1
 798 0340 00       		.byte	0
 799              		.section	.debug_abbrev,"",%progbits
 800              	.Ldebug_abbrev0:
 801 0000 01       		.uleb128 0x1
 802 0001 11       		.uleb128 0x11
 803 0002 01       		.byte	0x1
 804 0003 25       		.uleb128 0x25
 805 0004 0E       		.uleb128 0xe
 806 0005 13       		.uleb128 0x13
 807 0006 0B       		.uleb128 0xb
 808 0007 03       		.uleb128 0x3
 809 0008 0E       		.uleb128 0xe
 810 0009 1B       		.uleb128 0x1b
 811 000a 0E       		.uleb128 0xe
 812 000b 11       		.uleb128 0x11
 813 000c 01       		.uleb128 0x1
 814 000d 52       		.uleb128 0x52
 815 000e 01       		.uleb128 0x1
 816 000f 55       		.uleb128 0x55
 817 0010 06       		.uleb128 0x6
 818 0011 10       		.uleb128 0x10
 819 0012 06       		.uleb128 0x6
 820 0013 00       		.byte	0
 821 0014 00       		.byte	0
 822 0015 02       		.uleb128 0x2
 823 0016 24       		.uleb128 0x24
 824 0017 00       		.byte	0
 825 0018 0B       		.uleb128 0xb
 826 0019 0B       		.uleb128 0xb
 827 001a 3E       		.uleb128 0x3e
 828 001b 0B       		.uleb128 0xb
 829 001c 03       		.uleb128 0x3
 830 001d 0E       		.uleb128 0xe
 831 001e 00       		.byte	0
 832 001f 00       		.byte	0
 833 0020 03       		.uleb128 0x3
 834 0021 16       		.uleb128 0x16
 835 0022 00       		.byte	0
 836 0023 03       		.uleb128 0x3
 837 0024 0E       		.uleb128 0xe
 838 0025 3A       		.uleb128 0x3a
 839 0026 0B       		.uleb128 0xb
 840 0027 3B       		.uleb128 0x3b
 841 0028 0B       		.uleb128 0xb
 842 0029 49       		.uleb128 0x49
 843 002a 13       		.uleb128 0x13
 844 002b 00       		.byte	0
ARM GAS  /tmp/ccNHNHyl.s 			page 16


 845 002c 00       		.byte	0
 846 002d 04       		.uleb128 0x4
 847 002e 24       		.uleb128 0x24
 848 002f 00       		.byte	0
 849 0030 0B       		.uleb128 0xb
 850 0031 0B       		.uleb128 0xb
 851 0032 3E       		.uleb128 0x3e
 852 0033 0B       		.uleb128 0xb
 853 0034 03       		.uleb128 0x3
 854 0035 08       		.uleb128 0x8
 855 0036 00       		.byte	0
 856 0037 00       		.byte	0
 857 0038 05       		.uleb128 0x5
 858 0039 0F       		.uleb128 0xf
 859 003a 00       		.byte	0
 860 003b 0B       		.uleb128 0xb
 861 003c 0B       		.uleb128 0xb
 862 003d 49       		.uleb128 0x49
 863 003e 13       		.uleb128 0x13
 864 003f 00       		.byte	0
 865 0040 00       		.byte	0
 866 0041 06       		.uleb128 0x6
 867 0042 15       		.uleb128 0x15
 868 0043 00       		.byte	0
 869 0044 27       		.uleb128 0x27
 870 0045 0C       		.uleb128 0xc
 871 0046 00       		.byte	0
 872 0047 00       		.byte	0
 873 0048 07       		.uleb128 0x7
 874 0049 2E       		.uleb128 0x2e
 875 004a 00       		.byte	0
 876 004b 3F       		.uleb128 0x3f
 877 004c 0C       		.uleb128 0xc
 878 004d 03       		.uleb128 0x3
 879 004e 0E       		.uleb128 0xe
 880 004f 3A       		.uleb128 0x3a
 881 0050 0B       		.uleb128 0xb
 882 0051 3B       		.uleb128 0x3b
 883 0052 0B       		.uleb128 0xb
 884 0053 27       		.uleb128 0x27
 885 0054 0C       		.uleb128 0xc
 886 0055 11       		.uleb128 0x11
 887 0056 01       		.uleb128 0x1
 888 0057 12       		.uleb128 0x12
 889 0058 01       		.uleb128 0x1
 890 0059 40       		.uleb128 0x40
 891 005a 0A       		.uleb128 0xa
 892 005b 00       		.byte	0
 893 005c 00       		.byte	0
 894 005d 08       		.uleb128 0x8
 895 005e 2E       		.uleb128 0x2e
 896 005f 01       		.byte	0x1
 897 0060 3F       		.uleb128 0x3f
 898 0061 0C       		.uleb128 0xc
 899 0062 03       		.uleb128 0x3
 900 0063 0E       		.uleb128 0xe
 901 0064 3A       		.uleb128 0x3a
ARM GAS  /tmp/ccNHNHyl.s 			page 17


 902 0065 0B       		.uleb128 0xb
 903 0066 3B       		.uleb128 0x3b
 904 0067 05       		.uleb128 0x5
 905 0068 27       		.uleb128 0x27
 906 0069 0C       		.uleb128 0xc
 907 006a 11       		.uleb128 0x11
 908 006b 01       		.uleb128 0x1
 909 006c 12       		.uleb128 0x12
 910 006d 01       		.uleb128 0x1
 911 006e 40       		.uleb128 0x40
 912 006f 0A       		.uleb128 0xa
 913 0070 01       		.uleb128 0x1
 914 0071 13       		.uleb128 0x13
 915 0072 00       		.byte	0
 916 0073 00       		.byte	0
 917 0074 09       		.uleb128 0x9
 918 0075 34       		.uleb128 0x34
 919 0076 00       		.byte	0
 920 0077 03       		.uleb128 0x3
 921 0078 08       		.uleb128 0x8
 922 0079 3A       		.uleb128 0x3a
 923 007a 0B       		.uleb128 0xb
 924 007b 3B       		.uleb128 0x3b
 925 007c 05       		.uleb128 0x5
 926 007d 49       		.uleb128 0x49
 927 007e 13       		.uleb128 0x13
 928 007f 00       		.byte	0
 929 0080 00       		.byte	0
 930 0081 0A       		.uleb128 0xa
 931 0082 34       		.uleb128 0x34
 932 0083 00       		.byte	0
 933 0084 03       		.uleb128 0x3
 934 0085 08       		.uleb128 0x8
 935 0086 3A       		.uleb128 0x3a
 936 0087 0B       		.uleb128 0xb
 937 0088 3B       		.uleb128 0x3b
 938 0089 05       		.uleb128 0x5
 939 008a 49       		.uleb128 0x49
 940 008b 13       		.uleb128 0x13
 941 008c 1C       		.uleb128 0x1c
 942 008d 0B       		.uleb128 0xb
 943 008e 00       		.byte	0
 944 008f 00       		.byte	0
 945 0090 0B       		.uleb128 0xb
 946 0091 0B       		.uleb128 0xb
 947 0092 01       		.byte	0x1
 948 0093 11       		.uleb128 0x11
 949 0094 01       		.uleb128 0x1
 950 0095 12       		.uleb128 0x12
 951 0096 01       		.uleb128 0x1
 952 0097 01       		.uleb128 0x1
 953 0098 13       		.uleb128 0x13
 954 0099 00       		.byte	0
 955 009a 00       		.byte	0
 956 009b 0C       		.uleb128 0xc
 957 009c 34       		.uleb128 0x34
 958 009d 00       		.byte	0
ARM GAS  /tmp/ccNHNHyl.s 			page 18


 959 009e 03       		.uleb128 0x3
 960 009f 08       		.uleb128 0x8
 961 00a0 3A       		.uleb128 0x3a
 962 00a1 0B       		.uleb128 0xb
 963 00a2 3B       		.uleb128 0x3b
 964 00a3 05       		.uleb128 0x5
 965 00a4 49       		.uleb128 0x49
 966 00a5 13       		.uleb128 0x13
 967 00a6 02       		.uleb128 0x2
 968 00a7 06       		.uleb128 0x6
 969 00a8 00       		.byte	0
 970 00a9 00       		.byte	0
 971 00aa 0D       		.uleb128 0xd
 972 00ab 0B       		.uleb128 0xb
 973 00ac 01       		.byte	0x1
 974 00ad 55       		.uleb128 0x55
 975 00ae 06       		.uleb128 0x6
 976 00af 01       		.uleb128 0x1
 977 00b0 13       		.uleb128 0x13
 978 00b1 00       		.byte	0
 979 00b2 00       		.byte	0
 980 00b3 0E       		.uleb128 0xe
 981 00b4 0B       		.uleb128 0xb
 982 00b5 01       		.byte	0x1
 983 00b6 55       		.uleb128 0x55
 984 00b7 06       		.uleb128 0x6
 985 00b8 00       		.byte	0
 986 00b9 00       		.byte	0
 987 00ba 0F       		.uleb128 0xf
 988 00bb 34       		.uleb128 0x34
 989 00bc 00       		.byte	0
 990 00bd 03       		.uleb128 0x3
 991 00be 0E       		.uleb128 0xe
 992 00bf 3A       		.uleb128 0x3a
 993 00c0 0B       		.uleb128 0xb
 994 00c1 3B       		.uleb128 0x3b
 995 00c2 0B       		.uleb128 0xb
 996 00c3 49       		.uleb128 0x49
 997 00c4 13       		.uleb128 0x13
 998 00c5 3F       		.uleb128 0x3f
 999 00c6 0C       		.uleb128 0xc
 1000 00c7 3C       		.uleb128 0x3c
 1001 00c8 0C       		.uleb128 0xc
 1002 00c9 00       		.byte	0
 1003 00ca 00       		.byte	0
 1004 00cb 00       		.byte	0
 1005              		.section	.debug_loc,"",%progbits
 1006              	.Ldebug_loc0:
 1007              	.LLST0:
 1008 0000 26000000 		.4byte	.LVL3
 1009 0004 3C000000 		.4byte	.LVL4
 1010 0008 0100     		.2byte	0x1
 1011 000a 52       		.byte	0x52
 1012 000b 00000000 		.4byte	0
 1013 000f 00000000 		.4byte	0
 1014              	.LLST1:
 1015 0013 5C000000 		.4byte	.LVL7
ARM GAS  /tmp/ccNHNHyl.s 			page 19


 1016 0017 72000000 		.4byte	.LVL8
 1017 001b 0100     		.2byte	0x1
 1018 001d 52       		.byte	0x52
 1019 001e 78000000 		.4byte	.LVL9
 1020 0022 80000000 		.4byte	.LVL10
 1021 0026 0100     		.2byte	0x1
 1022 0028 52       		.byte	0x52
 1023 0029 00000000 		.4byte	0
 1024 002d 00000000 		.4byte	0
 1025              	.LLST2:
 1026 0031 9C000000 		.4byte	.LVL12
 1027 0035 BA000000 		.4byte	.LVL13
 1028 0039 0100     		.2byte	0x1
 1029 003b 51       		.byte	0x51
 1030 003c 00000000 		.4byte	0
 1031 0040 00000000 		.4byte	0
 1032              	.LLST3:
 1033 0044 E4000000 		.4byte	.LVL16
 1034 0048 FC000000 		.4byte	.LVL17
 1035 004c 0100     		.2byte	0x1
 1036 004e 52       		.byte	0x52
 1037 004f 02010000 		.4byte	.LVL18
 1038 0053 0A010000 		.4byte	.LVL19
 1039 0057 0100     		.2byte	0x1
 1040 0059 52       		.byte	0x52
 1041 005a 00000000 		.4byte	0
 1042 005e 00000000 		.4byte	0
 1043              	.LLST4:
 1044 0062 22010000 		.4byte	.LVL21
 1045 0066 38010000 		.4byte	.LVL22
 1046 006a 0100     		.2byte	0x1
 1047 006c 55       		.byte	0x55
 1048 006d 00000000 		.4byte	0
 1049 0071 00000000 		.4byte	0
 1050              	.LLST5:
 1051 0075 68010000 		.4byte	.LVL26
 1052 0079 7A010000 		.4byte	.LVL27
 1053 007d 0100     		.2byte	0x1
 1054 007f 55       		.byte	0x55
 1055 0080 00000000 		.4byte	0
 1056 0084 00000000 		.4byte	0
 1057              		.section	.debug_aranges,"",%progbits
 1058 0000 34000000 		.4byte	0x34
 1059 0004 0200     		.2byte	0x2
 1060 0006 00000000 		.4byte	.Ldebug_info0
 1061 000a 04       		.byte	0x4
 1062 000b 00       		.byte	0
 1063 000c 0000     		.2byte	0
 1064 000e 0000     		.2byte	0
 1065 0010 00000000 		.4byte	.LFB0
 1066 0014 02000000 		.4byte	.LFE0-.LFB0
 1067 0018 00000000 		.4byte	.LFB1
 1068 001c 02000000 		.4byte	.LFE1-.LFB1
 1069 0020 00000000 		.4byte	.LFB2
 1070 0024 02000000 		.4byte	.LFE2-.LFB2
 1071 0028 00000000 		.4byte	.LFB3
 1072 002c C4010000 		.4byte	.LFE3-.LFB3
ARM GAS  /tmp/ccNHNHyl.s 			page 20


 1073 0030 00000000 		.4byte	0
 1074 0034 00000000 		.4byte	0
 1075              		.section	.debug_ranges,"",%progbits
 1076              	.Ldebug_ranges0:
 1077 0000 0A010000 		.4byte	.LBB6
 1078 0004 0E010000 		.4byte	.LBE6
 1079 0008 12010000 		.4byte	.LBB7
 1080 000c 4A010000 		.4byte	.LBE7
 1081 0010 00000000 		.4byte	0
 1082 0014 00000000 		.4byte	0
 1083 0018 4A010000 		.4byte	.LBB8
 1084 001c 4E010000 		.4byte	.LBE8
 1085 0020 52010000 		.4byte	.LBB9
 1086 0024 8C010000 		.4byte	.LBE9
 1087 0028 00000000 		.4byte	0
 1088 002c 00000000 		.4byte	0
 1089 0030 00000000 		.4byte	.LFB0
 1090 0034 02000000 		.4byte	.LFE0
 1091 0038 00000000 		.4byte	.LFB1
 1092 003c 02000000 		.4byte	.LFE1
 1093 0040 00000000 		.4byte	.LFB2
 1094 0044 02000000 		.4byte	.LFE2
 1095 0048 00000000 		.4byte	.LFB3
 1096 004c C4010000 		.4byte	.LFE3
 1097 0050 00000000 		.4byte	0
 1098 0054 00000000 		.4byte	0
 1099              		.section	.debug_line,"",%progbits
 1100              	.Ldebug_line0:
 1101 0000 6F010000 		.section	.debug_str,"MS",%progbits,1
 1101      0200CF00 
 1101      00000201 
 1101      FB0E0D00 
 1101      01010101 
 1102              	.LASF23:
 1103 0000 5F627373 		.ascii	"_bss_start\000"
 1103      5F737461 
 1103      727400
 1104              	.LASF22:
 1105 000b 5F656461 		.ascii	"_edata\000"
 1105      746100
 1106              	.LASF28:
 1107 0012 5F5F6669 		.ascii	"__fini_array_end\000"
 1107      6E695F61 
 1107      72726179 
 1107      5F656E64 
 1107      00
 1108              	.LASF30:
 1109 0023 2E2E2F2E 		.ascii	"../../ChibiOS/os/ports/GCC/ARMCMx/crt0.c\000"
 1109      2E2F4368 
 1109      6962694F 
 1109      532F6F73 
 1109      2F706F72 
 1110              	.LASF18:
 1111 004c 5F5F7072 		.ascii	"__process_stack_base__\000"
 1111      6F636573 
 1111      735F7374 
 1111      61636B5F 
ARM GAS  /tmp/ccNHNHyl.s 			page 21


 1111      62617365 
 1112              	.LASF12:
 1113 0063 66756E63 		.ascii	"funcpp_t\000"
 1113      70705F74 
 1113      00
 1114              	.LASF15:
 1115 006c 5F646566 		.ascii	"_default_exit\000"
 1115      61756C74 
 1115      5F657869 
 1115      7400
 1116              	.LASF24:
 1117 007a 5F627373 		.ascii	"_bss_end\000"
 1117      5F656E64 
 1117      00
 1118              	.LASF29:
 1119 0083 474E5520 		.ascii	"GNU C 4.6.2 20120613 (release) [ARM/embedded-4_6-br"
 1119      4320342E 
 1119      362E3220 
 1119      32303132 
 1119      30363133 
 1120 00b6 616E6368 		.ascii	"anch revision 188521]\000"
 1120      20726576 
 1120      6973696F 
 1120      6E203138 
 1120      38353231 
 1121              	.LASF14:
 1122 00cc 5F5F6C61 		.ascii	"__late_init\000"
 1122      74655F69 
 1122      6E697400 
 1123              	.LASF7:
 1124 00d8 6C6F6E67 		.ascii	"long unsigned int\000"
 1124      20756E73 
 1124      69676E65 
 1124      6420696E 
 1124      7400
 1125              	.LASF32:
 1126 00ea 52657365 		.ascii	"ResetHandler\000"
 1126      7448616E 
 1126      646C6572 
 1126      00
 1127              	.LASF3:
 1128 00f7 73686F72 		.ascii	"short unsigned int\000"
 1128      7420756E 
 1128      7369676E 
 1128      65642069 
 1128      6E7400
 1129              	.LASF27:
 1130 010a 5F5F6669 		.ascii	"__fini_array_start\000"
 1130      6E695F61 
 1130      72726179 
 1130      5F737461 
 1130      727400
 1131              	.LASF26:
 1132 011d 5F5F696E 		.ascii	"__init_array_end\000"
 1132      69745F61 
 1132      72726179 
 1132      5F656E64 
ARM GAS  /tmp/ccNHNHyl.s 			page 22


 1132      00
 1133              	.LASF1:
 1134 012e 756E7369 		.ascii	"unsigned char\000"
 1134      676E6564 
 1134      20636861 
 1134      7200
 1135              	.LASF10:
 1136 013c 756E7369 		.ascii	"unsigned int\000"
 1136      676E6564 
 1136      20696E74 
 1136      00
 1137              	.LASF9:
 1138 0149 6C6F6E67 		.ascii	"long long unsigned int\000"
 1138      206C6F6E 
 1138      6720756E 
 1138      7369676E 
 1138      65642069 
 1139              	.LASF5:
 1140 0160 75696E74 		.ascii	"uint8_t\000"
 1140      385F7400 
 1141              	.LASF31:
 1142 0168 2F686F6D 		.ascii	"/home/tino/workspace/openrobots/R2P_IR_module/fw\000"
 1142      652F7469 
 1142      6E6F2F77 
 1142      6F726B73 
 1142      70616365 
 1143              	.LASF20:
 1144 0199 5F746578 		.ascii	"_textdata\000"
 1144      74646174 
 1144      6100
 1145              	.LASF13:
 1146 01a3 5F5F6561 		.ascii	"__early_init\000"
 1146      726C795F 
 1146      696E6974 
 1146      00
 1147              	.LASF8:
 1148 01b0 6C6F6E67 		.ascii	"long long int\000"
 1148      206C6F6E 
 1148      6720696E 
 1148      7400
 1149              	.LASF16:
 1150 01be 5F5F6D61 		.ascii	"__main_stack_base__\000"
 1150      696E5F73 
 1150      7461636B 
 1150      5F626173 
 1150      655F5F00 
 1151              	.LASF2:
 1152 01d2 73686F72 		.ascii	"short int\000"
 1152      7420696E 
 1152      7400
 1153              	.LASF11:
 1154 01dc 66756E63 		.ascii	"funcp_t\000"
 1154      705F7400 
 1155              	.LASF6:
 1156 01e4 75696E74 		.ascii	"uint32_t\000"
 1156      33325F74 
 1156      00
ARM GAS  /tmp/ccNHNHyl.s 			page 23


 1157              	.LASF4:
 1158 01ed 6C6F6E67 		.ascii	"long int\000"
 1158      20696E74 
 1158      00
 1159              	.LASF21:
 1160 01f6 5F646174 		.ascii	"_data\000"
 1160      6100
 1161              	.LASF0:
 1162 01fc 7369676E 		.ascii	"signed char\000"
 1162      65642063 
 1162      68617200 
 1163              	.LASF19:
 1164 0208 5F5F7072 		.ascii	"__process_stack_end__\000"
 1164      6F636573 
 1164      735F7374 
 1164      61636B5F 
 1164      656E645F 
 1165              	.LASF25:
 1166 021e 5F5F696E 		.ascii	"__init_array_start\000"
 1166      69745F61 
 1166      72726179 
 1166      5F737461 
 1166      727400
 1167              	.LASF17:
 1168 0231 5F5F6D61 		.ascii	"__main_stack_end__\000"
 1168      696E5F73 
 1168      7461636B 
 1168      5F656E64 
 1168      5F5F00
 1169              		.ident	"GCC: (GNU Tools for ARM Embedded Processors) 4.6.2 20120613 (release) [ARM/embedded-4_6-br
ARM GAS  /tmp/ccNHNHyl.s 			page 24


DEFINED SYMBOLS
                            *ABS*:00000000 crt0.c
     /tmp/ccNHNHyl.s:19     .text.__early_init:00000000 $t
     /tmp/ccNHNHyl.s:25     .text.__early_init:00000000 __early_init
     /tmp/ccNHNHyl.s:39     .text.__late_init:00000000 $t
     /tmp/ccNHNHyl.s:45     .text.__late_init:00000000 __late_init
     /tmp/ccNHNHyl.s:58     .text._default_exit:00000000 $t
     /tmp/ccNHNHyl.s:64     .text._default_exit:00000000 _default_exit
     /tmp/ccNHNHyl.s:77     .text.ResetHandler:00000000 $t
     /tmp/ccNHNHyl.s:83     .text.ResetHandler:00000000 ResetHandler
     /tmp/ccNHNHyl.s:371    .text.ResetHandler:00000190 $d
                     .debug_frame:00000010 $d
     /tmp/ccNHNHyl.s:387    .text.ResetHandler:000001c4 $t

UNDEFINED SYMBOLS
main
__process_stack_end__
__main_stack_base__
__main_stack_end__
__process_stack_base__
_edata
_data
_textdata
_bss_start
_bss_end
__init_array_start
__init_array_end
__fini_array_start
__fini_array_end
