ARM GAS  /tmp/ccOwGVVU.s 			page 1


   1              		.syntax unified
   2              		.cpu cortex-m3
   3              		.fpu softvfp
   4              		.eabi_attribute 20, 1
   5              		.eabi_attribute 21, 1
   6              		.eabi_attribute 23, 3
   7              		.eabi_attribute 24, 1
   8              		.eabi_attribute 25, 1
   9              		.eabi_attribute 26, 1
  10              		.eabi_attribute 30, 2
  11              		.eabi_attribute 34, 1
  12              		.eabi_attribute 18, 4
  13              		.thumb
  14              		.file	"hal.c"
  15              		.text
  16              	.Ltext0:
  17              		.cfi_sections	.debug_frame
  18              		.section	.text.halInit,"ax",%progbits
  19              		.align	2
  20              		.p2align 4,,15
  21              		.global	halInit
  22              		.thumb
  23              		.thumb_func
  24              		.type	halInit, %function
  25              	halInit:
  26              	.LFB63:
  27              		.file 1 "../../ChibiOS/os/hal/src/hal.c"
  28              		.loc 1 61 0
  29              		.cfi_startproc
  30              		@ args = 0, pretend = 0, frame = 0
  31              		@ frame_needed = 0, uses_anonymous_args = 0
  32 0000 08B5     		push	{r3, lr}
  33              	.LCFI0:
  34              		.cfi_def_cfa_offset 8
  35              		.cfi_offset 14, -4
  36              		.cfi_offset 3, -8
  37              		.loc 1 63 0
  38 0002 FFF7FEFF 		bl	hal_lld_init
  39              		.loc 1 69 0
  40 0006 40F20000 		movw	r0, #:lower16:pal_default_config
  41 000a C0F20000 		movt	r0, #:upper16:pal_default_config
  42 000e FFF7FEFF 		bl	_pal_lld_init
  43              		.loc 1 72 0
  44 0012 FFF7FEFF 		bl	adcInit
  45              		.loc 1 99 0
  46 0016 FFF7FEFF 		bl	sdInit
  47              		.loc 1 124 0
  48 001a BDE80840 		pop	{r3, lr}
  49              		.loc 1 123 0
  50 001e FFF7FEBF 		b	boardInit
  51              		.cfi_endproc
  52              	.LFE63:
  53              		.size	halInit, .-halInit
  54 0022 00BFAFF3 		.section	.text.halIsCounterWithin,"ax",%progbits
  54      0080AFF3 
  54      0080AFF3 
  54      0080
ARM GAS  /tmp/ccOwGVVU.s 			page 2


  55              		.align	2
  56              		.p2align 4,,15
  57              		.global	halIsCounterWithin
  58              		.thumb
  59              		.thumb_func
  60              		.type	halIsCounterWithin, %function
  61              	halIsCounterWithin:
  62              	.LFB64:
  63              		.loc 1 170 0
  64              		.cfi_startproc
  65              		@ args = 0, pretend = 0, frame = 0
  66              		@ frame_needed = 0, uses_anonymous_args = 0
  67              		@ link register save eliminated.
  68              	.LVL0:
  69              		.loc 1 171 0
  70 0000 4FF48053 		mov	r3, #4096
  71 0004 CEF20003 		movt	r3, 57344
  72              		.loc 1 173 0
  73 0008 8142     		cmp	r1, r0
  74              		.loc 1 171 0
  75 000a 5B68     		ldr	r3, [r3, #4]
  76              	.LVL1:
  77              		.loc 1 173 0
  78 000c 06D9     		bls	.L3
  79              		.loc 1 173 0 is_stmt 0 discriminator 1
  80 000e 8342     		cmp	r3, r0
  81 0010 08D3     		bcc	.L7
  82              	.L9:
  83              		.loc 1 173 0
  84 0012 8B42     		cmp	r3, r1
  85 0014 2CBF     		ite	cs
  86 0016 0020     		movcs	r0, #0
  87              	.LVL2:
  88 0018 0120     		movcc	r0, #1
  89 001a 7047     		bx	lr
  90              	.LVL3:
  91              	.L3:
  92              		.loc 1 173 0 discriminator 2
  93 001c 8342     		cmp	r3, r0
  94 001e F8D3     		bcc	.L9
  95              		.loc 1 173 0
  96 0020 0120     		movs	r0, #1
  97              	.LVL4:
  98              		.loc 1 175 0 is_stmt 1
  99 0022 7047     		bx	lr
 100              	.LVL5:
 101              	.L7:
 102              		.loc 1 173 0
 103 0024 0020     		movs	r0, #0
 104              	.LVL6:
 105 0026 7047     		bx	lr
 106              		.cfi_endproc
 107              	.LFE64:
 108              		.size	halIsCounterWithin, .-halIsCounterWithin
 109 0028 AFF30080 		.section	.text.halPolledDelay,"ax",%progbits
 109      AFF30080 
 110              		.align	2
ARM GAS  /tmp/ccOwGVVU.s 			page 3


 111              		.p2align 4,,15
 112              		.global	halPolledDelay
 113              		.thumb
 114              		.thumb_func
 115              		.type	halPolledDelay, %function
 116              	halPolledDelay:
 117              	.LFB65:
 118              		.loc 1 189 0
 119              		.cfi_startproc
 120              		@ args = 0, pretend = 0, frame = 0
 121              		@ frame_needed = 0, uses_anonymous_args = 0
 122              		@ link register save eliminated.
 123              	.LVL7:
 124              		.loc 1 190 0
 125 0000 4FF48052 		mov	r2, #4096
 126 0004 CEF20002 		movt	r2, 57344
 127 0008 5368     		ldr	r3, [r2, #4]
 128              	.LVL8:
 129              		.loc 1 191 0
 130 000a C018     		adds	r0, r0, r3
 131              	.LVL9:
 132 000c 8342     		cmp	r3, r0
 133 000e 05D3     		bcc	.L16
 134              	.L19:
 135              	.LVL10:
 136              	.LBB4:
 137              	.LBB5:
 138              		.loc 1 171 0
 139 0010 5168     		ldr	r1, [r2, #4]
 140              	.LVL11:
 141              		.loc 1 173 0
 142 0012 8B42     		cmp	r3, r1
 143 0014 FCD9     		bls	.L19
 144              	.LBE5:
 145              	.LBE4:
 146              		.loc 1 192 0
 147 0016 8842     		cmp	r0, r1
 148 0018 FAD8     		bhi	.L19
 149              	.L11:
 150 001a 7047     		bx	lr
 151              	.LVL12:
 152              	.L16:
 153              	.LBB7:
 154              	.LBB6:
 155              		.loc 1 171 0 discriminator 1
 156 001c 5168     		ldr	r1, [r2, #4]
 157              	.LVL13:
 158              		.loc 1 173 0 discriminator 1
 159 001e 8B42     		cmp	r3, r1
 160 0020 FBD8     		bhi	.L11
 161              		.loc 1 173 0 is_stmt 0
 162 0022 8842     		cmp	r0, r1
 163 0024 FAD8     		bhi	.L16
 164 0026 7047     		bx	lr
 165              	.LBE6:
 166              	.LBE7:
 167              		.cfi_endproc
ARM GAS  /tmp/ccOwGVVU.s 			page 4


 168              	.LFE65:
 169              		.size	halPolledDelay, .-halPolledDelay
 170 0028 AFF30080 		.text
 170      AFF30080 
 171              	.Letext0:
 172              		.file 2 "/home/tino/ChibiStudio/tools/GNU Tools ARM Embedded/4.6 2012q2/bin/../lib/gcc/arm-none-ea
 173              		.file 3 "../../ChibiOS/os/ports/GCC/ARMCMx/chtypes.h"
 174              		.file 4 "../../ChibiOS/os/ports/common/ARMCMx/nvic.h"
 175              		.file 5 "../../ChibiOS/os/hal/platforms/STM32F1xx/hal_lld.h"
 176              		.file 6 "../../ChibiOS/os/hal/platforms/STM32/GPIOv1/pal_lld.h"
 177              		.file 7 "../../ChibiOS/os/ports/common/ARMCMx/CMSIS/include/core_cm3.h"