ARM GAS  /tmp/ccOwGVVU.s 			page 1


   1              		.syntax unified
   2              		.cpu cortex-m3
   3              		.fpu softvfp
   4              		.eabi_attribute 20, 1
   5              		.eabi_attribute 21, 1
   6              		.eabi_attribute 23, 3
   7              		.eabi_attribute 24, 1
   8              		.eabi_attribute 25, 1
   9              		.eabi_attribute 26, 1
  10              		.eabi_attribute 30, 2
  11              		.eabi_attribute 34, 1
  12              		.eabi_attribute 18, 4
  13              		.thumb
  14              		.file	"hal.c"
  15              		.text
  16              	.Ltext0:
  17              		.cfi_sections	.debug_frame
  18              		.section	.text.halInit,"ax",%progbits
  19              		.align	2
  20              		.p2align 4,,15
  21              		.global	halInit
  22              		.thumb
  23              		.thumb_func
  24              		.type	halInit, %function
  25              	halInit:
  26              	.LFB63:
  27              		.file 1 "../../ChibiOS/os/hal/src/hal.c"
  28              		.loc 1 61 0
  29              		.cfi_startproc
  30              		@ args = 0, pretend = 0, frame = 0
  31              		@ frame_needed = 0, uses_anonymous_args = 0
  32 0000 08B5     		push	{r3, lr}
  33              	.LCFI0:
  34              		.cfi_def_cfa_offset 8
  35              		.cfi_offset 14, -4
  36              		.cfi_offset 3, -8
  37              		.loc 1 63 0
  38 0002 FFF7FEFF 		bl	hal_lld_init
  39              		.loc 1 69 0
  40 0006 40F20000 		movw	r0, #:lower16:pal_default_config
  41 000a C0F20000 		movt	r0, #:upper16:pal_default_config
  42 000e FFF7FEFF 		bl	_pal_lld_init
  43              		.loc 1 72 0
  44 0012 FFF7FEFF 		bl	adcInit
  45              		.loc 1 99 0
  46 0016 FFF7FEFF 		bl	sdInit
  47              		.loc 1 124 0
  48 001a BDE80840 		pop	{r3, lr}
  49              		.loc 1 123 0
  50 001e FFF7FEBF 		b	boardInit
  51              		.cfi_endproc
  52              	.LFE63:
  53              		.size	halInit, .-halInit
  54 0022 00BFAFF3 		.section	.text.halIsCounterWithin,"ax",%progbits
  54      0080AFF3 
  54      0080AFF3 
  54      0080
ARM GAS  /tmp/ccOwGVVU.s 			page 2


  55              		.align	2
  56              		.p2align 4,,15
  57              		.global	halIsCounterWithin
  58              		.thumb
  59              		.thumb_func
  60              		.type	halIsCounterWithin, %function
  61              	halIsCounterWithin:
  62              	.LFB64:
  63              		.loc 1 170 0
  64              		.cfi_startproc
  65              		@ args = 0, pretend = 0, frame = 0
  66              		@ frame_needed = 0, uses_anonymous_args = 0
  67              		@ link register save eliminated.
  68              	.LVL0:
  69              		.loc 1 171 0
  70 0000 4FF48053 		mov	r3, #4096
  71 0004 CEF20003 		movt	r3, 57344
  72              		.loc 1 173 0
  73 0008 8142     		cmp	r1, r0
  74              		.loc 1 171 0
  75 000a 5B68     		ldr	r3, [r3, #4]
  76              	.LVL1:
  77              		.loc 1 173 0
  78 000c 06D9     		bls	.L3
  79              		.loc 1 173 0 is_stmt 0 discriminator 1
  80 000e 8342     		cmp	r3, r0
  81 0010 08D3     		bcc	.L7
  82              	.L9:
  83              		.loc 1 173 0
  84 0012 8B42     		cmp	r3, r1
  85 0014 2CBF     		ite	cs
  86 0016 0020     		movcs	r0, #0
  87              	.LVL2:
  88 0018 0120     		movcc	r0, #1
  89 001a 7047     		bx	lr
  90              	.LVL3:
  91              	.L3:
  92              		.loc 1 173 0 discriminator 2
  93 001c 8342     		cmp	r3, r0
  94 001e F8D3     		bcc	.L9
  95              		.loc 1 173 0
  96 0020 0120     		movs	r0, #1
  97              	.LVL4:
  98              		.loc 1 175 0 is_stmt 1
  99 0022 7047     		bx	lr
 100              	.LVL5:
 101              	.L7:
 102              		.loc 1 173 0
 103 0024 0020     		movs	r0, #0
 104              	.LVL6:
 105 0026 7047     		bx	lr
 106              		.cfi_endproc
 107              	.LFE64:
 108              		.size	halIsCounterWithin, .-halIsCounterWithin
 109 0028 AFF30080 		.section	.text.halPolledDelay,"ax",%progbits
 109      AFF30080 
 110              		.align	2
ARM GAS  /tmp/ccOwGVVU.s 			page 3


 111              		.p2align 4,,15
 112              		.global	halPolledDelay
 113              		.thumb
 114              		.thumb_func
 115              		.type	halPolledDelay, %function
 116              	halPolledDelay:
 117              	.LFB65:
 118              		.loc 1 189 0
 119              		.cfi_startproc
 120              		@ args = 0, pretend = 0, frame = 0
 121              		@ frame_needed = 0, uses_anonymous_args = 0
 122              		@ link register save eliminated.
 123              	.LVL7:
 124              		.loc 1 190 0
 125 0000 4FF48052 		mov	r2, #4096
 126 0004 CEF20002 		movt	r2, 57344
 127 0008 5368     		ldr	r3, [r2, #4]
 128              	.LVL8:
 129              		.loc 1 191 0
 130 000a C018     		adds	r0, r0, r3
 131              	.LVL9:
 132 000c 8342     		cmp	r3, r0
 133 000e 05D3     		bcc	.L16
 134              	.L19:
 135              	.LVL10:
 136              	.LBB4:
 137              	.LBB5:
 138              		.loc 1 171 0
 139 0010 5168     		ldr	r1, [r2, #4]
 140              	.LVL11:
 141              		.loc 1 173 0
 142 0012 8B42     		cmp	r3, r1
 143 0014 FCD9     		bls	.L19
 144              	.LBE5:
 145              	.LBE4:
 146              		.loc 1 192 0
 147 0016 8842     		cmp	r0, r1
 148 0018 FAD8     		bhi	.L19
 149              	.L11:
 150 001a 7047     		bx	lr
 151              	.LVL12:
 152              	.L16:
 153              	.LBB7:
 154              	.LBB6:
 155              		.loc 1 171 0 discriminator 1
 156 001c 5168     		ldr	r1, [r2, #4]
 157              	.LVL13:
 158              		.loc 1 173 0 discriminator 1
 159 001e 8B42     		cmp	r3, r1
 160 0020 FBD8     		bhi	.L11
 161              		.loc 1 173 0 is_stmt 0
 162 0022 8842     		cmp	r0, r1
 163 0024 FAD8     		bhi	.L16
 164 0026 7047     		bx	lr
 165              	.LBE6:
 166              	.LBE7:
 167              		.cfi_endproc
ARM GAS  /tmp/ccOwGVVU.s 			page 4


 168              	.LFE65:
 169              		.size	halPolledDelay, .-halPolledDelay
 170 0028 AFF30080 		.text
 170      AFF30080 
 171              	.Letext0:
 172              		.file 2 "/home/tino/ChibiStudio/tools/GNU Tools ARM Embedded/4.6 2012q2/bin/../lib/gcc/arm-none-ea
 173              		.file 3 "../../ChibiOS/os/ports/GCC/ARMCMx/chtypes.h"
 174              		.file 4 "../../ChibiOS/os/ports/common/ARMCMx/nvic.h"
 175              		.file 5 "../../ChibiOS/os/hal/platforms/STM32F1xx/hal_lld.h"
 176              		.file 6 "../../ChibiOS/os/hal/platforms/STM32/GPIOv1/pal_lld.h"
 177              		.file 7 "../../ChibiOS/os/ports/common/ARMCMx/CMSIS/include/core_cm3.h"
 178              		.section	.debug_info,"",%progbits
 179              	.Ldebug_info0:
 180 0000 F4020000 		.4byte	0x2f4
 181 0004 0200     		.2byte	0x2
 182 0006 00000000 		.4byte	.Ldebug_abbrev0
 183 000a 04       		.byte	0x4
 184 000b 01       		.uleb128 0x1
 185 000c 4B000000 		.4byte	.LASF35
 186 0010 01       		.byte	0x1
 187 0011 3A010000 		.4byte	.LASF36
 188 0015 5E010000 		.4byte	.LASF37
 189 0019 00000000 		.4byte	0
 190 001d 00000000 		.4byte	0
 191 0021 30000000 		.4byte	.Ldebug_ranges0+0x30
 192 0025 00000000 		.4byte	.Ldebug_line0
 193 0029 02       		.uleb128 0x2
 194 002a 04       		.byte	0x4
 195 002b 05       		.byte	0x5
 196 002c 696E7400 		.ascii	"int\000"
 197 0030 03       		.uleb128 0x3
 198 0031 04       		.byte	0x4
 199 0032 07       		.byte	0x7
 200 0033 18000000 		.4byte	.LASF0
 201 0037 03       		.uleb128 0x3
 202 0038 01       		.byte	0x1
 203 0039 06       		.byte	0x6
 204 003a FF010000 		.4byte	.LASF1
 205 003e 03       		.uleb128 0x3
 206 003f 01       		.byte	0x1
 207 0040 08       		.byte	0x8
 208 0041 FA000000 		.4byte	.LASF2
 209 0045 03       		.uleb128 0x3
 210 0046 02       		.byte	0x2
 211 0047 05       		.byte	0x5
 212 0048 D4010000 		.4byte	.LASF3
 213 004c 03       		.uleb128 0x3
 214 004d 02       		.byte	0x2
 215 004e 07       		.byte	0x7
 216 004f C0000000 		.4byte	.LASF4
 217 0053 04       		.uleb128 0x4
 218 0054 A7010000 		.4byte	.LASF6
 219 0058 02       		.byte	0x2
 220 0059 4F       		.byte	0x4f
 221 005a 5E000000 		.4byte	0x5e
 222 005e 03       		.uleb128 0x3
 223 005f 04       		.byte	0x4
ARM GAS  /tmp/ccOwGVVU.s 			page 5


 224 0060 05       		.byte	0x5
 225 0061 F6010000 		.4byte	.LASF5
 226 0065 04       		.uleb128 0x4
 227 0066 ED010000 		.4byte	.LASF7
 228 006a 02       		.byte	0x2
 229 006b 50       		.byte	0x50
 230 006c 70000000 		.4byte	0x70
 231 0070 03       		.uleb128 0x3
 232 0071 04       		.byte	0x4
 233 0072 07       		.byte	0x7
 234 0073 AE000000 		.4byte	.LASF8
 235 0077 03       		.uleb128 0x3
 236 0078 08       		.byte	0x8
 237 0079 05       		.byte	0x5
 238 007a AF010000 		.4byte	.LASF9
 239 007e 03       		.uleb128 0x3
 240 007f 08       		.byte	0x8
 241 0080 07       		.byte	0x7
 242 0081 11020000 		.4byte	.LASF10
 243 0085 04       		.uleb128 0x4
 244 0086 25000000 		.4byte	.LASF11
 245 008a 03       		.byte	0x3
 246 008b 24       		.byte	0x24
 247 008c 90000000 		.4byte	0x90
 248 0090 03       		.uleb128 0x3
 249 0091 01       		.byte	0x1
 250 0092 02       		.byte	0x2
 251 0093 0B020000 		.4byte	.LASF12
 252 0097 05       		.uleb128 0x5
 253 0098 70000000 		.4byte	0x70
 254 009c 06       		.uleb128 0x6
 255 009d 20       		.byte	0x20
 256 009e 04       		.byte	0x4
 257 009f FF       		.byte	0xff
 258 00a0 1D010000 		.4byte	0x11d
 259 00a4 07       		.uleb128 0x7
 260 00a5 8F010000 		.4byte	.LASF13
 261 00a9 04       		.byte	0x4
 262 00aa 0001     		.2byte	0x100
 263 00ac 97000000 		.4byte	0x97
 264 00b0 02       		.byte	0x2
 265 00b1 23       		.byte	0x23
 266 00b2 00       		.uleb128 0
 267 00b3 07       		.uleb128 0x7
 268 00b4 2C010000 		.4byte	.LASF14
 269 00b8 04       		.byte	0x4
 270 00b9 0101     		.2byte	0x101
 271 00bb 97000000 		.4byte	0x97
 272 00bf 02       		.byte	0x2
 273 00c0 23       		.byte	0x23
 274 00c1 04       		.uleb128 0x4
 275 00c2 07       		.uleb128 0x7
 276 00c3 DE000000 		.4byte	.LASF15
 277 00c7 04       		.byte	0x4
 278 00c8 0201     		.2byte	0x102
 279 00ca 97000000 		.4byte	0x97
 280 00ce 02       		.byte	0x2
ARM GAS  /tmp/ccOwGVVU.s 			page 6


 281 00cf 23       		.byte	0x23
 282 00d0 08       		.uleb128 0x8
 283 00d1 07       		.uleb128 0x7
 284 00d2 2C000000 		.4byte	.LASF16
 285 00d6 04       		.byte	0x4
 286 00d7 0301     		.2byte	0x103
 287 00d9 97000000 		.4byte	0x97
 288 00dd 02       		.byte	0x2
 289 00de 23       		.byte	0x23
 290 00df 0C       		.uleb128 0xc
 291 00e0 07       		.uleb128 0x7
 292 00e1 33000000 		.4byte	.LASF17
 293 00e5 04       		.byte	0x4
 294 00e6 0401     		.2byte	0x104
 295 00e8 97000000 		.4byte	0x97
 296 00ec 02       		.byte	0x2
 297 00ed 23       		.byte	0x23
 298 00ee 10       		.uleb128 0x10
 299 00ef 07       		.uleb128 0x7
 300 00f0 25010000 		.4byte	.LASF18
 301 00f4 04       		.byte	0x4
 302 00f5 0501     		.2byte	0x105
 303 00f7 97000000 		.4byte	0x97
 304 00fb 02       		.byte	0x2
 305 00fc 23       		.byte	0x23
 306 00fd 14       		.uleb128 0x14
 307 00fe 07       		.uleb128 0x7
 308 00ff F2000000 		.4byte	.LASF19
 309 0103 04       		.byte	0x4
 310 0104 0601     		.2byte	0x106
 311 0106 97000000 		.4byte	0x97
 312 010a 02       		.byte	0x2
 313 010b 23       		.byte	0x23
 314 010c 18       		.uleb128 0x18
 315 010d 07       		.uleb128 0x7
 316 010e 0D000000 		.4byte	.LASF20
 317 0112 04       		.byte	0x4
 318 0113 0701     		.2byte	0x107
 319 0115 97000000 		.4byte	0x97
 320 0119 02       		.byte	0x2
 321 011a 23       		.byte	0x23
 322 011b 1C       		.uleb128 0x1c
 323 011c 00       		.byte	0
 324 011d 08       		.uleb128 0x8
 325 011e E5010000 		.4byte	.LASF21
 326 0122 04       		.byte	0x4
 327 0123 0801     		.2byte	0x108
 328 0125 9C000000 		.4byte	0x9c
 329 0129 03       		.uleb128 0x3
 330 012a 01       		.byte	0x1
 331 012b 08       		.byte	0x8
 332 012c 59010000 		.4byte	.LASF22
 333 0130 05       		.uleb128 0x5
 334 0131 53000000 		.4byte	0x53
 335 0135 04       		.uleb128 0x4
 336 0136 D3000000 		.4byte	.LASF23
 337 013a 05       		.byte	0x5
ARM GAS  /tmp/ccOwGVVU.s 			page 7


 338 013b CE       		.byte	0xce
 339 013c 65000000 		.4byte	0x65
 340 0140 06       		.uleb128 0x6
 341 0141 0C       		.byte	0xc
 342 0142 06       		.byte	0x6
 343 0143 38       		.byte	0x38
 344 0144 73010000 		.4byte	0x173
 345 0148 09       		.uleb128 0x9
 346 0149 6F647200 		.ascii	"odr\000"
 347 014d 06       		.byte	0x6
 348 014e 3A       		.byte	0x3a
 349 014f 65000000 		.4byte	0x65
 350 0153 02       		.byte	0x2
 351 0154 23       		.byte	0x23
 352 0155 00       		.uleb128 0
 353 0156 09       		.uleb128 0x9
 354 0157 63726C00 		.ascii	"crl\000"
 355 015b 06       		.byte	0x6
 356 015c 3C       		.byte	0x3c
 357 015d 65000000 		.4byte	0x65
 358 0161 02       		.byte	0x2
 359 0162 23       		.byte	0x23
 360 0163 04       		.uleb128 0x4
 361 0164 09       		.uleb128 0x9
 362 0165 63726800 		.ascii	"crh\000"
 363 0169 06       		.byte	0x6
 364 016a 3E       		.byte	0x3e
 365 016b 65000000 		.4byte	0x65
 366 016f 02       		.byte	0x2
 367 0170 23       		.byte	0x23
 368 0171 08       		.uleb128 0x8
 369 0172 00       		.byte	0
 370 0173 04       		.uleb128 0x4
 371 0174 94000000 		.4byte	.LASF24
 372 0178 06       		.byte	0x6
 373 0179 3F       		.byte	0x3f
 374 017a 40010000 		.4byte	0x140
 375 017e 06       		.uleb128 0x6
 376 017f 3C       		.byte	0x3c
 377 0180 06       		.byte	0x6
 378 0181 48       		.byte	0x48
 379 0182 CD010000 		.4byte	0x1cd
 380 0186 0A       		.uleb128 0xa
 381 0187 A7000000 		.4byte	.LASF25
 382 018b 06       		.byte	0x6
 383 018c 4A       		.byte	0x4a
 384 018d 73010000 		.4byte	0x173
 385 0191 02       		.byte	0x2
 386 0192 23       		.byte	0x23
 387 0193 00       		.uleb128 0
 388 0194 0A       		.uleb128 0xa
 389 0195 33010000 		.4byte	.LASF26
 390 0199 06       		.byte	0x6
 391 019a 4C       		.byte	0x4c
 392 019b 73010000 		.4byte	0x173
 393 019f 02       		.byte	0x2
 394 01a0 23       		.byte	0x23
ARM GAS  /tmp/ccOwGVVU.s 			page 8


 395 01a1 0C       		.uleb128 0xc
 396 01a2 0A       		.uleb128 0xa
 397 01a3 DE010000 		.4byte	.LASF27
 398 01a7 06       		.byte	0x6
 399 01a8 4E       		.byte	0x4e
 400 01a9 73010000 		.4byte	0x173
 401 01ad 02       		.byte	0x2
 402 01ae 23       		.byte	0x23
 403 01af 18       		.uleb128 0x18
 404 01b0 0A       		.uleb128 0xa
 405 01b1 06000000 		.4byte	.LASF28
 406 01b5 06       		.byte	0x6
 407 01b6 50       		.byte	0x50
 408 01b7 73010000 		.4byte	0x173
 409 01bb 02       		.byte	0x2
 410 01bc 23       		.byte	0x23
 411 01bd 24       		.uleb128 0x24
 412 01be 0A       		.uleb128 0xa
 413 01bf 44000000 		.4byte	.LASF29
 414 01c3 06       		.byte	0x6
 415 01c4 53       		.byte	0x53
 416 01c5 73010000 		.4byte	0x173
 417 01c9 02       		.byte	0x2
 418 01ca 23       		.byte	0x23
 419 01cb 30       		.uleb128 0x30
 420 01cc 00       		.byte	0
 421 01cd 04       		.uleb128 0x4
 422 01ce 08010000 		.4byte	.LASF30
 423 01d2 06       		.byte	0x6
 424 01d3 5D       		.byte	0x5d
 425 01d4 7E010000 		.4byte	0x17e
 426 01d8 0B       		.uleb128 0xb
 427 01d9 01       		.byte	0x1
 428 01da 94010000 		.4byte	.LASF38
 429 01de 01       		.byte	0x1
 430 01df AA       		.byte	0xaa
 431 01e0 01       		.byte	0x1
 432 01e1 85000000 		.4byte	0x85
 433 01e5 01       		.byte	0x1
 434 01e6 0C020000 		.4byte	0x20c
 435 01ea 0C       		.uleb128 0xc
 436 01eb 12000000 		.4byte	.LASF31
 437 01ef 01       		.byte	0x1
 438 01f0 AA       		.byte	0xaa
 439 01f1 35010000 		.4byte	0x135
 440 01f5 0D       		.uleb128 0xd
 441 01f6 656E6400 		.ascii	"end\000"
 442 01fa 01       		.byte	0x1
 443 01fb AA       		.byte	0xaa
 444 01fc 35010000 		.4byte	0x135
 445 0200 0E       		.uleb128 0xe
 446 0201 6E6F7700 		.ascii	"now\000"
 447 0205 01       		.byte	0x1
 448 0206 AB       		.byte	0xab
 449 0207 35010000 		.4byte	0x135
 450 020b 00       		.byte	0
 451 020c 0F       		.uleb128 0xf
ARM GAS  /tmp/ccOwGVVU.s 			page 9


 452 020d 01       		.byte	0x1
 453 020e 3C000000 		.4byte	.LASF39
 454 0212 01       		.byte	0x1
 455 0213 3D       		.byte	0x3d
 456 0214 01       		.byte	0x1
 457 0215 00000000 		.4byte	.LFB63
 458 0219 22000000 		.4byte	.LFE63
 459 021d 00000000 		.4byte	.LLST0
 460 0221 10       		.uleb128 0x10
 461 0222 D8010000 		.4byte	0x1d8
 462 0226 00000000 		.4byte	.LFB64
 463 022a 28000000 		.4byte	.LFE64
 464 022e 02       		.byte	0x2
 465 022f 7D       		.byte	0x7d
 466 0230 00       		.sleb128 0
 467 0231 4D020000 		.4byte	0x24d
 468 0235 11       		.uleb128 0x11
 469 0236 EA010000 		.4byte	0x1ea
 470 023a 20000000 		.4byte	.LLST1
 471 023e 12       		.uleb128 0x12
 472 023f F5010000 		.4byte	0x1f5
 473 0243 01       		.byte	0x1
 474 0244 51       		.byte	0x51
 475 0245 13       		.uleb128 0x13
 476 0246 00020000 		.4byte	0x200
 477 024a 01       		.byte	0x1
 478 024b 53       		.byte	0x53
 479 024c 00       		.byte	0
 480 024d 14       		.uleb128 0x14
 481 024e 01       		.byte	0x1
 482 024f C5010000 		.4byte	.LASF40
 483 0253 01       		.byte	0x1
 484 0254 BD       		.byte	0xbd
 485 0255 01       		.byte	0x1
 486 0256 00000000 		.4byte	.LFB65
 487 025a 28000000 		.4byte	.LFE65
 488 025e 02       		.byte	0x2
 489 025f 7D       		.byte	0x7d
 490 0260 00       		.sleb128 0
 491 0261 BA020000 		.4byte	0x2ba
 492 0265 15       		.uleb128 0x15
 493 0266 00000000 		.4byte	.LASF41
 494 026a 01       		.byte	0x1
 495 026b BD       		.byte	0xbd
 496 026c 35010000 		.4byte	0x135
 497 0270 49000000 		.4byte	.LLST2
 498 0274 16       		.uleb128 0x16
 499 0275 12000000 		.4byte	.LASF31
 500 0279 01       		.byte	0x1
 501 027a BE       		.byte	0xbe
 502 027b 35010000 		.4byte	0x135
 503 027f 01       		.byte	0x1
 504 0280 53       		.byte	0x53
 505 0281 16       		.uleb128 0x16
 506 0282 BD010000 		.4byte	.LASF32
 507 0286 01       		.byte	0x1
 508 0287 BF       		.byte	0xbf
ARM GAS  /tmp/ccOwGVVU.s 			page 10


 509 0288 35010000 		.4byte	0x135
 510 028c 01       		.byte	0x1
 511 028d 50       		.byte	0x50
 512 028e 17       		.uleb128 0x17
 513 028f D8010000 		.4byte	0x1d8
 514 0293 10000000 		.4byte	.LBB4
 515 0297 00000000 		.4byte	.Ldebug_ranges0+0
 516 029b 01       		.byte	0x1
 517 029c C0       		.byte	0xc0
 518 029d 18       		.uleb128 0x18
 519 029e F5010000 		.4byte	0x1f5
 520 02a2 12       		.uleb128 0x12
 521 02a3 EA010000 		.4byte	0x1ea
 522 02a7 01       		.byte	0x1
 523 02a8 53       		.byte	0x53
 524 02a9 19       		.uleb128 0x19
 525 02aa 18000000 		.4byte	.Ldebug_ranges0+0x18
 526 02ae 1A       		.uleb128 0x1a
 527 02af 00020000 		.4byte	0x200
 528 02b3 5C000000 		.4byte	.LLST3
 529 02b7 00       		.byte	0
 530 02b8 00       		.byte	0
 531 02b9 00       		.byte	0
 532 02ba 1B       		.uleb128 0x1b
 533 02bb E5000000 		.4byte	.LASF33
 534 02bf 07       		.byte	0x7
 535 02c0 0706     		.2byte	0x607
 536 02c2 30010000 		.4byte	0x130
 537 02c6 01       		.byte	0x1
 538 02c7 01       		.byte	0x1
 539 02c8 1B       		.uleb128 0x1b
 540 02c9 12010000 		.4byte	.LASF34
 541 02cd 06       		.byte	0x6
 542 02ce 3D01     		.2byte	0x13d
 543 02d0 D6020000 		.4byte	0x2d6
 544 02d4 01       		.byte	0x1
 545 02d5 01       		.byte	0x1
 546 02d6 1C       		.uleb128 0x1c
 547 02d7 CD010000 		.4byte	0x1cd
 548 02db 1B       		.uleb128 0x1b
 549 02dc E5000000 		.4byte	.LASF33
 550 02e0 07       		.byte	0x7
 551 02e1 0706     		.2byte	0x607
 552 02e3 30010000 		.4byte	0x130
 553 02e7 01       		.byte	0x1
 554 02e8 01       		.byte	0x1
 555 02e9 1B       		.uleb128 0x1b
 556 02ea 12010000 		.4byte	.LASF34
 557 02ee 06       		.byte	0x6
 558 02ef 3D01     		.2byte	0x13d
 559 02f1 D6020000 		.4byte	0x2d6
 560 02f5 01       		.byte	0x1
 561 02f6 01       		.byte	0x1
 562 02f7 00       		.byte	0
 563              		.section	.debug_abbrev,"",%progbits
 564              	.Ldebug_abbrev0:
 565 0000 01       		.uleb128 0x1
ARM GAS  /tmp/ccOwGVVU.s 			page 11


 566 0001 11       		.uleb128 0x11
 567 0002 01       		.byte	0x1
 568 0003 25       		.uleb128 0x25
 569 0004 0E       		.uleb128 0xe
 570 0005 13       		.uleb128 0x13
 571 0006 0B       		.uleb128 0xb
 572 0007 03       		.uleb128 0x3
 573 0008 0E       		.uleb128 0xe
 574 0009 1B       		.uleb128 0x1b
 575 000a 0E       		.uleb128 0xe
 576 000b 11       		.uleb128 0x11
 577 000c 01       		.uleb128 0x1
 578 000d 52       		.uleb128 0x52
 579 000e 01       		.uleb128 0x1
 580 000f 55       		.uleb128 0x55
 581 0010 06       		.uleb128 0x6
 582 0011 10       		.uleb128 0x10
 583 0012 06       		.uleb128 0x6
 584 0013 00       		.byte	0
 585 0014 00       		.byte	0
 586 0015 02       		.uleb128 0x2
 587 0016 24       		.uleb128 0x24
 588 0017 00       		.byte	0
 589 0018 0B       		.uleb128 0xb
 590 0019 0B       		.uleb128 0xb
 591 001a 3E       		.uleb128 0x3e
 592 001b 0B       		.uleb128 0xb
 593 001c 03       		.uleb128 0x3
 594 001d 08       		.uleb128 0x8
 595 001e 00       		.byte	0
 596 001f 00       		.byte	0
 597 0020 03       		.uleb128 0x3
 598 0021 24       		.uleb128 0x24
 599 0022 00       		.byte	0
 600 0023 0B       		.uleb128 0xb
 601 0024 0B       		.uleb128 0xb
 602 0025 3E       		.uleb128 0x3e
 603 0026 0B       		.uleb128 0xb
 604 0027 03       		.uleb128 0x3
 605 0028 0E       		.uleb128 0xe
 606 0029 00       		.byte	0
 607 002a 00       		.byte	0
 608 002b 04       		.uleb128 0x4
 609 002c 16       		.uleb128 0x16
 610 002d 00       		.byte	0
 611 002e 03       		.uleb128 0x3
 612 002f 0E       		.uleb128 0xe
 613 0030 3A       		.uleb128 0x3a
 614 0031 0B       		.uleb128 0xb
 615 0032 3B       		.uleb128 0x3b
 616 0033 0B       		.uleb128 0xb
 617 0034 49       		.uleb128 0x49
 618 0035 13       		.uleb128 0x13
 619 0036 00       		.byte	0
 620 0037 00       		.byte	0
 621 0038 05       		.uleb128 0x5
 622 0039 35       		.uleb128 0x35
ARM GAS  /tmp/ccOwGVVU.s 			page 12


 623 003a 00       		.byte	0
 624 003b 49       		.uleb128 0x49
 625 003c 13       		.uleb128 0x13
 626 003d 00       		.byte	0
 627 003e 00       		.byte	0
 628 003f 06       		.uleb128 0x6
 629 0040 13       		.uleb128 0x13
 630 0041 01       		.byte	0x1
 631 0042 0B       		.uleb128 0xb
 632 0043 0B       		.uleb128 0xb
 633 0044 3A       		.uleb128 0x3a
 634 0045 0B       		.uleb128 0xb
 635 0046 3B       		.uleb128 0x3b
 636 0047 0B       		.uleb128 0xb
 637 0048 01       		.uleb128 0x1
 638 0049 13       		.uleb128 0x13
 639 004a 00       		.byte	0
 640 004b 00       		.byte	0
 641 004c 07       		.uleb128 0x7
 642 004d 0D       		.uleb128 0xd
 643 004e 00       		.byte	0
 644 004f 03       		.uleb128 0x3
 645 0050 0E       		.uleb128 0xe
 646 0051 3A       		.uleb128 0x3a
 647 0052 0B       		.uleb128 0xb
 648 0053 3B       		.uleb128 0x3b
 649 0054 05       		.uleb128 0x5
 650 0055 49       		.uleb128 0x49
 651 0056 13       		.uleb128 0x13
 652 0057 38       		.uleb128 0x38
 653 0058 0A       		.uleb128 0xa
 654 0059 00       		.byte	0
 655 005a 00       		.byte	0
 656 005b 08       		.uleb128 0x8
 657 005c 16       		.uleb128 0x16
 658 005d 00       		.byte	0
 659 005e 03       		.uleb128 0x3
 660 005f 0E       		.uleb128 0xe
 661 0060 3A       		.uleb128 0x3a
 662 0061 0B       		.uleb128 0xb
 663 0062 3B       		.uleb128 0x3b
 664 0063 05       		.uleb128 0x5
 665 0064 49       		.uleb128 0x49
 666 0065 13       		.uleb128 0x13
 667 0066 00       		.byte	0
 668 0067 00       		.byte	0
 669 0068 09       		.uleb128 0x9
 670 0069 0D       		.uleb128 0xd
 671 006a 00       		.byte	0
 672 006b 03       		.uleb128 0x3
 673 006c 08       		.uleb128 0x8
 674 006d 3A       		.uleb128 0x3a
 675 006e 0B       		.uleb128 0xb
 676 006f 3B       		.uleb128 0x3b
 677 0070 0B       		.uleb128 0xb
 678 0071 49       		.uleb128 0x49
 679 0072 13       		.uleb128 0x13
ARM GAS  /tmp/ccOwGVVU.s 			page 13


 680 0073 38       		.uleb128 0x38
 681 0074 0A       		.uleb128 0xa
 682 0075 00       		.byte	0
 683 0076 00       		.byte	0
 684 0077 0A       		.uleb128 0xa
 685 0078 0D       		.uleb128 0xd
 686 0079 00       		.byte	0
 687 007a 03       		.uleb128 0x3
 688 007b 0E       		.uleb128 0xe
 689 007c 3A       		.uleb128 0x3a
 690 007d 0B       		.uleb128 0xb
 691 007e 3B       		.uleb128 0x3b
 692 007f 0B       		.uleb128 0xb
 693 0080 49       		.uleb128 0x49
 694 0081 13       		.uleb128 0x13
 695 0082 38       		.uleb128 0x38
 696 0083 0A       		.uleb128 0xa
 697 0084 00       		.byte	0
 698 0085 00       		.byte	0
 699 0086 0B       		.uleb128 0xb
 700 0087 2E       		.uleb128 0x2e
 701 0088 01       		.byte	0x1
 702 0089 3F       		.uleb128 0x3f
 703 008a 0C       		.uleb128 0xc
 704 008b 03       		.uleb128 0x3
 705 008c 0E       		.uleb128 0xe
 706 008d 3A       		.uleb128 0x3a
 707 008e 0B       		.uleb128 0xb
 708 008f 3B       		.uleb128 0x3b
 709 0090 0B       		.uleb128 0xb
 710 0091 27       		.uleb128 0x27
 711 0092 0C       		.uleb128 0xc
 712 0093 49       		.uleb128 0x49
 713 0094 13       		.uleb128 0x13
 714 0095 20       		.uleb128 0x20
 715 0096 0B       		.uleb128 0xb
 716 0097 01       		.uleb128 0x1
 717 0098 13       		.uleb128 0x13
 718 0099 00       		.byte	0
 719 009a 00       		.byte	0
 720 009b 0C       		.uleb128 0xc
 721 009c 05       		.uleb128 0x5
 722 009d 00       		.byte	0
 723 009e 03       		.uleb128 0x3
 724 009f 0E       		.uleb128 0xe
 725 00a0 3A       		.uleb128 0x3a
 726 00a1 0B       		.uleb128 0xb
 727 00a2 3B       		.uleb128 0x3b
 728 00a3 0B       		.uleb128 0xb
 729 00a4 49       		.uleb128 0x49
 730 00a5 13       		.uleb128 0x13
 731 00a6 00       		.byte	0
 732 00a7 00       		.byte	0
 733 00a8 0D       		.uleb128 0xd
 734 00a9 05       		.uleb128 0x5
 735 00aa 00       		.byte	0
 736 00ab 03       		.uleb128 0x3
ARM GAS  /tmp/ccOwGVVU.s 			page 14


 737 00ac 08       		.uleb128 0x8
 738 00ad 3A       		.uleb128 0x3a
 739 00ae 0B       		.uleb128 0xb
 740 00af 3B       		.uleb128 0x3b
 741 00b0 0B       		.uleb128 0xb
 742 00b1 49       		.uleb128 0x49
 743 00b2 13       		.uleb128 0x13
 744 00b3 00       		.byte	0
 745 00b4 00       		.byte	0
 746 00b5 0E       		.uleb128 0xe
 747 00b6 34       		.uleb128 0x34
 748 00b7 00       		.byte	0
 749 00b8 03       		.uleb128 0x3
 750 00b9 08       		.uleb128 0x8
 751 00ba 3A       		.uleb128 0x3a
 752 00bb 0B       		.uleb128 0xb
 753 00bc 3B       		.uleb128 0x3b
 754 00bd 0B       		.uleb128 0xb
 755 00be 49       		.uleb128 0x49
 756 00bf 13       		.uleb128 0x13
 757 00c0 00       		.byte	0
 758 00c1 00       		.byte	0
 759 00c2 0F       		.uleb128 0xf
 760 00c3 2E       		.uleb128 0x2e
 761 00c4 00       		.byte	0
 762 00c5 3F       		.uleb128 0x3f
 763 00c6 0C       		.uleb128 0xc
 764 00c7 03       		.uleb128 0x3
 765 00c8 0E       		.uleb128 0xe
 766 00c9 3A       		.uleb128 0x3a
 767 00ca 0B       		.uleb128 0xb
 768 00cb 3B       		.uleb128 0x3b
 769 00cc 0B       		.uleb128 0xb
 770 00cd 27       		.uleb128 0x27
 771 00ce 0C       		.uleb128 0xc
 772 00cf 11       		.uleb128 0x11
 773 00d0 01       		.uleb128 0x1
 774 00d1 12       		.uleb128 0x12
 775 00d2 01       		.uleb128 0x1
 776 00d3 40       		.uleb128 0x40
 777 00d4 06       		.uleb128 0x6
 778 00d5 00       		.byte	0
 779 00d6 00       		.byte	0
 780 00d7 10       		.uleb128 0x10
 781 00d8 2E       		.uleb128 0x2e
 782 00d9 01       		.byte	0x1
 783 00da 31       		.uleb128 0x31
 784 00db 13       		.uleb128 0x13
 785 00dc 11       		.uleb128 0x11
 786 00dd 01       		.uleb128 0x1
 787 00de 12       		.uleb128 0x12
 788 00df 01       		.uleb128 0x1
 789 00e0 40       		.uleb128 0x40
 790 00e1 0A       		.uleb128 0xa
 791 00e2 01       		.uleb128 0x1
 792 00e3 13       		.uleb128 0x13
 793 00e4 00       		.byte	0
ARM GAS  /tmp/ccOwGVVU.s 			page 15


 794 00e5 00       		.byte	0
 795 00e6 11       		.uleb128 0x11
 796 00e7 05       		.uleb128 0x5
 797 00e8 00       		.byte	0
 798 00e9 31       		.uleb128 0x31
 799 00ea 13       		.uleb128 0x13
 800 00eb 02       		.uleb128 0x2
 801 00ec 06       		.uleb128 0x6
 802 00ed 00       		.byte	0
 803 00ee 00       		.byte	0
 804 00ef 12       		.uleb128 0x12
 805 00f0 05       		.uleb128 0x5
 806 00f1 00       		.byte	0
 807 00f2 31       		.uleb128 0x31
 808 00f3 13       		.uleb128 0x13
 809 00f4 02       		.uleb128 0x2
 810 00f5 0A       		.uleb128 0xa
 811 00f6 00       		.byte	0
 812 00f7 00       		.byte	0
 813 00f8 13       		.uleb128 0x13
 814 00f9 34       		.uleb128 0x34
 815 00fa 00       		.byte	0
 816 00fb 31       		.uleb128 0x31
 817 00fc 13       		.uleb128 0x13
 818 00fd 02       		.uleb128 0x2
 819 00fe 0A       		.uleb128 0xa
 820 00ff 00       		.byte	0
 821 0100 00       		.byte	0
 822 0101 14       		.uleb128 0x14
 823 0102 2E       		.uleb128 0x2e
 824 0103 01       		.byte	0x1
 825 0104 3F       		.uleb128 0x3f
 826 0105 0C       		.uleb128 0xc
 827 0106 03       		.uleb128 0x3
 828 0107 0E       		.uleb128 0xe
 829 0108 3A       		.uleb128 0x3a
 830 0109 0B       		.uleb128 0xb
 831 010a 3B       		.uleb128 0x3b
 832 010b 0B       		.uleb128 0xb
 833 010c 27       		.uleb128 0x27
 834 010d 0C       		.uleb128 0xc
 835 010e 11       		.uleb128 0x11
 836 010f 01       		.uleb128 0x1
 837 0110 12       		.uleb128 0x12
 838 0111 01       		.uleb128 0x1
 839 0112 40       		.uleb128 0x40
 840 0113 0A       		.uleb128 0xa
 841 0114 01       		.uleb128 0x1
 842 0115 13       		.uleb128 0x13
 843 0116 00       		.byte	0
 844 0117 00       		.byte	0
 845 0118 15       		.uleb128 0x15
 846 0119 05       		.uleb128 0x5
 847 011a 00       		.byte	0
 848 011b 03       		.uleb128 0x3
 849 011c 0E       		.uleb128 0xe
 850 011d 3A       		.uleb128 0x3a
ARM GAS  /tmp/ccOwGVVU.s 			page 16


 851 011e 0B       		.uleb128 0xb
 852 011f 3B       		.uleb128 0x3b
 853 0120 0B       		.uleb128 0xb
 854 0121 49       		.uleb128 0x49
 855 0122 13       		.uleb128 0x13
 856 0123 02       		.uleb128 0x2
 857 0124 06       		.uleb128 0x6
 858 0125 00       		.byte	0
 859 0126 00       		.byte	0
 860 0127 16       		.uleb128 0x16
 861 0128 34       		.uleb128 0x34
 862 0129 00       		.byte	0
 863 012a 03       		.uleb128 0x3
 864 012b 0E       		.uleb128 0xe
 865 012c 3A       		.uleb128 0x3a
 866 012d 0B       		.uleb128 0xb
 867 012e 3B       		.uleb128 0x3b
 868 012f 0B       		.uleb128 0xb
 869 0130 49       		.uleb128 0x49
 870 0131 13       		.uleb128 0x13
 871 0132 02       		.uleb128 0x2
 872 0133 0A       		.uleb128 0xa
 873 0134 00       		.byte	0
 874 0135 00       		.byte	0
 875 0136 17       		.uleb128 0x17
 876 0137 1D       		.uleb128 0x1d
 877 0138 01       		.byte	0x1
 878 0139 31       		.uleb128 0x31
 879 013a 13       		.uleb128 0x13
 880 013b 52       		.uleb128 0x52
 881 013c 01       		.uleb128 0x1
 882 013d 55       		.uleb128 0x55
 883 013e 06       		.uleb128 0x6
 884 013f 58       		.uleb128 0x58
 885 0140 0B       		.uleb128 0xb
 886 0141 59       		.uleb128 0x59
 887 0142 0B       		.uleb128 0xb
 888 0143 00       		.byte	0
 889 0144 00       		.byte	0
 890 0145 18       		.uleb128 0x18
 891 0146 05       		.uleb128 0x5
 892 0147 00       		.byte	0
 893 0148 31       		.uleb128 0x31
 894 0149 13       		.uleb128 0x13
 895 014a 00       		.byte	0
 896 014b 00       		.byte	0
 897 014c 19       		.uleb128 0x19
 898 014d 0B       		.uleb128 0xb
 899 014e 01       		.byte	0x1
 900 014f 55       		.uleb128 0x55
 901 0150 06       		.uleb128 0x6
 902 0151 00       		.byte	0
 903 0152 00       		.byte	0
 904 0153 1A       		.uleb128 0x1a
 905 0154 34       		.uleb128 0x34
 906 0155 00       		.byte	0
 907 0156 31       		.uleb128 0x31
ARM GAS  /tmp/ccOwGVVU.s 			page 17


 908 0157 13       		.uleb128 0x13
 909 0158 02       		.uleb128 0x2
 910 0159 06       		.uleb128 0x6
 911 015a 00       		.byte	0
 912 015b 00       		.byte	0
 913 015c 1B       		.uleb128 0x1b
 914 015d 34       		.uleb128 0x34
 915 015e 00       		.byte	0
 916 015f 03       		.uleb128 0x3
 917 0160 0E       		.uleb128 0xe
 918 0161 3A       		.uleb128 0x3a
 919 0162 0B       		.uleb128 0xb
 920 0163 3B       		.uleb128 0x3b
 921 0164 05       		.uleb128 0x5
 922 0165 49       		.uleb128 0x49
 923 0166 13       		.uleb128 0x13
 924 0167 3F       		.uleb128 0x3f
 925 0168 0C       		.uleb128 0xc
 926 0169 3C       		.uleb128 0x3c
 927 016a 0C       		.uleb128 0xc
 928 016b 00       		.byte	0
 929 016c 00       		.byte	0
 930 016d 1C       		.uleb128 0x1c
 931 016e 26       		.uleb128 0x26
 932 016f 00       		.byte	0
 933 0170 49       		.uleb128 0x49
 934 0171 13       		.uleb128 0x13
 935 0172 00       		.byte	0
 936 0173 00       		.byte	0
 937 0174 00       		.byte	0
 938              		.section	.debug_loc,"",%progbits
 939              	.Ldebug_loc0:
 940              	.LLST0:
 941 0000 00000000 		.4byte	.LFB63
 942 0004 02000000 		.4byte	.LCFI0
 943 0008 0200     		.2byte	0x2
 944 000a 7D       		.byte	0x7d
 945 000b 00       		.sleb128 0
 946 000c 02000000 		.4byte	.LCFI0
 947 0010 22000000 		.4byte	.LFE63
 948 0014 0200     		.2byte	0x2
 949 0016 7D       		.byte	0x7d
 950 0017 08       		.sleb128 8
 951 0018 00000000 		.4byte	0
 952 001c 00000000 		.4byte	0
 953              	.LLST1:
 954 0020 00000000 		.4byte	.LVL0
 955 0024 18000000 		.4byte	.LVL2
 956 0028 0100     		.2byte	0x1
 957 002a 50       		.byte	0x50
 958 002b 1C000000 		.4byte	.LVL3
 959 002f 22000000 		.4byte	.LVL4
 960 0033 0100     		.2byte	0x1
 961 0035 50       		.byte	0x50
 962 0036 24000000 		.4byte	.LVL5
 963 003a 26000000 		.4byte	.LVL6
 964 003e 0100     		.2byte	0x1
ARM GAS  /tmp/ccOwGVVU.s 			page 18


 965 0040 50       		.byte	0x50
 966 0041 00000000 		.4byte	0
 967 0045 00000000 		.4byte	0
 968              	.LLST2:
 969 0049 00000000 		.4byte	.LVL7
 970 004d 0C000000 		.4byte	.LVL9
 971 0051 0100     		.2byte	0x1
 972 0053 50       		.byte	0x50
 973 0054 00000000 		.4byte	0
 974 0058 00000000 		.4byte	0
 975              	.LLST3:
 976 005c 12000000 		.4byte	.LVL11
 977 0060 1C000000 		.4byte	.LVL12
 978 0064 0100     		.2byte	0x1
 979 0066 51       		.byte	0x51
 980 0067 1E000000 		.4byte	.LVL13
 981 006b 28000000 		.4byte	.LFE65
 982 006f 0100     		.2byte	0x1
 983 0071 51       		.byte	0x51
 984 0072 00000000 		.4byte	0
 985 0076 00000000 		.4byte	0
 986              		.section	.debug_aranges,"",%progbits
 987 0000 2C000000 		.4byte	0x2c
 988 0004 0200     		.2byte	0x2
 989 0006 00000000 		.4byte	.Ldebug_info0
 990 000a 04       		.byte	0x4
 991 000b 00       		.byte	0
 992 000c 0000     		.2byte	0
 993 000e 0000     		.2byte	0
 994 0010 00000000 		.4byte	.LFB63
 995 0014 22000000 		.4byte	.LFE63-.LFB63
 996 0018 00000000 		.4byte	.LFB64
 997 001c 28000000 		.4byte	.LFE64-.LFB64
 998 0020 00000000 		.4byte	.LFB65
 999 0024 28000000 		.4byte	.LFE65-.LFB65
 1000 0028 00000000 		.4byte	0
 1001 002c 00000000 		.4byte	0
 1002              		.section	.debug_ranges,"",%progbits
 1003              	.Ldebug_ranges0:
 1004 0000 10000000 		.4byte	.LBB4
 1005 0004 16000000 		.4byte	.LBE4
 1006 0008 1C000000 		.4byte	.LBB7
 1007 000c 28000000 		.4byte	.LBE7
 1008 0010 00000000 		.4byte	0
 1009 0014 00000000 		.4byte	0
 1010 0018 10000000 		.4byte	.LBB5
 1011 001c 16000000 		.4byte	.LBE5
 1012 0020 1C000000 		.4byte	.LBB6
 1013 0024 28000000 		.4byte	.LBE6
 1014 0028 00000000 		.4byte	0
 1015 002c 00000000 		.4byte	0
 1016 0030 00000000 		.4byte	.LFB63
 1017 0034 22000000 		.4byte	.LFE63
 1018 0038 00000000 		.4byte	.LFB64
 1019 003c 28000000 		.4byte	.LFE64
 1020 0040 00000000 		.4byte	.LFB65
 1021 0044 28000000 		.4byte	.LFE65
ARM GAS  /tmp/ccOwGVVU.s 			page 19


 1022 0048 00000000 		.4byte	0
 1023 004c 00000000 		.4byte	0
 1024              		.section	.debug_line,"",%progbits
 1025              	.Ldebug_line0:
 1026 0000 3D020000 		.section	.debug_str,"MS",%progbits,1
 1026      0200D301 
 1026      00000201 
 1026      FB0E0D00 
 1026      01010101 
 1027              	.LASF41:
 1028 0000 7469636B 		.ascii	"ticks\000"
 1028      7300
 1029              	.LASF28:
 1030 0006 50444461 		.ascii	"PDData\000"
 1030      746100
 1031              	.LASF20:
 1032 000d 50435352 		.ascii	"PCSR\000"
 1032      00
 1033              	.LASF31:
 1034 0012 73746172 		.ascii	"start\000"
 1034      7400
 1035              	.LASF0:
 1036 0018 756E7369 		.ascii	"unsigned int\000"
 1036      676E6564 
 1036      20696E74 
 1036      00
 1037              	.LASF11:
 1038 0025 626F6F6C 		.ascii	"bool_t\000"
 1038      5F7400
 1039              	.LASF16:
 1040 002c 45584343 		.ascii	"EXCCNT\000"
 1040      4E5400
 1041              	.LASF17:
 1042 0033 534C4545 		.ascii	"SLEEPCNT\000"
 1042      50434E54 
 1042      00
 1043              	.LASF39:
 1044 003c 68616C49 		.ascii	"halInit\000"
 1044      6E697400 
 1045              	.LASF29:
 1046 0044 50454461 		.ascii	"PEData\000"
 1046      746100
 1047              	.LASF35:
 1048 004b 474E5520 		.ascii	"GNU C 4.6.2 20120613 (release) [ARM/embedded-4_6-br"
 1048      4320342E 
 1048      362E3220 
 1048      32303132 
 1048      30363133 
 1049 007e 616E6368 		.ascii	"anch revision 188521]\000"
 1049      20726576 
 1049      6973696F 
 1049      6E203138 
 1049      38353231 
 1050              	.LASF24:
 1051 0094 73746D33 		.ascii	"stm32_gpio_setup_t\000"
 1051      325F6770 
 1051      696F5F73 
ARM GAS  /tmp/ccOwGVVU.s 			page 20


 1051      65747570 
 1051      5F7400
 1052              	.LASF25:
 1053 00a7 50414461 		.ascii	"PAData\000"
 1053      746100
 1054              	.LASF8:
 1055 00ae 6C6F6E67 		.ascii	"long unsigned int\000"
 1055      20756E73 
 1055      69676E65 
 1055      6420696E 
 1055      7400
 1056              	.LASF4:
 1057 00c0 73686F72 		.ascii	"short unsigned int\000"
 1057      7420756E 
 1057      7369676E 
 1057      65642069 
 1057      6E7400
 1058              	.LASF23:
 1059 00d3 68616C72 		.ascii	"halrtcnt_t\000"
 1059      74636E74 
 1059      5F7400
 1060              	.LASF15:
 1061 00de 43504943 		.ascii	"CPICNT\000"
 1061      4E5400
 1062              	.LASF33:
 1063 00e5 49544D5F 		.ascii	"ITM_RxBuffer\000"
 1063      52784275 
 1063      66666572 
 1063      00
 1064              	.LASF19:
 1065 00f2 464F4C44 		.ascii	"FOLDCNT\000"
 1065      434E5400 
 1066              	.LASF2:
 1067 00fa 756E7369 		.ascii	"unsigned char\000"
 1067      676E6564 
 1067      20636861 
 1067      7200
 1068              	.LASF30:
 1069 0108 50414C43 		.ascii	"PALConfig\000"
 1069      6F6E6669 
 1069      6700
 1070              	.LASF34:
 1071 0112 70616C5F 		.ascii	"pal_default_config\000"
 1071      64656661 
 1071      756C745F 
 1071      636F6E66 
 1071      696700
 1072              	.LASF18:
 1073 0125 4C535543 		.ascii	"LSUCNT\000"
 1073      4E5400
 1074              	.LASF14:
 1075 012c 43594343 		.ascii	"CYCCNT\000"
 1075      4E5400
 1076              	.LASF26:
 1077 0133 50424461 		.ascii	"PBData\000"
 1077      746100
 1078              	.LASF36:
ARM GAS  /tmp/ccOwGVVU.s 			page 21


 1079 013a 2E2E2F2E 		.ascii	"../../ChibiOS/os/hal/src/hal.c\000"
 1079      2E2F4368 
 1079      6962694F 
 1079      532F6F73 
 1079      2F68616C 
 1080              	.LASF22:
 1081 0159 63686172 		.ascii	"char\000"
 1081      00
 1082              	.LASF37:
 1083 015e 2F686F6D 		.ascii	"/home/tino/workspace/openrobots/R2P_IR_module/fw\000"
 1083      652F7469 
 1083      6E6F2F77 
 1083      6F726B73 
 1083      70616365 
 1084              	.LASF13:
 1085 018f 4354524C 		.ascii	"CTRL\000"
 1085      00
 1086              	.LASF38:
 1087 0194 68616C49 		.ascii	"halIsCounterWithin\000"
 1087      73436F75 
 1087      6E746572 
 1087      57697468 
 1087      696E00
 1088              	.LASF6:
 1089 01a7 696E7433 		.ascii	"int32_t\000"
 1089      325F7400 
 1090              	.LASF9:
 1091 01af 6C6F6E67 		.ascii	"long long int\000"
 1091      206C6F6E 
 1091      6720696E 
 1091      7400
 1092              	.LASF32:
 1093 01bd 74696D65 		.ascii	"timeout\000"
 1093      6F757400 
 1094              	.LASF40:
 1095 01c5 68616C50 		.ascii	"halPolledDelay\000"
 1095      6F6C6C65 
 1095      6444656C 
 1095      617900
 1096              	.LASF3:
 1097 01d4 73686F72 		.ascii	"short int\000"
 1097      7420696E 
 1097      7400
 1098              	.LASF27:
 1099 01de 50434461 		.ascii	"PCData\000"
 1099      746100
 1100              	.LASF21:
 1101 01e5 434D785F 		.ascii	"CMx_DWT\000"
 1101      44575400 
 1102              	.LASF7:
 1103 01ed 75696E74 		.ascii	"uint32_t\000"
 1103      33325F74 
 1103      00
 1104              	.LASF5:
 1105 01f6 6C6F6E67 		.ascii	"long int\000"
 1105      20696E74 
 1105      00
ARM GAS  /tmp/ccOwGVVU.s 			page 22


 1106              	.LASF1:
 1107 01ff 7369676E 		.ascii	"signed char\000"
 1107      65642063 
 1107      68617200 
 1108              	.LASF12:
 1109 020b 5F426F6F 		.ascii	"_Bool\000"
 1109      6C00
 1110              	.LASF10:
 1111 0211 6C6F6E67 		.ascii	"long long unsigned int\000"
 1111      206C6F6E 
 1111      6720756E 
 1111      7369676E 
 1111      65642069 
 1112              		.ident	"GCC: (GNU Tools for ARM Embedded Processors) 4.6.2 20120613 (release) [ARM/embedded-4_6-br
ARM GAS  /tmp/ccOwGVVU.s 			page 23


DEFINED SYMBOLS
                            *ABS*:00000000 hal.c
     /tmp/ccOwGVVU.s:19     .text.halInit:00000000 $t
     /tmp/ccOwGVVU.s:25     .text.halInit:00000000 halInit
     /tmp/ccOwGVVU.s:55     .text.halIsCounterWithin:00000000 $t
     /tmp/ccOwGVVU.s:61     .text.halIsCounterWithin:00000000 halIsCounterWithin
     /tmp/ccOwGVVU.s:110    .text.halPolledDelay:00000000 $t
     /tmp/ccOwGVVU.s:116    .text.halPolledDelay:00000000 halPolledDelay
                     .debug_frame:00000010 $d

UNDEFINED SYMBOLS
hal_lld_init
pal_default_config
_pal_lld_init
adcInit
sdInit
boardInit
