ARM GAS  /tmp/cc7byH5Q.s 			page 1


   1              		.syntax unified
   2              		.cpu cortex-m3
   3              		.fpu softvfp
   4              		.eabi_attribute 20, 1
   5              		.eabi_attribute 21, 1
   6              		.eabi_attribute 23, 3
   7              		.eabi_attribute 24, 1
   8              		.eabi_attribute 25, 1
   9              		.eabi_attribute 26, 1
  10              		.eabi_attribute 30, 2
  11              		.eabi_attribute 34, 1
  12              		.eabi_attribute 18, 4
  13              		.thumb
  14              		.file	"hal_lld.c"
  15              		.text
  16              	.Ltext0:
  17              		.cfi_sections	.debug_frame
  18              		.section	.text.hal_lld_init,"ax",%progbits
  19              		.align	2
  20              		.p2align 4,,15
  21              		.global	hal_lld_init
  22              		.thumb
  23              		.thumb_func
  24              		.type	hal_lld_init, %function
  25              	hal_lld_init:
  26              	.LFB64:
  27              		.file 1 "../../ChibiOS/os/hal/platforms/STM32F1xx/hal_lld.c"
  28              		.loc 1 99 0
  29              		.cfi_startproc
  30              		@ args = 0, pretend = 0, frame = 0
  31              		@ frame_needed = 0, uses_anonymous_args = 0
  32              		@ link register save eliminated.
  33 0000 70B4     		push	{r4, r5, r6}
  34              	.LCFI0:
  35              		.cfi_def_cfa_offset 12
  36              		.cfi_offset 6, -4
  37              		.cfi_offset 5, -8
  38              		.cfi_offset 4, -12
  39              		.loc 1 102 0
  40 0002 4FF4805C 		mov	ip, #4096
  41 0006 C4F2020C 		movt	ip, 16386
  42 000a 0021     		movs	r1, #0
  43 000c 4FF0FF35 		mov	r5, #-1
  44              		.loc 1 106 0
  45 0010 4EF21002 		movw	r2, #57360
  46 0014 41F63F14 		movw	r4, #6463
  47              		.loc 1 102 0
  48 0018 DCF81000 		ldr	r0, [ip, #16]
  49              		.loc 1 106 0
  50 001c CEF20002 		movt	r2, 57344
  51              		.loc 1 102 0
  52 0020 CCF81050 		str	r5, [ip, #16]
  53              		.loc 1 106 0
  54 0024 C0F20104 		movt	r4, 1
  55              		.loc 1 102 0
  56 0028 CCF81010 		str	r1, [ip, #16]
  57              		.loc 1 103 0
ARM GAS  /tmp/cc7byH5Q.s 			page 2


  58 002c DCF80C60 		ldr	r6, [ip, #12]
  59              		.loc 1 113 0
  60 0030 4EF6F053 		movw	r3, #60912
  61              		.loc 1 103 0
  62 0034 CCF80C50 		str	r5, [ip, #12]
  63 0038 CCF80C10 		str	r1, [ip, #12]
  64              		.loc 1 106 0
  65 003c 5460     		str	r4, [r2, #4]
  66              		.loc 1 107 0
  67 003e 9160     		str	r1, [r2, #8]
  68              		.loc 1 108 0
  69 0040 0721     		movs	r1, #7
  70 0042 1160     		str	r1, [r2, #0]
  71              		.loc 1 113 0
  72 0044 CEF20003 		movt	r3, 57344
  73 0048 D868     		ldr	r0, [r3, #12]
  74              		.loc 1 114 0
  75 004a 4FF48051 		mov	r1, #4096
  76              		.loc 1 113 0
  77 004e 40F08072 		orr	r2, r0, #16777216
  78 0052 DA60     		str	r2, [r3, #12]
  79              		.loc 1 114 0
  80 0054 CEF20001 		movt	r1, 57344
  81 0058 0868     		ldr	r0, [r1, #0]
  82              	.LBB4:
  83              	.LBB5:
  84              		.loc 1 52 0
  85 005a 4FF4E042 		mov	r2, #28672
  86              	.LBE5:
  87              	.LBE4:
  88              		.loc 1 114 0
  89 005e 40F00103 		orr	r3, r0, #1
  90 0062 0B60     		str	r3, [r1, #0]
  91              		.loc 1 117 0
  92 0064 DCF81C10 		ldr	r1, [ip, #28]
  93              	.LBB8:
  94              	.LBB6:
  95              		.loc 1 52 0
  96 0068 C4F20002 		movt	r2, 16384
  97              	.LBE6:
  98              	.LBE8:
  99              		.loc 1 117 0
 100 006c 41F08050 		orr	r0, r1, #268435456
 101 0070 CCF81C00 		str	r0, [ip, #28]
 102              		.loc 1 118 0
 103 0074 DCF81C30 		ldr	r3, [ip, #28]
 104 0078 43F00061 		orr	r1, r3, #134217728
 105 007c CCF81C10 		str	r1, [ip, #28]
 106              	.LBB9:
 107              	.LBB7:
 108              		.loc 1 52 0
 109 0080 1068     		ldr	r0, [r2, #0]
 110 0082 40F48073 		orr	r3, r0, #256
 111 0086 1360     		str	r3, [r2, #0]
 112              	.LBE7:
 113              	.LBE9:
 114              		.loc 1 131 0
ARM GAS  /tmp/cc7byH5Q.s 			page 3


 115 0088 70BC     		pop	{r4, r5, r6}
 116              		.loc 1 124 0
 117 008a FFF7FEBF 		b	dmaInit
 118              		.cfi_endproc
 119              	.LFE64:
 120              		.size	hal_lld_init, .-hal_lld_init
 121 008e 00BF     		.section	.text.stm32_clock_init,"ax",%progbits
 122              		.align	2
 123              		.p2align 4,,15
 124              		.global	stm32_clock_init
 125              		.thumb
 126              		.thumb_func
 127              		.type	stm32_clock_init, %function
 128              	stm32_clock_init:
 129              	.LFB65:
 130              		.loc 1 147 0
 131              		.cfi_startproc
 132              		@ args = 0, pretend = 0, frame = 0
 133              		@ frame_needed = 0, uses_anonymous_args = 0
 134              		@ link register save eliminated.
 135              		.loc 1 152 0
 136 0000 4FF48053 		mov	r3, #4096
 137 0004 C4F20203 		movt	r3, 16386
 138 0008 1868     		ldr	r0, [r3, #0]
 139              		.loc 1 153 0
 140 000a 1946     		mov	r1, r3
 141              		.loc 1 152 0
 142 000c 40F00102 		orr	r2, r0, #1
 143 0010 1A60     		str	r2, [r3, #0]
 144              	.L3:
 145              		.loc 1 153 0 discriminator 1
 146 0012 0A68     		ldr	r2, [r1, #0]
 147 0014 4FF48053 		mov	r3, #4096
 148 0018 9207     		lsls	r2, r2, #30
 149 001a C4F20203 		movt	r3, 16386
 150 001e F8D5     		bpl	.L3
 151              		.loc 1 155 0
 152 0020 1A68     		ldr	r2, [r3, #0]
 153              		.loc 1 156 0
 154 0022 0020     		movs	r0, #0
 155              		.loc 1 155 0
 156 0024 02F0F901 		and	r1, r2, #249
 157 0028 1960     		str	r1, [r3, #0]
 158              		.loc 1 157 0
 159 002a 1946     		mov	r1, r3
 160              		.loc 1 156 0
 161 002c 5860     		str	r0, [r3, #4]
 162              	.L4:
 163              		.loc 1 157 0 discriminator 1
 164 002e 4868     		ldr	r0, [r1, #4]
 165 0030 4FF48053 		mov	r3, #4096
 166 0034 10F00C0F 		tst	r0, #12
 167 0038 C4F20203 		movt	r3, 16386
 168 003c F7D1     		bne	.L4
 169              		.loc 1 163 0
 170 003e 1868     		ldr	r0, [r3, #0]
 171              		.loc 1 167 0
ARM GAS  /tmp/cc7byH5Q.s 			page 4


 172 0040 1946     		mov	r1, r3
 173              		.loc 1 163 0
 174 0042 40F48022 		orr	r2, r0, #262144
 175 0046 1A60     		str	r2, [r3, #0]
 176              		.loc 1 166 0
 177 0048 1868     		ldr	r0, [r3, #0]
 178 004a 40F48032 		orr	r2, r0, #65536
 179 004e 1A60     		str	r2, [r3, #0]
 180              	.L5:
 181              		.loc 1 167 0 discriminator 1
 182 0050 0A68     		ldr	r2, [r1, #0]
 183 0052 4FF48053 		mov	r3, #4096
 184 0056 9003     		lsls	r0, r2, #14
 185 0058 C4F20203 		movt	r3, 16386
 186 005c F8D5     		bpl	.L5
 187              		.loc 1 180 0
 188 005e 5A68     		ldr	r2, [r3, #4]
 189              		.loc 1 182 0
 190 0060 1946     		mov	r1, r3
 191              		.loc 1 180 0
 192 0062 42F4E810 		orr	r0, r2, #1900544
 193 0066 5860     		str	r0, [r3, #4]
 194              		.loc 1 181 0
 195 0068 1A68     		ldr	r2, [r3, #0]
 196 006a 42F08070 		orr	r0, r2, #16777216
 197 006e 1860     		str	r0, [r3, #0]
 198              	.L6:
 199              		.loc 1 182 0 discriminator 1
 200 0070 0868     		ldr	r0, [r1, #0]
 201 0072 4FF48053 		mov	r3, #4096
 202 0076 8201     		lsls	r2, r0, #6
 203 0078 C4F20203 		movt	r3, 16386
 204 007c F8D5     		bpl	.L6
 205              		.loc 1 188 0
 206 007e 4FF46442 		mov	r2, #58368
 207              		.loc 1 198 0
 208 0082 4FF4005C 		mov	ip, #8192
 209              		.loc 1 188 0
 210 0086 C0F21D02 		movt	r2, 29
 211              		.loc 1 198 0
 212 008a 1221     		movs	r1, #18
 213 008c C4F2020C 		movt	ip, 16386
 214              		.loc 1 188 0
 215 0090 5A60     		str	r2, [r3, #4]
 216              		.loc 1 198 0
 217 0092 CCF80010 		str	r1, [ip, #0]
 218              		.loc 1 203 0
 219 0096 5868     		ldr	r0, [r3, #4]
 220              		.loc 1 204 0
 221 0098 1946     		mov	r1, r3
 222              		.loc 1 203 0
 223 009a 40F00202 		orr	r2, r0, #2
 224 009e 5A60     		str	r2, [r3, #4]
 225              	.L7:
 226              		.loc 1 204 0 discriminator 1
 227 00a0 4A68     		ldr	r2, [r1, #4]
 228 00a2 4FF48053 		mov	r3, #4096
ARM GAS  /tmp/cc7byH5Q.s 			page 5


 229 00a6 02F00C00 		and	r0, r2, #12
 230 00aa 0828     		cmp	r0, #8
 231 00ac C4F20203 		movt	r3, 16386
 232 00b0 F6D1     		bne	.L7
 233              		.loc 1 209 0
 234 00b2 1868     		ldr	r0, [r3, #0]
 235 00b4 20F00101 		bic	r1, r0, #1
 236 00b8 1960     		str	r1, [r3, #0]
 237              		.loc 1 212 0
 238 00ba 7047     		bx	lr
 239              		.cfi_endproc
 240              	.LFE65:
 241              		.size	stm32_clock_init, .-stm32_clock_init
 242 00bc AFF30080 		.text
 243              	.Letext0:
 244              		.file 2 "/home/tino/ChibiStudio/tools/GNU Tools ARM Embedded/4.6 2012q2/bin/../lib/gcc/arm-none-ea
 245              		.file 3 "../../ChibiOS/os/ports/common/ARMCMx/nvic.h"
 246              		.file 4 "../../ChibiOS/os/ports/common/ARMCMx/CMSIS/include/core_cm3.h"
 247              		.file 5 "../../ChibiOS/os/hal/platforms/STM32F1xx/stm32f10x.h"
 248              		.section	.debug_info,"",%progbits
 249              	.Ldebug_info0:
 250 0000 B4030000 		.4byte	0x3b4
 251 0004 0200     		.2byte	0x2
 252 0006 00000000 		.4byte	.Ldebug_abbrev0
 253 000a 04       		.byte	0x4
 254 000b 01       		.uleb128 0x1
 255 000c 82000000 		.4byte	.LASF46
 256 0010 01       		.byte	0x1
 257 0011 1F020000 		.4byte	.LASF47
 258 0015 85010000 		.4byte	.LASF48
 259 0019 00000000 		.4byte	0
 260 001d 00000000 		.4byte	0
 261 0021 20000000 		.4byte	.Ldebug_ranges0+0x20
 262 0025 00000000 		.4byte	.Ldebug_line0
 263 0029 02       		.uleb128 0x2
 264 002a 04       		.byte	0x4
 265 002b 05       		.byte	0x5
 266 002c 696E7400 		.ascii	"int\000"
 267 0030 03       		.uleb128 0x3
 268 0031 04       		.byte	0x4
 269 0032 07       		.byte	0x7
 270 0033 73010000 		.4byte	.LASF0
 271 0037 03       		.uleb128 0x3
 272 0038 01       		.byte	0x1
 273 0039 06       		.byte	0x6
 274 003a 75020000 		.4byte	.LASF1
 275 003e 03       		.uleb128 0x3
 276 003f 01       		.byte	0x1
 277 0040 08       		.byte	0x8
 278 0041 34010000 		.4byte	.LASF2
 279 0045 03       		.uleb128 0x3
 280 0046 02       		.byte	0x2
 281 0047 05       		.byte	0x5
 282 0048 4B010000 		.4byte	.LASF3
 283 004c 04       		.uleb128 0x4
 284 004d F3010000 		.4byte	.LASF5
 285 0051 02       		.byte	0x2
ARM GAS  /tmp/cc7byH5Q.s 			page 6


 286 0052 36       		.byte	0x36
 287 0053 57000000 		.4byte	0x57
 288 0057 03       		.uleb128 0x3
 289 0058 02       		.byte	0x2
 290 0059 07       		.byte	0x7
 291 005a E4000000 		.4byte	.LASF4
 292 005e 04       		.uleb128 0x4
 293 005f D5010000 		.4byte	.LASF6
 294 0063 02       		.byte	0x2
 295 0064 4F       		.byte	0x4f
 296 0065 69000000 		.4byte	0x69
 297 0069 03       		.uleb128 0x3
 298 006a 04       		.byte	0x4
 299 006b 05       		.byte	0x5
 300 006c 67020000 		.4byte	.LASF7
 301 0070 04       		.uleb128 0x4
 302 0071 5E020000 		.4byte	.LASF8
 303 0075 02       		.byte	0x2
 304 0076 50       		.byte	0x50
 305 0077 7B000000 		.4byte	0x7b
 306 007b 03       		.uleb128 0x3
 307 007c 04       		.byte	0x4
 308 007d 07       		.byte	0x7
 309 007e D2000000 		.4byte	.LASF9
 310 0082 03       		.uleb128 0x3
 311 0083 08       		.byte	0x8
 312 0084 05       		.byte	0x5
 313 0085 00000000 		.4byte	.LASF10
 314 0089 03       		.uleb128 0x3
 315 008a 08       		.byte	0x8
 316 008b 07       		.byte	0x7
 317 008c 5C000000 		.4byte	.LASF11
 318 0090 03       		.uleb128 0x3
 319 0091 01       		.byte	0x1
 320 0092 02       		.byte	0x2
 321 0093 81020000 		.4byte	.LASF12
 322 0097 05       		.uleb128 0x5
 323 0098 70000000 		.4byte	0x70
 324 009c 05       		.uleb128 0x5
 325 009d 7B000000 		.4byte	0x7b
 326 00a1 06       		.uleb128 0x6
 327 00a2 10       		.byte	0x10
 328 00a3 03       		.byte	0x3
 329 00a4 EA       		.byte	0xea
 330 00a5 E2000000 		.4byte	0xe2
 331 00a9 07       		.uleb128 0x7
 332 00aa 26010000 		.4byte	.LASF13
 333 00ae 03       		.byte	0x3
 334 00af EB       		.byte	0xeb
 335 00b0 9C000000 		.4byte	0x9c
 336 00b4 02       		.byte	0x2
 337 00b5 23       		.byte	0x23
 338 00b6 00       		.uleb128 0
 339 00b7 07       		.uleb128 0x7
 340 00b8 6D010000 		.4byte	.LASF14
 341 00bc 03       		.byte	0x3
 342 00bd EC       		.byte	0xec
ARM GAS  /tmp/cc7byH5Q.s 			page 7


 343 00be 9C000000 		.4byte	0x9c
 344 00c2 02       		.byte	0x2
 345 00c3 23       		.byte	0x23
 346 00c4 04       		.uleb128 0x4
 347 00c5 07       		.uleb128 0x7
 348 00c6 C3010000 		.4byte	.LASF15
 349 00ca 03       		.byte	0x3
 350 00cb ED       		.byte	0xed
 351 00cc 9C000000 		.4byte	0x9c
 352 00d0 02       		.byte	0x2
 353 00d1 23       		.byte	0x23
 354 00d2 08       		.uleb128 0x8
 355 00d3 07       		.uleb128 0x7
 356 00d4 7C000000 		.4byte	.LASF16
 357 00d8 03       		.byte	0x3
 358 00d9 EE       		.byte	0xee
 359 00da 9C000000 		.4byte	0x9c
 360 00de 02       		.byte	0x2
 361 00df 23       		.byte	0x23
 362 00e0 0C       		.uleb128 0xc
 363 00e1 00       		.byte	0
 364 00e2 04       		.uleb128 0x4
 365 00e3 EB010000 		.4byte	.LASF17
 366 00e7 03       		.byte	0x3
 367 00e8 EF       		.byte	0xef
 368 00e9 A1000000 		.4byte	0xa1
 369 00ed 06       		.uleb128 0x6
 370 00ee 20       		.byte	0x20
 371 00ef 03       		.byte	0x3
 372 00f0 FF       		.byte	0xff
 373 00f1 6E010000 		.4byte	0x16e
 374 00f5 08       		.uleb128 0x8
 375 00f6 C9010000 		.4byte	.LASF18
 376 00fa 03       		.byte	0x3
 377 00fb 0001     		.2byte	0x100
 378 00fd 9C000000 		.4byte	0x9c
 379 0101 02       		.byte	0x2
 380 0102 23       		.byte	0x23
 381 0103 00       		.uleb128 0
 382 0104 08       		.uleb128 0x8
 383 0105 CB000000 		.4byte	.LASF19
 384 0109 03       		.byte	0x3
 385 010a 0101     		.2byte	0x101
 386 010c 9C000000 		.4byte	0x9c
 387 0110 02       		.byte	0x2
 388 0111 23       		.byte	0x23
 389 0112 04       		.uleb128 0x4
 390 0113 08       		.uleb128 0x8
 391 0114 12010000 		.4byte	.LASF20
 392 0118 03       		.byte	0x3
 393 0119 0201     		.2byte	0x102
 394 011b 9C000000 		.4byte	0x9c
 395 011f 02       		.byte	0x2
 396 0120 23       		.byte	0x23
 397 0121 08       		.uleb128 0x8
 398 0122 08       		.uleb128 0x8
 399 0123 CE010000 		.4byte	.LASF21
ARM GAS  /tmp/cc7byH5Q.s 			page 8


 400 0127 03       		.byte	0x3
 401 0128 0301     		.2byte	0x103
 402 012a 9C000000 		.4byte	0x9c
 403 012e 02       		.byte	0x2
 404 012f 23       		.byte	0x23
 405 0130 0C       		.uleb128 0xc
 406 0131 08       		.uleb128 0x8
 407 0132 53000000 		.4byte	.LASF22
 408 0136 03       		.byte	0x3
 409 0137 0401     		.2byte	0x104
 410 0139 9C000000 		.4byte	0x9c
 411 013d 02       		.byte	0x2
 412 013e 23       		.byte	0x23
 413 013f 10       		.uleb128 0x10
 414 0140 08       		.uleb128 0x8
 415 0141 55010000 		.4byte	.LASF23
 416 0145 03       		.byte	0x3
 417 0146 0501     		.2byte	0x105
 418 0148 9C000000 		.4byte	0x9c
 419 014c 02       		.byte	0x2
 420 014d 23       		.byte	0x23
 421 014e 14       		.uleb128 0x14
 422 014f 08       		.uleb128 0x8
 423 0150 46000000 		.4byte	.LASF24
 424 0154 03       		.byte	0x3
 425 0155 0601     		.2byte	0x106
 426 0157 9C000000 		.4byte	0x9c
 427 015b 02       		.byte	0x2
 428 015c 23       		.byte	0x23
 429 015d 18       		.uleb128 0x18
 430 015e 08       		.uleb128 0x8
 431 015f 24000000 		.4byte	.LASF25
 432 0163 03       		.byte	0x3
 433 0164 0701     		.2byte	0x107
 434 0166 9C000000 		.4byte	0x9c
 435 016a 02       		.byte	0x2
 436 016b 23       		.byte	0x23
 437 016c 1C       		.uleb128 0x1c
 438 016d 00       		.byte	0
 439 016e 09       		.uleb128 0x9
 440 016f 37000000 		.4byte	.LASF26
 441 0173 03       		.byte	0x3
 442 0174 0801     		.2byte	0x108
 443 0176 ED000000 		.4byte	0xed
 444 017a 03       		.uleb128 0x3
 445 017b 01       		.byte	0x1
 446 017c 08       		.byte	0x8
 447 017d 80010000 		.4byte	.LASF27
 448 0181 0A       		.uleb128 0xa
 449 0182 97000000 		.4byte	0x97
 450 0186 0B       		.uleb128 0xb
 451 0187 10       		.byte	0x10
 452 0188 04       		.byte	0x4
 453 0189 3F02     		.2byte	0x23f
 454 018b CC010000 		.4byte	0x1cc
 455 018f 08       		.uleb128 0x8
 456 0190 C9010000 		.4byte	.LASF18
ARM GAS  /tmp/cc7byH5Q.s 			page 9


 457 0194 04       		.byte	0x4
 458 0195 4102     		.2byte	0x241
 459 0197 97000000 		.4byte	0x97
 460 019b 02       		.byte	0x2
 461 019c 23       		.byte	0x23
 462 019d 00       		.uleb128 0
 463 019e 08       		.uleb128 0x8
 464 019f 09020000 		.4byte	.LASF28
 465 01a3 04       		.byte	0x4
 466 01a4 4202     		.2byte	0x242
 467 01a6 97000000 		.4byte	0x97
 468 01aa 02       		.byte	0x2
 469 01ab 23       		.byte	0x23
 470 01ac 04       		.uleb128 0x4
 471 01ad 0C       		.uleb128 0xc
 472 01ae 56414C00 		.ascii	"VAL\000"
 473 01b2 04       		.byte	0x4
 474 01b3 4302     		.2byte	0x243
 475 01b5 97000000 		.4byte	0x97
 476 01b9 02       		.byte	0x2
 477 01ba 23       		.byte	0x23
 478 01bb 08       		.uleb128 0x8
 479 01bc 08       		.uleb128 0x8
 480 01bd DD010000 		.4byte	.LASF29
 481 01c1 04       		.byte	0x4
 482 01c2 4402     		.2byte	0x244
 483 01c4 81010000 		.4byte	0x181
 484 01c8 02       		.byte	0x2
 485 01c9 23       		.byte	0x23
 486 01ca 0C       		.uleb128 0xc
 487 01cb 00       		.byte	0
 488 01cc 09       		.uleb128 0x9
 489 01cd B6010000 		.4byte	.LASF30
 490 01d1 04       		.byte	0x4
 491 01d2 4502     		.2byte	0x245
 492 01d4 86010000 		.4byte	0x186
 493 01d8 05       		.uleb128 0x5
 494 01d9 5E000000 		.4byte	0x5e
 495 01dd 0B       		.uleb128 0xb
 496 01de 24       		.byte	0x24
 497 01df 05       		.byte	0x5
 498 01e0 9403     		.2byte	0x394
 499 01e2 6B020000 		.4byte	0x26b
 500 01e6 0C       		.uleb128 0xc
 501 01e7 41435200 		.ascii	"ACR\000"
 502 01eb 05       		.byte	0x5
 503 01ec 9603     		.2byte	0x396
 504 01ee 97000000 		.4byte	0x97
 505 01f2 02       		.byte	0x2
 506 01f3 23       		.byte	0x23
 507 01f4 00       		.uleb128 0
 508 01f5 08       		.uleb128 0x8
 509 01f6 70020000 		.4byte	.LASF31
 510 01fa 05       		.byte	0x5
 511 01fb 9703     		.2byte	0x397
 512 01fd 97000000 		.4byte	0x97
 513 0201 02       		.byte	0x2
ARM GAS  /tmp/cc7byH5Q.s 			page 10


 514 0202 23       		.byte	0x23
 515 0203 04       		.uleb128 0x4
 516 0204 08       		.uleb128 0x8
 517 0205 2C010000 		.4byte	.LASF32
 518 0209 05       		.byte	0x5
 519 020a 9803     		.2byte	0x398
 520 020c 97000000 		.4byte	0x97
 521 0210 02       		.byte	0x2
 522 0211 23       		.byte	0x23
 523 0212 08       		.uleb128 0x8
 524 0213 0C       		.uleb128 0xc
 525 0214 535200   		.ascii	"SR\000"
 526 0217 05       		.byte	0x5
 527 0218 9903     		.2byte	0x399
 528 021a 97000000 		.4byte	0x97
 529 021e 02       		.byte	0x2
 530 021f 23       		.byte	0x23
 531 0220 0C       		.uleb128 0xc
 532 0221 0C       		.uleb128 0xc
 533 0222 435200   		.ascii	"CR\000"
 534 0225 05       		.byte	0x5
 535 0226 9A03     		.2byte	0x39a
 536 0228 97000000 		.4byte	0x97
 537 022c 02       		.byte	0x2
 538 022d 23       		.byte	0x23
 539 022e 10       		.uleb128 0x10
 540 022f 0C       		.uleb128 0xc
 541 0230 415200   		.ascii	"AR\000"
 542 0233 05       		.byte	0x5
 543 0234 9B03     		.2byte	0x39b
 544 0236 97000000 		.4byte	0x97
 545 023a 02       		.byte	0x2
 546 023b 23       		.byte	0x23
 547 023c 14       		.uleb128 0x14
 548 023d 08       		.uleb128 0x8
 549 023e 42010000 		.4byte	.LASF33
 550 0242 05       		.byte	0x5
 551 0243 9C03     		.2byte	0x39c
 552 0245 97000000 		.4byte	0x97
 553 0249 02       		.byte	0x2
 554 024a 23       		.byte	0x23
 555 024b 18       		.uleb128 0x18
 556 024c 0C       		.uleb128 0xc
 557 024d 4F425200 		.ascii	"OBR\000"
 558 0251 05       		.byte	0x5
 559 0252 9D03     		.2byte	0x39d
 560 0254 97000000 		.4byte	0x97
 561 0258 02       		.byte	0x2
 562 0259 23       		.byte	0x23
 563 025a 1C       		.uleb128 0x1c
 564 025b 08       		.uleb128 0x8
 565 025c 4E000000 		.4byte	.LASF34
 566 0260 05       		.byte	0x5
 567 0261 9E03     		.2byte	0x39e
 568 0263 97000000 		.4byte	0x97
 569 0267 02       		.byte	0x2
 570 0268 23       		.byte	0x23
ARM GAS  /tmp/cc7byH5Q.s 			page 11


 571 0269 20       		.uleb128 0x20
 572 026a 00       		.byte	0
 573 026b 09       		.uleb128 0x9
 574 026c 29000000 		.4byte	.LASF35
 575 0270 05       		.byte	0x5
 576 0271 A703     		.2byte	0x3a7
 577 0273 DD010000 		.4byte	0x1dd
 578 0277 0B       		.uleb128 0xb
 579 0278 08       		.byte	0x8
 580 0279 05       		.byte	0x5
 581 027a 3904     		.2byte	0x439
 582 027c 9E020000 		.4byte	0x29e
 583 0280 0C       		.uleb128 0xc
 584 0281 435200   		.ascii	"CR\000"
 585 0284 05       		.byte	0x5
 586 0285 3B04     		.2byte	0x43b
 587 0287 97000000 		.4byte	0x97
 588 028b 02       		.byte	0x2
 589 028c 23       		.byte	0x23
 590 028d 00       		.uleb128 0
 591 028e 0C       		.uleb128 0xc
 592 028f 43535200 		.ascii	"CSR\000"
 593 0293 05       		.byte	0x5
 594 0294 3C04     		.2byte	0x43c
 595 0296 97000000 		.4byte	0x97
 596 029a 02       		.byte	0x2
 597 029b 23       		.byte	0x23
 598 029c 04       		.uleb128 0x4
 599 029d 00       		.byte	0
 600 029e 09       		.uleb128 0x9
 601 029f 0E000000 		.4byte	.LASF36
 602 02a3 05       		.byte	0x5
 603 02a4 3D04     		.2byte	0x43d
 604 02a6 77020000 		.4byte	0x277
 605 02aa 0B       		.uleb128 0xb
 606 02ab 28       		.byte	0x28
 607 02ac 05       		.byte	0x5
 608 02ad 4304     		.2byte	0x443
 609 02af 49030000 		.4byte	0x349
 610 02b3 0C       		.uleb128 0xc
 611 02b4 435200   		.ascii	"CR\000"
 612 02b7 05       		.byte	0x5
 613 02b8 4504     		.2byte	0x445
 614 02ba 97000000 		.4byte	0x97
 615 02be 02       		.byte	0x2
 616 02bf 23       		.byte	0x23
 617 02c0 00       		.uleb128 0
 618 02c1 08       		.uleb128 0x8
 619 02c2 1F000000 		.4byte	.LASF37
 620 02c6 05       		.byte	0x5
 621 02c7 4604     		.2byte	0x446
 622 02c9 97000000 		.4byte	0x97
 623 02cd 02       		.byte	0x2
 624 02ce 23       		.byte	0x23
 625 02cf 04       		.uleb128 0x4
 626 02d0 0C       		.uleb128 0xc
 627 02d1 43495200 		.ascii	"CIR\000"
ARM GAS  /tmp/cc7byH5Q.s 			page 12


 628 02d5 05       		.byte	0x5
 629 02d6 4704     		.2byte	0x447
 630 02d8 97000000 		.4byte	0x97
 631 02dc 02       		.byte	0x2
 632 02dd 23       		.byte	0x23
 633 02de 08       		.uleb128 0x8
 634 02df 08       		.uleb128 0x8
 635 02e0 64010000 		.4byte	.LASF38
 636 02e4 05       		.byte	0x5
 637 02e5 4804     		.2byte	0x448
 638 02e7 97000000 		.4byte	0x97
 639 02eb 02       		.byte	0x2
 640 02ec 23       		.byte	0x23
 641 02ed 0C       		.uleb128 0xc
 642 02ee 08       		.uleb128 0x8
 643 02ef 73000000 		.4byte	.LASF39
 644 02f3 05       		.byte	0x5
 645 02f4 4904     		.2byte	0x449
 646 02f6 97000000 		.4byte	0x97
 647 02fa 02       		.byte	0x2
 648 02fb 23       		.byte	0x23
 649 02fc 10       		.uleb128 0x10
 650 02fd 08       		.uleb128 0x8
 651 02fe 3F000000 		.4byte	.LASF40
 652 0302 05       		.byte	0x5
 653 0303 4A04     		.2byte	0x44a
 654 0305 97000000 		.4byte	0x97
 655 0309 02       		.byte	0x2
 656 030a 23       		.byte	0x23
 657 030b 14       		.uleb128 0x14
 658 030c 08       		.uleb128 0x8
 659 030d E3010000 		.4byte	.LASF41
 660 0311 05       		.byte	0x5
 661 0312 4B04     		.2byte	0x44b
 662 0314 97000000 		.4byte	0x97
 663 0318 02       		.byte	0x2
 664 0319 23       		.byte	0x23
 665 031a 18       		.uleb128 0x18
 666 031b 08       		.uleb128 0x8
 667 031c 5C010000 		.4byte	.LASF42
 668 0320 05       		.byte	0x5
 669 0321 4C04     		.2byte	0x44c
 670 0323 97000000 		.4byte	0x97
 671 0327 02       		.byte	0x2
 672 0328 23       		.byte	0x23
 673 0329 1C       		.uleb128 0x1c
 674 032a 08       		.uleb128 0x8
 675 032b 1A000000 		.4byte	.LASF43
 676 032f 05       		.byte	0x5
 677 0330 4D04     		.2byte	0x44d
 678 0332 97000000 		.4byte	0x97
 679 0336 02       		.byte	0x2
 680 0337 23       		.byte	0x23
 681 0338 20       		.uleb128 0x20
 682 0339 0C       		.uleb128 0xc
 683 033a 43535200 		.ascii	"CSR\000"
 684 033e 05       		.byte	0x5
ARM GAS  /tmp/cc7byH5Q.s 			page 13


 685 033f 4E04     		.2byte	0x44e
 686 0341 97000000 		.4byte	0x97
 687 0345 02       		.byte	0x2
 688 0346 23       		.byte	0x23
 689 0347 24       		.uleb128 0x24
 690 0348 00       		.byte	0
 691 0349 09       		.uleb128 0x9
 692 034a 52020000 		.4byte	.LASF44
 693 034e 05       		.byte	0x5
 694 034f 5904     		.2byte	0x459
 695 0351 AA020000 		.4byte	0x2aa
 696 0355 0D       		.uleb128 0xd
 697 0356 F7000000 		.4byte	.LASF49
 698 035a 01       		.byte	0x1
 699 035b 31       		.byte	0x31
 700 035c 01       		.byte	0x1
 701 035d 01       		.byte	0x1
 702 035e 0E       		.uleb128 0xe
 703 035f 01       		.byte	0x1
 704 0360 FC010000 		.4byte	.LASF50
 705 0364 01       		.byte	0x1
 706 0365 63       		.byte	0x63
 707 0366 01       		.byte	0x1
 708 0367 00000000 		.4byte	.LFB64
 709 036b 8E000000 		.4byte	.LFE64
 710 036f 00000000 		.4byte	.LLST0
 711 0373 87030000 		.4byte	0x387
 712 0377 0F       		.uleb128 0xf
 713 0378 55030000 		.4byte	0x355
 714 037c 5A000000 		.4byte	.LBB4
 715 0380 00000000 		.4byte	.Ldebug_ranges0+0
 716 0384 01       		.byte	0x1
 717 0385 79       		.byte	0x79
 718 0386 00       		.byte	0
 719 0387 10       		.uleb128 0x10
 720 0388 01       		.byte	0x1
 721 0389 0E020000 		.4byte	.LASF51
 722 038d 01       		.byte	0x1
 723 038e 93       		.byte	0x93
 724 038f 01       		.byte	0x1
 725 0390 00000000 		.4byte	.LFB65
 726 0394 BC000000 		.4byte	.LFE65
 727 0398 02       		.byte	0x2
 728 0399 7D       		.byte	0x7d
 729 039a 00       		.sleb128 0
 730 039b 11       		.uleb128 0x11
 731 039c 19010000 		.4byte	.LASF45
 732 03a0 04       		.byte	0x4
 733 03a1 0706     		.2byte	0x607
 734 03a3 D8010000 		.4byte	0x1d8
 735 03a7 01       		.byte	0x1
 736 03a8 01       		.byte	0x1
 737 03a9 11       		.uleb128 0x11
 738 03aa 19010000 		.4byte	.LASF45
 739 03ae 04       		.byte	0x4
 740 03af 0706     		.2byte	0x607
 741 03b1 D8010000 		.4byte	0x1d8
ARM GAS  /tmp/cc7byH5Q.s 			page 14


 742 03b5 01       		.byte	0x1
 743 03b6 01       		.byte	0x1
 744 03b7 00       		.byte	0
 745              		.section	.debug_abbrev,"",%progbits
 746              	.Ldebug_abbrev0:
 747 0000 01       		.uleb128 0x1
 748 0001 11       		.uleb128 0x11
 749 0002 01       		.byte	0x1
 750 0003 25       		.uleb128 0x25
 751 0004 0E       		.uleb128 0xe
 752 0005 13       		.uleb128 0x13
 753 0006 0B       		.uleb128 0xb
 754 0007 03       		.uleb128 0x3
 755 0008 0E       		.uleb128 0xe
 756 0009 1B       		.uleb128 0x1b
 757 000a 0E       		.uleb128 0xe
 758 000b 11       		.uleb128 0x11
 759 000c 01       		.uleb128 0x1
 760 000d 52       		.uleb128 0x52
 761 000e 01       		.uleb128 0x1
 762 000f 55       		.uleb128 0x55
 763 0010 06       		.uleb128 0x6
 764 0011 10       		.uleb128 0x10
 765 0012 06       		.uleb128 0x6
 766 0013 00       		.byte	0
 767 0014 00       		.byte	0
 768 0015 02       		.uleb128 0x2
 769 0016 24       		.uleb128 0x24
 770 0017 00       		.byte	0
 771 0018 0B       		.uleb128 0xb
 772 0019 0B       		.uleb128 0xb
 773 001a 3E       		.uleb128 0x3e
 774 001b 0B       		.uleb128 0xb
 775 001c 03       		.uleb128 0x3
 776 001d 08       		.uleb128 0x8
 777 001e 00       		.byte	0
 778 001f 00       		.byte	0
 779 0020 03       		.uleb128 0x3
 780 0021 24       		.uleb128 0x24
 781 0022 00       		.byte	0
 782 0023 0B       		.uleb128 0xb
 783 0024 0B       		.uleb128 0xb
 784 0025 3E       		.uleb128 0x3e
 785 0026 0B       		.uleb128 0xb
 786 0027 03       		.uleb128 0x3
 787 0028 0E       		.uleb128 0xe
 788 0029 00       		.byte	0
 789 002a 00       		.byte	0
 790 002b 04       		.uleb128 0x4
 791 002c 16       		.uleb128 0x16
 792 002d 00       		.byte	0
 793 002e 03       		.uleb128 0x3
 794 002f 0E       		.uleb128 0xe
 795 0030 3A       		.uleb128 0x3a
 796 0031 0B       		.uleb128 0xb
 797 0032 3B       		.uleb128 0x3b
 798 0033 0B       		.uleb128 0xb
ARM GAS  /tmp/cc7byH5Q.s 			page 15


 799 0034 49       		.uleb128 0x49
 800 0035 13       		.uleb128 0x13
 801 0036 00       		.byte	0
 802 0037 00       		.byte	0
 803 0038 05       		.uleb128 0x5
 804 0039 35       		.uleb128 0x35
 805 003a 00       		.byte	0
 806 003b 49       		.uleb128 0x49
 807 003c 13       		.uleb128 0x13
 808 003d 00       		.byte	0
 809 003e 00       		.byte	0
 810 003f 06       		.uleb128 0x6
 811 0040 13       		.uleb128 0x13
 812 0041 01       		.byte	0x1
 813 0042 0B       		.uleb128 0xb
 814 0043 0B       		.uleb128 0xb
 815 0044 3A       		.uleb128 0x3a
 816 0045 0B       		.uleb128 0xb
 817 0046 3B       		.uleb128 0x3b
 818 0047 0B       		.uleb128 0xb
 819 0048 01       		.uleb128 0x1
 820 0049 13       		.uleb128 0x13
 821 004a 00       		.byte	0
 822 004b 00       		.byte	0
 823 004c 07       		.uleb128 0x7
 824 004d 0D       		.uleb128 0xd
 825 004e 00       		.byte	0
 826 004f 03       		.uleb128 0x3
 827 0050 0E       		.uleb128 0xe
 828 0051 3A       		.uleb128 0x3a
 829 0052 0B       		.uleb128 0xb
 830 0053 3B       		.uleb128 0x3b
 831 0054 0B       		.uleb128 0xb
 832 0055 49       		.uleb128 0x49
 833 0056 13       		.uleb128 0x13
 834 0057 38       		.uleb128 0x38
 835 0058 0A       		.uleb128 0xa
 836 0059 00       		.byte	0
 837 005a 00       		.byte	0
 838 005b 08       		.uleb128 0x8
 839 005c 0D       		.uleb128 0xd
 840 005d 00       		.byte	0
 841 005e 03       		.uleb128 0x3
 842 005f 0E       		.uleb128 0xe
 843 0060 3A       		.uleb128 0x3a
 844 0061 0B       		.uleb128 0xb
 845 0062 3B       		.uleb128 0x3b
 846 0063 05       		.uleb128 0x5
 847 0064 49       		.uleb128 0x49
 848 0065 13       		.uleb128 0x13
 849 0066 38       		.uleb128 0x38
 850 0067 0A       		.uleb128 0xa
 851 0068 00       		.byte	0
 852 0069 00       		.byte	0
 853 006a 09       		.uleb128 0x9
 854 006b 16       		.uleb128 0x16
 855 006c 00       		.byte	0
ARM GAS  /tmp/cc7byH5Q.s 			page 16


 856 006d 03       		.uleb128 0x3
 857 006e 0E       		.uleb128 0xe
 858 006f 3A       		.uleb128 0x3a
 859 0070 0B       		.uleb128 0xb
 860 0071 3B       		.uleb128 0x3b
 861 0072 05       		.uleb128 0x5
 862 0073 49       		.uleb128 0x49
 863 0074 13       		.uleb128 0x13
 864 0075 00       		.byte	0
 865 0076 00       		.byte	0
 866 0077 0A       		.uleb128 0xa
 867 0078 26       		.uleb128 0x26
 868 0079 00       		.byte	0
 869 007a 49       		.uleb128 0x49
 870 007b 13       		.uleb128 0x13
 871 007c 00       		.byte	0
 872 007d 00       		.byte	0
 873 007e 0B       		.uleb128 0xb
 874 007f 13       		.uleb128 0x13
 875 0080 01       		.byte	0x1
 876 0081 0B       		.uleb128 0xb
 877 0082 0B       		.uleb128 0xb
 878 0083 3A       		.uleb128 0x3a
 879 0084 0B       		.uleb128 0xb
 880 0085 3B       		.uleb128 0x3b
 881 0086 05       		.uleb128 0x5
 882 0087 01       		.uleb128 0x1
 883 0088 13       		.uleb128 0x13
 884 0089 00       		.byte	0
 885 008a 00       		.byte	0
 886 008b 0C       		.uleb128 0xc
 887 008c 0D       		.uleb128 0xd
 888 008d 00       		.byte	0
 889 008e 03       		.uleb128 0x3
 890 008f 08       		.uleb128 0x8
 891 0090 3A       		.uleb128 0x3a
 892 0091 0B       		.uleb128 0xb
 893 0092 3B       		.uleb128 0x3b
 894 0093 05       		.uleb128 0x5
 895 0094 49       		.uleb128 0x49
 896 0095 13       		.uleb128 0x13
 897 0096 38       		.uleb128 0x38
 898 0097 0A       		.uleb128 0xa
 899 0098 00       		.byte	0
 900 0099 00       		.byte	0
 901 009a 0D       		.uleb128 0xd
 902 009b 2E       		.uleb128 0x2e
 903 009c 00       		.byte	0
 904 009d 03       		.uleb128 0x3
 905 009e 0E       		.uleb128 0xe
 906 009f 3A       		.uleb128 0x3a
 907 00a0 0B       		.uleb128 0xb
 908 00a1 3B       		.uleb128 0x3b
 909 00a2 0B       		.uleb128 0xb
 910 00a3 27       		.uleb128 0x27
 911 00a4 0C       		.uleb128 0xc
 912 00a5 20       		.uleb128 0x20
ARM GAS  /tmp/cc7byH5Q.s 			page 17


 913 00a6 0B       		.uleb128 0xb
 914 00a7 00       		.byte	0
 915 00a8 00       		.byte	0
 916 00a9 0E       		.uleb128 0xe
 917 00aa 2E       		.uleb128 0x2e
 918 00ab 01       		.byte	0x1
 919 00ac 3F       		.uleb128 0x3f
 920 00ad 0C       		.uleb128 0xc
 921 00ae 03       		.uleb128 0x3
 922 00af 0E       		.uleb128 0xe
 923 00b0 3A       		.uleb128 0x3a
 924 00b1 0B       		.uleb128 0xb
 925 00b2 3B       		.uleb128 0x3b
 926 00b3 0B       		.uleb128 0xb
 927 00b4 27       		.uleb128 0x27
 928 00b5 0C       		.uleb128 0xc
 929 00b6 11       		.uleb128 0x11
 930 00b7 01       		.uleb128 0x1
 931 00b8 12       		.uleb128 0x12
 932 00b9 01       		.uleb128 0x1
 933 00ba 40       		.uleb128 0x40
 934 00bb 06       		.uleb128 0x6
 935 00bc 01       		.uleb128 0x1
 936 00bd 13       		.uleb128 0x13
 937 00be 00       		.byte	0
 938 00bf 00       		.byte	0
 939 00c0 0F       		.uleb128 0xf
 940 00c1 1D       		.uleb128 0x1d
 941 00c2 00       		.byte	0
 942 00c3 31       		.uleb128 0x31
 943 00c4 13       		.uleb128 0x13
 944 00c5 52       		.uleb128 0x52
 945 00c6 01       		.uleb128 0x1
 946 00c7 55       		.uleb128 0x55
 947 00c8 06       		.uleb128 0x6
 948 00c9 58       		.uleb128 0x58
 949 00ca 0B       		.uleb128 0xb
 950 00cb 59       		.uleb128 0x59
 951 00cc 0B       		.uleb128 0xb
 952 00cd 00       		.byte	0
 953 00ce 00       		.byte	0
 954 00cf 10       		.uleb128 0x10
 955 00d0 2E       		.uleb128 0x2e
 956 00d1 00       		.byte	0
 957 00d2 3F       		.uleb128 0x3f
 958 00d3 0C       		.uleb128 0xc
 959 00d4 03       		.uleb128 0x3
 960 00d5 0E       		.uleb128 0xe
 961 00d6 3A       		.uleb128 0x3a
 962 00d7 0B       		.uleb128 0xb
 963 00d8 3B       		.uleb128 0x3b
 964 00d9 0B       		.uleb128 0xb
 965 00da 27       		.uleb128 0x27
 966 00db 0C       		.uleb128 0xc
 967 00dc 11       		.uleb128 0x11
 968 00dd 01       		.uleb128 0x1
 969 00de 12       		.uleb128 0x12
ARM GAS  /tmp/cc7byH5Q.s 			page 18


 970 00df 01       		.uleb128 0x1
 971 00e0 40       		.uleb128 0x40
 972 00e1 0A       		.uleb128 0xa
 973 00e2 00       		.byte	0
 974 00e3 00       		.byte	0
 975 00e4 11       		.uleb128 0x11
 976 00e5 34       		.uleb128 0x34
 977 00e6 00       		.byte	0
 978 00e7 03       		.uleb128 0x3
 979 00e8 0E       		.uleb128 0xe
 980 00e9 3A       		.uleb128 0x3a
 981 00ea 0B       		.uleb128 0xb
 982 00eb 3B       		.uleb128 0x3b
 983 00ec 05       		.uleb128 0x5
 984 00ed 49       		.uleb128 0x49
 985 00ee 13       		.uleb128 0x13
 986 00ef 3F       		.uleb128 0x3f
 987 00f0 0C       		.uleb128 0xc
 988 00f1 3C       		.uleb128 0x3c
 989 00f2 0C       		.uleb128 0xc
 990 00f3 00       		.byte	0
 991 00f4 00       		.byte	0
 992 00f5 00       		.byte	0
 993              		.section	.debug_loc,"",%progbits
 994              	.Ldebug_loc0:
 995              	.LLST0:
 996 0000 00000000 		.4byte	.LFB64
 997 0004 02000000 		.4byte	.LCFI0
 998 0008 0200     		.2byte	0x2
 999 000a 7D       		.byte	0x7d
 1000 000b 00       		.sleb128 0
 1001 000c 02000000 		.4byte	.LCFI0
 1002 0010 8E000000 		.4byte	.LFE64
 1003 0014 0200     		.2byte	0x2
 1004 0016 7D       		.byte	0x7d
 1005 0017 0C       		.sleb128 12
 1006 0018 00000000 		.4byte	0
 1007 001c 00000000 		.4byte	0
 1008              		.section	.debug_aranges,"",%progbits
 1009 0000 24000000 		.4byte	0x24
 1010 0004 0200     		.2byte	0x2
 1011 0006 00000000 		.4byte	.Ldebug_info0
 1012 000a 04       		.byte	0x4
 1013 000b 00       		.byte	0
 1014 000c 0000     		.2byte	0
 1015 000e 0000     		.2byte	0
 1016 0010 00000000 		.4byte	.LFB64
 1017 0014 8E000000 		.4byte	.LFE64-.LFB64
 1018 0018 00000000 		.4byte	.LFB65
 1019 001c BC000000 		.4byte	.LFE65-.LFB65
 1020 0020 00000000 		.4byte	0
 1021 0024 00000000 		.4byte	0
 1022              		.section	.debug_ranges,"",%progbits
 1023              	.Ldebug_ranges0:
 1024 0000 5A000000 		.4byte	.LBB4
 1025 0004 5E000000 		.4byte	.LBE4
 1026 0008 68000000 		.4byte	.LBB8
ARM GAS  /tmp/cc7byH5Q.s 			page 19


 1027 000c 6C000000 		.4byte	.LBE8
 1028 0010 80000000 		.4byte	.LBB9
 1029 0014 88000000 		.4byte	.LBE9
 1030 0018 00000000 		.4byte	0
 1031 001c 00000000 		.4byte	0
 1032 0020 00000000 		.4byte	.LFB64
 1033 0024 8E000000 		.4byte	.LFE64
 1034 0028 00000000 		.4byte	.LFB65
 1035 002c BC000000 		.4byte	.LFE65
 1036 0030 00000000 		.4byte	0
 1037 0034 00000000 		.4byte	0
 1038              		.section	.debug_line,"",%progbits
 1039              	.Ldebug_line0:
 1040 0000 EE010000 		.section	.debug_str,"MS",%progbits,1
 1040      02005801 
 1040      00000201 
 1040      FB0E0D00 
 1040      01010101 
 1041              	.LASF10:
 1042 0000 6C6F6E67 		.ascii	"long long int\000"
 1042      206C6F6E 
 1042      6720696E 
 1042      7400
 1043              	.LASF36:
 1044 000e 5057525F 		.ascii	"PWR_TypeDef\000"
 1044      54797065 
 1044      44656600 
 1045              	.LASF43:
 1046 001a 42444352 		.ascii	"BDCR\000"
 1046      00
 1047              	.LASF37:
 1048 001f 43464752 		.ascii	"CFGR\000"
 1048      00
 1049              	.LASF25:
 1050 0024 50435352 		.ascii	"PCSR\000"
 1050      00
 1051              	.LASF35:
 1052 0029 464C4153 		.ascii	"FLASH_TypeDef\000"
 1052      485F5479 
 1052      70654465 
 1052      6600
 1053              	.LASF26:
 1054 0037 434D785F 		.ascii	"CMx_DWT\000"
 1054      44575400 
 1055              	.LASF40:
 1056 003f 41484245 		.ascii	"AHBENR\000"
 1056      4E5200
 1057              	.LASF24:
 1058 0046 464F4C44 		.ascii	"FOLDCNT\000"
 1058      434E5400 
 1059              	.LASF34:
 1060 004e 57525052 		.ascii	"WRPR\000"
 1060      00
 1061              	.LASF22:
 1062 0053 534C4545 		.ascii	"SLEEPCNT\000"
 1062      50434E54 
 1062      00
ARM GAS  /tmp/cc7byH5Q.s 			page 20


 1063              	.LASF11:
 1064 005c 6C6F6E67 		.ascii	"long long unsigned int\000"
 1064      206C6F6E 
 1064      6720756E 
 1064      7369676E 
 1064      65642069 
 1065              	.LASF39:
 1066 0073 41504231 		.ascii	"APB1RSTR\000"
 1066      52535452 
 1066      00
 1067              	.LASF16:
 1068 007c 44454D43 		.ascii	"DEMCR\000"
 1068      5200
 1069              	.LASF46:
 1070 0082 474E5520 		.ascii	"GNU C 4.6.2 20120613 (release) [ARM/embedded-4_6-br"
 1070      4320342E 
 1070      362E3220 
 1070      32303132 
 1070      30363133 
 1071 00b5 616E6368 		.ascii	"anch revision 188521]\000"
 1071      20726576 
 1071      6973696F 
 1071      6E203138 
 1071      38353231 
 1072              	.LASF19:
 1073 00cb 43594343 		.ascii	"CYCCNT\000"
 1073      4E5400
 1074              	.LASF9:
 1075 00d2 6C6F6E67 		.ascii	"long unsigned int\000"
 1075      20756E73 
 1075      69676E65 
 1075      6420696E 
 1075      7400
 1076              	.LASF4:
 1077 00e4 73686F72 		.ascii	"short unsigned int\000"
 1077      7420756E 
 1077      7369676E 
 1077      65642069 
 1077      6E7400
 1078              	.LASF49:
 1079 00f7 68616C5F 		.ascii	"hal_lld_backup_domain_init\000"
 1079      6C6C645F 
 1079      6261636B 
 1079      75705F64 
 1079      6F6D6169 
 1080              	.LASF20:
 1081 0112 43504943 		.ascii	"CPICNT\000"
 1081      4E5400
 1082              	.LASF45:
 1083 0119 49544D5F 		.ascii	"ITM_RxBuffer\000"
 1083      52784275 
 1083      66666572 
 1083      00
 1084              	.LASF13:
 1085 0126 44484353 		.ascii	"DHCSR\000"
 1085      5200
 1086              	.LASF32:
ARM GAS  /tmp/cc7byH5Q.s 			page 21


 1087 012c 4F50544B 		.ascii	"OPTKEYR\000"
 1087      45595200 
 1088              	.LASF2:
 1089 0134 756E7369 		.ascii	"unsigned char\000"
 1089      676E6564 
 1089      20636861 
 1089      7200
 1090              	.LASF33:
 1091 0142 52455345 		.ascii	"RESERVED\000"
 1091      52564544 
 1091      00
 1092              	.LASF3:
 1093 014b 73686F72 		.ascii	"short int\000"
 1093      7420696E 
 1093      7400
 1094              	.LASF23:
 1095 0155 4C535543 		.ascii	"LSUCNT\000"
 1095      4E5400
 1096              	.LASF42:
 1097 015c 41504231 		.ascii	"APB1ENR\000"
 1097      454E5200 
 1098              	.LASF38:
 1099 0164 41504232 		.ascii	"APB2RSTR\000"
 1099      52535452 
 1099      00
 1100              	.LASF14:
 1101 016d 44435253 		.ascii	"DCRSR\000"
 1101      5200
 1102              	.LASF0:
 1103 0173 756E7369 		.ascii	"unsigned int\000"
 1103      676E6564 
 1103      20696E74 
 1103      00
 1104              	.LASF27:
 1105 0180 63686172 		.ascii	"char\000"
 1105      00
 1106              	.LASF48:
 1107 0185 2F686F6D 		.ascii	"/home/tino/workspace/openrobots/R2P_IR_module/fw\000"
 1107      652F7469 
 1107      6E6F2F77 
 1107      6F726B73 
 1107      70616365 
 1108              	.LASF30:
 1109 01b6 53797354 		.ascii	"SysTick_Type\000"
 1109      69636B5F 
 1109      54797065 
 1109      00
 1110              	.LASF15:
 1111 01c3 44435244 		.ascii	"DCRDR\000"
 1111      5200
 1112              	.LASF18:
 1113 01c9 4354524C 		.ascii	"CTRL\000"
 1113      00
 1114              	.LASF21:
 1115 01ce 45584343 		.ascii	"EXCCNT\000"
 1115      4E5400
 1116              	.LASF6:
ARM GAS  /tmp/cc7byH5Q.s 			page 22


 1117 01d5 696E7433 		.ascii	"int32_t\000"
 1117      325F7400 
 1118              	.LASF29:
 1119 01dd 43414C49 		.ascii	"CALIB\000"
 1119      4200
 1120              	.LASF41:
 1121 01e3 41504232 		.ascii	"APB2ENR\000"
 1121      454E5200 
 1122              	.LASF17:
 1123 01eb 434D785F 		.ascii	"CMx_SCS\000"
 1123      53435300 
 1124              	.LASF5:
 1125 01f3 75696E74 		.ascii	"uint16_t\000"
 1125      31365F74 
 1125      00
 1126              	.LASF50:
 1127 01fc 68616C5F 		.ascii	"hal_lld_init\000"
 1127      6C6C645F 
 1127      696E6974 
 1127      00
 1128              	.LASF28:
 1129 0209 4C4F4144 		.ascii	"LOAD\000"
 1129      00
 1130              	.LASF51:
 1131 020e 73746D33 		.ascii	"stm32_clock_init\000"
 1131      325F636C 
 1131      6F636B5F 
 1131      696E6974 
 1131      00
 1132              	.LASF47:
 1133 021f 2E2E2F2E 		.ascii	"../../ChibiOS/os/hal/platforms/STM32F1xx/hal_lld.c\000"
 1133      2E2F4368 
 1133      6962694F 
 1133      532F6F73 
 1133      2F68616C 
 1134              	.LASF44:
 1135 0252 5243435F 		.ascii	"RCC_TypeDef\000"
 1135      54797065 
 1135      44656600 
 1136              	.LASF8:
 1137 025e 75696E74 		.ascii	"uint32_t\000"
 1137      33325F74 
 1137      00
 1138              	.LASF7:
 1139 0267 6C6F6E67 		.ascii	"long int\000"
 1139      20696E74 
 1139      00
 1140              	.LASF31:
 1141 0270 4B455952 		.ascii	"KEYR\000"
 1141      00
 1142              	.LASF1:
 1143 0275 7369676E 		.ascii	"signed char\000"
 1143      65642063 
 1143      68617200 
 1144              	.LASF12:
 1145 0281 5F426F6F 		.ascii	"_Bool\000"
 1145      6C00
ARM GAS  /tmp/cc7byH5Q.s 			page 23


 1146              		.ident	"GCC: (GNU Tools for ARM Embedded Processors) 4.6.2 20120613 (release) [ARM/embedded-4_6-br
ARM GAS  /tmp/cc7byH5Q.s 			page 24


DEFINED SYMBOLS
                            *ABS*:00000000 hal_lld.c
     /tmp/cc7byH5Q.s:19     .text.hal_lld_init:00000000 $t
     /tmp/cc7byH5Q.s:25     .text.hal_lld_init:00000000 hal_lld_init
     /tmp/cc7byH5Q.s:122    .text.stm32_clock_init:00000000 $t
     /tmp/cc7byH5Q.s:128    .text.stm32_clock_init:00000000 stm32_clock_init
                     .debug_frame:00000010 $d

UNDEFINED SYMBOLS
dmaInit
