ARM GAS  /tmp/cclRsDut.s 			page 1


   1              		.syntax unified
   2              		.cpu cortex-m3
   3              		.fpu softvfp
   4              		.eabi_attribute 20, 1
   5              		.eabi_attribute 21, 1
   6              		.eabi_attribute 23, 3
   7              		.eabi_attribute 24, 1
   8              		.eabi_attribute 25, 1
   9              		.eabi_attribute 26, 1
  10              		.eabi_attribute 30, 2
  11              		.eabi_attribute 34, 1
  12              		.eabi_attribute 18, 4
  13              		.thumb
  14              		.file	"hrt.c"
  15              		.text
  16              	.Ltext0:
  17              		.cfi_sections	.debug_frame
  18              		.section	.text.calendar_reset,"ax",%progbits
  19              		.align	2
  20              		.p2align 4,,15
  21              		.global	calendar_reset
  22              		.thumb
  23              		.thumb_func
  24              		.type	calendar_reset, %function
  25              	calendar_reset:
  26              	.LFB63:
  27              		.file 1 "../../RTCAN/src/hrt.c"
  28              		.loc 1 211 0
  29              		.cfi_startproc
  30              		@ args = 0, pretend = 0, frame = 0
  31              		@ frame_needed = 0, uses_anonymous_args = 0
  32              		@ link register save eliminated.
  33              	.LVL0:
  34              		.loc 1 212 0
  35 0000 0060     		str	r0, [r0, #0]
  36              		.loc 1 213 0
  37 0002 7047     		bx	lr
  38              		.cfi_endproc
  39              	.LFE63:
  40              		.size	calendar_reset, .-calendar_reset
  41 0004 AFF30080 		.section	.text.calendar_add,"ax",%progbits
  41      AFF30080 
  41      AFF30080 
  42              		.align	2
  43              		.p2align 4,,15
  44              		.global	calendar_add
  45              		.thumb
  46              		.thumb_func
  47              		.type	calendar_add, %function
  48              	calendar_add:
  49              	.LFB64:
  50              		.loc 1 215 0
  51              		.cfi_startproc
  52              		@ args = 0, pretend = 0, frame = 0
  53              		@ frame_needed = 0, uses_anonymous_args = 0
  54              		@ link register save eliminated.
  55              	.LVL1:
ARM GAS  /tmp/cclRsDut.s 			page 2


  56              		.loc 1 218 0
  57 0000 4FF0FF33 		mov	r3, #-1
  58              	.LVL2:
  59              		.loc 1 215 0
  60 0004 30B4     		push	{r4, r5}
  61              	.LCFI0:
  62              		.cfi_def_cfa_offset 8
  63              		.cfi_offset 5, -4
  64              		.cfi_offset 4, -8
  65              		.loc 1 218 0
  66 0006 4B73     		strb	r3, [r1, #13]
  67 0008 8B73     		strb	r3, [r1, #14]
  68 000a CB73     		strb	r3, [r1, #15]
  69 000c 0B74     		strb	r3, [r1, #16]
  70              		.loc 1 216 0
  71 000e 0246     		mov	r2, r0
  72              		.loc 1 220 0
  73 0010 06E0     		b	.L3
  74              	.LVL3:
  75              	.L5:
  76              		.loc 1 221 0
  77 0012 B1F81150 		ldrh	r5, [r1, #17]	@ unaligned
  78 0016 B3F81140 		ldrh	r4, [r3, #17]	@ unaligned
  79 001a A542     		cmp	r5, r4
  80 001c 03D3     		bcc	.L4
  81 001e 1A46     		mov	r2, r3
  82              	.LVL4:
  83              	.L3:
  84              		.loc 1 220 0 discriminator 1
  85 0020 1368     		ldr	r3, [r2, #0]	@ unaligned
  86 0022 8342     		cmp	r3, r0
  87 0024 F5D1     		bne	.L5
  88              	.L4:
  89              		.loc 1 227 0
  90 0026 0B60     		str	r3, [r1, #0]	@ unaligned
  91              		.loc 1 228 0
  92 0028 1160     		str	r1, [r2, #0]	@ unaligned
  93              		.loc 1 229 0
  94 002a 30BC     		pop	{r4, r5}
  95 002c 7047     		bx	lr
  96              		.cfi_endproc
  97              	.LFE64:
  98              		.size	calendar_add, .-calendar_add
  99 002e 00BF     		.section	.text.calendar_reserve,"ax",%progbits
 100              		.align	2
 101              		.p2align 4,,15
 102              		.global	calendar_reserve
 103              		.thumb
 104              		.thumb_func
 105              		.type	calendar_reserve, %function
 106              	calendar_reserve:
 107              	.LFB65:
 108              		.loc 1 231 0
 109              		.cfi_startproc
 110              		@ args = 0, pretend = 0, frame = 0
 111              		@ frame_needed = 0, uses_anonymous_args = 0
 112              		@ link register save eliminated.
ARM GAS  /tmp/cclRsDut.s 			page 3


 113              	.LVL5:
 114              		.loc 1 232 0
 115 0000 5430     		adds	r0, r0, #84
 116              	.LVL6:
 117              		.loc 1 231 0
 118 0002 30B4     		push	{r4, r5}
 119              	.LCFI1:
 120              		.cfi_def_cfa_offset 8
 121              		.cfi_offset 5, -4
 122              		.cfi_offset 4, -8
 123              		.loc 1 233 0
 124 0004 0246     		mov	r2, r0
 125              		.loc 1 235 0
 126 0006 06E0     		b	.L8
 127              	.LVL7:
 128              	.L10:
 129              		.loc 1 236 0
 130 0008 D1F80D50 		ldr	r5, [r1, #13]	@ unaligned
 131 000c D3F80D40 		ldr	r4, [r3, #13]	@ unaligned
 132 0010 A542     		cmp	r5, r4
 133 0012 03D3     		bcc	.L9
 134 0014 1A46     		mov	r2, r3
 135              	.LVL8:
 136              	.L8:
 137              		.loc 1 235 0 discriminator 1
 138 0016 1368     		ldr	r3, [r2, #0]	@ unaligned
 139 0018 8342     		cmp	r3, r0
 140 001a F5D1     		bne	.L10
 141              	.L9:
 142              		.loc 1 242 0
 143 001c 0B60     		str	r3, [r1, #0]	@ unaligned
 144              		.loc 1 243 0
 145 001e 1160     		str	r1, [r2, #0]	@ unaligned
 146              		.loc 1 244 0
 147 0020 30BC     		pop	{r4, r5}
 148 0022 7047     		bx	lr
 149              		.cfi_endproc
 150              	.LFE65:
 151              		.size	calendar_reserve, .-calendar_reserve
 152 0024 AFF30080 		.section	.text.calendar_check,"ax",%progbits
 152      AFF30080 
 152      AFF30080 
 153              		.align	2
 154              		.p2align 4,,15
 155              		.global	calendar_check
 156              		.thumb
 157              		.thumb_func
 158              		.type	calendar_check, %function
 159              	calendar_check:
 160              	.LFB66:
 161              		.loc 1 247 0
 162              		.cfi_startproc
 163              		@ args = 0, pretend = 0, frame = 0
 164              		@ frame_needed = 0, uses_anonymous_args = 0
 165              		@ link register save eliminated.
 166              	.LVL9:
 167              		.loc 1 249 0
ARM GAS  /tmp/cclRsDut.s 			page 4


 168 0000 B1FBF2F3 		udiv	r3, r1, r2
 169 0004 02FB1311 		mls	r1, r2, r3, r1
 170              	.LVL10:
 171              		.loc 1 247 0
 172 0008 F0B4     		push	{r4, r5, r6, r7}
 173              	.LCFI2:
 174              		.cfi_def_cfa_offset 16
 175              		.cfi_offset 7, -4
 176              		.cfi_offset 6, -8
 177              		.cfi_offset 5, -12
 178              		.cfi_offset 4, -16
 179              		.loc 1 249 0
 180 000a 89B2     		uxth	r1, r1
 181              	.LVL11:
 182              		.loc 1 248 0
 183 000c 0446     		mov	r4, r0
 184              		.loc 1 253 0
 185 000e 4FF6FF77 		movw	r7, #65535
 186              	.LVL12:
 187              	.L23:
 188              		.loc 1 251 0 discriminator 1
 189 0012 2468     		ldr	r4, [r4, #0]	@ unaligned
 190              	.LVL13:
 191 0014 8442     		cmp	r4, r0
 192 0016 20D0     		beq	.L24
 193              	.LVL14:
 194              		.loc 1 253 0
 195 0018 D4F80D50 		ldr	r5, [r4, #13]	@ unaligned
 196 001c BD42     		cmp	r5, r7
 197 001e F8D0     		beq	.L23
 198              		.loc 1 256 0
 199 0020 B4F81130 		ldrh	r3, [r4, #17]	@ unaligned
 200 0024 9A42     		cmp	r2, r3
 201 0026 05D9     		bls	.L14
 202              		.loc 1 256 0 is_stmt 0 discriminator 1
 203 0028 B2FBF3FC 		udiv	ip, r2, r3
 204 002c 03FB1C26 		mls	r6, r3, ip, r2
 205 0030 B6B2     		uxth	r6, r6
 206 0032 7EB9     		cbnz	r6, .L20
 207              	.L14:
 208              		.loc 1 259 0 is_stmt 1
 209 0034 9A42     		cmp	r2, r3
 210 0036 05D2     		bcs	.L16
 211              		.loc 1 259 0 is_stmt 0 discriminator 1
 212 0038 B3FBF2FC 		udiv	ip, r3, r2
 213 003c 02FB1C36 		mls	r6, r2, ip, r3
 214 0040 B6B2     		uxth	r6, r6
 215 0042 3EB9     		cbnz	r6, .L20
 216              	.L16:
 217              		.loc 1 262 0 is_stmt 1
 218 0044 B1FBF3F6 		udiv	r6, r1, r3
 219 0048 03FB161C 		mls	ip, r3, r6, r1
 220 004c 1FFA8CF3 		uxth	r3, ip
 221 0050 9D42     		cmp	r5, r3
 222 0052 DED1     		bne	.L23
 223              	.L20:
 224              		.loc 1 263 0
ARM GAS  /tmp/cclRsDut.s 			page 5


 225 0054 0020     		movs	r0, #0
 226              	.LVL15:
 227              	.L15:
 228              		.loc 1 268 0
 229 0056 F0BC     		pop	{r4, r5, r6, r7}
 230 0058 7047     		bx	lr
 231              	.LVL16:
 232              	.L24:
 233              		.loc 1 267 0
 234 005a 0120     		movs	r0, #1
 235              	.LVL17:
 236 005c FBE7     		b	.L15
 237              		.cfi_endproc
 238              	.LFE66:
 239              		.size	calendar_check, .-calendar_check
 240 005e 00BF     		.section	.text.calendar_set_slot,"ax",%progbits
 241              		.align	2
 242              		.p2align 4,,15
 243              		.global	calendar_set_slot
 244              		.thumb
 245              		.thumb_func
 246              		.type	calendar_set_slot, %function
 247              	calendar_set_slot:
 248              	.LFB67:
 249              		.loc 1 270 0
 250              		.cfi_startproc
 251              		@ args = 0, pretend = 0, frame = 0
 252              		@ frame_needed = 0, uses_anonymous_args = 0
 253              		@ link register save eliminated.
 254              	.LVL18:
 255 0000 2DE9F003 		push	{r4, r5, r6, r7, r8, r9}
 256              	.LCFI3:
 257              		.cfi_def_cfa_offset 24
 258              		.cfi_offset 9, -4
 259              		.cfi_offset 8, -8
 260              		.cfi_offset 7, -12
 261              		.cfi_offset 6, -16
 262              		.cfi_offset 5, -20
 263              		.cfi_offset 4, -24
 264              		.loc 1 275 0
 265 0004 0368     		ldr	r3, [r0, #0]	@ unaligned
 266 0006 8342     		cmp	r3, r0
 267 0008 47D0     		beq	.L26
 268              	.LVL19:
 269              		.loc 1 280 0 discriminator 1
 270 000a B1F81150 		ldrh	r5, [r1, #17]	@ unaligned
 271 000e 012D     		cmp	r5, #1
 272 0010 3BDD     		ble	.L28
 273              		.loc 1 280 0 is_stmt 0
 274 0012 4FF00108 		mov	r8, #1
 275              	.LBB8:
 276              	.LBB9:
 277              		.loc 1 253 0 is_stmt 1
 278 0016 4FF6FF7C 		movw	ip, #65535
 279              	.LVL20:
 280              	.L27:
 281              		.loc 1 249 0
ARM GAS  /tmp/cclRsDut.s 			page 6


 282 001a 1FFA88F4 		uxth	r4, r8
 283 001e B4FBF5F7 		udiv	r7, r4, r5
 284 0022 05FB1742 		mls	r2, r5, r7, r4
 285 0026 1C46     		mov	r4, r3
 286 0028 97B2     		uxth	r7, r2
 287              	.LVL21:
 288              	.L34:
 289              		.loc 1 253 0
 290 002a D4F80D60 		ldr	r6, [r4, #13]	@ unaligned
 291 002e 6645     		cmp	r6, ip
 292 0030 1ED0     		beq	.L30
 293              		.loc 1 256 0
 294 0032 B4F81120 		ldrh	r2, [r4, #17]	@ unaligned
 295 0036 9542     		cmp	r5, r2
 296 0038 08D9     		bls	.L31
 297 003a B5FBF2F9 		udiv	r9, r5, r2
 298 003e 02FB1959 		mls	r9, r2, r9, r5
 299 0042 1FFA89F9 		uxth	r9, r9
 300 0046 B9F1000F 		cmp	r9, #0
 301 004a 1AD1     		bne	.L32
 302              	.L31:
 303              		.loc 1 259 0
 304 004c 9542     		cmp	r5, r2
 305 004e 08D2     		bcs	.L33
 306 0050 B2FBF5F9 		udiv	r9, r2, r5
 307 0054 05FB1929 		mls	r9, r5, r9, r2
 308 0058 1FFA89F9 		uxth	r9, r9
 309 005c B9F1000F 		cmp	r9, #0
 310 0060 0FD1     		bne	.L32
 311              	.L33:
 312              		.loc 1 262 0
 313 0062 B7FBF2F9 		udiv	r9, r7, r2
 314 0066 02FB1972 		mls	r2, r2, r9, r7
 315 006a 92B2     		uxth	r2, r2
 316 006c 9642     		cmp	r6, r2
 317 006e 08D0     		beq	.L32
 318              	.L30:
 319              		.loc 1 251 0
 320 0070 2468     		ldr	r4, [r4, #0]	@ unaligned
 321              	.LVL22:
 322 0072 A042     		cmp	r0, r4
 323 0074 D9D1     		bne	.L34
 324              	.LBE9:
 325              	.LBE8:
 326              		.loc 1 282 0
 327 0076 C1F80D80 		str	r8, [r1, #13]	@ unaligned
 328              		.loc 1 283 0
 329 007a 0120     		movs	r0, #1
 330              	.LVL23:
 331              	.L29:
 332              		.loc 1 292 0
 333 007c BDE8F003 		pop	{r4, r5, r6, r7, r8, r9}
 334 0080 7047     		bx	lr
 335              	.LVL24:
 336              	.L32:
 337              		.loc 1 286 0
 338 0082 08F10108 		add	r8, r8, #1
ARM GAS  /tmp/cclRsDut.s 			page 7


 339              	.LVL25:
 340              		.loc 1 280 0
 341 0086 4545     		cmp	r5, r8
 342 0088 C7DC     		bgt	.L27
 343              	.LVL26:
 344              	.L28:
 345              		.loc 1 289 0
 346 008a 4FF0FF30 		mov	r0, #-1
 347              	.LVL27:
 348 008e 4873     		strb	r0, [r1, #13]
 349 0090 8873     		strb	r0, [r1, #14]
 350 0092 C873     		strb	r0, [r1, #15]
 351 0094 0874     		strb	r0, [r1, #16]
 352              		.loc 1 291 0
 353 0096 0020     		movs	r0, #0
 354 0098 F0E7     		b	.L29
 355              	.LVL28:
 356              	.L26:
 357              		.loc 1 276 0
 358 009a 0023     		movs	r3, #0
 359 009c 0120     		movs	r0, #1
 360              	.LVL29:
 361 009e 4873     		strb	r0, [r1, #13]
 362 00a0 8B73     		strb	r3, [r1, #14]
 363 00a2 CB73     		strb	r3, [r1, #15]
 364 00a4 0B74     		strb	r3, [r1, #16]
 365              		.loc 1 277 0
 366 00a6 E9E7     		b	.L29
 367              		.cfi_endproc
 368              	.LFE67:
 369              		.size	calendar_set_slot, .-calendar_set_slot
 370 00a8 AFF30080 		.section	.text.calendar_prepare,"ax",%progbits
 370      AFF30080 
 371              		.align	2
 372              		.p2align 4,,15
 373              		.global	calendar_prepare
 374              		.thumb
 375              		.thumb_func
 376              		.type	calendar_prepare, %function
 377              	calendar_prepare:
 378              	.LFB68:
 379              		.loc 1 294 0
 380              		.cfi_startproc
 381              		@ args = 0, pretend = 0, frame = 0
 382              		@ frame_needed = 0, uses_anonymous_args = 0
 383              	.LVL30:
 384 0000 38B5     		push	{r3, r4, r5, lr}
 385              	.LCFI4:
 386              		.cfi_def_cfa_offset 16
 387              		.cfi_offset 14, -4
 388              		.cfi_offset 5, -8
 389              		.cfi_offset 4, -12
 390              		.cfi_offset 3, -16
 391              		.loc 1 297 0
 392 0002 0468     		ldr	r4, [r0, #0]	@ unaligned
 393              		.loc 1 294 0
 394 0004 0546     		mov	r5, r0
ARM GAS  /tmp/cclRsDut.s 			page 8


 395              	.LVL31:
 396              		.loc 1 297 0
 397 0006 8442     		cmp	r4, r0
 398 0008 05D0     		beq	.L40
 399              	.LVL32:
 400              	.L43:
 401              	.LBB10:
 402              		.loc 1 299 0
 403 000a 2046     		mov	r0, r4
 404 000c FFF7FEFF 		bl	hrt_set_slot
 405              	.LBE10:
 406              		.loc 1 297 0
 407 0010 2468     		ldr	r4, [r4, #0]	@ unaligned
 408              	.LVL33:
 409 0012 AC42     		cmp	r4, r5
 410 0014 F9D1     		bne	.L43
 411              	.L40:
 412 0016 38BD     		pop	{r3, r4, r5, pc}
 413              		.cfi_endproc
 414              	.LFE68:
 415              		.size	calendar_prepare, .-calendar_prepare
 416 0018 AFF30080 		.section	.text.hrt_reset,"ax",%progbits
 416      AFF30080 
 417              		.align	2
 418              		.p2align 4,,15
 419              		.global	hrt_reset
 420              		.thumb
 421              		.thumb_func
 422              		.type	hrt_reset, %function
 423              	hrt_reset:
 424              	.LFB69:
 425              		.loc 1 307 0
 426              		.cfi_startproc
 427              		@ args = 0, pretend = 0, frame = 0
 428              		@ frame_needed = 0, uses_anonymous_args = 0
 429              		@ link register save eliminated.
 430              	.LVL34:
 431              		.loc 1 311 0
 432 0000 0023     		movs	r3, #0
 433              		.loc 1 309 0
 434 0002 00F15402 		add	r2, r0, #84
 435              	.LBB11:
 436              	.LBB12:
 437              		.loc 1 212 0
 438 0006 4265     		str	r2, [r0, #84]
 439              	.LBE12:
 440              	.LBE11:
 441              		.loc 1 311 0
 442 0008 8365     		str	r3, [r0, #88]
 443              		.loc 1 312 0
 444 000a C365     		str	r3, [r0, #92]
 445              		.loc 1 313 0
 446 000c 7047     		bx	lr
 447              		.cfi_endproc
 448              	.LFE69:
 449              		.size	hrt_reset, .-hrt_reset
 450 000e 00BF     		.section	.text.hrt_reserved_slot,"ax",%progbits
ARM GAS  /tmp/cclRsDut.s 			page 9


 451              		.align	2
 452              		.p2align 4,,15
 453              		.global	hrt_reserved_slot
 454              		.thumb
 455              		.thumb_func
 456              		.type	hrt_reserved_slot, %function
 457              	hrt_reserved_slot:
 458              	.LFB70:
 459              		.loc 1 316 0
 460              		.cfi_startproc
 461              		@ args = 0, pretend = 0, frame = 0
 462              		@ frame_needed = 0, uses_anonymous_args = 0
 463              		@ link register save eliminated.
 464              	.LVL35:
 465              		.loc 1 318 0
 466 0000 4368     		ldr	r3, [r0, #4]
 467 0002 1F2B     		cmp	r3, #31
 468 0004 0DD9     		bls	.L50
 469              		.loc 1 322 0
 470 0006 3B2B     		cmp	r3, #59
 471 0008 09D8     		bhi	.L49
 472              		.loc 1 323 0
 473 000a 203B     		subs	r3, r3, #32
 474 000c 0121     		movs	r1, #1
 475 000e 01FA03F2 		lsl	r2, r1, r3
 476 0012 C06D     		ldr	r0, [r0, #92]
 477              	.LVL36:
 478 0014 0242     		tst	r2, r0
 479 0016 0CBF     		ite	eq
 480 0018 0020     		moveq	r0, #0
 481 001a 0120     		movne	r0, #1
 482 001c 7047     		bx	lr
 483              	.LVL37:
 484              	.L49:
 485              		.loc 1 327 0
 486 001e 0020     		movs	r0, #0
 487              	.LVL38:
 488              		.loc 1 328 0
 489 0020 7047     		bx	lr
 490              	.LVL39:
 491              	.L50:
 492              		.loc 1 319 0
 493 0022 0121     		movs	r1, #1
 494 0024 01FA03F3 		lsl	r3, r1, r3
 495 0028 826D     		ldr	r2, [r0, #88]
 496 002a 1342     		tst	r3, r2
 497 002c 0CBF     		ite	eq
 498 002e 0020     		moveq	r0, #0
 499 0030 0120     		movne	r0, #1
 500              	.LVL40:
 501 0032 7047     		bx	lr
 502              		.cfi_endproc
 503              	.LFE70:
 504              		.size	hrt_reserved_slot, .-hrt_reserved_slot
 505 0034 AFF30080 		.section	.text.hrt_transmit,"ax",%progbits
 505      AFF30080 
 505      AFF30080 
ARM GAS  /tmp/cclRsDut.s 			page 10


 506              		.align	2
 507              		.p2align 4,,15
 508              		.global	hrt_transmit
 509              		.thumb
 510              		.thumb_func
 511              		.type	hrt_transmit, %function
 512              	hrt_transmit:
 513              	.LFB71:
 514              		.loc 1 330 0
 515              		.cfi_startproc
 516              		@ args = 0, pretend = 0, frame = 16
 517              		@ frame_needed = 0, uses_anonymous_args = 0
 518              	.LVL41:
 519 0000 70B5     		push	{r4, r5, r6, lr}
 520              	.LCFI5:
 521              		.cfi_def_cfa_offset 16
 522              		.cfi_offset 14, -4
 523              		.cfi_offset 6, -8
 524              		.cfi_offset 5, -12
 525              		.cfi_offset 4, -16
 526              		.loc 1 335 0
 527 0002 456D     		ldr	r5, [r0, #84]
 528              	.LVL42:
 529              		.loc 1 336 0
 530 0004 026E     		ldr	r2, [r0, #96]
 531              		.loc 1 339 0
 532 0006 00F15404 		add	r4, r0, #84
 533 000a AC42     		cmp	r4, r5
 534              		.loc 1 336 0
 535 000c 9368     		ldr	r3, [r2, #8]
 536              		.loc 1 330 0
 537 000e 84B0     		sub	sp, sp, #16
 538              	.LCFI6:
 539              		.cfi_def_cfa_offset 32
 540              		.loc 1 330 0
 541 0010 0646     		mov	r6, r0
 542              		.loc 1 336 0
 543 0012 8168     		ldr	r1, [r0, #8]
 544 0014 4268     		ldr	r2, [r0, #4]
 545              	.LVL43:
 546              		.loc 1 339 0
 547 0016 28D0     		beq	.L51
 548              	.LVL44:
 549              		.loc 1 336 0
 550 0018 01FB0323 		mla	r3, r1, r3, r2
 551              		.loc 1 344 0
 552 001c D5F80D20 		ldr	r2, [r5, #13]	@ unaligned
 553 0020 9342     		cmp	r3, r2
 554 0022 22D3     		bcc	.L51
 555              		.loc 1 349 0 discriminator 1
 556 0024 B5F80B10 		ldrh	r1, [r5, #11]	@ unaligned
 557 0028 8818     		adds	r0, r1, r2
 558              	.LVL45:
 559 002a 8342     		cmp	r3, r0
 560 002c 27D3     		bcc	.L62
 561              		.loc 1 371 0
 562 002e 0522     		movs	r2, #5
ARM GAS  /tmp/cclRsDut.s 			page 11


 563 0030 2A72     		strb	r2, [r5, #8]
 564              	.LVL46:
 565              	.L55:
 566              		.loc 1 375 0
 567 0032 2B68     		ldr	r3, [r5, #0]	@ unaligned
 568              		.loc 1 378 0
 569 0034 0829     		cmp	r1, #8
 570              		.loc 1 375 0
 571 0036 7365     		str	r3, [r6, #84]
 572              		.loc 1 379 0
 573 0038 EB7E     		ldrb	r3, [r5, #27]	@ zero_extendqisi2
 574              		.loc 1 378 0
 575 003a 18D9     		bls	.L56
 576              		.loc 1 379 0
 577 003c C908     		lsrs	r1, r1, #3
 578 003e 61F30603 		bfi	r3, r1, #0, #7
 579 0042 EB76     		strb	r3, [r5, #27]
 580              	.L57:
 581              		.loc 1 386 0
 582 0044 D5F80D00 		ldr	r0, [r5, #13]	@ unaligned
 583 0048 B5F811C0 		ldrh	ip, [r5, #17]	@ unaligned
 584 004c 2246     		mov	r2, r4
 585 004e 6044     		add	r0, ip, r0
 586 0050 C5F80D00 		str	r0, [r5, #13]	@ unaligned
 587              	.LVL47:
 588 0054 04E0     		b	.L58
 589              	.LVL48:
 590              	.L60:
 591              	.LBB13:
 592              	.LBB14:
 593              		.loc 1 236 0
 594 0056 D3F80D10 		ldr	r1, [r3, #13]	@ unaligned
 595 005a 8842     		cmp	r0, r1
 596 005c 0BD3     		bcc	.L61
 597 005e 1A46     		mov	r2, r3
 598              	.LVL49:
 599              	.L58:
 600              		.loc 1 235 0
 601 0060 1368     		ldr	r3, [r2, #0]	@ unaligned
 602 0062 9C42     		cmp	r4, r3
 603 0064 F7D1     		bne	.L60
 604              		.loc 1 242 0
 605 0066 2C60     		str	r4, [r5, #0]	@ unaligned
 606              		.loc 1 243 0
 607 0068 1560     		str	r5, [r2, #0]	@ unaligned
 608              	.LVL50:
 609              	.L51:
 610              	.LBE14:
 611              	.LBE13:
 612              		.loc 1 390 0
 613 006a 04B0     		add	sp, sp, #16
 614 006c 70BD     		pop	{r4, r5, r6, pc}
 615              	.L56:
 616              		.loc 1 381 0
 617 006e 6FF30603 		bfc	r3, #0, #7
 618 0072 EB76     		strb	r3, [r5, #27]
 619 0074 E6E7     		b	.L57
ARM GAS  /tmp/cclRsDut.s 			page 12


 620              	.LVL51:
 621              	.L61:
 622              	.LBB16:
 623              	.LBB15:
 624              		.loc 1 235 0
 625 0076 1C46     		mov	r4, r3
 626              		.loc 1 242 0
 627 0078 2C60     		str	r4, [r5, #0]	@ unaligned
 628              		.loc 1 243 0
 629 007a 1560     		str	r5, [r2, #0]	@ unaligned
 630 007c F5E7     		b	.L51
 631              	.LVL52:
 632              	.L62:
 633              	.LBE15:
 634              	.LBE16:
 635              		.loc 1 350 0
 636 007e EB7E     		ldrb	r3, [r5, #27]	@ zero_extendqisi2
 637 0080 B5F809E0 		ldrh	lr, [r5, #9]	@ unaligned
 638 0084 009A     		ldr	r2, [sp, #0]
 639 0086 03F07F03 		and	r3, r3, #127
 640 008a 43EACE1C 		orr	ip, r3, lr, lsl #7
 641 008e 6CF31C02 		bfi	r2, ip, #0, #29
 642 0092 0092     		str	r2, [sp, #0]
 643              		.loc 1 351 0
 644 0094 D5F81720 		ldr	r2, [r5, #23]	@ unaligned
 645 0098 1068     		ldr	r0, [r2, #0]
 646 009a 0290     		str	r0, [sp, #8]
 647              		.loc 1 352 0
 648 009c 5068     		ldr	r0, [r2, #4]
 649 009e 0390     		str	r0, [sp, #12]
 650              		.loc 1 355 0
 651 00a0 C3B1     		cbz	r3, .L54
 652              		.loc 1 356 0
 653 00a2 9DF804C0 		ldrb	ip, [sp, #4]	@ zero_extendqisi2
 654 00a6 0821     		movs	r1, #8
 655 00a8 61F3030C 		bfi	ip, r1, #0, #4
 656              		.loc 1 357 0
 657 00ac 3046     		mov	r0, r6
 658 00ae 6946     		mov	r1, sp
 659              		.loc 1 356 0
 660 00b0 8DF804C0 		strb	ip, [sp, #4]
 661              		.loc 1 357 0
 662 00b4 FFF7FEFF 		bl	rtcan_lld_can_transmit
 663              	.LVL53:
 664              		.loc 1 358 0
 665 00b8 EA7E     		ldrb	r2, [r5, #27]	@ zero_extendqisi2
 666              		.loc 1 359 0
 667 00ba D5F81700 		ldr	r0, [r5, #23]	@ unaligned
 668              		.loc 1 358 0
 669 00be 02F17F03 		add	r3, r2, #127
 670 00c2 63F30602 		bfi	r2, r3, #0, #7
 671              		.loc 1 359 0
 672 00c6 0830     		adds	r0, r0, #8
 673              		.loc 1 360 0
 674 00c8 0421     		movs	r1, #4
 675              		.loc 1 358 0
 676 00ca EA76     		strb	r2, [r5, #27]
ARM GAS  /tmp/cclRsDut.s 			page 13


 677              		.loc 1 359 0
 678 00cc C5F81700 		str	r0, [r5, #23]	@ unaligned
 679              		.loc 1 360 0
 680 00d0 2972     		strb	r1, [r5, #8]
 681              		.loc 1 361 0
 682 00d2 CAE7     		b	.L51
 683              	.LVL54:
 684              	.L54:
 685              		.loc 1 363 0 discriminator 1
 686 00d4 D5F81300 		ldr	r0, [r5, #19]	@ unaligned
 687 00d8 9DF804E0 		ldrb	lr, [sp, #4]	@ zero_extendqisi2
 688 00dc 00EB010C 		add	ip, r0, r1
 689 00e0 C2EB0C03 		rsb	r3, r2, ip
 690 00e4 63F3030E 		bfi	lr, r3, #0, #4
 691              		.loc 1 364 0 discriminator 1
 692 00e8 3046     		mov	r0, r6
 693 00ea 6946     		mov	r1, sp
 694              		.loc 1 363 0 discriminator 1
 695 00ec 8DF804E0 		strb	lr, [sp, #4]
 696              		.loc 1 364 0 discriminator 1
 697 00f0 FFF7FEFF 		bl	rtcan_lld_can_transmit
 698              	.LVL55:
 699              		.loc 1 366 0 discriminator 1
 700 00f4 D5F81320 		ldr	r2, [r5, #19]	@ unaligned
 701              		.loc 1 367 0 discriminator 1
 702 00f8 0220     		movs	r0, #2
 703              		.loc 1 366 0 discriminator 1
 704 00fa C5F81720 		str	r2, [r5, #23]	@ unaligned
 705              		.loc 1 367 0 discriminator 1
 706 00fe 2872     		strb	r0, [r5, #8]
 707 0100 B5F80B10 		ldrh	r1, [r5, #11]	@ unaligned
 708              		.loc 1 355 0 discriminator 1
 709 0104 95E7     		b	.L55
 710              		.cfi_endproc
 711              	.LFE71:
 712              		.size	hrt_transmit, .-hrt_transmit
 713 0106 00BFAFF3 		.text
 713      0080AFF3 
 713      0080
 714              	.Letext0:
 715              		.file 2 "/home/tino/ChibiStudio/tools/GNU Tools ARM Embedded/4.6 2012q2/bin/../lib/gcc/arm-none-ea
 716              		.file 3 "../../ChibiOS/os/ports/GCC/ARMCMx/chtypes.h"
 717              		.file 4 "../../ChibiOS/os/hal/platforms/STM32F1xx/stm32f10x.h"
 718              		.file 5 "../../RTCAN/include/rtcan.h"
 719              		.file 6 "../../RTCAN/include/msgqueue.h"
 720              		.file 7 "../../RTCAN/include/hrt.h"
 721              		.file 8 "../../ChibiOS/os/ports/common/ARMCMx/CMSIS/include/core_cm3.h"