ARM GAS  /tmp/cclRsDut.s 			page 1


   1              		.syntax unified
   2              		.cpu cortex-m3
   3              		.fpu softvfp
   4              		.eabi_attribute 20, 1
   5              		.eabi_attribute 21, 1
   6              		.eabi_attribute 23, 3
   7              		.eabi_attribute 24, 1
   8              		.eabi_attribute 25, 1
   9              		.eabi_attribute 26, 1
  10              		.eabi_attribute 30, 2
  11              		.eabi_attribute 34, 1
  12              		.eabi_attribute 18, 4
  13              		.thumb
  14              		.file	"hrt.c"
  15              		.text
  16              	.Ltext0:
  17              		.cfi_sections	.debug_frame
  18              		.section	.text.calendar_reset,"ax",%progbits
  19              		.align	2
  20              		.p2align 4,,15
  21              		.global	calendar_reset
  22              		.thumb
  23              		.thumb_func
  24              		.type	calendar_reset, %function
  25              	calendar_reset:
  26              	.LFB63:
  27              		.file 1 "../../RTCAN/src/hrt.c"
  28              		.loc 1 211 0
  29              		.cfi_startproc
  30              		@ args = 0, pretend = 0, frame = 0
  31              		@ frame_needed = 0, uses_anonymous_args = 0
  32              		@ link register save eliminated.
  33              	.LVL0:
  34              		.loc 1 212 0
  35 0000 0060     		str	r0, [r0, #0]
  36              		.loc 1 213 0
  37 0002 7047     		bx	lr
  38              		.cfi_endproc
  39              	.LFE63:
  40              		.size	calendar_reset, .-calendar_reset
  41 0004 AFF30080 		.section	.text.calendar_add,"ax",%progbits
  41      AFF30080 
  41      AFF30080 
  42              		.align	2
  43              		.p2align 4,,15
  44              		.global	calendar_add
  45              		.thumb
  46              		.thumb_func
  47              		.type	calendar_add, %function
  48              	calendar_add:
  49              	.LFB64:
  50              		.loc 1 215 0
  51              		.cfi_startproc
  52              		@ args = 0, pretend = 0, frame = 0
  53              		@ frame_needed = 0, uses_anonymous_args = 0
  54              		@ link register save eliminated.
  55              	.LVL1:
ARM GAS  /tmp/cclRsDut.s 			page 2


  56              		.loc 1 218 0
  57 0000 4FF0FF33 		mov	r3, #-1
  58              	.LVL2:
  59              		.loc 1 215 0
  60 0004 30B4     		push	{r4, r5}
  61              	.LCFI0:
  62              		.cfi_def_cfa_offset 8
  63              		.cfi_offset 5, -4
  64              		.cfi_offset 4, -8
  65              		.loc 1 218 0
  66 0006 4B73     		strb	r3, [r1, #13]
  67 0008 8B73     		strb	r3, [r1, #14]
  68 000a CB73     		strb	r3, [r1, #15]
  69 000c 0B74     		strb	r3, [r1, #16]
  70              		.loc 1 216 0
  71 000e 0246     		mov	r2, r0
  72              		.loc 1 220 0
  73 0010 06E0     		b	.L3
  74              	.LVL3:
  75              	.L5:
  76              		.loc 1 221 0
  77 0012 B1F81150 		ldrh	r5, [r1, #17]	@ unaligned
  78 0016 B3F81140 		ldrh	r4, [r3, #17]	@ unaligned
  79 001a A542     		cmp	r5, r4
  80 001c 03D3     		bcc	.L4
  81 001e 1A46     		mov	r2, r3
  82              	.LVL4:
  83              	.L3:
  84              		.loc 1 220 0 discriminator 1
  85 0020 1368     		ldr	r3, [r2, #0]	@ unaligned
  86 0022 8342     		cmp	r3, r0
  87 0024 F5D1     		bne	.L5
  88              	.L4:
  89              		.loc 1 227 0
  90 0026 0B60     		str	r3, [r1, #0]	@ unaligned
  91              		.loc 1 228 0
  92 0028 1160     		str	r1, [r2, #0]	@ unaligned
  93              		.loc 1 229 0
  94 002a 30BC     		pop	{r4, r5}
  95 002c 7047     		bx	lr
  96              		.cfi_endproc
  97              	.LFE64:
  98              		.size	calendar_add, .-calendar_add
  99 002e 00BF     		.section	.text.calendar_reserve,"ax",%progbits
 100              		.align	2
 101              		.p2align 4,,15
 102              		.global	calendar_reserve
 103              		.thumb
 104              		.thumb_func
 105              		.type	calendar_reserve, %function
 106              	calendar_reserve:
 107              	.LFB65:
 108              		.loc 1 231 0
 109              		.cfi_startproc
 110              		@ args = 0, pretend = 0, frame = 0
 111              		@ frame_needed = 0, uses_anonymous_args = 0
 112              		@ link register save eliminated.
ARM GAS  /tmp/cclRsDut.s 			page 3


 113              	.LVL5:
 114              		.loc 1 232 0
 115 0000 5430     		adds	r0, r0, #84
 116              	.LVL6:
 117              		.loc 1 231 0
 118 0002 30B4     		push	{r4, r5}
 119              	.LCFI1:
 120              		.cfi_def_cfa_offset 8
 121              		.cfi_offset 5, -4
 122              		.cfi_offset 4, -8
 123              		.loc 1 233 0
 124 0004 0246     		mov	r2, r0
 125              		.loc 1 235 0
 126 0006 06E0     		b	.L8
 127              	.LVL7:
 128              	.L10:
 129              		.loc 1 236 0
 130 0008 D1F80D50 		ldr	r5, [r1, #13]	@ unaligned
 131 000c D3F80D40 		ldr	r4, [r3, #13]	@ unaligned
 132 0010 A542     		cmp	r5, r4
 133 0012 03D3     		bcc	.L9
 134 0014 1A46     		mov	r2, r3
 135              	.LVL8:
 136              	.L8:
 137              		.loc 1 235 0 discriminator 1
 138 0016 1368     		ldr	r3, [r2, #0]	@ unaligned
 139 0018 8342     		cmp	r3, r0
 140 001a F5D1     		bne	.L10
 141              	.L9:
 142              		.loc 1 242 0
 143 001c 0B60     		str	r3, [r1, #0]	@ unaligned
 144              		.loc 1 243 0
 145 001e 1160     		str	r1, [r2, #0]	@ unaligned
 146              		.loc 1 244 0
 147 0020 30BC     		pop	{r4, r5}
 148 0022 7047     		bx	lr
 149              		.cfi_endproc
 150              	.LFE65:
 151              		.size	calendar_reserve, .-calendar_reserve
 152 0024 AFF30080 		.section	.text.calendar_check,"ax",%progbits
 152      AFF30080 
 152      AFF30080 
 153              		.align	2
 154              		.p2align 4,,15
 155              		.global	calendar_check
 156              		.thumb
 157              		.thumb_func
 158              		.type	calendar_check, %function
 159              	calendar_check:
 160              	.LFB66:
 161              		.loc 1 247 0
 162              		.cfi_startproc
 163              		@ args = 0, pretend = 0, frame = 0
 164              		@ frame_needed = 0, uses_anonymous_args = 0
 165              		@ link register save eliminated.
 166              	.LVL9:
 167              		.loc 1 249 0
ARM GAS  /tmp/cclRsDut.s 			page 4


 168 0000 B1FBF2F3 		udiv	r3, r1, r2
 169 0004 02FB1311 		mls	r1, r2, r3, r1
 170              	.LVL10:
 171              		.loc 1 247 0
 172 0008 F0B4     		push	{r4, r5, r6, r7}
 173              	.LCFI2:
 174              		.cfi_def_cfa_offset 16
 175              		.cfi_offset 7, -4
 176              		.cfi_offset 6, -8
 177              		.cfi_offset 5, -12
 178              		.cfi_offset 4, -16
 179              		.loc 1 249 0
 180 000a 89B2     		uxth	r1, r1
 181              	.LVL11:
 182              		.loc 1 248 0
 183 000c 0446     		mov	r4, r0
 184              		.loc 1 253 0
 185 000e 4FF6FF77 		movw	r7, #65535
 186              	.LVL12:
 187              	.L23:
 188              		.loc 1 251 0 discriminator 1
 189 0012 2468     		ldr	r4, [r4, #0]	@ unaligned
 190              	.LVL13:
 191 0014 8442     		cmp	r4, r0
 192 0016 20D0     		beq	.L24
 193              	.LVL14:
 194              		.loc 1 253 0
 195 0018 D4F80D50 		ldr	r5, [r4, #13]	@ unaligned
 196 001c BD42     		cmp	r5, r7
 197 001e F8D0     		beq	.L23
 198              		.loc 1 256 0
 199 0020 B4F81130 		ldrh	r3, [r4, #17]	@ unaligned
 200 0024 9A42     		cmp	r2, r3
 201 0026 05D9     		bls	.L14
 202              		.loc 1 256 0 is_stmt 0 discriminator 1
 203 0028 B2FBF3FC 		udiv	ip, r2, r3
 204 002c 03FB1C26 		mls	r6, r3, ip, r2
 205 0030 B6B2     		uxth	r6, r6
 206 0032 7EB9     		cbnz	r6, .L20
 207              	.L14:
 208              		.loc 1 259 0 is_stmt 1
 209 0034 9A42     		cmp	r2, r3
 210 0036 05D2     		bcs	.L16
 211              		.loc 1 259 0 is_stmt 0 discriminator 1
 212 0038 B3FBF2FC 		udiv	ip, r3, r2
 213 003c 02FB1C36 		mls	r6, r2, ip, r3
 214 0040 B6B2     		uxth	r6, r6
 215 0042 3EB9     		cbnz	r6, .L20
 216              	.L16:
 217              		.loc 1 262 0 is_stmt 1
 218 0044 B1FBF3F6 		udiv	r6, r1, r3
 219 0048 03FB161C 		mls	ip, r3, r6, r1
 220 004c 1FFA8CF3 		uxth	r3, ip
 221 0050 9D42     		cmp	r5, r3
 222 0052 DED1     		bne	.L23
 223              	.L20:
 224              		.loc 1 263 0
ARM GAS  /tmp/cclRsDut.s 			page 5


 225 0054 0020     		movs	r0, #0
 226              	.LVL15:
 227              	.L15:
 228              		.loc 1 268 0
 229 0056 F0BC     		pop	{r4, r5, r6, r7}
 230 0058 7047     		bx	lr
 231              	.LVL16:
 232              	.L24:
 233              		.loc 1 267 0
 234 005a 0120     		movs	r0, #1
 235              	.LVL17:
 236 005c FBE7     		b	.L15
 237              		.cfi_endproc
 238              	.LFE66:
 239              		.size	calendar_check, .-calendar_check
 240 005e 00BF     		.section	.text.calendar_set_slot,"ax",%progbits
 241              		.align	2
 242              		.p2align 4,,15
 243              		.global	calendar_set_slot
 244              		.thumb
 245              		.thumb_func
 246              		.type	calendar_set_slot, %function
 247              	calendar_set_slot:
 248              	.LFB67:
 249              		.loc 1 270 0
 250              		.cfi_startproc
 251              		@ args = 0, pretend = 0, frame = 0
 252              		@ frame_needed = 0, uses_anonymous_args = 0
 253              		@ link register save eliminated.
 254              	.LVL18:
 255 0000 2DE9F003 		push	{r4, r5, r6, r7, r8, r9}
 256              	.LCFI3:
 257              		.cfi_def_cfa_offset 24
 258              		.cfi_offset 9, -4
 259              		.cfi_offset 8, -8
 260              		.cfi_offset 7, -12
 261              		.cfi_offset 6, -16
 262              		.cfi_offset 5, -20
 263              		.cfi_offset 4, -24
 264              		.loc 1 275 0
 265 0004 0368     		ldr	r3, [r0, #0]	@ unaligned
 266 0006 8342     		cmp	r3, r0
 267 0008 47D0     		beq	.L26
 268              	.LVL19:
 269              		.loc 1 280 0 discriminator 1
 270 000a B1F81150 		ldrh	r5, [r1, #17]	@ unaligned
 271 000e 012D     		cmp	r5, #1
 272 0010 3BDD     		ble	.L28
 273              		.loc 1 280 0 is_stmt 0
 274 0012 4FF00108 		mov	r8, #1
 275              	.LBB8:
 276              	.LBB9:
 277              		.loc 1 253 0 is_stmt 1
 278 0016 4FF6FF7C 		movw	ip, #65535
 279              	.LVL20:
 280              	.L27:
 281              		.loc 1 249 0
ARM GAS  /tmp/cclRsDut.s 			page 6


 282 001a 1FFA88F4 		uxth	r4, r8
 283 001e B4FBF5F7 		udiv	r7, r4, r5
 284 0022 05FB1742 		mls	r2, r5, r7, r4
 285 0026 1C46     		mov	r4, r3
 286 0028 97B2     		uxth	r7, r2
 287              	.LVL21:
 288              	.L34:
 289              		.loc 1 253 0
 290 002a D4F80D60 		ldr	r6, [r4, #13]	@ unaligned
 291 002e 6645     		cmp	r6, ip
 292 0030 1ED0     		beq	.L30
 293              		.loc 1 256 0
 294 0032 B4F81120 		ldrh	r2, [r4, #17]	@ unaligned
 295 0036 9542     		cmp	r5, r2
 296 0038 08D9     		bls	.L31
 297 003a B5FBF2F9 		udiv	r9, r5, r2
 298 003e 02FB1959 		mls	r9, r2, r9, r5
 299 0042 1FFA89F9 		uxth	r9, r9
 300 0046 B9F1000F 		cmp	r9, #0
 301 004a 1AD1     		bne	.L32
 302              	.L31:
 303              		.loc 1 259 0
 304 004c 9542     		cmp	r5, r2
 305 004e 08D2     		bcs	.L33
 306 0050 B2FBF5F9 		udiv	r9, r2, r5
 307 0054 05FB1929 		mls	r9, r5, r9, r2
 308 0058 1FFA89F9 		uxth	r9, r9
 309 005c B9F1000F 		cmp	r9, #0
 310 0060 0FD1     		bne	.L32
 311              	.L33:
 312              		.loc 1 262 0
 313 0062 B7FBF2F9 		udiv	r9, r7, r2
 314 0066 02FB1972 		mls	r2, r2, r9, r7
 315 006a 92B2     		uxth	r2, r2
 316 006c 9642     		cmp	r6, r2
 317 006e 08D0     		beq	.L32
 318              	.L30:
 319              		.loc 1 251 0
 320 0070 2468     		ldr	r4, [r4, #0]	@ unaligned
 321              	.LVL22:
 322 0072 A042     		cmp	r0, r4
 323 0074 D9D1     		bne	.L34
 324              	.LBE9:
 325              	.LBE8:
 326              		.loc 1 282 0
 327 0076 C1F80D80 		str	r8, [r1, #13]	@ unaligned
 328              		.loc 1 283 0
 329 007a 0120     		movs	r0, #1
 330              	.LVL23:
 331              	.L29:
 332              		.loc 1 292 0
 333 007c BDE8F003 		pop	{r4, r5, r6, r7, r8, r9}
 334 0080 7047     		bx	lr
 335              	.LVL24:
 336              	.L32:
 337              		.loc 1 286 0
 338 0082 08F10108 		add	r8, r8, #1
ARM GAS  /tmp/cclRsDut.s 			page 7


 339              	.LVL25:
 340              		.loc 1 280 0
 341 0086 4545     		cmp	r5, r8
 342 0088 C7DC     		bgt	.L27
 343              	.LVL26:
 344              	.L28:
 345              		.loc 1 289 0
 346 008a 4FF0FF30 		mov	r0, #-1
 347              	.LVL27:
 348 008e 4873     		strb	r0, [r1, #13]
 349 0090 8873     		strb	r0, [r1, #14]
 350 0092 C873     		strb	r0, [r1, #15]
 351 0094 0874     		strb	r0, [r1, #16]
 352              		.loc 1 291 0
 353 0096 0020     		movs	r0, #0
 354 0098 F0E7     		b	.L29
 355              	.LVL28:
 356              	.L26:
 357              		.loc 1 276 0
 358 009a 0023     		movs	r3, #0
 359 009c 0120     		movs	r0, #1
 360              	.LVL29:
 361 009e 4873     		strb	r0, [r1, #13]
 362 00a0 8B73     		strb	r3, [r1, #14]
 363 00a2 CB73     		strb	r3, [r1, #15]
 364 00a4 0B74     		strb	r3, [r1, #16]
 365              		.loc 1 277 0
 366 00a6 E9E7     		b	.L29
 367              		.cfi_endproc
 368              	.LFE67:
 369              		.size	calendar_set_slot, .-calendar_set_slot
 370 00a8 AFF30080 		.section	.text.calendar_prepare,"ax",%progbits
 370      AFF30080 
 371              		.align	2
 372              		.p2align 4,,15
 373              		.global	calendar_prepare
 374              		.thumb
 375              		.thumb_func
 376              		.type	calendar_prepare, %function
 377              	calendar_prepare:
 378              	.LFB68:
 379              		.loc 1 294 0
 380              		.cfi_startproc
 381              		@ args = 0, pretend = 0, frame = 0
 382              		@ frame_needed = 0, uses_anonymous_args = 0
 383              	.LVL30:
 384 0000 38B5     		push	{r3, r4, r5, lr}
 385              	.LCFI4:
 386              		.cfi_def_cfa_offset 16
 387              		.cfi_offset 14, -4
 388              		.cfi_offset 5, -8
 389              		.cfi_offset 4, -12
 390              		.cfi_offset 3, -16
 391              		.loc 1 297 0
 392 0002 0468     		ldr	r4, [r0, #0]	@ unaligned
 393              		.loc 1 294 0
 394 0004 0546     		mov	r5, r0
ARM GAS  /tmp/cclRsDut.s 			page 8


 395              	.LVL31:
 396              		.loc 1 297 0
 397 0006 8442     		cmp	r4, r0
 398 0008 05D0     		beq	.L40
 399              	.LVL32:
 400              	.L43:
 401              	.LBB10:
 402              		.loc 1 299 0
 403 000a 2046     		mov	r0, r4
 404 000c FFF7FEFF 		bl	hrt_set_slot
 405              	.LBE10:
 406              		.loc 1 297 0
 407 0010 2468     		ldr	r4, [r4, #0]	@ unaligned
 408              	.LVL33:
 409 0012 AC42     		cmp	r4, r5
 410 0014 F9D1     		bne	.L43
 411              	.L40:
 412 0016 38BD     		pop	{r3, r4, r5, pc}
 413              		.cfi_endproc
 414              	.LFE68:
 415              		.size	calendar_prepare, .-calendar_prepare
 416 0018 AFF30080 		.section	.text.hrt_reset,"ax",%progbits
 416      AFF30080 
 417              		.align	2
 418              		.p2align 4,,15
 419              		.global	hrt_reset
 420              		.thumb
 421              		.thumb_func
 422              		.type	hrt_reset, %function
 423              	hrt_reset:
 424              	.LFB69:
 425              		.loc 1 307 0
 426              		.cfi_startproc
 427              		@ args = 0, pretend = 0, frame = 0
 428              		@ frame_needed = 0, uses_anonymous_args = 0
 429              		@ link register save eliminated.
 430              	.LVL34:
 431              		.loc 1 311 0
 432 0000 0023     		movs	r3, #0
 433              		.loc 1 309 0
 434 0002 00F15402 		add	r2, r0, #84
 435              	.LBB11:
 436              	.LBB12:
 437              		.loc 1 212 0
 438 0006 4265     		str	r2, [r0, #84]
 439              	.LBE12:
 440              	.LBE11:
 441              		.loc 1 311 0
 442 0008 8365     		str	r3, [r0, #88]
 443              		.loc 1 312 0
 444 000a C365     		str	r3, [r0, #92]
 445              		.loc 1 313 0
 446 000c 7047     		bx	lr
 447              		.cfi_endproc
 448              	.LFE69:
 449              		.size	hrt_reset, .-hrt_reset
 450 000e 00BF     		.section	.text.hrt_reserved_slot,"ax",%progbits
ARM GAS  /tmp/cclRsDut.s 			page 9


 451              		.align	2
 452              		.p2align 4,,15
 453              		.global	hrt_reserved_slot
 454              		.thumb
 455              		.thumb_func
 456              		.type	hrt_reserved_slot, %function
 457              	hrt_reserved_slot:
 458              	.LFB70:
 459              		.loc 1 316 0
 460              		.cfi_startproc
 461              		@ args = 0, pretend = 0, frame = 0
 462              		@ frame_needed = 0, uses_anonymous_args = 0
 463              		@ link register save eliminated.
 464              	.LVL35:
 465              		.loc 1 318 0
 466 0000 4368     		ldr	r3, [r0, #4]
 467 0002 1F2B     		cmp	r3, #31
 468 0004 0DD9     		bls	.L50
 469              		.loc 1 322 0
 470 0006 3B2B     		cmp	r3, #59
 471 0008 09D8     		bhi	.L49
 472              		.loc 1 323 0
 473 000a 203B     		subs	r3, r3, #32
 474 000c 0121     		movs	r1, #1
 475 000e 01FA03F2 		lsl	r2, r1, r3
 476 0012 C06D     		ldr	r0, [r0, #92]
 477              	.LVL36:
 478 0014 0242     		tst	r2, r0
 479 0016 0CBF     		ite	eq
 480 0018 0020     		moveq	r0, #0
 481 001a 0120     		movne	r0, #1
 482 001c 7047     		bx	lr
 483              	.LVL37:
 484              	.L49:
 485              		.loc 1 327 0
 486 001e 0020     		movs	r0, #0
 487              	.LVL38:
 488              		.loc 1 328 0
 489 0020 7047     		bx	lr
 490              	.LVL39:
 491              	.L50:
 492              		.loc 1 319 0
 493 0022 0121     		movs	r1, #1
 494 0024 01FA03F3 		lsl	r3, r1, r3
 495 0028 826D     		ldr	r2, [r0, #88]
 496 002a 1342     		tst	r3, r2
 497 002c 0CBF     		ite	eq
 498 002e 0020     		moveq	r0, #0
 499 0030 0120     		movne	r0, #1
 500              	.LVL40:
 501 0032 7047     		bx	lr
 502              		.cfi_endproc
 503              	.LFE70:
 504              		.size	hrt_reserved_slot, .-hrt_reserved_slot
 505 0034 AFF30080 		.section	.text.hrt_transmit,"ax",%progbits
 505      AFF30080 
 505      AFF30080 
ARM GAS  /tmp/cclRsDut.s 			page 10


 506              		.align	2
 507              		.p2align 4,,15
 508              		.global	hrt_transmit
 509              		.thumb
 510              		.thumb_func
 511              		.type	hrt_transmit, %function
 512              	hrt_transmit:
 513              	.LFB71:
 514              		.loc 1 330 0
 515              		.cfi_startproc
 516              		@ args = 0, pretend = 0, frame = 16
 517              		@ frame_needed = 0, uses_anonymous_args = 0
 518              	.LVL41:
 519 0000 70B5     		push	{r4, r5, r6, lr}
 520              	.LCFI5:
 521              		.cfi_def_cfa_offset 16
 522              		.cfi_offset 14, -4
 523              		.cfi_offset 6, -8
 524              		.cfi_offset 5, -12
 525              		.cfi_offset 4, -16
 526              		.loc 1 335 0
 527 0002 456D     		ldr	r5, [r0, #84]
 528              	.LVL42:
 529              		.loc 1 336 0
 530 0004 026E     		ldr	r2, [r0, #96]
 531              		.loc 1 339 0
 532 0006 00F15404 		add	r4, r0, #84
 533 000a AC42     		cmp	r4, r5
 534              		.loc 1 336 0
 535 000c 9368     		ldr	r3, [r2, #8]
 536              		.loc 1 330 0
 537 000e 84B0     		sub	sp, sp, #16
 538              	.LCFI6:
 539              		.cfi_def_cfa_offset 32
 540              		.loc 1 330 0
 541 0010 0646     		mov	r6, r0
 542              		.loc 1 336 0
 543 0012 8168     		ldr	r1, [r0, #8]
 544 0014 4268     		ldr	r2, [r0, #4]
 545              	.LVL43:
 546              		.loc 1 339 0
 547 0016 28D0     		beq	.L51
 548              	.LVL44:
 549              		.loc 1 336 0
 550 0018 01FB0323 		mla	r3, r1, r3, r2
 551              		.loc 1 344 0
 552 001c D5F80D20 		ldr	r2, [r5, #13]	@ unaligned
 553 0020 9342     		cmp	r3, r2
 554 0022 22D3     		bcc	.L51
 555              		.loc 1 349 0 discriminator 1
 556 0024 B5F80B10 		ldrh	r1, [r5, #11]	@ unaligned
 557 0028 8818     		adds	r0, r1, r2
 558              	.LVL45:
 559 002a 8342     		cmp	r3, r0
 560 002c 27D3     		bcc	.L62
 561              		.loc 1 371 0
 562 002e 0522     		movs	r2, #5
ARM GAS  /tmp/cclRsDut.s 			page 11


 563 0030 2A72     		strb	r2, [r5, #8]
 564              	.LVL46:
 565              	.L55:
 566              		.loc 1 375 0
 567 0032 2B68     		ldr	r3, [r5, #0]	@ unaligned
 568              		.loc 1 378 0
 569 0034 0829     		cmp	r1, #8
 570              		.loc 1 375 0
 571 0036 7365     		str	r3, [r6, #84]
 572              		.loc 1 379 0
 573 0038 EB7E     		ldrb	r3, [r5, #27]	@ zero_extendqisi2
 574              		.loc 1 378 0
 575 003a 18D9     		bls	.L56
 576              		.loc 1 379 0
 577 003c C908     		lsrs	r1, r1, #3
 578 003e 61F30603 		bfi	r3, r1, #0, #7
 579 0042 EB76     		strb	r3, [r5, #27]
 580              	.L57:
 581              		.loc 1 386 0
 582 0044 D5F80D00 		ldr	r0, [r5, #13]	@ unaligned
 583 0048 B5F811C0 		ldrh	ip, [r5, #17]	@ unaligned
 584 004c 2246     		mov	r2, r4
 585 004e 6044     		add	r0, ip, r0
 586 0050 C5F80D00 		str	r0, [r5, #13]	@ unaligned
 587              	.LVL47:
 588 0054 04E0     		b	.L58
 589              	.LVL48:
 590              	.L60:
 591              	.LBB13:
 592              	.LBB14:
 593              		.loc 1 236 0
 594 0056 D3F80D10 		ldr	r1, [r3, #13]	@ unaligned
 595 005a 8842     		cmp	r0, r1
 596 005c 0BD3     		bcc	.L61
 597 005e 1A46     		mov	r2, r3
 598              	.LVL49:
 599              	.L58:
 600              		.loc 1 235 0
 601 0060 1368     		ldr	r3, [r2, #0]	@ unaligned
 602 0062 9C42     		cmp	r4, r3
 603 0064 F7D1     		bne	.L60
 604              		.loc 1 242 0
 605 0066 2C60     		str	r4, [r5, #0]	@ unaligned
 606              		.loc 1 243 0
 607 0068 1560     		str	r5, [r2, #0]	@ unaligned
 608              	.LVL50:
 609              	.L51:
 610              	.LBE14:
 611              	.LBE13:
 612              		.loc 1 390 0
 613 006a 04B0     		add	sp, sp, #16
 614 006c 70BD     		pop	{r4, r5, r6, pc}
 615              	.L56:
 616              		.loc 1 381 0
 617 006e 6FF30603 		bfc	r3, #0, #7
 618 0072 EB76     		strb	r3, [r5, #27]
 619 0074 E6E7     		b	.L57
ARM GAS  /tmp/cclRsDut.s 			page 12


 620              	.LVL51:
 621              	.L61:
 622              	.LBB16:
 623              	.LBB15:
 624              		.loc 1 235 0
 625 0076 1C46     		mov	r4, r3
 626              		.loc 1 242 0
 627 0078 2C60     		str	r4, [r5, #0]	@ unaligned
 628              		.loc 1 243 0
 629 007a 1560     		str	r5, [r2, #0]	@ unaligned
 630 007c F5E7     		b	.L51
 631              	.LVL52:
 632              	.L62:
 633              	.LBE15:
 634              	.LBE16:
 635              		.loc 1 350 0
 636 007e EB7E     		ldrb	r3, [r5, #27]	@ zero_extendqisi2
 637 0080 B5F809E0 		ldrh	lr, [r5, #9]	@ unaligned
 638 0084 009A     		ldr	r2, [sp, #0]
 639 0086 03F07F03 		and	r3, r3, #127
 640 008a 43EACE1C 		orr	ip, r3, lr, lsl #7
 641 008e 6CF31C02 		bfi	r2, ip, #0, #29
 642 0092 0092     		str	r2, [sp, #0]
 643              		.loc 1 351 0
 644 0094 D5F81720 		ldr	r2, [r5, #23]	@ unaligned
 645 0098 1068     		ldr	r0, [r2, #0]
 646 009a 0290     		str	r0, [sp, #8]
 647              		.loc 1 352 0
 648 009c 5068     		ldr	r0, [r2, #4]
 649 009e 0390     		str	r0, [sp, #12]
 650              		.loc 1 355 0
 651 00a0 C3B1     		cbz	r3, .L54
 652              		.loc 1 356 0
 653 00a2 9DF804C0 		ldrb	ip, [sp, #4]	@ zero_extendqisi2
 654 00a6 0821     		movs	r1, #8
 655 00a8 61F3030C 		bfi	ip, r1, #0, #4
 656              		.loc 1 357 0
 657 00ac 3046     		mov	r0, r6
 658 00ae 6946     		mov	r1, sp
 659              		.loc 1 356 0
 660 00b0 8DF804C0 		strb	ip, [sp, #4]
 661              		.loc 1 357 0
 662 00b4 FFF7FEFF 		bl	rtcan_lld_can_transmit
 663              	.LVL53:
 664              		.loc 1 358 0
 665 00b8 EA7E     		ldrb	r2, [r5, #27]	@ zero_extendqisi2
 666              		.loc 1 359 0
 667 00ba D5F81700 		ldr	r0, [r5, #23]	@ unaligned
 668              		.loc 1 358 0
 669 00be 02F17F03 		add	r3, r2, #127
 670 00c2 63F30602 		bfi	r2, r3, #0, #7
 671              		.loc 1 359 0
 672 00c6 0830     		adds	r0, r0, #8
 673              		.loc 1 360 0
 674 00c8 0421     		movs	r1, #4
 675              		.loc 1 358 0
 676 00ca EA76     		strb	r2, [r5, #27]
ARM GAS  /tmp/cclRsDut.s 			page 13


 677              		.loc 1 359 0
 678 00cc C5F81700 		str	r0, [r5, #23]	@ unaligned
 679              		.loc 1 360 0
 680 00d0 2972     		strb	r1, [r5, #8]
 681              		.loc 1 361 0
 682 00d2 CAE7     		b	.L51
 683              	.LVL54:
 684              	.L54:
 685              		.loc 1 363 0 discriminator 1
 686 00d4 D5F81300 		ldr	r0, [r5, #19]	@ unaligned
 687 00d8 9DF804E0 		ldrb	lr, [sp, #4]	@ zero_extendqisi2
 688 00dc 00EB010C 		add	ip, r0, r1
 689 00e0 C2EB0C03 		rsb	r3, r2, ip
 690 00e4 63F3030E 		bfi	lr, r3, #0, #4
 691              		.loc 1 364 0 discriminator 1
 692 00e8 3046     		mov	r0, r6
 693 00ea 6946     		mov	r1, sp
 694              		.loc 1 363 0 discriminator 1
 695 00ec 8DF804E0 		strb	lr, [sp, #4]
 696              		.loc 1 364 0 discriminator 1
 697 00f0 FFF7FEFF 		bl	rtcan_lld_can_transmit
 698              	.LVL55:
 699              		.loc 1 366 0 discriminator 1
 700 00f4 D5F81320 		ldr	r2, [r5, #19]	@ unaligned
 701              		.loc 1 367 0 discriminator 1
 702 00f8 0220     		movs	r0, #2
 703              		.loc 1 366 0 discriminator 1
 704 00fa C5F81720 		str	r2, [r5, #23]	@ unaligned
 705              		.loc 1 367 0 discriminator 1
 706 00fe 2872     		strb	r0, [r5, #8]
 707 0100 B5F80B10 		ldrh	r1, [r5, #11]	@ unaligned
 708              		.loc 1 355 0 discriminator 1
 709 0104 95E7     		b	.L55
 710              		.cfi_endproc
 711              	.LFE71:
 712              		.size	hrt_transmit, .-hrt_transmit
 713 0106 00BFAFF3 		.text
 713      0080AFF3 
 713      0080
 714              	.Letext0:
 715              		.file 2 "/home/tino/ChibiStudio/tools/GNU Tools ARM Embedded/4.6 2012q2/bin/../lib/gcc/arm-none-ea
 716              		.file 3 "../../ChibiOS/os/ports/GCC/ARMCMx/chtypes.h"
 717              		.file 4 "../../ChibiOS/os/hal/platforms/STM32F1xx/stm32f10x.h"
 718              		.file 5 "../../RTCAN/include/rtcan.h"
 719              		.file 6 "../../RTCAN/include/msgqueue.h"
 720              		.file 7 "../../RTCAN/include/hrt.h"
 721              		.file 8 "../../ChibiOS/os/ports/common/ARMCMx/CMSIS/include/core_cm3.h"
 722              		.section	.debug_info,"",%progbits
 723              	.Ldebug_info0:
 724 0000 CF0D0000 		.4byte	0xdcf
 725 0004 0200     		.2byte	0x2
 726 0006 00000000 		.4byte	.Ldebug_abbrev0
 727 000a 04       		.byte	0x4
 728 000b 01       		.uleb128 0x1
 729 000c 78010000 		.4byte	.LASF133
 730 0010 01       		.byte	0x1
 731 0011 4B000000 		.4byte	.LASF134
ARM GAS  /tmp/cclRsDut.s 			page 14


 732 0015 C1010000 		.4byte	.LASF135
 733 0019 00000000 		.4byte	0
 734 001d 00000000 		.4byte	0
 735 0021 30000000 		.4byte	.Ldebug_ranges0+0x30
 736 0025 00000000 		.4byte	.Ldebug_line0
 737 0029 02       		.uleb128 0x2
 738 002a 04       		.byte	0x4
 739 002b 05       		.byte	0x5
 740 002c 696E7400 		.ascii	"int\000"
 741 0030 03       		.uleb128 0x3
 742 0031 04       		.byte	0x4
 743 0032 07       		.byte	0x7
 744 0033 50020000 		.4byte	.LASF0
 745 0037 03       		.uleb128 0x3
 746 0038 01       		.byte	0x1
 747 0039 06       		.byte	0x6
 748 003a D4000000 		.4byte	.LASF1
 749 003e 04       		.uleb128 0x4
 750 003f A4050000 		.4byte	.LASF4
 751 0043 02       		.byte	0x2
 752 0044 2A       		.byte	0x2a
 753 0045 49000000 		.4byte	0x49
 754 0049 03       		.uleb128 0x3
 755 004a 01       		.byte	0x1
 756 004b 08       		.byte	0x8
 757 004c 12040000 		.4byte	.LASF2
 758 0050 03       		.uleb128 0x3
 759 0051 02       		.byte	0x2
 760 0052 05       		.byte	0x5
 761 0053 2D040000 		.4byte	.LASF3
 762 0057 04       		.uleb128 0x4
 763 0058 5D020000 		.4byte	.LASF5
 764 005c 02       		.byte	0x2
 765 005d 36       		.byte	0x36
 766 005e 62000000 		.4byte	0x62
 767 0062 03       		.uleb128 0x3
 768 0063 02       		.byte	0x2
 769 0064 07       		.byte	0x7
 770 0065 44050000 		.4byte	.LASF6
 771 0069 04       		.uleb128 0x4
 772 006a 0A040000 		.4byte	.LASF7
 773 006e 02       		.byte	0x2
 774 006f 4F       		.byte	0x4f
 775 0070 74000000 		.4byte	0x74
 776 0074 03       		.uleb128 0x3
 777 0075 04       		.byte	0x4
 778 0076 05       		.byte	0x5
 779 0077 6F010000 		.4byte	.LASF8
 780 007b 04       		.uleb128 0x4
 781 007c 9C040000 		.4byte	.LASF9
 782 0080 02       		.byte	0x2
 783 0081 50       		.byte	0x50
 784 0082 86000000 		.4byte	0x86
 785 0086 03       		.uleb128 0x3
 786 0087 04       		.byte	0x4
 787 0088 07       		.byte	0x7
 788 0089 72020000 		.4byte	.LASF10
ARM GAS  /tmp/cclRsDut.s 			page 15


 789 008d 03       		.uleb128 0x3
 790 008e 08       		.byte	0x8
 791 008f 05       		.byte	0x5
 792 0090 C6000000 		.4byte	.LASF11
 793 0094 03       		.uleb128 0x3
 794 0095 08       		.byte	0x8
 795 0096 07       		.byte	0x7
 796 0097 79000000 		.4byte	.LASF12
 797 009b 04       		.uleb128 0x4
 798 009c F1000000 		.4byte	.LASF13
 799 00a0 03       		.byte	0x3
 800 00a1 24       		.byte	0x24
 801 00a2 A6000000 		.4byte	0xa6
 802 00a6 03       		.uleb128 0x3
 803 00a7 01       		.byte	0x1
 804 00a8 02       		.byte	0x2
 805 00a9 04040000 		.4byte	.LASF14
 806 00ad 05       		.uleb128 0x5
 807 00ae 04       		.byte	0x4
 808 00af 06       		.uleb128 0x6
 809 00b0 7B000000 		.4byte	0x7b
 810 00b4 03       		.uleb128 0x3
 811 00b5 01       		.byte	0x1
 812 00b6 08       		.byte	0x8
 813 00b7 AF040000 		.4byte	.LASF15
 814 00bb 07       		.uleb128 0x7
 815 00bc 04       		.byte	0x4
 816 00bd 3E000000 		.4byte	0x3e
 817 00c1 08       		.uleb128 0x8
 818 00c2 7B000000 		.4byte	0x7b
 819 00c6 D1000000 		.4byte	0xd1
 820 00ca 09       		.uleb128 0x9
 821 00cb 30000000 		.4byte	0x30
 822 00cf 07       		.byte	0x7
 823 00d0 00       		.byte	0
 824 00d1 08       		.uleb128 0x8
 825 00d2 7B000000 		.4byte	0x7b
 826 00d6 E1000000 		.4byte	0xe1
 827 00da 09       		.uleb128 0x9
 828 00db 30000000 		.4byte	0x30
 829 00df 01       		.byte	0x1
 830 00e0 00       		.byte	0
 831 00e1 06       		.uleb128 0x6
 832 00e2 57000000 		.4byte	0x57
 833 00e6 06       		.uleb128 0x6
 834 00e7 69000000 		.4byte	0x69
 835 00eb 0A       		.uleb128 0xa
 836 00ec 10       		.byte	0x10
 837 00ed 04       		.byte	0x4
 838 00ee AC02     		.2byte	0x2ac
 839 00f0 31010000 		.4byte	0x131
 840 00f4 0B       		.uleb128 0xb
 841 00f5 54495200 		.ascii	"TIR\000"
 842 00f9 04       		.byte	0x4
 843 00fa AE02     		.2byte	0x2ae
 844 00fc AF000000 		.4byte	0xaf
 845 0100 02       		.byte	0x2
ARM GAS  /tmp/cclRsDut.s 			page 16


 846 0101 23       		.byte	0x23
 847 0102 00       		.uleb128 0
 848 0103 0C       		.uleb128 0xc
 849 0104 36020000 		.4byte	.LASF16
 850 0108 04       		.byte	0x4
 851 0109 AF02     		.2byte	0x2af
 852 010b AF000000 		.4byte	0xaf
 853 010f 02       		.byte	0x2
 854 0110 23       		.byte	0x23
 855 0111 04       		.uleb128 0x4
 856 0112 0C       		.uleb128 0xc
 857 0113 6A010000 		.4byte	.LASF17
 858 0117 04       		.byte	0x4
 859 0118 B002     		.2byte	0x2b0
 860 011a AF000000 		.4byte	0xaf
 861 011e 02       		.byte	0x2
 862 011f 23       		.byte	0x23
 863 0120 08       		.uleb128 0x8
 864 0121 0C       		.uleb128 0xc
 865 0122 6C030000 		.4byte	.LASF18
 866 0126 04       		.byte	0x4
 867 0127 B102     		.2byte	0x2b1
 868 0129 AF000000 		.4byte	0xaf
 869 012d 02       		.byte	0x2
 870 012e 23       		.byte	0x23
 871 012f 0C       		.uleb128 0xc
 872 0130 00       		.byte	0
 873 0131 0D       		.uleb128 0xd
 874 0132 F2010000 		.4byte	.LASF19
 875 0136 04       		.byte	0x4
 876 0137 B202     		.2byte	0x2b2
 877 0139 EB000000 		.4byte	0xeb
 878 013d 0A       		.uleb128 0xa
 879 013e 10       		.byte	0x10
 880 013f 04       		.byte	0x4
 881 0140 B802     		.2byte	0x2b8
 882 0142 83010000 		.4byte	0x183
 883 0146 0B       		.uleb128 0xb
 884 0147 52495200 		.ascii	"RIR\000"
 885 014b 04       		.byte	0x4
 886 014c BA02     		.2byte	0x2ba
 887 014e AF000000 		.4byte	0xaf
 888 0152 02       		.byte	0x2
 889 0153 23       		.byte	0x23
 890 0154 00       		.uleb128 0
 891 0155 0C       		.uleb128 0xc
 892 0156 84020000 		.4byte	.LASF20
 893 015a 04       		.byte	0x4
 894 015b BB02     		.2byte	0x2bb
 895 015d AF000000 		.4byte	0xaf
 896 0161 02       		.byte	0x2
 897 0162 23       		.byte	0x23
 898 0163 04       		.uleb128 0x4
 899 0164 0C       		.uleb128 0xc
 900 0165 3B020000 		.4byte	.LASF21
 901 0169 04       		.byte	0x4
 902 016a BC02     		.2byte	0x2bc
ARM GAS  /tmp/cclRsDut.s 			page 17


 903 016c AF000000 		.4byte	0xaf
 904 0170 02       		.byte	0x2
 905 0171 23       		.byte	0x23
 906 0172 08       		.uleb128 0x8
 907 0173 0C       		.uleb128 0xc
 908 0174 ED040000 		.4byte	.LASF22
 909 0178 04       		.byte	0x4
 910 0179 BD02     		.2byte	0x2bd
 911 017b AF000000 		.4byte	0xaf
 912 017f 02       		.byte	0x2
 913 0180 23       		.byte	0x23
 914 0181 0C       		.uleb128 0xc
 915 0182 00       		.byte	0
 916 0183 0D       		.uleb128 0xd
 917 0184 81050000 		.4byte	.LASF23
 918 0188 04       		.byte	0x4
 919 0189 BE02     		.2byte	0x2be
 920 018b 3D010000 		.4byte	0x13d
 921 018f 0A       		.uleb128 0xa
 922 0190 08       		.byte	0x8
 923 0191 04       		.byte	0x4
 924 0192 C402     		.2byte	0x2c4
 925 0194 B7010000 		.4byte	0x1b7
 926 0198 0B       		.uleb128 0xb
 927 0199 46523100 		.ascii	"FR1\000"
 928 019d 04       		.byte	0x4
 929 019e C602     		.2byte	0x2c6
 930 01a0 AF000000 		.4byte	0xaf
 931 01a4 02       		.byte	0x2
 932 01a5 23       		.byte	0x23
 933 01a6 00       		.uleb128 0
 934 01a7 0B       		.uleb128 0xb
 935 01a8 46523200 		.ascii	"FR2\000"
 936 01ac 04       		.byte	0x4
 937 01ad C702     		.2byte	0x2c7
 938 01af AF000000 		.4byte	0xaf
 939 01b3 02       		.byte	0x2
 940 01b4 23       		.byte	0x23
 941 01b5 04       		.uleb128 0x4
 942 01b6 00       		.byte	0
 943 01b7 0D       		.uleb128 0xd
 944 01b8 AE020000 		.4byte	.LASF24
 945 01bc 04       		.byte	0x4
 946 01bd C802     		.2byte	0x2c8
 947 01bf 8F010000 		.4byte	0x18f
 948 01c3 0E       		.uleb128 0xe
 949 01c4 B002     		.2byte	0x2b0
 950 01c6 04       		.byte	0x4
 951 01c7 CE02     		.2byte	0x2ce
 952 01c9 25030000 		.4byte	0x325
 953 01cd 0B       		.uleb128 0xb
 954 01ce 4D435200 		.ascii	"MCR\000"
 955 01d2 04       		.byte	0x4
 956 01d3 D002     		.2byte	0x2d0
 957 01d5 AF000000 		.4byte	0xaf
 958 01d9 02       		.byte	0x2
 959 01da 23       		.byte	0x23
ARM GAS  /tmp/cclRsDut.s 			page 18


 960 01db 00       		.uleb128 0
 961 01dc 0B       		.uleb128 0xb
 962 01dd 4D535200 		.ascii	"MSR\000"
 963 01e1 04       		.byte	0x4
 964 01e2 D102     		.2byte	0x2d1
 965 01e4 AF000000 		.4byte	0xaf
 966 01e8 02       		.byte	0x2
 967 01e9 23       		.byte	0x23
 968 01ea 04       		.uleb128 0x4
 969 01eb 0B       		.uleb128 0xb
 970 01ec 54535200 		.ascii	"TSR\000"
 971 01f0 04       		.byte	0x4
 972 01f1 D202     		.2byte	0x2d2
 973 01f3 AF000000 		.4byte	0xaf
 974 01f7 02       		.byte	0x2
 975 01f8 23       		.byte	0x23
 976 01f9 08       		.uleb128 0x8
 977 01fa 0C       		.uleb128 0xc
 978 01fb 22020000 		.4byte	.LASF25
 979 01ff 04       		.byte	0x4
 980 0200 D302     		.2byte	0x2d3
 981 0202 AF000000 		.4byte	0xaf
 982 0206 02       		.byte	0x2
 983 0207 23       		.byte	0x23
 984 0208 0C       		.uleb128 0xc
 985 0209 0C       		.uleb128 0xc
 986 020a A9020000 		.4byte	.LASF26
 987 020e 04       		.byte	0x4
 988 020f D402     		.2byte	0x2d4
 989 0211 AF000000 		.4byte	0xaf
 990 0215 02       		.byte	0x2
 991 0216 23       		.byte	0x23
 992 0217 10       		.uleb128 0x10
 993 0218 0B       		.uleb128 0xb
 994 0219 49455200 		.ascii	"IER\000"
 995 021d 04       		.byte	0x4
 996 021e D502     		.2byte	0x2d5
 997 0220 AF000000 		.4byte	0xaf
 998 0224 02       		.byte	0x2
 999 0225 23       		.byte	0x23
 1000 0226 14       		.uleb128 0x14
 1001 0227 0B       		.uleb128 0xb
 1002 0228 45535200 		.ascii	"ESR\000"
 1003 022c 04       		.byte	0x4
 1004 022d D602     		.2byte	0x2d6
 1005 022f AF000000 		.4byte	0xaf
 1006 0233 02       		.byte	0x2
 1007 0234 23       		.byte	0x23
 1008 0235 18       		.uleb128 0x18
 1009 0236 0B       		.uleb128 0xb
 1010 0237 42545200 		.ascii	"BTR\000"
 1011 023b 04       		.byte	0x4
 1012 023c D702     		.2byte	0x2d7
 1013 023e AF000000 		.4byte	0xaf
 1014 0242 02       		.byte	0x2
 1015 0243 23       		.byte	0x23
 1016 0244 1C       		.uleb128 0x1c
ARM GAS  /tmp/cclRsDut.s 			page 19


 1017 0245 0C       		.uleb128 0xc
 1018 0246 A7030000 		.4byte	.LASF27
 1019 024a 04       		.byte	0x4
 1020 024b D802     		.2byte	0x2d8
 1021 024d 25030000 		.4byte	0x325
 1022 0251 02       		.byte	0x2
 1023 0252 23       		.byte	0x23
 1024 0253 20       		.uleb128 0x20
 1025 0254 0C       		.uleb128 0xc
 1026 0255 10000000 		.4byte	.LASF28
 1027 0259 04       		.byte	0x4
 1028 025a D902     		.2byte	0x2d9
 1029 025c 35030000 		.4byte	0x335
 1030 0260 03       		.byte	0x3
 1031 0261 23       		.byte	0x23
 1032 0262 8003     		.uleb128 0x180
 1033 0264 0C       		.uleb128 0xc
 1034 0265 19050000 		.4byte	.LASF29
 1035 0269 04       		.byte	0x4
 1036 026a DA02     		.2byte	0x2da
 1037 026c 45030000 		.4byte	0x345
 1038 0270 03       		.byte	0x3
 1039 0271 23       		.byte	0x23
 1040 0272 B003     		.uleb128 0x1b0
 1041 0274 0C       		.uleb128 0xc
 1042 0275 B1030000 		.4byte	.LASF30
 1043 0279 04       		.byte	0x4
 1044 027a DB02     		.2byte	0x2db
 1045 027c 55030000 		.4byte	0x355
 1046 0280 03       		.byte	0x3
 1047 0281 23       		.byte	0x23
 1048 0282 D003     		.uleb128 0x1d0
 1049 0284 0B       		.uleb128 0xb
 1050 0285 464D5200 		.ascii	"FMR\000"
 1051 0289 04       		.byte	0x4
 1052 028a DC02     		.2byte	0x2dc
 1053 028c AF000000 		.4byte	0xaf
 1054 0290 03       		.byte	0x3
 1055 0291 23       		.byte	0x23
 1056 0292 8004     		.uleb128 0x200
 1057 0294 0C       		.uleb128 0xc
 1058 0295 F6020000 		.4byte	.LASF31
 1059 0299 04       		.byte	0x4
 1060 029a DD02     		.2byte	0x2dd
 1061 029c AF000000 		.4byte	0xaf
 1062 02a0 03       		.byte	0x3
 1063 02a1 23       		.byte	0x23
 1064 02a2 8404     		.uleb128 0x204
 1065 02a4 0C       		.uleb128 0xc
 1066 02a5 BB030000 		.4byte	.LASF32
 1067 02a9 04       		.byte	0x4
 1068 02aa DE02     		.2byte	0x2de
 1069 02ac 7B000000 		.4byte	0x7b
 1070 02b0 03       		.byte	0x3
 1071 02b1 23       		.byte	0x23
 1072 02b2 8804     		.uleb128 0x208
 1073 02b4 0C       		.uleb128 0xc
ARM GAS  /tmp/cclRsDut.s 			page 20


 1074 02b5 89020000 		.4byte	.LASF33
 1075 02b9 04       		.byte	0x4
 1076 02ba DF02     		.2byte	0x2df
 1077 02bc AF000000 		.4byte	0xaf
 1078 02c0 03       		.byte	0x3
 1079 02c1 23       		.byte	0x23
 1080 02c2 8C04     		.uleb128 0x20c
 1081 02c4 0C       		.uleb128 0xc
 1082 02c5 C5030000 		.4byte	.LASF34
 1083 02c9 04       		.byte	0x4
 1084 02ca E002     		.2byte	0x2e0
 1085 02cc 7B000000 		.4byte	0x7b
 1086 02d0 03       		.byte	0x3
 1087 02d1 23       		.byte	0x23
 1088 02d2 9004     		.uleb128 0x210
 1089 02d4 0C       		.uleb128 0xc
 1090 02d5 05000000 		.4byte	.LASF35
 1091 02d9 04       		.byte	0x4
 1092 02da E102     		.2byte	0x2e1
 1093 02dc AF000000 		.4byte	0xaf
 1094 02e0 03       		.byte	0x3
 1095 02e1 23       		.byte	0x23
 1096 02e2 9404     		.uleb128 0x214
 1097 02e4 0C       		.uleb128 0xc
 1098 02e5 88040000 		.4byte	.LASF36
 1099 02e9 04       		.byte	0x4
 1100 02ea E202     		.2byte	0x2e2
 1101 02ec 7B000000 		.4byte	0x7b
 1102 02f0 03       		.byte	0x3
 1103 02f1 23       		.byte	0x23
 1104 02f2 9804     		.uleb128 0x218
 1105 02f4 0C       		.uleb128 0xc
 1106 02f5 E1030000 		.4byte	.LASF37
 1107 02f9 04       		.byte	0x4
 1108 02fa E302     		.2byte	0x2e3
 1109 02fc AF000000 		.4byte	0xaf
 1110 0300 03       		.byte	0x3
 1111 0301 23       		.byte	0x23
 1112 0302 9C04     		.uleb128 0x21c
 1113 0304 0C       		.uleb128 0xc
 1114 0305 92040000 		.4byte	.LASF38
 1115 0309 04       		.byte	0x4
 1116 030a E402     		.2byte	0x2e4
 1117 030c C1000000 		.4byte	0xc1
 1118 0310 03       		.byte	0x3
 1119 0311 23       		.byte	0x23
 1120 0312 A004     		.uleb128 0x220
 1121 0314 0C       		.uleb128 0xc
 1122 0315 E6020000 		.4byte	.LASF39
 1123 0319 04       		.byte	0x4
 1124 031a E602     		.2byte	0x2e6
 1125 031c 65030000 		.4byte	0x365
 1126 0320 03       		.byte	0x3
 1127 0321 23       		.byte	0x23
 1128 0322 C004     		.uleb128 0x240
 1129 0324 00       		.byte	0
 1130 0325 08       		.uleb128 0x8
ARM GAS  /tmp/cclRsDut.s 			page 21


 1131 0326 7B000000 		.4byte	0x7b
 1132 032a 35030000 		.4byte	0x335
 1133 032e 09       		.uleb128 0x9
 1134 032f 30000000 		.4byte	0x30
 1135 0333 57       		.byte	0x57
 1136 0334 00       		.byte	0
 1137 0335 08       		.uleb128 0x8
 1138 0336 31010000 		.4byte	0x131
 1139 033a 45030000 		.4byte	0x345
 1140 033e 09       		.uleb128 0x9
 1141 033f 30000000 		.4byte	0x30
 1142 0343 02       		.byte	0x2
 1143 0344 00       		.byte	0
 1144 0345 08       		.uleb128 0x8
 1145 0346 83010000 		.4byte	0x183
 1146 034a 55030000 		.4byte	0x355
 1147 034e 09       		.uleb128 0x9
 1148 034f 30000000 		.4byte	0x30
 1149 0353 01       		.byte	0x1
 1150 0354 00       		.byte	0
 1151 0355 08       		.uleb128 0x8
 1152 0356 7B000000 		.4byte	0x7b
 1153 035a 65030000 		.4byte	0x365
 1154 035e 09       		.uleb128 0x9
 1155 035f 30000000 		.4byte	0x30
 1156 0363 0B       		.byte	0xb
 1157 0364 00       		.byte	0
 1158 0365 08       		.uleb128 0x8
 1159 0366 B7010000 		.4byte	0x1b7
 1160 036a 75030000 		.4byte	0x375
 1161 036e 09       		.uleb128 0x9
 1162 036f 30000000 		.4byte	0x30
 1163 0373 0D       		.byte	0xd
 1164 0374 00       		.byte	0
 1165 0375 0D       		.uleb128 0xd
 1166 0376 3F000000 		.4byte	.LASF40
 1167 037a 04       		.byte	0x4
 1168 037b EA02     		.2byte	0x2ea
 1169 037d C3010000 		.4byte	0x1c3
 1170 0381 0A       		.uleb128 0xa
 1171 0382 50       		.byte	0x50
 1172 0383 04       		.byte	0x4
 1173 0384 B104     		.2byte	0x4b1
 1174 0386 E2050000 		.4byte	0x5e2
 1175 038a 0B       		.uleb128 0xb
 1176 038b 43523100 		.ascii	"CR1\000"
 1177 038f 04       		.byte	0x4
 1178 0390 B304     		.2byte	0x4b3
 1179 0392 E1000000 		.4byte	0xe1
 1180 0396 02       		.byte	0x2
 1181 0397 23       		.byte	0x23
 1182 0398 00       		.uleb128 0
 1183 0399 0C       		.uleb128 0xc
 1184 039a A7030000 		.4byte	.LASF27
 1185 039e 04       		.byte	0x4
 1186 039f B404     		.2byte	0x4b4
 1187 03a1 57000000 		.4byte	0x57
ARM GAS  /tmp/cclRsDut.s 			page 22


 1188 03a5 02       		.byte	0x2
 1189 03a6 23       		.byte	0x23
 1190 03a7 02       		.uleb128 0x2
 1191 03a8 0B       		.uleb128 0xb
 1192 03a9 43523200 		.ascii	"CR2\000"
 1193 03ad 04       		.byte	0x4
 1194 03ae B504     		.2byte	0x4b5
 1195 03b0 E1000000 		.4byte	0xe1
 1196 03b4 02       		.byte	0x2
 1197 03b5 23       		.byte	0x23
 1198 03b6 04       		.uleb128 0x4
 1199 03b7 0C       		.uleb128 0xc
 1200 03b8 B1030000 		.4byte	.LASF30
 1201 03bc 04       		.byte	0x4
 1202 03bd B604     		.2byte	0x4b6
 1203 03bf 57000000 		.4byte	0x57
 1204 03c3 02       		.byte	0x2
 1205 03c4 23       		.byte	0x23
 1206 03c5 06       		.uleb128 0x6
 1207 03c6 0C       		.uleb128 0xc
 1208 03c7 A4020000 		.4byte	.LASF41
 1209 03cb 04       		.byte	0x4
 1210 03cc B704     		.2byte	0x4b7
 1211 03ce E1000000 		.4byte	0xe1
 1212 03d2 02       		.byte	0x2
 1213 03d3 23       		.byte	0x23
 1214 03d4 08       		.uleb128 0x8
 1215 03d5 0C       		.uleb128 0xc
 1216 03d6 BB030000 		.4byte	.LASF32
 1217 03da 04       		.byte	0x4
 1218 03db B804     		.2byte	0x4b8
 1219 03dd 57000000 		.4byte	0x57
 1220 03e1 02       		.byte	0x2
 1221 03e2 23       		.byte	0x23
 1222 03e3 0A       		.uleb128 0xa
 1223 03e4 0C       		.uleb128 0xc
 1224 03e5 00000000 		.4byte	.LASF42
 1225 03e9 04       		.byte	0x4
 1226 03ea B904     		.2byte	0x4b9
 1227 03ec E1000000 		.4byte	0xe1
 1228 03f0 02       		.byte	0x2
 1229 03f1 23       		.byte	0x23
 1230 03f2 0C       		.uleb128 0xc
 1231 03f3 0C       		.uleb128 0xc
 1232 03f4 C5030000 		.4byte	.LASF34
 1233 03f8 04       		.byte	0x4
 1234 03f9 BA04     		.2byte	0x4ba
 1235 03fb 57000000 		.4byte	0x57
 1236 03ff 02       		.byte	0x2
 1237 0400 23       		.byte	0x23
 1238 0401 0E       		.uleb128 0xe
 1239 0402 0B       		.uleb128 0xb
 1240 0403 535200   		.ascii	"SR\000"
 1241 0406 04       		.byte	0x4
 1242 0407 BB04     		.2byte	0x4bb
 1243 0409 E1000000 		.4byte	0xe1
 1244 040d 02       		.byte	0x2
ARM GAS  /tmp/cclRsDut.s 			page 23


 1245 040e 23       		.byte	0x23
 1246 040f 10       		.uleb128 0x10
 1247 0410 0C       		.uleb128 0xc
 1248 0411 88040000 		.4byte	.LASF36
 1249 0415 04       		.byte	0x4
 1250 0416 BC04     		.2byte	0x4bc
 1251 0418 57000000 		.4byte	0x57
 1252 041c 02       		.byte	0x2
 1253 041d 23       		.byte	0x23
 1254 041e 12       		.uleb128 0x12
 1255 041f 0B       		.uleb128 0xb
 1256 0420 45475200 		.ascii	"EGR\000"
 1257 0424 04       		.byte	0x4
 1258 0425 BD04     		.2byte	0x4bd
 1259 0427 E1000000 		.4byte	0xe1
 1260 042b 02       		.byte	0x2
 1261 042c 23       		.byte	0x23
 1262 042d 14       		.uleb128 0x14
 1263 042e 0C       		.uleb128 0xc
 1264 042f 92040000 		.4byte	.LASF38
 1265 0433 04       		.byte	0x4
 1266 0434 BE04     		.2byte	0x4be
 1267 0436 57000000 		.4byte	0x57
 1268 043a 02       		.byte	0x2
 1269 043b 23       		.byte	0x23
 1270 043c 16       		.uleb128 0x16
 1271 043d 0C       		.uleb128 0xc
 1272 043e BA000000 		.4byte	.LASF43
 1273 0442 04       		.byte	0x4
 1274 0443 BF04     		.2byte	0x4bf
 1275 0445 E1000000 		.4byte	0xe1
 1276 0449 02       		.byte	0x2
 1277 044a 23       		.byte	0x23
 1278 044b 18       		.uleb128 0x18
 1279 044c 0C       		.uleb128 0xc
 1280 044d E6030000 		.4byte	.LASF44
 1281 0451 04       		.byte	0x4
 1282 0452 C004     		.2byte	0x4c0
 1283 0454 57000000 		.4byte	0x57
 1284 0458 02       		.byte	0x2
 1285 0459 23       		.byte	0x23
 1286 045a 1A       		.uleb128 0x1a
 1287 045b 0C       		.uleb128 0xc
 1288 045c C0000000 		.4byte	.LASF45
 1289 0460 04       		.byte	0x4
 1290 0461 C104     		.2byte	0x4c1
 1291 0463 E1000000 		.4byte	0xe1
 1292 0467 02       		.byte	0x2
 1293 0468 23       		.byte	0x23
 1294 0469 1C       		.uleb128 0x1c
 1295 046a 0C       		.uleb128 0xc
 1296 046b A5040000 		.4byte	.LASF46
 1297 046f 04       		.byte	0x4
 1298 0470 C204     		.2byte	0x4c2
 1299 0472 57000000 		.4byte	0x57
 1300 0476 02       		.byte	0x2
 1301 0477 23       		.byte	0x23
ARM GAS  /tmp/cclRsDut.s 			page 24


 1302 0478 1E       		.uleb128 0x1e
 1303 0479 0C       		.uleb128 0xc
 1304 047a 16020000 		.4byte	.LASF47
 1305 047e 04       		.byte	0x4
 1306 047f C304     		.2byte	0x4c3
 1307 0481 E1000000 		.4byte	0xe1
 1308 0485 02       		.byte	0x2
 1309 0486 23       		.byte	0x23
 1310 0487 20       		.uleb128 0x20
 1311 0488 0C       		.uleb128 0xc
 1312 0489 F0030000 		.4byte	.LASF48
 1313 048d 04       		.byte	0x4
 1314 048e C404     		.2byte	0x4c4
 1315 0490 57000000 		.4byte	0x57
 1316 0494 02       		.byte	0x2
 1317 0495 23       		.byte	0x23
 1318 0496 22       		.uleb128 0x22
 1319 0497 0B       		.uleb128 0xb
 1320 0498 434E5400 		.ascii	"CNT\000"
 1321 049c 04       		.byte	0x4
 1322 049d C504     		.2byte	0x4c5
 1323 049f E1000000 		.4byte	0xe1
 1324 04a3 02       		.byte	0x2
 1325 04a4 23       		.byte	0x23
 1326 04a5 24       		.uleb128 0x24
 1327 04a6 0C       		.uleb128 0xc
 1328 04a7 FA030000 		.4byte	.LASF49
 1329 04ab 04       		.byte	0x4
 1330 04ac C604     		.2byte	0x4c6
 1331 04ae 57000000 		.4byte	0x57
 1332 04b2 02       		.byte	0x2
 1333 04b3 23       		.byte	0x23
 1334 04b4 26       		.uleb128 0x26
 1335 04b5 0B       		.uleb128 0xb
 1336 04b6 50534300 		.ascii	"PSC\000"
 1337 04ba 04       		.byte	0x4
 1338 04bb C704     		.2byte	0x4c7
 1339 04bd E1000000 		.4byte	0xe1
 1340 04c1 02       		.byte	0x2
 1341 04c2 23       		.byte	0x23
 1342 04c3 28       		.uleb128 0x28
 1343 04c4 0C       		.uleb128 0xc
 1344 04c5 01010000 		.4byte	.LASF50
 1345 04c9 04       		.byte	0x4
 1346 04ca C804     		.2byte	0x4c8
 1347 04cc 57000000 		.4byte	0x57
 1348 04d0 02       		.byte	0x2
 1349 04d1 23       		.byte	0x23
 1350 04d2 2A       		.uleb128 0x2a
 1351 04d3 0B       		.uleb128 0xb
 1352 04d4 41525200 		.ascii	"ARR\000"
 1353 04d8 04       		.byte	0x4
 1354 04d9 C904     		.2byte	0x4c9
 1355 04db E1000000 		.4byte	0xe1
 1356 04df 02       		.byte	0x2
 1357 04e0 23       		.byte	0x23
 1358 04e1 2C       		.uleb128 0x2c
ARM GAS  /tmp/cclRsDut.s 			page 25


 1359 04e2 0C       		.uleb128 0xc
 1360 04e3 0C010000 		.4byte	.LASF51
 1361 04e7 04       		.byte	0x4
 1362 04e8 CA04     		.2byte	0x4ca
 1363 04ea 57000000 		.4byte	0x57
 1364 04ee 02       		.byte	0x2
 1365 04ef 23       		.byte	0x23
 1366 04f0 2E       		.uleb128 0x2e
 1367 04f1 0B       		.uleb128 0xb
 1368 04f2 52435200 		.ascii	"RCR\000"
 1369 04f6 04       		.byte	0x4
 1370 04f7 CB04     		.2byte	0x4cb
 1371 04f9 E1000000 		.4byte	0xe1
 1372 04fd 02       		.byte	0x2
 1373 04fe 23       		.byte	0x23
 1374 04ff 30       		.uleb128 0x30
 1375 0500 0C       		.uleb128 0xc
 1376 0501 17010000 		.4byte	.LASF52
 1377 0505 04       		.byte	0x4
 1378 0506 CC04     		.2byte	0x4cc
 1379 0508 57000000 		.4byte	0x57
 1380 050c 02       		.byte	0x2
 1381 050d 23       		.byte	0x23
 1382 050e 32       		.uleb128 0x32
 1383 050f 0C       		.uleb128 0xc
 1384 0510 74000000 		.4byte	.LASF53
 1385 0514 04       		.byte	0x4
 1386 0515 CD04     		.2byte	0x4cd
 1387 0517 E1000000 		.4byte	0xe1
 1388 051b 02       		.byte	0x2
 1389 051c 23       		.byte	0x23
 1390 051d 34       		.uleb128 0x34
 1391 051e 0C       		.uleb128 0xc
 1392 051f 22010000 		.4byte	.LASF54
 1393 0523 04       		.byte	0x4
 1394 0524 CE04     		.2byte	0x4ce
 1395 0526 57000000 		.4byte	0x57
 1396 052a 02       		.byte	0x2
 1397 052b 23       		.byte	0x23
 1398 052c 36       		.uleb128 0x36
 1399 052d 0C       		.uleb128 0xc
 1400 052e 6B050000 		.4byte	.LASF55
 1401 0532 04       		.byte	0x4
 1402 0533 CF04     		.2byte	0x4cf
 1403 0535 E1000000 		.4byte	0xe1
 1404 0539 02       		.byte	0x2
 1405 053a 23       		.byte	0x23
 1406 053b 38       		.uleb128 0x38
 1407 053c 0C       		.uleb128 0xc
 1408 053d 2D010000 		.4byte	.LASF56
 1409 0541 04       		.byte	0x4
 1410 0542 D004     		.2byte	0x4d0
 1411 0544 57000000 		.4byte	0x57
 1412 0548 02       		.byte	0x2
 1413 0549 23       		.byte	0x23
 1414 054a 3A       		.uleb128 0x3a
 1415 054b 0C       		.uleb128 0xc
ARM GAS  /tmp/cclRsDut.s 			page 26


 1416 054c 70050000 		.4byte	.LASF57
 1417 0550 04       		.byte	0x4
 1418 0551 D104     		.2byte	0x4d1
 1419 0553 E1000000 		.4byte	0xe1
 1420 0557 02       		.byte	0x2
 1421 0558 23       		.byte	0x23
 1422 0559 3C       		.uleb128 0x3c
 1423 055a 0C       		.uleb128 0xc
 1424 055b 38010000 		.4byte	.LASF58
 1425 055f 04       		.byte	0x4
 1426 0560 D204     		.2byte	0x4d2
 1427 0562 57000000 		.4byte	0x57
 1428 0566 02       		.byte	0x2
 1429 0567 23       		.byte	0x23
 1430 0568 3E       		.uleb128 0x3e
 1431 0569 0C       		.uleb128 0xc
 1432 056a 75050000 		.4byte	.LASF59
 1433 056e 04       		.byte	0x4
 1434 056f D304     		.2byte	0x4d3
 1435 0571 E1000000 		.4byte	0xe1
 1436 0575 02       		.byte	0x2
 1437 0576 23       		.byte	0x23
 1438 0577 40       		.uleb128 0x40
 1439 0578 0C       		.uleb128 0xc
 1440 0579 43010000 		.4byte	.LASF60
 1441 057d 04       		.byte	0x4
 1442 057e D404     		.2byte	0x4d4
 1443 0580 57000000 		.4byte	0x57
 1444 0584 02       		.byte	0x2
 1445 0585 23       		.byte	0x23
 1446 0586 42       		.uleb128 0x42
 1447 0587 0C       		.uleb128 0xc
 1448 0588 B5000000 		.4byte	.LASF61
 1449 058c 04       		.byte	0x4
 1450 058d D504     		.2byte	0x4d5
 1451 058f E1000000 		.4byte	0xe1
 1452 0593 02       		.byte	0x2
 1453 0594 23       		.byte	0x23
 1454 0595 44       		.uleb128 0x44
 1455 0596 0C       		.uleb128 0xc
 1456 0597 4E010000 		.4byte	.LASF62
 1457 059b 04       		.byte	0x4
 1458 059c D604     		.2byte	0x4d6
 1459 059e 57000000 		.4byte	0x57
 1460 05a2 02       		.byte	0x2
 1461 05a3 23       		.byte	0x23
 1462 05a4 46       		.uleb128 0x46
 1463 05a5 0B       		.uleb128 0xb
 1464 05a6 44435200 		.ascii	"DCR\000"
 1465 05aa 04       		.byte	0x4
 1466 05ab D704     		.2byte	0x4d7
 1467 05ad E1000000 		.4byte	0xe1
 1468 05b1 02       		.byte	0x2
 1469 05b2 23       		.byte	0x23
 1470 05b3 48       		.uleb128 0x48
 1471 05b4 0C       		.uleb128 0xc
 1472 05b5 59010000 		.4byte	.LASF63
ARM GAS  /tmp/cclRsDut.s 			page 27


 1473 05b9 04       		.byte	0x4
 1474 05ba D804     		.2byte	0x4d8
 1475 05bc 57000000 		.4byte	0x57
 1476 05c0 02       		.byte	0x2
 1477 05c1 23       		.byte	0x23
 1478 05c2 4A       		.uleb128 0x4a
 1479 05c3 0C       		.uleb128 0xc
 1480 05c4 D1040000 		.4byte	.LASF64
 1481 05c8 04       		.byte	0x4
 1482 05c9 D904     		.2byte	0x4d9
 1483 05cb E1000000 		.4byte	0xe1
 1484 05cf 02       		.byte	0x2
 1485 05d0 23       		.byte	0x23
 1486 05d1 4C       		.uleb128 0x4c
 1487 05d2 0C       		.uleb128 0xc
 1488 05d3 99050000 		.4byte	.LASF65
 1489 05d7 04       		.byte	0x4
 1490 05d8 DA04     		.2byte	0x4da
 1491 05da 57000000 		.4byte	0x57
 1492 05de 02       		.byte	0x2
 1493 05df 23       		.byte	0x23
 1494 05e0 4E       		.uleb128 0x4e
 1495 05e1 00       		.byte	0
 1496 05e2 0D       		.uleb128 0xd
 1497 05e3 61000000 		.4byte	.LASF66
 1498 05e7 04       		.byte	0x4
 1499 05e8 DB04     		.2byte	0x4db
 1500 05ea 81030000 		.4byte	0x381
 1501 05ee 04       		.uleb128 0x4
 1502 05ef B4040000 		.4byte	.LASF67
 1503 05f3 05       		.byte	0x5
 1504 05f4 55       		.byte	0x55
 1505 05f5 F9050000 		.4byte	0x5f9
 1506 05f9 0F       		.uleb128 0xf
 1507 05fa B4040000 		.4byte	.LASF67
 1508 05fe 1E       		.byte	0x1e
 1509 05ff 05       		.byte	0x5
 1510 0600 AB       		.byte	0xab
 1511 0601 8E060000 		.4byte	0x68e
 1512 0605 10       		.uleb128 0x10
 1513 0606 0B000000 		.4byte	.LASF68
 1514 060a 05       		.byte	0x5
 1515 060b AC       		.byte	0xac
 1516 060c AB060000 		.4byte	0x6ab
 1517 0610 02       		.byte	0x2
 1518 0611 23       		.byte	0x23
 1519 0612 00       		.uleb128 0
 1520 0613 10       		.uleb128 0x10
 1521 0614 7A050000 		.4byte	.LASF69
 1522 0618 05       		.byte	0x5
 1523 0619 AD       		.byte	0xad
 1524 061a 22070000 		.4byte	0x722
 1525 061e 02       		.byte	0x2
 1526 061f 23       		.byte	0x23
 1527 0620 04       		.uleb128 0x4
 1528 0621 10       		.uleb128 0x10
 1529 0622 D8020000 		.4byte	.LASF70
ARM GAS  /tmp/cclRsDut.s 			page 28


 1530 0626 05       		.byte	0x5
 1531 0627 AE       		.byte	0xae
 1532 0628 8E060000 		.4byte	0x68e
 1533 062c 02       		.byte	0x2
 1534 062d 23       		.byte	0x23
 1535 062e 05       		.uleb128 0x5
 1536 062f 10       		.uleb128 0x10
 1537 0630 1B020000 		.4byte	.LASF71
 1538 0634 05       		.byte	0x5
 1539 0635 AF       		.byte	0xaf
 1540 0636 AD000000 		.4byte	0xad
 1541 063a 02       		.byte	0x2
 1542 063b 23       		.byte	0x23
 1543 063c 09       		.uleb128 0x9
 1544 063d 11       		.uleb128 0x11
 1545 063e B7090000 		.4byte	0x9b7
 1546 0642 02       		.byte	0x2
 1547 0643 23       		.byte	0x23
 1548 0644 0D       		.uleb128 0xd
 1549 0645 12       		.uleb128 0x12
 1550 0646 696400   		.ascii	"id\000"
 1551 0649 05       		.byte	0x5
 1552 064a B9       		.byte	0xb9
 1553 064b 57000000 		.4byte	0x57
 1554 064f 02       		.byte	0x2
 1555 0650 23       		.byte	0x23
 1556 0651 11       		.uleb128 0x11
 1557 0652 10       		.uleb128 0x10
 1558 0653 C2050000 		.4byte	.LASF72
 1559 0657 05       		.byte	0x5
 1560 0658 BA       		.byte	0xba
 1561 0659 57000000 		.4byte	0x57
 1562 065d 02       		.byte	0x2
 1563 065e 23       		.byte	0x23
 1564 065f 13       		.uleb128 0x13
 1565 0660 10       		.uleb128 0x10
 1566 0661 9F020000 		.4byte	.LASF73
 1567 0665 05       		.byte	0x5
 1568 0666 BB       		.byte	0xbb
 1569 0667 BB000000 		.4byte	0xbb
 1570 066b 02       		.byte	0x2
 1571 066c 23       		.byte	0x23
 1572 066d 15       		.uleb128 0x15
 1573 066e 12       		.uleb128 0x12
 1574 066f 70747200 		.ascii	"ptr\000"
 1575 0673 05       		.byte	0x5
 1576 0674 BC       		.byte	0xbc
 1577 0675 BB000000 		.4byte	0xbb
 1578 0679 02       		.byte	0x2
 1579 067a 23       		.byte	0x23
 1580 067b 19       		.uleb128 0x19
 1581 067c 13       		.uleb128 0x13
 1582 067d 60040000 		.4byte	.LASF104
 1583 0681 05       		.byte	0x5
 1584 0682 BD       		.byte	0xbd
 1585 0683 3E000000 		.4byte	0x3e
 1586 0687 01       		.byte	0x1
ARM GAS  /tmp/cclRsDut.s 			page 29


 1587 0688 07       		.byte	0x7
 1588 0689 01       		.byte	0x1
 1589 068a 02       		.byte	0x2
 1590 068b 23       		.byte	0x23
 1591 068c 1D       		.uleb128 0x1d
 1592 068d 00       		.byte	0
 1593 068e 04       		.uleb128 0x4
 1594 068f 77030000 		.4byte	.LASF74
 1595 0693 05       		.byte	0x5
 1596 0694 5A       		.byte	0x5a
 1597 0695 99060000 		.4byte	0x699
 1598 0699 07       		.uleb128 0x7
 1599 069a 04       		.byte	0x4
 1600 069b 9F060000 		.4byte	0x69f
 1601 069f 14       		.uleb128 0x14
 1602 06a0 01       		.byte	0x1
 1603 06a1 AB060000 		.4byte	0x6ab
 1604 06a5 15       		.uleb128 0x15
 1605 06a6 AB060000 		.4byte	0x6ab
 1606 06aa 00       		.byte	0
 1607 06ab 07       		.uleb128 0x7
 1608 06ac 04       		.byte	0x4
 1609 06ad EE050000 		.4byte	0x5ee
 1610 06b1 16       		.uleb128 0x16
 1611 06b2 01       		.byte	0x1
 1612 06b3 05       		.byte	0x5
 1613 06b4 5F       		.byte	0x5f
 1614 06b5 E4060000 		.4byte	0x6e4
 1615 06b9 17       		.uleb128 0x17
 1616 06ba 59030000 		.4byte	.LASF75
 1617 06be 00       		.sleb128 0
 1618 06bf 17       		.uleb128 0x17
 1619 06c0 1B000000 		.4byte	.LASF76
 1620 06c4 01       		.sleb128 1
 1621 06c5 17       		.uleb128 0x17
 1622 06c6 37030000 		.4byte	.LASF77
 1623 06ca 02       		.sleb128 2
 1624 06cb 17       		.uleb128 0x17
 1625 06cc B6050000 		.4byte	.LASF78
 1626 06d0 03       		.sleb128 3
 1627 06d1 17       		.uleb128 0x17
 1628 06d2 08020000 		.4byte	.LASF79
 1629 06d6 04       		.sleb128 4
 1630 06d7 17       		.uleb128 0x17
 1631 06d8 66020000 		.4byte	.LASF80
 1632 06dc 05       		.sleb128 5
 1633 06dd 17       		.uleb128 0x17
 1634 06de C7050000 		.4byte	.LASF81
 1635 06e2 06       		.sleb128 6
 1636 06e3 00       		.byte	0
 1637 06e4 04       		.uleb128 0x4
 1638 06e5 95030000 		.4byte	.LASF82
 1639 06e9 05       		.byte	0x5
 1640 06ea 67       		.byte	0x67
 1641 06eb B1060000 		.4byte	0x6b1
 1642 06ef 16       		.uleb128 0x16
 1643 06f0 01       		.byte	0x1
ARM GAS  /tmp/cclRsDut.s 			page 30


 1644 06f1 05       		.byte	0x5
 1645 06f2 6C       		.byte	0x6c
 1646 06f3 22070000 		.4byte	0x722
 1647 06f7 17       		.uleb128 0x17
 1648 06f8 E0000000 		.4byte	.LASF83
 1649 06fc 00       		.sleb128 0
 1650 06fd 17       		.uleb128 0x17
 1651 06fe 35050000 		.4byte	.LASF84
 1652 0702 01       		.sleb128 1
 1653 0703 17       		.uleb128 0x17
 1654 0704 69040000 		.4byte	.LASF85
 1655 0708 02       		.sleb128 2
 1656 0709 17       		.uleb128 0x17
 1657 070a 4F040000 		.4byte	.LASF86
 1658 070e 03       		.sleb128 3
 1659 070f 17       		.uleb128 0x17
 1660 0710 27030000 		.4byte	.LASF87
 1661 0714 04       		.sleb128 4
 1662 0715 17       		.uleb128 0x17
 1663 0716 CF030000 		.4byte	.LASF88
 1664 071a 05       		.sleb128 5
 1665 071b 17       		.uleb128 0x17
 1666 071c 05030000 		.4byte	.LASF89
 1667 0720 06       		.sleb128 6
 1668 0721 00       		.byte	0
 1669 0722 04       		.uleb128 0x4
 1670 0723 15030000 		.4byte	.LASF90
 1671 0727 05       		.byte	0x5
 1672 0728 74       		.byte	0x74
 1673 0729 EF060000 		.4byte	0x6ef
 1674 072d 18       		.uleb128 0x18
 1675 072e 04       		.byte	0x4
 1676 072f 06       		.byte	0x6
 1677 0730 1E       		.byte	0x1e
 1678 0731 44070000 		.4byte	0x744
 1679 0735 10       		.uleb128 0x10
 1680 0736 0B000000 		.4byte	.LASF68
 1681 073a 06       		.byte	0x6
 1682 073b 20       		.byte	0x20
 1683 073c AB060000 		.4byte	0x6ab
 1684 0740 02       		.byte	0x2
 1685 0741 23       		.byte	0x23
 1686 0742 00       		.uleb128 0
 1687 0743 00       		.byte	0
 1688 0744 04       		.uleb128 0x4
 1689 0745 F3050000 		.4byte	.LASF91
 1690 0749 06       		.byte	0x6
 1691 074a 21       		.byte	0x21
 1692 074b 2D070000 		.4byte	0x72d
 1693 074f 0F       		.uleb128 0xf
 1694 0750 A2000000 		.4byte	.LASF92
 1695 0754 6C       		.byte	0x6c
 1696 0755 05       		.byte	0x5
 1697 0756 D5       		.byte	0xd5
 1698 0757 F8070000 		.4byte	0x7f8
 1699 075b 10       		.uleb128 0x10
 1700 075c 64010000 		.4byte	.LASF93
ARM GAS  /tmp/cclRsDut.s 			page 31


 1701 0760 05       		.byte	0x5
 1702 0761 D9       		.byte	0xd9
 1703 0762 E4060000 		.4byte	0x6e4
 1704 0766 02       		.byte	0x2
 1705 0767 23       		.byte	0x23
 1706 0768 00       		.uleb128 0
 1707 0769 10       		.uleb128 0x10
 1708 076a E1020000 		.4byte	.LASF94
 1709 076e 05       		.byte	0x5
 1710 076f DD       		.byte	0xdd
 1711 0770 7B000000 		.4byte	0x7b
 1712 0774 02       		.byte	0x2
 1713 0775 23       		.byte	0x23
 1714 0776 04       		.uleb128 0x4
 1715 0777 10       		.uleb128 0x10
 1716 0778 5E050000 		.4byte	.LASF95
 1717 077c 05       		.byte	0x5
 1718 077d E1       		.byte	0xe1
 1719 077e 7B000000 		.4byte	0x7b
 1720 0782 02       		.byte	0x2
 1721 0783 23       		.byte	0x23
 1722 0784 08       		.uleb128 0x8
 1723 0785 10       		.uleb128 0x10
 1724 0786 C0040000 		.4byte	.LASF96
 1725 078a 05       		.byte	0x5
 1726 078b E5       		.byte	0xe5
 1727 078c 44070000 		.4byte	0x744
 1728 0790 02       		.byte	0x2
 1729 0791 23       		.byte	0x23
 1730 0792 0C       		.uleb128 0xc
 1731 0793 10       		.uleb128 0x10
 1732 0794 46030000 		.4byte	.LASF97
 1733 0798 05       		.byte	0x5
 1734 0799 E9       		.byte	0xe9
 1735 079a 080A0000 		.4byte	0xa08
 1736 079e 02       		.byte	0x2
 1737 079f 23       		.byte	0x23
 1738 07a0 10       		.uleb128 0x10
 1739 07a1 10       		.uleb128 0x10
 1740 07a2 EB050000 		.4byte	.LASF98
 1741 07a6 05       		.byte	0x5
 1742 07a7 ED       		.byte	0xed
 1743 07a8 180A0000 		.4byte	0xa18
 1744 07ac 02       		.byte	0x2
 1745 07ad 23       		.byte	0x23
 1746 07ae 1C       		.uleb128 0x1c
 1747 07af 10       		.uleb128 0x10
 1748 07b0 FE050000 		.4byte	.LASF99
 1749 07b4 05       		.byte	0x5
 1750 07b5 F2       		.byte	0xf2
 1751 07b6 DB080000 		.4byte	0x8db
 1752 07ba 02       		.byte	0x2
 1753 07bb 23       		.byte	0x23
 1754 07bc 54       		.uleb128 0x54
 1755 07bd 10       		.uleb128 0x10
 1756 07be F2040000 		.4byte	.LASF100
 1757 07c2 05       		.byte	0x5
ARM GAS  /tmp/cclRsDut.s 			page 32


 1758 07c3 F6       		.byte	0xf6
 1759 07c4 D1000000 		.4byte	0xd1
 1760 07c8 02       		.byte	0x2
 1761 07c9 23       		.byte	0x23
 1762 07ca 58       		.uleb128 0x58
 1763 07cb 10       		.uleb128 0x10
 1764 07cc CA040000 		.4byte	.LASF101
 1765 07d0 05       		.byte	0x5
 1766 07d1 FB       		.byte	0xfb
 1767 07d2 280A0000 		.4byte	0xa28
 1768 07d6 02       		.byte	0x2
 1769 07d7 23       		.byte	0x23
 1770 07d8 60       		.uleb128 0x60
 1771 07d9 0B       		.uleb128 0xb
 1772 07da 74696D00 		.ascii	"tim\000"
 1773 07de 05       		.byte	0x5
 1774 07df 0001     		.2byte	0x100
 1775 07e1 330A0000 		.4byte	0xa33
 1776 07e5 02       		.byte	0x2
 1777 07e6 23       		.byte	0x23
 1778 07e7 64       		.uleb128 0x64
 1779 07e8 0B       		.uleb128 0xb
 1780 07e9 63616E00 		.ascii	"can\000"
 1781 07ed 05       		.byte	0x5
 1782 07ee 0501     		.2byte	0x105
 1783 07f0 390A0000 		.4byte	0xa39
 1784 07f4 02       		.byte	0x2
 1785 07f5 23       		.byte	0x23
 1786 07f6 68       		.uleb128 0x68
 1787 07f7 00       		.byte	0
 1788 07f8 04       		.uleb128 0x4
 1789 07f9 8B030000 		.4byte	.LASF102
 1790 07fd 07       		.byte	0x7
 1791 07fe 26       		.byte	0x26
 1792 07ff 03080000 		.4byte	0x803
 1793 0803 0F       		.uleb128 0xf
 1794 0804 8B030000 		.4byte	.LASF102
 1795 0808 1C       		.byte	0x1c
 1796 0809 07       		.byte	0x7
 1797 080a 30       		.byte	0x30
 1798 080b A1080000 		.4byte	0x8a1
 1799 080f 10       		.uleb128 0x10
 1800 0810 0B000000 		.4byte	.LASF68
 1801 0814 07       		.byte	0x7
 1802 0815 32       		.byte	0x32
 1803 0816 BE080000 		.4byte	0x8be
 1804 081a 02       		.byte	0x2
 1805 081b 23       		.byte	0x23
 1806 081c 00       		.uleb128 0
 1807 081d 10       		.uleb128 0x10
 1808 081e 57050000 		.4byte	.LASF103
 1809 0822 07       		.byte	0x7
 1810 0823 33       		.byte	0x33
 1811 0824 A1080000 		.4byte	0x8a1
 1812 0828 02       		.byte	0x2
 1813 0829 23       		.byte	0x23
 1814 082a 04       		.uleb128 0x4
ARM GAS  /tmp/cclRsDut.s 			page 33


 1815 082b 10       		.uleb128 0x10
 1816 082c 7A050000 		.4byte	.LASF69
 1817 0830 07       		.byte	0x7
 1818 0831 34       		.byte	0x34
 1819 0832 22070000 		.4byte	0x722
 1820 0836 02       		.byte	0x2
 1821 0837 23       		.byte	0x23
 1822 0838 08       		.uleb128 0x8
 1823 0839 19       		.uleb128 0x19
 1824 083a 696400   		.ascii	"id\000"
 1825 083d 07       		.byte	0x7
 1826 083e 35       		.byte	0x35
 1827 083f 57000000 		.4byte	0x57
 1828 0843 02       		.byte	0x2
 1829 0844 10       		.byte	0x10
 1830 0845 00       		.byte	0
 1831 0846 02       		.byte	0x2
 1832 0847 23       		.byte	0x23
 1833 0848 09       		.uleb128 0x9
 1834 0849 10       		.uleb128 0x10
 1835 084a C2050000 		.4byte	.LASF72
 1836 084e 07       		.byte	0x7
 1837 084f 36       		.byte	0x36
 1838 0850 57000000 		.4byte	0x57
 1839 0854 02       		.byte	0x2
 1840 0855 23       		.byte	0x23
 1841 0856 0B       		.uleb128 0xb
 1842 0857 10       		.uleb128 0x10
 1843 0858 E1020000 		.4byte	.LASF94
 1844 085c 07       		.byte	0x7
 1845 085d 37       		.byte	0x37
 1846 085e 7B000000 		.4byte	0x7b
 1847 0862 02       		.byte	0x2
 1848 0863 23       		.byte	0x23
 1849 0864 0D       		.uleb128 0xd
 1850 0865 10       		.uleb128 0x10
 1851 0866 6D000000 		.4byte	.LASF105
 1852 086a 07       		.byte	0x7
 1853 086b 38       		.byte	0x38
 1854 086c 57000000 		.4byte	0x57
 1855 0870 02       		.byte	0x2
 1856 0871 23       		.byte	0x23
 1857 0872 11       		.uleb128 0x11
 1858 0873 10       		.uleb128 0x10
 1859 0874 9F020000 		.4byte	.LASF73
 1860 0878 07       		.byte	0x7
 1861 0879 39       		.byte	0x39
 1862 087a BB000000 		.4byte	0xbb
 1863 087e 02       		.byte	0x2
 1864 087f 23       		.byte	0x23
 1865 0880 13       		.uleb128 0x13
 1866 0881 12       		.uleb128 0x12
 1867 0882 70747200 		.ascii	"ptr\000"
 1868 0886 07       		.byte	0x7
 1869 0887 3A       		.byte	0x3a
 1870 0888 BB000000 		.4byte	0xbb
 1871 088c 02       		.byte	0x2
ARM GAS  /tmp/cclRsDut.s 			page 34


 1872 088d 23       		.byte	0x23
 1873 088e 17       		.uleb128 0x17
 1874 088f 13       		.uleb128 0x13
 1875 0890 60040000 		.4byte	.LASF104
 1876 0894 07       		.byte	0x7
 1877 0895 3B       		.byte	0x3b
 1878 0896 3E000000 		.4byte	0x3e
 1879 089a 01       		.byte	0x1
 1880 089b 07       		.byte	0x7
 1881 089c 01       		.byte	0x1
 1882 089d 02       		.byte	0x2
 1883 089e 23       		.byte	0x23
 1884 089f 1B       		.uleb128 0x1b
 1885 08a0 00       		.byte	0
 1886 08a1 04       		.uleb128 0x4
 1887 08a2 26050000 		.4byte	.LASF106
 1888 08a6 07       		.byte	0x7
 1889 08a7 2B       		.byte	0x2b
 1890 08a8 AC080000 		.4byte	0x8ac
 1891 08ac 07       		.uleb128 0x7
 1892 08ad 04       		.byte	0x4
 1893 08ae B2080000 		.4byte	0x8b2
 1894 08b2 14       		.uleb128 0x14
 1895 08b3 01       		.byte	0x1
 1896 08b4 BE080000 		.4byte	0x8be
 1897 08b8 15       		.uleb128 0x15
 1898 08b9 BE080000 		.4byte	0x8be
 1899 08bd 00       		.byte	0
 1900 08be 07       		.uleb128 0x7
 1901 08bf 04       		.byte	0x4
 1902 08c0 F8070000 		.4byte	0x7f8
 1903 08c4 18       		.uleb128 0x18
 1904 08c5 04       		.byte	0x4
 1905 08c6 07       		.byte	0x7
 1906 08c7 41       		.byte	0x41
 1907 08c8 DB080000 		.4byte	0x8db
 1908 08cc 10       		.uleb128 0x10
 1909 08cd 0B000000 		.4byte	.LASF68
 1910 08d1 07       		.byte	0x7
 1911 08d2 42       		.byte	0x42
 1912 08d3 BE080000 		.4byte	0x8be
 1913 08d7 02       		.byte	0x2
 1914 08d8 23       		.byte	0x23
 1915 08d9 00       		.uleb128 0
 1916 08da 00       		.byte	0
 1917 08db 04       		.uleb128 0x4
 1918 08dc C9020000 		.4byte	.LASF107
 1919 08e0 07       		.byte	0x7
 1920 08e1 43       		.byte	0x43
 1921 08e2 C4080000 		.4byte	0x8c4
 1922 08e6 1A       		.uleb128 0x1a
 1923 08e7 08       		.byte	0x8
 1924 08e8 05       		.byte	0x5
 1925 08e9 93       		.byte	0x93
 1926 08ea 10090000 		.4byte	0x910
 1927 08ee 1B       		.uleb128 0x1b
 1928 08ef 66030000 		.4byte	.LASF108
ARM GAS  /tmp/cclRsDut.s 			page 35


 1929 08f3 05       		.byte	0x5
 1930 08f4 94       		.byte	0x94
 1931 08f5 10090000 		.4byte	0x910
 1932 08f9 1B       		.uleb128 0x1b
 1933 08fa 64050000 		.4byte	.LASF109
 1934 08fe 05       		.byte	0x5
 1935 08ff 95       		.byte	0x95
 1936 0900 20090000 		.4byte	0x920
 1937 0904 1B       		.uleb128 0x1b
 1938 0905 AE000000 		.4byte	.LASF110
 1939 0909 05       		.byte	0x5
 1940 090a 96       		.byte	0x96
 1941 090b D1000000 		.4byte	0xd1
 1942 090f 00       		.byte	0
 1943 0910 08       		.uleb128 0x8
 1944 0911 3E000000 		.4byte	0x3e
 1945 0915 20090000 		.4byte	0x920
 1946 0919 09       		.uleb128 0x9
 1947 091a 30000000 		.4byte	0x30
 1948 091e 07       		.byte	0x7
 1949 091f 00       		.byte	0
 1950 0920 08       		.uleb128 0x8
 1951 0921 57000000 		.4byte	0x57
 1952 0925 30090000 		.4byte	0x930
 1953 0929 09       		.uleb128 0x9
 1954 092a 30000000 		.4byte	0x30
 1955 092e 03       		.byte	0x3
 1956 092f 00       		.byte	0
 1957 0930 18       		.uleb128 0x18
 1958 0931 10       		.byte	0x10
 1959 0932 05       		.byte	0x5
 1960 0933 8F       		.byte	0x8f
 1961 0934 70090000 		.4byte	0x970
 1962 0938 19       		.uleb128 0x19
 1963 0939 696400   		.ascii	"id\000"
 1964 093c 05       		.byte	0x5
 1965 093d 90       		.byte	0x90
 1966 093e 7B000000 		.4byte	0x7b
 1967 0942 04       		.byte	0x4
 1968 0943 1D       		.byte	0x1d
 1969 0944 03       		.byte	0x3
 1970 0945 02       		.byte	0x2
 1971 0946 23       		.byte	0x23
 1972 0947 00       		.uleb128 0
 1973 0948 19       		.uleb128 0x19
 1974 0949 6C656E00 		.ascii	"len\000"
 1975 094d 05       		.byte	0x5
 1976 094e 91       		.byte	0x91
 1977 094f 3E000000 		.4byte	0x3e
 1978 0953 01       		.byte	0x1
 1979 0954 04       		.byte	0x4
 1980 0955 04       		.byte	0x4
 1981 0956 02       		.byte	0x2
 1982 0957 23       		.byte	0x23
 1983 0958 04       		.uleb128 0x4
 1984 0959 10       		.uleb128 0x10
 1985 095a A2030000 		.4byte	.LASF111
ARM GAS  /tmp/cclRsDut.s 			page 36


 1986 095e 05       		.byte	0x5
 1987 095f 92       		.byte	0x92
 1988 0960 3E000000 		.4byte	0x3e
 1989 0964 02       		.byte	0x2
 1990 0965 23       		.byte	0x23
 1991 0966 05       		.uleb128 0x5
 1992 0967 11       		.uleb128 0x11
 1993 0968 E6080000 		.4byte	0x8e6
 1994 096c 02       		.byte	0x2
 1995 096d 23       		.byte	0x23
 1996 096e 08       		.uleb128 0x8
 1997 096f 00       		.byte	0
 1998 0970 04       		.uleb128 0x4
 1999 0971 40020000 		.4byte	.LASF112
 2000 0975 05       		.byte	0x5
 2001 0976 98       		.byte	0x98
 2002 0977 30090000 		.4byte	0x930
 2003 097b 18       		.uleb128 0x18
 2004 097c 04       		.byte	0x4
 2005 097d 05       		.byte	0x5
 2006 097e B1       		.byte	0xb1
 2007 097f 92090000 		.4byte	0x992
 2008 0983 10       		.uleb128 0x10
 2009 0984 03050000 		.4byte	.LASF113
 2010 0988 05       		.byte	0x5
 2011 0989 B2       		.byte	0xb2
 2012 098a 7B000000 		.4byte	0x7b
 2013 098e 02       		.byte	0x2
 2014 098f 23       		.byte	0x23
 2015 0990 00       		.uleb128 0
 2016 0991 00       		.byte	0
 2017 0992 18       		.uleb128 0x18
 2018 0993 04       		.byte	0x4
 2019 0994 05       		.byte	0x5
 2020 0995 B4       		.byte	0xb4
 2021 0996 B7090000 		.4byte	0x9b7
 2022 099a 10       		.uleb128 0x10
 2023 099b E1020000 		.4byte	.LASF94
 2024 099f 05       		.byte	0x5
 2025 09a0 B5       		.byte	0xb5
 2026 09a1 57000000 		.4byte	0x57
 2027 09a5 02       		.byte	0x2
 2028 09a6 23       		.byte	0x23
 2029 09a7 00       		.uleb128 0
 2030 09a8 10       		.uleb128 0x10
 2031 09a9 6D000000 		.4byte	.LASF105
 2032 09ad 05       		.byte	0x5
 2033 09ae B6       		.byte	0xb6
 2034 09af 57000000 		.4byte	0x57
 2035 09b3 02       		.byte	0x2
 2036 09b4 23       		.byte	0x23
 2037 09b5 02       		.uleb128 0x2
 2038 09b6 00       		.byte	0
 2039 09b7 1A       		.uleb128 0x1a
 2040 09b8 04       		.byte	0x4
 2041 09b9 05       		.byte	0x5
 2042 09ba B0       		.byte	0xb0
ARM GAS  /tmp/cclRsDut.s 			page 37


 2043 09bb CA090000 		.4byte	0x9ca
 2044 09bf 1C       		.uleb128 0x1c
 2045 09c0 7B090000 		.4byte	0x97b
 2046 09c4 1C       		.uleb128 0x1c
 2047 09c5 92090000 		.4byte	0x992
 2048 09c9 00       		.byte	0
 2049 09ca 18       		.uleb128 0x18
 2050 09cb 0C       		.byte	0xc
 2051 09cc 05       		.byte	0x5
 2052 09cd C3       		.byte	0xc3
 2053 09ce FD090000 		.4byte	0x9fd
 2054 09d2 10       		.uleb128 0x10
 2055 09d3 F8000000 		.4byte	.LASF114
 2056 09d7 05       		.byte	0x5
 2057 09d8 C7       		.byte	0xc7
 2058 09d9 7B000000 		.4byte	0x7b
 2059 09dd 02       		.byte	0x2
 2060 09de 23       		.byte	0x23
 2061 09df 00       		.uleb128 0
 2062 09e0 10       		.uleb128 0x10
 2063 09e1 E0050000 		.4byte	.LASF115
 2064 09e5 05       		.byte	0x5
 2065 09e6 CB       		.byte	0xcb
 2066 09e7 7B000000 		.4byte	0x7b
 2067 09eb 02       		.byte	0x2
 2068 09ec 23       		.byte	0x23
 2069 09ed 04       		.uleb128 0x4
 2070 09ee 10       		.uleb128 0x10
 2071 09ef 71030000 		.4byte	.LASF116
 2072 09f3 05       		.byte	0x5
 2073 09f4 CF       		.byte	0xcf
 2074 09f5 7B000000 		.4byte	0x7b
 2075 09f9 02       		.byte	0x2
 2076 09fa 23       		.byte	0x23
 2077 09fb 08       		.uleb128 0x8
 2078 09fc 00       		.byte	0
 2079 09fd 04       		.uleb128 0x4
 2080 09fe D4050000 		.4byte	.LASF117
 2081 0a02 05       		.byte	0x5
 2082 0a03 D0       		.byte	0xd0
 2083 0a04 CA090000 		.4byte	0x9ca
 2084 0a08 08       		.uleb128 0x8
 2085 0a09 AB060000 		.4byte	0x6ab
 2086 0a0d 180A0000 		.4byte	0xa18
 2087 0a11 09       		.uleb128 0x9
 2088 0a12 30000000 		.4byte	0x30
 2089 0a16 02       		.byte	0x2
 2090 0a17 00       		.byte	0
 2091 0a18 08       		.uleb128 0x8
 2092 0a19 AB060000 		.4byte	0x6ab
 2093 0a1d 280A0000 		.4byte	0xa28
 2094 0a21 09       		.uleb128 0x9
 2095 0a22 30000000 		.4byte	0x30
 2096 0a26 0D       		.byte	0xd
 2097 0a27 00       		.byte	0
 2098 0a28 07       		.uleb128 0x7
 2099 0a29 04       		.byte	0x4
ARM GAS  /tmp/cclRsDut.s 			page 38


 2100 0a2a 2E0A0000 		.4byte	0xa2e
 2101 0a2e 1D       		.uleb128 0x1d
 2102 0a2f FD090000 		.4byte	0x9fd
 2103 0a33 07       		.uleb128 0x7
 2104 0a34 04       		.byte	0x4
 2105 0a35 E2050000 		.4byte	0x5e2
 2106 0a39 07       		.uleb128 0x7
 2107 0a3a 04       		.byte	0x4
 2108 0a3b 75030000 		.4byte	0x375
 2109 0a3f 1E       		.uleb128 0x1e
 2110 0a40 01       		.byte	0x1
 2111 0a41 27020000 		.4byte	.LASF118
 2112 0a45 01       		.byte	0x1
 2113 0a46 D3       		.byte	0xd3
 2114 0a47 01       		.byte	0x1
 2115 0a48 01       		.byte	0x1
 2116 0a49 590A0000 		.4byte	0xa59
 2117 0a4d 1F       		.uleb128 0x1f
 2118 0a4e 00030000 		.4byte	.LASF120
 2119 0a52 01       		.byte	0x1
 2120 0a53 D3       		.byte	0xd3
 2121 0a54 590A0000 		.4byte	0xa59
 2122 0a58 00       		.byte	0
 2123 0a59 07       		.uleb128 0x7
 2124 0a5a 04       		.byte	0x4
 2125 0a5b DB080000 		.4byte	0x8db
 2126 0a5f 1E       		.uleb128 0x1e
 2127 0a60 01       		.byte	0x1
 2128 0a61 8E020000 		.4byte	.LASF119
 2129 0a65 01       		.byte	0x1
 2130 0a66 E7       		.byte	0xe7
 2131 0a67 01       		.byte	0x1
 2132 0a68 01       		.byte	0x1
 2133 0a69 9A0A0000 		.4byte	0xa9a
 2134 0a6d 1F       		.uleb128 0x1f
 2135 0a6e 26000000 		.4byte	.LASF121
 2136 0a72 01       		.byte	0x1
 2137 0a73 E7       		.byte	0xe7
 2138 0a74 9A0A0000 		.4byte	0xa9a
 2139 0a78 1F       		.uleb128 0x1f
 2140 0a79 FB020000 		.4byte	.LASF122
 2141 0a7d 01       		.byte	0x1
 2142 0a7e E7       		.byte	0xe7
 2143 0a7f BE080000 		.4byte	0x8be
 2144 0a83 20       		.uleb128 0x20
 2145 0a84 00030000 		.4byte	.LASF120
 2146 0a88 01       		.byte	0x1
 2147 0a89 E8       		.byte	0xe8
 2148 0a8a 590A0000 		.4byte	0xa59
 2149 0a8e 20       		.uleb128 0x20
 2150 0a8f D6040000 		.4byte	.LASF123
 2151 0a93 01       		.byte	0x1
 2152 0a94 E9       		.byte	0xe9
 2153 0a95 BE080000 		.4byte	0x8be
 2154 0a99 00       		.byte	0
 2155 0a9a 07       		.uleb128 0x7
 2156 0a9b 04       		.byte	0x4
ARM GAS  /tmp/cclRsDut.s 			page 39


 2157 0a9c 4F070000 		.4byte	0x74f
 2158 0aa0 21       		.uleb128 0x21
 2159 0aa1 3F0A0000 		.4byte	0xa3f
 2160 0aa5 00000000 		.4byte	.LFB63
 2161 0aa9 04000000 		.4byte	.LFE63
 2162 0aad 02       		.byte	0x2
 2163 0aae 7D       		.byte	0x7d
 2164 0aaf 00       		.sleb128 0
 2165 0ab0 BC0A0000 		.4byte	0xabc
 2166 0ab4 22       		.uleb128 0x22
 2167 0ab5 4D0A0000 		.4byte	0xa4d
 2168 0ab9 01       		.byte	0x1
 2169 0aba 50       		.byte	0x50
 2170 0abb 00       		.byte	0
 2171 0abc 23       		.uleb128 0x23
 2172 0abd 01       		.byte	0x1
 2173 0abe 4C030000 		.4byte	.LASF125
 2174 0ac2 01       		.byte	0x1
 2175 0ac3 D7       		.byte	0xd7
 2176 0ac4 01       		.byte	0x1
 2177 0ac5 00000000 		.4byte	.LFB64
 2178 0ac9 2E000000 		.4byte	.LFE64
 2179 0acd 00000000 		.4byte	.LLST0
 2180 0ad1 FF0A0000 		.4byte	0xaff
 2181 0ad5 24       		.uleb128 0x24
 2182 0ad6 00030000 		.4byte	.LASF120
 2183 0ada 01       		.byte	0x1
 2184 0adb D7       		.byte	0xd7
 2185 0adc 590A0000 		.4byte	0xa59
 2186 0ae0 01       		.byte	0x1
 2187 0ae1 50       		.byte	0x50
 2188 0ae2 24       		.uleb128 0x24
 2189 0ae3 FB020000 		.4byte	.LASF122
 2190 0ae7 01       		.byte	0x1
 2191 0ae8 D7       		.byte	0xd7
 2192 0ae9 BE080000 		.4byte	0x8be
 2193 0aed 01       		.byte	0x1
 2194 0aee 51       		.byte	0x51
 2195 0aef 25       		.uleb128 0x25
 2196 0af0 D6040000 		.4byte	.LASF123
 2197 0af4 01       		.byte	0x1
 2198 0af5 D8       		.byte	0xd8
 2199 0af6 BE080000 		.4byte	0x8be
 2200 0afa 20000000 		.4byte	.LLST1
 2201 0afe 00       		.byte	0
 2202 0aff 26       		.uleb128 0x26
 2203 0b00 5F0A0000 		.4byte	0xa5f
 2204 0b04 00000000 		.4byte	.LFB65
 2205 0b08 24000000 		.4byte	.LFE65
 2206 0b0c 3E000000 		.4byte	.LLST2
 2207 0b10 350B0000 		.4byte	0xb35
 2208 0b14 27       		.uleb128 0x27
 2209 0b15 6D0A0000 		.4byte	0xa6d
 2210 0b19 5E000000 		.4byte	.LLST3
 2211 0b1d 22       		.uleb128 0x22
 2212 0b1e 780A0000 		.4byte	0xa78
 2213 0b22 01       		.byte	0x1
ARM GAS  /tmp/cclRsDut.s 			page 40


 2214 0b23 51       		.byte	0x51
 2215 0b24 28       		.uleb128 0x28
 2216 0b25 830A0000 		.4byte	0xa83
 2217 0b29 01       		.byte	0x1
 2218 0b2a 50       		.byte	0x50
 2219 0b2b 29       		.uleb128 0x29
 2220 0b2c 8E0A0000 		.4byte	0xa8e
 2221 0b30 7F000000 		.4byte	.LLST4
 2222 0b34 00       		.byte	0
 2223 0b35 2A       		.uleb128 0x2a
 2224 0b36 01       		.byte	0x1
 2225 0b37 79040000 		.4byte	.LASF136
 2226 0b3b 01       		.byte	0x1
 2227 0b3c F7       		.byte	0xf7
 2228 0b3d 01       		.byte	0x1
 2229 0b3e 9B000000 		.4byte	0x9b
 2230 0b42 01       		.byte	0x1
 2231 0b43 7F0B0000 		.4byte	0xb7f
 2232 0b47 1F       		.uleb128 0x1f
 2233 0b48 00030000 		.4byte	.LASF120
 2234 0b4c 01       		.byte	0x1
 2235 0b4d F7       		.byte	0xf7
 2236 0b4e 590A0000 		.4byte	0xa59
 2237 0b52 1F       		.uleb128 0x1f
 2238 0b53 E1020000 		.4byte	.LASF94
 2239 0b57 01       		.byte	0x1
 2240 0b58 F7       		.byte	0xf7
 2241 0b59 57000000 		.4byte	0x57
 2242 0b5d 1F       		.uleb128 0x1f
 2243 0b5e 6D000000 		.4byte	.LASF105
 2244 0b62 01       		.byte	0x1
 2245 0b63 F7       		.byte	0xf7
 2246 0b64 57000000 		.4byte	0x57
 2247 0b68 20       		.uleb128 0x20
 2248 0b69 FB020000 		.4byte	.LASF122
 2249 0b6d 01       		.byte	0x1
 2250 0b6e F8       		.byte	0xf8
 2251 0b6f BE080000 		.4byte	0x8be
 2252 0b73 20       		.uleb128 0x20
 2253 0b74 48040000 		.4byte	.LASF124
 2254 0b78 01       		.byte	0x1
 2255 0b79 F9       		.byte	0xf9
 2256 0b7a 57000000 		.4byte	0x57
 2257 0b7e 00       		.byte	0
 2258 0b7f 26       		.uleb128 0x26
 2259 0b80 350B0000 		.4byte	0xb35
 2260 0b84 00000000 		.4byte	.LFB66
 2261 0b88 5E000000 		.4byte	.LFE66
 2262 0b8c 9D000000 		.4byte	.LLST5
 2263 0b90 BE0B0000 		.4byte	0xbbe
 2264 0b94 27       		.uleb128 0x27
 2265 0b95 470B0000 		.4byte	0xb47
 2266 0b99 BD000000 		.4byte	.LLST6
 2267 0b9d 27       		.uleb128 0x27
 2268 0b9e 520B0000 		.4byte	0xb52
 2269 0ba2 DB000000 		.4byte	.LLST7
 2270 0ba6 22       		.uleb128 0x22
ARM GAS  /tmp/cclRsDut.s 			page 41


 2271 0ba7 5D0B0000 		.4byte	0xb5d
 2272 0bab 01       		.byte	0x1
 2273 0bac 52       		.byte	0x52
 2274 0bad 29       		.uleb128 0x29
 2275 0bae 680B0000 		.4byte	0xb68
 2276 0bb2 EE000000 		.4byte	.LLST8
 2277 0bb6 28       		.uleb128 0x28
 2278 0bb7 730B0000 		.4byte	0xb73
 2279 0bbb 01       		.byte	0x1
 2280 0bbc 51       		.byte	0x51
 2281 0bbd 00       		.byte	0
 2282 0bbe 2B       		.uleb128 0x2b
 2283 0bbf 01       		.byte	0x1
 2284 0bc0 2D000000 		.4byte	.LASF128
 2285 0bc4 01       		.byte	0x1
 2286 0bc5 0E01     		.2byte	0x10e
 2287 0bc7 01       		.byte	0x1
 2288 0bc8 9B000000 		.4byte	0x9b
 2289 0bcc 00000000 		.4byte	.LFB67
 2290 0bd0 A8000000 		.4byte	.LFE67
 2291 0bd4 17010000 		.4byte	.LLST9
 2292 0bd8 5F0C0000 		.4byte	0xc5f
 2293 0bdc 2C       		.uleb128 0x2c
 2294 0bdd 00030000 		.4byte	.LASF120
 2295 0be1 01       		.byte	0x1
 2296 0be2 0E01     		.2byte	0x10e
 2297 0be4 590A0000 		.4byte	0xa59
 2298 0be8 37010000 		.4byte	.LLST10
 2299 0bec 2D       		.uleb128 0x2d
 2300 0bed FB020000 		.4byte	.LASF122
 2301 0bf1 01       		.byte	0x1
 2302 0bf2 0E01     		.2byte	0x10e
 2303 0bf4 BE080000 		.4byte	0x8be
 2304 0bf8 01       		.byte	0x1
 2305 0bf9 51       		.byte	0x51
 2306 0bfa 2E       		.uleb128 0x2e
 2307 0bfb D6040000 		.4byte	.LASF123
 2308 0bff 01       		.byte	0x1
 2309 0c00 0F01     		.2byte	0x10f
 2310 0c02 BE080000 		.4byte	0x8be
 2311 0c06 6B010000 		.4byte	.LLST11
 2312 0c0a 2E       		.uleb128 0x2e
 2313 0c0b E1020000 		.4byte	.LASF94
 2314 0c0f 01       		.byte	0x1
 2315 0c10 1001     		.2byte	0x110
 2316 0c12 29000000 		.4byte	0x29
 2317 0c16 89010000 		.4byte	.LLST12
 2318 0c1a 2F       		.uleb128 0x2f
 2319 0c1b 350B0000 		.4byte	0xb35
 2320 0c1f 16000000 		.4byte	.LBB8
 2321 0c23 76000000 		.4byte	.LBE8
 2322 0c27 01       		.byte	0x1
 2323 0c28 1901     		.2byte	0x119
 2324 0c2a 27       		.uleb128 0x27
 2325 0c2b 5D0B0000 		.4byte	0xb5d
 2326 0c2f B4010000 		.4byte	.LLST13
 2327 0c33 27       		.uleb128 0x27
ARM GAS  /tmp/cclRsDut.s 			page 42


 2328 0c34 520B0000 		.4byte	0xb52
 2329 0c38 D2010000 		.4byte	.LLST14
 2330 0c3c 30       		.uleb128 0x30
 2331 0c3d 470B0000 		.4byte	0xb47
 2332 0c41 31       		.uleb128 0x31
 2333 0c42 16000000 		.4byte	.LBB9
 2334 0c46 76000000 		.4byte	.LBE9
 2335 0c4a 29       		.uleb128 0x29
 2336 0c4b 680B0000 		.4byte	0xb68
 2337 0c4f F0010000 		.4byte	.LLST15
 2338 0c53 29       		.uleb128 0x29
 2339 0c54 730B0000 		.4byte	0xb73
 2340 0c58 0E020000 		.4byte	.LLST16
 2341 0c5c 00       		.byte	0
 2342 0c5d 00       		.byte	0
 2343 0c5e 00       		.byte	0
 2344 0c5f 32       		.uleb128 0x32
 2345 0c60 01       		.byte	0x1
 2346 0c61 37040000 		.4byte	.LASF126
 2347 0c65 01       		.byte	0x1
 2348 0c66 2601     		.2byte	0x126
 2349 0c68 01       		.byte	0x1
 2350 0c69 00000000 		.4byte	.LFB68
 2351 0c6d 18000000 		.4byte	.LFE68
 2352 0c71 2C020000 		.4byte	.LLST17
 2353 0c75 B40C0000 		.4byte	0xcb4
 2354 0c79 2C       		.uleb128 0x2c
 2355 0c7a 00030000 		.4byte	.LASF120
 2356 0c7e 01       		.byte	0x1
 2357 0c7f 2601     		.2byte	0x126
 2358 0c81 590A0000 		.4byte	0xa59
 2359 0c85 4C020000 		.4byte	.LLST18
 2360 0c89 2E       		.uleb128 0x2e
 2361 0c8a FB020000 		.4byte	.LASF122
 2362 0c8e 01       		.byte	0x1
 2363 0c8f 2701     		.2byte	0x127
 2364 0c91 BE080000 		.4byte	0x8be
 2365 0c95 6A020000 		.4byte	.LLST19
 2366 0c99 31       		.uleb128 0x31
 2367 0c9a 0A000000 		.4byte	.LBB10
 2368 0c9e 10000000 		.4byte	.LBE10
 2369 0ca2 33       		.uleb128 0x33
 2370 0ca3 01       		.byte	0x1
 2371 0ca4 E0040000 		.4byte	.LASF137
 2372 0ca8 01       		.byte	0x1
 2373 0ca9 2B01     		.2byte	0x12b
 2374 0cab 29000000 		.4byte	0x29
 2375 0caf 01       		.byte	0x1
 2376 0cb0 34       		.uleb128 0x34
 2377 0cb1 00       		.byte	0
 2378 0cb2 00       		.byte	0
 2379 0cb3 00       		.byte	0
 2380 0cb4 35       		.uleb128 0x35
 2381 0cb5 01       		.byte	0x1
 2382 0cb6 AC050000 		.4byte	.LASF127
 2383 0cba 01       		.byte	0x1
 2384 0cbb 3301     		.2byte	0x133
ARM GAS  /tmp/cclRsDut.s 			page 43


 2385 0cbd 01       		.byte	0x1
 2386 0cbe 00000000 		.4byte	.LFB69
 2387 0cc2 0E000000 		.4byte	.LFE69
 2388 0cc6 02       		.byte	0x2
 2389 0cc7 7D       		.byte	0x7d
 2390 0cc8 00       		.sleb128 0
 2391 0cc9 F70C0000 		.4byte	0xcf7
 2392 0ccd 2D       		.uleb128 0x2d
 2393 0cce 26000000 		.4byte	.LASF121
 2394 0cd2 01       		.byte	0x1
 2395 0cd3 3301     		.2byte	0x133
 2396 0cd5 9A0A0000 		.4byte	0xa9a
 2397 0cd9 01       		.byte	0x1
 2398 0cda 50       		.byte	0x50
 2399 0cdb 2F       		.uleb128 0x2f
 2400 0cdc 3F0A0000 		.4byte	0xa3f
 2401 0ce0 06000000 		.4byte	.LBB11
 2402 0ce4 08000000 		.4byte	.LBE11
 2403 0ce8 01       		.byte	0x1
 2404 0ce9 3501     		.2byte	0x135
 2405 0ceb 22       		.uleb128 0x22
 2406 0cec 4D0A0000 		.4byte	0xa4d
 2407 0cf0 04       		.byte	0x4
 2408 0cf1 70       		.byte	0x70
 2409 0cf2 D400     		.sleb128 84
 2410 0cf4 9F       		.byte	0x9f
 2411 0cf5 00       		.byte	0
 2412 0cf6 00       		.byte	0
 2413 0cf7 36       		.uleb128 0x36
 2414 0cf8 01       		.byte	0x1
 2415 0cf9 90000000 		.4byte	.LASF129
 2416 0cfd 01       		.byte	0x1
 2417 0cfe 3C01     		.2byte	0x13c
 2418 0d00 01       		.byte	0x1
 2419 0d01 9B000000 		.4byte	0x9b
 2420 0d05 00000000 		.4byte	.LFB70
 2421 0d09 34000000 		.4byte	.LFE70
 2422 0d0d 02       		.byte	0x2
 2423 0d0e 7D       		.byte	0x7d
 2424 0d0f 00       		.sleb128 0
 2425 0d10 250D0000 		.4byte	0xd25
 2426 0d14 2C       		.uleb128 0x2c
 2427 0d15 26000000 		.4byte	.LASF121
 2428 0d19 01       		.byte	0x1
 2429 0d1a 3C01     		.2byte	0x13c
 2430 0d1c 9A0A0000 		.4byte	0xa9a
 2431 0d20 88020000 		.4byte	.LLST20
 2432 0d24 00       		.byte	0
 2433 0d25 32       		.uleb128 0x32
 2434 0d26 01       		.byte	0x1
 2435 0d27 0C050000 		.4byte	.LASF130
 2436 0d2b 01       		.byte	0x1
 2437 0d2c 4A01     		.2byte	0x14a
 2438 0d2e 01       		.byte	0x1
 2439 0d2f 00000000 		.4byte	.LFB71
 2440 0d33 06010000 		.4byte	.LFE71
 2441 0d37 B1020000 		.4byte	.LLST21
ARM GAS  /tmp/cclRsDut.s 			page 44


 2442 0d3b B60D0000 		.4byte	0xdb6
 2443 0d3f 2C       		.uleb128 0x2c
 2444 0d40 26000000 		.4byte	.LASF121
 2445 0d44 01       		.byte	0x1
 2446 0d45 4A01     		.2byte	0x14a
 2447 0d47 9A0A0000 		.4byte	0xa9a
 2448 0d4b DD020000 		.4byte	.LLST22
 2449 0d4f 2E       		.uleb128 0x2e
 2450 0d50 FB020000 		.4byte	.LASF122
 2451 0d54 01       		.byte	0x1
 2452 0d55 4B01     		.2byte	0x14b
 2453 0d57 BE080000 		.4byte	0x8be
 2454 0d5b FB020000 		.4byte	.LLST23
 2455 0d5f 37       		.uleb128 0x37
 2456 0d60 E6050000 		.4byte	.LASF131
 2457 0d64 01       		.byte	0x1
 2458 0d65 4C01     		.2byte	0x14c
 2459 0d67 70090000 		.4byte	0x970
 2460 0d6b 02       		.byte	0x2
 2461 0d6c 91       		.byte	0x91
 2462 0d6d 60       		.sleb128 -32
 2463 0d6e 2E       		.uleb128 0x2e
 2464 0d6f E1020000 		.4byte	.LASF94
 2465 0d73 01       		.byte	0x1
 2466 0d74 4D01     		.2byte	0x14d
 2467 0d76 7B000000 		.4byte	0x7b
 2468 0d7a 28030000 		.4byte	.LLST24
 2469 0d7e 38       		.uleb128 0x38
 2470 0d7f 5F0A0000 		.4byte	0xa5f
 2471 0d83 56000000 		.4byte	.LBB13
 2472 0d87 00000000 		.4byte	.Ldebug_ranges0+0
 2473 0d8b 01       		.byte	0x1
 2474 0d8c 8301     		.2byte	0x183
 2475 0d8e 27       		.uleb128 0x27
 2476 0d8f 780A0000 		.4byte	0xa78
 2477 0d93 98030000 		.4byte	.LLST25
 2478 0d97 30       		.uleb128 0x30
 2479 0d98 6D0A0000 		.4byte	0xa6d
 2480 0d9c 39       		.uleb128 0x39
 2481 0d9d 18000000 		.4byte	.Ldebug_ranges0+0x18
 2482 0da1 29       		.uleb128 0x29
 2483 0da2 830A0000 		.4byte	0xa83
 2484 0da6 B6030000 		.4byte	.LLST26
 2485 0daa 29       		.uleb128 0x29
 2486 0dab 8E0A0000 		.4byte	0xa8e
 2487 0daf DA030000 		.4byte	.LLST27
 2488 0db3 00       		.byte	0
 2489 0db4 00       		.byte	0
 2490 0db5 00       		.byte	0
 2491 0db6 3A       		.uleb128 0x3a
 2492 0db7 20040000 		.4byte	.LASF132
 2493 0dbb 08       		.byte	0x8
 2494 0dbc 0706     		.2byte	0x607
 2495 0dbe E6000000 		.4byte	0xe6
 2496 0dc2 01       		.byte	0x1
 2497 0dc3 01       		.byte	0x1
 2498 0dc4 3A       		.uleb128 0x3a
ARM GAS  /tmp/cclRsDut.s 			page 45


 2499 0dc5 20040000 		.4byte	.LASF132
 2500 0dc9 08       		.byte	0x8
 2501 0dca 0706     		.2byte	0x607
 2502 0dcc E6000000 		.4byte	0xe6
 2503 0dd0 01       		.byte	0x1
 2504 0dd1 01       		.byte	0x1
 2505 0dd2 00       		.byte	0
 2506              		.section	.debug_abbrev,"",%progbits
 2507              	.Ldebug_abbrev0:
 2508 0000 01       		.uleb128 0x1
 2509 0001 11       		.uleb128 0x11
 2510 0002 01       		.byte	0x1
 2511 0003 25       		.uleb128 0x25
 2512 0004 0E       		.uleb128 0xe
 2513 0005 13       		.uleb128 0x13
 2514 0006 0B       		.uleb128 0xb
 2515 0007 03       		.uleb128 0x3
 2516 0008 0E       		.uleb128 0xe
 2517 0009 1B       		.uleb128 0x1b
 2518 000a 0E       		.uleb128 0xe
 2519 000b 11       		.uleb128 0x11
 2520 000c 01       		.uleb128 0x1
 2521 000d 52       		.uleb128 0x52
 2522 000e 01       		.uleb128 0x1
 2523 000f 55       		.uleb128 0x55
 2524 0010 06       		.uleb128 0x6
 2525 0011 10       		.uleb128 0x10
 2526 0012 06       		.uleb128 0x6
 2527 0013 00       		.byte	0
 2528 0014 00       		.byte	0
 2529 0015 02       		.uleb128 0x2
 2530 0016 24       		.uleb128 0x24
 2531 0017 00       		.byte	0
 2532 0018 0B       		.uleb128 0xb
 2533 0019 0B       		.uleb128 0xb
 2534 001a 3E       		.uleb128 0x3e
 2535 001b 0B       		.uleb128 0xb
 2536 001c 03       		.uleb128 0x3
 2537 001d 08       		.uleb128 0x8
 2538 001e 00       		.byte	0
 2539 001f 00       		.byte	0
 2540 0020 03       		.uleb128 0x3
 2541 0021 24       		.uleb128 0x24
 2542 0022 00       		.byte	0
 2543 0023 0B       		.uleb128 0xb
 2544 0024 0B       		.uleb128 0xb
 2545 0025 3E       		.uleb128 0x3e
 2546 0026 0B       		.uleb128 0xb
 2547 0027 03       		.uleb128 0x3
 2548 0028 0E       		.uleb128 0xe
 2549 0029 00       		.byte	0
 2550 002a 00       		.byte	0
 2551 002b 04       		.uleb128 0x4
 2552 002c 16       		.uleb128 0x16
 2553 002d 00       		.byte	0
 2554 002e 03       		.uleb128 0x3
 2555 002f 0E       		.uleb128 0xe
ARM GAS  /tmp/cclRsDut.s 			page 46


 2556 0030 3A       		.uleb128 0x3a
 2557 0031 0B       		.uleb128 0xb
 2558 0032 3B       		.uleb128 0x3b
 2559 0033 0B       		.uleb128 0xb
 2560 0034 49       		.uleb128 0x49
 2561 0035 13       		.uleb128 0x13
 2562 0036 00       		.byte	0
 2563 0037 00       		.byte	0
 2564 0038 05       		.uleb128 0x5
 2565 0039 0F       		.uleb128 0xf
 2566 003a 00       		.byte	0
 2567 003b 0B       		.uleb128 0xb
 2568 003c 0B       		.uleb128 0xb
 2569 003d 00       		.byte	0
 2570 003e 00       		.byte	0
 2571 003f 06       		.uleb128 0x6
 2572 0040 35       		.uleb128 0x35
 2573 0041 00       		.byte	0
 2574 0042 49       		.uleb128 0x49
 2575 0043 13       		.uleb128 0x13
 2576 0044 00       		.byte	0
 2577 0045 00       		.byte	0
 2578 0046 07       		.uleb128 0x7
 2579 0047 0F       		.uleb128 0xf
 2580 0048 00       		.byte	0
 2581 0049 0B       		.uleb128 0xb
 2582 004a 0B       		.uleb128 0xb
 2583 004b 49       		.uleb128 0x49
 2584 004c 13       		.uleb128 0x13
 2585 004d 00       		.byte	0
 2586 004e 00       		.byte	0
 2587 004f 08       		.uleb128 0x8
 2588 0050 01       		.uleb128 0x1
 2589 0051 01       		.byte	0x1
 2590 0052 49       		.uleb128 0x49
 2591 0053 13       		.uleb128 0x13
 2592 0054 01       		.uleb128 0x1
 2593 0055 13       		.uleb128 0x13
 2594 0056 00       		.byte	0
 2595 0057 00       		.byte	0
 2596 0058 09       		.uleb128 0x9
 2597 0059 21       		.uleb128 0x21
 2598 005a 00       		.byte	0
 2599 005b 49       		.uleb128 0x49
 2600 005c 13       		.uleb128 0x13
 2601 005d 2F       		.uleb128 0x2f
 2602 005e 0B       		.uleb128 0xb
 2603 005f 00       		.byte	0
 2604 0060 00       		.byte	0
 2605 0061 0A       		.uleb128 0xa
 2606 0062 13       		.uleb128 0x13
 2607 0063 01       		.byte	0x1
 2608 0064 0B       		.uleb128 0xb
 2609 0065 0B       		.uleb128 0xb
 2610 0066 3A       		.uleb128 0x3a
 2611 0067 0B       		.uleb128 0xb
 2612 0068 3B       		.uleb128 0x3b
ARM GAS  /tmp/cclRsDut.s 			page 47


 2613 0069 05       		.uleb128 0x5
 2614 006a 01       		.uleb128 0x1
 2615 006b 13       		.uleb128 0x13
 2616 006c 00       		.byte	0
 2617 006d 00       		.byte	0
 2618 006e 0B       		.uleb128 0xb
 2619 006f 0D       		.uleb128 0xd
 2620 0070 00       		.byte	0
 2621 0071 03       		.uleb128 0x3
 2622 0072 08       		.uleb128 0x8
 2623 0073 3A       		.uleb128 0x3a
 2624 0074 0B       		.uleb128 0xb
 2625 0075 3B       		.uleb128 0x3b
 2626 0076 05       		.uleb128 0x5
 2627 0077 49       		.uleb128 0x49
 2628 0078 13       		.uleb128 0x13
 2629 0079 38       		.uleb128 0x38
 2630 007a 0A       		.uleb128 0xa
 2631 007b 00       		.byte	0
 2632 007c 00       		.byte	0
 2633 007d 0C       		.uleb128 0xc
 2634 007e 0D       		.uleb128 0xd
 2635 007f 00       		.byte	0
 2636 0080 03       		.uleb128 0x3
 2637 0081 0E       		.uleb128 0xe
 2638 0082 3A       		.uleb128 0x3a
 2639 0083 0B       		.uleb128 0xb
 2640 0084 3B       		.uleb128 0x3b
 2641 0085 05       		.uleb128 0x5
 2642 0086 49       		.uleb128 0x49
 2643 0087 13       		.uleb128 0x13
 2644 0088 38       		.uleb128 0x38
 2645 0089 0A       		.uleb128 0xa
 2646 008a 00       		.byte	0
 2647 008b 00       		.byte	0
 2648 008c 0D       		.uleb128 0xd
 2649 008d 16       		.uleb128 0x16
 2650 008e 00       		.byte	0
 2651 008f 03       		.uleb128 0x3
 2652 0090 0E       		.uleb128 0xe
 2653 0091 3A       		.uleb128 0x3a
 2654 0092 0B       		.uleb128 0xb
 2655 0093 3B       		.uleb128 0x3b
 2656 0094 05       		.uleb128 0x5
 2657 0095 49       		.uleb128 0x49
 2658 0096 13       		.uleb128 0x13
 2659 0097 00       		.byte	0
 2660 0098 00       		.byte	0
 2661 0099 0E       		.uleb128 0xe
 2662 009a 13       		.uleb128 0x13
 2663 009b 01       		.byte	0x1
 2664 009c 0B       		.uleb128 0xb
 2665 009d 05       		.uleb128 0x5
 2666 009e 3A       		.uleb128 0x3a
 2667 009f 0B       		.uleb128 0xb
 2668 00a0 3B       		.uleb128 0x3b
 2669 00a1 05       		.uleb128 0x5
ARM GAS  /tmp/cclRsDut.s 			page 48


 2670 00a2 01       		.uleb128 0x1
 2671 00a3 13       		.uleb128 0x13
 2672 00a4 00       		.byte	0
 2673 00a5 00       		.byte	0
 2674 00a6 0F       		.uleb128 0xf
 2675 00a7 13       		.uleb128 0x13
 2676 00a8 01       		.byte	0x1
 2677 00a9 03       		.uleb128 0x3
 2678 00aa 0E       		.uleb128 0xe
 2679 00ab 0B       		.uleb128 0xb
 2680 00ac 0B       		.uleb128 0xb
 2681 00ad 3A       		.uleb128 0x3a
 2682 00ae 0B       		.uleb128 0xb
 2683 00af 3B       		.uleb128 0x3b
 2684 00b0 0B       		.uleb128 0xb
 2685 00b1 01       		.uleb128 0x1
 2686 00b2 13       		.uleb128 0x13
 2687 00b3 00       		.byte	0
 2688 00b4 00       		.byte	0
 2689 00b5 10       		.uleb128 0x10
 2690 00b6 0D       		.uleb128 0xd
 2691 00b7 00       		.byte	0
 2692 00b8 03       		.uleb128 0x3
 2693 00b9 0E       		.uleb128 0xe
 2694 00ba 3A       		.uleb128 0x3a
 2695 00bb 0B       		.uleb128 0xb
 2696 00bc 3B       		.uleb128 0x3b
 2697 00bd 0B       		.uleb128 0xb
 2698 00be 49       		.uleb128 0x49
 2699 00bf 13       		.uleb128 0x13
 2700 00c0 38       		.uleb128 0x38
 2701 00c1 0A       		.uleb128 0xa
 2702 00c2 00       		.byte	0
 2703 00c3 00       		.byte	0
 2704 00c4 11       		.uleb128 0x11
 2705 00c5 0D       		.uleb128 0xd
 2706 00c6 00       		.byte	0
 2707 00c7 49       		.uleb128 0x49
 2708 00c8 13       		.uleb128 0x13
 2709 00c9 38       		.uleb128 0x38
 2710 00ca 0A       		.uleb128 0xa
 2711 00cb 00       		.byte	0
 2712 00cc 00       		.byte	0
 2713 00cd 12       		.uleb128 0x12
 2714 00ce 0D       		.uleb128 0xd
 2715 00cf 00       		.byte	0
 2716 00d0 03       		.uleb128 0x3
 2717 00d1 08       		.uleb128 0x8
 2718 00d2 3A       		.uleb128 0x3a
 2719 00d3 0B       		.uleb128 0xb
 2720 00d4 3B       		.uleb128 0x3b
 2721 00d5 0B       		.uleb128 0xb
 2722 00d6 49       		.uleb128 0x49
 2723 00d7 13       		.uleb128 0x13
 2724 00d8 38       		.uleb128 0x38
 2725 00d9 0A       		.uleb128 0xa
 2726 00da 00       		.byte	0
ARM GAS  /tmp/cclRsDut.s 			page 49


 2727 00db 00       		.byte	0
 2728 00dc 13       		.uleb128 0x13
 2729 00dd 0D       		.uleb128 0xd
 2730 00de 00       		.byte	0
 2731 00df 03       		.uleb128 0x3
 2732 00e0 0E       		.uleb128 0xe
 2733 00e1 3A       		.uleb128 0x3a
 2734 00e2 0B       		.uleb128 0xb
 2735 00e3 3B       		.uleb128 0x3b
 2736 00e4 0B       		.uleb128 0xb
 2737 00e5 49       		.uleb128 0x49
 2738 00e6 13       		.uleb128 0x13
 2739 00e7 0B       		.uleb128 0xb
 2740 00e8 0B       		.uleb128 0xb
 2741 00e9 0D       		.uleb128 0xd
 2742 00ea 0B       		.uleb128 0xb
 2743 00eb 0C       		.uleb128 0xc
 2744 00ec 0B       		.uleb128 0xb
 2745 00ed 38       		.uleb128 0x38
 2746 00ee 0A       		.uleb128 0xa
 2747 00ef 00       		.byte	0
 2748 00f0 00       		.byte	0
 2749 00f1 14       		.uleb128 0x14
 2750 00f2 15       		.uleb128 0x15
 2751 00f3 01       		.byte	0x1
 2752 00f4 27       		.uleb128 0x27
 2753 00f5 0C       		.uleb128 0xc
 2754 00f6 01       		.uleb128 0x1
 2755 00f7 13       		.uleb128 0x13
 2756 00f8 00       		.byte	0
 2757 00f9 00       		.byte	0
 2758 00fa 15       		.uleb128 0x15
 2759 00fb 05       		.uleb128 0x5
 2760 00fc 00       		.byte	0
 2761 00fd 49       		.uleb128 0x49
 2762 00fe 13       		.uleb128 0x13
 2763 00ff 00       		.byte	0
 2764 0100 00       		.byte	0
 2765 0101 16       		.uleb128 0x16
 2766 0102 04       		.uleb128 0x4
 2767 0103 01       		.byte	0x1
 2768 0104 0B       		.uleb128 0xb
 2769 0105 0B       		.uleb128 0xb
 2770 0106 3A       		.uleb128 0x3a
 2771 0107 0B       		.uleb128 0xb
 2772 0108 3B       		.uleb128 0x3b
 2773 0109 0B       		.uleb128 0xb
 2774 010a 01       		.uleb128 0x1
 2775 010b 13       		.uleb128 0x13
 2776 010c 00       		.byte	0
 2777 010d 00       		.byte	0
 2778 010e 17       		.uleb128 0x17
 2779 010f 28       		.uleb128 0x28
 2780 0110 00       		.byte	0
 2781 0111 03       		.uleb128 0x3
 2782 0112 0E       		.uleb128 0xe
 2783 0113 1C       		.uleb128 0x1c
ARM GAS  /tmp/cclRsDut.s 			page 50


 2784 0114 0D       		.uleb128 0xd
 2785 0115 00       		.byte	0
 2786 0116 00       		.byte	0
 2787 0117 18       		.uleb128 0x18
 2788 0118 13       		.uleb128 0x13
 2789 0119 01       		.byte	0x1
 2790 011a 0B       		.uleb128 0xb
 2791 011b 0B       		.uleb128 0xb
 2792 011c 3A       		.uleb128 0x3a
 2793 011d 0B       		.uleb128 0xb
 2794 011e 3B       		.uleb128 0x3b
 2795 011f 0B       		.uleb128 0xb
 2796 0120 01       		.uleb128 0x1
 2797 0121 13       		.uleb128 0x13
 2798 0122 00       		.byte	0
 2799 0123 00       		.byte	0
 2800 0124 19       		.uleb128 0x19
 2801 0125 0D       		.uleb128 0xd
 2802 0126 00       		.byte	0
 2803 0127 03       		.uleb128 0x3
 2804 0128 08       		.uleb128 0x8
 2805 0129 3A       		.uleb128 0x3a
 2806 012a 0B       		.uleb128 0xb
 2807 012b 3B       		.uleb128 0x3b
 2808 012c 0B       		.uleb128 0xb
 2809 012d 49       		.uleb128 0x49
 2810 012e 13       		.uleb128 0x13
 2811 012f 0B       		.uleb128 0xb
 2812 0130 0B       		.uleb128 0xb
 2813 0131 0D       		.uleb128 0xd
 2814 0132 0B       		.uleb128 0xb
 2815 0133 0C       		.uleb128 0xc
 2816 0134 0B       		.uleb128 0xb
 2817 0135 38       		.uleb128 0x38
 2818 0136 0A       		.uleb128 0xa
 2819 0137 00       		.byte	0
 2820 0138 00       		.byte	0
 2821 0139 1A       		.uleb128 0x1a
 2822 013a 17       		.uleb128 0x17
 2823 013b 01       		.byte	0x1
 2824 013c 0B       		.uleb128 0xb
 2825 013d 0B       		.uleb128 0xb
 2826 013e 3A       		.uleb128 0x3a
 2827 013f 0B       		.uleb128 0xb
 2828 0140 3B       		.uleb128 0x3b
 2829 0141 0B       		.uleb128 0xb
 2830 0142 01       		.uleb128 0x1
 2831 0143 13       		.uleb128 0x13
 2832 0144 00       		.byte	0
 2833 0145 00       		.byte	0
 2834 0146 1B       		.uleb128 0x1b
 2835 0147 0D       		.uleb128 0xd
 2836 0148 00       		.byte	0
 2837 0149 03       		.uleb128 0x3
 2838 014a 0E       		.uleb128 0xe
 2839 014b 3A       		.uleb128 0x3a
 2840 014c 0B       		.uleb128 0xb
ARM GAS  /tmp/cclRsDut.s 			page 51


 2841 014d 3B       		.uleb128 0x3b
 2842 014e 0B       		.uleb128 0xb
 2843 014f 49       		.uleb128 0x49
 2844 0150 13       		.uleb128 0x13
 2845 0151 00       		.byte	0
 2846 0152 00       		.byte	0
 2847 0153 1C       		.uleb128 0x1c
 2848 0154 0D       		.uleb128 0xd
 2849 0155 00       		.byte	0
 2850 0156 49       		.uleb128 0x49
 2851 0157 13       		.uleb128 0x13
 2852 0158 00       		.byte	0
 2853 0159 00       		.byte	0
 2854 015a 1D       		.uleb128 0x1d
 2855 015b 26       		.uleb128 0x26
 2856 015c 00       		.byte	0
 2857 015d 49       		.uleb128 0x49
 2858 015e 13       		.uleb128 0x13
 2859 015f 00       		.byte	0
 2860 0160 00       		.byte	0
 2861 0161 1E       		.uleb128 0x1e
 2862 0162 2E       		.uleb128 0x2e
 2863 0163 01       		.byte	0x1
 2864 0164 3F       		.uleb128 0x3f
 2865 0165 0C       		.uleb128 0xc
 2866 0166 03       		.uleb128 0x3
 2867 0167 0E       		.uleb128 0xe
 2868 0168 3A       		.uleb128 0x3a
 2869 0169 0B       		.uleb128 0xb
 2870 016a 3B       		.uleb128 0x3b
 2871 016b 0B       		.uleb128 0xb
 2872 016c 27       		.uleb128 0x27
 2873 016d 0C       		.uleb128 0xc
 2874 016e 20       		.uleb128 0x20
 2875 016f 0B       		.uleb128 0xb
 2876 0170 01       		.uleb128 0x1
 2877 0171 13       		.uleb128 0x13
 2878 0172 00       		.byte	0
 2879 0173 00       		.byte	0
 2880 0174 1F       		.uleb128 0x1f
 2881 0175 05       		.uleb128 0x5
 2882 0176 00       		.byte	0
 2883 0177 03       		.uleb128 0x3
 2884 0178 0E       		.uleb128 0xe
 2885 0179 3A       		.uleb128 0x3a
 2886 017a 0B       		.uleb128 0xb
 2887 017b 3B       		.uleb128 0x3b
 2888 017c 0B       		.uleb128 0xb
 2889 017d 49       		.uleb128 0x49
 2890 017e 13       		.uleb128 0x13
 2891 017f 00       		.byte	0
 2892 0180 00       		.byte	0
 2893 0181 20       		.uleb128 0x20
 2894 0182 34       		.uleb128 0x34
 2895 0183 00       		.byte	0
 2896 0184 03       		.uleb128 0x3
 2897 0185 0E       		.uleb128 0xe
ARM GAS  /tmp/cclRsDut.s 			page 52


 2898 0186 3A       		.uleb128 0x3a
 2899 0187 0B       		.uleb128 0xb
 2900 0188 3B       		.uleb128 0x3b
 2901 0189 0B       		.uleb128 0xb
 2902 018a 49       		.uleb128 0x49
 2903 018b 13       		.uleb128 0x13
 2904 018c 00       		.byte	0
 2905 018d 00       		.byte	0
 2906 018e 21       		.uleb128 0x21
 2907 018f 2E       		.uleb128 0x2e
 2908 0190 01       		.byte	0x1
 2909 0191 31       		.uleb128 0x31
 2910 0192 13       		.uleb128 0x13
 2911 0193 11       		.uleb128 0x11
 2912 0194 01       		.uleb128 0x1
 2913 0195 12       		.uleb128 0x12
 2914 0196 01       		.uleb128 0x1
 2915 0197 40       		.uleb128 0x40
 2916 0198 0A       		.uleb128 0xa
 2917 0199 01       		.uleb128 0x1
 2918 019a 13       		.uleb128 0x13
 2919 019b 00       		.byte	0
 2920 019c 00       		.byte	0
 2921 019d 22       		.uleb128 0x22
 2922 019e 05       		.uleb128 0x5
 2923 019f 00       		.byte	0
 2924 01a0 31       		.uleb128 0x31
 2925 01a1 13       		.uleb128 0x13
 2926 01a2 02       		.uleb128 0x2
 2927 01a3 0A       		.uleb128 0xa
 2928 01a4 00       		.byte	0
 2929 01a5 00       		.byte	0
 2930 01a6 23       		.uleb128 0x23
 2931 01a7 2E       		.uleb128 0x2e
 2932 01a8 01       		.byte	0x1
 2933 01a9 3F       		.uleb128 0x3f
 2934 01aa 0C       		.uleb128 0xc
 2935 01ab 03       		.uleb128 0x3
 2936 01ac 0E       		.uleb128 0xe
 2937 01ad 3A       		.uleb128 0x3a
 2938 01ae 0B       		.uleb128 0xb
 2939 01af 3B       		.uleb128 0x3b
 2940 01b0 0B       		.uleb128 0xb
 2941 01b1 27       		.uleb128 0x27
 2942 01b2 0C       		.uleb128 0xc
 2943 01b3 11       		.uleb128 0x11
 2944 01b4 01       		.uleb128 0x1
 2945 01b5 12       		.uleb128 0x12
 2946 01b6 01       		.uleb128 0x1
 2947 01b7 40       		.uleb128 0x40
 2948 01b8 06       		.uleb128 0x6
 2949 01b9 01       		.uleb128 0x1
 2950 01ba 13       		.uleb128 0x13
 2951 01bb 00       		.byte	0
 2952 01bc 00       		.byte	0
 2953 01bd 24       		.uleb128 0x24
 2954 01be 05       		.uleb128 0x5
ARM GAS  /tmp/cclRsDut.s 			page 53


 2955 01bf 00       		.byte	0
 2956 01c0 03       		.uleb128 0x3
 2957 01c1 0E       		.uleb128 0xe
 2958 01c2 3A       		.uleb128 0x3a
 2959 01c3 0B       		.uleb128 0xb
 2960 01c4 3B       		.uleb128 0x3b
 2961 01c5 0B       		.uleb128 0xb
 2962 01c6 49       		.uleb128 0x49
 2963 01c7 13       		.uleb128 0x13
 2964 01c8 02       		.uleb128 0x2
 2965 01c9 0A       		.uleb128 0xa
 2966 01ca 00       		.byte	0
 2967 01cb 00       		.byte	0
 2968 01cc 25       		.uleb128 0x25
 2969 01cd 34       		.uleb128 0x34
 2970 01ce 00       		.byte	0
 2971 01cf 03       		.uleb128 0x3
 2972 01d0 0E       		.uleb128 0xe
 2973 01d1 3A       		.uleb128 0x3a
 2974 01d2 0B       		.uleb128 0xb
 2975 01d3 3B       		.uleb128 0x3b
 2976 01d4 0B       		.uleb128 0xb
 2977 01d5 49       		.uleb128 0x49
 2978 01d6 13       		.uleb128 0x13
 2979 01d7 02       		.uleb128 0x2
 2980 01d8 06       		.uleb128 0x6
 2981 01d9 00       		.byte	0
 2982 01da 00       		.byte	0
 2983 01db 26       		.uleb128 0x26
 2984 01dc 2E       		.uleb128 0x2e
 2985 01dd 01       		.byte	0x1
 2986 01de 31       		.uleb128 0x31
 2987 01df 13       		.uleb128 0x13
 2988 01e0 11       		.uleb128 0x11
 2989 01e1 01       		.uleb128 0x1
 2990 01e2 12       		.uleb128 0x12
 2991 01e3 01       		.uleb128 0x1
 2992 01e4 40       		.uleb128 0x40
 2993 01e5 06       		.uleb128 0x6
 2994 01e6 01       		.uleb128 0x1
 2995 01e7 13       		.uleb128 0x13
 2996 01e8 00       		.byte	0
 2997 01e9 00       		.byte	0
 2998 01ea 27       		.uleb128 0x27
 2999 01eb 05       		.uleb128 0x5
 3000 01ec 00       		.byte	0
 3001 01ed 31       		.uleb128 0x31
 3002 01ee 13       		.uleb128 0x13
 3003 01ef 02       		.uleb128 0x2
 3004 01f0 06       		.uleb128 0x6
 3005 01f1 00       		.byte	0
 3006 01f2 00       		.byte	0
 3007 01f3 28       		.uleb128 0x28
 3008 01f4 34       		.uleb128 0x34
 3009 01f5 00       		.byte	0
 3010 01f6 31       		.uleb128 0x31
 3011 01f7 13       		.uleb128 0x13
ARM GAS  /tmp/cclRsDut.s 			page 54


 3012 01f8 02       		.uleb128 0x2
 3013 01f9 0A       		.uleb128 0xa
 3014 01fa 00       		.byte	0
 3015 01fb 00       		.byte	0
 3016 01fc 29       		.uleb128 0x29
 3017 01fd 34       		.uleb128 0x34
 3018 01fe 00       		.byte	0
 3019 01ff 31       		.uleb128 0x31
 3020 0200 13       		.uleb128 0x13
 3021 0201 02       		.uleb128 0x2
 3022 0202 06       		.uleb128 0x6
 3023 0203 00       		.byte	0
 3024 0204 00       		.byte	0
 3025 0205 2A       		.uleb128 0x2a
 3026 0206 2E       		.uleb128 0x2e
 3027 0207 01       		.byte	0x1
 3028 0208 3F       		.uleb128 0x3f
 3029 0209 0C       		.uleb128 0xc
 3030 020a 03       		.uleb128 0x3
 3031 020b 0E       		.uleb128 0xe
 3032 020c 3A       		.uleb128 0x3a
 3033 020d 0B       		.uleb128 0xb
 3034 020e 3B       		.uleb128 0x3b
 3035 020f 0B       		.uleb128 0xb
 3036 0210 27       		.uleb128 0x27
 3037 0211 0C       		.uleb128 0xc
 3038 0212 49       		.uleb128 0x49
 3039 0213 13       		.uleb128 0x13
 3040 0214 20       		.uleb128 0x20
 3041 0215 0B       		.uleb128 0xb
 3042 0216 01       		.uleb128 0x1
 3043 0217 13       		.uleb128 0x13
 3044 0218 00       		.byte	0
 3045 0219 00       		.byte	0
 3046 021a 2B       		.uleb128 0x2b
 3047 021b 2E       		.uleb128 0x2e
 3048 021c 01       		.byte	0x1
 3049 021d 3F       		.uleb128 0x3f
 3050 021e 0C       		.uleb128 0xc
 3051 021f 03       		.uleb128 0x3
 3052 0220 0E       		.uleb128 0xe
 3053 0221 3A       		.uleb128 0x3a
 3054 0222 0B       		.uleb128 0xb
 3055 0223 3B       		.uleb128 0x3b
 3056 0224 05       		.uleb128 0x5
 3057 0225 27       		.uleb128 0x27
 3058 0226 0C       		.uleb128 0xc
 3059 0227 49       		.uleb128 0x49
 3060 0228 13       		.uleb128 0x13
 3061 0229 11       		.uleb128 0x11
 3062 022a 01       		.uleb128 0x1
 3063 022b 12       		.uleb128 0x12
 3064 022c 01       		.uleb128 0x1
 3065 022d 40       		.uleb128 0x40
 3066 022e 06       		.uleb128 0x6
 3067 022f 01       		.uleb128 0x1
 3068 0230 13       		.uleb128 0x13
ARM GAS  /tmp/cclRsDut.s 			page 55


 3069 0231 00       		.byte	0
 3070 0232 00       		.byte	0
 3071 0233 2C       		.uleb128 0x2c
 3072 0234 05       		.uleb128 0x5
 3073 0235 00       		.byte	0
 3074 0236 03       		.uleb128 0x3
 3075 0237 0E       		.uleb128 0xe
 3076 0238 3A       		.uleb128 0x3a
 3077 0239 0B       		.uleb128 0xb
 3078 023a 3B       		.uleb128 0x3b
 3079 023b 05       		.uleb128 0x5
 3080 023c 49       		.uleb128 0x49
 3081 023d 13       		.uleb128 0x13
 3082 023e 02       		.uleb128 0x2
 3083 023f 06       		.uleb128 0x6
 3084 0240 00       		.byte	0
 3085 0241 00       		.byte	0
 3086 0242 2D       		.uleb128 0x2d
 3087 0243 05       		.uleb128 0x5
 3088 0244 00       		.byte	0
 3089 0245 03       		.uleb128 0x3
 3090 0246 0E       		.uleb128 0xe
 3091 0247 3A       		.uleb128 0x3a
 3092 0248 0B       		.uleb128 0xb
 3093 0249 3B       		.uleb128 0x3b
 3094 024a 05       		.uleb128 0x5
 3095 024b 49       		.uleb128 0x49
 3096 024c 13       		.uleb128 0x13
 3097 024d 02       		.uleb128 0x2
 3098 024e 0A       		.uleb128 0xa
 3099 024f 00       		.byte	0
 3100 0250 00       		.byte	0
 3101 0251 2E       		.uleb128 0x2e
 3102 0252 34       		.uleb128 0x34
 3103 0253 00       		.byte	0
 3104 0254 03       		.uleb128 0x3
 3105 0255 0E       		.uleb128 0xe
 3106 0256 3A       		.uleb128 0x3a
 3107 0257 0B       		.uleb128 0xb
 3108 0258 3B       		.uleb128 0x3b
 3109 0259 05       		.uleb128 0x5
 3110 025a 49       		.uleb128 0x49
 3111 025b 13       		.uleb128 0x13
 3112 025c 02       		.uleb128 0x2
 3113 025d 06       		.uleb128 0x6
 3114 025e 00       		.byte	0
 3115 025f 00       		.byte	0
 3116 0260 2F       		.uleb128 0x2f
 3117 0261 1D       		.uleb128 0x1d
 3118 0262 01       		.byte	0x1
 3119 0263 31       		.uleb128 0x31
 3120 0264 13       		.uleb128 0x13
 3121 0265 11       		.uleb128 0x11
 3122 0266 01       		.uleb128 0x1
 3123 0267 12       		.uleb128 0x12
 3124 0268 01       		.uleb128 0x1
 3125 0269 58       		.uleb128 0x58
ARM GAS  /tmp/cclRsDut.s 			page 56


 3126 026a 0B       		.uleb128 0xb
 3127 026b 59       		.uleb128 0x59
 3128 026c 05       		.uleb128 0x5
 3129 026d 00       		.byte	0
 3130 026e 00       		.byte	0
 3131 026f 30       		.uleb128 0x30
 3132 0270 05       		.uleb128 0x5
 3133 0271 00       		.byte	0
 3134 0272 31       		.uleb128 0x31
 3135 0273 13       		.uleb128 0x13
 3136 0274 00       		.byte	0
 3137 0275 00       		.byte	0
 3138 0276 31       		.uleb128 0x31
 3139 0277 0B       		.uleb128 0xb
 3140 0278 01       		.byte	0x1
 3141 0279 11       		.uleb128 0x11
 3142 027a 01       		.uleb128 0x1
 3143 027b 12       		.uleb128 0x12
 3144 027c 01       		.uleb128 0x1
 3145 027d 00       		.byte	0
 3146 027e 00       		.byte	0
 3147 027f 32       		.uleb128 0x32
 3148 0280 2E       		.uleb128 0x2e
 3149 0281 01       		.byte	0x1
 3150 0282 3F       		.uleb128 0x3f
 3151 0283 0C       		.uleb128 0xc
 3152 0284 03       		.uleb128 0x3
 3153 0285 0E       		.uleb128 0xe
 3154 0286 3A       		.uleb128 0x3a
 3155 0287 0B       		.uleb128 0xb
 3156 0288 3B       		.uleb128 0x3b
 3157 0289 05       		.uleb128 0x5
 3158 028a 27       		.uleb128 0x27
 3159 028b 0C       		.uleb128 0xc
 3160 028c 11       		.uleb128 0x11
 3161 028d 01       		.uleb128 0x1
 3162 028e 12       		.uleb128 0x12
 3163 028f 01       		.uleb128 0x1
 3164 0290 40       		.uleb128 0x40
 3165 0291 06       		.uleb128 0x6
 3166 0292 01       		.uleb128 0x1
 3167 0293 13       		.uleb128 0x13
 3168 0294 00       		.byte	0
 3169 0295 00       		.byte	0
 3170 0296 33       		.uleb128 0x33
 3171 0297 2E       		.uleb128 0x2e
 3172 0298 01       		.byte	0x1
 3173 0299 3F       		.uleb128 0x3f
 3174 029a 0C       		.uleb128 0xc
 3175 029b 03       		.uleb128 0x3
 3176 029c 0E       		.uleb128 0xe
 3177 029d 3A       		.uleb128 0x3a
 3178 029e 0B       		.uleb128 0xb
 3179 029f 3B       		.uleb128 0x3b
 3180 02a0 05       		.uleb128 0x5
 3181 02a1 49       		.uleb128 0x49
 3182 02a2 13       		.uleb128 0x13
ARM GAS  /tmp/cclRsDut.s 			page 57


 3183 02a3 3C       		.uleb128 0x3c
 3184 02a4 0C       		.uleb128 0xc
 3185 02a5 00       		.byte	0
 3186 02a6 00       		.byte	0
 3187 02a7 34       		.uleb128 0x34
 3188 02a8 18       		.uleb128 0x18
 3189 02a9 00       		.byte	0
 3190 02aa 00       		.byte	0
 3191 02ab 00       		.byte	0
 3192 02ac 35       		.uleb128 0x35
 3193 02ad 2E       		.uleb128 0x2e
 3194 02ae 01       		.byte	0x1
 3195 02af 3F       		.uleb128 0x3f
 3196 02b0 0C       		.uleb128 0xc
 3197 02b1 03       		.uleb128 0x3
 3198 02b2 0E       		.uleb128 0xe
 3199 02b3 3A       		.uleb128 0x3a
 3200 02b4 0B       		.uleb128 0xb
 3201 02b5 3B       		.uleb128 0x3b
 3202 02b6 05       		.uleb128 0x5
 3203 02b7 27       		.uleb128 0x27
 3204 02b8 0C       		.uleb128 0xc
 3205 02b9 11       		.uleb128 0x11
 3206 02ba 01       		.uleb128 0x1
 3207 02bb 12       		.uleb128 0x12
 3208 02bc 01       		.uleb128 0x1
 3209 02bd 40       		.uleb128 0x40
 3210 02be 0A       		.uleb128 0xa
 3211 02bf 01       		.uleb128 0x1
 3212 02c0 13       		.uleb128 0x13
 3213 02c1 00       		.byte	0
 3214 02c2 00       		.byte	0
 3215 02c3 36       		.uleb128 0x36
 3216 02c4 2E       		.uleb128 0x2e
 3217 02c5 01       		.byte	0x1
 3218 02c6 3F       		.uleb128 0x3f
 3219 02c7 0C       		.uleb128 0xc
 3220 02c8 03       		.uleb128 0x3
 3221 02c9 0E       		.uleb128 0xe
 3222 02ca 3A       		.uleb128 0x3a
 3223 02cb 0B       		.uleb128 0xb
 3224 02cc 3B       		.uleb128 0x3b
 3225 02cd 05       		.uleb128 0x5
 3226 02ce 27       		.uleb128 0x27
 3227 02cf 0C       		.uleb128 0xc
 3228 02d0 49       		.uleb128 0x49
 3229 02d1 13       		.uleb128 0x13
 3230 02d2 11       		.uleb128 0x11
 3231 02d3 01       		.uleb128 0x1
 3232 02d4 12       		.uleb128 0x12
 3233 02d5 01       		.uleb128 0x1
 3234 02d6 40       		.uleb128 0x40
 3235 02d7 0A       		.uleb128 0xa
 3236 02d8 01       		.uleb128 0x1
 3237 02d9 13       		.uleb128 0x13
 3238 02da 00       		.byte	0
 3239 02db 00       		.byte	0
ARM GAS  /tmp/cclRsDut.s 			page 58


 3240 02dc 37       		.uleb128 0x37
 3241 02dd 34       		.uleb128 0x34
 3242 02de 00       		.byte	0
 3243 02df 03       		.uleb128 0x3
 3244 02e0 0E       		.uleb128 0xe
 3245 02e1 3A       		.uleb128 0x3a
 3246 02e2 0B       		.uleb128 0xb
 3247 02e3 3B       		.uleb128 0x3b
 3248 02e4 05       		.uleb128 0x5
 3249 02e5 49       		.uleb128 0x49
 3250 02e6 13       		.uleb128 0x13
 3251 02e7 02       		.uleb128 0x2
 3252 02e8 0A       		.uleb128 0xa
 3253 02e9 00       		.byte	0
 3254 02ea 00       		.byte	0
 3255 02eb 38       		.uleb128 0x38
 3256 02ec 1D       		.uleb128 0x1d
 3257 02ed 01       		.byte	0x1
 3258 02ee 31       		.uleb128 0x31
 3259 02ef 13       		.uleb128 0x13
 3260 02f0 52       		.uleb128 0x52
 3261 02f1 01       		.uleb128 0x1
 3262 02f2 55       		.uleb128 0x55
 3263 02f3 06       		.uleb128 0x6
 3264 02f4 58       		.uleb128 0x58
 3265 02f5 0B       		.uleb128 0xb
 3266 02f6 59       		.uleb128 0x59
 3267 02f7 05       		.uleb128 0x5
 3268 02f8 00       		.byte	0
 3269 02f9 00       		.byte	0
 3270 02fa 39       		.uleb128 0x39
 3271 02fb 0B       		.uleb128 0xb
 3272 02fc 01       		.byte	0x1
 3273 02fd 55       		.uleb128 0x55
 3274 02fe 06       		.uleb128 0x6
 3275 02ff 00       		.byte	0
 3276 0300 00       		.byte	0
 3277 0301 3A       		.uleb128 0x3a
 3278 0302 34       		.uleb128 0x34
 3279 0303 00       		.byte	0
 3280 0304 03       		.uleb128 0x3
 3281 0305 0E       		.uleb128 0xe
 3282 0306 3A       		.uleb128 0x3a
 3283 0307 0B       		.uleb128 0xb
 3284 0308 3B       		.uleb128 0x3b
 3285 0309 05       		.uleb128 0x5
 3286 030a 49       		.uleb128 0x49
 3287 030b 13       		.uleb128 0x13
 3288 030c 3F       		.uleb128 0x3f
 3289 030d 0C       		.uleb128 0xc
 3290 030e 3C       		.uleb128 0x3c
 3291 030f 0C       		.uleb128 0xc
 3292 0310 00       		.byte	0
 3293 0311 00       		.byte	0
 3294 0312 00       		.byte	0
 3295              		.section	.debug_loc,"",%progbits
 3296              	.Ldebug_loc0:
ARM GAS  /tmp/cclRsDut.s 			page 59


 3297              	.LLST0:
 3298 0000 00000000 		.4byte	.LFB64
 3299 0004 06000000 		.4byte	.LCFI0
 3300 0008 0200     		.2byte	0x2
 3301 000a 7D       		.byte	0x7d
 3302 000b 00       		.sleb128 0
 3303 000c 06000000 		.4byte	.LCFI0
 3304 0010 2E000000 		.4byte	.LFE64
 3305 0014 0200     		.2byte	0x2
 3306 0016 7D       		.byte	0x7d
 3307 0017 08       		.sleb128 8
 3308 0018 00000000 		.4byte	0
 3309 001c 00000000 		.4byte	0
 3310              	.LLST1:
 3311 0020 04000000 		.4byte	.LVL2
 3312 0024 12000000 		.4byte	.LVL3
 3313 0028 0100     		.2byte	0x1
 3314 002a 50       		.byte	0x50
 3315 002b 12000000 		.4byte	.LVL3
 3316 002f 2E000000 		.4byte	.LFE64
 3317 0033 0100     		.2byte	0x1
 3318 0035 52       		.byte	0x52
 3319 0036 00000000 		.4byte	0
 3320 003a 00000000 		.4byte	0
 3321              	.LLST2:
 3322 003e 00000000 		.4byte	.LFB65
 3323 0042 04000000 		.4byte	.LCFI1
 3324 0046 0200     		.2byte	0x2
 3325 0048 7D       		.byte	0x7d
 3326 0049 00       		.sleb128 0
 3327 004a 04000000 		.4byte	.LCFI1
 3328 004e 24000000 		.4byte	.LFE65
 3329 0052 0200     		.2byte	0x2
 3330 0054 7D       		.byte	0x7d
 3331 0055 08       		.sleb128 8
 3332 0056 00000000 		.4byte	0
 3333 005a 00000000 		.4byte	0
 3334              	.LLST3:
 3335 005e 00000000 		.4byte	.LVL5
 3336 0062 02000000 		.4byte	.LVL6
 3337 0066 0100     		.2byte	0x1
 3338 0068 50       		.byte	0x50
 3339 0069 02000000 		.4byte	.LVL6
 3340 006d 24000000 		.4byte	.LFE65
 3341 0071 0400     		.2byte	0x4
 3342 0073 70       		.byte	0x70
 3343 0074 AC7F     		.sleb128 -84
 3344 0076 9F       		.byte	0x9f
 3345 0077 00000000 		.4byte	0
 3346 007b 00000000 		.4byte	0
 3347              	.LLST4:
 3348 007f 02000000 		.4byte	.LVL6
 3349 0083 08000000 		.4byte	.LVL7
 3350 0087 0100     		.2byte	0x1
 3351 0089 50       		.byte	0x50
 3352 008a 08000000 		.4byte	.LVL7
 3353 008e 24000000 		.4byte	.LFE65
ARM GAS  /tmp/cclRsDut.s 			page 60


 3354 0092 0100     		.2byte	0x1
 3355 0094 52       		.byte	0x52
 3356 0095 00000000 		.4byte	0
 3357 0099 00000000 		.4byte	0
 3358              	.LLST5:
 3359 009d 00000000 		.4byte	.LFB66
 3360 00a1 0A000000 		.4byte	.LCFI2
 3361 00a5 0200     		.2byte	0x2
 3362 00a7 7D       		.byte	0x7d
 3363 00a8 00       		.sleb128 0
 3364 00a9 0A000000 		.4byte	.LCFI2
 3365 00ad 5E000000 		.4byte	.LFE66
 3366 00b1 0200     		.2byte	0x2
 3367 00b3 7D       		.byte	0x7d
 3368 00b4 10       		.sleb128 16
 3369 00b5 00000000 		.4byte	0
 3370 00b9 00000000 		.4byte	0
 3371              	.LLST6:
 3372 00bd 00000000 		.4byte	.LVL9
 3373 00c1 56000000 		.4byte	.LVL15
 3374 00c5 0100     		.2byte	0x1
 3375 00c7 50       		.byte	0x50
 3376 00c8 5A000000 		.4byte	.LVL16
 3377 00cc 5C000000 		.4byte	.LVL17
 3378 00d0 0100     		.2byte	0x1
 3379 00d2 50       		.byte	0x50
 3380 00d3 00000000 		.4byte	0
 3381 00d7 00000000 		.4byte	0
 3382              	.LLST7:
 3383 00db 00000000 		.4byte	.LVL9
 3384 00df 08000000 		.4byte	.LVL10
 3385 00e3 0100     		.2byte	0x1
 3386 00e5 51       		.byte	0x51
 3387 00e6 00000000 		.4byte	0
 3388 00ea 00000000 		.4byte	0
 3389              	.LLST8:
 3390 00ee 08000000 		.4byte	.LVL10
 3391 00f2 12000000 		.4byte	.LVL12
 3392 00f6 0100     		.2byte	0x1
 3393 00f8 50       		.byte	0x50
 3394 00f9 12000000 		.4byte	.LVL12
 3395 00fd 14000000 		.4byte	.LVL13
 3396 0101 0100     		.2byte	0x1
 3397 0103 54       		.byte	0x54
 3398 0104 18000000 		.4byte	.LVL14
 3399 0108 56000000 		.4byte	.LVL15
 3400 010c 0100     		.2byte	0x1
 3401 010e 54       		.byte	0x54
 3402 010f 00000000 		.4byte	0
 3403 0113 00000000 		.4byte	0
 3404              	.LLST9:
 3405 0117 00000000 		.4byte	.LFB67
 3406 011b 04000000 		.4byte	.LCFI3
 3407 011f 0200     		.2byte	0x2
 3408 0121 7D       		.byte	0x7d
 3409 0122 00       		.sleb128 0
 3410 0123 04000000 		.4byte	.LCFI3
ARM GAS  /tmp/cclRsDut.s 			page 61


 3411 0127 A8000000 		.4byte	.LFE67
 3412 012b 0200     		.2byte	0x2
 3413 012d 7D       		.byte	0x7d
 3414 012e 18       		.sleb128 24
 3415 012f 00000000 		.4byte	0
 3416 0133 00000000 		.4byte	0
 3417              	.LLST10:
 3418 0137 00000000 		.4byte	.LVL18
 3419 013b 0A000000 		.4byte	.LVL19
 3420 013f 0100     		.2byte	0x1
 3421 0141 50       		.byte	0x50
 3422 0142 1A000000 		.4byte	.LVL20
 3423 0146 7C000000 		.4byte	.LVL23
 3424 014a 0100     		.2byte	0x1
 3425 014c 50       		.byte	0x50
 3426 014d 82000000 		.4byte	.LVL24
 3427 0151 8E000000 		.4byte	.LVL27
 3428 0155 0100     		.2byte	0x1
 3429 0157 50       		.byte	0x50
 3430 0158 9A000000 		.4byte	.LVL28
 3431 015c 9E000000 		.4byte	.LVL29
 3432 0160 0100     		.2byte	0x1
 3433 0162 50       		.byte	0x50
 3434 0163 00000000 		.4byte	0
 3435 0167 00000000 		.4byte	0
 3436              	.LLST11:
 3437 016b 00000000 		.4byte	.LVL18
 3438 016f 0A000000 		.4byte	.LVL19
 3439 0173 0100     		.2byte	0x1
 3440 0175 50       		.byte	0x50
 3441 0176 9A000000 		.4byte	.LVL28
 3442 017a 9E000000 		.4byte	.LVL29
 3443 017e 0100     		.2byte	0x1
 3444 0180 50       		.byte	0x50
 3445 0181 00000000 		.4byte	0
 3446 0185 00000000 		.4byte	0
 3447              	.LLST12:
 3448 0189 00000000 		.4byte	.LVL18
 3449 018d 1A000000 		.4byte	.LVL20
 3450 0191 0200     		.2byte	0x2
 3451 0193 31       		.byte	0x31
 3452 0194 9F       		.byte	0x9f
 3453 0195 86000000 		.4byte	.LVL25
 3454 0199 8A000000 		.4byte	.LVL26
 3455 019d 0100     		.2byte	0x1
 3456 019f 58       		.byte	0x58
 3457 01a0 9A000000 		.4byte	.LVL28
 3458 01a4 A8000000 		.4byte	.LFE67
 3459 01a8 0200     		.2byte	0x2
 3460 01aa 31       		.byte	0x31
 3461 01ab 9F       		.byte	0x9f
 3462 01ac 00000000 		.4byte	0
 3463 01b0 00000000 		.4byte	0
 3464              	.LLST13:
 3465 01b4 1A000000 		.4byte	.LVL20
 3466 01b8 7C000000 		.4byte	.LVL23
 3467 01bc 0100     		.2byte	0x1
ARM GAS  /tmp/cclRsDut.s 			page 62


 3468 01be 55       		.byte	0x55
 3469 01bf 82000000 		.4byte	.LVL24
 3470 01c3 8A000000 		.4byte	.LVL26
 3471 01c7 0100     		.2byte	0x1
 3472 01c9 55       		.byte	0x55
 3473 01ca 00000000 		.4byte	0
 3474 01ce 00000000 		.4byte	0
 3475              	.LLST14:
 3476 01d2 1A000000 		.4byte	.LVL20
 3477 01d6 7C000000 		.4byte	.LVL23
 3478 01da 0100     		.2byte	0x1
 3479 01dc 58       		.byte	0x58
 3480 01dd 82000000 		.4byte	.LVL24
 3481 01e1 86000000 		.4byte	.LVL25
 3482 01e5 0100     		.2byte	0x1
 3483 01e7 58       		.byte	0x58
 3484 01e8 00000000 		.4byte	0
 3485 01ec 00000000 		.4byte	0
 3486              	.LLST15:
 3487 01f0 2A000000 		.4byte	.LVL21
 3488 01f4 72000000 		.4byte	.LVL22
 3489 01f8 0100     		.2byte	0x1
 3490 01fa 54       		.byte	0x54
 3491 01fb 82000000 		.4byte	.LVL24
 3492 01ff 8A000000 		.4byte	.LVL26
 3493 0203 0100     		.2byte	0x1
 3494 0205 54       		.byte	0x54
 3495 0206 00000000 		.4byte	0
 3496 020a 00000000 		.4byte	0
 3497              	.LLST16:
 3498 020e 2A000000 		.4byte	.LVL21
 3499 0212 7C000000 		.4byte	.LVL23
 3500 0216 0100     		.2byte	0x1
 3501 0218 57       		.byte	0x57
 3502 0219 82000000 		.4byte	.LVL24
 3503 021d 8A000000 		.4byte	.LVL26
 3504 0221 0100     		.2byte	0x1
 3505 0223 57       		.byte	0x57
 3506 0224 00000000 		.4byte	0
 3507 0228 00000000 		.4byte	0
 3508              	.LLST17:
 3509 022c 00000000 		.4byte	.LFB68
 3510 0230 02000000 		.4byte	.LCFI4
 3511 0234 0200     		.2byte	0x2
 3512 0236 7D       		.byte	0x7d
 3513 0237 00       		.sleb128 0
 3514 0238 02000000 		.4byte	.LCFI4
 3515 023c 18000000 		.4byte	.LFE68
 3516 0240 0200     		.2byte	0x2
 3517 0242 7D       		.byte	0x7d
 3518 0243 10       		.sleb128 16
 3519 0244 00000000 		.4byte	0
 3520 0248 00000000 		.4byte	0
 3521              	.LLST18:
 3522 024c 00000000 		.4byte	.LVL30
 3523 0250 0A000000 		.4byte	.LVL32
 3524 0254 0100     		.2byte	0x1
ARM GAS  /tmp/cclRsDut.s 			page 63


 3525 0256 50       		.byte	0x50
 3526 0257 0A000000 		.4byte	.LVL32
 3527 025b 18000000 		.4byte	.LFE68
 3528 025f 0100     		.2byte	0x1
 3529 0261 55       		.byte	0x55
 3530 0262 00000000 		.4byte	0
 3531 0266 00000000 		.4byte	0
 3532              	.LLST19:
 3533 026a 06000000 		.4byte	.LVL31
 3534 026e 0A000000 		.4byte	.LVL32
 3535 0272 0100     		.2byte	0x1
 3536 0274 50       		.byte	0x50
 3537 0275 0A000000 		.4byte	.LVL32
 3538 0279 12000000 		.4byte	.LVL33
 3539 027d 0100     		.2byte	0x1
 3540 027f 54       		.byte	0x54
 3541 0280 00000000 		.4byte	0
 3542 0284 00000000 		.4byte	0
 3543              	.LLST20:
 3544 0288 00000000 		.4byte	.LVL35
 3545 028c 14000000 		.4byte	.LVL36
 3546 0290 0100     		.2byte	0x1
 3547 0292 50       		.byte	0x50
 3548 0293 1E000000 		.4byte	.LVL37
 3549 0297 20000000 		.4byte	.LVL38
 3550 029b 0100     		.2byte	0x1
 3551 029d 50       		.byte	0x50
 3552 029e 22000000 		.4byte	.LVL39
 3553 02a2 32000000 		.4byte	.LVL40
 3554 02a6 0100     		.2byte	0x1
 3555 02a8 50       		.byte	0x50
 3556 02a9 00000000 		.4byte	0
 3557 02ad 00000000 		.4byte	0
 3558              	.LLST21:
 3559 02b1 00000000 		.4byte	.LFB71
 3560 02b5 02000000 		.4byte	.LCFI5
 3561 02b9 0200     		.2byte	0x2
 3562 02bb 7D       		.byte	0x7d
 3563 02bc 00       		.sleb128 0
 3564 02bd 02000000 		.4byte	.LCFI5
 3565 02c1 10000000 		.4byte	.LCFI6
 3566 02c5 0200     		.2byte	0x2
 3567 02c7 7D       		.byte	0x7d
 3568 02c8 10       		.sleb128 16
 3569 02c9 10000000 		.4byte	.LCFI6
 3570 02cd 06010000 		.4byte	.LFE71
 3571 02d1 0200     		.2byte	0x2
 3572 02d3 7D       		.byte	0x7d
 3573 02d4 20       		.sleb128 32
 3574 02d5 00000000 		.4byte	0
 3575 02d9 00000000 		.4byte	0
 3576              	.LLST22:
 3577 02dd 00000000 		.4byte	.LVL41
 3578 02e1 18000000 		.4byte	.LVL44
 3579 02e5 0100     		.2byte	0x1
 3580 02e7 50       		.byte	0x50
 3581 02e8 2A000000 		.4byte	.LVL45
ARM GAS  /tmp/cclRsDut.s 			page 64


 3582 02ec 06010000 		.4byte	.LFE71
 3583 02f0 0100     		.2byte	0x1
 3584 02f2 56       		.byte	0x56
 3585 02f3 00000000 		.4byte	0
 3586 02f7 00000000 		.4byte	0
 3587              	.LLST23:
 3588 02fb 04000000 		.4byte	.LVL42
 3589 02ff 2A000000 		.4byte	.LVL45
 3590 0303 0300     		.2byte	0x3
 3591 0305 70       		.byte	0x70
 3592 0306 D400     		.sleb128 84
 3593 0308 2A000000 		.4byte	.LVL45
 3594 030c 32000000 		.4byte	.LVL46
 3595 0310 0300     		.2byte	0x3
 3596 0312 76       		.byte	0x76
 3597 0313 D400     		.sleb128 84
 3598 0315 32000000 		.4byte	.LVL46
 3599 0319 06010000 		.4byte	.LFE71
 3600 031d 0100     		.2byte	0x1
 3601 031f 55       		.byte	0x55
 3602 0320 00000000 		.4byte	0
 3603 0324 00000000 		.4byte	0
 3604              	.LLST24:
 3605 0328 16000000 		.4byte	.LVL43
 3606 032c 2A000000 		.4byte	.LVL45
 3607 0330 1000     		.2byte	0x10
 3608 0332 70       		.byte	0x70
 3609 0333 E000     		.sleb128 96
 3610 0335 06       		.byte	0x6
 3611 0336 23       		.byte	0x23
 3612 0337 08       		.uleb128 0x8
 3613 0338 06       		.byte	0x6
 3614 0339 70       		.byte	0x70
 3615 033a 08       		.sleb128 8
 3616 033b 06       		.byte	0x6
 3617 033c 1E       		.byte	0x1e
 3618 033d 70       		.byte	0x70
 3619 033e 04       		.sleb128 4
 3620 033f 06       		.byte	0x6
 3621 0340 22       		.byte	0x22
 3622 0341 9F       		.byte	0x9f
 3623 0342 2A000000 		.4byte	.LVL45
 3624 0346 32000000 		.4byte	.LVL46
 3625 034a 1000     		.2byte	0x10
 3626 034c 76       		.byte	0x76
 3627 034d E000     		.sleb128 96
 3628 034f 06       		.byte	0x6
 3629 0350 23       		.byte	0x23
 3630 0351 08       		.uleb128 0x8
 3631 0352 06       		.byte	0x6
 3632 0353 76       		.byte	0x76
 3633 0354 08       		.sleb128 8
 3634 0355 06       		.byte	0x6
 3635 0356 1E       		.byte	0x1e
 3636 0357 76       		.byte	0x76
 3637 0358 04       		.sleb128 4
 3638 0359 06       		.byte	0x6
ARM GAS  /tmp/cclRsDut.s 			page 65


 3639 035a 22       		.byte	0x22
 3640 035b 9F       		.byte	0x9f
 3641 035c 7E000000 		.4byte	.LVL52
 3642 0360 B7000000 		.4byte	.LVL53-1
 3643 0364 1000     		.2byte	0x10
 3644 0366 76       		.byte	0x76
 3645 0367 E000     		.sleb128 96
 3646 0369 06       		.byte	0x6
 3647 036a 23       		.byte	0x23
 3648 036b 08       		.uleb128 0x8
 3649 036c 06       		.byte	0x6
 3650 036d 76       		.byte	0x76
 3651 036e 08       		.sleb128 8
 3652 036f 06       		.byte	0x6
 3653 0370 1E       		.byte	0x1e
 3654 0371 76       		.byte	0x76
 3655 0372 04       		.sleb128 4
 3656 0373 06       		.byte	0x6
 3657 0374 22       		.byte	0x22
 3658 0375 9F       		.byte	0x9f
 3659 0376 D4000000 		.4byte	.LVL54
 3660 037a F3000000 		.4byte	.LVL55-1
 3661 037e 1000     		.2byte	0x10
 3662 0380 76       		.byte	0x76
 3663 0381 E000     		.sleb128 96
 3664 0383 06       		.byte	0x6
 3665 0384 23       		.byte	0x23
 3666 0385 08       		.uleb128 0x8
 3667 0386 06       		.byte	0x6
 3668 0387 76       		.byte	0x76
 3669 0388 08       		.sleb128 8
 3670 0389 06       		.byte	0x6
 3671 038a 1E       		.byte	0x1e
 3672 038b 76       		.byte	0x76
 3673 038c 04       		.sleb128 4
 3674 038d 06       		.byte	0x6
 3675 038e 22       		.byte	0x22
 3676 038f 9F       		.byte	0x9f
 3677 0390 00000000 		.4byte	0
 3678 0394 00000000 		.4byte	0
 3679              	.LLST25:
 3680 0398 54000000 		.4byte	.LVL47
 3681 039c 6A000000 		.4byte	.LVL50
 3682 03a0 0100     		.2byte	0x1
 3683 03a2 55       		.byte	0x55
 3684 03a3 76000000 		.4byte	.LVL51
 3685 03a7 7E000000 		.4byte	.LVL52
 3686 03ab 0100     		.2byte	0x1
 3687 03ad 55       		.byte	0x55
 3688 03ae 00000000 		.4byte	0
 3689 03b2 00000000 		.4byte	0
 3690              	.LLST26:
 3691 03b6 54000000 		.4byte	.LVL47
 3692 03ba 6A000000 		.4byte	.LVL50
 3693 03be 0400     		.2byte	0x4
 3694 03c0 76       		.byte	0x76
 3695 03c1 D400     		.sleb128 84
ARM GAS  /tmp/cclRsDut.s 			page 66


 3696 03c3 9F       		.byte	0x9f
 3697 03c4 76000000 		.4byte	.LVL51
 3698 03c8 7E000000 		.4byte	.LVL52
 3699 03cc 0400     		.2byte	0x4
 3700 03ce 76       		.byte	0x76
 3701 03cf D400     		.sleb128 84
 3702 03d1 9F       		.byte	0x9f
 3703 03d2 00000000 		.4byte	0
 3704 03d6 00000000 		.4byte	0
 3705              	.LLST27:
 3706 03da 54000000 		.4byte	.LVL47
 3707 03de 56000000 		.4byte	.LVL48
 3708 03e2 0400     		.2byte	0x4
 3709 03e4 76       		.byte	0x76
 3710 03e5 D400     		.sleb128 84
 3711 03e7 9F       		.byte	0x9f
 3712 03e8 56000000 		.4byte	.LVL48
 3713 03ec 6A000000 		.4byte	.LVL50
 3714 03f0 0100     		.2byte	0x1
 3715 03f2 52       		.byte	0x52
 3716 03f3 76000000 		.4byte	.LVL51
 3717 03f7 7E000000 		.4byte	.LVL52
 3718 03fb 0100     		.2byte	0x1
 3719 03fd 52       		.byte	0x52
 3720 03fe 00000000 		.4byte	0
 3721 0402 00000000 		.4byte	0
 3722              		.section	.debug_aranges,"",%progbits
 3723 0000 5C000000 		.4byte	0x5c
 3724 0004 0200     		.2byte	0x2
 3725 0006 00000000 		.4byte	.Ldebug_info0
 3726 000a 04       		.byte	0x4
 3727 000b 00       		.byte	0
 3728 000c 0000     		.2byte	0
 3729 000e 0000     		.2byte	0
 3730 0010 00000000 		.4byte	.LFB63
 3731 0014 04000000 		.4byte	.LFE63-.LFB63
 3732 0018 00000000 		.4byte	.LFB64
 3733 001c 2E000000 		.4byte	.LFE64-.LFB64
 3734 0020 00000000 		.4byte	.LFB65
 3735 0024 24000000 		.4byte	.LFE65-.LFB65
 3736 0028 00000000 		.4byte	.LFB66
 3737 002c 5E000000 		.4byte	.LFE66-.LFB66
 3738 0030 00000000 		.4byte	.LFB67
 3739 0034 A8000000 		.4byte	.LFE67-.LFB67
 3740 0038 00000000 		.4byte	.LFB68
 3741 003c 18000000 		.4byte	.LFE68-.LFB68
 3742 0040 00000000 		.4byte	.LFB69
 3743 0044 0E000000 		.4byte	.LFE69-.LFB69
 3744 0048 00000000 		.4byte	.LFB70
 3745 004c 34000000 		.4byte	.LFE70-.LFB70
 3746 0050 00000000 		.4byte	.LFB71
 3747 0054 06010000 		.4byte	.LFE71-.LFB71
 3748 0058 00000000 		.4byte	0
 3749 005c 00000000 		.4byte	0
 3750              		.section	.debug_ranges,"",%progbits
 3751              	.Ldebug_ranges0:
 3752 0000 56000000 		.4byte	.LBB13
ARM GAS  /tmp/cclRsDut.s 			page 67


 3753 0004 6A000000 		.4byte	.LBE13
 3754 0008 76000000 		.4byte	.LBB16
 3755 000c 7E000000 		.4byte	.LBE16
 3756 0010 00000000 		.4byte	0
 3757 0014 00000000 		.4byte	0
 3758 0018 56000000 		.4byte	.LBB14
 3759 001c 6A000000 		.4byte	.LBE14
 3760 0020 76000000 		.4byte	.LBB15
 3761 0024 7E000000 		.4byte	.LBE15
 3762 0028 00000000 		.4byte	0
 3763 002c 00000000 		.4byte	0
 3764 0030 00000000 		.4byte	.LFB63
 3765 0034 04000000 		.4byte	.LFE63
 3766 0038 00000000 		.4byte	.LFB64
 3767 003c 2E000000 		.4byte	.LFE64
 3768 0040 00000000 		.4byte	.LFB65
 3769 0044 24000000 		.4byte	.LFE65
 3770 0048 00000000 		.4byte	.LFB66
 3771 004c 5E000000 		.4byte	.LFE66
 3772 0050 00000000 		.4byte	.LFB67
 3773 0054 A8000000 		.4byte	.LFE67
 3774 0058 00000000 		.4byte	.LFB68
 3775 005c 18000000 		.4byte	.LFE68
 3776 0060 00000000 		.4byte	.LFB69
 3777 0064 0E000000 		.4byte	.LFE69
 3778 0068 00000000 		.4byte	.LFB70
 3779 006c 34000000 		.4byte	.LFE70
 3780 0070 00000000 		.4byte	.LFB71
 3781 0074 06010000 		.4byte	.LFE71
 3782 0078 00000000 		.4byte	0
 3783 007c 00000000 		.4byte	0
 3784              		.section	.debug_line,"",%progbits
 3785              	.Ldebug_line0:
 3786 0000 20030000 		.section	.debug_str,"MS",%progbits,1
 3786      02009A01 
 3786      00000201 
 3786      FB0E0D00 
 3786      01010101 
 3787              	.LASF42:
 3788 0000 44494552 		.ascii	"DIER\000"
 3788      00
 3789              	.LASF35:
 3790 0005 46464131 		.ascii	"FFA1R\000"
 3790      5200
 3791              	.LASF68:
 3792 000b 6E657874 		.ascii	"next\000"
 3792      00
 3793              	.LASF28:
 3794 0010 7354784D 		.ascii	"sTxMailBox\000"
 3794      61696C42 
 3794      6F7800
 3795              	.LASF76:
 3796 001b 52544341 		.ascii	"RTCAN_STOP\000"
 3796      4E5F5354 
 3796      4F5000
 3797              	.LASF121:
 3798 0026 72746361 		.ascii	"rtcanp\000"
ARM GAS  /tmp/cclRsDut.s 			page 68


 3798      6E7000
 3799              	.LASF128:
 3800 002d 63616C65 		.ascii	"calendar_set_slot\000"
 3800      6E646172 
 3800      5F736574 
 3800      5F736C6F 
 3800      7400
 3801              	.LASF40:
 3802 003f 43414E5F 		.ascii	"CAN_TypeDef\000"
 3802      54797065 
 3802      44656600 
 3803              	.LASF134:
 3804 004b 2E2E2F2E 		.ascii	"../../RTCAN/src/hrt.c\000"
 3804      2E2F5254 
 3804      43414E2F 
 3804      7372632F 
 3804      6872742E 
 3805              	.LASF66:
 3806 0061 54494D5F 		.ascii	"TIM_TypeDef\000"
 3806      54797065 
 3806      44656600 
 3807              	.LASF105:
 3808 006d 70657269 		.ascii	"period\000"
 3808      6F6400
 3809              	.LASF53:
 3810 0074 43435231 		.ascii	"CCR1\000"
 3810      00
 3811              	.LASF12:
 3812 0079 6C6F6E67 		.ascii	"long long unsigned int\000"
 3812      206C6F6E 
 3812      6720756E 
 3812      7369676E 
 3812      65642069 
 3813              	.LASF129:
 3814 0090 6872745F 		.ascii	"hrt_reserved_slot\000"
 3814      72657365 
 3814      72766564 
 3814      5F736C6F 
 3814      7400
 3815              	.LASF92:
 3816 00a2 52544341 		.ascii	"RTCANDriver\000"
 3816      4E447269 
 3816      76657200 
 3817              	.LASF110:
 3818 00ae 64617461 		.ascii	"data32\000"
 3818      333200
 3819              	.LASF61:
 3820 00b5 42445452 		.ascii	"BDTR\000"
 3820      00
 3821              	.LASF43:
 3822 00ba 43434D52 		.ascii	"CCMR1\000"
 3822      3100
 3823              	.LASF45:
 3824 00c0 43434D52 		.ascii	"CCMR2\000"
 3824      3200
 3825              	.LASF11:
 3826 00c6 6C6F6E67 		.ascii	"long long int\000"
ARM GAS  /tmp/cclRsDut.s 			page 69


 3826      206C6F6E 
 3826      6720696E 
 3826      7400
 3827              	.LASF1:
 3828 00d4 7369676E 		.ascii	"signed char\000"
 3828      65642063 
 3828      68617200 
 3829              	.LASF83:
 3830 00e0 52544341 		.ascii	"RTCAN_MSG_UNINIT\000"
 3830      4E5F4D53 
 3830      475F554E 
 3830      494E4954 
 3830      00
 3831              	.LASF13:
 3832 00f1 626F6F6C 		.ascii	"bool_t\000"
 3832      5F7400
 3833              	.LASF114:
 3834 00f8 62617564 		.ascii	"baudrate\000"
 3834      72617465 
 3834      00
 3835              	.LASF50:
 3836 0101 52455345 		.ascii	"RESERVED10\000"
 3836      52564544 
 3836      313000
 3837              	.LASF51:
 3838 010c 52455345 		.ascii	"RESERVED11\000"
 3838      52564544 
 3838      313100
 3839              	.LASF52:
 3840 0117 52455345 		.ascii	"RESERVED12\000"
 3840      52564544 
 3840      313200
 3841              	.LASF54:
 3842 0122 52455345 		.ascii	"RESERVED13\000"
 3842      52564544 
 3842      313300
 3843              	.LASF56:
 3844 012d 52455345 		.ascii	"RESERVED14\000"
 3844      52564544 
 3844      313400
 3845              	.LASF58:
 3846 0138 52455345 		.ascii	"RESERVED15\000"
 3846      52564544 
 3846      313500
 3847              	.LASF60:
 3848 0143 52455345 		.ascii	"RESERVED16\000"
 3848      52564544 
 3848      313600
 3849              	.LASF62:
 3850 014e 52455345 		.ascii	"RESERVED17\000"
 3850      52564544 
 3850      313700
 3851              	.LASF63:
 3852 0159 52455345 		.ascii	"RESERVED18\000"
 3852      52564544 
 3852      313800
 3853              	.LASF93:
ARM GAS  /tmp/cclRsDut.s 			page 70


 3854 0164 73746174 		.ascii	"state\000"
 3854      6500
 3855              	.LASF17:
 3856 016a 54444C52 		.ascii	"TDLR\000"
 3856      00
 3857              	.LASF8:
 3858 016f 6C6F6E67 		.ascii	"long int\000"
 3858      20696E74 
 3858      00
 3859              	.LASF133:
 3860 0178 474E5520 		.ascii	"GNU C 4.6.2 20120613 (release) [ARM/embedded-4_6-br"
 3860      4320342E 
 3860      362E3220 
 3860      32303132 
 3860      30363133 
 3861 01ab 616E6368 		.ascii	"anch revision 188521]\000"
 3861      20726576 
 3861      6973696F 
 3861      6E203138 
 3861      38353231 
 3862              	.LASF135:
 3863 01c1 2F686F6D 		.ascii	"/home/tino/workspace/openrobots/R2P_IR_module/fw\000"
 3863      652F7469 
 3863      6E6F2F77 
 3863      6F726B73 
 3863      70616365 
 3864              	.LASF19:
 3865 01f2 43414E5F 		.ascii	"CAN_TxMailBox_TypeDef\000"
 3865      54784D61 
 3865      696C426F 
 3865      785F5479 
 3865      70654465 
 3866              	.LASF79:
 3867 0208 52544341 		.ascii	"RTCAN_SYNCING\000"
 3867      4E5F5359 
 3867      4E43494E 
 3867      4700
 3868              	.LASF47:
 3869 0216 43434552 		.ascii	"CCER\000"
 3869      00
 3870              	.LASF71:
 3871 021b 70617261 		.ascii	"params\000"
 3871      6D7300
 3872              	.LASF25:
 3873 0222 52463052 		.ascii	"RF0R\000"
 3873      00
 3874              	.LASF118:
 3875 0227 63616C65 		.ascii	"calendar_reset\000"
 3875      6E646172 
 3875      5F726573 
 3875      657400
 3876              	.LASF16:
 3877 0236 54445452 		.ascii	"TDTR\000"
 3877      00
 3878              	.LASF21:
 3879 023b 52444C52 		.ascii	"RDLR\000"
 3879      00
ARM GAS  /tmp/cclRsDut.s 			page 71


 3880              	.LASF112:
 3881 0240 72746361 		.ascii	"rtcan_txframe_t\000"
 3881      6E5F7478 
 3881      6672616D 
 3881      655F7400 
 3882              	.LASF0:
 3883 0250 756E7369 		.ascii	"unsigned int\000"
 3883      676E6564 
 3883      20696E74 
 3883      00
 3884              	.LASF5:
 3885 025d 75696E74 		.ascii	"uint16_t\000"
 3885      31365F74 
 3885      00
 3886              	.LASF80:
 3887 0266 52544341 		.ascii	"RTCAN_SLAVE\000"
 3887      4E5F534C 
 3887      41564500 
 3888              	.LASF10:
 3889 0272 6C6F6E67 		.ascii	"long unsigned int\000"
 3889      20756E73 
 3889      69676E65 
 3889      6420696E 
 3889      7400
 3890              	.LASF20:
 3891 0284 52445452 		.ascii	"RDTR\000"
 3891      00
 3892              	.LASF33:
 3893 0289 46533152 		.ascii	"FS1R\000"
 3893      00
 3894              	.LASF119:
 3895 028e 63616C65 		.ascii	"calendar_reserve\000"
 3895      6E646172 
 3895      5F726573 
 3895      65727665 
 3895      00
 3896              	.LASF73:
 3897 029f 64617461 		.ascii	"data\000"
 3897      00
 3898              	.LASF41:
 3899 02a4 534D4352 		.ascii	"SMCR\000"
 3899      00
 3900              	.LASF26:
 3901 02a9 52463152 		.ascii	"RF1R\000"
 3901      00
 3902              	.LASF24:
 3903 02ae 43414E5F 		.ascii	"CAN_FilterRegister_TypeDef\000"
 3903      46696C74 
 3903      65725265 
 3903      67697374 
 3903      65725F54 
 3904              	.LASF107:
 3905 02c9 6872745F 		.ascii	"hrt_calendar_t\000"
 3905      63616C65 
 3905      6E646172 
 3905      5F7400
 3906              	.LASF70:
ARM GAS  /tmp/cclRsDut.s 			page 72


 3907 02d8 63616C6C 		.ascii	"callback\000"
 3907      6261636B 
 3907      00
 3908              	.LASF94:
 3909 02e1 736C6F74 		.ascii	"slot\000"
 3909      00
 3910              	.LASF39:
 3911 02e6 7346696C 		.ascii	"sFilterRegister\000"
 3911      74657252 
 3911      65676973 
 3911      74657200 
 3912              	.LASF31:
 3913 02f6 464D3152 		.ascii	"FM1R\000"
 3913      00
 3914              	.LASF122:
 3915 02fb 6D736770 		.ascii	"msgp\000"
 3915      00
 3916              	.LASF120:
 3917 0300 63616C70 		.ascii	"calp\000"
 3917      00
 3918              	.LASF89:
 3919 0305 52544341 		.ascii	"RTCAN_MSG_ERROR\000"
 3919      4E5F4D53 
 3919      475F4552 
 3919      524F5200 
 3920              	.LASF90:
 3921 0315 72746361 		.ascii	"rtcan_msgstatus_t\000"
 3921      6E5F6D73 
 3921      67737461 
 3921      7475735F 
 3921      7400
 3922              	.LASF87:
 3923 0327 52544341 		.ascii	"RTCAN_MSG_ONAIR\000"
 3923      4E5F4D53 
 3923      475F4F4E 
 3923      41495200 
 3924              	.LASF77:
 3925 0337 52544341 		.ascii	"RTCAN_STARTING\000"
 3925      4E5F5354 
 3925      41525449 
 3925      4E4700
 3926              	.LASF97:
 3927 0346 6F6E6169 		.ascii	"onair\000"
 3927      7200
 3928              	.LASF125:
 3929 034c 63616C65 		.ascii	"calendar_add\000"
 3929      6E646172 
 3929      5F616464 
 3929      00
 3930              	.LASF75:
 3931 0359 52544341 		.ascii	"RTCAN_UNINIT\000"
 3931      4E5F554E 
 3931      494E4954 
 3931      00
 3932              	.LASF108:
 3933 0366 64617461 		.ascii	"data8\000"
 3933      3800
ARM GAS  /tmp/cclRsDut.s 			page 73


 3934              	.LASF18:
 3935 036c 54444852 		.ascii	"TDHR\000"
 3935      00
 3936              	.LASF116:
 3937 0371 736C6F74 		.ascii	"slots\000"
 3937      7300
 3938              	.LASF74:
 3939 0377 72746361 		.ascii	"rtcan_msgcallback_t\000"
 3939      6E5F6D73 
 3939      6763616C 
 3939      6C626163 
 3939      6B5F7400 
 3940              	.LASF102:
 3941 038b 6872745F 		.ascii	"hrt_msg_t\000"
 3941      6D73675F 
 3941      7400
 3942              	.LASF82:
 3943 0395 72746361 		.ascii	"rtcanstate_t\000"
 3943      6E737461 
 3943      74655F74 
 3943      00
 3944              	.LASF111:
 3945 03a2 6D626F78 		.ascii	"mbox\000"
 3945      00
 3946              	.LASF27:
 3947 03a7 52455345 		.ascii	"RESERVED0\000"
 3947      52564544 
 3947      3000
 3948              	.LASF30:
 3949 03b1 52455345 		.ascii	"RESERVED1\000"
 3949      52564544 
 3949      3100
 3950              	.LASF32:
 3951 03bb 52455345 		.ascii	"RESERVED2\000"
 3951      52564544 
 3951      3200
 3952              	.LASF34:
 3953 03c5 52455345 		.ascii	"RESERVED3\000"
 3953      52564544 
 3953      3300
 3954              	.LASF88:
 3955 03cf 52544341 		.ascii	"RTCAN_MSG_TIMEOUT\000"
 3955      4E5F4D53 
 3955      475F5449 
 3955      4D454F55 
 3955      5400
 3956              	.LASF37:
 3957 03e1 46413152 		.ascii	"FA1R\000"
 3957      00
 3958              	.LASF44:
 3959 03e6 52455345 		.ascii	"RESERVED6\000"
 3959      52564544 
 3959      3600
 3960              	.LASF48:
 3961 03f0 52455345 		.ascii	"RESERVED8\000"
 3961      52564544 
 3961      3800
ARM GAS  /tmp/cclRsDut.s 			page 74


 3962              	.LASF49:
 3963 03fa 52455345 		.ascii	"RESERVED9\000"
 3963      52564544 
 3963      3900
 3964              	.LASF14:
 3965 0404 5F426F6F 		.ascii	"_Bool\000"
 3965      6C00
 3966              	.LASF7:
 3967 040a 696E7433 		.ascii	"int32_t\000"
 3967      325F7400 
 3968              	.LASF2:
 3969 0412 756E7369 		.ascii	"unsigned char\000"
 3969      676E6564 
 3969      20636861 
 3969      7200
 3970              	.LASF132:
 3971 0420 49544D5F 		.ascii	"ITM_RxBuffer\000"
 3971      52784275 
 3971      66666572 
 3971      00
 3972              	.LASF3:
 3973 042d 73686F72 		.ascii	"short int\000"
 3973      7420696E 
 3973      7400
 3974              	.LASF126:
 3975 0437 63616C65 		.ascii	"calendar_prepare\000"
 3975      6E646172 
 3975      5F707265 
 3975      70617265 
 3975      00
 3976              	.LASF124:
 3977 0448 6D6F6475 		.ascii	"module\000"
 3977      6C6500
 3978              	.LASF86:
 3979 044f 52544341 		.ascii	"RTCAN_MSG_QUEUED\000"
 3979      4E5F4D53 
 3979      475F5155 
 3979      45554544 
 3979      00
 3980              	.LASF104:
 3981 0460 66726167 		.ascii	"fragment\000"
 3981      6D656E74 
 3981      00
 3982              	.LASF85:
 3983 0469 52544341 		.ascii	"RTCAN_MSG_READY\000"
 3983      4E5F4D53 
 3983      475F5245 
 3983      41445900 
 3984              	.LASF136:
 3985 0479 63616C65 		.ascii	"calendar_check\000"
 3985      6E646172 
 3985      5F636865 
 3985      636B00
 3986              	.LASF36:
 3987 0488 52455345 		.ascii	"RESERVED4\000"
 3987      52564544 
 3987      3400
ARM GAS  /tmp/cclRsDut.s 			page 75


 3988              	.LASF38:
 3989 0492 52455345 		.ascii	"RESERVED5\000"
 3989      52564544 
 3989      3500
 3990              	.LASF9:
 3991 049c 75696E74 		.ascii	"uint32_t\000"
 3991      33325F74 
 3991      00
 3992              	.LASF46:
 3993 04a5 52455345 		.ascii	"RESERVED7\000"
 3993      52564544 
 3993      3700
 3994              	.LASF15:
 3995 04af 63686172 		.ascii	"char\000"
 3995      00
 3996              	.LASF67:
 3997 04b4 72746361 		.ascii	"rtcan_msg_t\000"
 3997      6E5F6D73 
 3997      675F7400 
 3998              	.LASF96:
 3999 04c0 7372745F 		.ascii	"srt_queue\000"
 3999      71756575 
 3999      6500
 4000              	.LASF101:
 4001 04ca 636F6E66 		.ascii	"config\000"
 4001      696700
 4002              	.LASF64:
 4003 04d1 444D4152 		.ascii	"DMAR\000"
 4003      00
 4004              	.LASF123:
 4005 04d6 63757272 		.ascii	"curr_msgp\000"
 4005      5F6D7367 
 4005      7000
 4006              	.LASF137:
 4007 04e0 6872745F 		.ascii	"hrt_set_slot\000"
 4007      7365745F 
 4007      736C6F74 
 4007      00
 4008              	.LASF22:
 4009 04ed 52444852 		.ascii	"RDHR\000"
 4009      00
 4010              	.LASF100:
 4011 04f2 72657365 		.ascii	"reservation_mask\000"
 4011      72766174 
 4011      696F6E5F 
 4011      6D61736B 
 4011      00
 4012              	.LASF113:
 4013 0503 64656164 		.ascii	"deadline\000"
 4013      6C696E65 
 4013      00
 4014              	.LASF130:
 4015 050c 6872745F 		.ascii	"hrt_transmit\000"
 4015      7472616E 
 4015      736D6974 
 4015      00
 4016              	.LASF29:
ARM GAS  /tmp/cclRsDut.s 			page 76


 4017 0519 73464946 		.ascii	"sFIFOMailBox\000"
 4017      4F4D6169 
 4017      6C426F78 
 4017      00
 4018              	.LASF106:
 4019 0526 6872745F 		.ascii	"hrt_updatecb_t\000"
 4019      75706461 
 4019      74656362 
 4019      5F7400
 4020              	.LASF84:
 4021 0535 52544341 		.ascii	"RTCAN_MSG_BUSY\000"
 4021      4E5F4D53 
 4021      475F4255 
 4021      535900
 4022              	.LASF6:
 4023 0544 73686F72 		.ascii	"short unsigned int\000"
 4023      7420756E 
 4023      7369676E 
 4023      65642069 
 4023      6E7400
 4024              	.LASF103:
 4025 0557 75706461 		.ascii	"update\000"
 4025      746500
 4026              	.LASF95:
 4027 055e 6379636C 		.ascii	"cycle\000"
 4027      6500
 4028              	.LASF109:
 4029 0564 64617461 		.ascii	"data16\000"
 4029      313600
 4030              	.LASF55:
 4031 056b 43435232 		.ascii	"CCR2\000"
 4031      00
 4032              	.LASF57:
 4033 0570 43435233 		.ascii	"CCR3\000"
 4033      00
 4034              	.LASF59:
 4035 0575 43435234 		.ascii	"CCR4\000"
 4035      00
 4036              	.LASF69:
 4037 057a 73746174 		.ascii	"status\000"
 4037      757300
 4038              	.LASF23:
 4039 0581 43414E5F 		.ascii	"CAN_FIFOMailBox_TypeDef\000"
 4039      4649464F 
 4039      4D61696C 
 4039      426F785F 
 4039      54797065 
 4040              	.LASF65:
 4041 0599 52455345 		.ascii	"RESERVED19\000"
 4041      52564544 
 4041      313900
 4042              	.LASF4:
 4043 05a4 75696E74 		.ascii	"uint8_t\000"
 4043      385F7400 
 4044              	.LASF127:
 4045 05ac 6872745F 		.ascii	"hrt_reset\000"
 4045      72657365 
ARM GAS  /tmp/cclRsDut.s 			page 77


 4045      7400
 4046              	.LASF78:
 4047 05b6 52544341 		.ascii	"RTCAN_ERROR\000"
 4047      4E5F4552 
 4047      524F5200 
 4048              	.LASF72:
 4049 05c2 73697A65 		.ascii	"size\000"
 4049      00
 4050              	.LASF81:
 4051 05c7 52544341 		.ascii	"RTCAN_MASTER\000"
 4051      4E5F4D41 
 4051      53544552 
 4051      00
 4052              	.LASF117:
 4053 05d4 52544341 		.ascii	"RTCANConfig\000"
 4053      4E436F6E 
 4053      66696700 
 4054              	.LASF115:
 4055 05e0 636C6F63 		.ascii	"clock\000"
 4055      6B00
 4056              	.LASF131:
 4057 05e6 74786670 		.ascii	"txfp\000"
 4057      00
 4058              	.LASF98:
 4059 05eb 66696C74 		.ascii	"filters\000"
 4059      65727300 
 4060              	.LASF91:
 4061 05f3 6D736771 		.ascii	"msgqueue_t\000"
 4061      75657565 
 4061      5F7400
 4062              	.LASF99:
 4063 05fe 6872745F 		.ascii	"hrt_calendar\000"
 4063      63616C65 
 4063      6E646172 
 4063      00
 4064              		.ident	"GCC: (GNU Tools for ARM Embedded Processors) 4.6.2 20120613 (release) [ARM/embedded-4_6-br
ARM GAS  /tmp/cclRsDut.s 			page 78


DEFINED SYMBOLS
                            *ABS*:00000000 hrt.c
     /tmp/cclRsDut.s:19     .text.calendar_reset:00000000 $t
     /tmp/cclRsDut.s:25     .text.calendar_reset:00000000 calendar_reset
     /tmp/cclRsDut.s:42     .text.calendar_add:00000000 $t
     /tmp/cclRsDut.s:48     .text.calendar_add:00000000 calendar_add
     /tmp/cclRsDut.s:100    .text.calendar_reserve:00000000 $t
     /tmp/cclRsDut.s:106    .text.calendar_reserve:00000000 calendar_reserve
     /tmp/cclRsDut.s:153    .text.calendar_check:00000000 $t
     /tmp/cclRsDut.s:159    .text.calendar_check:00000000 calendar_check
     /tmp/cclRsDut.s:241    .text.calendar_set_slot:00000000 $t
     /tmp/cclRsDut.s:247    .text.calendar_set_slot:00000000 calendar_set_slot
     /tmp/cclRsDut.s:371    .text.calendar_prepare:00000000 $t
     /tmp/cclRsDut.s:377    .text.calendar_prepare:00000000 calendar_prepare
     /tmp/cclRsDut.s:417    .text.hrt_reset:00000000 $t
     /tmp/cclRsDut.s:423    .text.hrt_reset:00000000 hrt_reset
     /tmp/cclRsDut.s:451    .text.hrt_reserved_slot:00000000 $t
     /tmp/cclRsDut.s:457    .text.hrt_reserved_slot:00000000 hrt_reserved_slot
     /tmp/cclRsDut.s:506    .text.hrt_transmit:00000000 $t
     /tmp/cclRsDut.s:512    .text.hrt_transmit:00000000 hrt_transmit
                     .debug_frame:00000010 $d

UNDEFINED SYMBOLS
hrt_set_slot
rtcan_lld_can_transmit
