ARM GAS  /tmp/ccboNQdc.s 			page 1


   1              		.syntax unified
   2              		.cpu cortex-m3
   3              		.fpu softvfp
   4              		.eabi_attribute 20, 1
   5              		.eabi_attribute 21, 1
   6              		.eabi_attribute 23, 3
   7              		.eabi_attribute 24, 1
   8              		.eabi_attribute 25, 1
   9              		.eabi_attribute 26, 1
  10              		.eabi_attribute 30, 2
  11              		.eabi_attribute 34, 1
  12              		.eabi_attribute 18, 4
  13              		.thumb
  14              		.file	"LocalSubscriber.cpp"
  15              		.text
  16              	.Ltext0:
  17              		.cfi_sections	.debug_frame
  18              		.section	.text._ZN15LocalSubscriberC2EPKcjPhPP11BaseMessagemPFvS4_E,"ax",%progbits
  19              		.align	2
  20              		.p2align 4,,15
  21              		.global	_ZN15LocalSubscriberC2EPKcjPhPP11BaseMessagemPFvS4_E
  22              		.thumb
  23              		.thumb_func
  24              		.type	_ZN15LocalSubscriberC2EPKcjPhPP11BaseMessagemPFvS4_E, %function
  25              	_ZN15LocalSubscriberC2EPKcjPhPP11BaseMessagemPFvS4_E:
  26              	.LFB73:
  27              		.file 1 "../../Middleware/LocalSubscriber.cpp"
  28              		.loc 1 7 0
  29              		.cfi_startproc
  30              		@ args = 12, pretend = 0, frame = 0
  31              		@ frame_needed = 0, uses_anonymous_args = 0
  32              	.LVL0:
  33 0000 30B5     		push	{r4, r5, lr}
  34              	.LCFI0:
  35              		.cfi_def_cfa_offset 12
  36              		.cfi_offset 14, -4
  37              		.cfi_offset 5, -8
  38              		.cfi_offset 4, -12
  39 0002 83B0     		sub	sp, sp, #12
  40              	.LCFI1:
  41              		.cfi_def_cfa_offset 24
  42              	.LBB2:
  43              		.loc 1 9 0
  44 0004 069D     		ldr	r5, [sp, #24]
  45              	.LBE2:
  46              		.loc 1 7 0
  47 0006 0446     		mov	r4, r0
  48              	.LBB3:
  49              		.loc 1 9 0
  50 0008 0095     		str	r5, [sp, #0]
  51 000a 079D     		ldr	r5, [sp, #28]
  52 000c 0195     		str	r5, [sp, #4]
  53 000e FFF7FEFF 		bl	_ZN14BaseSubscriberC2EPKcjPhPP11BaseMessagem
  54              	.LVL1:
  55              		.loc 1 12 0
  56 0012 40F20001 		movw	r1, #:lower16:rlist
  57 0016 C0F20001 		movt	r1, #:upper16:rlist
ARM GAS  /tmp/ccboNQdc.s 			page 2


  58 001a 8A69     		ldr	r2, [r1, #24]
  59              		.loc 1 15 0
  60 001c 089B     		ldr	r3, [sp, #32]
  61              		.loc 1 11 0
  62 001e 0020     		movs	r0, #0
  63 0020 A062     		str	r0, [r4, #40]
  64              		.loc 1 13 0
  65 0022 6063     		str	r0, [r4, #52]
  66              		.loc 1 14 0
  67 0024 E062     		str	r0, [r4, #44]
  68              		.loc 1 12 0
  69 0026 2263     		str	r2, [r4, #48]
  70              		.loc 1 15 0
  71 0028 A363     		str	r3, [r4, #56]
  72              	.LBE3:
  73              		.loc 1 16 0
  74 002a 2046     		mov	r0, r4
  75 002c 03B0     		add	sp, sp, #12
  76 002e 30BD     		pop	{r4, r5, pc}
  77              		.cfi_endproc
  78              	.LFE73:
  79              		.size	_ZN15LocalSubscriberC2EPKcjPhPP11BaseMessagemPFvS4_E, .-_ZN15LocalSubscriberC2EPKcjPhPP11Bas
  80              		.section	.text._ZN15LocalSubscriber4nextEv,"ax",%progbits
  81              		.align	2
  82              		.p2align 4,,15
  83              		.global	_ZN15LocalSubscriber4nextEv
  84              		.thumb
  85              		.thumb_func
  86              		.type	_ZN15LocalSubscriber4nextEv, %function
  87              	_ZN15LocalSubscriber4nextEv:
  88              	.LFB75:
  89              		.loc 1 18 0
  90              		.cfi_startproc
  91              		@ args = 0, pretend = 0, frame = 0
  92              		@ frame_needed = 0, uses_anonymous_args = 0
  93              		@ link register save eliminated.
  94              	.LVL2:
  95              		.loc 1 19 0
  96 0000 806A     		ldr	r0, [r0, #40]
  97              	.LVL3:
  98              		.loc 1 20 0
  99 0002 7047     		bx	lr
 100              		.cfi_endproc
 101              	.LFE75:
 102              		.size	_ZN15LocalSubscriber4nextEv, .-_ZN15LocalSubscriber4nextEv
 103 0004 AFF30080 		.section	.text._ZN15LocalSubscriber4nextEPS_,"ax",%progbits
 103      AFF30080 
 103      AFF30080 
 104              		.align	2
 105              		.p2align 4,,15
 106              		.global	_ZN15LocalSubscriber4nextEPS_
 107              		.thumb
 108              		.thumb_func
 109              		.type	_ZN15LocalSubscriber4nextEPS_, %function
 110              	_ZN15LocalSubscriber4nextEPS_:
 111              	.LFB76:
 112              		.loc 1 22 0
ARM GAS  /tmp/ccboNQdc.s 			page 3


 113              		.cfi_startproc
 114              		@ args = 0, pretend = 0, frame = 0
 115              		@ frame_needed = 0, uses_anonymous_args = 0
 116              		@ link register save eliminated.
 117              	.LVL4:
 118              		.loc 1 23 0
 119 0000 8162     		str	r1, [r0, #40]
 120              		.loc 1 24 0
 121 0002 7047     		bx	lr
 122              		.cfi_endproc
 123              	.LFE76:
 124              		.size	_ZN15LocalSubscriber4nextEPS_, .-_ZN15LocalSubscriber4nextEPS_
 125 0004 AFF30080 		.section	.text._ZN15LocalSubscriber4linkEPS_,"ax",%progbits
 125      AFF30080 
 125      AFF30080 
 126              		.align	2
 127              		.p2align 4,,15
 128              		.global	_ZN15LocalSubscriber4linkEPS_
 129              		.thumb
 130              		.thumb_func
 131              		.type	_ZN15LocalSubscriber4linkEPS_, %function
 132              	_ZN15LocalSubscriber4linkEPS_:
 133              	.LFB77:
 134              		.loc 1 26 0
 135              		.cfi_startproc
 136              		@ args = 0, pretend = 0, frame = 0
 137              		@ frame_needed = 0, uses_anonymous_args = 0
 138              		@ link register save eliminated.
 139              	.LVL5:
 140              		.loc 1 27 0
 141 0000 C162     		str	r1, [r0, #44]
 142              		.loc 1 28 0
 143 0002 7047     		bx	lr
 144              		.cfi_endproc
 145              	.LFE77:
 146              		.size	_ZN15LocalSubscriber4linkEPS_, .-_ZN15LocalSubscriber4linkEPS_
 147 0004 AFF30080 		.section	.text._ZN15LocalSubscriber6notifyEP11BaseMessageRi,"ax",%progbits
 147      AFF30080 
 147      AFF30080 
 148              		.align	2
 149              		.p2align 4,,15
 150              		.global	_ZN15LocalSubscriber6notifyEP11BaseMessageRi
 151              		.thumb
 152              		.thumb_func
 153              		.type	_ZN15LocalSubscriber6notifyEP11BaseMessageRi, %function
 154              	_ZN15LocalSubscriber6notifyEP11BaseMessageRi:
 155              	.LFB78:
 156              		.loc 1 31 0
 157              		.cfi_startproc
 158              		@ args = 0, pretend = 0, frame = 0
 159              		@ frame_needed = 0, uses_anonymous_args = 0
 160              	.LVL6:
 161 0000 70B5     		push	{r4, r5, r6, lr}
 162              	.LCFI2:
 163              		.cfi_def_cfa_offset 16
 164              		.cfi_offset 14, -4
 165              		.cfi_offset 6, -8
ARM GAS  /tmp/ccboNQdc.s 			page 4


 166              		.cfi_offset 5, -12
 167              		.cfi_offset 4, -16
 168              		.loc 1 31 0
 169 0002 0446     		mov	r4, r0
 170              		.loc 1 33 0
 171 0004 00F10C00 		add	r0, r0, #12
 172              	.LVL7:
 173              		.loc 1 31 0
 174 0008 0D46     		mov	r5, r1
 175 000a 1646     		mov	r6, r2
 176              		.loc 1 33 0
 177 000c FFF7FEFF 		bl	_ZN12MessageQueue4putIEP11BaseMessage
 178              	.LVL8:
 179 0010 48B1     		cbz	r0, .L7
 180              		.loc 1 34 0
 181 0012 2846     		mov	r0, r5
 182 0014 FFF7FEFF 		bl	_ZN11BaseMessage9referenceEv
 183              		.loc 1 35 0
 184 0018 206B     		ldr	r0, [r4, #48]
 185 001a 616B     		ldr	r1, [r4, #52]
 186 001c FFF7FEFF 		bl	chEvtSignalI
 187              		.loc 1 36 0
 188 0020 3068     		ldr	r0, [r6, #0]
 189 0022 431C     		adds	r3, r0, #1
 190 0024 3360     		str	r3, [r6, #0]
 191              	.L7:
 192              		.loc 1 38 0
 193 0026 E06A     		ldr	r0, [r4, #44]
 194              		.loc 1 39 0
 195 0028 70BD     		pop	{r4, r5, r6, pc}
 196              		.cfi_endproc
 197              	.LFE78:
 198              		.size	_ZN15LocalSubscriber6notifyEP11BaseMessageRi, .-_ZN15LocalSubscriber6notifyEP11BaseMessageRi
 199 002a 00BFAFF3 		.section	.text._ZN15LocalSubscriber6notifyEP11BaseMessage,"ax",%progbits
 199      0080
 200              		.align	2
 201              		.p2align 4,,15
 202              		.global	_ZN15LocalSubscriber6notifyEP11BaseMessage
 203              		.thumb
 204              		.thumb_func
 205              		.type	_ZN15LocalSubscriber6notifyEP11BaseMessage, %function
 206              	_ZN15LocalSubscriber6notifyEP11BaseMessage:
 207              	.LFB79:
 208              		.loc 1 42 0
 209              		.cfi_startproc
 210              		@ args = 0, pretend = 0, frame = 0
 211              		@ frame_needed = 0, uses_anonymous_args = 0
 212              	.LVL9:
 213 0000 38B5     		push	{r3, r4, r5, lr}
 214              	.LCFI3:
 215              		.cfi_def_cfa_offset 16
 216              		.cfi_offset 14, -4
 217              		.cfi_offset 5, -8
 218              		.cfi_offset 4, -12
 219              		.cfi_offset 3, -16
 220              		.loc 1 42 0
 221 0002 0446     		mov	r4, r0
ARM GAS  /tmp/ccboNQdc.s 			page 5


 222              	.LVL10:
 223              	.LBB7:
 224              	.LBB8:
 225              	.LBB9:
 226              		.loc 1 33 0
 227 0004 00F10C00 		add	r0, r0, #12
 228              	.LVL11:
 229              	.LBE9:
 230              	.LBE8:
 231              	.LBE7:
 232              		.loc 1 42 0
 233 0008 0D46     		mov	r5, r1
 234              	.LVL12:
 235              	.LBB12:
 236              	.LBB11:
 237              	.LBB10:
 238              		.loc 1 33 0
 239 000a FFF7FEFF 		bl	_ZN12MessageQueue4putIEP11BaseMessage
 240              	.LVL13:
 241 000e 30B1     		cbz	r0, .L10
 242              		.loc 1 34 0
 243 0010 2846     		mov	r0, r5
 244 0012 FFF7FEFF 		bl	_ZN11BaseMessage9referenceEv
 245              		.loc 1 35 0
 246 0016 616B     		ldr	r1, [r4, #52]
 247 0018 206B     		ldr	r0, [r4, #48]
 248 001a FFF7FEFF 		bl	chEvtSignalI
 249              	.LVL14:
 250              	.L10:
 251              	.LBE10:
 252              	.LBE11:
 253              		.loc 1 44 0
 254 001e E06A     		ldr	r0, [r4, #44]
 255              	.LBE12:
 256              		.loc 1 45 0
 257 0020 38BD     		pop	{r3, r4, r5, pc}
 258              		.cfi_endproc
 259              	.LFE79:
 260              		.size	_ZN15LocalSubscriber6notifyEP11BaseMessage, .-_ZN15LocalSubscriber6notifyEP11BaseMessage
 261 0022 00BFAFF3 		.section	.text._ZN15LocalSubscriber9subscribeEP14LocalPublisherm,"ax",%progbits
 261      0080AFF3 
 261      0080AFF3 
 261      0080
 262              		.align	2
 263              		.p2align 4,,15
 264              		.global	_ZN15LocalSubscriber9subscribeEP14LocalPublisherm
 265              		.thumb
 266              		.thumb_func
 267              		.type	_ZN15LocalSubscriber9subscribeEP14LocalPublisherm, %function
 268              	_ZN15LocalSubscriber9subscribeEP14LocalPublisherm:
 269              	.LFB80:
 270              		.loc 1 47 0
 271              		.cfi_startproc
 272              		@ args = 0, pretend = 0, frame = 0
 273              		@ frame_needed = 0, uses_anonymous_args = 0
 274              	.LVL15:
 275 0000 70B5     		push	{r4, r5, r6, lr}
ARM GAS  /tmp/ccboNQdc.s 			page 6


 276              	.LCFI4:
 277              		.cfi_def_cfa_offset 16
 278              		.cfi_offset 14, -4
 279              		.cfi_offset 6, -8
 280              		.cfi_offset 5, -12
 281              		.cfi_offset 4, -16
 282 0002 0446     		mov	r4, r0
 283 0004 82B0     		sub	sp, sp, #8
 284              	.LCFI5:
 285              		.cfi_def_cfa_offset 24
 286              		.loc 1 49 0
 287 0006 A160     		str	r1, [r4, #8]
 288              		.loc 1 50 0
 289 0008 6263     		str	r2, [r4, #52]
 290              		.loc 1 51 0
 291 000a 00F10C00 		add	r0, r0, #12
 292              	.LVL16:
 293              		.loc 1 47 0
 294 000e 0D46     		mov	r5, r1
 295              		.loc 1 51 0
 296 0010 266A     		ldr	r6, [r4, #32]
 297 0012 FFF7FEFF 		bl	_ZN12MessageQueue5sizeIEv
 298              	.LVL17:
 299 0016 04F12402 		add	r2, r4, #36
 300 001a 0346     		mov	r3, r0
 301 001c 0092     		str	r2, [sp, #0]
 302 001e 2846     		mov	r0, r5
 303 0020 2146     		mov	r1, r4
 304 0022 3246     		mov	r2, r6
 305 0024 FFF7FEFF 		bl	_ZN14LocalPublisher9subscribeEP15LocalSubscriberPvjPm
 306              		.loc 1 52 0
 307 0028 02B0     		add	sp, sp, #8
 308 002a 70BD     		pop	{r4, r5, r6, pc}
 309              		.cfi_endproc
 310              	.LFE80:
 311              		.size	_ZN15LocalSubscriber9subscribeEP14LocalPublisherm, .-_ZN15LocalSubscriber9subscribeEP14Local
 312 002c AFF30080 		.section	.text._ZN15LocalSubscriber9subscribeEP15RemotePublisherm,"ax",%progbits
 313              		.align	2
 314              		.p2align 4,,15
 315              		.global	_ZN15LocalSubscriber9subscribeEP15RemotePublisherm
 316              		.thumb
 317              		.thumb_func
 318              		.type	_ZN15LocalSubscriber9subscribeEP15RemotePublisherm, %function
 319              	_ZN15LocalSubscriber9subscribeEP15RemotePublisherm:
 320              	.LFB81:
 321              		.loc 1 54 0
 322              		.cfi_startproc
 323              		@ args = 0, pretend = 0, frame = 0
 324              		@ frame_needed = 0, uses_anonymous_args = 0
 325              	.LVL18:
 326 0000 70B5     		push	{r4, r5, r6, lr}
 327              	.LCFI6:
 328              		.cfi_def_cfa_offset 16
 329              		.cfi_offset 14, -4
 330              		.cfi_offset 6, -8
 331              		.cfi_offset 5, -12
 332              		.cfi_offset 4, -16
ARM GAS  /tmp/ccboNQdc.s 			page 7


 333 0002 0446     		mov	r4, r0
 334 0004 82B0     		sub	sp, sp, #8
 335              	.LCFI7:
 336              		.cfi_def_cfa_offset 24
 337              		.loc 1 56 0
 338 0006 A160     		str	r1, [r4, #8]
 339              		.loc 1 57 0
 340 0008 6263     		str	r2, [r4, #52]
 341              		.loc 1 58 0
 342 000a 00F10C00 		add	r0, r0, #12
 343              	.LVL19:
 344              		.loc 1 54 0
 345 000e 0D46     		mov	r5, r1
 346              		.loc 1 58 0
 347 0010 266A     		ldr	r6, [r4, #32]
 348 0012 FFF7FEFF 		bl	_ZN12MessageQueue5sizeIEv
 349              	.LVL20:
 350 0016 04F12402 		add	r2, r4, #36
 351 001a 0346     		mov	r3, r0
 352 001c 0092     		str	r2, [sp, #0]
 353 001e 2846     		mov	r0, r5
 354 0020 2146     		mov	r1, r4
 355 0022 3246     		mov	r2, r6
 356 0024 FFF7FEFF 		bl	_ZN15RemotePublisher9subscribeEP15LocalSubscriberPvjPm
 357              		.loc 1 59 0
 358 0028 02B0     		add	sp, sp, #8
 359 002a 70BD     		pop	{r4, r5, r6, pc}
 360              		.cfi_endproc
 361              	.LFE81:
 362              		.size	_ZN15LocalSubscriber9subscribeEP15RemotePublisherm, .-_ZN15LocalSubscriber9subscribeEP15Remo
 363 002c AFF30080 		.section	.text._ZN15LocalSubscriber11unsubscribeEv,"ax",%progbits
 364              		.align	2
 365              		.p2align 4,,15
 366              		.global	_ZN15LocalSubscriber11unsubscribeEv
 367              		.thumb
 368              		.thumb_func
 369              		.type	_ZN15LocalSubscriber11unsubscribeEv, %function
 370              	_ZN15LocalSubscriber11unsubscribeEv:
 371              	.LFB82:
 372              		.loc 1 61 0
 373              		.cfi_startproc
 374              		@ args = 0, pretend = 0, frame = 0
 375              		@ frame_needed = 0, uses_anonymous_args = 0
 376              		@ link register save eliminated.
 377              	.LVL21:
 378              		.loc 1 61 0
 379 0000 0146     		mov	r1, r0
 380              		.loc 1 63 0
 381 0002 8068     		ldr	r0, [r0, #8]
 382              	.LVL22:
 383              		.loc 1 64 0
 384              		.loc 1 63 0
 385 0004 FFF7FEBF 		b	_ZN13BasePublisher11unsubscribeEP15LocalSubscriber
 386              	.LVL23:
 387              		.cfi_endproc
 388              	.LFE82:
 389              		.size	_ZN15LocalSubscriber11unsubscribeEv, .-_ZN15LocalSubscriber11unsubscribeEv
ARM GAS  /tmp/ccboNQdc.s 			page 8


 390 0008 AFF30080 		.section	.text._ZN15LocalSubscriber8callbackEv,"ax",%progbits
 390      AFF30080 
 391              		.align	2
 392              		.p2align 4,,15
 393              		.global	_ZN15LocalSubscriber8callbackEv
 394              		.thumb
 395              		.thumb_func
 396              		.type	_ZN15LocalSubscriber8callbackEv, %function
 397              	_ZN15LocalSubscriber8callbackEv:
 398              	.LFB83:
 399              		.loc 1 66 0
 400              		.cfi_startproc
 401              		@ args = 0, pretend = 0, frame = 0
 402              		@ frame_needed = 0, uses_anonymous_args = 0
 403              		@ link register save eliminated.
 404              	.LVL24:
 405              		.loc 1 67 0
 406 0000 806B     		ldr	r0, [r0, #56]
 407              	.LVL25:
 408              		.loc 1 68 0
 409 0002 7047     		bx	lr
 410              		.cfi_endproc
 411              	.LFE83:
 412              		.size	_ZN15LocalSubscriber8callbackEv, .-_ZN15LocalSubscriber8callbackEv
 413 0004 AFF30080 		.section	.text._ZN15LocalSubscriber8callbackEP11BaseMessage,"ax",%progbits
 413      AFF30080 
 413      AFF30080 
 414              		.align	2
 415              		.p2align 4,,15
 416              		.global	_ZN15LocalSubscriber8callbackEP11BaseMessage
 417              		.thumb
 418              		.thumb_func
 419              		.type	_ZN15LocalSubscriber8callbackEP11BaseMessage, %function
 420              	_ZN15LocalSubscriber8callbackEP11BaseMessage:
 421              	.LFB84:
 422              		.loc 1 70 0
 423              		.cfi_startproc
 424              		@ args = 0, pretend = 0, frame = 0
 425              		@ frame_needed = 0, uses_anonymous_args = 0
 426              	.LVL26:
 427 0000 08B5     		push	{r3, lr}
 428              	.LCFI8:
 429              		.cfi_def_cfa_offset 8
 430              		.cfi_offset 14, -4
 431              		.cfi_offset 3, -8
 432              		.loc 1 71 0
 433 0002 836B     		ldr	r3, [r0, #56]
 434 0004 0846     		mov	r0, r1
 435              	.LVL27:
 436 0006 9847     		blx	r3
 437              	.LVL28:
 438              		.loc 1 72 0
 439 0008 08BD     		pop	{r3, pc}
 440              		.cfi_endproc
 441              	.LFE84:
 442              		.size	_ZN15LocalSubscriber8callbackEP11BaseMessage, .-_ZN15LocalSubscriber8callbackEP11BaseMessage
 443              		.global	_ZN15LocalSubscriberC1EPKcjPhPP11BaseMessagemPFvS4_E
ARM GAS  /tmp/ccboNQdc.s 			page 9


 444              		.thumb_set _ZN15LocalSubscriberC1EPKcjPhPP11BaseMessagemPFvS4_E,_ZN15LocalSubscriberC2EPKcjPhPP11B
 445 000a 00BFAFF3 		.text
 445      0080
 446              	.Letext0:
 447              		.file 2 "/home/tino/ChibiStudio/tools/GNU Tools ARM Embedded/4.6 2012q2/bin/../lib/gcc/arm-none-ea
 448              		.file 3 "/home/tino/ChibiStudio/tools/GNU Tools ARM Embedded/4.6 2012q2/bin/../lib/gcc/arm-none-ea
 449              		.file 4 "../../ChibiOS/os/ports/GCC/ARMCMx/chtypes.h"
 450              		.file 5 "../../ChibiOS/os/kernel/include/chlists.h"
 451              		.file 6 "../../ChibiOS/os/kernel/include/chthreads.h"
 452              		.file 7 "../../ChibiOS/os/ports/GCC/ARMCMx/chcore_v7m.h"
 453              		.file 8 "../../ChibiOS/os/kernel/include/chschd.h"
 454              		.file 9 "../../ChibiOS/os/kernel/include/chmtx.h"
 455              		.file 10 "../../ChibiOS/os/kernel/include/chmemcore.h"
 456              		.file 11 "../../ChibiOS/os/kernel/include/chmempools.h"
 457              		.file 12 "../../Middleware/BaseMessage.hpp"
 458              		.file 13 "../../Middleware/MessageQueue.hpp"
 459              		.file 14 "../../Middleware/BasePublisher.hpp"
 460              		.file 15 "../../Middleware/LocalSubscriber.hpp"
 461              		.file 16 "../../Middleware/BaseSubscriber.hpp"
 462              		.file 17 "../../Middleware/LocalPublisher.hpp"
 463              		.file 18 "../../RTCAN/include/rtcan.h"
 464              		.file 19 "../../Middleware/RemotePublisher.hpp"
 465              		.file 20 "../../ChibiOS/os/ports/common/ARMCMx/CMSIS/include/core_cm3.h"
 466              		.file 21 "../../ChibiOS/os/various/cpp_wrappers/ch.hpp"