ARM GAS  /tmp/ccboNQdc.s 			page 1


   1              		.syntax unified
   2              		.cpu cortex-m3
   3              		.fpu softvfp
   4              		.eabi_attribute 20, 1
   5              		.eabi_attribute 21, 1
   6              		.eabi_attribute 23, 3
   7              		.eabi_attribute 24, 1
   8              		.eabi_attribute 25, 1
   9              		.eabi_attribute 26, 1
  10              		.eabi_attribute 30, 2
  11              		.eabi_attribute 34, 1
  12              		.eabi_attribute 18, 4
  13              		.thumb
  14              		.file	"LocalSubscriber.cpp"
  15              		.text
  16              	.Ltext0:
  17              		.cfi_sections	.debug_frame
  18              		.section	.text._ZN15LocalSubscriberC2EPKcjPhPP11BaseMessagemPFvS4_E,"ax",%progbits
  19              		.align	2
  20              		.p2align 4,,15
  21              		.global	_ZN15LocalSubscriberC2EPKcjPhPP11BaseMessagemPFvS4_E
  22              		.thumb
  23              		.thumb_func
  24              		.type	_ZN15LocalSubscriberC2EPKcjPhPP11BaseMessagemPFvS4_E, %function
  25              	_ZN15LocalSubscriberC2EPKcjPhPP11BaseMessagemPFvS4_E:
  26              	.LFB73:
  27              		.file 1 "../../Middleware/LocalSubscriber.cpp"
  28              		.loc 1 7 0
  29              		.cfi_startproc
  30              		@ args = 12, pretend = 0, frame = 0
  31              		@ frame_needed = 0, uses_anonymous_args = 0
  32              	.LVL0:
  33 0000 30B5     		push	{r4, r5, lr}
  34              	.LCFI0:
  35              		.cfi_def_cfa_offset 12
  36              		.cfi_offset 14, -4
  37              		.cfi_offset 5, -8
  38              		.cfi_offset 4, -12
  39 0002 83B0     		sub	sp, sp, #12
  40              	.LCFI1:
  41              		.cfi_def_cfa_offset 24
  42              	.LBB2:
  43              		.loc 1 9 0
  44 0004 069D     		ldr	r5, [sp, #24]
  45              	.LBE2:
  46              		.loc 1 7 0
  47 0006 0446     		mov	r4, r0
  48              	.LBB3:
  49              		.loc 1 9 0
  50 0008 0095     		str	r5, [sp, #0]
  51 000a 079D     		ldr	r5, [sp, #28]
  52 000c 0195     		str	r5, [sp, #4]
  53 000e FFF7FEFF 		bl	_ZN14BaseSubscriberC2EPKcjPhPP11BaseMessagem
  54              	.LVL1:
  55              		.loc 1 12 0
  56 0012 40F20001 		movw	r1, #:lower16:rlist
  57 0016 C0F20001 		movt	r1, #:upper16:rlist
ARM GAS  /tmp/ccboNQdc.s 			page 2


  58 001a 8A69     		ldr	r2, [r1, #24]
  59              		.loc 1 15 0
  60 001c 089B     		ldr	r3, [sp, #32]
  61              		.loc 1 11 0
  62 001e 0020     		movs	r0, #0
  63 0020 A062     		str	r0, [r4, #40]
  64              		.loc 1 13 0
  65 0022 6063     		str	r0, [r4, #52]
  66              		.loc 1 14 0
  67 0024 E062     		str	r0, [r4, #44]
  68              		.loc 1 12 0
  69 0026 2263     		str	r2, [r4, #48]
  70              		.loc 1 15 0
  71 0028 A363     		str	r3, [r4, #56]
  72              	.LBE3:
  73              		.loc 1 16 0
  74 002a 2046     		mov	r0, r4
  75 002c 03B0     		add	sp, sp, #12
  76 002e 30BD     		pop	{r4, r5, pc}
  77              		.cfi_endproc
  78              	.LFE73:
  79              		.size	_ZN15LocalSubscriberC2EPKcjPhPP11BaseMessagemPFvS4_E, .-_ZN15LocalSubscriberC2EPKcjPhPP11Bas
  80              		.section	.text._ZN15LocalSubscriber4nextEv,"ax",%progbits
  81              		.align	2
  82              		.p2align 4,,15
  83              		.global	_ZN15LocalSubscriber4nextEv
  84              		.thumb
  85              		.thumb_func
  86              		.type	_ZN15LocalSubscriber4nextEv, %function
  87              	_ZN15LocalSubscriber4nextEv:
  88              	.LFB75:
  89              		.loc 1 18 0
  90              		.cfi_startproc
  91              		@ args = 0, pretend = 0, frame = 0
  92              		@ frame_needed = 0, uses_anonymous_args = 0
  93              		@ link register save eliminated.
  94              	.LVL2:
  95              		.loc 1 19 0
  96 0000 806A     		ldr	r0, [r0, #40]
  97              	.LVL3:
  98              		.loc 1 20 0
  99 0002 7047     		bx	lr
 100              		.cfi_endproc
 101              	.LFE75:
 102              		.size	_ZN15LocalSubscriber4nextEv, .-_ZN15LocalSubscriber4nextEv
 103 0004 AFF30080 		.section	.text._ZN15LocalSubscriber4nextEPS_,"ax",%progbits
 103      AFF30080 
 103      AFF30080 
 104              		.align	2
 105              		.p2align 4,,15
 106              		.global	_ZN15LocalSubscriber4nextEPS_
 107              		.thumb
 108              		.thumb_func
 109              		.type	_ZN15LocalSubscriber4nextEPS_, %function
 110              	_ZN15LocalSubscriber4nextEPS_:
 111              	.LFB76:
 112              		.loc 1 22 0
ARM GAS  /tmp/ccboNQdc.s 			page 3


 113              		.cfi_startproc
 114              		@ args = 0, pretend = 0, frame = 0
 115              		@ frame_needed = 0, uses_anonymous_args = 0
 116              		@ link register save eliminated.
 117              	.LVL4:
 118              		.loc 1 23 0
 119 0000 8162     		str	r1, [r0, #40]
 120              		.loc 1 24 0
 121 0002 7047     		bx	lr
 122              		.cfi_endproc
 123              	.LFE76:
 124              		.size	_ZN15LocalSubscriber4nextEPS_, .-_ZN15LocalSubscriber4nextEPS_
 125 0004 AFF30080 		.section	.text._ZN15LocalSubscriber4linkEPS_,"ax",%progbits
 125      AFF30080 
 125      AFF30080 
 126              		.align	2
 127              		.p2align 4,,15
 128              		.global	_ZN15LocalSubscriber4linkEPS_
 129              		.thumb
 130              		.thumb_func
 131              		.type	_ZN15LocalSubscriber4linkEPS_, %function
 132              	_ZN15LocalSubscriber4linkEPS_:
 133              	.LFB77:
 134              		.loc 1 26 0
 135              		.cfi_startproc
 136              		@ args = 0, pretend = 0, frame = 0
 137              		@ frame_needed = 0, uses_anonymous_args = 0
 138              		@ link register save eliminated.
 139              	.LVL5:
 140              		.loc 1 27 0
 141 0000 C162     		str	r1, [r0, #44]
 142              		.loc 1 28 0
 143 0002 7047     		bx	lr
 144              		.cfi_endproc
 145              	.LFE77:
 146              		.size	_ZN15LocalSubscriber4linkEPS_, .-_ZN15LocalSubscriber4linkEPS_
 147 0004 AFF30080 		.section	.text._ZN15LocalSubscriber6notifyEP11BaseMessageRi,"ax",%progbits
 147      AFF30080 
 147      AFF30080 
 148              		.align	2
 149              		.p2align 4,,15
 150              		.global	_ZN15LocalSubscriber6notifyEP11BaseMessageRi
 151              		.thumb
 152              		.thumb_func
 153              		.type	_ZN15LocalSubscriber6notifyEP11BaseMessageRi, %function
 154              	_ZN15LocalSubscriber6notifyEP11BaseMessageRi:
 155              	.LFB78:
 156              		.loc 1 31 0
 157              		.cfi_startproc
 158              		@ args = 0, pretend = 0, frame = 0
 159              		@ frame_needed = 0, uses_anonymous_args = 0
 160              	.LVL6:
 161 0000 70B5     		push	{r4, r5, r6, lr}
 162              	.LCFI2:
 163              		.cfi_def_cfa_offset 16
 164              		.cfi_offset 14, -4
 165              		.cfi_offset 6, -8
ARM GAS  /tmp/ccboNQdc.s 			page 4


 166              		.cfi_offset 5, -12
 167              		.cfi_offset 4, -16
 168              		.loc 1 31 0
 169 0002 0446     		mov	r4, r0
 170              		.loc 1 33 0
 171 0004 00F10C00 		add	r0, r0, #12
 172              	.LVL7:
 173              		.loc 1 31 0
 174 0008 0D46     		mov	r5, r1
 175 000a 1646     		mov	r6, r2
 176              		.loc 1 33 0
 177 000c FFF7FEFF 		bl	_ZN12MessageQueue4putIEP11BaseMessage
 178              	.LVL8:
 179 0010 48B1     		cbz	r0, .L7
 180              		.loc 1 34 0
 181 0012 2846     		mov	r0, r5
 182 0014 FFF7FEFF 		bl	_ZN11BaseMessage9referenceEv
 183              		.loc 1 35 0
 184 0018 206B     		ldr	r0, [r4, #48]
 185 001a 616B     		ldr	r1, [r4, #52]
 186 001c FFF7FEFF 		bl	chEvtSignalI
 187              		.loc 1 36 0
 188 0020 3068     		ldr	r0, [r6, #0]
 189 0022 431C     		adds	r3, r0, #1
 190 0024 3360     		str	r3, [r6, #0]
 191              	.L7:
 192              		.loc 1 38 0
 193 0026 E06A     		ldr	r0, [r4, #44]
 194              		.loc 1 39 0
 195 0028 70BD     		pop	{r4, r5, r6, pc}
 196              		.cfi_endproc
 197              	.LFE78:
 198              		.size	_ZN15LocalSubscriber6notifyEP11BaseMessageRi, .-_ZN15LocalSubscriber6notifyEP11BaseMessageRi
 199 002a 00BFAFF3 		.section	.text._ZN15LocalSubscriber6notifyEP11BaseMessage,"ax",%progbits
 199      0080
 200              		.align	2
 201              		.p2align 4,,15
 202              		.global	_ZN15LocalSubscriber6notifyEP11BaseMessage
 203              		.thumb
 204              		.thumb_func
 205              		.type	_ZN15LocalSubscriber6notifyEP11BaseMessage, %function
 206              	_ZN15LocalSubscriber6notifyEP11BaseMessage:
 207              	.LFB79:
 208              		.loc 1 42 0
 209              		.cfi_startproc
 210              		@ args = 0, pretend = 0, frame = 0
 211              		@ frame_needed = 0, uses_anonymous_args = 0
 212              	.LVL9:
 213 0000 38B5     		push	{r3, r4, r5, lr}
 214              	.LCFI3:
 215              		.cfi_def_cfa_offset 16
 216              		.cfi_offset 14, -4
 217              		.cfi_offset 5, -8
 218              		.cfi_offset 4, -12
 219              		.cfi_offset 3, -16
 220              		.loc 1 42 0
 221 0002 0446     		mov	r4, r0
ARM GAS  /tmp/ccboNQdc.s 			page 5


 222              	.LVL10:
 223              	.LBB7:
 224              	.LBB8:
 225              	.LBB9:
 226              		.loc 1 33 0
 227 0004 00F10C00 		add	r0, r0, #12
 228              	.LVL11:
 229              	.LBE9:
 230              	.LBE8:
 231              	.LBE7:
 232              		.loc 1 42 0
 233 0008 0D46     		mov	r5, r1
 234              	.LVL12:
 235              	.LBB12:
 236              	.LBB11:
 237              	.LBB10:
 238              		.loc 1 33 0
 239 000a FFF7FEFF 		bl	_ZN12MessageQueue4putIEP11BaseMessage
 240              	.LVL13:
 241 000e 30B1     		cbz	r0, .L10
 242              		.loc 1 34 0
 243 0010 2846     		mov	r0, r5
 244 0012 FFF7FEFF 		bl	_ZN11BaseMessage9referenceEv
 245              		.loc 1 35 0
 246 0016 616B     		ldr	r1, [r4, #52]
 247 0018 206B     		ldr	r0, [r4, #48]
 248 001a FFF7FEFF 		bl	chEvtSignalI
 249              	.LVL14:
 250              	.L10:
 251              	.LBE10:
 252              	.LBE11:
 253              		.loc 1 44 0
 254 001e E06A     		ldr	r0, [r4, #44]
 255              	.LBE12:
 256              		.loc 1 45 0
 257 0020 38BD     		pop	{r3, r4, r5, pc}
 258              		.cfi_endproc
 259              	.LFE79:
 260              		.size	_ZN15LocalSubscriber6notifyEP11BaseMessage, .-_ZN15LocalSubscriber6notifyEP11BaseMessage
 261 0022 00BFAFF3 		.section	.text._ZN15LocalSubscriber9subscribeEP14LocalPublisherm,"ax",%progbits
 261      0080AFF3 
 261      0080AFF3 
 261      0080
 262              		.align	2
 263              		.p2align 4,,15
 264              		.global	_ZN15LocalSubscriber9subscribeEP14LocalPublisherm
 265              		.thumb
 266              		.thumb_func
 267              		.type	_ZN15LocalSubscriber9subscribeEP14LocalPublisherm, %function
 268              	_ZN15LocalSubscriber9subscribeEP14LocalPublisherm:
 269              	.LFB80:
 270              		.loc 1 47 0
 271              		.cfi_startproc
 272              		@ args = 0, pretend = 0, frame = 0
 273              		@ frame_needed = 0, uses_anonymous_args = 0
 274              	.LVL15:
 275 0000 70B5     		push	{r4, r5, r6, lr}
ARM GAS  /tmp/ccboNQdc.s 			page 6


 276              	.LCFI4:
 277              		.cfi_def_cfa_offset 16
 278              		.cfi_offset 14, -4
 279              		.cfi_offset 6, -8
 280              		.cfi_offset 5, -12
 281              		.cfi_offset 4, -16
 282 0002 0446     		mov	r4, r0
 283 0004 82B0     		sub	sp, sp, #8
 284              	.LCFI5:
 285              		.cfi_def_cfa_offset 24
 286              		.loc 1 49 0
 287 0006 A160     		str	r1, [r4, #8]
 288              		.loc 1 50 0
 289 0008 6263     		str	r2, [r4, #52]
 290              		.loc 1 51 0
 291 000a 00F10C00 		add	r0, r0, #12
 292              	.LVL16:
 293              		.loc 1 47 0
 294 000e 0D46     		mov	r5, r1
 295              		.loc 1 51 0
 296 0010 266A     		ldr	r6, [r4, #32]
 297 0012 FFF7FEFF 		bl	_ZN12MessageQueue5sizeIEv
 298              	.LVL17:
 299 0016 04F12402 		add	r2, r4, #36
 300 001a 0346     		mov	r3, r0
 301 001c 0092     		str	r2, [sp, #0]
 302 001e 2846     		mov	r0, r5
 303 0020 2146     		mov	r1, r4
 304 0022 3246     		mov	r2, r6
 305 0024 FFF7FEFF 		bl	_ZN14LocalPublisher9subscribeEP15LocalSubscriberPvjPm
 306              		.loc 1 52 0
 307 0028 02B0     		add	sp, sp, #8
 308 002a 70BD     		pop	{r4, r5, r6, pc}
 309              		.cfi_endproc
 310              	.LFE80:
 311              		.size	_ZN15LocalSubscriber9subscribeEP14LocalPublisherm, .-_ZN15LocalSubscriber9subscribeEP14Local
 312 002c AFF30080 		.section	.text._ZN15LocalSubscriber9subscribeEP15RemotePublisherm,"ax",%progbits
 313              		.align	2
 314              		.p2align 4,,15
 315              		.global	_ZN15LocalSubscriber9subscribeEP15RemotePublisherm
 316              		.thumb
 317              		.thumb_func
 318              		.type	_ZN15LocalSubscriber9subscribeEP15RemotePublisherm, %function
 319              	_ZN15LocalSubscriber9subscribeEP15RemotePublisherm:
 320              	.LFB81:
 321              		.loc 1 54 0
 322              		.cfi_startproc
 323              		@ args = 0, pretend = 0, frame = 0
 324              		@ frame_needed = 0, uses_anonymous_args = 0
 325              	.LVL18:
 326 0000 70B5     		push	{r4, r5, r6, lr}
 327              	.LCFI6:
 328              		.cfi_def_cfa_offset 16
 329              		.cfi_offset 14, -4
 330              		.cfi_offset 6, -8
 331              		.cfi_offset 5, -12
 332              		.cfi_offset 4, -16
ARM GAS  /tmp/ccboNQdc.s 			page 7


 333 0002 0446     		mov	r4, r0
 334 0004 82B0     		sub	sp, sp, #8
 335              	.LCFI7:
 336              		.cfi_def_cfa_offset 24
 337              		.loc 1 56 0
 338 0006 A160     		str	r1, [r4, #8]
 339              		.loc 1 57 0
 340 0008 6263     		str	r2, [r4, #52]
 341              		.loc 1 58 0
 342 000a 00F10C00 		add	r0, r0, #12
 343              	.LVL19:
 344              		.loc 1 54 0
 345 000e 0D46     		mov	r5, r1
 346              		.loc 1 58 0
 347 0010 266A     		ldr	r6, [r4, #32]
 348 0012 FFF7FEFF 		bl	_ZN12MessageQueue5sizeIEv
 349              	.LVL20:
 350 0016 04F12402 		add	r2, r4, #36
 351 001a 0346     		mov	r3, r0
 352 001c 0092     		str	r2, [sp, #0]
 353 001e 2846     		mov	r0, r5
 354 0020 2146     		mov	r1, r4
 355 0022 3246     		mov	r2, r6
 356 0024 FFF7FEFF 		bl	_ZN15RemotePublisher9subscribeEP15LocalSubscriberPvjPm
 357              		.loc 1 59 0
 358 0028 02B0     		add	sp, sp, #8
 359 002a 70BD     		pop	{r4, r5, r6, pc}
 360              		.cfi_endproc
 361              	.LFE81:
 362              		.size	_ZN15LocalSubscriber9subscribeEP15RemotePublisherm, .-_ZN15LocalSubscriber9subscribeEP15Remo
 363 002c AFF30080 		.section	.text._ZN15LocalSubscriber11unsubscribeEv,"ax",%progbits
 364              		.align	2
 365              		.p2align 4,,15
 366              		.global	_ZN15LocalSubscriber11unsubscribeEv
 367              		.thumb
 368              		.thumb_func
 369              		.type	_ZN15LocalSubscriber11unsubscribeEv, %function
 370              	_ZN15LocalSubscriber11unsubscribeEv:
 371              	.LFB82:
 372              		.loc 1 61 0
 373              		.cfi_startproc
 374              		@ args = 0, pretend = 0, frame = 0
 375              		@ frame_needed = 0, uses_anonymous_args = 0
 376              		@ link register save eliminated.
 377              	.LVL21:
 378              		.loc 1 61 0
 379 0000 0146     		mov	r1, r0
 380              		.loc 1 63 0
 381 0002 8068     		ldr	r0, [r0, #8]
 382              	.LVL22:
 383              		.loc 1 64 0
 384              		.loc 1 63 0
 385 0004 FFF7FEBF 		b	_ZN13BasePublisher11unsubscribeEP15LocalSubscriber
 386              	.LVL23:
 387              		.cfi_endproc
 388              	.LFE82:
 389              		.size	_ZN15LocalSubscriber11unsubscribeEv, .-_ZN15LocalSubscriber11unsubscribeEv
ARM GAS  /tmp/ccboNQdc.s 			page 8


 390 0008 AFF30080 		.section	.text._ZN15LocalSubscriber8callbackEv,"ax",%progbits
 390      AFF30080 
 391              		.align	2
 392              		.p2align 4,,15
 393              		.global	_ZN15LocalSubscriber8callbackEv
 394              		.thumb
 395              		.thumb_func
 396              		.type	_ZN15LocalSubscriber8callbackEv, %function
 397              	_ZN15LocalSubscriber8callbackEv:
 398              	.LFB83:
 399              		.loc 1 66 0
 400              		.cfi_startproc
 401              		@ args = 0, pretend = 0, frame = 0
 402              		@ frame_needed = 0, uses_anonymous_args = 0
 403              		@ link register save eliminated.
 404              	.LVL24:
 405              		.loc 1 67 0
 406 0000 806B     		ldr	r0, [r0, #56]
 407              	.LVL25:
 408              		.loc 1 68 0
 409 0002 7047     		bx	lr
 410              		.cfi_endproc
 411              	.LFE83:
 412              		.size	_ZN15LocalSubscriber8callbackEv, .-_ZN15LocalSubscriber8callbackEv
 413 0004 AFF30080 		.section	.text._ZN15LocalSubscriber8callbackEP11BaseMessage,"ax",%progbits
 413      AFF30080 
 413      AFF30080 
 414              		.align	2
 415              		.p2align 4,,15
 416              		.global	_ZN15LocalSubscriber8callbackEP11BaseMessage
 417              		.thumb
 418              		.thumb_func
 419              		.type	_ZN15LocalSubscriber8callbackEP11BaseMessage, %function
 420              	_ZN15LocalSubscriber8callbackEP11BaseMessage:
 421              	.LFB84:
 422              		.loc 1 70 0
 423              		.cfi_startproc
 424              		@ args = 0, pretend = 0, frame = 0
 425              		@ frame_needed = 0, uses_anonymous_args = 0
 426              	.LVL26:
 427 0000 08B5     		push	{r3, lr}
 428              	.LCFI8:
 429              		.cfi_def_cfa_offset 8
 430              		.cfi_offset 14, -4
 431              		.cfi_offset 3, -8
 432              		.loc 1 71 0
 433 0002 836B     		ldr	r3, [r0, #56]
 434 0004 0846     		mov	r0, r1
 435              	.LVL27:
 436 0006 9847     		blx	r3
 437              	.LVL28:
 438              		.loc 1 72 0
 439 0008 08BD     		pop	{r3, pc}
 440              		.cfi_endproc
 441              	.LFE84:
 442              		.size	_ZN15LocalSubscriber8callbackEP11BaseMessage, .-_ZN15LocalSubscriber8callbackEP11BaseMessage
 443              		.global	_ZN15LocalSubscriberC1EPKcjPhPP11BaseMessagemPFvS4_E
ARM GAS  /tmp/ccboNQdc.s 			page 9


 444              		.thumb_set _ZN15LocalSubscriberC1EPKcjPhPP11BaseMessagemPFvS4_E,_ZN15LocalSubscriberC2EPKcjPhPP11B
 445 000a 00BFAFF3 		.text
 445      0080
 446              	.Letext0:
 447              		.file 2 "/home/tino/ChibiStudio/tools/GNU Tools ARM Embedded/4.6 2012q2/bin/../lib/gcc/arm-none-ea
 448              		.file 3 "/home/tino/ChibiStudio/tools/GNU Tools ARM Embedded/4.6 2012q2/bin/../lib/gcc/arm-none-ea
 449              		.file 4 "../../ChibiOS/os/ports/GCC/ARMCMx/chtypes.h"
 450              		.file 5 "../../ChibiOS/os/kernel/include/chlists.h"
 451              		.file 6 "../../ChibiOS/os/kernel/include/chthreads.h"
 452              		.file 7 "../../ChibiOS/os/ports/GCC/ARMCMx/chcore_v7m.h"
 453              		.file 8 "../../ChibiOS/os/kernel/include/chschd.h"
 454              		.file 9 "../../ChibiOS/os/kernel/include/chmtx.h"
 455              		.file 10 "../../ChibiOS/os/kernel/include/chmemcore.h"
 456              		.file 11 "../../ChibiOS/os/kernel/include/chmempools.h"
 457              		.file 12 "../../Middleware/BaseMessage.hpp"
 458              		.file 13 "../../Middleware/MessageQueue.hpp"
 459              		.file 14 "../../Middleware/BasePublisher.hpp"
 460              		.file 15 "../../Middleware/LocalSubscriber.hpp"
 461              		.file 16 "../../Middleware/BaseSubscriber.hpp"
 462              		.file 17 "../../Middleware/LocalPublisher.hpp"
 463              		.file 18 "../../RTCAN/include/rtcan.h"
 464              		.file 19 "../../Middleware/RemotePublisher.hpp"
 465              		.file 20 "../../ChibiOS/os/ports/common/ARMCMx/CMSIS/include/core_cm3.h"
 466              		.file 21 "../../ChibiOS/os/various/cpp_wrappers/ch.hpp"
 467              		.section	.debug_info,"",%progbits
 468              	.Ldebug_info0:
 469 0000 21130000 		.4byte	0x1321
 470 0004 0200     		.2byte	0x2
 471 0006 00000000 		.4byte	.Ldebug_abbrev0
 472 000a 04       		.byte	0x4
 473 000b 01       		.uleb128 0x1
 474 000c F4080000 		.4byte	.LASF196
 475 0010 04       		.byte	0x4
 476 0011 AD000000 		.4byte	.LASF197
 477 0015 A4020000 		.4byte	.LASF198
 478 0019 00000000 		.4byte	0
 479 001d 00000000 		.4byte	0
 480 0021 30000000 		.4byte	.Ldebug_ranges0+0x30
 481 0025 00000000 		.4byte	.Ldebug_line0
 482 0029 02       		.uleb128 0x2
 483 002a 04       		.byte	0x4
 484 002b 05       		.byte	0x5
 485 002c 696E7400 		.ascii	"int\000"
 486 0030 03       		.uleb128 0x3
 487 0031 83000000 		.4byte	.LASF2
 488 0035 02       		.byte	0x2
 489 0036 D4       		.byte	0xd4
 490 0037 3B000000 		.4byte	0x3b
 491 003b 04       		.uleb128 0x4
 492 003c 04       		.byte	0x4
 493 003d 07       		.byte	0x7
 494 003e 3D040000 		.4byte	.LASF0
 495 0042 04       		.uleb128 0x4
 496 0043 01       		.byte	0x1
 497 0044 06       		.byte	0x6
 498 0045 E1010000 		.4byte	.LASF1
 499 0049 03       		.uleb128 0x3
ARM GAS  /tmp/ccboNQdc.s 			page 10


 500 004a 730B0000 		.4byte	.LASF3
 501 004e 03       		.byte	0x3
 502 004f 2A       		.byte	0x2a
 503 0050 54000000 		.4byte	0x54
 504 0054 04       		.uleb128 0x4
 505 0055 01       		.byte	0x1
 506 0056 08       		.byte	0x8
 507 0057 26080000 		.4byte	.LASF4
 508 005b 04       		.uleb128 0x4
 509 005c 02       		.byte	0x2
 510 005d 05       		.byte	0x5
 511 005e 71080000 		.4byte	.LASF5
 512 0062 03       		.uleb128 0x3
 513 0063 21030000 		.4byte	.LASF6
 514 0067 03       		.byte	0x3
 515 0068 36       		.byte	0x36
 516 0069 6D000000 		.4byte	0x6d
 517 006d 04       		.uleb128 0x4
 518 006e 02       		.byte	0x2
 519 006f 07       		.byte	0x7
 520 0070 46050000 		.4byte	.LASF7
 521 0074 03       		.uleb128 0x3
 522 0075 1E080000 		.4byte	.LASF8
 523 0079 03       		.byte	0x3
 524 007a 4F       		.byte	0x4f
 525 007b 7F000000 		.4byte	0x7f
 526 007f 04       		.uleb128 0x4
 527 0080 04       		.byte	0x4
 528 0081 05       		.byte	0x5
 529 0082 70020000 		.4byte	.LASF9
 530 0086 03       		.uleb128 0x3
 531 0087 180B0000 		.4byte	.LASF10
 532 008b 03       		.byte	0x3
 533 008c 50       		.byte	0x50
 534 008d 91000000 		.4byte	0x91
 535 0091 04       		.uleb128 0x4
 536 0092 04       		.byte	0x4
 537 0093 07       		.byte	0x7
 538 0094 DD090000 		.4byte	.LASF11
 539 0098 04       		.uleb128 0x4
 540 0099 08       		.byte	0x8
 541 009a 05       		.byte	0x5
 542 009b D3010000 		.4byte	.LASF12
 543 009f 03       		.uleb128 0x3
 544 00a0 95060000 		.4byte	.LASF13
 545 00a4 03       		.byte	0x3
 546 00a5 78       		.byte	0x78
 547 00a6 AA000000 		.4byte	0xaa
 548 00aa 04       		.uleb128 0x4
 549 00ab 08       		.byte	0x8
 550 00ac 07       		.byte	0x7
 551 00ad 09010000 		.4byte	.LASF14
 552 00b1 03       		.uleb128 0x3
 553 00b2 24020000 		.4byte	.LASF15
 554 00b6 04       		.byte	0x4
 555 00b7 24       		.byte	0x24
 556 00b8 BC000000 		.4byte	0xbc
ARM GAS  /tmp/ccboNQdc.s 			page 11


 557 00bc 04       		.uleb128 0x4
 558 00bd 01       		.byte	0x1
 559 00be 02       		.byte	0x2
 560 00bf 96050000 		.4byte	.LASF16
 561 00c3 03       		.uleb128 0x3
 562 00c4 A2080000 		.4byte	.LASF17
 563 00c8 04       		.byte	0x4
 564 00c9 25       		.byte	0x25
 565 00ca 49000000 		.4byte	0x49
 566 00ce 03       		.uleb128 0x3
 567 00cf 3E030000 		.4byte	.LASF18
 568 00d3 04       		.byte	0x4
 569 00d4 26       		.byte	0x26
 570 00d5 49000000 		.4byte	0x49
 571 00d9 03       		.uleb128 0x3
 572 00da C7070000 		.4byte	.LASF19
 573 00de 04       		.byte	0x4
 574 00df 27       		.byte	0x27
 575 00e0 49000000 		.4byte	0x49
 576 00e4 03       		.uleb128 0x3
 577 00e5 4E020000 		.4byte	.LASF20
 578 00e9 04       		.byte	0x4
 579 00ea 28       		.byte	0x28
 580 00eb 49000000 		.4byte	0x49
 581 00ef 03       		.uleb128 0x3
 582 00f0 16080000 		.4byte	.LASF21
 583 00f4 04       		.byte	0x4
 584 00f5 29       		.byte	0x29
 585 00f6 86000000 		.4byte	0x86
 586 00fa 03       		.uleb128 0x3
 587 00fb 72050000 		.4byte	.LASF22
 588 00ff 04       		.byte	0x4
 589 0100 2A       		.byte	0x2a
 590 0101 74000000 		.4byte	0x74
 591 0105 03       		.uleb128 0x3
 592 0106 A7050000 		.4byte	.LASF23
 593 010a 04       		.byte	0x4
 594 010b 2C       		.byte	0x2c
 595 010c 86000000 		.4byte	0x86
 596 0110 03       		.uleb128 0x3
 597 0111 4E0A0000 		.4byte	.LASF24
 598 0115 04       		.byte	0x4
 599 0116 2E       		.byte	0x2e
 600 0117 86000000 		.4byte	0x86
 601 011b 03       		.uleb128 0x3
 602 011c ED080000 		.4byte	.LASF25
 603 0120 05       		.byte	0x5
 604 0121 23       		.byte	0x23
 605 0122 26010000 		.4byte	0x126
 606 0126 05       		.uleb128 0x5
 607 0127 ED080000 		.4byte	.LASF25
 608 012b 4C       		.byte	0x4c
 609 012c 06       		.byte	0x6
 610 012d 57       		.byte	0x57
 611 012e 8E020000 		.4byte	0x28e
 612 0132 06       		.uleb128 0x6
 613 0133 04       		.byte	0x4
ARM GAS  /tmp/ccboNQdc.s 			page 12


 614 0134 06       		.byte	0x6
 615 0135 8F       		.byte	0x8f
 616 0136 67010000 		.4byte	0x167
 617 013a 07       		.uleb128 0x7
 618 013b 8F000000 		.4byte	.LASF26
 619 013f 06       		.byte	0x6
 620 0140 96       		.byte	0x96
 621 0141 FA000000 		.4byte	0xfa
 622 0145 07       		.uleb128 0x7
 623 0146 30010000 		.4byte	.LASF27
 624 014a 06       		.byte	0x6
 625 014b 9D       		.byte	0x9d
 626 014c FA000000 		.4byte	0xfa
 627 0150 07       		.uleb128 0x7
 628 0151 B50B0000 		.4byte	.LASF28
 629 0155 06       		.byte	0x6
 630 0156 A4       		.byte	0xa4
 631 0157 F9020000 		.4byte	0x2f9
 632 015b 07       		.uleb128 0x7
 633 015c 94080000 		.4byte	.LASF29
 634 0160 06       		.byte	0x6
 635 0161 AB       		.byte	0xab
 636 0162 05010000 		.4byte	0x105
 637 0166 00       		.byte	0
 638 0167 08       		.uleb128 0x8
 639 0168 9B080000 		.4byte	.LASF30
 640 016c 06       		.byte	0x6
 641 016d 58       		.byte	0x58
 642 016e F9040000 		.4byte	0x4f9
 643 0172 02       		.byte	0x2
 644 0173 23       		.byte	0x23
 645 0174 00       		.uleb128 0
 646 0175 08       		.uleb128 0x8
 647 0176 F5070000 		.4byte	.LASF31
 648 017a 06       		.byte	0x6
 649 017b 5A       		.byte	0x5a
 650 017c F9040000 		.4byte	0x4f9
 651 0180 02       		.byte	0x2
 652 0181 23       		.byte	0x23
 653 0182 04       		.uleb128 0x4
 654 0183 08       		.uleb128 0x8
 655 0184 B0010000 		.4byte	.LASF32
 656 0188 06       		.byte	0x6
 657 0189 5C       		.byte	0x5c
 658 018a EF000000 		.4byte	0xef
 659 018e 02       		.byte	0x2
 660 018f 23       		.byte	0x23
 661 0190 08       		.uleb128 0x8
 662 0191 08       		.uleb128 0x8
 663 0192 770C0000 		.4byte	.LASF33
 664 0196 06       		.byte	0x6
 665 0197 5D       		.byte	0x5d
 666 0198 94030000 		.4byte	0x394
 667 019c 02       		.byte	0x2
 668 019d 23       		.byte	0x23
 669 019e 0C       		.uleb128 0xc
 670 019f 08       		.uleb128 0x8
ARM GAS  /tmp/ccboNQdc.s 			page 13


 671 01a0 4C030000 		.4byte	.LASF34
 672 01a4 06       		.byte	0x6
 673 01a5 5F       		.byte	0x5f
 674 01a6 F9040000 		.4byte	0x4f9
 675 01aa 02       		.byte	0x2
 676 01ab 23       		.byte	0x23
 677 01ac 10       		.uleb128 0x10
 678 01ad 08       		.uleb128 0x8
 679 01ae 9E060000 		.4byte	.LASF35
 680 01b2 06       		.byte	0x6
 681 01b3 60       		.byte	0x60
 682 01b4 F9040000 		.4byte	0x4f9
 683 01b8 02       		.byte	0x2
 684 01b9 23       		.byte	0x23
 685 01ba 14       		.uleb128 0x14
 686 01bb 08       		.uleb128 0x8
 687 01bc 7B0A0000 		.4byte	.LASF36
 688 01c0 06       		.byte	0x6
 689 01c1 67       		.byte	0x67
 690 01c2 FF040000 		.4byte	0x4ff
 691 01c6 02       		.byte	0x2
 692 01c7 23       		.byte	0x23
 693 01c8 18       		.uleb128 0x18
 694 01c9 08       		.uleb128 0x8
 695 01ca 32040000 		.4byte	.LASF37
 696 01ce 06       		.byte	0x6
 697 01cf 6D       		.byte	0x6d
 698 01d0 11050000 		.4byte	0x511
 699 01d4 02       		.byte	0x2
 700 01d5 23       		.byte	0x23
 701 01d6 1C       		.uleb128 0x1c
 702 01d7 08       		.uleb128 0x8
 703 01d8 7B080000 		.4byte	.LASF38
 704 01dc 06       		.byte	0x6
 705 01dd 72       		.byte	0x72
 706 01de CE000000 		.4byte	0xce
 707 01e2 02       		.byte	0x2
 708 01e3 23       		.byte	0x23
 709 01e4 20       		.uleb128 0x20
 710 01e5 08       		.uleb128 0x8
 711 01e6 AA080000 		.4byte	.LASF39
 712 01ea 06       		.byte	0x6
 713 01eb 76       		.byte	0x76
 714 01ec C3000000 		.4byte	0xc3
 715 01f0 02       		.byte	0x2
 716 01f1 23       		.byte	0x23
 717 01f2 21       		.uleb128 0x21
 718 01f3 08       		.uleb128 0x8
 719 01f4 320B0000 		.4byte	.LASF40
 720 01f8 06       		.byte	0x6
 721 01f9 7B       		.byte	0x7b
 722 01fa D9000000 		.4byte	0xd9
 723 01fe 02       		.byte	0x2
 724 01ff 23       		.byte	0x23
 725 0200 22       		.uleb128 0x22
 726 0201 08       		.uleb128 0x8
 727 0202 83080000 		.4byte	.LASF41
ARM GAS  /tmp/ccboNQdc.s 			page 14


 728 0206 06       		.byte	0x6
 729 0207 81       		.byte	0x81
 730 0208 E4000000 		.4byte	0xe4
 731 020c 02       		.byte	0x2
 732 020d 23       		.byte	0x23
 733 020e 23       		.uleb128 0x23
 734 020f 08       		.uleb128 0x8
 735 0210 2A030000 		.4byte	.LASF42
 736 0214 06       		.byte	0x6
 737 0215 88       		.byte	0x88
 738 0216 B7030000 		.4byte	0x3b7
 739 021a 02       		.byte	0x2
 740 021b 23       		.byte	0x23
 741 021c 24       		.uleb128 0x24
 742 021d 09       		.uleb128 0x9
 743 021e 705F7500 		.ascii	"p_u\000"
 744 0222 06       		.byte	0x6
 745 0223 AD       		.byte	0xad
 746 0224 32010000 		.4byte	0x132
 747 0228 02       		.byte	0x2
 748 0229 23       		.byte	0x23
 749 022a 28       		.uleb128 0x28
 750 022b 08       		.uleb128 0x8
 751 022c 7D0C0000 		.4byte	.LASF43
 752 0230 06       		.byte	0x6
 753 0231 B2       		.byte	0xb2
 754 0232 E3020000 		.4byte	0x2e3
 755 0236 02       		.byte	0x2
 756 0237 23       		.byte	0x23
 757 0238 2C       		.uleb128 0x2c
 758 0239 08       		.uleb128 0x8
 759 023a 96040000 		.4byte	.LASF44
 760 023e 06       		.byte	0x6
 761 023f B8       		.byte	0xb8
 762 0240 BD020000 		.4byte	0x2bd
 763 0244 02       		.byte	0x2
 764 0245 23       		.byte	0x23
 765 0246 30       		.uleb128 0x30
 766 0247 08       		.uleb128 0x8
 767 0248 2E0A0000 		.4byte	.LASF45
 768 024c 06       		.byte	0x6
 769 024d BC       		.byte	0xbc
 770 024e FA000000 		.4byte	0xfa
 771 0252 02       		.byte	0x2
 772 0253 23       		.byte	0x23
 773 0254 38       		.uleb128 0x38
 774 0255 08       		.uleb128 0x8
 775 0256 8A060000 		.4byte	.LASF46
 776 025a 06       		.byte	0x6
 777 025b C2       		.byte	0xc2
 778 025c 05010000 		.4byte	0x105
 779 0260 02       		.byte	0x2
 780 0261 23       		.byte	0x23
 781 0262 3C       		.uleb128 0x3c
 782 0263 08       		.uleb128 0x8
 783 0264 67080000 		.4byte	.LASF47
 784 0268 06       		.byte	0x6
ARM GAS  /tmp/ccboNQdc.s 			page 15


 785 0269 C9       		.byte	0xc9
 786 026a 17050000 		.4byte	0x517
 787 026e 02       		.byte	0x2
 788 026f 23       		.byte	0x23
 789 0270 40       		.uleb128 0x40
 790 0271 08       		.uleb128 0x8
 791 0272 580A0000 		.4byte	.LASF48
 792 0276 06       		.byte	0x6
 793 0277 CD       		.byte	0xcd
 794 0278 EF000000 		.4byte	0xef
 795 027c 02       		.byte	0x2
 796 027d 23       		.byte	0x23
 797 027e 44       		.uleb128 0x44
 798 027f 08       		.uleb128 0x8
 799 0280 AB030000 		.4byte	.LASF49
 800 0284 06       		.byte	0x6
 801 0285 D3       		.byte	0xd3
 802 0286 F9020000 		.4byte	0x2f9
 803 028a 02       		.byte	0x2
 804 028b 23       		.byte	0x23
 805 028c 48       		.uleb128 0x48
 806 028d 00       		.byte	0
 807 028e 0A       		.uleb128 0xa
 808 028f 08       		.byte	0x8
 809 0290 05       		.byte	0x5
 810 0291 5A       		.byte	0x5a
 811 0292 65070000 		.4byte	.LASF51
 812 0296 B7020000 		.4byte	0x2b7
 813 029a 08       		.uleb128 0x8
 814 029b 9B080000 		.4byte	.LASF30
 815 029f 05       		.byte	0x5
 816 02a0 5B       		.byte	0x5b
 817 02a1 B7020000 		.4byte	0x2b7
 818 02a5 02       		.byte	0x2
 819 02a6 23       		.byte	0x23
 820 02a7 00       		.uleb128 0
 821 02a8 08       		.uleb128 0x8
 822 02a9 F5070000 		.4byte	.LASF31
 823 02ad 05       		.byte	0x5
 824 02ae 5D       		.byte	0x5d
 825 02af B7020000 		.4byte	0x2b7
 826 02b3 02       		.byte	0x2
 827 02b4 23       		.byte	0x23
 828 02b5 04       		.uleb128 0x4
 829 02b6 00       		.byte	0
 830 02b7 0B       		.uleb128 0xb
 831 02b8 04       		.byte	0x4
 832 02b9 1B010000 		.4byte	0x11b
 833 02bd 03       		.uleb128 0x3
 834 02be C9060000 		.4byte	.LASF50
 835 02c2 05       		.byte	0x5
 836 02c3 5F       		.byte	0x5f
 837 02c4 8E020000 		.4byte	0x28e
 838 02c8 0A       		.uleb128 0xa
 839 02c9 04       		.byte	0x4
 840 02ca 05       		.byte	0x5
 841 02cb 64       		.byte	0x64
ARM GAS  /tmp/ccboNQdc.s 			page 16


 842 02cc 58020000 		.4byte	.LASF52
 843 02d0 E3020000 		.4byte	0x2e3
 844 02d4 08       		.uleb128 0x8
 845 02d5 9B080000 		.4byte	.LASF30
 846 02d9 05       		.byte	0x5
 847 02da 66       		.byte	0x66
 848 02db B7020000 		.4byte	0x2b7
 849 02df 02       		.byte	0x2
 850 02e0 23       		.byte	0x23
 851 02e1 00       		.uleb128 0
 852 02e2 00       		.byte	0
 853 02e3 03       		.uleb128 0x3
 854 02e4 9B050000 		.4byte	.LASF53
 855 02e8 05       		.byte	0x5
 856 02e9 69       		.byte	0x69
 857 02ea C8020000 		.4byte	0x2c8
 858 02ee 03       		.uleb128 0x3
 859 02ef B3030000 		.4byte	.LASF54
 860 02f3 07       		.byte	0x7
 861 02f4 DE       		.byte	0xde
 862 02f5 F9020000 		.4byte	0x2f9
 863 02f9 0C       		.uleb128 0xc
 864 02fa 04       		.byte	0x4
 865 02fb 03       		.uleb128 0x3
 866 02fc C1050000 		.4byte	.LASF55
 867 0300 07       		.byte	0x7
 868 0301 E4       		.byte	0xe4
 869 0302 9F000000 		.4byte	0x9f
 870 0306 0D       		.uleb128 0xd
 871 0307 ED0A0000 		.4byte	.LASF56
 872 030b 24       		.byte	0x24
 873 030c 07       		.byte	0x7
 874 030d 0501     		.2byte	0x105
 875 030f 94030000 		.4byte	0x394
 876 0313 0E       		.uleb128 0xe
 877 0314 723400   		.ascii	"r4\000"
 878 0317 07       		.byte	0x7
 879 0318 1801     		.2byte	0x118
 880 031a EE020000 		.4byte	0x2ee
 881 031e 02       		.byte	0x2
 882 031f 23       		.byte	0x23
 883 0320 00       		.uleb128 0
 884 0321 0E       		.uleb128 0xe
 885 0322 723500   		.ascii	"r5\000"
 886 0325 07       		.byte	0x7
 887 0326 1901     		.2byte	0x119
 888 0328 EE020000 		.4byte	0x2ee
 889 032c 02       		.byte	0x2
 890 032d 23       		.byte	0x23
 891 032e 04       		.uleb128 0x4
 892 032f 0E       		.uleb128 0xe
 893 0330 723600   		.ascii	"r6\000"
 894 0333 07       		.byte	0x7
 895 0334 1A01     		.2byte	0x11a
 896 0336 EE020000 		.4byte	0x2ee
 897 033a 02       		.byte	0x2
 898 033b 23       		.byte	0x23
ARM GAS  /tmp/ccboNQdc.s 			page 17


 899 033c 08       		.uleb128 0x8
 900 033d 0E       		.uleb128 0xe
 901 033e 723700   		.ascii	"r7\000"
 902 0341 07       		.byte	0x7
 903 0342 1B01     		.2byte	0x11b
 904 0344 EE020000 		.4byte	0x2ee
 905 0348 02       		.byte	0x2
 906 0349 23       		.byte	0x23
 907 034a 0C       		.uleb128 0xc
 908 034b 0E       		.uleb128 0xe
 909 034c 723800   		.ascii	"r8\000"
 910 034f 07       		.byte	0x7
 911 0350 1C01     		.2byte	0x11c
 912 0352 EE020000 		.4byte	0x2ee
 913 0356 02       		.byte	0x2
 914 0357 23       		.byte	0x23
 915 0358 10       		.uleb128 0x10
 916 0359 0E       		.uleb128 0xe
 917 035a 723900   		.ascii	"r9\000"
 918 035d 07       		.byte	0x7
 919 035e 1D01     		.2byte	0x11d
 920 0360 EE020000 		.4byte	0x2ee
 921 0364 02       		.byte	0x2
 922 0365 23       		.byte	0x23
 923 0366 14       		.uleb128 0x14
 924 0367 0E       		.uleb128 0xe
 925 0368 72313000 		.ascii	"r10\000"
 926 036c 07       		.byte	0x7
 927 036d 1E01     		.2byte	0x11e
 928 036f EE020000 		.4byte	0x2ee
 929 0373 02       		.byte	0x2
 930 0374 23       		.byte	0x23
 931 0375 18       		.uleb128 0x18
 932 0376 0E       		.uleb128 0xe
 933 0377 72313100 		.ascii	"r11\000"
 934 037b 07       		.byte	0x7
 935 037c 1F01     		.2byte	0x11f
 936 037e EE020000 		.4byte	0x2ee
 937 0382 02       		.byte	0x2
 938 0383 23       		.byte	0x23
 939 0384 1C       		.uleb128 0x1c
 940 0385 0E       		.uleb128 0xe
 941 0386 6C7200   		.ascii	"lr\000"
 942 0389 07       		.byte	0x7
 943 038a 2001     		.2byte	0x120
 944 038c EE020000 		.4byte	0x2ee
 945 0390 02       		.byte	0x2
 946 0391 23       		.byte	0x23
 947 0392 20       		.uleb128 0x20
 948 0393 00       		.byte	0
 949 0394 0D       		.uleb128 0xd
 950 0395 9E0A0000 		.4byte	.LASF57
 951 0399 04       		.byte	0x4
 952 039a 07       		.byte	0x7
 953 039b 2A01     		.2byte	0x12a
 954 039d B1030000 		.4byte	0x3b1
 955 03a1 0E       		.uleb128 0xe
ARM GAS  /tmp/ccboNQdc.s 			page 18


 956 03a2 72313300 		.ascii	"r13\000"
 957 03a6 07       		.byte	0x7
 958 03a7 2B01     		.2byte	0x12b
 959 03a9 B1030000 		.4byte	0x3b1
 960 03ad 02       		.byte	0x2
 961 03ae 23       		.byte	0x23
 962 03af 00       		.uleb128 0
 963 03b0 00       		.byte	0
 964 03b1 0B       		.uleb128 0xb
 965 03b2 04       		.byte	0x4
 966 03b3 06030000 		.4byte	0x306
 967 03b7 0F       		.uleb128 0xf
 968 03b8 10010000 		.4byte	0x110
 969 03bc 0A       		.uleb128 0xa
 970 03bd 1C       		.byte	0x1c
 971 03be 08       		.byte	0x8
 972 03bf 57       		.byte	0x57
 973 03c0 33020000 		.4byte	.LASF58
 974 03c4 1D040000 		.4byte	0x41d
 975 03c8 08       		.uleb128 0x8
 976 03c9 D5090000 		.4byte	.LASF59
 977 03cd 08       		.byte	0x8
 978 03ce 58       		.byte	0x58
 979 03cf BD020000 		.4byte	0x2bd
 980 03d3 02       		.byte	0x2
 981 03d4 23       		.byte	0x23
 982 03d5 00       		.uleb128 0
 983 03d6 08       		.uleb128 0x8
 984 03d7 8D080000 		.4byte	.LASF60
 985 03db 08       		.byte	0x8
 986 03dc 59       		.byte	0x59
 987 03dd EF000000 		.4byte	0xef
 988 03e1 02       		.byte	0x2
 989 03e2 23       		.byte	0x23
 990 03e3 08       		.uleb128 0x8
 991 03e4 08       		.uleb128 0x8
 992 03e5 A6060000 		.4byte	.LASF61
 993 03e9 08       		.byte	0x8
 994 03ea 5B       		.byte	0x5b
 995 03eb 94030000 		.4byte	0x394
 996 03ef 02       		.byte	0x2
 997 03f0 23       		.byte	0x23
 998 03f1 0C       		.uleb128 0xc
 999 03f2 08       		.uleb128 0x8
 1000 03f3 A3030000 		.4byte	.LASF62
 1001 03f7 08       		.byte	0x8
 1002 03f8 5E       		.byte	0x5e
 1003 03f9 B7020000 		.4byte	0x2b7
 1004 03fd 02       		.byte	0x2
 1005 03fe 23       		.byte	0x23
 1006 03ff 10       		.uleb128 0x10
 1007 0400 08       		.uleb128 0x8
 1008 0401 49070000 		.4byte	.LASF63
 1009 0405 08       		.byte	0x8
 1010 0406 5F       		.byte	0x5f
 1011 0407 B7020000 		.4byte	0x2b7
 1012 040b 02       		.byte	0x2
ARM GAS  /tmp/ccboNQdc.s 			page 19


 1013 040c 23       		.byte	0x23
 1014 040d 14       		.uleb128 0x14
 1015 040e 08       		.uleb128 0x8
 1016 040f EF090000 		.4byte	.LASF64
 1017 0413 08       		.byte	0x8
 1018 0414 62       		.byte	0x62
 1019 0415 B7020000 		.4byte	0x2b7
 1020 0419 02       		.byte	0x2
 1021 041a 23       		.byte	0x23
 1022 041b 18       		.uleb128 0x18
 1023 041c 00       		.byte	0
 1024 041d 03       		.uleb128 0x3
 1025 041e 400B0000 		.4byte	.LASF65
 1026 0422 08       		.byte	0x8
 1027 0423 64       		.byte	0x64
 1028 0424 BC030000 		.4byte	0x3bc
 1029 0428 05       		.uleb128 0x5
 1030 0429 84060000 		.4byte	.LASF66
 1031 042d 10       		.byte	0x10
 1032 042e 09       		.byte	0x9
 1033 042f 25       		.byte	0x25
 1034 0430 5F040000 		.4byte	0x45f
 1035 0434 08       		.uleb128 0x8
 1036 0435 2B020000 		.4byte	.LASF67
 1037 0439 09       		.byte	0x9
 1038 043a 26       		.byte	0x26
 1039 043b BD020000 		.4byte	0x2bd
 1040 043f 02       		.byte	0x2
 1041 0440 23       		.byte	0x23
 1042 0441 00       		.uleb128 0
 1043 0442 08       		.uleb128 0x8
 1044 0443 6F0C0000 		.4byte	.LASF68
 1045 0447 09       		.byte	0x9
 1046 0448 28       		.byte	0x28
 1047 0449 B7020000 		.4byte	0x2b7
 1048 044d 02       		.byte	0x2
 1049 044e 23       		.byte	0x23
 1050 044f 08       		.uleb128 0x8
 1051 0450 08       		.uleb128 0x8
 1052 0451 470A0000 		.4byte	.LASF69
 1053 0455 09       		.byte	0x9
 1054 0456 2A       		.byte	0x2a
 1055 0457 5F040000 		.4byte	0x45f
 1056 045b 02       		.byte	0x2
 1057 045c 23       		.byte	0x23
 1058 045d 0C       		.uleb128 0xc
 1059 045e 00       		.byte	0
 1060 045f 0B       		.uleb128 0xb
 1061 0460 04       		.byte	0x4
 1062 0461 28040000 		.4byte	0x428
 1063 0465 03       		.uleb128 0x3
 1064 0466 84060000 		.4byte	.LASF66
 1065 046a 09       		.byte	0x9
 1066 046b 2C       		.byte	0x2c
 1067 046c 28040000 		.4byte	0x428
 1068 0470 03       		.uleb128 0x3
 1069 0471 9C070000 		.4byte	.LASF70
ARM GAS  /tmp/ccboNQdc.s 			page 20


 1070 0475 0A       		.byte	0xa
 1071 0476 25       		.byte	0x25
 1072 0477 7B040000 		.4byte	0x47b
 1073 047b 0B       		.uleb128 0xb
 1074 047c 04       		.byte	0x4
 1075 047d 81040000 		.4byte	0x481
 1076 0481 10       		.uleb128 0x10
 1077 0482 F9020000 		.4byte	0x2f9
 1078 0486 90040000 		.4byte	0x490
 1079 048a 11       		.uleb128 0x11
 1080 048b 30000000 		.4byte	0x30
 1081 048f 00       		.byte	0
 1082 0490 05       		.uleb128 0x5
 1083 0491 260B0000 		.4byte	.LASF71
 1084 0495 04       		.byte	0x4
 1085 0496 0B       		.byte	0xb
 1086 0497 25       		.byte	0x25
 1087 0498 AB040000 		.4byte	0x4ab
 1088 049c 08       		.uleb128 0x8
 1089 049d 94070000 		.4byte	.LASF72
 1090 04a1 0B       		.byte	0xb
 1091 04a2 26       		.byte	0x26
 1092 04a3 AB040000 		.4byte	0x4ab
 1093 04a7 02       		.byte	0x2
 1094 04a8 23       		.byte	0x23
 1095 04a9 00       		.uleb128 0
 1096 04aa 00       		.byte	0
 1097 04ab 0B       		.uleb128 0xb
 1098 04ac 04       		.byte	0x4
 1099 04ad 90040000 		.4byte	0x490
 1100 04b1 0A       		.uleb128 0xa
 1101 04b2 0C       		.byte	0xc
 1102 04b3 0B       		.byte	0xb
 1103 04b4 2D       		.byte	0x2d
 1104 04b5 E3000000 		.4byte	.LASF73
 1105 04b9 E8040000 		.4byte	0x4e8
 1106 04bd 08       		.uleb128 0x8
 1107 04be 870A0000 		.4byte	.LASF74
 1108 04c2 0B       		.byte	0xb
 1109 04c3 2E       		.byte	0x2e
 1110 04c4 E8040000 		.4byte	0x4e8
 1111 04c8 02       		.byte	0x2
 1112 04c9 23       		.byte	0x23
 1113 04ca 00       		.uleb128 0
 1114 04cb 08       		.uleb128 0x8
 1115 04cc 150C0000 		.4byte	.LASF75
 1116 04d0 0B       		.byte	0xb
 1117 04d1 2F       		.byte	0x2f
 1118 04d2 30000000 		.4byte	0x30
 1119 04d6 02       		.byte	0x2
 1120 04d7 23       		.byte	0x23
 1121 04d8 04       		.uleb128 0x4
 1122 04d9 08       		.uleb128 0x8
 1123 04da FF010000 		.4byte	.LASF76
 1124 04de 0B       		.byte	0xb
 1125 04df 31       		.byte	0x31
 1126 04e0 70040000 		.4byte	0x470
ARM GAS  /tmp/ccboNQdc.s 			page 21


 1127 04e4 02       		.byte	0x2
 1128 04e5 23       		.byte	0x23
 1129 04e6 08       		.uleb128 0x8
 1130 04e7 00       		.byte	0
 1131 04e8 0B       		.uleb128 0xb
 1132 04e9 04       		.byte	0x4
 1133 04ea 90040000 		.4byte	0x490
 1134 04ee 03       		.uleb128 0x3
 1135 04ef 82090000 		.4byte	.LASF77
 1136 04f3 0B       		.byte	0xb
 1137 04f4 33       		.byte	0x33
 1138 04f5 B1040000 		.4byte	0x4b1
 1139 04f9 0B       		.uleb128 0xb
 1140 04fa 04       		.byte	0x4
 1141 04fb 26010000 		.4byte	0x126
 1142 04ff 0B       		.uleb128 0xb
 1143 0500 04       		.byte	0x4
 1144 0501 05050000 		.4byte	0x505
 1145 0505 12       		.uleb128 0x12
 1146 0506 0A050000 		.4byte	0x50a
 1147 050a 04       		.uleb128 0x4
 1148 050b 01       		.byte	0x1
 1149 050c 08       		.byte	0x8
 1150 050d 000A0000 		.4byte	.LASF78
 1151 0511 0B       		.uleb128 0xb
 1152 0512 04       		.byte	0x4
 1153 0513 FB020000 		.4byte	0x2fb
 1154 0517 0B       		.uleb128 0xb
 1155 0518 04       		.byte	0x4
 1156 0519 65040000 		.4byte	0x465
 1157 051d 0B       		.uleb128 0xb
 1158 051e 04       		.byte	0x4
 1159 051f 49000000 		.4byte	0x49
 1160 0523 13       		.uleb128 0x13
 1161 0524 39010000 		.4byte	.LASF199
 1162 0528 15       		.byte	0x15
 1163 0529 21       		.byte	0x21
 1164 052a 14       		.uleb128 0x14
 1165 052b A1000000 		.4byte	.LASF79
 1166 052f 02       		.byte	0x2
 1167 0530 0C       		.byte	0xc
 1168 0531 06       		.byte	0x6
 1169 0532 B6050000 		.4byte	0x5b6
 1170 0536 15       		.uleb128 0x15
 1171 0537 96000000 		.4byte	.LASF82
 1172 053b 0C       		.byte	0xc
 1173 053c 08       		.byte	0x8
 1174 053d 62000000 		.4byte	0x62
 1175 0541 02       		.byte	0x2
 1176 0542 23       		.byte	0x23
 1177 0543 00       		.uleb128 0
 1178 0544 02       		.byte	0x2
 1179 0545 16       		.uleb128 0x16
 1180 0546 01       		.byte	0x1
 1181 0547 A1000000 		.4byte	.LASF79
 1182 054b 0C       		.byte	0xc
 1183 054c 0A       		.byte	0xa
ARM GAS  /tmp/ccboNQdc.s 			page 22


 1184 054d B6050000 		.4byte	0x5b6
 1185 0551 01       		.byte	0x1
 1186 0552 5A050000 		.4byte	0x55a
 1187 0556 61050000 		.4byte	0x561
 1188 055a 17       		.uleb128 0x17
 1189 055b B6050000 		.4byte	0x5b6
 1190 055f 01       		.byte	0x1
 1191 0560 00       		.byte	0
 1192 0561 18       		.uleb128 0x18
 1193 0562 01       		.byte	0x1
 1194 0563 44060000 		.4byte	.LASF80
 1195 0567 0C       		.byte	0xc
 1196 0568 0B       		.byte	0xb
 1197 0569 110A0000 		.4byte	.LASF99
 1198 056d 01       		.byte	0x1
 1199 056e 76050000 		.4byte	0x576
 1200 0572 7D050000 		.4byte	0x57d
 1201 0576 17       		.uleb128 0x17
 1202 0577 B6050000 		.4byte	0x5b6
 1203 057b 01       		.byte	0x1
 1204 057c 00       		.byte	0
 1205 057d 19       		.uleb128 0x19
 1206 057e 01       		.byte	0x1
 1207 057f 3B0A0000 		.4byte	.LASF88
 1208 0583 0C       		.byte	0xc
 1209 0584 0C       		.byte	0xc
 1210 0585 00000000 		.4byte	.LASF90
 1211 0589 B1000000 		.4byte	0xb1
 1212 058d 01       		.byte	0x1
 1213 058e 96050000 		.4byte	0x596
 1214 0592 9D050000 		.4byte	0x59d
 1215 0596 17       		.uleb128 0x17
 1216 0597 B6050000 		.4byte	0x5b6
 1217 059b 01       		.byte	0x1
 1218 059c 00       		.byte	0
 1219 059d 1A       		.uleb128 0x1a
 1220 059e 01       		.byte	0x1
 1221 059f D5030000 		.4byte	.LASF118
 1222 05a3 0C       		.byte	0xc
 1223 05a4 0D       		.byte	0xd
 1224 05a5 0B020000 		.4byte	.LASF119
 1225 05a9 01       		.byte	0x1
 1226 05aa AE050000 		.4byte	0x5ae
 1227 05ae 17       		.uleb128 0x17
 1228 05af B6050000 		.4byte	0x5b6
 1229 05b3 01       		.byte	0x1
 1230 05b4 00       		.byte	0
 1231 05b5 00       		.byte	0
 1232 05b6 0B       		.uleb128 0xb
 1233 05b7 04       		.byte	0x4
 1234 05b8 2A050000 		.4byte	0x52a
 1235 05bc 14       		.uleb128 0x14
 1236 05bd 7B0B0000 		.4byte	.LASF81
 1237 05c1 14       		.byte	0x14
 1238 05c2 0D       		.byte	0xd
 1239 05c3 07       		.byte	0x7
 1240 05c4 00070000 		.4byte	0x700
ARM GAS  /tmp/ccboNQdc.s 			page 23


 1241 05c8 15       		.uleb128 0x15
 1242 05c9 0D030000 		.4byte	.LASF83
 1243 05cd 0D       		.byte	0xd
 1244 05ce 09       		.byte	0x9
 1245 05cf 00070000 		.4byte	0x700
 1246 05d3 02       		.byte	0x2
 1247 05d4 23       		.byte	0x23
 1248 05d5 00       		.uleb128 0
 1249 05d6 02       		.byte	0x2
 1250 05d7 15       		.uleb128 0x15
 1251 05d8 210B0000 		.4byte	.LASF84
 1252 05dc 0D       		.byte	0xd
 1253 05dd 0A       		.byte	0xa
 1254 05de 00070000 		.4byte	0x700
 1255 05e2 02       		.byte	0x2
 1256 05e3 23       		.byte	0x23
 1257 05e4 04       		.uleb128 0x4
 1258 05e5 02       		.byte	0x2
 1259 05e6 15       		.uleb128 0x15
 1260 05e7 CC050000 		.4byte	.LASF85
 1261 05eb 0D       		.byte	0xd
 1262 05ec 0B       		.byte	0xb
 1263 05ed 00070000 		.4byte	0x700
 1264 05f1 02       		.byte	0x2
 1265 05f2 23       		.byte	0x23
 1266 05f3 08       		.uleb128 0x8
 1267 05f4 02       		.byte	0x2
 1268 05f5 15       		.uleb128 0x15
 1269 05f6 DB030000 		.4byte	.LASF86
 1270 05fa 0D       		.byte	0xd
 1271 05fb 0C       		.byte	0xc
 1272 05fc 00070000 		.4byte	0x700
 1273 0600 02       		.byte	0x2
 1274 0601 23       		.byte	0x23
 1275 0602 0C       		.uleb128 0xc
 1276 0603 02       		.byte	0x2
 1277 0604 15       		.uleb128 0x15
 1278 0605 820A0000 		.4byte	.LASF87
 1279 0609 0D       		.byte	0xd
 1280 060a 0D       		.byte	0xd
 1281 060b 86000000 		.4byte	0x86
 1282 060f 02       		.byte	0x2
 1283 0610 23       		.byte	0x23
 1284 0611 10       		.uleb128 0x10
 1285 0612 02       		.byte	0x2
 1286 0613 16       		.uleb128 0x16
 1287 0614 01       		.byte	0x1
 1288 0615 7B0B0000 		.4byte	.LASF81
 1289 0619 0D       		.byte	0xd
 1290 061a 0F       		.byte	0xf
 1291 061b 06070000 		.4byte	0x706
 1292 061f 01       		.byte	0x1
 1293 0620 28060000 		.4byte	0x628
 1294 0624 39060000 		.4byte	0x639
 1295 0628 17       		.uleb128 0x17
 1296 0629 06070000 		.4byte	0x706
 1297 062d 01       		.byte	0x1
ARM GAS  /tmp/ccboNQdc.s 			page 24


 1298 062e 11       		.uleb128 0x11
 1299 062f 00070000 		.4byte	0x700
 1300 0633 11       		.uleb128 0x11
 1301 0634 86000000 		.4byte	0x86
 1302 0638 00       		.byte	0
 1303 0639 19       		.uleb128 0x19
 1304 063a 01       		.byte	0x1
 1305 063b 41050000 		.4byte	.LASF89
 1306 063f 0D       		.byte	0xd
 1307 0640 10       		.byte	0x10
 1308 0641 59050000 		.4byte	.LASF91
 1309 0645 86000000 		.4byte	0x86
 1310 0649 01       		.byte	0x1
 1311 064a 52060000 		.4byte	0x652
 1312 064e 59060000 		.4byte	0x659
 1313 0652 17       		.uleb128 0x17
 1314 0653 06070000 		.4byte	0x706
 1315 0657 01       		.byte	0x1
 1316 0658 00       		.byte	0
 1317 0659 19       		.uleb128 0x19
 1318 065a 01       		.byte	0x1
 1319 065b 120B0000 		.4byte	.LASF92
 1320 065f 0D       		.byte	0xd
 1321 0660 11       		.byte	0x11
 1322 0661 A60A0000 		.4byte	.LASF93
 1323 0665 86000000 		.4byte	0x86
 1324 0669 01       		.byte	0x1
 1325 066a 72060000 		.4byte	0x672
 1326 066e 79060000 		.4byte	0x679
 1327 0672 17       		.uleb128 0x17
 1328 0673 06070000 		.4byte	0x706
 1329 0677 01       		.byte	0x1
 1330 0678 00       		.byte	0
 1331 0679 1B       		.uleb128 0x1b
 1332 067a 01       		.byte	0x1
 1333 067b 67657400 		.ascii	"get\000"
 1334 067f 0D       		.byte	0xd
 1335 0680 12       		.byte	0x12
 1336 0681 8D010000 		.4byte	.LASF96
 1337 0685 B6050000 		.4byte	0x5b6
 1338 0689 01       		.byte	0x1
 1339 068a 92060000 		.4byte	0x692
 1340 068e 99060000 		.4byte	0x699
 1341 0692 17       		.uleb128 0x17
 1342 0693 06070000 		.4byte	0x706
 1343 0697 01       		.byte	0x1
 1344 0698 00       		.byte	0
 1345 0699 19       		.uleb128 0x19
 1346 069a 01       		.byte	0x1
 1347 069b 8A000000 		.4byte	.LASF94
 1348 069f 0D       		.byte	0xd
 1349 06a0 13       		.byte	0x13
 1350 06a1 BC090000 		.4byte	.LASF95
 1351 06a5 B6050000 		.4byte	0x5b6
 1352 06a9 01       		.byte	0x1
 1353 06aa B2060000 		.4byte	0x6b2
 1354 06ae B9060000 		.4byte	0x6b9
ARM GAS  /tmp/ccboNQdc.s 			page 25


 1355 06b2 17       		.uleb128 0x17
 1356 06b3 06070000 		.4byte	0x706
 1357 06b7 01       		.byte	0x1
 1358 06b8 00       		.byte	0
 1359 06b9 1B       		.uleb128 0x1b
 1360 06ba 01       		.byte	0x1
 1361 06bb 70757400 		.ascii	"put\000"
 1362 06bf 0D       		.byte	0xd
 1363 06c0 14       		.byte	0x14
 1364 06c1 8D090000 		.4byte	.LASF97
 1365 06c5 B1000000 		.4byte	0xb1
 1366 06c9 01       		.byte	0x1
 1367 06ca D2060000 		.4byte	0x6d2
 1368 06ce DE060000 		.4byte	0x6de
 1369 06d2 17       		.uleb128 0x17
 1370 06d3 06070000 		.4byte	0x706
 1371 06d7 01       		.byte	0x1
 1372 06d8 11       		.uleb128 0x11
 1373 06d9 B6050000 		.4byte	0x5b6
 1374 06dd 00       		.byte	0
 1375 06de 1C       		.uleb128 0x1c
 1376 06df 01       		.byte	0x1
 1377 06e0 700A0000 		.4byte	.LASF98
 1378 06e4 0D       		.byte	0xd
 1379 06e5 15       		.byte	0x15
 1380 06e6 70040000 		.4byte	.LASF100
 1381 06ea B1000000 		.4byte	0xb1
 1382 06ee 01       		.byte	0x1
 1383 06ef F3060000 		.4byte	0x6f3
 1384 06f3 17       		.uleb128 0x17
 1385 06f4 06070000 		.4byte	0x706
 1386 06f8 01       		.byte	0x1
 1387 06f9 11       		.uleb128 0x11
 1388 06fa B6050000 		.4byte	0x5b6
 1389 06fe 00       		.byte	0
 1390 06ff 00       		.byte	0
 1391 0700 0B       		.uleb128 0xb
 1392 0701 04       		.byte	0x4
 1393 0702 B6050000 		.4byte	0x5b6
 1394 0706 0B       		.uleb128 0xb
 1395 0707 04       		.byte	0x4
 1396 0708 BC050000 		.4byte	0x5bc
 1397 070c 14       		.uleb128 0x14
 1398 070d B3050000 		.4byte	.LASF101
 1399 0711 18       		.byte	0x18
 1400 0712 0E       		.byte	0xe
 1401 0713 0A       		.byte	0xa
 1402 0714 5B080000 		.4byte	0x85b
 1403 0718 15       		.uleb128 0x15
 1404 0719 79020000 		.4byte	.LASF102
 1405 071d 0E       		.byte	0xe
 1406 071e 0C       		.byte	0xc
 1407 071f FF040000 		.4byte	0x4ff
 1408 0723 02       		.byte	0x2
 1409 0724 23       		.byte	0x23
 1410 0725 00       		.uleb128 0
 1411 0726 02       		.byte	0x2
ARM GAS  /tmp/ccboNQdc.s 			page 26


 1412 0727 15       		.uleb128 0x15
 1413 0728 31030000 		.4byte	.LASF103
 1414 072c 0E       		.byte	0xe
 1415 072d 0D       		.byte	0xd
 1416 072e 4C0A0000 		.4byte	0xa4c
 1417 0732 02       		.byte	0x2
 1418 0733 23       		.byte	0x23
 1419 0734 04       		.uleb128 0x4
 1420 0735 02       		.byte	0x2
 1421 0736 15       		.uleb128 0x15
 1422 0737 CF070000 		.4byte	.LASF104
 1423 073b 0E       		.byte	0xe
 1424 073c 0E       		.byte	0xe
 1425 073d 580A0000 		.4byte	0xa58
 1426 0741 02       		.byte	0x2
 1427 0742 23       		.byte	0x23
 1428 0743 08       		.uleb128 0x8
 1429 0744 02       		.byte	0x2
 1430 0745 15       		.uleb128 0x15
 1431 0746 AA010000 		.4byte	.LASF105
 1432 074a 0E       		.byte	0xe
 1433 074b 0F       		.byte	0xf
 1434 074c EE040000 		.4byte	0x4ee
 1435 0750 02       		.byte	0x2
 1436 0751 23       		.byte	0x23
 1437 0752 0C       		.uleb128 0xc
 1438 0753 02       		.byte	0x2
 1439 0754 16       		.uleb128 0x16
 1440 0755 01       		.byte	0x1
 1441 0756 B3050000 		.4byte	.LASF101
 1442 075a 0E       		.byte	0xe
 1443 075b 11       		.byte	0x11
 1444 075c 5E0A0000 		.4byte	0xa5e
 1445 0760 01       		.byte	0x1
 1446 0761 69070000 		.4byte	0x769
 1447 0765 7A070000 		.4byte	0x77a
 1448 0769 17       		.uleb128 0x17
 1449 076a 5E0A0000 		.4byte	0xa5e
 1450 076e 01       		.byte	0x1
 1451 076f 11       		.uleb128 0x11
 1452 0770 FF040000 		.4byte	0x4ff
 1453 0774 11       		.uleb128 0x11
 1454 0775 30000000 		.4byte	0x30
 1455 0779 00       		.byte	0
 1456 077a 19       		.uleb128 0x19
 1457 077b 01       		.byte	0x1
 1458 077c D5020000 		.4byte	.LASF106
 1459 0780 0E       		.byte	0xe
 1460 0781 12       		.byte	0x12
 1461 0782 FA0B0000 		.4byte	.LASF107
 1462 0786 FF040000 		.4byte	0x4ff
 1463 078a 01       		.byte	0x1
 1464 078b 93070000 		.4byte	0x793
 1465 078f 9A070000 		.4byte	0x79a
 1466 0793 17       		.uleb128 0x17
 1467 0794 5E0A0000 		.4byte	0xa5e
 1468 0798 01       		.byte	0x1
ARM GAS  /tmp/ccboNQdc.s 			page 27


 1469 0799 00       		.byte	0
 1470 079a 19       		.uleb128 0x19
 1471 079b 01       		.byte	0x1
 1472 079c 6A0A0000 		.4byte	.LASF108
 1473 07a0 0E       		.byte	0xe
 1474 07a1 13       		.byte	0x13
 1475 07a2 17040000 		.4byte	.LASF109
 1476 07a6 B6050000 		.4byte	0x5b6
 1477 07aa 01       		.byte	0x1
 1478 07ab B3070000 		.4byte	0x7b3
 1479 07af BA070000 		.4byte	0x7ba
 1480 07b3 17       		.uleb128 0x17
 1481 07b4 5E0A0000 		.4byte	0xa5e
 1482 07b8 01       		.byte	0x1
 1483 07b9 00       		.byte	0
 1484 07ba 19       		.uleb128 0x19
 1485 07bb 01       		.byte	0x1
 1486 07bc 02010000 		.4byte	.LASF110
 1487 07c0 0E       		.byte	0xe
 1488 07c1 14       		.byte	0x14
 1489 07c2 B2080000 		.4byte	.LASF111
 1490 07c6 B6050000 		.4byte	0x5b6
 1491 07ca 01       		.byte	0x1
 1492 07cb D3070000 		.4byte	0x7d3
 1493 07cf DA070000 		.4byte	0x7da
 1494 07d3 17       		.uleb128 0x17
 1495 07d4 5E0A0000 		.4byte	0xa5e
 1496 07d8 01       		.byte	0x1
 1497 07d9 00       		.byte	0
 1498 07da 18       		.uleb128 0x18
 1499 07db 01       		.byte	0x1
 1500 07dc F7010000 		.4byte	.LASF112
 1501 07e0 0E       		.byte	0xe
 1502 07e1 15       		.byte	0x15
 1503 07e2 54030000 		.4byte	.LASF113
 1504 07e6 01       		.byte	0x1
 1505 07e7 EF070000 		.4byte	0x7ef
 1506 07eb FB070000 		.4byte	0x7fb
 1507 07ef 17       		.uleb128 0x17
 1508 07f0 5E0A0000 		.4byte	0xa5e
 1509 07f4 01       		.byte	0x1
 1510 07f5 11       		.uleb128 0x11
 1511 07f6 B6050000 		.4byte	0x5b6
 1512 07fa 00       		.byte	0
 1513 07fb 18       		.uleb128 0x18
 1514 07fc 01       		.byte	0x1
 1515 07fd E1030000 		.4byte	.LASF114
 1516 0801 0E       		.byte	0xe
 1517 0802 16       		.byte	0x16
 1518 0803 330C0000 		.4byte	.LASF115
 1519 0807 01       		.byte	0x1
 1520 0808 10080000 		.4byte	0x810
 1521 080c 1C080000 		.4byte	0x81c
 1522 0810 17       		.uleb128 0x17
 1523 0811 5E0A0000 		.4byte	0xa5e
 1524 0815 01       		.byte	0x1
 1525 0816 11       		.uleb128 0x11
ARM GAS  /tmp/ccboNQdc.s 			page 28


 1526 0817 B6050000 		.4byte	0x5b6
 1527 081b 00       		.byte	0
 1528 081c 18       		.uleb128 0x18
 1529 081d 01       		.byte	0x1
 1530 081e 15030000 		.4byte	.LASF116
 1531 0822 0E       		.byte	0xe
 1532 0823 17       		.byte	0x17
 1533 0824 AC040000 		.4byte	.LASF117
 1534 0828 01       		.byte	0x1
 1535 0829 31080000 		.4byte	0x831
 1536 082d 3D080000 		.4byte	0x83d
 1537 0831 17       		.uleb128 0x17
 1538 0832 5E0A0000 		.4byte	0xa5e
 1539 0836 01       		.byte	0x1
 1540 0837 11       		.uleb128 0x11
 1541 0838 580A0000 		.4byte	0xa58
 1542 083c 00       		.byte	0
 1543 083d 1A       		.uleb128 0x1a
 1544 083e 01       		.byte	0x1
 1545 083f 15030000 		.4byte	.LASF116
 1546 0843 0E       		.byte	0xe
 1547 0844 18       		.byte	0x18
 1548 0845 34080000 		.4byte	.LASF120
 1549 0849 01       		.byte	0x1
 1550 084a 4E080000 		.4byte	0x84e
 1551 084e 17       		.uleb128 0x17
 1552 084f 5E0A0000 		.4byte	0xa5e
 1553 0853 01       		.byte	0x1
 1554 0854 11       		.uleb128 0x11
 1555 0855 4C0A0000 		.4byte	0xa4c
 1556 0859 00       		.byte	0
 1557 085a 00       		.byte	0
 1558 085b 05       		.uleb128 0x5
 1559 085c 3E020000 		.4byte	.LASF121
 1560 0860 3C       		.byte	0x3c
 1561 0861 0F       		.byte	0xf
 1562 0862 0D       		.byte	0xd
 1563 0863 4C0A0000 		.4byte	0xa4c
 1564 0867 1D       		.uleb128 0x1d
 1565 0868 800A0000 		.4byte	0xa80
 1566 086c 02       		.byte	0x2
 1567 086d 23       		.byte	0x23
 1568 086e 00       		.uleb128 0
 1569 086f 01       		.byte	0x1
 1570 0870 15       		.uleb128 0x15
 1571 0871 750A0000 		.4byte	.LASF122
 1572 0875 0F       		.byte	0xf
 1573 0876 0F       		.byte	0xf
 1574 0877 BA0F0000 		.4byte	0xfba
 1575 087b 02       		.byte	0x2
 1576 087c 23       		.byte	0x23
 1577 087d 28       		.uleb128 0x28
 1578 087e 02       		.byte	0x2
 1579 087f 15       		.uleb128 0x15
 1580 0880 3C070000 		.4byte	.LASF123
 1581 0884 0F       		.byte	0xf
 1582 0885 10       		.byte	0x10
ARM GAS  /tmp/ccboNQdc.s 			page 29


 1583 0886 BA0F0000 		.4byte	0xfba
 1584 088a 02       		.byte	0x2
 1585 088b 23       		.byte	0x23
 1586 088c 2C       		.uleb128 0x2c
 1587 088d 02       		.byte	0x2
 1588 088e 1E       		.uleb128 0x1e
 1589 088f 5F747000 		.ascii	"_tp\000"
 1590 0893 0F       		.byte	0xf
 1591 0894 11       		.byte	0x11
 1592 0895 B7020000 		.4byte	0x2b7
 1593 0899 02       		.byte	0x2
 1594 089a 23       		.byte	0x23
 1595 089b 30       		.uleb128 0x30
 1596 089c 02       		.byte	0x2
 1597 089d 15       		.uleb128 0x15
 1598 089e 2D0C0000 		.4byte	.LASF124
 1599 08a2 0F       		.byte	0xf
 1600 08a3 12       		.byte	0x12
 1601 08a4 05010000 		.4byte	0x105
 1602 08a8 02       		.byte	0x2
 1603 08a9 23       		.byte	0x23
 1604 08aa 34       		.uleb128 0x34
 1605 08ab 02       		.byte	0x2
 1606 08ac 15       		.uleb128 0x15
 1607 08ad B2090000 		.4byte	.LASF125
 1608 08b1 0F       		.byte	0xf
 1609 08b2 13       		.byte	0x13
 1610 08b3 640A0000 		.4byte	0xa64
 1611 08b7 02       		.byte	0x2
 1612 08b8 23       		.byte	0x23
 1613 08b9 38       		.uleb128 0x38
 1614 08ba 02       		.byte	0x2
 1615 08bb 16       		.uleb128 0x16
 1616 08bc 01       		.byte	0x1
 1617 08bd 3E020000 		.4byte	.LASF121
 1618 08c1 0F       		.byte	0xf
 1619 08c2 15       		.byte	0x15
 1620 08c3 4C0A0000 		.4byte	0xa4c
 1621 08c7 01       		.byte	0x1
 1622 08c8 D0080000 		.4byte	0x8d0
 1623 08cc F5080000 		.4byte	0x8f5
 1624 08d0 17       		.uleb128 0x17
 1625 08d1 4C0A0000 		.4byte	0xa4c
 1626 08d5 01       		.byte	0x1
 1627 08d6 11       		.uleb128 0x11
 1628 08d7 FF040000 		.4byte	0x4ff
 1629 08db 11       		.uleb128 0x11
 1630 08dc 30000000 		.4byte	0x30
 1631 08e0 11       		.uleb128 0x11
 1632 08e1 1D050000 		.4byte	0x51d
 1633 08e5 11       		.uleb128 0x11
 1634 08e6 00070000 		.4byte	0x700
 1635 08ea 11       		.uleb128 0x11
 1636 08eb 86000000 		.4byte	0x86
 1637 08ef 11       		.uleb128 0x11
 1638 08f0 640A0000 		.4byte	0xa64
 1639 08f4 00       		.byte	0
ARM GAS  /tmp/ccboNQdc.s 			page 30


 1640 08f5 19       		.uleb128 0x19
 1641 08f6 01       		.byte	0x1
 1642 08f7 A5010000 		.4byte	.LASF126
 1643 08fb 0F       		.byte	0xf
 1644 08fc 17       		.byte	0x17
 1645 08fd 4A040000 		.4byte	.LASF127
 1646 0901 BA0F0000 		.4byte	0xfba
 1647 0905 01       		.byte	0x1
 1648 0906 0E090000 		.4byte	0x90e
 1649 090a 15090000 		.4byte	0x915
 1650 090e 17       		.uleb128 0x17
 1651 090f 4C0A0000 		.4byte	0xa4c
 1652 0913 01       		.byte	0x1
 1653 0914 00       		.byte	0
 1654 0915 18       		.uleb128 0x18
 1655 0916 01       		.byte	0x1
 1656 0917 A5010000 		.4byte	.LASF126
 1657 091b 0F       		.byte	0xf
 1658 091c 18       		.byte	0x18
 1659 091d A9070000 		.4byte	.LASF128
 1660 0921 01       		.byte	0x1
 1661 0922 2A090000 		.4byte	0x92a
 1662 0926 36090000 		.4byte	0x936
 1663 092a 17       		.uleb128 0x17
 1664 092b 4C0A0000 		.4byte	0xa4c
 1665 092f 01       		.byte	0x1
 1666 0930 11       		.uleb128 0x11
 1667 0931 BA0F0000 		.4byte	0xfba
 1668 0935 00       		.byte	0
 1669 0936 18       		.uleb128 0x18
 1670 0937 01       		.byte	0x1
 1671 0938 BC030000 		.4byte	.LASF129
 1672 093c 0F       		.byte	0xf
 1673 093d 19       		.byte	0x19
 1674 093e F5050000 		.4byte	.LASF130
 1675 0942 01       		.byte	0x1
 1676 0943 4B090000 		.4byte	0x94b
 1677 0947 57090000 		.4byte	0x957
 1678 094b 17       		.uleb128 0x17
 1679 094c 4C0A0000 		.4byte	0xa4c
 1680 0950 01       		.byte	0x1
 1681 0951 11       		.uleb128 0x11
 1682 0952 BA0F0000 		.4byte	0xfba
 1683 0956 00       		.byte	0
 1684 0957 19       		.uleb128 0x19
 1685 0958 01       		.byte	0x1
 1686 0959 F9090000 		.4byte	.LASF131
 1687 095d 0F       		.byte	0xf
 1688 095e 1A       		.byte	0x1a
 1689 095f DB020000 		.4byte	.LASF132
 1690 0963 BA0F0000 		.4byte	0xfba
 1691 0967 01       		.byte	0x1
 1692 0968 70090000 		.4byte	0x970
 1693 096c 7C090000 		.4byte	0x97c
 1694 0970 17       		.uleb128 0x17
 1695 0971 4C0A0000 		.4byte	0xa4c
 1696 0975 01       		.byte	0x1
ARM GAS  /tmp/ccboNQdc.s 			page 31


 1697 0976 11       		.uleb128 0x11
 1698 0977 B6050000 		.4byte	0x5b6
 1699 097b 00       		.byte	0
 1700 097c 19       		.uleb128 0x19
 1701 097d 01       		.byte	0x1
 1702 097e F9090000 		.4byte	.LASF131
 1703 0982 0F       		.byte	0xf
 1704 0983 1B       		.byte	0x1b
 1705 0984 880B0000 		.4byte	.LASF133
 1706 0988 BA0F0000 		.4byte	0xfba
 1707 098c 01       		.byte	0x1
 1708 098d 95090000 		.4byte	0x995
 1709 0991 A6090000 		.4byte	0x9a6
 1710 0995 17       		.uleb128 0x17
 1711 0996 4C0A0000 		.4byte	0xa4c
 1712 099a 01       		.byte	0x1
 1713 099b 11       		.uleb128 0x11
 1714 099c B6050000 		.4byte	0x5b6
 1715 09a0 11       		.uleb128 0x11
 1716 09a1 C00F0000 		.4byte	0xfc0
 1717 09a5 00       		.byte	0
 1718 09a6 18       		.uleb128 0x18
 1719 09a7 01       		.byte	0x1
 1720 09a8 ED010000 		.4byte	.LASF134
 1721 09ac 0F       		.byte	0xf
 1722 09ad 1C       		.byte	0x1c
 1723 09ae 0A050000 		.4byte	.LASF135
 1724 09b2 01       		.byte	0x1
 1725 09b3 BB090000 		.4byte	0x9bb
 1726 09b7 CC090000 		.4byte	0x9cc
 1727 09bb 17       		.uleb128 0x17
 1728 09bc 4C0A0000 		.4byte	0xa4c
 1729 09c0 01       		.byte	0x1
 1730 09c1 11       		.uleb128 0x11
 1731 09c2 190D0000 		.4byte	0xd19
 1732 09c6 11       		.uleb128 0x11
 1733 09c7 05010000 		.4byte	0x105
 1734 09cb 00       		.byte	0
 1735 09cc 18       		.uleb128 0x18
 1736 09cd 01       		.byte	0x1
 1737 09ce ED010000 		.4byte	.LASF134
 1738 09d2 0F       		.byte	0xf
 1739 09d3 1D       		.byte	0x1d
 1740 09d4 4F090000 		.4byte	.LASF136
 1741 09d8 01       		.byte	0x1
 1742 09d9 E1090000 		.4byte	0x9e1
 1743 09dd F2090000 		.4byte	0x9f2
 1744 09e1 17       		.uleb128 0x17
 1745 09e2 4C0A0000 		.4byte	0xa4c
 1746 09e6 01       		.byte	0x1
 1747 09e7 11       		.uleb128 0x11
 1748 09e8 B40F0000 		.4byte	0xfb4
 1749 09ec 11       		.uleb128 0x11
 1750 09ed 05010000 		.4byte	0x105
 1751 09f1 00       		.byte	0
 1752 09f2 18       		.uleb128 0x18
 1753 09f3 01       		.byte	0x1
ARM GAS  /tmp/ccboNQdc.s 			page 32


 1754 09f4 15030000 		.4byte	.LASF116
 1755 09f8 0F       		.byte	0xf
 1756 09f9 1E       		.byte	0x1e
 1757 09fa 80020000 		.4byte	.LASF137
 1758 09fe 01       		.byte	0x1
 1759 09ff 070A0000 		.4byte	0xa07
 1760 0a03 0E0A0000 		.4byte	0xa0e
 1761 0a07 17       		.uleb128 0x17
 1762 0a08 4C0A0000 		.4byte	0xa4c
 1763 0a0c 01       		.byte	0x1
 1764 0a0d 00       		.byte	0
 1765 0a0e 19       		.uleb128 0x19
 1766 0a0f 01       		.byte	0x1
 1767 0a10 7D050000 		.4byte	.LASF138
 1768 0a14 0F       		.byte	0xf
 1769 0a15 1F       		.byte	0x1f
 1770 0a16 74070000 		.4byte	.LASF139
 1771 0a1a 640A0000 		.4byte	0xa64
 1772 0a1e 01       		.byte	0x1
 1773 0a1f 270A0000 		.4byte	0xa27
 1774 0a23 2E0A0000 		.4byte	0xa2e
 1775 0a27 17       		.uleb128 0x17
 1776 0a28 4C0A0000 		.4byte	0xa4c
 1777 0a2c 01       		.byte	0x1
 1778 0a2d 00       		.byte	0
 1779 0a2e 1A       		.uleb128 0x1a
 1780 0a2f 01       		.byte	0x1
 1781 0a30 7D050000 		.4byte	.LASF138
 1782 0a34 0F       		.byte	0xf
 1783 0a35 20       		.byte	0x20
 1784 0a36 C00A0000 		.4byte	.LASF140
 1785 0a3a 01       		.byte	0x1
 1786 0a3b 3F0A0000 		.4byte	0xa3f
 1787 0a3f 17       		.uleb128 0x17
 1788 0a40 4C0A0000 		.4byte	0xa4c
 1789 0a44 01       		.byte	0x1
 1790 0a45 11       		.uleb128 0x11
 1791 0a46 B6050000 		.4byte	0x5b6
 1792 0a4a 00       		.byte	0
 1793 0a4b 00       		.byte	0
 1794 0a4c 0B       		.uleb128 0xb
 1795 0a4d 04       		.byte	0x4
 1796 0a4e 5B080000 		.4byte	0x85b
 1797 0a52 1F       		.uleb128 0x1f
 1798 0a53 D2000000 		.4byte	.LASF200
 1799 0a57 01       		.byte	0x1
 1800 0a58 0B       		.uleb128 0xb
 1801 0a59 04       		.byte	0x4
 1802 0a5a 520A0000 		.4byte	0xa52
 1803 0a5e 0B       		.uleb128 0xb
 1804 0a5f 04       		.byte	0x4
 1805 0a60 0C070000 		.4byte	0x70c
 1806 0a64 03       		.uleb128 0x3
 1807 0a65 A1040000 		.4byte	.LASF141
 1808 0a69 10       		.byte	0x10
 1809 0a6a 09       		.byte	0x9
 1810 0a6b 6F0A0000 		.4byte	0xa6f
ARM GAS  /tmp/ccboNQdc.s 			page 33


 1811 0a6f 0B       		.uleb128 0xb
 1812 0a70 04       		.byte	0x4
 1813 0a71 750A0000 		.4byte	0xa75
 1814 0a75 20       		.uleb128 0x20
 1815 0a76 800A0000 		.4byte	0xa80
 1816 0a7a 11       		.uleb128 0x11
 1817 0a7b B6050000 		.4byte	0x5b6
 1818 0a7f 00       		.byte	0
 1819 0a80 14       		.uleb128 0x14
 1820 0a81 FB040000 		.4byte	.LASF142
 1821 0a85 28       		.byte	0x28
 1822 0a86 10       		.byte	0x10
 1823 0a87 0B       		.byte	0xb
 1824 0a88 FA0B0000 		.4byte	0xbfa
 1825 0a8c 15       		.uleb128 0x15
 1826 0a8d 79020000 		.4byte	.LASF102
 1827 0a91 10       		.byte	0x10
 1828 0a92 0D       		.byte	0xd
 1829 0a93 FF040000 		.4byte	0x4ff
 1830 0a97 02       		.byte	0x2
 1831 0a98 23       		.byte	0x23
 1832 0a99 00       		.uleb128 0
 1833 0a9a 02       		.byte	0x2
 1834 0a9b 15       		.uleb128 0x15
 1835 0a9c 66040000 		.4byte	.LASF143
 1836 0aa0 10       		.byte	0x10
 1837 0aa1 0E       		.byte	0xe
 1838 0aa2 86000000 		.4byte	0x86
 1839 0aa6 02       		.byte	0x2
 1840 0aa7 23       		.byte	0x23
 1841 0aa8 04       		.uleb128 0x4
 1842 0aa9 02       		.byte	0x2
 1843 0aaa 15       		.uleb128 0x15
 1844 0aab BC0B0000 		.4byte	.LASF144
 1845 0aaf 10       		.byte	0x10
 1846 0ab0 0F       		.byte	0xf
 1847 0ab1 5E0A0000 		.4byte	0xa5e
 1848 0ab5 02       		.byte	0x2
 1849 0ab6 23       		.byte	0x23
 1850 0ab7 08       		.uleb128 0x8
 1851 0ab8 02       		.byte	0x2
 1852 0ab9 15       		.uleb128 0x15
 1853 0aba 06030000 		.4byte	.LASF145
 1854 0abe 10       		.byte	0x10
 1855 0abf 10       		.byte	0x10
 1856 0ac0 BC050000 		.4byte	0x5bc
 1857 0ac4 02       		.byte	0x2
 1858 0ac5 23       		.byte	0x23
 1859 0ac6 0C       		.uleb128 0xc
 1860 0ac7 02       		.byte	0x2
 1861 0ac8 15       		.uleb128 0x15
 1862 0ac9 0D030000 		.4byte	.LASF83
 1863 0acd 10       		.byte	0x10
 1864 0ace 12       		.byte	0x12
 1865 0acf 1D050000 		.4byte	0x51d
 1866 0ad3 02       		.byte	0x2
 1867 0ad4 23       		.byte	0x23
ARM GAS  /tmp/ccboNQdc.s 			page 34


 1868 0ad5 20       		.uleb128 0x20
 1869 0ad6 02       		.byte	0x2
 1870 0ad7 15       		.uleb128 0x15
 1871 0ad8 8B050000 		.4byte	.LASF146
 1872 0adc 10       		.byte	0x10
 1873 0add 13       		.byte	0x13
 1874 0ade 86000000 		.4byte	0x86
 1875 0ae2 02       		.byte	0x2
 1876 0ae3 23       		.byte	0x23
 1877 0ae4 24       		.uleb128 0x24
 1878 0ae5 02       		.byte	0x2
 1879 0ae6 16       		.uleb128 0x16
 1880 0ae7 01       		.byte	0x1
 1881 0ae8 FB040000 		.4byte	.LASF142
 1882 0aec 10       		.byte	0x10
 1883 0aed 15       		.byte	0x15
 1884 0aee FA0B0000 		.4byte	0xbfa
 1885 0af2 01       		.byte	0x1
 1886 0af3 FB0A0000 		.4byte	0xafb
 1887 0af7 1B0B0000 		.4byte	0xb1b
 1888 0afb 17       		.uleb128 0x17
 1889 0afc FA0B0000 		.4byte	0xbfa
 1890 0b00 01       		.byte	0x1
 1891 0b01 11       		.uleb128 0x11
 1892 0b02 FF040000 		.4byte	0x4ff
 1893 0b06 11       		.uleb128 0x11
 1894 0b07 30000000 		.4byte	0x30
 1895 0b0b 11       		.uleb128 0x11
 1896 0b0c 1D050000 		.4byte	0x51d
 1897 0b10 11       		.uleb128 0x11
 1898 0b11 00070000 		.4byte	0x700
 1899 0b15 11       		.uleb128 0x11
 1900 0b16 86000000 		.4byte	0x86
 1901 0b1a 00       		.byte	0
 1902 0b1b 19       		.uleb128 0x19
 1903 0b1c 01       		.byte	0x1
 1904 0b1d D5020000 		.4byte	.LASF106
 1905 0b21 10       		.byte	0x10
 1906 0b22 17       		.byte	0x17
 1907 0b23 B7010000 		.4byte	.LASF147
 1908 0b27 FF040000 		.4byte	0x4ff
 1909 0b2b 01       		.byte	0x1
 1910 0b2c 340B0000 		.4byte	0xb34
 1911 0b30 3B0B0000 		.4byte	0xb3b
 1912 0b34 17       		.uleb128 0x17
 1913 0b35 FA0B0000 		.4byte	0xbfa
 1914 0b39 01       		.byte	0x1
 1915 0b3a 00       		.byte	0
 1916 0b3b 19       		.uleb128 0x19
 1917 0b3c 01       		.byte	0x1
 1918 0b3d 13060000 		.4byte	.LASF148
 1919 0b41 10       		.byte	0x10
 1920 0b42 18       		.byte	0x18
 1921 0b43 AC060000 		.4byte	.LASF149
 1922 0b47 5E0A0000 		.4byte	0xa5e
 1923 0b4b 01       		.byte	0x1
 1924 0b4c 540B0000 		.4byte	0xb54
ARM GAS  /tmp/ccboNQdc.s 			page 35


 1925 0b50 5B0B0000 		.4byte	0xb5b
 1926 0b54 17       		.uleb128 0x17
 1927 0b55 FA0B0000 		.4byte	0xbfa
 1928 0b59 01       		.byte	0x1
 1929 0b5a 00       		.byte	0
 1930 0b5b 19       		.uleb128 0x19
 1931 0b5c 01       		.byte	0x1
 1932 0b5d 78050000 		.4byte	.LASF150
 1933 0b61 10       		.byte	0x10
 1934 0b62 19       		.byte	0x19
 1935 0b63 C40B0000 		.4byte	.LASF151
 1936 0b67 000C0000 		.4byte	0xc00
 1937 0b6b 01       		.byte	0x1
 1938 0b6c 740B0000 		.4byte	0xb74
 1939 0b70 7B0B0000 		.4byte	0xb7b
 1940 0b74 17       		.uleb128 0x17
 1941 0b75 FA0B0000 		.4byte	0xbfa
 1942 0b79 01       		.byte	0x1
 1943 0b7a 00       		.byte	0
 1944 0b7b 1B       		.uleb128 0x1b
 1945 0b7c 01       		.byte	0x1
 1946 0b7d 67657400 		.ascii	"get\000"
 1947 0b81 10       		.byte	0x10
 1948 0b82 1A       		.byte	0x1a
 1949 0b83 7E030000 		.4byte	.LASF152
 1950 0b87 B6050000 		.4byte	0x5b6
 1951 0b8b 01       		.byte	0x1
 1952 0b8c 940B0000 		.4byte	0xb94
 1953 0b90 9B0B0000 		.4byte	0xb9b
 1954 0b94 17       		.uleb128 0x17
 1955 0b95 FA0B0000 		.4byte	0xbfa
 1956 0b99 01       		.byte	0x1
 1957 0b9a 00       		.byte	0
 1958 0b9b 18       		.uleb128 0x18
 1959 0b9c 01       		.byte	0x1
 1960 0b9d F7010000 		.4byte	.LASF112
 1961 0ba1 10       		.byte	0x10
 1962 0ba2 1B       		.byte	0x1b
 1963 0ba3 D6060000 		.4byte	.LASF153
 1964 0ba7 01       		.byte	0x1
 1965 0ba8 B00B0000 		.4byte	0xbb0
 1966 0bac BC0B0000 		.4byte	0xbbc
 1967 0bb0 17       		.uleb128 0x17
 1968 0bb1 FA0B0000 		.4byte	0xbfa
 1969 0bb5 01       		.byte	0x1
 1970 0bb6 11       		.uleb128 0x11
 1971 0bb7 B6050000 		.4byte	0x5b6
 1972 0bbb 00       		.byte	0
 1973 0bbc 18       		.uleb128 0x18
 1974 0bbd 01       		.byte	0x1
 1975 0bbe E1030000 		.4byte	.LASF114
 1976 0bc2 10       		.byte	0x10
 1977 0bc3 1C       		.byte	0x1c
 1978 0bc4 57000000 		.4byte	.LASF154
 1979 0bc8 01       		.byte	0x1
 1980 0bc9 D10B0000 		.4byte	0xbd1
 1981 0bcd DD0B0000 		.4byte	0xbdd
ARM GAS  /tmp/ccboNQdc.s 			page 36


 1982 0bd1 17       		.uleb128 0x17
 1983 0bd2 FA0B0000 		.4byte	0xbfa
 1984 0bd6 01       		.byte	0x1
 1985 0bd7 11       		.uleb128 0x11
 1986 0bd8 B6050000 		.4byte	0x5b6
 1987 0bdc 00       		.byte	0
 1988 0bdd 1C       		.uleb128 0x1c
 1989 0bde 01       		.byte	0x1
 1990 0bdf 41050000 		.4byte	.LASF89
 1991 0be3 10       		.byte	0x10
 1992 0be4 1D       		.byte	0x1d
 1993 0be5 E0040000 		.4byte	.LASF155
 1994 0be9 62000000 		.4byte	0x62
 1995 0bed 01       		.byte	0x1
 1996 0bee F20B0000 		.4byte	0xbf2
 1997 0bf2 17       		.uleb128 0x17
 1998 0bf3 FA0B0000 		.4byte	0xbfa
 1999 0bf7 01       		.byte	0x1
 2000 0bf8 00       		.byte	0
 2001 0bf9 00       		.byte	0
 2002 0bfa 0B       		.uleb128 0xb
 2003 0bfb 04       		.byte	0x4
 2004 0bfc 800A0000 		.4byte	0xa80
 2005 0c00 0B       		.uleb128 0xb
 2006 0c01 04       		.byte	0x4
 2007 0c02 800A0000 		.4byte	0xa80
 2008 0c06 14       		.uleb128 0x14
 2009 0c07 44010000 		.4byte	.LASF156
 2010 0c0b 1C       		.byte	0x1c
 2011 0c0c 11       		.byte	0x11
 2012 0c0d 0A       		.byte	0xa
 2013 0c0e 130D0000 		.4byte	0xd13
 2014 0c12 1D       		.uleb128 0x1d
 2015 0c13 0C070000 		.4byte	0x70c
 2016 0c17 02       		.byte	0x2
 2017 0c18 23       		.byte	0x23
 2018 0c19 00       		.uleb128 0
 2019 0c1a 01       		.byte	0x1
 2020 0c1b 15       		.uleb128 0x15
 2021 0c1c 750A0000 		.4byte	.LASF122
 2022 0c20 11       		.byte	0x11
 2023 0c21 0C       		.byte	0xc
 2024 0c22 130D0000 		.4byte	0xd13
 2025 0c26 02       		.byte	0x2
 2026 0c27 23       		.byte	0x23
 2027 0c28 18       		.uleb128 0x18
 2028 0c29 02       		.byte	0x2
 2029 0c2a 16       		.uleb128 0x16
 2030 0c2b 01       		.byte	0x1
 2031 0c2c 44010000 		.4byte	.LASF156
 2032 0c30 11       		.byte	0x11
 2033 0c31 0E       		.byte	0xe
 2034 0c32 190D0000 		.4byte	0xd19
 2035 0c36 01       		.byte	0x1
 2036 0c37 3F0C0000 		.4byte	0xc3f
 2037 0c3b 500C0000 		.4byte	0xc50
 2038 0c3f 17       		.uleb128 0x17
ARM GAS  /tmp/ccboNQdc.s 			page 37


 2039 0c40 190D0000 		.4byte	0xd19
 2040 0c44 01       		.byte	0x1
 2041 0c45 11       		.uleb128 0x11
 2042 0c46 FF040000 		.4byte	0x4ff
 2043 0c4a 11       		.uleb128 0x11
 2044 0c4b 30000000 		.4byte	0x30
 2045 0c4f 00       		.byte	0
 2046 0c50 19       		.uleb128 0x19
 2047 0c51 01       		.byte	0x1
 2048 0c52 A5010000 		.4byte	.LASF126
 2049 0c56 11       		.byte	0x11
 2050 0c57 0F       		.byte	0xf
 2051 0c58 DF0B0000 		.4byte	.LASF157
 2052 0c5c 130D0000 		.4byte	0xd13
 2053 0c60 01       		.byte	0x1
 2054 0c61 690C0000 		.4byte	0xc69
 2055 0c65 700C0000 		.4byte	0xc70
 2056 0c69 17       		.uleb128 0x17
 2057 0c6a 190D0000 		.4byte	0xd19
 2058 0c6e 01       		.byte	0x1
 2059 0c6f 00       		.byte	0
 2060 0c70 18       		.uleb128 0x18
 2061 0c71 01       		.byte	0x1
 2062 0c72 A5010000 		.4byte	.LASF126
 2063 0c76 11       		.byte	0x11
 2064 0c77 10       		.byte	0x10
 2065 0c78 27060000 		.4byte	.LASF158
 2066 0c7c 01       		.byte	0x1
 2067 0c7d 850C0000 		.4byte	0xc85
 2068 0c81 910C0000 		.4byte	0xc91
 2069 0c85 17       		.uleb128 0x17
 2070 0c86 190D0000 		.4byte	0xd19
 2071 0c8a 01       		.byte	0x1
 2072 0c8b 11       		.uleb128 0x11
 2073 0c8c 130D0000 		.4byte	0xd13
 2074 0c90 00       		.byte	0
 2075 0c91 19       		.uleb128 0x19
 2076 0c92 01       		.byte	0x1
 2077 0c93 66020000 		.4byte	.LASF159
 2078 0c97 11       		.byte	0x11
 2079 0c98 11       		.byte	0x11
 2080 0c99 53010000 		.4byte	.LASF160
 2081 0c9d 29000000 		.4byte	0x29
 2082 0ca1 01       		.byte	0x1
 2083 0ca2 AA0C0000 		.4byte	0xcaa
 2084 0ca6 B60C0000 		.4byte	0xcb6
 2085 0caa 17       		.uleb128 0x17
 2086 0cab 190D0000 		.4byte	0xd19
 2087 0caf 01       		.byte	0x1
 2088 0cb0 11       		.uleb128 0x11
 2089 0cb1 B6050000 		.4byte	0x5b6
 2090 0cb5 00       		.byte	0
 2091 0cb6 18       		.uleb128 0x18
 2092 0cb7 01       		.byte	0x1
 2093 0cb8 ED010000 		.4byte	.LASF134
 2094 0cbc 11       		.byte	0x11
 2095 0cbd 12       		.byte	0x12
ARM GAS  /tmp/ccboNQdc.s 			page 38


 2096 0cbe 4E060000 		.4byte	.LASF161
 2097 0cc2 01       		.byte	0x1
 2098 0cc3 CB0C0000 		.4byte	0xccb
 2099 0cc7 E60C0000 		.4byte	0xce6
 2100 0ccb 17       		.uleb128 0x17
 2101 0ccc 190D0000 		.4byte	0xd19
 2102 0cd0 01       		.byte	0x1
 2103 0cd1 11       		.uleb128 0x11
 2104 0cd2 4C0A0000 		.4byte	0xa4c
 2105 0cd6 11       		.uleb128 0x11
 2106 0cd7 F9020000 		.4byte	0x2f9
 2107 0cdb 11       		.uleb128 0x11
 2108 0cdc 30000000 		.4byte	0x30
 2109 0ce0 11       		.uleb128 0x11
 2110 0ce1 1F0D0000 		.4byte	0xd1f
 2111 0ce5 00       		.byte	0
 2112 0ce6 1A       		.uleb128 0x1a
 2113 0ce7 01       		.byte	0x1
 2114 0ce8 ED010000 		.4byte	.LASF134
 2115 0cec 11       		.byte	0x11
 2116 0ced 13       		.byte	0x13
 2117 0cee 20000000 		.4byte	.LASF162
 2118 0cf2 01       		.byte	0x1
 2119 0cf3 F70C0000 		.4byte	0xcf7
 2120 0cf7 17       		.uleb128 0x17
 2121 0cf8 190D0000 		.4byte	0xd19
 2122 0cfc 01       		.byte	0x1
 2123 0cfd 11       		.uleb128 0x11
 2124 0cfe 580A0000 		.4byte	0xa58
 2125 0d02 11       		.uleb128 0x11
 2126 0d03 F9020000 		.4byte	0x2f9
 2127 0d07 11       		.uleb128 0x11
 2128 0d08 30000000 		.4byte	0x30
 2129 0d0c 11       		.uleb128 0x11
 2130 0d0d 1F0D0000 		.4byte	0xd1f
 2131 0d11 00       		.byte	0
 2132 0d12 00       		.byte	0
 2133 0d13 0B       		.uleb128 0xb
 2134 0d14 04       		.byte	0x4
 2135 0d15 060C0000 		.4byte	0xc06
 2136 0d19 0B       		.uleb128 0xb
 2137 0d1a 04       		.byte	0x4
 2138 0d1b 060C0000 		.4byte	0xc06
 2139 0d1f 0B       		.uleb128 0xb
 2140 0d20 04       		.byte	0x4
 2141 0d21 86000000 		.4byte	0x86
 2142 0d25 0F       		.uleb128 0xf
 2143 0d26 74000000 		.4byte	0x74
 2144 0d2a 03       		.uleb128 0x3
 2145 0d2b 050A0000 		.4byte	.LASF163
 2146 0d2f 12       		.byte	0x12
 2147 0d30 55       		.byte	0x55
 2148 0d31 350D0000 		.4byte	0xd35
 2149 0d35 05       		.uleb128 0x5
 2150 0d36 050A0000 		.4byte	.LASF163
 2151 0d3a 1E       		.byte	0x1e
 2152 0d3b 12       		.byte	0x12
ARM GAS  /tmp/ccboNQdc.s 			page 39


 2153 0d3c AB       		.byte	0xab
 2154 0d3d 190E0000 		.4byte	0xe19
 2155 0d41 06       		.uleb128 0x6
 2156 0d42 04       		.byte	0x4
 2157 0d43 12       		.byte	0x12
 2158 0d44 B0       		.byte	0xb0
 2159 0d45 900D0000 		.4byte	0xd90
 2160 0d49 21       		.uleb128 0x21
 2161 0d4a 04       		.byte	0x4
 2162 0d4b 12       		.byte	0x12
 2163 0d4c B1       		.byte	0xb1
 2164 0d4d 600D0000 		.4byte	0xd60
 2165 0d51 08       		.uleb128 0x8
 2166 0d52 240C0000 		.4byte	.LASF164
 2167 0d56 12       		.byte	0x12
 2168 0d57 B2       		.byte	0xb2
 2169 0d58 86000000 		.4byte	0x86
 2170 0d5c 02       		.byte	0x2
 2171 0d5d 23       		.byte	0x23
 2172 0d5e 00       		.uleb128 0
 2173 0d5f 00       		.byte	0
 2174 0d60 21       		.uleb128 0x21
 2175 0d61 04       		.byte	0x4
 2176 0d62 12       		.byte	0x12
 2177 0d63 B4       		.byte	0xb4
 2178 0d64 850D0000 		.4byte	0xd85
 2179 0d68 08       		.uleb128 0x8
 2180 0d69 86050000 		.4byte	.LASF165
 2181 0d6d 12       		.byte	0x12
 2182 0d6e B5       		.byte	0xb5
 2183 0d6f 62000000 		.4byte	0x62
 2184 0d73 02       		.byte	0x2
 2185 0d74 23       		.byte	0x23
 2186 0d75 00       		.uleb128 0
 2187 0d76 08       		.uleb128 0x8
 2188 0d77 F0000000 		.4byte	.LASF166
 2189 0d7b 12       		.byte	0x12
 2190 0d7c B6       		.byte	0xb6
 2191 0d7d 62000000 		.4byte	0x62
 2192 0d81 02       		.byte	0x2
 2193 0d82 23       		.byte	0x23
 2194 0d83 02       		.uleb128 0x2
 2195 0d84 00       		.byte	0
 2196 0d85 22       		.uleb128 0x22
 2197 0d86 490D0000 		.4byte	0xd49
 2198 0d8a 22       		.uleb128 0x22
 2199 0d8b 600D0000 		.4byte	0xd60
 2200 0d8f 00       		.byte	0
 2201 0d90 08       		.uleb128 0x8
 2202 0d91 A5010000 		.4byte	.LASF126
 2203 0d95 12       		.byte	0x12
 2204 0d96 AC       		.byte	0xac
 2205 0d97 7D0E0000 		.4byte	0xe7d
 2206 0d9b 02       		.byte	0x2
 2207 0d9c 23       		.byte	0x23
 2208 0d9d 00       		.uleb128 0
 2209 0d9e 08       		.uleb128 0x8
ARM GAS  /tmp/ccboNQdc.s 			page 40


 2210 0d9f 390B0000 		.4byte	.LASF167
 2211 0da3 12       		.byte	0x12
 2212 0da4 AD       		.byte	0xad
 2213 0da5 720E0000 		.4byte	0xe72
 2214 0da9 02       		.byte	0x2
 2215 0daa 23       		.byte	0x23
 2216 0dab 04       		.uleb128 0x4
 2217 0dac 08       		.uleb128 0x8
 2218 0dad 7D050000 		.4byte	.LASF138
 2219 0db1 12       		.byte	0x12
 2220 0db2 AE       		.byte	0xae
 2221 0db3 190E0000 		.4byte	0xe19
 2222 0db7 02       		.byte	0x2
 2223 0db8 23       		.byte	0x23
 2224 0db9 05       		.uleb128 0x5
 2225 0dba 08       		.uleb128 0x8
 2226 0dbb 340A0000 		.4byte	.LASF168
 2227 0dbf 12       		.byte	0x12
 2228 0dc0 AF       		.byte	0xaf
 2229 0dc1 F9020000 		.4byte	0x2f9
 2230 0dc5 02       		.byte	0x2
 2231 0dc6 23       		.byte	0x23
 2232 0dc7 09       		.uleb128 0x9
 2233 0dc8 23       		.uleb128 0x23
 2234 0dc9 410D0000 		.4byte	0xd41
 2235 0dcd 02       		.byte	0x2
 2236 0dce 23       		.byte	0x23
 2237 0dcf 0D       		.uleb128 0xd
 2238 0dd0 09       		.uleb128 0x9
 2239 0dd1 696400   		.ascii	"id\000"
 2240 0dd4 12       		.byte	0x12
 2241 0dd5 B9       		.byte	0xb9
 2242 0dd6 62000000 		.4byte	0x62
 2243 0dda 02       		.byte	0x2
 2244 0ddb 23       		.byte	0x23
 2245 0ddc 11       		.uleb128 0x11
 2246 0ddd 08       		.uleb128 0x8
 2247 0dde 41050000 		.4byte	.LASF89
 2248 0de2 12       		.byte	0x12
 2249 0de3 BA       		.byte	0xba
 2250 0de4 62000000 		.4byte	0x62
 2251 0de8 02       		.byte	0x2
 2252 0de9 23       		.byte	0x23
 2253 0dea 13       		.uleb128 0x13
 2254 0deb 08       		.uleb128 0x8
 2255 0dec 3C050000 		.4byte	.LASF169
 2256 0df0 12       		.byte	0x12
 2257 0df1 BB       		.byte	0xbb
 2258 0df2 1D050000 		.4byte	0x51d
 2259 0df6 02       		.byte	0x2
 2260 0df7 23       		.byte	0x23
 2261 0df8 15       		.uleb128 0x15
 2262 0df9 09       		.uleb128 0x9
 2263 0dfa 70747200 		.ascii	"ptr\000"
 2264 0dfe 12       		.byte	0x12
 2265 0dff BC       		.byte	0xbc
 2266 0e00 1D050000 		.4byte	0x51d
ARM GAS  /tmp/ccboNQdc.s 			page 41


 2267 0e04 02       		.byte	0x2
 2268 0e05 23       		.byte	0x23
 2269 0e06 19       		.uleb128 0x19
 2270 0e07 24       		.uleb128 0x24
 2271 0e08 E4080000 		.4byte	.LASF201
 2272 0e0c 12       		.byte	0x12
 2273 0e0d BD       		.byte	0xbd
 2274 0e0e 49000000 		.4byte	0x49
 2275 0e12 01       		.byte	0x1
 2276 0e13 07       		.byte	0x7
 2277 0e14 01       		.byte	0x1
 2278 0e15 02       		.byte	0x2
 2279 0e16 23       		.byte	0x23
 2280 0e17 1D       		.uleb128 0x1d
 2281 0e18 00       		.byte	0
 2282 0e19 03       		.uleb128 0x3
 2283 0e1a 51070000 		.4byte	.LASF170
 2284 0e1e 12       		.byte	0x12
 2285 0e1f 5A       		.byte	0x5a
 2286 0e20 240E0000 		.4byte	0xe24
 2287 0e24 0B       		.uleb128 0xb
 2288 0e25 04       		.byte	0x4
 2289 0e26 2A0E0000 		.4byte	0xe2a
 2290 0e2a 20       		.uleb128 0x20
 2291 0e2b 350E0000 		.4byte	0xe35
 2292 0e2f 11       		.uleb128 0x11
 2293 0e30 350E0000 		.4byte	0xe35
 2294 0e34 00       		.byte	0
 2295 0e35 0B       		.uleb128 0xb
 2296 0e36 04       		.byte	0x4
 2297 0e37 2A0D0000 		.4byte	0xd2a
 2298 0e3b 25       		.uleb128 0x25
 2299 0e3c 01       		.byte	0x1
 2300 0e3d 12       		.byte	0x12
 2301 0e3e 6C       		.byte	0x6c
 2302 0e3f C1030000 		.4byte	.LASF202
 2303 0e43 720E0000 		.4byte	0xe72
 2304 0e47 26       		.uleb128 0x26
 2305 0e48 06040000 		.4byte	.LASF171
 2306 0e4c 00       		.sleb128 0
 2307 0e4d 26       		.uleb128 0x26
 2308 0e4e 8F0A0000 		.4byte	.LASF172
 2309 0e52 01       		.sleb128 1
 2310 0e53 26       		.uleb128 0x26
 2311 0e54 3F090000 		.4byte	.LASF173
 2312 0e58 02       		.sleb128 2
 2313 0e59 26       		.uleb128 0x26
 2314 0e5a 5E0C0000 		.4byte	.LASF174
 2315 0e5e 03       		.sleb128 3
 2316 0e5f 26       		.uleb128 0x26
 2317 0e60 20010000 		.4byte	.LASF175
 2318 0e64 04       		.sleb128 4
 2319 0e65 26       		.uleb128 0x26
 2320 0e66 E3070000 		.4byte	.LASF176
 2321 0e6a 05       		.sleb128 5
 2322 0e6b 26       		.uleb128 0x26
 2323 0e6c D3050000 		.4byte	.LASF177
ARM GAS  /tmp/ccboNQdc.s 			page 42


 2324 0e70 06       		.sleb128 6
 2325 0e71 00       		.byte	0
 2326 0e72 03       		.uleb128 0x3
 2327 0e73 E3050000 		.4byte	.LASF178
 2328 0e77 12       		.byte	0x12
 2329 0e78 74       		.byte	0x74
 2330 0e79 3B0E0000 		.4byte	0xe3b
 2331 0e7d 0B       		.uleb128 0xb
 2332 0e7e 04       		.byte	0x4
 2333 0e7f 350D0000 		.4byte	0xd35
 2334 0e83 14       		.uleb128 0x14
 2335 0e84 D4080000 		.4byte	.LASF179
 2336 0e88 3C       		.byte	0x3c
 2337 0e89 13       		.byte	0x13
 2338 0e8a 0A       		.byte	0xa
 2339 0e8b AE0F0000 		.4byte	0xfae
 2340 0e8f 1D       		.uleb128 0x1d
 2341 0e90 0C070000 		.4byte	0x70c
 2342 0e94 02       		.byte	0x2
 2343 0e95 23       		.byte	0x23
 2344 0e96 00       		.uleb128 0
 2345 0e97 01       		.byte	0x1
 2346 0e98 15       		.uleb128 0x15
 2347 0e99 750A0000 		.4byte	.LASF122
 2348 0e9d 13       		.byte	0x13
 2349 0e9e 0C       		.byte	0xc
 2350 0e9f AE0F0000 		.4byte	0xfae
 2351 0ea3 02       		.byte	0x2
 2352 0ea4 23       		.byte	0x23
 2353 0ea5 18       		.uleb128 0x18
 2354 0ea6 03       		.byte	0x3
 2355 0ea7 15       		.uleb128 0x15
 2356 0ea8 01070000 		.4byte	.LASF180
 2357 0eac 13       		.byte	0x13
 2358 0ead 0D       		.byte	0xd
 2359 0eae 2A0D0000 		.4byte	0xd2a
 2360 0eb2 02       		.byte	0x2
 2361 0eb3 23       		.byte	0x23
 2362 0eb4 1C       		.uleb128 0x1c
 2363 0eb5 03       		.byte	0x3
 2364 0eb6 16       		.uleb128 0x16
 2365 0eb7 01       		.byte	0x1
 2366 0eb8 D4080000 		.4byte	.LASF179
 2367 0ebc 13       		.byte	0x13
 2368 0ebd 0F       		.byte	0xf
 2369 0ebe B40F0000 		.4byte	0xfb4
 2370 0ec2 01       		.byte	0x1
 2371 0ec3 CB0E0000 		.4byte	0xecb
 2372 0ec7 DC0E0000 		.4byte	0xedc
 2373 0ecb 17       		.uleb128 0x17
 2374 0ecc B40F0000 		.4byte	0xfb4
 2375 0ed0 01       		.byte	0x1
 2376 0ed1 11       		.uleb128 0x11
 2377 0ed2 FF040000 		.4byte	0x4ff
 2378 0ed6 11       		.uleb128 0x11
 2379 0ed7 30000000 		.4byte	0x30
 2380 0edb 00       		.byte	0
ARM GAS  /tmp/ccboNQdc.s 			page 43


 2381 0edc 19       		.uleb128 0x19
 2382 0edd 01       		.byte	0x1
 2383 0ede A5010000 		.4byte	.LASF126
 2384 0ee2 13       		.byte	0x13
 2385 0ee3 10       		.byte	0x10
 2386 0ee4 EA030000 		.4byte	.LASF181
 2387 0ee8 AE0F0000 		.4byte	0xfae
 2388 0eec 01       		.byte	0x1
 2389 0eed F50E0000 		.4byte	0xef5
 2390 0ef1 FC0E0000 		.4byte	0xefc
 2391 0ef5 17       		.uleb128 0x17
 2392 0ef6 B40F0000 		.4byte	0xfb4
 2393 0efa 01       		.byte	0x1
 2394 0efb 00       		.byte	0
 2395 0efc 18       		.uleb128 0x18
 2396 0efd 01       		.byte	0x1
 2397 0efe A5010000 		.4byte	.LASF126
 2398 0f02 13       		.byte	0x13
 2399 0f03 11       		.byte	0x11
 2400 0f04 F40A0000 		.4byte	.LASF182
 2401 0f08 01       		.byte	0x1
 2402 0f09 110F0000 		.4byte	0xf11
 2403 0f0d 1D0F0000 		.4byte	0xf1d
 2404 0f11 17       		.uleb128 0x17
 2405 0f12 B40F0000 		.4byte	0xfb4
 2406 0f16 01       		.byte	0x1
 2407 0f17 11       		.uleb128 0x11
 2408 0f18 AE0F0000 		.4byte	0xfae
 2409 0f1c 00       		.byte	0
 2410 0f1d 19       		.uleb128 0x19
 2411 0f1e 01       		.byte	0x1
 2412 0f1f 98030000 		.4byte	.LASF183
 2413 0f23 13       		.byte	0x13
 2414 0f24 12       		.byte	0x12
 2415 0f25 0C070000 		.4byte	.LASF184
 2416 0f29 29000000 		.4byte	0x29
 2417 0f2d 01       		.byte	0x1
 2418 0f2e 360F0000 		.4byte	0xf36
 2419 0f32 420F0000 		.4byte	0xf42
 2420 0f36 17       		.uleb128 0x17
 2421 0f37 B40F0000 		.4byte	0xfb4
 2422 0f3b 01       		.byte	0x1
 2423 0f3c 11       		.uleb128 0x11
 2424 0f3d B6050000 		.4byte	0x5b6
 2425 0f41 00       		.byte	0
 2426 0f42 18       		.uleb128 0x18
 2427 0f43 01       		.byte	0x1
 2428 0f44 ED010000 		.4byte	.LASF134
 2429 0f48 13       		.byte	0x13
 2430 0f49 13       		.byte	0x13
 2431 0f4a 870C0000 		.4byte	.LASF185
 2432 0f4e 01       		.byte	0x1
 2433 0f4f 570F0000 		.4byte	0xf57
 2434 0f53 720F0000 		.4byte	0xf72
 2435 0f57 17       		.uleb128 0x17
 2436 0f58 B40F0000 		.4byte	0xfb4
 2437 0f5c 01       		.byte	0x1
ARM GAS  /tmp/ccboNQdc.s 			page 44


 2438 0f5d 11       		.uleb128 0x11
 2439 0f5e 4C0A0000 		.4byte	0xa4c
 2440 0f62 11       		.uleb128 0x11
 2441 0f63 F9020000 		.4byte	0x2f9
 2442 0f67 11       		.uleb128 0x11
 2443 0f68 30000000 		.4byte	0x30
 2444 0f6c 11       		.uleb128 0x11
 2445 0f6d 1F0D0000 		.4byte	0xd1f
 2446 0f71 00       		.byte	0
 2447 0f72 27       		.uleb128 0x27
 2448 0f73 01       		.byte	0x1
 2449 0f74 696400   		.ascii	"id\000"
 2450 0f77 13       		.byte	0x13
 2451 0f78 14       		.byte	0x14
 2452 0f79 FC070000 		.4byte	.LASF186
 2453 0f7d 01       		.byte	0x1
 2454 0f7e 860F0000 		.4byte	0xf86
 2455 0f82 920F0000 		.4byte	0xf92
 2456 0f86 17       		.uleb128 0x17
 2457 0f87 B40F0000 		.4byte	0xfb4
 2458 0f8b 01       		.byte	0x1
 2459 0f8c 11       		.uleb128 0x11
 2460 0f8d 62000000 		.4byte	0x62
 2461 0f91 00       		.byte	0
 2462 0f92 28       		.uleb128 0x28
 2463 0f93 01       		.byte	0x1
 2464 0f94 696400   		.ascii	"id\000"
 2465 0f97 13       		.byte	0x13
 2466 0f98 15       		.byte	0x15
 2467 0f99 590B0000 		.4byte	.LASF187
 2468 0f9d 62000000 		.4byte	0x62
 2469 0fa1 01       		.byte	0x1
 2470 0fa2 A60F0000 		.4byte	0xfa6
 2471 0fa6 17       		.uleb128 0x17
 2472 0fa7 B40F0000 		.4byte	0xfb4
 2473 0fab 01       		.byte	0x1
 2474 0fac 00       		.byte	0
 2475 0fad 00       		.byte	0
 2476 0fae 0B       		.uleb128 0xb
 2477 0faf 04       		.byte	0x4
 2478 0fb0 830E0000 		.4byte	0xe83
 2479 0fb4 0B       		.uleb128 0xb
 2480 0fb5 04       		.byte	0x4
 2481 0fb6 830E0000 		.4byte	0xe83
 2482 0fba 0B       		.uleb128 0xb
 2483 0fbb 04       		.byte	0x4
 2484 0fbc 5B080000 		.4byte	0x85b
 2485 0fc0 29       		.uleb128 0x29
 2486 0fc1 04       		.byte	0x4
 2487 0fc2 29000000 		.4byte	0x29
 2488 0fc6 2A       		.uleb128 0x2a
 2489 0fc7 BB080000 		.4byte	0x8bb
 2490 0fcb 01       		.byte	0x1
 2491 0fcc 07       		.byte	0x7
 2492 0fcd 00       		.byte	0
 2493 0fce D60F0000 		.4byte	0xfd6
 2494 0fd2 23100000 		.4byte	0x1023
ARM GAS  /tmp/ccboNQdc.s 			page 45


 2495 0fd6 2B       		.uleb128 0x2b
 2496 0fd7 47030000 		.4byte	.LASF192
 2497 0fdb 23100000 		.4byte	0x1023
 2498 0fdf 01       		.byte	0x1
 2499 0fe0 2C       		.uleb128 0x2c
 2500 0fe1 D5020000 		.4byte	.LASF106
 2501 0fe5 01       		.byte	0x1
 2502 0fe6 07       		.byte	0x7
 2503 0fe7 FF040000 		.4byte	0x4ff
 2504 0feb 2C       		.uleb128 0x2c
 2505 0fec 4A0B0000 		.4byte	.LASF188
 2506 0ff0 01       		.byte	0x1
 2507 0ff1 07       		.byte	0x7
 2508 0ff2 30000000 		.4byte	0x30
 2509 0ff6 2C       		.uleb128 0x2c
 2510 0ff7 630A0000 		.4byte	.LASF189
 2511 0ffb 01       		.byte	0x1
 2512 0ffc 07       		.byte	0x7
 2513 0ffd 1D050000 		.4byte	0x51d
 2514 1001 2C       		.uleb128 0x2c
 2515 1002 1A060000 		.4byte	.LASF190
 2516 1006 01       		.byte	0x1
 2517 1007 08       		.byte	0x8
 2518 1008 00070000 		.4byte	0x700
 2519 100c 2C       		.uleb128 0x2c
 2520 100d F7000000 		.4byte	.LASF191
 2521 1011 01       		.byte	0x1
 2522 1012 08       		.byte	0x8
 2523 1013 86000000 		.4byte	0x86
 2524 1017 2C       		.uleb128 0x2c
 2525 1018 7D050000 		.4byte	.LASF138
 2526 101c 01       		.byte	0x1
 2527 101d 08       		.byte	0x8
 2528 101e 640A0000 		.4byte	0xa64
 2529 1022 00       		.byte	0
 2530 1023 12       		.uleb128 0x12
 2531 1024 4C0A0000 		.4byte	0xa4c
 2532 1028 2D       		.uleb128 0x2d
 2533 1029 C60F0000 		.4byte	0xfc6
 2534 102d 00000000 		.4byte	.LFB73
 2535 1031 30000000 		.4byte	.LFE73
 2536 1035 00000000 		.4byte	.LLST0
 2537 1039 41100000 		.4byte	0x1041
 2538 103d 7E100000 		.4byte	0x107e
 2539 1041 2E       		.uleb128 0x2e
 2540 1042 D60F0000 		.4byte	0xfd6
 2541 1046 2C000000 		.4byte	.LLST1
 2542 104a 2E       		.uleb128 0x2e
 2543 104b E00F0000 		.4byte	0xfe0
 2544 104f 4A000000 		.4byte	.LLST2
 2545 1053 2E       		.uleb128 0x2e
 2546 1054 EB0F0000 		.4byte	0xfeb
 2547 1058 5D000000 		.4byte	.LLST3
 2548 105c 2E       		.uleb128 0x2e
 2549 105d F60F0000 		.4byte	0xff6
 2550 1061 70000000 		.4byte	.LLST4
 2551 1065 2F       		.uleb128 0x2f
ARM GAS  /tmp/ccboNQdc.s 			page 46


 2552 1066 01100000 		.4byte	0x1001
 2553 106a 02       		.byte	0x2
 2554 106b 91       		.byte	0x91
 2555 106c 00       		.sleb128 0
 2556 106d 2F       		.uleb128 0x2f
 2557 106e 0C100000 		.4byte	0x100c
 2558 1072 02       		.byte	0x2
 2559 1073 91       		.byte	0x91
 2560 1074 04       		.sleb128 4
 2561 1075 2F       		.uleb128 0x2f
 2562 1076 17100000 		.4byte	0x1017
 2563 107a 02       		.byte	0x2
 2564 107b 91       		.byte	0x91
 2565 107c 08       		.sleb128 8
 2566 107d 00       		.byte	0
 2567 107e 30       		.uleb128 0x30
 2568 107f F5080000 		.4byte	0x8f5
 2569 1083 01       		.byte	0x1
 2570 1084 12       		.byte	0x12
 2571 1085 00000000 		.4byte	.LFB75
 2572 1089 04000000 		.4byte	.LFE75
 2573 108d 02       		.byte	0x2
 2574 108e 7D       		.byte	0x7d
 2575 108f 00       		.sleb128 0
 2576 1090 98100000 		.4byte	0x1098
 2577 1094 A7100000 		.4byte	0x10a7
 2578 1098 31       		.uleb128 0x31
 2579 1099 47030000 		.4byte	.LASF192
 2580 109d 23100000 		.4byte	0x1023
 2581 10a1 01       		.byte	0x1
 2582 10a2 83000000 		.4byte	.LLST5
 2583 10a6 00       		.byte	0
 2584 10a7 30       		.uleb128 0x30
 2585 10a8 15090000 		.4byte	0x915
 2586 10ac 01       		.byte	0x1
 2587 10ad 16       		.byte	0x16
 2588 10ae 00000000 		.4byte	.LFB76
 2589 10b2 04000000 		.4byte	.LFE76
 2590 10b6 02       		.byte	0x2
 2591 10b7 7D       		.byte	0x7d
 2592 10b8 00       		.sleb128 0
 2593 10b9 C1100000 		.4byte	0x10c1
 2594 10bd DB100000 		.4byte	0x10db
 2595 10c1 32       		.uleb128 0x32
 2596 10c2 47030000 		.4byte	.LASF192
 2597 10c6 23100000 		.4byte	0x1023
 2598 10ca 01       		.byte	0x1
 2599 10cb 01       		.byte	0x1
 2600 10cc 50       		.byte	0x50
 2601 10cd 33       		.uleb128 0x33
 2602 10ce A5010000 		.4byte	.LASF126
 2603 10d2 01       		.byte	0x1
 2604 10d3 16       		.byte	0x16
 2605 10d4 BA0F0000 		.4byte	0xfba
 2606 10d8 01       		.byte	0x1
 2607 10d9 51       		.byte	0x51
 2608 10da 00       		.byte	0
ARM GAS  /tmp/ccboNQdc.s 			page 47


 2609 10db 30       		.uleb128 0x30
 2610 10dc 36090000 		.4byte	0x936
 2611 10e0 01       		.byte	0x1
 2612 10e1 1A       		.byte	0x1a
 2613 10e2 00000000 		.4byte	.LFB77
 2614 10e6 04000000 		.4byte	.LFE77
 2615 10ea 02       		.byte	0x2
 2616 10eb 7D       		.byte	0x7d
 2617 10ec 00       		.sleb128 0
 2618 10ed F5100000 		.4byte	0x10f5
 2619 10f1 0F110000 		.4byte	0x110f
 2620 10f5 32       		.uleb128 0x32
 2621 10f6 47030000 		.4byte	.LASF192
 2622 10fa 23100000 		.4byte	0x1023
 2623 10fe 01       		.byte	0x1
 2624 10ff 01       		.byte	0x1
 2625 1100 50       		.byte	0x50
 2626 1101 34       		.uleb128 0x34
 2627 1102 73756200 		.ascii	"sub\000"
 2628 1106 01       		.byte	0x1
 2629 1107 1A       		.byte	0x1a
 2630 1108 BA0F0000 		.4byte	0xfba
 2631 110c 01       		.byte	0x1
 2632 110d 51       		.byte	0x51
 2633 110e 00       		.byte	0
 2634 110f 2A       		.uleb128 0x2a
 2635 1110 7C090000 		.4byte	0x97c
 2636 1114 01       		.byte	0x1
 2637 1115 1F       		.byte	0x1f
 2638 1116 01       		.byte	0x1
 2639 1117 1F110000 		.4byte	0x111f
 2640 111b 3E110000 		.4byte	0x113e
 2641 111f 2B       		.uleb128 0x2b
 2642 1120 47030000 		.4byte	.LASF192
 2643 1124 23100000 		.4byte	0x1023
 2644 1128 01       		.byte	0x1
 2645 1129 35       		.uleb128 0x35
 2646 112a 6D736700 		.ascii	"msg\000"
 2647 112e 01       		.byte	0x1
 2648 112f 1F       		.byte	0x1f
 2649 1130 B6050000 		.4byte	0x5b6
 2650 1134 35       		.uleb128 0x35
 2651 1135 6E00     		.ascii	"n\000"
 2652 1137 01       		.byte	0x1
 2653 1138 1F       		.byte	0x1f
 2654 1139 3E110000 		.4byte	0x113e
 2655 113d 00       		.byte	0
 2656 113e 12       		.uleb128 0x12
 2657 113f C00F0000 		.4byte	0xfc0
 2658 1143 2D       		.uleb128 0x2d
 2659 1144 0F110000 		.4byte	0x110f
 2660 1148 00000000 		.4byte	.LFB78
 2661 114c 2A000000 		.4byte	.LFE78
 2662 1150 96000000 		.4byte	.LLST6
 2663 1154 5C110000 		.4byte	0x115c
 2664 1158 78110000 		.4byte	0x1178
 2665 115c 2E       		.uleb128 0x2e
ARM GAS  /tmp/ccboNQdc.s 			page 48


 2666 115d 1F110000 		.4byte	0x111f
 2667 1161 B6000000 		.4byte	.LLST7
 2668 1165 2E       		.uleb128 0x2e
 2669 1166 29110000 		.4byte	0x1129
 2670 116a D4000000 		.4byte	.LLST8
 2671 116e 2E       		.uleb128 0x2e
 2672 116f 34110000 		.4byte	0x1134
 2673 1173 F2000000 		.4byte	.LLST9
 2674 1177 00       		.byte	0
 2675 1178 36       		.uleb128 0x36
 2676 1179 57090000 		.4byte	0x957
 2677 117d 01       		.byte	0x1
 2678 117e 2A       		.byte	0x2a
 2679 117f 00000000 		.4byte	.LFB79
 2680 1183 22000000 		.4byte	.LFE79
 2681 1187 10010000 		.4byte	.LLST10
 2682 118b 93110000 		.4byte	0x1193
 2683 118f EE110000 		.4byte	0x11ee
 2684 1193 31       		.uleb128 0x31
 2685 1194 47030000 		.4byte	.LASF192
 2686 1198 23100000 		.4byte	0x1023
 2687 119c 01       		.byte	0x1
 2688 119d 30010000 		.4byte	.LLST11
 2689 11a1 37       		.uleb128 0x37
 2690 11a2 6D736700 		.ascii	"msg\000"
 2691 11a6 01       		.byte	0x1
 2692 11a7 2A       		.byte	0x2a
 2693 11a8 B6050000 		.4byte	0x5b6
 2694 11ac 4E010000 		.4byte	.LLST12
 2695 11b0 38       		.uleb128 0x38
 2696 11b1 00000000 		.4byte	.Ldebug_ranges0+0
 2697 11b5 39       		.uleb128 0x39
 2698 11b6 6E00     		.ascii	"n\000"
 2699 11b8 01       		.byte	0x1
 2700 11b9 2B       		.byte	0x2b
 2701 11ba 29000000 		.4byte	0x29
 2702 11be 3A       		.uleb128 0x3a
 2703 11bf 0F110000 		.4byte	0x110f
 2704 11c3 04000000 		.4byte	.LBB8
 2705 11c7 18000000 		.4byte	.Ldebug_ranges0+0x18
 2706 11cb 01       		.byte	0x1
 2707 11cc 2C       		.byte	0x2c
 2708 11cd 2F       		.uleb128 0x2f
 2709 11ce 34110000 		.4byte	0x1134
 2710 11d2 06       		.byte	0x6
 2711 11d3 F2       		.byte	0xf2
 2712 11d4 B5110000 		.4byte	.Ldebug_info0+4533
 2713 11d8 00       		.sleb128 0
 2714 11d9 2E       		.uleb128 0x2e
 2715 11da 29110000 		.4byte	0x1129
 2716 11de 6C010000 		.4byte	.LLST13
 2717 11e2 2E       		.uleb128 0x2e
 2718 11e3 1F110000 		.4byte	0x111f
 2719 11e7 8A010000 		.4byte	.LLST14
 2720 11eb 00       		.byte	0
 2721 11ec 00       		.byte	0
 2722 11ed 00       		.byte	0
ARM GAS  /tmp/ccboNQdc.s 			page 49


 2723 11ee 36       		.uleb128 0x36
 2724 11ef A6090000 		.4byte	0x9a6
 2725 11f3 01       		.byte	0x1
 2726 11f4 2F       		.byte	0x2f
 2727 11f5 00000000 		.4byte	.LFB80
 2728 11f9 2C000000 		.4byte	.LFE80
 2729 11fd A8010000 		.4byte	.LLST15
 2730 1201 09120000 		.4byte	0x1209
 2731 1205 36120000 		.4byte	0x1236
 2732 1209 31       		.uleb128 0x31
 2733 120a 47030000 		.4byte	.LASF192
 2734 120e 23100000 		.4byte	0x1023
 2735 1212 01       		.byte	0x1
 2736 1213 D4010000 		.4byte	.LLST16
 2737 1217 37       		.uleb128 0x37
 2738 1218 70756200 		.ascii	"pub\000"
 2739 121c 01       		.byte	0x1
 2740 121d 2F       		.byte	0x2f
 2741 121e 190D0000 		.4byte	0xd19
 2742 1222 F2010000 		.4byte	.LLST17
 2743 1226 3B       		.uleb128 0x3b
 2744 1227 CE080000 		.4byte	.LASF193
 2745 122b 01       		.byte	0x1
 2746 122c 2F       		.byte	0x2f
 2747 122d 05010000 		.4byte	0x105
 2748 1231 10020000 		.4byte	.LLST18
 2749 1235 00       		.byte	0
 2750 1236 36       		.uleb128 0x36
 2751 1237 CC090000 		.4byte	0x9cc
 2752 123b 01       		.byte	0x1
 2753 123c 36       		.byte	0x36
 2754 123d 00000000 		.4byte	.LFB81
 2755 1241 2C000000 		.4byte	.LFE81
 2756 1245 23020000 		.4byte	.LLST19
 2757 1249 51120000 		.4byte	0x1251
 2758 124d 7E120000 		.4byte	0x127e
 2759 1251 31       		.uleb128 0x31
 2760 1252 47030000 		.4byte	.LASF192
 2761 1256 23100000 		.4byte	0x1023
 2762 125a 01       		.byte	0x1
 2763 125b 4F020000 		.4byte	.LLST20
 2764 125f 37       		.uleb128 0x37
 2765 1260 70756200 		.ascii	"pub\000"
 2766 1264 01       		.byte	0x1
 2767 1265 36       		.byte	0x36
 2768 1266 B40F0000 		.4byte	0xfb4
 2769 126a 6D020000 		.4byte	.LLST21
 2770 126e 3B       		.uleb128 0x3b
 2771 126f CE080000 		.4byte	.LASF193
 2772 1273 01       		.byte	0x1
 2773 1274 36       		.byte	0x36
 2774 1275 05010000 		.4byte	0x105
 2775 1279 8B020000 		.4byte	.LLST22
 2776 127d 00       		.byte	0
 2777 127e 30       		.uleb128 0x30
 2778 127f F2090000 		.4byte	0x9f2
 2779 1283 01       		.byte	0x1
ARM GAS  /tmp/ccboNQdc.s 			page 50


 2780 1284 3D       		.byte	0x3d
 2781 1285 00000000 		.4byte	.LFB82
 2782 1289 08000000 		.4byte	.LFE82
 2783 128d 02       		.byte	0x2
 2784 128e 7D       		.byte	0x7d
 2785 128f 00       		.sleb128 0
 2786 1290 98120000 		.4byte	0x1298
 2787 1294 A7120000 		.4byte	0x12a7
 2788 1298 31       		.uleb128 0x31
 2789 1299 47030000 		.4byte	.LASF192
 2790 129d 23100000 		.4byte	0x1023
 2791 12a1 01       		.byte	0x1
 2792 12a2 9E020000 		.4byte	.LLST23
 2793 12a6 00       		.byte	0
 2794 12a7 30       		.uleb128 0x30
 2795 12a8 0E0A0000 		.4byte	0xa0e
 2796 12ac 01       		.byte	0x1
 2797 12ad 42       		.byte	0x42
 2798 12ae 00000000 		.4byte	.LFB83
 2799 12b2 04000000 		.4byte	.LFE83
 2800 12b6 02       		.byte	0x2
 2801 12b7 7D       		.byte	0x7d
 2802 12b8 00       		.sleb128 0
 2803 12b9 C1120000 		.4byte	0x12c1
 2804 12bd D0120000 		.4byte	0x12d0
 2805 12c1 31       		.uleb128 0x31
 2806 12c2 47030000 		.4byte	.LASF192
 2807 12c6 23100000 		.4byte	0x1023
 2808 12ca 01       		.byte	0x1
 2809 12cb BC020000 		.4byte	.LLST24
 2810 12cf 00       		.byte	0
 2811 12d0 36       		.uleb128 0x36
 2812 12d1 2E0A0000 		.4byte	0xa2e
 2813 12d5 01       		.byte	0x1
 2814 12d6 46       		.byte	0x46
 2815 12d7 00000000 		.4byte	.LFB84
 2816 12db 0A000000 		.4byte	.LFE84
 2817 12df CF020000 		.4byte	.LLST25
 2818 12e3 EB120000 		.4byte	0x12eb
 2819 12e7 09130000 		.4byte	0x1309
 2820 12eb 31       		.uleb128 0x31
 2821 12ec 47030000 		.4byte	.LASF192
 2822 12f0 23100000 		.4byte	0x1023
 2823 12f4 01       		.byte	0x1
 2824 12f5 EF020000 		.4byte	.LLST26
 2825 12f9 37       		.uleb128 0x37
 2826 12fa 6D736700 		.ascii	"msg\000"
 2827 12fe 01       		.byte	0x1
 2828 12ff 46       		.byte	0x46
 2829 1300 B6050000 		.4byte	0x5b6
 2830 1304 02030000 		.4byte	.LLST27
 2831 1308 00       		.byte	0
 2832 1309 3C       		.uleb128 0x3c
 2833 130a 530B0000 		.4byte	.LASF194
 2834 130e 08       		.byte	0x8
 2835 130f 68       		.byte	0x68
 2836 1310 1D040000 		.4byte	0x41d
ARM GAS  /tmp/ccboNQdc.s 			page 51


 2837 1314 01       		.byte	0x1
 2838 1315 01       		.byte	0x1
 2839 1316 3D       		.uleb128 0x3d
 2840 1317 80010000 		.4byte	.LASF195
 2841 131b 14       		.byte	0x14
 2842 131c 0706     		.2byte	0x607
 2843 131e 250D0000 		.4byte	0xd25
 2844 1322 01       		.byte	0x1
 2845 1323 01       		.byte	0x1
 2846 1324 00       		.byte	0
 2847              		.section	.debug_abbrev,"",%progbits
 2848              	.Ldebug_abbrev0:
 2849 0000 01       		.uleb128 0x1
 2850 0001 11       		.uleb128 0x11
 2851 0002 01       		.byte	0x1
 2852 0003 25       		.uleb128 0x25
 2853 0004 0E       		.uleb128 0xe
 2854 0005 13       		.uleb128 0x13
 2855 0006 0B       		.uleb128 0xb
 2856 0007 03       		.uleb128 0x3
 2857 0008 0E       		.uleb128 0xe
 2858 0009 1B       		.uleb128 0x1b
 2859 000a 0E       		.uleb128 0xe
 2860 000b 11       		.uleb128 0x11
 2861 000c 01       		.uleb128 0x1
 2862 000d 52       		.uleb128 0x52
 2863 000e 01       		.uleb128 0x1
 2864 000f 55       		.uleb128 0x55
 2865 0010 06       		.uleb128 0x6
 2866 0011 10       		.uleb128 0x10
 2867 0012 06       		.uleb128 0x6
 2868 0013 00       		.byte	0
 2869 0014 00       		.byte	0
 2870 0015 02       		.uleb128 0x2
 2871 0016 24       		.uleb128 0x24
 2872 0017 00       		.byte	0
 2873 0018 0B       		.uleb128 0xb
 2874 0019 0B       		.uleb128 0xb
 2875 001a 3E       		.uleb128 0x3e
 2876 001b 0B       		.uleb128 0xb
 2877 001c 03       		.uleb128 0x3
 2878 001d 08       		.uleb128 0x8
 2879 001e 00       		.byte	0
 2880 001f 00       		.byte	0
 2881 0020 03       		.uleb128 0x3
 2882 0021 16       		.uleb128 0x16
 2883 0022 00       		.byte	0
 2884 0023 03       		.uleb128 0x3
 2885 0024 0E       		.uleb128 0xe
 2886 0025 3A       		.uleb128 0x3a
 2887 0026 0B       		.uleb128 0xb
 2888 0027 3B       		.uleb128 0x3b
 2889 0028 0B       		.uleb128 0xb
 2890 0029 49       		.uleb128 0x49
 2891 002a 13       		.uleb128 0x13
 2892 002b 00       		.byte	0
 2893 002c 00       		.byte	0
ARM GAS  /tmp/ccboNQdc.s 			page 52


 2894 002d 04       		.uleb128 0x4
 2895 002e 24       		.uleb128 0x24
 2896 002f 00       		.byte	0
 2897 0030 0B       		.uleb128 0xb
 2898 0031 0B       		.uleb128 0xb
 2899 0032 3E       		.uleb128 0x3e
 2900 0033 0B       		.uleb128 0xb
 2901 0034 03       		.uleb128 0x3
 2902 0035 0E       		.uleb128 0xe
 2903 0036 00       		.byte	0
 2904 0037 00       		.byte	0
 2905 0038 05       		.uleb128 0x5
 2906 0039 13       		.uleb128 0x13
 2907 003a 01       		.byte	0x1
 2908 003b 03       		.uleb128 0x3
 2909 003c 0E       		.uleb128 0xe
 2910 003d 0B       		.uleb128 0xb
 2911 003e 0B       		.uleb128 0xb
 2912 003f 3A       		.uleb128 0x3a
 2913 0040 0B       		.uleb128 0xb
 2914 0041 3B       		.uleb128 0x3b
 2915 0042 0B       		.uleb128 0xb
 2916 0043 01       		.uleb128 0x1
 2917 0044 13       		.uleb128 0x13
 2918 0045 00       		.byte	0
 2919 0046 00       		.byte	0
 2920 0047 06       		.uleb128 0x6
 2921 0048 17       		.uleb128 0x17
 2922 0049 01       		.byte	0x1
 2923 004a 0B       		.uleb128 0xb
 2924 004b 0B       		.uleb128 0xb
 2925 004c 3A       		.uleb128 0x3a
 2926 004d 0B       		.uleb128 0xb
 2927 004e 3B       		.uleb128 0x3b
 2928 004f 0B       		.uleb128 0xb
 2929 0050 01       		.uleb128 0x1
 2930 0051 13       		.uleb128 0x13
 2931 0052 00       		.byte	0
 2932 0053 00       		.byte	0
 2933 0054 07       		.uleb128 0x7
 2934 0055 0D       		.uleb128 0xd
 2935 0056 00       		.byte	0
 2936 0057 03       		.uleb128 0x3
 2937 0058 0E       		.uleb128 0xe
 2938 0059 3A       		.uleb128 0x3a
 2939 005a 0B       		.uleb128 0xb
 2940 005b 3B       		.uleb128 0x3b
 2941 005c 0B       		.uleb128 0xb
 2942 005d 49       		.uleb128 0x49
 2943 005e 13       		.uleb128 0x13
 2944 005f 00       		.byte	0
 2945 0060 00       		.byte	0
 2946 0061 08       		.uleb128 0x8
 2947 0062 0D       		.uleb128 0xd
 2948 0063 00       		.byte	0
 2949 0064 03       		.uleb128 0x3
 2950 0065 0E       		.uleb128 0xe
ARM GAS  /tmp/ccboNQdc.s 			page 53


 2951 0066 3A       		.uleb128 0x3a
 2952 0067 0B       		.uleb128 0xb
 2953 0068 3B       		.uleb128 0x3b
 2954 0069 0B       		.uleb128 0xb
 2955 006a 49       		.uleb128 0x49
 2956 006b 13       		.uleb128 0x13
 2957 006c 38       		.uleb128 0x38
 2958 006d 0A       		.uleb128 0xa
 2959 006e 00       		.byte	0
 2960 006f 00       		.byte	0
 2961 0070 09       		.uleb128 0x9
 2962 0071 0D       		.uleb128 0xd
 2963 0072 00       		.byte	0
 2964 0073 03       		.uleb128 0x3
 2965 0074 08       		.uleb128 0x8
 2966 0075 3A       		.uleb128 0x3a
 2967 0076 0B       		.uleb128 0xb
 2968 0077 3B       		.uleb128 0x3b
 2969 0078 0B       		.uleb128 0xb
 2970 0079 49       		.uleb128 0x49
 2971 007a 13       		.uleb128 0x13
 2972 007b 38       		.uleb128 0x38
 2973 007c 0A       		.uleb128 0xa
 2974 007d 00       		.byte	0
 2975 007e 00       		.byte	0
 2976 007f 0A       		.uleb128 0xa
 2977 0080 13       		.uleb128 0x13
 2978 0081 01       		.byte	0x1
 2979 0082 0B       		.uleb128 0xb
 2980 0083 0B       		.uleb128 0xb
 2981 0084 3A       		.uleb128 0x3a
 2982 0085 0B       		.uleb128 0xb
 2983 0086 3B       		.uleb128 0x3b
 2984 0087 0B       		.uleb128 0xb
 2985 0088 8740     		.uleb128 0x2007
 2986 008a 0E       		.uleb128 0xe
 2987 008b 01       		.uleb128 0x1
 2988 008c 13       		.uleb128 0x13
 2989 008d 00       		.byte	0
 2990 008e 00       		.byte	0
 2991 008f 0B       		.uleb128 0xb
 2992 0090 0F       		.uleb128 0xf
 2993 0091 00       		.byte	0
 2994 0092 0B       		.uleb128 0xb
 2995 0093 0B       		.uleb128 0xb
 2996 0094 49       		.uleb128 0x49
 2997 0095 13       		.uleb128 0x13
 2998 0096 00       		.byte	0
 2999 0097 00       		.byte	0
 3000 0098 0C       		.uleb128 0xc
 3001 0099 0F       		.uleb128 0xf
 3002 009a 00       		.byte	0
 3003 009b 0B       		.uleb128 0xb
 3004 009c 0B       		.uleb128 0xb
 3005 009d 00       		.byte	0
 3006 009e 00       		.byte	0
 3007 009f 0D       		.uleb128 0xd
ARM GAS  /tmp/ccboNQdc.s 			page 54


 3008 00a0 13       		.uleb128 0x13
 3009 00a1 01       		.byte	0x1
 3010 00a2 03       		.uleb128 0x3
 3011 00a3 0E       		.uleb128 0xe
 3012 00a4 0B       		.uleb128 0xb
 3013 00a5 0B       		.uleb128 0xb
 3014 00a6 3A       		.uleb128 0x3a
 3015 00a7 0B       		.uleb128 0xb
 3016 00a8 3B       		.uleb128 0x3b
 3017 00a9 05       		.uleb128 0x5
 3018 00aa 01       		.uleb128 0x1
 3019 00ab 13       		.uleb128 0x13
 3020 00ac 00       		.byte	0
 3021 00ad 00       		.byte	0
 3022 00ae 0E       		.uleb128 0xe
 3023 00af 0D       		.uleb128 0xd
 3024 00b0 00       		.byte	0
 3025 00b1 03       		.uleb128 0x3
 3026 00b2 08       		.uleb128 0x8
 3027 00b3 3A       		.uleb128 0x3a
 3028 00b4 0B       		.uleb128 0xb
 3029 00b5 3B       		.uleb128 0x3b
 3030 00b6 05       		.uleb128 0x5
 3031 00b7 49       		.uleb128 0x49
 3032 00b8 13       		.uleb128 0x13
 3033 00b9 38       		.uleb128 0x38
 3034 00ba 0A       		.uleb128 0xa
 3035 00bb 00       		.byte	0
 3036 00bc 00       		.byte	0
 3037 00bd 0F       		.uleb128 0xf
 3038 00be 35       		.uleb128 0x35
 3039 00bf 00       		.byte	0
 3040 00c0 49       		.uleb128 0x49
 3041 00c1 13       		.uleb128 0x13
 3042 00c2 00       		.byte	0
 3043 00c3 00       		.byte	0
 3044 00c4 10       		.uleb128 0x10
 3045 00c5 15       		.uleb128 0x15
 3046 00c6 01       		.byte	0x1
 3047 00c7 49       		.uleb128 0x49
 3048 00c8 13       		.uleb128 0x13
 3049 00c9 01       		.uleb128 0x1
 3050 00ca 13       		.uleb128 0x13
 3051 00cb 00       		.byte	0
 3052 00cc 00       		.byte	0
 3053 00cd 11       		.uleb128 0x11
 3054 00ce 05       		.uleb128 0x5
 3055 00cf 00       		.byte	0
 3056 00d0 49       		.uleb128 0x49
 3057 00d1 13       		.uleb128 0x13
 3058 00d2 00       		.byte	0
 3059 00d3 00       		.byte	0
 3060 00d4 12       		.uleb128 0x12
 3061 00d5 26       		.uleb128 0x26
 3062 00d6 00       		.byte	0
 3063 00d7 49       		.uleb128 0x49
 3064 00d8 13       		.uleb128 0x13
ARM GAS  /tmp/ccboNQdc.s 			page 55


 3065 00d9 00       		.byte	0
 3066 00da 00       		.byte	0
 3067 00db 13       		.uleb128 0x13
 3068 00dc 39       		.uleb128 0x39
 3069 00dd 00       		.byte	0
 3070 00de 03       		.uleb128 0x3
 3071 00df 0E       		.uleb128 0xe
 3072 00e0 3A       		.uleb128 0x3a
 3073 00e1 0B       		.uleb128 0xb
 3074 00e2 3B       		.uleb128 0x3b
 3075 00e3 0B       		.uleb128 0xb
 3076 00e4 00       		.byte	0
 3077 00e5 00       		.byte	0
 3078 00e6 14       		.uleb128 0x14
 3079 00e7 02       		.uleb128 0x2
 3080 00e8 01       		.byte	0x1
 3081 00e9 03       		.uleb128 0x3
 3082 00ea 0E       		.uleb128 0xe
 3083 00eb 0B       		.uleb128 0xb
 3084 00ec 0B       		.uleb128 0xb
 3085 00ed 3A       		.uleb128 0x3a
 3086 00ee 0B       		.uleb128 0xb
 3087 00ef 3B       		.uleb128 0x3b
 3088 00f0 0B       		.uleb128 0xb
 3089 00f1 01       		.uleb128 0x1
 3090 00f2 13       		.uleb128 0x13
 3091 00f3 00       		.byte	0
 3092 00f4 00       		.byte	0
 3093 00f5 15       		.uleb128 0x15
 3094 00f6 0D       		.uleb128 0xd
 3095 00f7 00       		.byte	0
 3096 00f8 03       		.uleb128 0x3
 3097 00f9 0E       		.uleb128 0xe
 3098 00fa 3A       		.uleb128 0x3a
 3099 00fb 0B       		.uleb128 0xb
 3100 00fc 3B       		.uleb128 0x3b
 3101 00fd 0B       		.uleb128 0xb
 3102 00fe 49       		.uleb128 0x49
 3103 00ff 13       		.uleb128 0x13
 3104 0100 38       		.uleb128 0x38
 3105 0101 0A       		.uleb128 0xa
 3106 0102 32       		.uleb128 0x32
 3107 0103 0B       		.uleb128 0xb
 3108 0104 00       		.byte	0
 3109 0105 00       		.byte	0
 3110 0106 16       		.uleb128 0x16
 3111 0107 2E       		.uleb128 0x2e
 3112 0108 01       		.byte	0x1
 3113 0109 3F       		.uleb128 0x3f
 3114 010a 0C       		.uleb128 0xc
 3115 010b 03       		.uleb128 0x3
 3116 010c 0E       		.uleb128 0xe
 3117 010d 3A       		.uleb128 0x3a
 3118 010e 0B       		.uleb128 0xb
 3119 010f 3B       		.uleb128 0x3b
 3120 0110 0B       		.uleb128 0xb
 3121 0111 49       		.uleb128 0x49
ARM GAS  /tmp/ccboNQdc.s 			page 56


 3122 0112 13       		.uleb128 0x13
 3123 0113 3C       		.uleb128 0x3c
 3124 0114 0C       		.uleb128 0xc
 3125 0115 64       		.uleb128 0x64
 3126 0116 13       		.uleb128 0x13
 3127 0117 01       		.uleb128 0x1
 3128 0118 13       		.uleb128 0x13
 3129 0119 00       		.byte	0
 3130 011a 00       		.byte	0
 3131 011b 17       		.uleb128 0x17
 3132 011c 05       		.uleb128 0x5
 3133 011d 00       		.byte	0
 3134 011e 49       		.uleb128 0x49
 3135 011f 13       		.uleb128 0x13
 3136 0120 34       		.uleb128 0x34
 3137 0121 0C       		.uleb128 0xc
 3138 0122 00       		.byte	0
 3139 0123 00       		.byte	0
 3140 0124 18       		.uleb128 0x18
 3141 0125 2E       		.uleb128 0x2e
 3142 0126 01       		.byte	0x1
 3143 0127 3F       		.uleb128 0x3f
 3144 0128 0C       		.uleb128 0xc
 3145 0129 03       		.uleb128 0x3
 3146 012a 0E       		.uleb128 0xe
 3147 012b 3A       		.uleb128 0x3a
 3148 012c 0B       		.uleb128 0xb
 3149 012d 3B       		.uleb128 0x3b
 3150 012e 0B       		.uleb128 0xb
 3151 012f 8740     		.uleb128 0x2007
 3152 0131 0E       		.uleb128 0xe
 3153 0132 3C       		.uleb128 0x3c
 3154 0133 0C       		.uleb128 0xc
 3155 0134 64       		.uleb128 0x64
 3156 0135 13       		.uleb128 0x13
 3157 0136 01       		.uleb128 0x1
 3158 0137 13       		.uleb128 0x13
 3159 0138 00       		.byte	0
 3160 0139 00       		.byte	0
 3161 013a 19       		.uleb128 0x19
 3162 013b 2E       		.uleb128 0x2e
 3163 013c 01       		.byte	0x1
 3164 013d 3F       		.uleb128 0x3f
 3165 013e 0C       		.uleb128 0xc
 3166 013f 03       		.uleb128 0x3
 3167 0140 0E       		.uleb128 0xe
 3168 0141 3A       		.uleb128 0x3a
 3169 0142 0B       		.uleb128 0xb
 3170 0143 3B       		.uleb128 0x3b
 3171 0144 0B       		.uleb128 0xb
 3172 0145 8740     		.uleb128 0x2007
 3173 0147 0E       		.uleb128 0xe
 3174 0148 49       		.uleb128 0x49
 3175 0149 13       		.uleb128 0x13
 3176 014a 3C       		.uleb128 0x3c
 3177 014b 0C       		.uleb128 0xc
 3178 014c 64       		.uleb128 0x64
ARM GAS  /tmp/ccboNQdc.s 			page 57


 3179 014d 13       		.uleb128 0x13
 3180 014e 01       		.uleb128 0x1
 3181 014f 13       		.uleb128 0x13
 3182 0150 00       		.byte	0
 3183 0151 00       		.byte	0
 3184 0152 1A       		.uleb128 0x1a
 3185 0153 2E       		.uleb128 0x2e
 3186 0154 01       		.byte	0x1
 3187 0155 3F       		.uleb128 0x3f
 3188 0156 0C       		.uleb128 0xc
 3189 0157 03       		.uleb128 0x3
 3190 0158 0E       		.uleb128 0xe
 3191 0159 3A       		.uleb128 0x3a
 3192 015a 0B       		.uleb128 0xb
 3193 015b 3B       		.uleb128 0x3b
 3194 015c 0B       		.uleb128 0xb
 3195 015d 8740     		.uleb128 0x2007
 3196 015f 0E       		.uleb128 0xe
 3197 0160 3C       		.uleb128 0x3c
 3198 0161 0C       		.uleb128 0xc
 3199 0162 64       		.uleb128 0x64
 3200 0163 13       		.uleb128 0x13
 3201 0164 00       		.byte	0
 3202 0165 00       		.byte	0
 3203 0166 1B       		.uleb128 0x1b
 3204 0167 2E       		.uleb128 0x2e
 3205 0168 01       		.byte	0x1
 3206 0169 3F       		.uleb128 0x3f
 3207 016a 0C       		.uleb128 0xc
 3208 016b 03       		.uleb128 0x3
 3209 016c 08       		.uleb128 0x8
 3210 016d 3A       		.uleb128 0x3a
 3211 016e 0B       		.uleb128 0xb
 3212 016f 3B       		.uleb128 0x3b
 3213 0170 0B       		.uleb128 0xb
 3214 0171 8740     		.uleb128 0x2007
 3215 0173 0E       		.uleb128 0xe
 3216 0174 49       		.uleb128 0x49
 3217 0175 13       		.uleb128 0x13
 3218 0176 3C       		.uleb128 0x3c
 3219 0177 0C       		.uleb128 0xc
 3220 0178 64       		.uleb128 0x64
 3221 0179 13       		.uleb128 0x13
 3222 017a 01       		.uleb128 0x1
 3223 017b 13       		.uleb128 0x13
 3224 017c 00       		.byte	0
 3225 017d 00       		.byte	0
 3226 017e 1C       		.uleb128 0x1c
 3227 017f 2E       		.uleb128 0x2e
 3228 0180 01       		.byte	0x1
 3229 0181 3F       		.uleb128 0x3f
 3230 0182 0C       		.uleb128 0xc
 3231 0183 03       		.uleb128 0x3
 3232 0184 0E       		.uleb128 0xe
 3233 0185 3A       		.uleb128 0x3a
 3234 0186 0B       		.uleb128 0xb
 3235 0187 3B       		.uleb128 0x3b
ARM GAS  /tmp/ccboNQdc.s 			page 58


 3236 0188 0B       		.uleb128 0xb
 3237 0189 8740     		.uleb128 0x2007
 3238 018b 0E       		.uleb128 0xe
 3239 018c 49       		.uleb128 0x49
 3240 018d 13       		.uleb128 0x13
 3241 018e 3C       		.uleb128 0x3c
 3242 018f 0C       		.uleb128 0xc
 3243 0190 64       		.uleb128 0x64
 3244 0191 13       		.uleb128 0x13
 3245 0192 00       		.byte	0
 3246 0193 00       		.byte	0
 3247 0194 1D       		.uleb128 0x1d
 3248 0195 1C       		.uleb128 0x1c
 3249 0196 00       		.byte	0
 3250 0197 49       		.uleb128 0x49
 3251 0198 13       		.uleb128 0x13
 3252 0199 38       		.uleb128 0x38
 3253 019a 0A       		.uleb128 0xa
 3254 019b 32       		.uleb128 0x32
 3255 019c 0B       		.uleb128 0xb
 3256 019d 00       		.byte	0
 3257 019e 00       		.byte	0
 3258 019f 1E       		.uleb128 0x1e
 3259 01a0 0D       		.uleb128 0xd
 3260 01a1 00       		.byte	0
 3261 01a2 03       		.uleb128 0x3
 3262 01a3 08       		.uleb128 0x8
 3263 01a4 3A       		.uleb128 0x3a
 3264 01a5 0B       		.uleb128 0xb
 3265 01a6 3B       		.uleb128 0x3b
 3266 01a7 0B       		.uleb128 0xb
 3267 01a8 49       		.uleb128 0x49
 3268 01a9 13       		.uleb128 0x13
 3269 01aa 38       		.uleb128 0x38
 3270 01ab 0A       		.uleb128 0xa
 3271 01ac 32       		.uleb128 0x32
 3272 01ad 0B       		.uleb128 0xb
 3273 01ae 00       		.byte	0
 3274 01af 00       		.byte	0
 3275 01b0 1F       		.uleb128 0x1f
 3276 01b1 13       		.uleb128 0x13
 3277 01b2 00       		.byte	0
 3278 01b3 03       		.uleb128 0x3
 3279 01b4 0E       		.uleb128 0xe
 3280 01b5 3C       		.uleb128 0x3c
 3281 01b6 0C       		.uleb128 0xc
 3282 01b7 00       		.byte	0
 3283 01b8 00       		.byte	0
 3284 01b9 20       		.uleb128 0x20
 3285 01ba 15       		.uleb128 0x15
 3286 01bb 01       		.byte	0x1
 3287 01bc 01       		.uleb128 0x1
 3288 01bd 13       		.uleb128 0x13
 3289 01be 00       		.byte	0
 3290 01bf 00       		.byte	0
 3291 01c0 21       		.uleb128 0x21
 3292 01c1 13       		.uleb128 0x13
ARM GAS  /tmp/ccboNQdc.s 			page 59


 3293 01c2 01       		.byte	0x1
 3294 01c3 0B       		.uleb128 0xb
 3295 01c4 0B       		.uleb128 0xb
 3296 01c5 3A       		.uleb128 0x3a
 3297 01c6 0B       		.uleb128 0xb
 3298 01c7 3B       		.uleb128 0x3b
 3299 01c8 0B       		.uleb128 0xb
 3300 01c9 01       		.uleb128 0x1
 3301 01ca 13       		.uleb128 0x13
 3302 01cb 00       		.byte	0
 3303 01cc 00       		.byte	0
 3304 01cd 22       		.uleb128 0x22
 3305 01ce 0D       		.uleb128 0xd
 3306 01cf 00       		.byte	0
 3307 01d0 49       		.uleb128 0x49
 3308 01d1 13       		.uleb128 0x13
 3309 01d2 00       		.byte	0
 3310 01d3 00       		.byte	0
 3311 01d4 23       		.uleb128 0x23
 3312 01d5 0D       		.uleb128 0xd
 3313 01d6 00       		.byte	0
 3314 01d7 49       		.uleb128 0x49
 3315 01d8 13       		.uleb128 0x13
 3316 01d9 38       		.uleb128 0x38
 3317 01da 0A       		.uleb128 0xa
 3318 01db 00       		.byte	0
 3319 01dc 00       		.byte	0
 3320 01dd 24       		.uleb128 0x24
 3321 01de 0D       		.uleb128 0xd
 3322 01df 00       		.byte	0
 3323 01e0 03       		.uleb128 0x3
 3324 01e1 0E       		.uleb128 0xe
 3325 01e2 3A       		.uleb128 0x3a
 3326 01e3 0B       		.uleb128 0xb
 3327 01e4 3B       		.uleb128 0x3b
 3328 01e5 0B       		.uleb128 0xb
 3329 01e6 49       		.uleb128 0x49
 3330 01e7 13       		.uleb128 0x13
 3331 01e8 0B       		.uleb128 0xb
 3332 01e9 0B       		.uleb128 0xb
 3333 01ea 0D       		.uleb128 0xd
 3334 01eb 0B       		.uleb128 0xb
 3335 01ec 0C       		.uleb128 0xc
 3336 01ed 0B       		.uleb128 0xb
 3337 01ee 38       		.uleb128 0x38
 3338 01ef 0A       		.uleb128 0xa
 3339 01f0 00       		.byte	0
 3340 01f1 00       		.byte	0
 3341 01f2 25       		.uleb128 0x25
 3342 01f3 04       		.uleb128 0x4
 3343 01f4 01       		.byte	0x1
 3344 01f5 0B       		.uleb128 0xb
 3345 01f6 0B       		.uleb128 0xb
 3346 01f7 3A       		.uleb128 0x3a
 3347 01f8 0B       		.uleb128 0xb
 3348 01f9 3B       		.uleb128 0x3b
 3349 01fa 0B       		.uleb128 0xb
ARM GAS  /tmp/ccboNQdc.s 			page 60


 3350 01fb 8740     		.uleb128 0x2007
 3351 01fd 0E       		.uleb128 0xe
 3352 01fe 01       		.uleb128 0x1
 3353 01ff 13       		.uleb128 0x13
 3354 0200 00       		.byte	0
 3355 0201 00       		.byte	0
 3356 0202 26       		.uleb128 0x26
 3357 0203 28       		.uleb128 0x28
 3358 0204 00       		.byte	0
 3359 0205 03       		.uleb128 0x3
 3360 0206 0E       		.uleb128 0xe
 3361 0207 1C       		.uleb128 0x1c
 3362 0208 0D       		.uleb128 0xd
 3363 0209 00       		.byte	0
 3364 020a 00       		.byte	0
 3365 020b 27       		.uleb128 0x27
 3366 020c 2E       		.uleb128 0x2e
 3367 020d 01       		.byte	0x1
 3368 020e 3F       		.uleb128 0x3f
 3369 020f 0C       		.uleb128 0xc
 3370 0210 03       		.uleb128 0x3
 3371 0211 08       		.uleb128 0x8
 3372 0212 3A       		.uleb128 0x3a
 3373 0213 0B       		.uleb128 0xb
 3374 0214 3B       		.uleb128 0x3b
 3375 0215 0B       		.uleb128 0xb
 3376 0216 8740     		.uleb128 0x2007
 3377 0218 0E       		.uleb128 0xe
 3378 0219 3C       		.uleb128 0x3c
 3379 021a 0C       		.uleb128 0xc
 3380 021b 64       		.uleb128 0x64
 3381 021c 13       		.uleb128 0x13
 3382 021d 01       		.uleb128 0x1
 3383 021e 13       		.uleb128 0x13
 3384 021f 00       		.byte	0
 3385 0220 00       		.byte	0
 3386 0221 28       		.uleb128 0x28
 3387 0222 2E       		.uleb128 0x2e
 3388 0223 01       		.byte	0x1
 3389 0224 3F       		.uleb128 0x3f
 3390 0225 0C       		.uleb128 0xc
 3391 0226 03       		.uleb128 0x3
 3392 0227 08       		.uleb128 0x8
 3393 0228 3A       		.uleb128 0x3a
 3394 0229 0B       		.uleb128 0xb
 3395 022a 3B       		.uleb128 0x3b
 3396 022b 0B       		.uleb128 0xb
 3397 022c 8740     		.uleb128 0x2007
 3398 022e 0E       		.uleb128 0xe
 3399 022f 49       		.uleb128 0x49
 3400 0230 13       		.uleb128 0x13
 3401 0231 3C       		.uleb128 0x3c
 3402 0232 0C       		.uleb128 0xc
 3403 0233 64       		.uleb128 0x64
 3404 0234 13       		.uleb128 0x13
 3405 0235 00       		.byte	0
 3406 0236 00       		.byte	0
ARM GAS  /tmp/ccboNQdc.s 			page 61


 3407 0237 29       		.uleb128 0x29
 3408 0238 10       		.uleb128 0x10
 3409 0239 00       		.byte	0
 3410 023a 0B       		.uleb128 0xb
 3411 023b 0B       		.uleb128 0xb
 3412 023c 49       		.uleb128 0x49
 3413 023d 13       		.uleb128 0x13
 3414 023e 00       		.byte	0
 3415 023f 00       		.byte	0
 3416 0240 2A       		.uleb128 0x2a
 3417 0241 2E       		.uleb128 0x2e
 3418 0242 01       		.byte	0x1
 3419 0243 47       		.uleb128 0x47
 3420 0244 13       		.uleb128 0x13
 3421 0245 3A       		.uleb128 0x3a
 3422 0246 0B       		.uleb128 0xb
 3423 0247 3B       		.uleb128 0x3b
 3424 0248 0B       		.uleb128 0xb
 3425 0249 20       		.uleb128 0x20
 3426 024a 0B       		.uleb128 0xb
 3427 024b 64       		.uleb128 0x64
 3428 024c 13       		.uleb128 0x13
 3429 024d 01       		.uleb128 0x1
 3430 024e 13       		.uleb128 0x13
 3431 024f 00       		.byte	0
 3432 0250 00       		.byte	0
 3433 0251 2B       		.uleb128 0x2b
 3434 0252 05       		.uleb128 0x5
 3435 0253 00       		.byte	0
 3436 0254 03       		.uleb128 0x3
 3437 0255 0E       		.uleb128 0xe
 3438 0256 49       		.uleb128 0x49
 3439 0257 13       		.uleb128 0x13
 3440 0258 34       		.uleb128 0x34
 3441 0259 0C       		.uleb128 0xc
 3442 025a 00       		.byte	0
 3443 025b 00       		.byte	0
 3444 025c 2C       		.uleb128 0x2c
 3445 025d 05       		.uleb128 0x5
 3446 025e 00       		.byte	0
 3447 025f 03       		.uleb128 0x3
 3448 0260 0E       		.uleb128 0xe
 3449 0261 3A       		.uleb128 0x3a
 3450 0262 0B       		.uleb128 0xb
 3451 0263 3B       		.uleb128 0x3b
 3452 0264 0B       		.uleb128 0xb
 3453 0265 49       		.uleb128 0x49
 3454 0266 13       		.uleb128 0x13
 3455 0267 00       		.byte	0
 3456 0268 00       		.byte	0
 3457 0269 2D       		.uleb128 0x2d
 3458 026a 2E       		.uleb128 0x2e
 3459 026b 01       		.byte	0x1
 3460 026c 31       		.uleb128 0x31
 3461 026d 13       		.uleb128 0x13
 3462 026e 11       		.uleb128 0x11
 3463 026f 01       		.uleb128 0x1
ARM GAS  /tmp/ccboNQdc.s 			page 62


 3464 0270 12       		.uleb128 0x12
 3465 0271 01       		.uleb128 0x1
 3466 0272 40       		.uleb128 0x40
 3467 0273 06       		.uleb128 0x6
 3468 0274 64       		.uleb128 0x64
 3469 0275 13       		.uleb128 0x13
 3470 0276 01       		.uleb128 0x1
 3471 0277 13       		.uleb128 0x13
 3472 0278 00       		.byte	0
 3473 0279 00       		.byte	0
 3474 027a 2E       		.uleb128 0x2e
 3475 027b 05       		.uleb128 0x5
 3476 027c 00       		.byte	0
 3477 027d 31       		.uleb128 0x31
 3478 027e 13       		.uleb128 0x13
 3479 027f 02       		.uleb128 0x2
 3480 0280 06       		.uleb128 0x6
 3481 0281 00       		.byte	0
 3482 0282 00       		.byte	0
 3483 0283 2F       		.uleb128 0x2f
 3484 0284 05       		.uleb128 0x5
 3485 0285 00       		.byte	0
 3486 0286 31       		.uleb128 0x31
 3487 0287 13       		.uleb128 0x13
 3488 0288 02       		.uleb128 0x2
 3489 0289 0A       		.uleb128 0xa
 3490 028a 00       		.byte	0
 3491 028b 00       		.byte	0
 3492 028c 30       		.uleb128 0x30
 3493 028d 2E       		.uleb128 0x2e
 3494 028e 01       		.byte	0x1
 3495 028f 47       		.uleb128 0x47
 3496 0290 13       		.uleb128 0x13
 3497 0291 3A       		.uleb128 0x3a
 3498 0292 0B       		.uleb128 0xb
 3499 0293 3B       		.uleb128 0x3b
 3500 0294 0B       		.uleb128 0xb
 3501 0295 11       		.uleb128 0x11
 3502 0296 01       		.uleb128 0x1
 3503 0297 12       		.uleb128 0x12
 3504 0298 01       		.uleb128 0x1
 3505 0299 40       		.uleb128 0x40
 3506 029a 0A       		.uleb128 0xa
 3507 029b 64       		.uleb128 0x64
 3508 029c 13       		.uleb128 0x13
 3509 029d 01       		.uleb128 0x1
 3510 029e 13       		.uleb128 0x13
 3511 029f 00       		.byte	0
 3512 02a0 00       		.byte	0
 3513 02a1 31       		.uleb128 0x31
 3514 02a2 05       		.uleb128 0x5
 3515 02a3 00       		.byte	0
 3516 02a4 03       		.uleb128 0x3
 3517 02a5 0E       		.uleb128 0xe
 3518 02a6 49       		.uleb128 0x49
 3519 02a7 13       		.uleb128 0x13
 3520 02a8 34       		.uleb128 0x34
ARM GAS  /tmp/ccboNQdc.s 			page 63


 3521 02a9 0C       		.uleb128 0xc
 3522 02aa 02       		.uleb128 0x2
 3523 02ab 06       		.uleb128 0x6
 3524 02ac 00       		.byte	0
 3525 02ad 00       		.byte	0
 3526 02ae 32       		.uleb128 0x32
 3527 02af 05       		.uleb128 0x5
 3528 02b0 00       		.byte	0
 3529 02b1 03       		.uleb128 0x3
 3530 02b2 0E       		.uleb128 0xe
 3531 02b3 49       		.uleb128 0x49
 3532 02b4 13       		.uleb128 0x13
 3533 02b5 34       		.uleb128 0x34
 3534 02b6 0C       		.uleb128 0xc
 3535 02b7 02       		.uleb128 0x2
 3536 02b8 0A       		.uleb128 0xa
 3537 02b9 00       		.byte	0
 3538 02ba 00       		.byte	0
 3539 02bb 33       		.uleb128 0x33
 3540 02bc 05       		.uleb128 0x5
 3541 02bd 00       		.byte	0
 3542 02be 03       		.uleb128 0x3
 3543 02bf 0E       		.uleb128 0xe
 3544 02c0 3A       		.uleb128 0x3a
 3545 02c1 0B       		.uleb128 0xb
 3546 02c2 3B       		.uleb128 0x3b
 3547 02c3 0B       		.uleb128 0xb
 3548 02c4 49       		.uleb128 0x49
 3549 02c5 13       		.uleb128 0x13
 3550 02c6 02       		.uleb128 0x2
 3551 02c7 0A       		.uleb128 0xa
 3552 02c8 00       		.byte	0
 3553 02c9 00       		.byte	0
 3554 02ca 34       		.uleb128 0x34
 3555 02cb 05       		.uleb128 0x5
 3556 02cc 00       		.byte	0
 3557 02cd 03       		.uleb128 0x3
 3558 02ce 08       		.uleb128 0x8
 3559 02cf 3A       		.uleb128 0x3a
 3560 02d0 0B       		.uleb128 0xb
 3561 02d1 3B       		.uleb128 0x3b
 3562 02d2 0B       		.uleb128 0xb
 3563 02d3 49       		.uleb128 0x49
 3564 02d4 13       		.uleb128 0x13
 3565 02d5 02       		.uleb128 0x2
 3566 02d6 0A       		.uleb128 0xa
 3567 02d7 00       		.byte	0
 3568 02d8 00       		.byte	0
 3569 02d9 35       		.uleb128 0x35
 3570 02da 05       		.uleb128 0x5
 3571 02db 00       		.byte	0
 3572 02dc 03       		.uleb128 0x3
 3573 02dd 08       		.uleb128 0x8
 3574 02de 3A       		.uleb128 0x3a
 3575 02df 0B       		.uleb128 0xb
 3576 02e0 3B       		.uleb128 0x3b
 3577 02e1 0B       		.uleb128 0xb
ARM GAS  /tmp/ccboNQdc.s 			page 64


 3578 02e2 49       		.uleb128 0x49
 3579 02e3 13       		.uleb128 0x13
 3580 02e4 00       		.byte	0
 3581 02e5 00       		.byte	0
 3582 02e6 36       		.uleb128 0x36
 3583 02e7 2E       		.uleb128 0x2e
 3584 02e8 01       		.byte	0x1
 3585 02e9 47       		.uleb128 0x47
 3586 02ea 13       		.uleb128 0x13
 3587 02eb 3A       		.uleb128 0x3a
 3588 02ec 0B       		.uleb128 0xb
 3589 02ed 3B       		.uleb128 0x3b
 3590 02ee 0B       		.uleb128 0xb
 3591 02ef 11       		.uleb128 0x11
 3592 02f0 01       		.uleb128 0x1
 3593 02f1 12       		.uleb128 0x12
 3594 02f2 01       		.uleb128 0x1
 3595 02f3 40       		.uleb128 0x40
 3596 02f4 06       		.uleb128 0x6
 3597 02f5 64       		.uleb128 0x64
 3598 02f6 13       		.uleb128 0x13
 3599 02f7 01       		.uleb128 0x1
 3600 02f8 13       		.uleb128 0x13
 3601 02f9 00       		.byte	0
 3602 02fa 00       		.byte	0
 3603 02fb 37       		.uleb128 0x37
 3604 02fc 05       		.uleb128 0x5
 3605 02fd 00       		.byte	0
 3606 02fe 03       		.uleb128 0x3
 3607 02ff 08       		.uleb128 0x8
 3608 0300 3A       		.uleb128 0x3a
 3609 0301 0B       		.uleb128 0xb
 3610 0302 3B       		.uleb128 0x3b
 3611 0303 0B       		.uleb128 0xb
 3612 0304 49       		.uleb128 0x49
 3613 0305 13       		.uleb128 0x13
 3614 0306 02       		.uleb128 0x2
 3615 0307 06       		.uleb128 0x6
 3616 0308 00       		.byte	0
 3617 0309 00       		.byte	0
 3618 030a 38       		.uleb128 0x38
 3619 030b 0B       		.uleb128 0xb
 3620 030c 01       		.byte	0x1
 3621 030d 55       		.uleb128 0x55
 3622 030e 06       		.uleb128 0x6
 3623 030f 00       		.byte	0
 3624 0310 00       		.byte	0
 3625 0311 39       		.uleb128 0x39
 3626 0312 34       		.uleb128 0x34
 3627 0313 00       		.byte	0
 3628 0314 03       		.uleb128 0x3
 3629 0315 08       		.uleb128 0x8
 3630 0316 3A       		.uleb128 0x3a
 3631 0317 0B       		.uleb128 0xb
 3632 0318 3B       		.uleb128 0x3b
 3633 0319 0B       		.uleb128 0xb
 3634 031a 49       		.uleb128 0x49
ARM GAS  /tmp/ccboNQdc.s 			page 65


 3635 031b 13       		.uleb128 0x13
 3636 031c 00       		.byte	0
 3637 031d 00       		.byte	0
 3638 031e 3A       		.uleb128 0x3a
 3639 031f 1D       		.uleb128 0x1d
 3640 0320 01       		.byte	0x1
 3641 0321 31       		.uleb128 0x31
 3642 0322 13       		.uleb128 0x13
 3643 0323 52       		.uleb128 0x52
 3644 0324 01       		.uleb128 0x1
 3645 0325 55       		.uleb128 0x55
 3646 0326 06       		.uleb128 0x6
 3647 0327 58       		.uleb128 0x58
 3648 0328 0B       		.uleb128 0xb
 3649 0329 59       		.uleb128 0x59
 3650 032a 0B       		.uleb128 0xb
 3651 032b 00       		.byte	0
 3652 032c 00       		.byte	0
 3653 032d 3B       		.uleb128 0x3b
 3654 032e 05       		.uleb128 0x5
 3655 032f 00       		.byte	0
 3656 0330 03       		.uleb128 0x3
 3657 0331 0E       		.uleb128 0xe
 3658 0332 3A       		.uleb128 0x3a
 3659 0333 0B       		.uleb128 0xb
 3660 0334 3B       		.uleb128 0x3b
 3661 0335 0B       		.uleb128 0xb
 3662 0336 49       		.uleb128 0x49
 3663 0337 13       		.uleb128 0x13
 3664 0338 02       		.uleb128 0x2
 3665 0339 06       		.uleb128 0x6
 3666 033a 00       		.byte	0
 3667 033b 00       		.byte	0
 3668 033c 3C       		.uleb128 0x3c
 3669 033d 34       		.uleb128 0x34
 3670 033e 00       		.byte	0
 3671 033f 03       		.uleb128 0x3
 3672 0340 0E       		.uleb128 0xe
 3673 0341 3A       		.uleb128 0x3a
 3674 0342 0B       		.uleb128 0xb
 3675 0343 3B       		.uleb128 0x3b
 3676 0344 0B       		.uleb128 0xb
 3677 0345 49       		.uleb128 0x49
 3678 0346 13       		.uleb128 0x13
 3679 0347 3F       		.uleb128 0x3f
 3680 0348 0C       		.uleb128 0xc
 3681 0349 3C       		.uleb128 0x3c
 3682 034a 0C       		.uleb128 0xc
 3683 034b 00       		.byte	0
 3684 034c 00       		.byte	0
 3685 034d 3D       		.uleb128 0x3d
 3686 034e 34       		.uleb128 0x34
 3687 034f 00       		.byte	0
 3688 0350 03       		.uleb128 0x3
 3689 0351 0E       		.uleb128 0xe
 3690 0352 3A       		.uleb128 0x3a
 3691 0353 0B       		.uleb128 0xb
ARM GAS  /tmp/ccboNQdc.s 			page 66


 3692 0354 3B       		.uleb128 0x3b
 3693 0355 05       		.uleb128 0x5
 3694 0356 49       		.uleb128 0x49
 3695 0357 13       		.uleb128 0x13
 3696 0358 3F       		.uleb128 0x3f
 3697 0359 0C       		.uleb128 0xc
 3698 035a 3C       		.uleb128 0x3c
 3699 035b 0C       		.uleb128 0xc
 3700 035c 00       		.byte	0
 3701 035d 00       		.byte	0
 3702 035e 00       		.byte	0
 3703              		.section	.debug_loc,"",%progbits
 3704              	.Ldebug_loc0:
 3705              	.LLST0:
 3706 0000 00000000 		.4byte	.LFB73
 3707 0004 02000000 		.4byte	.LCFI0
 3708 0008 0200     		.2byte	0x2
 3709 000a 7D       		.byte	0x7d
 3710 000b 00       		.sleb128 0
 3711 000c 02000000 		.4byte	.LCFI0
 3712 0010 04000000 		.4byte	.LCFI1
 3713 0014 0200     		.2byte	0x2
 3714 0016 7D       		.byte	0x7d
 3715 0017 0C       		.sleb128 12
 3716 0018 04000000 		.4byte	.LCFI1
 3717 001c 30000000 		.4byte	.LFE73
 3718 0020 0200     		.2byte	0x2
 3719 0022 7D       		.byte	0x7d
 3720 0023 18       		.sleb128 24
 3721 0024 00000000 		.4byte	0
 3722 0028 00000000 		.4byte	0
 3723              	.LLST1:
 3724 002c 00000000 		.4byte	.LVL0
 3725 0030 11000000 		.4byte	.LVL1-1
 3726 0034 0100     		.2byte	0x1
 3727 0036 50       		.byte	0x50
 3728 0037 11000000 		.4byte	.LVL1-1
 3729 003b 30000000 		.4byte	.LFE73
 3730 003f 0100     		.2byte	0x1
 3731 0041 54       		.byte	0x54
 3732 0042 00000000 		.4byte	0
 3733 0046 00000000 		.4byte	0
 3734              	.LLST2:
 3735 004a 00000000 		.4byte	.LVL0
 3736 004e 11000000 		.4byte	.LVL1-1
 3737 0052 0100     		.2byte	0x1
 3738 0054 51       		.byte	0x51
 3739 0055 00000000 		.4byte	0
 3740 0059 00000000 		.4byte	0
 3741              	.LLST3:
 3742 005d 00000000 		.4byte	.LVL0
 3743 0061 11000000 		.4byte	.LVL1-1
 3744 0065 0100     		.2byte	0x1
 3745 0067 52       		.byte	0x52
 3746 0068 00000000 		.4byte	0
 3747 006c 00000000 		.4byte	0
 3748              	.LLST4:
ARM GAS  /tmp/ccboNQdc.s 			page 67


 3749 0070 00000000 		.4byte	.LVL0
 3750 0074 11000000 		.4byte	.LVL1-1
 3751 0078 0100     		.2byte	0x1
 3752 007a 53       		.byte	0x53
 3753 007b 00000000 		.4byte	0
 3754 007f 00000000 		.4byte	0
 3755              	.LLST5:
 3756 0083 00000000 		.4byte	.LVL2
 3757 0087 02000000 		.4byte	.LVL3
 3758 008b 0100     		.2byte	0x1
 3759 008d 50       		.byte	0x50
 3760 008e 00000000 		.4byte	0
 3761 0092 00000000 		.4byte	0
 3762              	.LLST6:
 3763 0096 00000000 		.4byte	.LFB78
 3764 009a 02000000 		.4byte	.LCFI2
 3765 009e 0200     		.2byte	0x2
 3766 00a0 7D       		.byte	0x7d
 3767 00a1 00       		.sleb128 0
 3768 00a2 02000000 		.4byte	.LCFI2
 3769 00a6 2A000000 		.4byte	.LFE78
 3770 00aa 0200     		.2byte	0x2
 3771 00ac 7D       		.byte	0x7d
 3772 00ad 10       		.sleb128 16
 3773 00ae 00000000 		.4byte	0
 3774 00b2 00000000 		.4byte	0
 3775              	.LLST7:
 3776 00b6 00000000 		.4byte	.LVL6
 3777 00ba 08000000 		.4byte	.LVL7
 3778 00be 0100     		.2byte	0x1
 3779 00c0 50       		.byte	0x50
 3780 00c1 08000000 		.4byte	.LVL7
 3781 00c5 2A000000 		.4byte	.LFE78
 3782 00c9 0100     		.2byte	0x1
 3783 00cb 54       		.byte	0x54
 3784 00cc 00000000 		.4byte	0
 3785 00d0 00000000 		.4byte	0
 3786              	.LLST8:
 3787 00d4 00000000 		.4byte	.LVL6
 3788 00d8 0F000000 		.4byte	.LVL8-1
 3789 00dc 0100     		.2byte	0x1
 3790 00de 51       		.byte	0x51
 3791 00df 0F000000 		.4byte	.LVL8-1
 3792 00e3 2A000000 		.4byte	.LFE78
 3793 00e7 0100     		.2byte	0x1
 3794 00e9 55       		.byte	0x55
 3795 00ea 00000000 		.4byte	0
 3796 00ee 00000000 		.4byte	0
 3797              	.LLST9:
 3798 00f2 00000000 		.4byte	.LVL6
 3799 00f6 0F000000 		.4byte	.LVL8-1
 3800 00fa 0100     		.2byte	0x1
 3801 00fc 52       		.byte	0x52
 3802 00fd 0F000000 		.4byte	.LVL8-1
 3803 0101 2A000000 		.4byte	.LFE78
 3804 0105 0100     		.2byte	0x1
 3805 0107 56       		.byte	0x56
ARM GAS  /tmp/ccboNQdc.s 			page 68


 3806 0108 00000000 		.4byte	0
 3807 010c 00000000 		.4byte	0
 3808              	.LLST10:
 3809 0110 00000000 		.4byte	.LFB79
 3810 0114 02000000 		.4byte	.LCFI3
 3811 0118 0200     		.2byte	0x2
 3812 011a 7D       		.byte	0x7d
 3813 011b 00       		.sleb128 0
 3814 011c 02000000 		.4byte	.LCFI3
 3815 0120 22000000 		.4byte	.LFE79
 3816 0124 0200     		.2byte	0x2
 3817 0126 7D       		.byte	0x7d
 3818 0127 10       		.sleb128 16
 3819 0128 00000000 		.4byte	0
 3820 012c 00000000 		.4byte	0
 3821              	.LLST11:
 3822 0130 00000000 		.4byte	.LVL9
 3823 0134 08000000 		.4byte	.LVL11
 3824 0138 0100     		.2byte	0x1
 3825 013a 50       		.byte	0x50
 3826 013b 0D000000 		.4byte	.LVL13-1
 3827 013f 22000000 		.4byte	.LFE79
 3828 0143 0100     		.2byte	0x1
 3829 0145 54       		.byte	0x54
 3830 0146 00000000 		.4byte	0
 3831 014a 00000000 		.4byte	0
 3832              	.LLST12:
 3833 014e 00000000 		.4byte	.LVL9
 3834 0152 0D000000 		.4byte	.LVL13-1
 3835 0156 0100     		.2byte	0x1
 3836 0158 51       		.byte	0x51
 3837 0159 1E000000 		.4byte	.LVL14
 3838 015d 22000000 		.4byte	.LFE79
 3839 0161 0100     		.2byte	0x1
 3840 0163 55       		.byte	0x55
 3841 0164 00000000 		.4byte	0
 3842 0168 00000000 		.4byte	0
 3843              	.LLST13:
 3844 016c 0A000000 		.4byte	.LVL12
 3845 0170 0D000000 		.4byte	.LVL13-1
 3846 0174 0100     		.2byte	0x1
 3847 0176 51       		.byte	0x51
 3848 0177 0D000000 		.4byte	.LVL13-1
 3849 017b 22000000 		.4byte	.LFE79
 3850 017f 0100     		.2byte	0x1
 3851 0181 55       		.byte	0x55
 3852 0182 00000000 		.4byte	0
 3853 0186 00000000 		.4byte	0
 3854              	.LLST14:
 3855 018a 04000000 		.4byte	.LVL10
 3856 018e 08000000 		.4byte	.LVL11
 3857 0192 0100     		.2byte	0x1
 3858 0194 50       		.byte	0x50
 3859 0195 08000000 		.4byte	.LVL11
 3860 0199 22000000 		.4byte	.LFE79
 3861 019d 0100     		.2byte	0x1
 3862 019f 54       		.byte	0x54
ARM GAS  /tmp/ccboNQdc.s 			page 69


 3863 01a0 00000000 		.4byte	0
 3864 01a4 00000000 		.4byte	0
 3865              	.LLST15:
 3866 01a8 00000000 		.4byte	.LFB80
 3867 01ac 02000000 		.4byte	.LCFI4
 3868 01b0 0200     		.2byte	0x2
 3869 01b2 7D       		.byte	0x7d
 3870 01b3 00       		.sleb128 0
 3871 01b4 02000000 		.4byte	.LCFI4
 3872 01b8 06000000 		.4byte	.LCFI5
 3873 01bc 0200     		.2byte	0x2
 3874 01be 7D       		.byte	0x7d
 3875 01bf 10       		.sleb128 16
 3876 01c0 06000000 		.4byte	.LCFI5
 3877 01c4 2C000000 		.4byte	.LFE80
 3878 01c8 0200     		.2byte	0x2
 3879 01ca 7D       		.byte	0x7d
 3880 01cb 18       		.sleb128 24
 3881 01cc 00000000 		.4byte	0
 3882 01d0 00000000 		.4byte	0
 3883              	.LLST16:
 3884 01d4 00000000 		.4byte	.LVL15
 3885 01d8 0E000000 		.4byte	.LVL16
 3886 01dc 0100     		.2byte	0x1
 3887 01de 50       		.byte	0x50
 3888 01df 0E000000 		.4byte	.LVL16
 3889 01e3 2C000000 		.4byte	.LFE80
 3890 01e7 0100     		.2byte	0x1
 3891 01e9 54       		.byte	0x54
 3892 01ea 00000000 		.4byte	0
 3893 01ee 00000000 		.4byte	0
 3894              	.LLST17:
 3895 01f2 00000000 		.4byte	.LVL15
 3896 01f6 15000000 		.4byte	.LVL17-1
 3897 01fa 0100     		.2byte	0x1
 3898 01fc 51       		.byte	0x51
 3899 01fd 15000000 		.4byte	.LVL17-1
 3900 0201 2C000000 		.4byte	.LFE80
 3901 0205 0100     		.2byte	0x1
 3902 0207 55       		.byte	0x55
 3903 0208 00000000 		.4byte	0
 3904 020c 00000000 		.4byte	0
 3905              	.LLST18:
 3906 0210 00000000 		.4byte	.LVL15
 3907 0214 15000000 		.4byte	.LVL17-1
 3908 0218 0100     		.2byte	0x1
 3909 021a 52       		.byte	0x52
 3910 021b 00000000 		.4byte	0
 3911 021f 00000000 		.4byte	0
 3912              	.LLST19:
 3913 0223 00000000 		.4byte	.LFB81
 3914 0227 02000000 		.4byte	.LCFI6
 3915 022b 0200     		.2byte	0x2
 3916 022d 7D       		.byte	0x7d
 3917 022e 00       		.sleb128 0
 3918 022f 02000000 		.4byte	.LCFI6
 3919 0233 06000000 		.4byte	.LCFI7
ARM GAS  /tmp/ccboNQdc.s 			page 70


 3920 0237 0200     		.2byte	0x2
 3921 0239 7D       		.byte	0x7d
 3922 023a 10       		.sleb128 16
 3923 023b 06000000 		.4byte	.LCFI7
 3924 023f 2C000000 		.4byte	.LFE81
 3925 0243 0200     		.2byte	0x2
 3926 0245 7D       		.byte	0x7d
 3927 0246 18       		.sleb128 24
 3928 0247 00000000 		.4byte	0
 3929 024b 00000000 		.4byte	0
 3930              	.LLST20:
 3931 024f 00000000 		.4byte	.LVL18
 3932 0253 0E000000 		.4byte	.LVL19
 3933 0257 0100     		.2byte	0x1
 3934 0259 50       		.byte	0x50
 3935 025a 0E000000 		.4byte	.LVL19
 3936 025e 2C000000 		.4byte	.LFE81
 3937 0262 0100     		.2byte	0x1
 3938 0264 54       		.byte	0x54
 3939 0265 00000000 		.4byte	0
 3940 0269 00000000 		.4byte	0
 3941              	.LLST21:
 3942 026d 00000000 		.4byte	.LVL18
 3943 0271 15000000 		.4byte	.LVL20-1
 3944 0275 0100     		.2byte	0x1
 3945 0277 51       		.byte	0x51
 3946 0278 15000000 		.4byte	.LVL20-1
 3947 027c 2C000000 		.4byte	.LFE81
 3948 0280 0100     		.2byte	0x1
 3949 0282 55       		.byte	0x55
 3950 0283 00000000 		.4byte	0
 3951 0287 00000000 		.4byte	0
 3952              	.LLST22:
 3953 028b 00000000 		.4byte	.LVL18
 3954 028f 15000000 		.4byte	.LVL20-1
 3955 0293 0100     		.2byte	0x1
 3956 0295 52       		.byte	0x52
 3957 0296 00000000 		.4byte	0
 3958 029a 00000000 		.4byte	0
 3959              	.LLST23:
 3960 029e 00000000 		.4byte	.LVL21
 3961 02a2 04000000 		.4byte	.LVL22
 3962 02a6 0100     		.2byte	0x1
 3963 02a8 50       		.byte	0x50
 3964 02a9 04000000 		.4byte	.LVL22
 3965 02ad 07000000 		.4byte	.LVL23-1
 3966 02b1 0100     		.2byte	0x1
 3967 02b3 51       		.byte	0x51
 3968 02b4 00000000 		.4byte	0
 3969 02b8 00000000 		.4byte	0
 3970              	.LLST24:
 3971 02bc 00000000 		.4byte	.LVL24
 3972 02c0 02000000 		.4byte	.LVL25
 3973 02c4 0100     		.2byte	0x1
 3974 02c6 50       		.byte	0x50
 3975 02c7 00000000 		.4byte	0
 3976 02cb 00000000 		.4byte	0
ARM GAS  /tmp/ccboNQdc.s 			page 71


 3977              	.LLST25:
 3978 02cf 00000000 		.4byte	.LFB84
 3979 02d3 02000000 		.4byte	.LCFI8
 3980 02d7 0200     		.2byte	0x2
 3981 02d9 7D       		.byte	0x7d
 3982 02da 00       		.sleb128 0
 3983 02db 02000000 		.4byte	.LCFI8
 3984 02df 0A000000 		.4byte	.LFE84
 3985 02e3 0200     		.2byte	0x2
 3986 02e5 7D       		.byte	0x7d
 3987 02e6 08       		.sleb128 8
 3988 02e7 00000000 		.4byte	0
 3989 02eb 00000000 		.4byte	0
 3990              	.LLST26:
 3991 02ef 00000000 		.4byte	.LVL26
 3992 02f3 06000000 		.4byte	.LVL27
 3993 02f7 0100     		.2byte	0x1
 3994 02f9 50       		.byte	0x50
 3995 02fa 00000000 		.4byte	0
 3996 02fe 00000000 		.4byte	0
 3997              	.LLST27:
 3998 0302 00000000 		.4byte	.LVL26
 3999 0306 07000000 		.4byte	.LVL28-1
 4000 030a 0100     		.2byte	0x1
 4001 030c 51       		.byte	0x51
 4002 030d 00000000 		.4byte	0
 4003 0311 00000000 		.4byte	0
 4004              		.section	.debug_aranges,"",%progbits
 4005 0000 6C000000 		.4byte	0x6c
 4006 0004 0200     		.2byte	0x2
 4007 0006 00000000 		.4byte	.Ldebug_info0
 4008 000a 04       		.byte	0x4
 4009 000b 00       		.byte	0
 4010 000c 0000     		.2byte	0
 4011 000e 0000     		.2byte	0
 4012 0010 00000000 		.4byte	.LFB73
 4013 0014 30000000 		.4byte	.LFE73-.LFB73
 4014 0018 00000000 		.4byte	.LFB75
 4015 001c 04000000 		.4byte	.LFE75-.LFB75
 4016 0020 00000000 		.4byte	.LFB76
 4017 0024 04000000 		.4byte	.LFE76-.LFB76
 4018 0028 00000000 		.4byte	.LFB77
 4019 002c 04000000 		.4byte	.LFE77-.LFB77
 4020 0030 00000000 		.4byte	.LFB78
 4021 0034 2A000000 		.4byte	.LFE78-.LFB78
 4022 0038 00000000 		.4byte	.LFB79
 4023 003c 22000000 		.4byte	.LFE79-.LFB79
 4024 0040 00000000 		.4byte	.LFB80
 4025 0044 2C000000 		.4byte	.LFE80-.LFB80
 4026 0048 00000000 		.4byte	.LFB81
 4027 004c 2C000000 		.4byte	.LFE81-.LFB81
 4028 0050 00000000 		.4byte	.LFB82
 4029 0054 08000000 		.4byte	.LFE82-.LFB82
 4030 0058 00000000 		.4byte	.LFB83
 4031 005c 04000000 		.4byte	.LFE83-.LFB83
 4032 0060 00000000 		.4byte	.LFB84
 4033 0064 0A000000 		.4byte	.LFE84-.LFB84
ARM GAS  /tmp/ccboNQdc.s 			page 72


 4034 0068 00000000 		.4byte	0
 4035 006c 00000000 		.4byte	0
 4036              		.section	.debug_ranges,"",%progbits
 4037              	.Ldebug_ranges0:
 4038 0000 04000000 		.4byte	.LBB7
 4039 0004 08000000 		.4byte	.LBE7
 4040 0008 0A000000 		.4byte	.LBB12
 4041 000c 20000000 		.4byte	.LBE12
 4042 0010 00000000 		.4byte	0
 4043 0014 00000000 		.4byte	0
 4044 0018 04000000 		.4byte	.LBB8
 4045 001c 08000000 		.4byte	.LBE8
 4046 0020 0A000000 		.4byte	.LBB11
 4047 0024 1E000000 		.4byte	.LBE11
 4048 0028 00000000 		.4byte	0
 4049 002c 00000000 		.4byte	0
 4050 0030 00000000 		.4byte	.LFB73
 4051 0034 30000000 		.4byte	.LFE73
 4052 0038 00000000 		.4byte	.LFB75
 4053 003c 04000000 		.4byte	.LFE75
 4054 0040 00000000 		.4byte	.LFB76
 4055 0044 04000000 		.4byte	.LFE76
 4056 0048 00000000 		.4byte	.LFB77
 4057 004c 04000000 		.4byte	.LFE77
 4058 0050 00000000 		.4byte	.LFB78
 4059 0054 2A000000 		.4byte	.LFE78
 4060 0058 00000000 		.4byte	.LFB79
 4061 005c 22000000 		.4byte	.LFE79
 4062 0060 00000000 		.4byte	.LFB80
 4063 0064 2C000000 		.4byte	.LFE80
 4064 0068 00000000 		.4byte	.LFB81
 4065 006c 2C000000 		.4byte	.LFE81
 4066 0070 00000000 		.4byte	.LFB82
 4067 0074 08000000 		.4byte	.LFE82
 4068 0078 00000000 		.4byte	.LFB83
 4069 007c 04000000 		.4byte	.LFE83
 4070 0080 00000000 		.4byte	.LFB84
 4071 0084 0A000000 		.4byte	.LFE84
 4072 0088 00000000 		.4byte	0
 4073 008c 00000000 		.4byte	0
 4074              		.section	.debug_line,"",%progbits
 4075              	.Ldebug_line0:
 4076 0000 01040000 		.section	.debug_str,"MS",%progbits,1
 4076      02001803 
 4076      00000201 
 4076      FB0E0D00 
 4076      01010101 
 4077              	.LASF90:
 4078 0000 5F5A4E31 		.ascii	"_ZN11BaseMessage11dereferenceEv\000"
 4078      31426173 
 4078      654D6573 
 4078      73616765 
 4078      31316465 
 4079              	.LASF162:
 4080 0020 5F5A4E31 		.ascii	"_ZN14LocalPublisher9subscribeEP16RemoteSubscriberPv"
 4080      344C6F63 
 4080      616C5075 
ARM GAS  /tmp/ccboNQdc.s 			page 73


 4080      626C6973 
 4080      68657239 
 4081 0053 6A506D00 		.ascii	"jPm\000"
 4082              	.LASF154:
 4083 0057 5F5A4E31 		.ascii	"_ZN14BaseSubscriber8releaseIEP11BaseMessage\000"
 4083      34426173 
 4083      65537562 
 4083      73637269 
 4083      62657238 
 4084              	.LASF2:
 4085 0083 73697A65 		.ascii	"size_t\000"
 4085      5F7400
 4086              	.LASF94:
 4087 008a 67657449 		.ascii	"getI\000"
 4087      00
 4088              	.LASF26:
 4089 008f 7264796D 		.ascii	"rdymsg\000"
 4089      736700
 4090              	.LASF82:
 4091 0096 5F726566 		.ascii	"_ref_count\000"
 4091      5F636F75 
 4091      6E7400
 4092              	.LASF79:
 4093 00a1 42617365 		.ascii	"BaseMessage\000"
 4093      4D657373 
 4093      61676500 
 4094              	.LASF197:
 4095 00ad 2E2E2F2E 		.ascii	"../../Middleware/LocalSubscriber.cpp\000"
 4095      2E2F4D69 
 4095      64646C65 
 4095      77617265 
 4095      2F4C6F63 
 4096              	.LASF200:
 4097 00d2 52656D6F 		.ascii	"RemoteSubscriber\000"
 4097      74655375 
 4097      62736372 
 4097      69626572 
 4097      00
 4098              	.LASF73:
 4099 00e3 31304D65 		.ascii	"10MemoryPool\000"
 4099      6D6F7279 
 4099      506F6F6C 
 4099      00
 4100              	.LASF166:
 4101 00f0 70657269 		.ascii	"period\000"
 4101      6F6400
 4102              	.LASF191:
 4103 00f7 71756575 		.ascii	"queue_size\000"
 4103      655F7369 
 4103      7A6500
 4104              	.LASF110:
 4105 0102 616C6C6F 		.ascii	"allocI\000"
 4105      634900
 4106              	.LASF14:
 4107 0109 6C6F6E67 		.ascii	"long long unsigned int\000"
 4107      206C6F6E 
 4107      6720756E 
ARM GAS  /tmp/ccboNQdc.s 			page 74


 4107      7369676E 
 4107      65642069 
 4108              	.LASF175:
 4109 0120 52544341 		.ascii	"RTCAN_MSG_ONAIR\000"
 4109      4E5F4D53 
 4109      475F4F4E 
 4109      41495200 
 4110              	.LASF27:
 4111 0130 65786974 		.ascii	"exitcode\000"
 4111      636F6465 
 4111      00
 4112              	.LASF199:
 4113 0139 63686962 		.ascii	"chibios_rt\000"
 4113      696F735F 
 4113      727400
 4114              	.LASF156:
 4115 0144 4C6F6361 		.ascii	"LocalPublisher\000"
 4115      6C507562 
 4115      6C697368 
 4115      657200
 4116              	.LASF160:
 4117 0153 5F5A4E31 		.ascii	"_ZN14LocalPublisher9broadcastEP11BaseMessage\000"
 4117      344C6F63 
 4117      616C5075 
 4117      626C6973 
 4117      68657239 
 4118              	.LASF195:
 4119 0180 49544D5F 		.ascii	"ITM_RxBuffer\000"
 4119      52784275 
 4119      66666572 
 4119      00
 4120              	.LASF96:
 4121 018d 5F5A4E31 		.ascii	"_ZN12MessageQueue3getEv\000"
 4121      324D6573 
 4121      73616765 
 4121      51756575 
 4121      65336765 
 4122              	.LASF126:
 4123 01a5 6E657874 		.ascii	"next\000"
 4123      00
 4124              	.LASF105:
 4125 01aa 5F706F6F 		.ascii	"_pool\000"
 4125      6C00
 4126              	.LASF32:
 4127 01b0 705F7072 		.ascii	"p_prio\000"
 4127      696F00
 4128              	.LASF147:
 4129 01b7 5F5A4E31 		.ascii	"_ZN14BaseSubscriber5topicEv\000"
 4129      34426173 
 4129      65537562 
 4129      73637269 
 4129      62657235 
 4130              	.LASF12:
 4131 01d3 6C6F6E67 		.ascii	"long long int\000"
 4131      206C6F6E 
 4131      6720696E 
 4131      7400
ARM GAS  /tmp/ccboNQdc.s 			page 75


 4132              	.LASF1:
 4133 01e1 7369676E 		.ascii	"signed char\000"
 4133      65642063 
 4133      68617200 
 4134              	.LASF134:
 4135 01ed 73756273 		.ascii	"subscribe\000"
 4135      63726962 
 4135      6500
 4136              	.LASF112:
 4137 01f7 72656C65 		.ascii	"release\000"
 4137      61736500 
 4138              	.LASF76:
 4139 01ff 6D705F70 		.ascii	"mp_provider\000"
 4139      726F7669 
 4139      64657200 
 4140              	.LASF119:
 4141 020b 5F5A4E31 		.ascii	"_ZN11BaseMessage5resetEv\000"
 4141      31426173 
 4141      654D6573 
 4141      73616765 
 4141      35726573 
 4142              	.LASF15:
 4143 0224 626F6F6C 		.ascii	"bool_t\000"
 4143      5F7400
 4144              	.LASF67:
 4145 022b 6D5F7175 		.ascii	"m_queue\000"
 4145      65756500 
 4146              	.LASF58:
 4147 0233 39526561 		.ascii	"9ReadyList\000"
 4147      64794C69 
 4147      737400
 4148              	.LASF121:
 4149 023e 4C6F6361 		.ascii	"LocalSubscriber\000"
 4149      6C537562 
 4149      73637269 
 4149      62657200 
 4150              	.LASF20:
 4151 024e 74736C69 		.ascii	"tslices_t\000"
 4151      6365735F 
 4151      7400
 4152              	.LASF52:
 4153 0258 31315468 		.ascii	"11ThreadsList\000"
 4153      72656164 
 4153      734C6973 
 4153      7400
 4154              	.LASF159:
 4155 0266 62726F61 		.ascii	"broadcast\000"
 4155      64636173 
 4155      7400
 4156              	.LASF9:
 4157 0270 6C6F6E67 		.ascii	"long int\000"
 4157      20696E74 
 4157      00
 4158              	.LASF102:
 4159 0279 5F746F70 		.ascii	"_topic\000"
 4159      696300
 4160              	.LASF137:
ARM GAS  /tmp/ccboNQdc.s 			page 76


 4161 0280 5F5A4E31 		.ascii	"_ZN15LocalSubscriber11unsubscribeEv\000"
 4161      354C6F63 
 4161      616C5375 
 4161      62736372 
 4161      69626572 
 4162              	.LASF198:
 4163 02a4 2F686F6D 		.ascii	"/home/tino/workspace/openrobots/R2P_IR_module/fw\000"
 4163      652F7469 
 4163      6E6F2F77 
 4163      6F726B73 
 4163      70616365 
 4164              	.LASF106:
 4165 02d5 746F7069 		.ascii	"topic\000"
 4165      6300
 4166              	.LASF132:
 4167 02db 5F5A4E31 		.ascii	"_ZN15LocalSubscriber6notifyEP11BaseMessage\000"
 4167      354C6F63 
 4167      616C5375 
 4167      62736372 
 4167      69626572 
 4168              	.LASF145:
 4169 0306 5F717565 		.ascii	"_queue\000"
 4169      756500
 4170              	.LASF83:
 4171 030d 5F627566 		.ascii	"_buffer\000"
 4171      66657200 
 4172              	.LASF116:
 4173 0315 756E7375 		.ascii	"unsubscribe\000"
 4173      62736372 
 4173      69626500 
 4174              	.LASF6:
 4175 0321 75696E74 		.ascii	"uint16_t\000"
 4175      31365F74 
 4175      00
 4176              	.LASF42:
 4177 032a 705F7469 		.ascii	"p_time\000"
 4177      6D6500
 4178              	.LASF103:
 4179 0331 5F737562 		.ascii	"_subscribers\000"
 4179      73637269 
 4179      62657273 
 4179      00
 4180              	.LASF18:
 4181 033e 74737461 		.ascii	"tstate_t\000"
 4181      74655F74 
 4181      00
 4182              	.LASF192:
 4183 0347 74686973 		.ascii	"this\000"
 4183      00
 4184              	.LASF34:
 4185 034c 705F6E65 		.ascii	"p_newer\000"
 4185      77657200 
 4186              	.LASF113:
 4187 0354 5F5A4E31 		.ascii	"_ZN13BasePublisher7releaseEP11BaseMessage\000"
 4187      33426173 
 4187      65507562 
 4187      6C697368 
ARM GAS  /tmp/ccboNQdc.s 			page 77


 4187      65723772 
 4188              	.LASF152:
 4189 037e 5F5A4E31 		.ascii	"_ZN14BaseSubscriber3getEv\000"
 4189      34426173 
 4189      65537562 
 4189      73637269 
 4189      62657233 
 4190              	.LASF183:
 4191 0398 62726F61 		.ascii	"broadcastI\000"
 4191      64636173 
 4191      744900
 4192              	.LASF62:
 4193 03a3 725F6E65 		.ascii	"r_newer\000"
 4193      77657200 
 4194              	.LASF49:
 4195 03ab 705F6D70 		.ascii	"p_mpool\000"
 4195      6F6F6C00 
 4196              	.LASF54:
 4197 03b3 72656761 		.ascii	"regarm_t\000"
 4197      726D5F74 
 4197      00
 4198              	.LASF129:
 4199 03bc 6C696E6B 		.ascii	"link\000"
 4199      00
 4200              	.LASF202:
 4201 03c1 31377274 		.ascii	"17rtcan_msgstatus_t\000"
 4201      63616E5F 
 4201      6D736773 
 4201      74617475 
 4201      735F7400 
 4202              	.LASF118:
 4203 03d5 72657365 		.ascii	"reset\000"
 4203      7400
 4204              	.LASF86:
 4205 03db 5F726561 		.ascii	"_read\000"
 4205      6400
 4206              	.LASF114:
 4207 03e1 72656C65 		.ascii	"releaseI\000"
 4207      61736549 
 4207      00
 4208              	.LASF181:
 4209 03ea 5F5A4E31 		.ascii	"_ZN15RemotePublisher4nextEv\000"
 4209      3552656D 
 4209      6F746550 
 4209      75626C69 
 4209      73686572 
 4210              	.LASF171:
 4211 0406 52544341 		.ascii	"RTCAN_MSG_UNINIT\000"
 4211      4E5F4D53 
 4211      475F554E 
 4211      494E4954 
 4211      00
 4212              	.LASF109:
 4213 0417 5F5A4E31 		.ascii	"_ZN13BasePublisher5allocEv\000"
 4213      33426173 
 4213      65507562 
 4213      6C697368 
ARM GAS  /tmp/ccboNQdc.s 			page 78


 4213      65723561 
 4214              	.LASF37:
 4215 0432 705F7374 		.ascii	"p_stklimit\000"
 4215      6B6C696D 
 4215      697400
 4216              	.LASF0:
 4217 043d 756E7369 		.ascii	"unsigned int\000"
 4217      676E6564 
 4217      20696E74 
 4217      00
 4218              	.LASF127:
 4219 044a 5F5A4E31 		.ascii	"_ZN15LocalSubscriber4nextEv\000"
 4219      354C6F63 
 4219      616C5375 
 4219      62736372 
 4219      69626572 
 4220              	.LASF143:
 4221 0466 5F6D7367 		.ascii	"_msg_size\000"
 4221      5F73697A 
 4221      6500
 4222              	.LASF100:
 4223 0470 5F5A4E31 		.ascii	"_ZN12MessageQueue4putIEP11BaseMessage\000"
 4223      324D6573 
 4223      73616765 
 4223      51756575 
 4223      65347075 
 4224              	.LASF44:
 4225 0496 705F6D73 		.ascii	"p_msgqueue\000"
 4225      67717565 
 4225      756500
 4226              	.LASF141:
 4227 04a1 63616C6C 		.ascii	"callback_t\000"
 4227      6261636B 
 4227      5F7400
 4228              	.LASF117:
 4229 04ac 5F5A4E31 		.ascii	"_ZN13BasePublisher11unsubscribeEP16RemoteSubscriber"
 4229      33426173 
 4229      65507562 
 4229      6C697368 
 4229      65723131 
 4230 04df 00       		.ascii	"\000"
 4231              	.LASF155:
 4232 04e0 5F5A4E31 		.ascii	"_ZN14BaseSubscriber4sizeEv\000"
 4232      34426173 
 4232      65537562 
 4232      73637269 
 4232      62657234 
 4233              	.LASF142:
 4234 04fb 42617365 		.ascii	"BaseSubscriber\000"
 4234      53756273 
 4234      63726962 
 4234      657200
 4235              	.LASF135:
 4236 050a 5F5A4E31 		.ascii	"_ZN15LocalSubscriber9subscribeEP14LocalPublisherm\000"
 4236      354C6F63 
 4236      616C5375 
 4236      62736372 
ARM GAS  /tmp/ccboNQdc.s 			page 79


 4236      69626572 
 4237              	.LASF169:
 4238 053c 64617461 		.ascii	"data\000"
 4238      00
 4239              	.LASF89:
 4240 0541 73697A65 		.ascii	"size\000"
 4240      00
 4241              	.LASF7:
 4242 0546 73686F72 		.ascii	"short unsigned int\000"
 4242      7420756E 
 4242      7369676E 
 4242      65642069 
 4242      6E7400
 4243              	.LASF91:
 4244 0559 5F5A4E31 		.ascii	"_ZN12MessageQueue4sizeEv\000"
 4244      324D6573 
 4244      73616765 
 4244      51756575 
 4244      65347369 
 4245              	.LASF22:
 4246 0572 6D73675F 		.ascii	"msg_t\000"
 4246      7400
 4247              	.LASF150:
 4248 0578 6C617374 		.ascii	"last\000"
 4248      00
 4249              	.LASF138:
 4250 057d 63616C6C 		.ascii	"callback\000"
 4250      6261636B 
 4250      00
 4251              	.LASF165:
 4252 0586 736C6F74 		.ascii	"slot\000"
 4252      00
 4253              	.LASF146:
 4254 058b 616C6C6F 		.ascii	"alloc_flag\000"
 4254      635F666C 
 4254      616700
 4255              	.LASF16:
 4256 0596 626F6F6C 		.ascii	"bool\000"
 4256      00
 4257              	.LASF53:
 4258 059b 54687265 		.ascii	"ThreadsList\000"
 4258      6164734C 
 4258      69737400 
 4259              	.LASF23:
 4260 05a7 6576656E 		.ascii	"eventmask_t\000"
 4260      746D6173 
 4260      6B5F7400 
 4261              	.LASF101:
 4262 05b3 42617365 		.ascii	"BasePublisher\000"
 4262      5075626C 
 4262      69736865 
 4262      7200
 4263              	.LASF55:
 4264 05c1 73746B61 		.ascii	"stkalign_t\000"
 4264      6C69676E 
 4264      5F7400
 4265              	.LASF85:
ARM GAS  /tmp/ccboNQdc.s 			page 80


 4266 05cc 5F777269 		.ascii	"_write\000"
 4266      746500
 4267              	.LASF177:
 4268 05d3 52544341 		.ascii	"RTCAN_MSG_ERROR\000"
 4268      4E5F4D53 
 4268      475F4552 
 4268      524F5200 
 4269              	.LASF178:
 4270 05e3 72746361 		.ascii	"rtcan_msgstatus_t\000"
 4270      6E5F6D73 
 4270      67737461 
 4270      7475735F 
 4270      7400
 4271              	.LASF130:
 4272 05f5 5F5A4E31 		.ascii	"_ZN15LocalSubscriber4linkEPS_\000"
 4272      354C6F63 
 4272      616C5375 
 4272      62736372 
 4272      69626572 
 4273              	.LASF148:
 4274 0613 736F7572 		.ascii	"source\000"
 4274      636500
 4275              	.LASF190:
 4276 061a 71756575 		.ascii	"queue_buffer\000"
 4276      655F6275 
 4276      66666572 
 4276      00
 4277              	.LASF158:
 4278 0627 5F5A4E31 		.ascii	"_ZN14LocalPublisher4nextEPS_\000"
 4278      344C6F63 
 4278      616C5075 
 4278      626C6973 
 4278      68657234 
 4279              	.LASF80:
 4280 0644 72656665 		.ascii	"reference\000"
 4280      72656E63 
 4280      6500
 4281              	.LASF161:
 4282 064e 5F5A4E31 		.ascii	"_ZN14LocalPublisher9subscribeEP15LocalSubscriberPvj"
 4282      344C6F63 
 4282      616C5075 
 4282      626C6973 
 4282      68657239 
 4283 0681 506D00   		.ascii	"Pm\000"
 4284              	.LASF66:
 4285 0684 4D757465 		.ascii	"Mutex\000"
 4285      7800
 4286              	.LASF46:
 4287 068a 705F6570 		.ascii	"p_epending\000"
 4287      656E6469 
 4287      6E6700
 4288              	.LASF13:
 4289 0695 75696E74 		.ascii	"uint64_t\000"
 4289      36345F74 
 4289      00
 4290              	.LASF35:
 4291 069e 705F6F6C 		.ascii	"p_older\000"
ARM GAS  /tmp/ccboNQdc.s 			page 81


 4291      64657200 
 4292              	.LASF61:
 4293 06a6 725F6374 		.ascii	"r_ctx\000"
 4293      7800
 4294              	.LASF149:
 4295 06ac 5F5A4E31 		.ascii	"_ZN14BaseSubscriber6sourceEv\000"
 4295      34426173 
 4295      65537562 
 4295      73637269 
 4295      62657236 
 4296              	.LASF50:
 4297 06c9 54687265 		.ascii	"ThreadsQueue\000"
 4297      61647351 
 4297      75657565 
 4297      00
 4298              	.LASF153:
 4299 06d6 5F5A4E31 		.ascii	"_ZN14BaseSubscriber7releaseEP11BaseMessage\000"
 4299      34426173 
 4299      65537562 
 4299      73637269 
 4299      62657237 
 4300              	.LASF180:
 4301 0701 5F727463 		.ascii	"_rtcan_msg\000"
 4301      616E5F6D 
 4301      736700
 4302              	.LASF184:
 4303 070c 5F5A4E31 		.ascii	"_ZN15RemotePublisher10broadcastIEP11BaseMessage\000"
 4303      3552656D 
 4303      6F746550 
 4303      75626C69 
 4303      73686572 
 4304              	.LASF123:
 4305 073c 5F6E6578 		.ascii	"_next_notify\000"
 4305      745F6E6F 
 4305      74696679 
 4305      00
 4306              	.LASF63:
 4307 0749 725F6F6C 		.ascii	"r_older\000"
 4307      64657200 
 4308              	.LASF170:
 4309 0751 72746361 		.ascii	"rtcan_msgcallback_t\000"
 4309      6E5F6D73 
 4309      6763616C 
 4309      6C626163 
 4309      6B5F7400 
 4310              	.LASF51:
 4311 0765 31325468 		.ascii	"12ThreadsQueue\000"
 4311      72656164 
 4311      73517565 
 4311      756500
 4312              	.LASF139:
 4313 0774 5F5A4E31 		.ascii	"_ZN15LocalSubscriber8callbackEv\000"
 4313      354C6F63 
 4313      616C5375 
 4313      62736372 
 4313      69626572 
 4314              	.LASF72:
ARM GAS  /tmp/ccboNQdc.s 			page 82


 4315 0794 70685F6E 		.ascii	"ph_next\000"
 4315      65787400 
 4316              	.LASF70:
 4317 079c 6D656D67 		.ascii	"memgetfunc_t\000"
 4317      65746675 
 4317      6E635F74 
 4317      00
 4318              	.LASF128:
 4319 07a9 5F5A4E31 		.ascii	"_ZN15LocalSubscriber4nextEPS_\000"
 4319      354C6F63 
 4319      616C5375 
 4319      62736372 
 4319      69626572 
 4320              	.LASF19:
 4321 07c7 74726566 		.ascii	"trefs_t\000"
 4321      735F7400 
 4322              	.LASF104:
 4323 07cf 5F72656D 		.ascii	"_remote_subscribers\000"
 4323      6F74655F 
 4323      73756273 
 4323      63726962 
 4323      65727300 
 4324              	.LASF176:
 4325 07e3 52544341 		.ascii	"RTCAN_MSG_TIMEOUT\000"
 4325      4E5F4D53 
 4325      475F5449 
 4325      4D454F55 
 4325      5400
 4326              	.LASF31:
 4327 07f5 705F7072 		.ascii	"p_prev\000"
 4327      657600
 4328              	.LASF186:
 4329 07fc 5F5A4E31 		.ascii	"_ZN15RemotePublisher2idEt\000"
 4329      3552656D 
 4329      6F746550 
 4329      75626C69 
 4329      73686572 
 4330              	.LASF21:
 4331 0816 74707269 		.ascii	"tprio_t\000"
 4331      6F5F7400 
 4332              	.LASF8:
 4333 081e 696E7433 		.ascii	"int32_t\000"
 4333      325F7400 
 4334              	.LASF4:
 4335 0826 756E7369 		.ascii	"unsigned char\000"
 4335      676E6564 
 4335      20636861 
 4335      7200
 4336              	.LASF120:
 4337 0834 5F5A4E31 		.ascii	"_ZN13BasePublisher11unsubscribeEP15LocalSubscriber\000"
 4337      33426173 
 4337      65507562 
 4337      6C697368 
 4337      65723131 
 4338              	.LASF47:
 4339 0867 705F6D74 		.ascii	"p_mtxlist\000"
 4339      786C6973 
ARM GAS  /tmp/ccboNQdc.s 			page 83


 4339      7400
 4340              	.LASF5:
 4341 0871 73686F72 		.ascii	"short int\000"
 4341      7420696E 
 4341      7400
 4342              	.LASF38:
 4343 087b 705F7374 		.ascii	"p_state\000"
 4343      61746500 
 4344              	.LASF41:
 4345 0883 705F7072 		.ascii	"p_preempt\000"
 4345      65656D70 
 4345      7400
 4346              	.LASF60:
 4347 088d 725F7072 		.ascii	"r_prio\000"
 4347      696F00
 4348              	.LASF29:
 4349 0894 65776D61 		.ascii	"ewmask\000"
 4349      736B00
 4350              	.LASF30:
 4351 089b 705F6E65 		.ascii	"p_next\000"
 4351      787400
 4352              	.LASF17:
 4353 08a2 746D6F64 		.ascii	"tmode_t\000"
 4353      655F7400 
 4354              	.LASF39:
 4355 08aa 705F666C 		.ascii	"p_flags\000"
 4355      61677300 
 4356              	.LASF111:
 4357 08b2 5F5A4E31 		.ascii	"_ZN13BasePublisher6allocIEv\000"
 4357      33426173 
 4357      65507562 
 4357      6C697368 
 4357      65723661 
 4358              	.LASF193:
 4359 08ce 656D6173 		.ascii	"emask\000"
 4359      6B00
 4360              	.LASF179:
 4361 08d4 52656D6F 		.ascii	"RemotePublisher\000"
 4361      74655075 
 4361      626C6973 
 4361      68657200 
 4362              	.LASF201:
 4363 08e4 66726167 		.ascii	"fragment\000"
 4363      6D656E74 
 4363      00
 4364              	.LASF25:
 4365 08ed 54687265 		.ascii	"Thread\000"
 4365      616400
 4366              	.LASF196:
 4367 08f4 474E5520 		.ascii	"GNU C++ 4.6.2 20120613 (release) [ARM/embedded-4_6-"
 4367      432B2B20 
 4367      342E362E 
 4367      32203230 
 4367      31323036 
 4368 0927 6272616E 		.ascii	"branch revision 188521]\000"
 4368      63682072 
 4368      65766973 
ARM GAS  /tmp/ccboNQdc.s 			page 84


 4368      696F6E20 
 4368      31383835 
 4369              	.LASF173:
 4370 093f 52544341 		.ascii	"RTCAN_MSG_READY\000"
 4370      4E5F4D53 
 4370      475F5245 
 4370      41445900 
 4371              	.LASF136:
 4372 094f 5F5A4E31 		.ascii	"_ZN15LocalSubscriber9subscribeEP15RemotePublisherm\000"
 4372      354C6F63 
 4372      616C5375 
 4372      62736372 
 4372      69626572 
 4373              	.LASF77:
 4374 0982 4D656D6F 		.ascii	"MemoryPool\000"
 4374      7279506F 
 4374      6F6C00
 4375              	.LASF97:
 4376 098d 5F5A4E31 		.ascii	"_ZN12MessageQueue3putEP11BaseMessage\000"
 4376      324D6573 
 4376      73616765 
 4376      51756575 
 4376      65337075 
 4377              	.LASF125:
 4378 09b2 5F63616C 		.ascii	"_callback\000"
 4378      6C626163 
 4378      6B00
 4379              	.LASF95:
 4380 09bc 5F5A4E31 		.ascii	"_ZN12MessageQueue4getIEv\000"
 4380      324D6573 
 4380      73616765 
 4380      51756575 
 4380      65346765 
 4381              	.LASF59:
 4382 09d5 725F7175 		.ascii	"r_queue\000"
 4382      65756500 
 4383              	.LASF11:
 4384 09dd 6C6F6E67 		.ascii	"long unsigned int\000"
 4384      20756E73 
 4384      69676E65 
 4384      6420696E 
 4384      7400
 4385              	.LASF64:
 4386 09ef 725F6375 		.ascii	"r_current\000"
 4386      7272656E 
 4386      7400
 4387              	.LASF131:
 4388 09f9 6E6F7469 		.ascii	"notify\000"
 4388      667900
 4389              	.LASF78:
 4390 0a00 63686172 		.ascii	"char\000"
 4390      00
 4391              	.LASF163:
 4392 0a05 72746361 		.ascii	"rtcan_msg_t\000"
 4392      6E5F6D73 
 4392      675F7400 
 4393              	.LASF99:
ARM GAS  /tmp/ccboNQdc.s 			page 85


 4394 0a11 5F5A4E31 		.ascii	"_ZN11BaseMessage9referenceEv\000"
 4394      31426173 
 4394      654D6573 
 4394      73616765 
 4394      39726566 
 4395              	.LASF45:
 4396 0a2e 705F6D73 		.ascii	"p_msg\000"
 4396      6700
 4397              	.LASF168:
 4398 0a34 70617261 		.ascii	"params\000"
 4398      6D7300
 4399              	.LASF88:
 4400 0a3b 64657265 		.ascii	"dereference\000"
 4400      66657265 
 4400      6E636500 
 4401              	.LASF69:
 4402 0a47 6D5F6E65 		.ascii	"m_next\000"
 4402      787400
 4403              	.LASF24:
 4404 0a4e 73797374 		.ascii	"systime_t\000"
 4404      696D655F 
 4404      7400
 4405              	.LASF48:
 4406 0a58 705F7265 		.ascii	"p_realprio\000"
 4406      616C7072 
 4406      696F00
 4407              	.LASF189:
 4408 0a63 62756666 		.ascii	"buffer\000"
 4408      657200
 4409              	.LASF108:
 4410 0a6a 616C6C6F 		.ascii	"alloc\000"
 4410      6300
 4411              	.LASF98:
 4412 0a70 70757449 		.ascii	"putI\000"
 4412      00
 4413              	.LASF122:
 4414 0a75 5F6E6578 		.ascii	"_next\000"
 4414      7400
 4415              	.LASF36:
 4416 0a7b 705F6E61 		.ascii	"p_name\000"
 4416      6D6500
 4417              	.LASF87:
 4418 0a82 5F636E74 		.ascii	"_cnt\000"
 4418      00
 4419              	.LASF74:
 4420 0a87 6D705F6E 		.ascii	"mp_next\000"
 4420      65787400 
 4421              	.LASF172:
 4422 0a8f 52544341 		.ascii	"RTCAN_MSG_BUSY\000"
 4422      4E5F4D53 
 4422      475F4255 
 4422      535900
 4423              	.LASF57:
 4424 0a9e 636F6E74 		.ascii	"context\000"
 4424      65787400 
 4425              	.LASF93:
 4426 0aa6 5F5A4E31 		.ascii	"_ZN12MessageQueue5sizeIEv\000"
ARM GAS  /tmp/ccboNQdc.s 			page 86


 4426      324D6573 
 4426      73616765 
 4426      51756575 
 4426      65357369 
 4427              	.LASF140:
 4428 0ac0 5F5A4E31 		.ascii	"_ZN15LocalSubscriber8callbackEP11BaseMessage\000"
 4428      354C6F63 
 4428      616C5375 
 4428      62736372 
 4428      69626572 
 4429              	.LASF56:
 4430 0aed 696E7463 		.ascii	"intctx\000"
 4430      747800
 4431              	.LASF182:
 4432 0af4 5F5A4E31 		.ascii	"_ZN15RemotePublisher4nextEPS_\000"
 4432      3552656D 
 4432      6F746550 
 4432      75626C69 
 4432      73686572 
 4433              	.LASF92:
 4434 0b12 73697A65 		.ascii	"sizeI\000"
 4434      4900
 4435              	.LASF10:
 4436 0b18 75696E74 		.ascii	"uint32_t\000"
 4436      33325F74 
 4436      00
 4437              	.LASF84:
 4438 0b21 5F746F70 		.ascii	"_top\000"
 4438      00
 4439              	.LASF71:
 4440 0b26 706F6F6C 		.ascii	"pool_header\000"
 4440      5F686561 
 4440      64657200 
 4441              	.LASF40:
 4442 0b32 705F7265 		.ascii	"p_refs\000"
 4442      667300
 4443              	.LASF167:
 4444 0b39 73746174 		.ascii	"status\000"
 4444      757300
 4445              	.LASF65:
 4446 0b40 52656164 		.ascii	"ReadyList\000"
 4446      794C6973 
 4446      7400
 4447              	.LASF188:
 4448 0b4a 6D73675F 		.ascii	"msg_size\000"
 4448      73697A65 
 4448      00
 4449              	.LASF194:
 4450 0b53 726C6973 		.ascii	"rlist\000"
 4450      7400
 4451              	.LASF187:
 4452 0b59 5F5A4E31 		.ascii	"_ZN15RemotePublisher2idEv\000"
 4452      3552656D 
 4452      6F746550 
 4452      75626C69 
 4452      73686572 
 4453              	.LASF3:
ARM GAS  /tmp/ccboNQdc.s 			page 87


 4454 0b73 75696E74 		.ascii	"uint8_t\000"
 4454      385F7400 
 4455              	.LASF81:
 4456 0b7b 4D657373 		.ascii	"MessageQueue\000"
 4456      61676551 
 4456      75657565 
 4456      00
 4457              	.LASF133:
 4458 0b88 5F5A4E31 		.ascii	"_ZN15LocalSubscriber6notifyEP11BaseMessageRi\000"
 4458      354C6F63 
 4458      616C5375 
 4458      62736372 
 4458      69626572 
 4459              	.LASF28:
 4460 0bb5 77746F62 		.ascii	"wtobjp\000"
 4460      6A7000
 4461              	.LASF144:
 4462 0bbc 5F736F75 		.ascii	"_source\000"
 4462      72636500 
 4463              	.LASF151:
 4464 0bc4 5F5A4E31 		.ascii	"_ZN14BaseSubscriber4lastEv\000"
 4464      34426173 
 4464      65537562 
 4464      73637269 
 4464      62657234 
 4465              	.LASF157:
 4466 0bdf 5F5A4E31 		.ascii	"_ZN14LocalPublisher4nextEv\000"
 4466      344C6F63 
 4466      616C5075 
 4466      626C6973 
 4466      68657234 
 4467              	.LASF107:
 4468 0bfa 5F5A4E31 		.ascii	"_ZN13BasePublisher5topicEv\000"
 4468      33426173 
 4468      65507562 
 4468      6C697368 
 4468      65723574 
 4469              	.LASF75:
 4470 0c15 6D705F6F 		.ascii	"mp_object_size\000"
 4470      626A6563 
 4470      745F7369 
 4470      7A6500
 4471              	.LASF164:
 4472 0c24 64656164 		.ascii	"deadline\000"
 4472      6C696E65 
 4472      00
 4473              	.LASF124:
 4474 0c2d 5F6D6173 		.ascii	"_mask\000"
 4474      6B00
 4475              	.LASF115:
 4476 0c33 5F5A4E31 		.ascii	"_ZN13BasePublisher8releaseIEP11BaseMessage\000"
 4476      33426173 
 4476      65507562 
 4476      6C697368 
 4476      65723872 
 4477              	.LASF174:
 4478 0c5e 52544341 		.ascii	"RTCAN_MSG_QUEUED\000"
ARM GAS  /tmp/ccboNQdc.s 			page 88


 4478      4E5F4D53 
 4478      475F5155 
 4478      45554544 
 4478      00
 4479              	.LASF68:
 4480 0c6f 6D5F6F77 		.ascii	"m_owner\000"
 4480      6E657200 
 4481              	.LASF33:
 4482 0c77 705F6374 		.ascii	"p_ctx\000"
 4482      7800
 4483              	.LASF43:
 4484 0c7d 705F7761 		.ascii	"p_waiting\000"
 4484      6974696E 
 4484      6700
 4485              	.LASF185:
 4486 0c87 5F5A4E31 		.ascii	"_ZN15RemotePublisher9subscribeEP15LocalSubscriberPv"
 4486      3552656D 
 4486      6F746550 
 4486      75626C69 
 4486      73686572 
 4487 0cba 6A506D00 		.ascii	"jPm\000"
 4488              		.ident	"GCC: (GNU Tools for ARM Embedded Processors) 4.6.2 20120613 (release) [ARM/embedded-4_6-br
ARM GAS  /tmp/ccboNQdc.s 			page 89


DEFINED SYMBOLS
                            *ABS*:00000000 LocalSubscriber.cpp
     /tmp/ccboNQdc.s:19     .text._ZN15LocalSubscriberC2EPKcjPhPP11BaseMessagemPFvS4_E:00000000 $t
     /tmp/ccboNQdc.s:25     .text._ZN15LocalSubscriberC2EPKcjPhPP11BaseMessagemPFvS4_E:00000000 _ZN15LocalSubscriberC2EPKcjPhPP11BaseMessagemPFvS4_E
     /tmp/ccboNQdc.s:81     .text._ZN15LocalSubscriber4nextEv:00000000 $t
     /tmp/ccboNQdc.s:87     .text._ZN15LocalSubscriber4nextEv:00000000 _ZN15LocalSubscriber4nextEv
     /tmp/ccboNQdc.s:104    .text._ZN15LocalSubscriber4nextEPS_:00000000 $t
     /tmp/ccboNQdc.s:110    .text._ZN15LocalSubscriber4nextEPS_:00000000 _ZN15LocalSubscriber4nextEPS_
     /tmp/ccboNQdc.s:126    .text._ZN15LocalSubscriber4linkEPS_:00000000 $t
     /tmp/ccboNQdc.s:132    .text._ZN15LocalSubscriber4linkEPS_:00000000 _ZN15LocalSubscriber4linkEPS_
     /tmp/ccboNQdc.s:148    .text._ZN15LocalSubscriber6notifyEP11BaseMessageRi:00000000 $t
     /tmp/ccboNQdc.s:154    .text._ZN15LocalSubscriber6notifyEP11BaseMessageRi:00000000 _ZN15LocalSubscriber6notifyEP11BaseMessageRi
     /tmp/ccboNQdc.s:200    .text._ZN15LocalSubscriber6notifyEP11BaseMessage:00000000 $t
     /tmp/ccboNQdc.s:206    .text._ZN15LocalSubscriber6notifyEP11BaseMessage:00000000 _ZN15LocalSubscriber6notifyEP11BaseMessage
     /tmp/ccboNQdc.s:262    .text._ZN15LocalSubscriber9subscribeEP14LocalPublisherm:00000000 $t
     /tmp/ccboNQdc.s:268    .text._ZN15LocalSubscriber9subscribeEP14LocalPublisherm:00000000 _ZN15LocalSubscriber9subscribeEP14LocalPublisherm
     /tmp/ccboNQdc.s:313    .text._ZN15LocalSubscriber9subscribeEP15RemotePublisherm:00000000 $t
     /tmp/ccboNQdc.s:319    .text._ZN15LocalSubscriber9subscribeEP15RemotePublisherm:00000000 _ZN15LocalSubscriber9subscribeEP15RemotePublisherm
     /tmp/ccboNQdc.s:364    .text._ZN15LocalSubscriber11unsubscribeEv:00000000 $t
     /tmp/ccboNQdc.s:370    .text._ZN15LocalSubscriber11unsubscribeEv:00000000 _ZN15LocalSubscriber11unsubscribeEv
     /tmp/ccboNQdc.s:391    .text._ZN15LocalSubscriber8callbackEv:00000000 $t
     /tmp/ccboNQdc.s:397    .text._ZN15LocalSubscriber8callbackEv:00000000 _ZN15LocalSubscriber8callbackEv
     /tmp/ccboNQdc.s:414    .text._ZN15LocalSubscriber8callbackEP11BaseMessage:00000000 $t
     /tmp/ccboNQdc.s:420    .text._ZN15LocalSubscriber8callbackEP11BaseMessage:00000000 _ZN15LocalSubscriber8callbackEP11BaseMessage
     /tmp/ccboNQdc.s:25     .text._ZN15LocalSubscriberC2EPKcjPhPP11BaseMessagemPFvS4_E:00000000 _ZN15LocalSubscriberC1EPKcjPhPP11BaseMessagemPFvS4_E
                     .debug_frame:00000010 $d

UNDEFINED SYMBOLS
_ZN14BaseSubscriberC2EPKcjPhPP11BaseMessagem
rlist
_ZN12MessageQueue4putIEP11BaseMessage
_ZN11BaseMessage9referenceEv
chEvtSignalI
_ZN12MessageQueue5sizeIEv
_ZN14LocalPublisher9subscribeEP15LocalSubscriberPvjPm
_ZN15RemotePublisher9subscribeEP15LocalSubscriberPvjPm
_ZN13BasePublisher11unsubscribeEP15LocalSubscriber
