ARM GAS  /tmp/ccIZ6SY6.s 			page 1


   1              		.syntax unified
   2              		.cpu cortex-m3
   3              		.fpu softvfp
   4              		.eabi_attribute 20, 1
   5              		.eabi_attribute 21, 1
   6              		.eabi_attribute 23, 3
   7              		.eabi_attribute 24, 1
   8              		.eabi_attribute 25, 1
   9              		.eabi_attribute 26, 1
  10              		.eabi_attribute 30, 2
  11              		.eabi_attribute 34, 1
  12              		.eabi_attribute 18, 4
  13              		.thumb
  14              		.file	"LocalPublisher.cpp"
  15              		.text
  16              	.Ltext0:
  17              		.cfi_sections	.debug_frame
  18              		.section	.text._ZN14LocalPublisherC2EPKcj,"ax",%progbits
  19              		.align	2
  20              		.p2align 4,,15
  21              		.global	_ZN14LocalPublisherC2EPKcj
  22              		.thumb
  23              		.thumb_func
  24              		.type	_ZN14LocalPublisherC2EPKcj, %function
  25              	_ZN14LocalPublisherC2EPKcj:
  26              	.LFB81:
  27              		.file 1 "../../Middleware/LocalPublisher.cpp"
  28              		.loc 1 10 0
  29              		.cfi_startproc
  30              		@ args = 0, pretend = 0, frame = 0
  31              		@ frame_needed = 0, uses_anonymous_args = 0
  32              	.LVL0:
  33 0000 10B5     		push	{r4, lr}
  34              	.LCFI0:
  35              		.cfi_def_cfa_offset 8
  36              		.cfi_offset 14, -4
  37              		.cfi_offset 4, -8
  38              		.loc 1 10 0
  39 0002 0446     		mov	r4, r0
  40              	.LBB2:
  41 0004 FFF7FEFF 		bl	_ZN13BasePublisherC2EPKcj
  42              	.LVL1:
  43              		.loc 1 11 0
  44 0008 0023     		movs	r3, #0
  45 000a A361     		str	r3, [r4, #24]
  46              	.LBE2:
  47              		.loc 1 12 0
  48 000c 2046     		mov	r0, r4
  49 000e 10BD     		pop	{r4, pc}
  50              		.cfi_endproc
  51              	.LFE81:
  52              		.size	_ZN14LocalPublisherC2EPKcj, .-_ZN14LocalPublisherC2EPKcj
  53              		.section	.text._ZN14LocalPublisher4nextEv,"ax",%progbits
  54              		.align	2
  55              		.p2align 4,,15
  56              		.global	_ZN14LocalPublisher4nextEv
  57              		.thumb
ARM GAS  /tmp/ccIZ6SY6.s 			page 2


  58              		.thumb_func
  59              		.type	_ZN14LocalPublisher4nextEv, %function
  60              	_ZN14LocalPublisher4nextEv:
  61              	.LFB83:
  62              		.loc 1 14 0
  63              		.cfi_startproc
  64              		@ args = 0, pretend = 0, frame = 0
  65              		@ frame_needed = 0, uses_anonymous_args = 0
  66              		@ link register save eliminated.
  67              	.LVL2:
  68              		.loc 1 15 0
  69 0000 8069     		ldr	r0, [r0, #24]
  70              	.LVL3:
  71              		.loc 1 16 0
  72 0002 7047     		bx	lr
  73              		.cfi_endproc
  74              	.LFE83:
  75              		.size	_ZN14LocalPublisher4nextEv, .-_ZN14LocalPublisher4nextEv
  76 0004 AFF30080 		.section	.text._ZN14LocalPublisher4nextEPS_,"ax",%progbits
  76      AFF30080 
  76      AFF30080 
  77              		.align	2
  78              		.p2align 4,,15
  79              		.global	_ZN14LocalPublisher4nextEPS_
  80              		.thumb
  81              		.thumb_func
  82              		.type	_ZN14LocalPublisher4nextEPS_, %function
  83              	_ZN14LocalPublisher4nextEPS_:
  84              	.LFB84:
  85              		.loc 1 18 0
  86              		.cfi_startproc
  87              		@ args = 0, pretend = 0, frame = 0
  88              		@ frame_needed = 0, uses_anonymous_args = 0
  89              		@ link register save eliminated.
  90              	.LVL4:
  91              		.loc 1 19 0
  92 0000 8161     		str	r1, [r0, #24]
  93              		.loc 1 20 0
  94 0002 7047     		bx	lr
  95              		.cfi_endproc
  96              	.LFE84:
  97              		.size	_ZN14LocalPublisher4nextEPS_, .-_ZN14LocalPublisher4nextEPS_
  98 0004 AFF30080 		.section	.text._ZN14LocalPublisher9broadcastEP11BaseMessage,"ax",%progbits
  98      AFF30080 
  98      AFF30080 
  99              		.align	2
 100              		.p2align 4,,15
 101              		.global	_ZN14LocalPublisher9broadcastEP11BaseMessage
 102              		.thumb
 103              		.thumb_func
 104              		.type	_ZN14LocalPublisher9broadcastEP11BaseMessage, %function
 105              	_ZN14LocalPublisher9broadcastEP11BaseMessage:
 106              	.LFB85:
 107              		.loc 1 22 0
 108              		.cfi_startproc
 109              		@ args = 0, pretend = 0, frame = 16
 110              		@ frame_needed = 0, uses_anonymous_args = 0
ARM GAS  /tmp/ccIZ6SY6.s 			page 3


 111              	.LVL5:
 112 0000 30B5     		push	{r4, r5, lr}
 113              	.LCFI1:
 114              		.cfi_def_cfa_offset 12
 115              		.cfi_offset 14, -4
 116              		.cfi_offset 5, -8
 117              		.cfi_offset 4, -12
 118 0002 0246     		mov	r2, r0
 119              	.LBB3:
 120              		.loc 1 25 0
 121 0004 0023     		movs	r3, #0
 122              	.LBE3:
 123              		.loc 1 22 0
 124 0006 85B0     		sub	sp, sp, #20
 125              	.LCFI2:
 126              		.cfi_def_cfa_offset 32
 127              	.LBB8:
 128              		.loc 1 23 0
 129 0008 4068     		ldr	r0, [r0, #4]
 130              	.LVL6:
 131              		.loc 1 24 0
 132 000a 9468     		ldr	r4, [r2, #8]
 133              	.LVL7:
 134              		.loc 1 25 0
 135 000c 0393     		str	r3, [sp, #12]
 136              	.LVL8:
 137              	.LBE8:
 138              		.loc 1 22 0
 139 000e 0D46     		mov	r5, r1
 140              	.LBB9:
 141              	.LBB4:
 142              	.LBB5:
 143              		.loc 1 27 0
 144 0010 2023     		movs	r3, #32
 145              	.LVL9:
 146              	@ 27 "../../Middleware/LocalPublisher.cpp" 1
 147 0012 83F31188 		msr     BASEPRI, r3
 148              	@ 0 "" 2
 149              	.LVL10:
 150              		.thumb
 151              	.LBE5:
 152 0016 0190     		str	r0, [sp, #4]
 153 0018 FFF7FEFF 		bl	dbg_check_lock
 154              	.LVL11:
 155              	.LBE4:
 156              		.loc 1 29 0
 157 001c 0198     		ldr	r0, [sp, #4]
 158 001e 28B1     		cbz	r0, .L12
 159              	.LVL12:
 160              	.L7:
 161              		.loc 1 30 0
 162 0020 2946     		mov	r1, r5
 163 0022 03AA     		add	r2, sp, #12
 164 0024 FFF7FEFF 		bl	_ZN15LocalSubscriber6notifyEP11BaseMessageRi
 165              	.LVL13:
 166              		.loc 1 29 0
 167 0028 0028     		cmp	r0, #0
ARM GAS  /tmp/ccIZ6SY6.s 			page 4


 168 002a F9D1     		bne	.L7
 169              	.L12:
 170              		.loc 1 33 0
 171 002c 3CB1     		cbz	r4, .L14
 172              	.LVL14:
 173              	.L9:
 174              		.loc 1 34 0
 175 002e 2046     		mov	r0, r4
 176 0030 2946     		mov	r1, r5
 177 0032 03AA     		add	r2, sp, #12
 178 0034 FFF7FEFF 		bl	_ZN16RemoteSubscriber6notifyEP11BaseMessageRi
 179 0038 0446     		mov	r4, r0
 180              	.LVL15:
 181              		.loc 1 33 0
 182 003a 002C     		cmp	r4, #0
 183 003c F7D1     		bne	.L9
 184              	.LVL16:
 185              	.L14:
 186              		.loc 1 37 0
 187 003e FFF7FEFF 		bl	chSchRescheduleS
 188              	.LBB6:
 189              		.loc 1 38 0
 190 0042 FFF7FEFF 		bl	dbg_check_unlock
 191              	.LBB7:
 192 0046 0023     		movs	r3, #0
 193              	.LVL17:
 194              	@ 38 "../../Middleware/LocalPublisher.cpp" 1
 195 0048 83F31188 		msr     BASEPRI, r3
 196              	@ 0 "" 2
 197              	.LVL18:
 198              		.thumb
 199              	.LBE7:
 200              	.LBE6:
 201              	.LBE9:
 202              		.loc 1 41 0
 203 004c 0398     		ldr	r0, [sp, #12]
 204 004e 05B0     		add	sp, sp, #20
 205 0050 30BD     		pop	{r4, r5, pc}
 206              		.cfi_endproc
 207              	.LFE85:
 208              		.size	_ZN14LocalPublisher9broadcastEP11BaseMessage, .-_ZN14LocalPublisher9broadcastEP11BaseMessage
 209 0052 00BFAFF3 		.section	.text._ZN14LocalPublisher9subscribeEP15LocalSubscriberPvjPm,"ax",%progbits
 209      0080AFF3 
 209      0080AFF3 
 209      0080
 210              		.align	2
 211              		.p2align 4,,15
 212              		.global	_ZN14LocalPublisher9subscribeEP15LocalSubscriberPvjPm
 213              		.thumb
 214              		.thumb_func
 215              		.type	_ZN14LocalPublisher9subscribeEP15LocalSubscriberPvjPm, %function
 216              	_ZN14LocalPublisher9subscribeEP15LocalSubscriberPvjPm:
 217              	.LFB86:
 218              		.loc 1 44 0
 219              		.cfi_startproc
 220              		@ args = 4, pretend = 0, frame = 0
 221              		@ frame_needed = 0, uses_anonymous_args = 0
ARM GAS  /tmp/ccIZ6SY6.s 			page 5


 222              	.LVL19:
 223 0000 70B5     		push	{r4, r5, r6, lr}
 224              	.LCFI3:
 225              		.cfi_def_cfa_offset 16
 226              		.cfi_offset 14, -4
 227              		.cfi_offset 6, -8
 228              		.cfi_offset 5, -12
 229              		.cfi_offset 4, -16
 230              		.loc 1 44 0
 231 0002 049E     		ldr	r6, [sp, #16]
 232 0004 0446     		mov	r4, r0
 233              	.LBB10:
 234              		.loc 1 46 0
 235 0006 3068     		ldr	r0, [r6, #0]
 236              	.LVL20:
 237              	.LBE10:
 238              		.loc 1 44 0
 239 0008 0D46     		mov	r5, r1
 240              	.LBB15:
 241              		.loc 1 46 0
 242 000a 80B9     		cbnz	r0, .L20
 243              	.LVL21:
 244              	.L16:
 245              	.LBB11:
 246              	.LBB12:
 247              		.loc 1 51 0
 248 000c 2023     		movs	r3, #32
 249              	.LVL22:
 250              	@ 51 "../../Middleware/LocalPublisher.cpp" 1
 251 000e 83F31188 		msr     BASEPRI, r3
 252              	@ 0 "" 2
 253              	.LVL23:
 254              		.thumb
 255              	.LBE12:
 256 0012 FFF7FEFF 		bl	dbg_check_lock
 257              	.LVL24:
 258              	.LBE11:
 259              		.loc 1 52 0
 260 0016 6168     		ldr	r1, [r4, #4]
 261 0018 11B1     		cbz	r1, .L19
 262              		.loc 1 55 0
 263 001a 2846     		mov	r0, r5
 264 001c FFF7FEFF 		bl	_ZN15LocalSubscriber4linkEPS_
 265              	.L19:
 266              		.loc 1 56 0
 267 0020 6560     		str	r5, [r4, #4]
 268              	.LBB13:
 269              		.loc 1 58 0
 270 0022 FFF7FEFF 		bl	dbg_check_unlock
 271              	.LBB14:
 272 0026 0023     		movs	r3, #0
 273              	.LVL25:
 274              	@ 58 "../../Middleware/LocalPublisher.cpp" 1
 275 0028 83F31188 		msr     BASEPRI, r3
 276              	@ 0 "" 2
 277              	.LVL26:
 278              		.thumb
ARM GAS  /tmp/ccIZ6SY6.s 			page 6


 279              	.LBE14:
 280              	.LBE13:
 281              	.LBE15:
 282              		.loc 1 59 0
 283 002c 70BD     		pop	{r4, r5, r6, pc}
 284              	.LVL27:
 285              	.L20:
 286              	.LBB16:
 287              		.loc 1 47 0
 288 002e 1146     		mov	r1, r2
 289 0030 04F10C00 		add	r0, r4, #12
 290 0034 1A46     		mov	r2, r3
 291              	.LVL28:
 292 0036 FFF7FEFF 		bl	chPoolLoadArray
 293              	.LVL29:
 294              		.loc 1 48 0
 295 003a 0023     		movs	r3, #0
 296 003c 3360     		str	r3, [r6, #0]
 297 003e E5E7     		b	.L16
 298              	.LBE16:
 299              		.cfi_endproc
 300              	.LFE86:
 301              		.size	_ZN14LocalPublisher9subscribeEP15LocalSubscriberPvjPm, .-_ZN14LocalPublisher9subscribeEP15Lo
 302              		.section	.text._ZN14LocalPublisher9subscribeEP16RemoteSubscriberPvjPm,"ax",%progbits
 303              		.align	2
 304              		.p2align 4,,15
 305              		.global	_ZN14LocalPublisher9subscribeEP16RemoteSubscriberPvjPm
 306              		.thumb
 307              		.thumb_func
 308              		.type	_ZN14LocalPublisher9subscribeEP16RemoteSubscriberPvjPm, %function
 309              	_ZN14LocalPublisher9subscribeEP16RemoteSubscriberPvjPm:
 310              	.LFB87:
 311              		.loc 1 62 0
 312              		.cfi_startproc
 313              		@ args = 4, pretend = 0, frame = 0
 314              		@ frame_needed = 0, uses_anonymous_args = 0
 315              	.LVL30:
 316 0000 70B5     		push	{r4, r5, r6, lr}
 317              	.LCFI4:
 318              		.cfi_def_cfa_offset 16
 319              		.cfi_offset 14, -4
 320              		.cfi_offset 6, -8
 321              		.cfi_offset 5, -12
 322              		.cfi_offset 4, -16
 323              		.loc 1 62 0
 324 0002 049E     		ldr	r6, [sp, #16]
 325 0004 0446     		mov	r4, r0
 326              	.LBB17:
 327              		.loc 1 64 0
 328 0006 3068     		ldr	r0, [r6, #0]
 329              	.LVL31:
 330              	.LBE17:
 331              		.loc 1 62 0
 332 0008 0D46     		mov	r5, r1
 333              	.LBB22:
 334              		.loc 1 64 0
 335 000a 80B9     		cbnz	r0, .L26
ARM GAS  /tmp/ccIZ6SY6.s 			page 7


 336              	.LVL32:
 337              	.L22:
 338              	.LBB18:
 339              	.LBB19:
 340              		.loc 1 69 0
 341 000c 2023     		movs	r3, #32
 342              	.LVL33:
 343              	@ 69 "../../Middleware/LocalPublisher.cpp" 1
 344 000e 83F31188 		msr     BASEPRI, r3
 345              	@ 0 "" 2
 346              	.LVL34:
 347              		.thumb
 348              	.LBE19:
 349 0012 FFF7FEFF 		bl	dbg_check_lock
 350              	.LVL35:
 351              	.LBE18:
 352              		.loc 1 70 0
 353 0016 A168     		ldr	r1, [r4, #8]
 354 0018 11B1     		cbz	r1, .L25
 355              		.loc 1 73 0
 356 001a 2846     		mov	r0, r5
 357 001c FFF7FEFF 		bl	_ZN16RemoteSubscriber4linkEPS_
 358              	.L25:
 359              		.loc 1 74 0
 360 0020 A560     		str	r5, [r4, #8]
 361              	.LBB20:
 362              		.loc 1 76 0
 363 0022 FFF7FEFF 		bl	dbg_check_unlock
 364              	.LBB21:
 365 0026 0023     		movs	r3, #0
 366              	.LVL36:
 367              	@ 76 "../../Middleware/LocalPublisher.cpp" 1
 368 0028 83F31188 		msr     BASEPRI, r3
 369              	@ 0 "" 2
 370              	.LVL37:
 371              		.thumb
 372              	.LBE21:
 373              	.LBE20:
 374              	.LBE22:
 375              		.loc 1 77 0
 376 002c 70BD     		pop	{r4, r5, r6, pc}
 377              	.LVL38:
 378              	.L26:
 379              	.LBB23:
 380              		.loc 1 65 0
 381 002e 1146     		mov	r1, r2
 382 0030 04F10C00 		add	r0, r4, #12
 383 0034 1A46     		mov	r2, r3
 384              	.LVL39:
 385 0036 FFF7FEFF 		bl	chPoolLoadArray
 386              	.LVL40:
 387              		.loc 1 66 0
 388 003a 0023     		movs	r3, #0
 389 003c 3360     		str	r3, [r6, #0]
 390 003e E5E7     		b	.L22
 391              	.LBE23:
 392              		.cfi_endproc
ARM GAS  /tmp/ccIZ6SY6.s 			page 8


 393              	.LFE87:
 394              		.size	_ZN14LocalPublisher9subscribeEP16RemoteSubscriberPvjPm, .-_ZN14LocalPublisher9subscribeEP16R
 395              		.global	_ZN14LocalPublisherC1EPKcj
 396              		.thumb_set _ZN14LocalPublisherC1EPKcj,_ZN14LocalPublisherC2EPKcj
 397              		.text
 398              	.Letext0:
 399              		.file 2 "/home/tino/ChibiStudio/tools/GNU Tools ARM Embedded/4.6 2012q2/bin/../lib/gcc/arm-none-ea
 400              		.file 3 "/home/tino/ChibiStudio/tools/GNU Tools ARM Embedded/4.6 2012q2/bin/../lib/gcc/arm-none-ea
 401              		.file 4 "../../ChibiOS/os/ports/GCC/ARMCMx/chtypes.h"
 402              		.file 5 "../../ChibiOS/os/kernel/include/chlists.h"
 403              		.file 6 "../../ChibiOS/os/kernel/include/chthreads.h"
 404              		.file 7 "../../ChibiOS/os/ports/GCC/ARMCMx/chcore_v7m.h"
 405              		.file 8 "../../ChibiOS/os/kernel/include/chmtx.h"
 406              		.file 9 "../../ChibiOS/os/kernel/include/chmemcore.h"
 407              		.file 10 "../../ChibiOS/os/kernel/include/chmempools.h"
 408              		.file 11 "../../Middleware/BaseMessage.hpp"
 409              		.file 12 "../../Middleware/MessageQueue.hpp"
 410              		.file 13 "../../Middleware/BasePublisher.hpp"
 411              		.file 14 "../../Middleware/LocalSubscriber.hpp"
 412              		.file 15 "../../Middleware/RemoteSubscriber.hpp"
 413              		.file 16 "../../Middleware/LocalPublisher.hpp"
 414              		.file 17 "../../RTCAN/include/rtcan.h"
 415              		.file 18 "../../Middleware/BaseSubscriber.hpp"
 416              		.file 19 "../../Middleware/RemotePublisher.hpp"
 417              		.file 20 "../../ChibiOS/os/various/cpp_wrappers/ch.hpp"
 418              		.file 21 "../../ChibiOS/os/ports/common/ARMCMx/CMSIS/include/core_cm3.h"
 419              		.section	.debug_info,"",%progbits
 420              	.Ldebug_info0:
 421 0000 87130000 		.4byte	0x1387
 422 0004 0200     		.2byte	0x2
 423 0006 00000000 		.4byte	.Ldebug_abbrev0
 424 000a 04       		.byte	0x4
 425 000b 01       		.uleb128 0x1
 426 000c 72090000 		.4byte	.LASF193
 427 0010 04       		.byte	0x4
 428 0011 160C0000 		.4byte	.LASF194
 429 0015 C1020000 		.4byte	.LASF195
 430 0019 00000000 		.4byte	0
 431 001d 00000000 		.4byte	0
 432 0021 20000000 		.4byte	.Ldebug_ranges0+0x20
 433 0025 00000000 		.4byte	.Ldebug_line0
 434 0029 02       		.uleb128 0x2
 435 002a 04       		.byte	0x4
 436 002b 05       		.byte	0x5
 437 002c 696E7400 		.ascii	"int\000"
 438 0030 03       		.uleb128 0x3
 439 0031 83000000 		.4byte	.LASF2
 440 0035 02       		.byte	0x2
 441 0036 D4       		.byte	0xd4
 442 0037 3B000000 		.4byte	0x3b
 443 003b 04       		.uleb128 0x4
 444 003c 04       		.byte	0x4
 445 003d 07       		.byte	0x7
 446 003e 72040000 		.4byte	.LASF0
 447 0042 04       		.uleb128 0x4
 448 0043 01       		.byte	0x1
 449 0044 06       		.byte	0x6
ARM GAS  /tmp/ccIZ6SY6.s 			page 9


 450 0045 C4010000 		.4byte	.LASF1
 451 0049 03       		.uleb128 0x3
 452 004a 010C0000 		.4byte	.LASF3
 453 004e 03       		.byte	0x3
 454 004f 2A       		.byte	0x2a
 455 0050 54000000 		.4byte	0x54
 456 0054 04       		.uleb128 0x4
 457 0055 01       		.byte	0x1
 458 0056 08       		.byte	0x8
 459 0057 A9080000 		.4byte	.LASF4
 460 005b 04       		.uleb128 0x4
 461 005c 02       		.byte	0x2
 462 005d 05       		.byte	0x5
 463 005e F4080000 		.4byte	.LASF5
 464 0062 03       		.uleb128 0x3
 465 0063 5E030000 		.4byte	.LASF6
 466 0067 03       		.byte	0x3
 467 0068 36       		.byte	0x36
 468 0069 6D000000 		.4byte	0x6d
 469 006d 04       		.uleb128 0x4
 470 006e 02       		.byte	0x2
 471 006f 07       		.byte	0x7
 472 0070 7B050000 		.4byte	.LASF7
 473 0074 03       		.uleb128 0x3
 474 0075 A1080000 		.4byte	.LASF8
 475 0079 03       		.byte	0x3
 476 007a 4F       		.byte	0x4f
 477 007b 7F000000 		.4byte	0x7f
 478 007f 04       		.uleb128 0x4
 479 0080 04       		.byte	0x4
 480 0081 05       		.byte	0x5
 481 0082 6E020000 		.4byte	.LASF9
 482 0086 03       		.uleb128 0x3
 483 0087 B00B0000 		.4byte	.LASF10
 484 008b 03       		.byte	0x3
 485 008c 50       		.byte	0x50
 486 008d 91000000 		.4byte	0x91
 487 0091 04       		.uleb128 0x4
 488 0092 04       		.byte	0x4
 489 0093 07       		.byte	0x7
 490 0094 530A0000 		.4byte	.LASF11
 491 0098 04       		.uleb128 0x4
 492 0099 08       		.byte	0x8
 493 009a 05       		.byte	0x5
 494 009b B6010000 		.4byte	.LASF12
 495 009f 03       		.uleb128 0x3
 496 00a0 0A070000 		.4byte	.LASF13
 497 00a4 03       		.byte	0x3
 498 00a5 78       		.byte	0x78
 499 00a6 AA000000 		.4byte	0xaa
 500 00aa 04       		.uleb128 0x4
 501 00ab 08       		.byte	0x8
 502 00ac 07       		.byte	0x7
 503 00ad EC000000 		.4byte	.LASF14
 504 00b1 03       		.uleb128 0x3
 505 00b2 07020000 		.4byte	.LASF15
 506 00b6 04       		.byte	0x4
ARM GAS  /tmp/ccIZ6SY6.s 			page 10


 507 00b7 24       		.byte	0x24
 508 00b8 BC000000 		.4byte	0xbc
 509 00bc 04       		.uleb128 0x4
 510 00bd 01       		.byte	0x1
 511 00be 02       		.byte	0x2
 512 00bf F9050000 		.4byte	.LASF16
 513 00c3 03       		.uleb128 0x3
 514 00c4 1E090000 		.4byte	.LASF17
 515 00c8 04       		.byte	0x4
 516 00c9 25       		.byte	0x25
 517 00ca 49000000 		.4byte	0x49
 518 00ce 03       		.uleb128 0x3
 519 00cf 7B030000 		.4byte	.LASF18
 520 00d3 04       		.byte	0x4
 521 00d4 26       		.byte	0x26
 522 00d5 49000000 		.4byte	0x49
 523 00d9 03       		.uleb128 0x3
 524 00da 3E080000 		.4byte	.LASF19
 525 00de 04       		.byte	0x4
 526 00df 27       		.byte	0x27
 527 00e0 49000000 		.4byte	0x49
 528 00e4 03       		.uleb128 0x3
 529 00e5 4C020000 		.4byte	.LASF20
 530 00e9 04       		.byte	0x4
 531 00ea 28       		.byte	0x28
 532 00eb 49000000 		.4byte	0x49
 533 00ef 03       		.uleb128 0x3
 534 00f0 8D080000 		.4byte	.LASF21
 535 00f4 04       		.byte	0x4
 536 00f5 29       		.byte	0x29
 537 00f6 86000000 		.4byte	0x86
 538 00fa 03       		.uleb128 0x3
 539 00fb A7050000 		.4byte	.LASF22
 540 00ff 04       		.byte	0x4
 541 0100 2A       		.byte	0x2a
 542 0101 74000000 		.4byte	0x74
 543 0105 03       		.uleb128 0x3
 544 0106 0A060000 		.4byte	.LASF23
 545 010a 04       		.byte	0x4
 546 010b 2C       		.byte	0x2c
 547 010c 86000000 		.4byte	0x86
 548 0110 03       		.uleb128 0x3
 549 0111 B40A0000 		.4byte	.LASF24
 550 0115 04       		.byte	0x4
 551 0116 2E       		.byte	0x2e
 552 0117 86000000 		.4byte	0x86
 553 011b 03       		.uleb128 0x3
 554 011c 6B090000 		.4byte	.LASF25
 555 0120 05       		.byte	0x5
 556 0121 23       		.byte	0x23
 557 0122 26010000 		.4byte	0x126
 558 0126 05       		.uleb128 0x5
 559 0127 6B090000 		.4byte	.LASF25
 560 012b 4C       		.byte	0x4c
 561 012c 06       		.byte	0x6
 562 012d 57       		.byte	0x57
 563 012e 8E020000 		.4byte	0x28e
ARM GAS  /tmp/ccIZ6SY6.s 			page 11


 564 0132 06       		.uleb128 0x6
 565 0133 04       		.byte	0x4
 566 0134 06       		.byte	0x6
 567 0135 8F       		.byte	0x8f
 568 0136 67010000 		.4byte	0x167
 569 013a 07       		.uleb128 0x7
 570 013b 8F000000 		.4byte	.LASF26
 571 013f 06       		.byte	0x6
 572 0140 96       		.byte	0x96
 573 0141 FA000000 		.4byte	0xfa
 574 0145 07       		.uleb128 0x7
 575 0146 13010000 		.4byte	.LASF27
 576 014a 06       		.byte	0x6
 577 014b 9D       		.byte	0x9d
 578 014c FA000000 		.4byte	0xfa
 579 0150 07       		.uleb128 0x7
 580 0151 670C0000 		.4byte	.LASF28
 581 0155 06       		.byte	0x6
 582 0156 A4       		.byte	0xa4
 583 0157 F9020000 		.4byte	0x2f9
 584 015b 07       		.uleb128 0x7
 585 015c 10090000 		.4byte	.LASF29
 586 0160 06       		.byte	0x6
 587 0161 AB       		.byte	0xab
 588 0162 05010000 		.4byte	0x105
 589 0166 00       		.byte	0
 590 0167 08       		.uleb128 0x8
 591 0168 17090000 		.4byte	.LASF30
 592 016c 06       		.byte	0x6
 593 016d 58       		.byte	0x58
 594 016e 8D040000 		.4byte	0x48d
 595 0172 02       		.byte	0x2
 596 0173 23       		.byte	0x23
 597 0174 00       		.uleb128 0
 598 0175 08       		.uleb128 0x8
 599 0176 6C080000 		.4byte	.LASF31
 600 017a 06       		.byte	0x6
 601 017b 5A       		.byte	0x5a
 602 017c 8D040000 		.4byte	0x48d
 603 0180 02       		.byte	0x2
 604 0181 23       		.byte	0x23
 605 0182 04       		.uleb128 0x4
 606 0183 08       		.uleb128 0x8
 607 0184 93010000 		.4byte	.LASF32
 608 0188 06       		.byte	0x6
 609 0189 5C       		.byte	0x5c
 610 018a EF000000 		.4byte	0xef
 611 018e 02       		.byte	0x2
 612 018f 23       		.byte	0x23
 613 0190 08       		.uleb128 0x8
 614 0191 08       		.uleb128 0x8
 615 0192 310D0000 		.4byte	.LASF33
 616 0196 06       		.byte	0x6
 617 0197 5D       		.byte	0x5d
 618 0198 94030000 		.4byte	0x394
 619 019c 02       		.byte	0x2
 620 019d 23       		.byte	0x23
ARM GAS  /tmp/ccIZ6SY6.s 			page 12


 621 019e 0C       		.uleb128 0xc
 622 019f 08       		.uleb128 0x8
 623 01a0 89030000 		.4byte	.LASF34
 624 01a4 06       		.byte	0x6
 625 01a5 5F       		.byte	0x5f
 626 01a6 8D040000 		.4byte	0x48d
 627 01aa 02       		.byte	0x2
 628 01ab 23       		.byte	0x23
 629 01ac 10       		.uleb128 0x10
 630 01ad 08       		.uleb128 0x8
 631 01ae 13070000 		.4byte	.LASF35
 632 01b2 06       		.byte	0x6
 633 01b3 60       		.byte	0x60
 634 01b4 8D040000 		.4byte	0x48d
 635 01b8 02       		.byte	0x2
 636 01b9 23       		.byte	0x23
 637 01ba 14       		.uleb128 0x14
 638 01bb 08       		.uleb128 0x8
 639 01bc E10A0000 		.4byte	.LASF36
 640 01c0 06       		.byte	0x6
 641 01c1 67       		.byte	0x67
 642 01c2 93040000 		.4byte	0x493
 643 01c6 02       		.byte	0x2
 644 01c7 23       		.byte	0x23
 645 01c8 18       		.uleb128 0x18
 646 01c9 08       		.uleb128 0x8
 647 01ca 67040000 		.4byte	.LASF37
 648 01ce 06       		.byte	0x6
 649 01cf 6D       		.byte	0x6d
 650 01d0 A5040000 		.4byte	0x4a5
 651 01d4 02       		.byte	0x2
 652 01d5 23       		.byte	0x23
 653 01d6 1C       		.uleb128 0x1c
 654 01d7 08       		.uleb128 0x8
 655 01d8 FE080000 		.4byte	.LASF38
 656 01dc 06       		.byte	0x6
 657 01dd 72       		.byte	0x72
 658 01de CE000000 		.4byte	0xce
 659 01e2 02       		.byte	0x2
 660 01e3 23       		.byte	0x23
 661 01e4 20       		.uleb128 0x20
 662 01e5 08       		.uleb128 0x8
 663 01e6 C70C0000 		.4byte	.LASF39
 664 01ea 06       		.byte	0x6
 665 01eb 76       		.byte	0x76
 666 01ec C3000000 		.4byte	0xc3
 667 01f0 02       		.byte	0x2
 668 01f1 23       		.byte	0x23
 669 01f2 21       		.uleb128 0x21
 670 01f3 08       		.uleb128 0x8
 671 01f4 CA0B0000 		.4byte	.LASF40
 672 01f8 06       		.byte	0x6
 673 01f9 7B       		.byte	0x7b
 674 01fa D9000000 		.4byte	0xd9
 675 01fe 02       		.byte	0x2
 676 01ff 23       		.byte	0x23
 677 0200 22       		.uleb128 0x22
ARM GAS  /tmp/ccIZ6SY6.s 			page 13


 678 0201 08       		.uleb128 0x8
 679 0202 06090000 		.4byte	.LASF41
 680 0206 06       		.byte	0x6
 681 0207 81       		.byte	0x81
 682 0208 E4000000 		.4byte	0xe4
 683 020c 02       		.byte	0x2
 684 020d 23       		.byte	0x23
 685 020e 23       		.uleb128 0x23
 686 020f 08       		.uleb128 0x8
 687 0210 67030000 		.4byte	.LASF42
 688 0214 06       		.byte	0x6
 689 0215 88       		.byte	0x88
 690 0216 B7030000 		.4byte	0x3b7
 691 021a 02       		.byte	0x2
 692 021b 23       		.byte	0x23
 693 021c 24       		.uleb128 0x24
 694 021d 09       		.uleb128 0x9
 695 021e 705F7500 		.ascii	"p_u\000"
 696 0222 06       		.byte	0x6
 697 0223 AD       		.byte	0xad
 698 0224 32010000 		.4byte	0x132
 699 0228 02       		.byte	0x2
 700 0229 23       		.byte	0x23
 701 022a 28       		.uleb128 0x28
 702 022b 08       		.uleb128 0x8
 703 022c 370D0000 		.4byte	.LASF43
 704 0230 06       		.byte	0x6
 705 0231 B2       		.byte	0xb2
 706 0232 E3020000 		.4byte	0x2e3
 707 0236 02       		.byte	0x2
 708 0237 23       		.byte	0x23
 709 0238 2C       		.uleb128 0x2c
 710 0239 08       		.uleb128 0x8
 711 023a CB040000 		.4byte	.LASF44
 712 023e 06       		.byte	0x6
 713 023f B8       		.byte	0xb8
 714 0240 BD020000 		.4byte	0x2bd
 715 0244 02       		.byte	0x2
 716 0245 23       		.byte	0x23
 717 0246 30       		.uleb128 0x30
 718 0247 08       		.uleb128 0x8
 719 0248 E10B0000 		.4byte	.LASF45
 720 024c 06       		.byte	0x6
 721 024d BC       		.byte	0xbc
 722 024e FA000000 		.4byte	0xfa
 723 0252 02       		.byte	0x2
 724 0253 23       		.byte	0x23
 725 0254 38       		.uleb128 0x38
 726 0255 08       		.uleb128 0x8
 727 0256 FF060000 		.4byte	.LASF46
 728 025a 06       		.byte	0x6
 729 025b C2       		.byte	0xc2
 730 025c 05010000 		.4byte	0x105
 731 0260 02       		.byte	0x2
 732 0261 23       		.byte	0x23
 733 0262 3C       		.uleb128 0x3c
 734 0263 08       		.uleb128 0x8
ARM GAS  /tmp/ccIZ6SY6.s 			page 14


 735 0264 EA080000 		.4byte	.LASF47
 736 0268 06       		.byte	0x6
 737 0269 C9       		.byte	0xc9
 738 026a AB040000 		.4byte	0x4ab
 739 026e 02       		.byte	0x2
 740 026f 23       		.byte	0x23
 741 0270 40       		.uleb128 0x40
 742 0271 08       		.uleb128 0x8
 743 0272 BE0A0000 		.4byte	.LASF48
 744 0276 06       		.byte	0x6
 745 0277 CD       		.byte	0xcd
 746 0278 EF000000 		.4byte	0xef
 747 027c 02       		.byte	0x2
 748 027d 23       		.byte	0x23
 749 027e 44       		.uleb128 0x44
 750 027f 08       		.uleb128 0x8
 751 0280 E0030000 		.4byte	.LASF49
 752 0284 06       		.byte	0x6
 753 0285 D3       		.byte	0xd3
 754 0286 F9020000 		.4byte	0x2f9
 755 028a 02       		.byte	0x2
 756 028b 23       		.byte	0x23
 757 028c 48       		.uleb128 0x48
 758 028d 00       		.byte	0
 759 028e 0A       		.uleb128 0xa
 760 028f 08       		.byte	0x8
 761 0290 05       		.byte	0x5
 762 0291 5A       		.byte	0x5a
 763 0292 CC070000 		.4byte	.LASF51
 764 0296 B7020000 		.4byte	0x2b7
 765 029a 08       		.uleb128 0x8
 766 029b 17090000 		.4byte	.LASF30
 767 029f 05       		.byte	0x5
 768 02a0 5B       		.byte	0x5b
 769 02a1 B7020000 		.4byte	0x2b7
 770 02a5 02       		.byte	0x2
 771 02a6 23       		.byte	0x23
 772 02a7 00       		.uleb128 0
 773 02a8 08       		.uleb128 0x8
 774 02a9 6C080000 		.4byte	.LASF31
 775 02ad 05       		.byte	0x5
 776 02ae 5D       		.byte	0x5d
 777 02af B7020000 		.4byte	0x2b7
 778 02b3 02       		.byte	0x2
 779 02b4 23       		.byte	0x23
 780 02b5 04       		.uleb128 0x4
 781 02b6 00       		.byte	0
 782 02b7 0B       		.uleb128 0xb
 783 02b8 04       		.byte	0x4
 784 02b9 1B010000 		.4byte	0x11b
 785 02bd 03       		.uleb128 0x3
 786 02be 38070000 		.4byte	.LASF50
 787 02c2 05       		.byte	0x5
 788 02c3 5F       		.byte	0x5f
 789 02c4 8E020000 		.4byte	0x28e
 790 02c8 0A       		.uleb128 0xa
 791 02c9 04       		.byte	0x4
ARM GAS  /tmp/ccIZ6SY6.s 			page 15


 792 02ca 05       		.byte	0x5
 793 02cb 64       		.byte	0x64
 794 02cc 56020000 		.4byte	.LASF52
 795 02d0 E3020000 		.4byte	0x2e3
 796 02d4 08       		.uleb128 0x8
 797 02d5 17090000 		.4byte	.LASF30
 798 02d9 05       		.byte	0x5
 799 02da 66       		.byte	0x66
 800 02db B7020000 		.4byte	0x2b7
 801 02df 02       		.byte	0x2
 802 02e0 23       		.byte	0x23
 803 02e1 00       		.uleb128 0
 804 02e2 00       		.byte	0
 805 02e3 03       		.uleb128 0x3
 806 02e4 FE050000 		.4byte	.LASF53
 807 02e8 05       		.byte	0x5
 808 02e9 69       		.byte	0x69
 809 02ea C8020000 		.4byte	0x2c8
 810 02ee 03       		.uleb128 0x3
 811 02ef E8030000 		.4byte	.LASF54
 812 02f3 07       		.byte	0x7
 813 02f4 DE       		.byte	0xde
 814 02f5 F9020000 		.4byte	0x2f9
 815 02f9 0C       		.uleb128 0xc
 816 02fa 04       		.byte	0x4
 817 02fb 03       		.uleb128 0x3
 818 02fc 24060000 		.4byte	.LASF55
 819 0300 07       		.byte	0x7
 820 0301 E4       		.byte	0xe4
 821 0302 9F000000 		.4byte	0x9f
 822 0306 0D       		.uleb128 0xd
 823 0307 850B0000 		.4byte	.LASF56
 824 030b 24       		.byte	0x24
 825 030c 07       		.byte	0x7
 826 030d 0501     		.2byte	0x105
 827 030f 94030000 		.4byte	0x394
 828 0313 0E       		.uleb128 0xe
 829 0314 723400   		.ascii	"r4\000"
 830 0317 07       		.byte	0x7
 831 0318 1801     		.2byte	0x118
 832 031a EE020000 		.4byte	0x2ee
 833 031e 02       		.byte	0x2
 834 031f 23       		.byte	0x23
 835 0320 00       		.uleb128 0
 836 0321 0E       		.uleb128 0xe
 837 0322 723500   		.ascii	"r5\000"
 838 0325 07       		.byte	0x7
 839 0326 1901     		.2byte	0x119
 840 0328 EE020000 		.4byte	0x2ee
 841 032c 02       		.byte	0x2
 842 032d 23       		.byte	0x23
 843 032e 04       		.uleb128 0x4
 844 032f 0E       		.uleb128 0xe
 845 0330 723600   		.ascii	"r6\000"
 846 0333 07       		.byte	0x7
 847 0334 1A01     		.2byte	0x11a
 848 0336 EE020000 		.4byte	0x2ee
ARM GAS  /tmp/ccIZ6SY6.s 			page 16


 849 033a 02       		.byte	0x2
 850 033b 23       		.byte	0x23
 851 033c 08       		.uleb128 0x8
 852 033d 0E       		.uleb128 0xe
 853 033e 723700   		.ascii	"r7\000"
 854 0341 07       		.byte	0x7
 855 0342 1B01     		.2byte	0x11b
 856 0344 EE020000 		.4byte	0x2ee
 857 0348 02       		.byte	0x2
 858 0349 23       		.byte	0x23
 859 034a 0C       		.uleb128 0xc
 860 034b 0E       		.uleb128 0xe
 861 034c 723800   		.ascii	"r8\000"
 862 034f 07       		.byte	0x7
 863 0350 1C01     		.2byte	0x11c
 864 0352 EE020000 		.4byte	0x2ee
 865 0356 02       		.byte	0x2
 866 0357 23       		.byte	0x23
 867 0358 10       		.uleb128 0x10
 868 0359 0E       		.uleb128 0xe
 869 035a 723900   		.ascii	"r9\000"
 870 035d 07       		.byte	0x7
 871 035e 1D01     		.2byte	0x11d
 872 0360 EE020000 		.4byte	0x2ee
 873 0364 02       		.byte	0x2
 874 0365 23       		.byte	0x23
 875 0366 14       		.uleb128 0x14
 876 0367 0E       		.uleb128 0xe
 877 0368 72313000 		.ascii	"r10\000"
 878 036c 07       		.byte	0x7
 879 036d 1E01     		.2byte	0x11e
 880 036f EE020000 		.4byte	0x2ee
 881 0373 02       		.byte	0x2
 882 0374 23       		.byte	0x23
 883 0375 18       		.uleb128 0x18
 884 0376 0E       		.uleb128 0xe
 885 0377 72313100 		.ascii	"r11\000"
 886 037b 07       		.byte	0x7
 887 037c 1F01     		.2byte	0x11f
 888 037e EE020000 		.4byte	0x2ee
 889 0382 02       		.byte	0x2
 890 0383 23       		.byte	0x23
 891 0384 1C       		.uleb128 0x1c
 892 0385 0E       		.uleb128 0xe
 893 0386 6C7200   		.ascii	"lr\000"
 894 0389 07       		.byte	0x7
 895 038a 2001     		.2byte	0x120
 896 038c EE020000 		.4byte	0x2ee
 897 0390 02       		.byte	0x2
 898 0391 23       		.byte	0x23
 899 0392 20       		.uleb128 0x20
 900 0393 00       		.byte	0
 901 0394 0D       		.uleb128 0xd
 902 0395 040B0000 		.4byte	.LASF57
 903 0399 04       		.byte	0x4
 904 039a 07       		.byte	0x7
 905 039b 2A01     		.2byte	0x12a
ARM GAS  /tmp/ccIZ6SY6.s 			page 17


 906 039d B1030000 		.4byte	0x3b1
 907 03a1 0E       		.uleb128 0xe
 908 03a2 72313300 		.ascii	"r13\000"
 909 03a6 07       		.byte	0x7
 910 03a7 2B01     		.2byte	0x12b
 911 03a9 B1030000 		.4byte	0x3b1
 912 03ad 02       		.byte	0x2
 913 03ae 23       		.byte	0x23
 914 03af 00       		.uleb128 0
 915 03b0 00       		.byte	0
 916 03b1 0B       		.uleb128 0xb
 917 03b2 04       		.byte	0x4
 918 03b3 06030000 		.4byte	0x306
 919 03b7 0F       		.uleb128 0xf
 920 03b8 10010000 		.4byte	0x110
 921 03bc 05       		.uleb128 0x5
 922 03bd F9060000 		.4byte	.LASF58
 923 03c1 10       		.byte	0x10
 924 03c2 08       		.byte	0x8
 925 03c3 25       		.byte	0x25
 926 03c4 F3030000 		.4byte	0x3f3
 927 03c8 08       		.uleb128 0x8
 928 03c9 0E020000 		.4byte	.LASF59
 929 03cd 08       		.byte	0x8
 930 03ce 26       		.byte	0x26
 931 03cf BD020000 		.4byte	0x2bd
 932 03d3 02       		.byte	0x2
 933 03d4 23       		.byte	0x23
 934 03d5 00       		.uleb128 0
 935 03d6 08       		.uleb128 0x8
 936 03d7 290D0000 		.4byte	.LASF60
 937 03db 08       		.byte	0x8
 938 03dc 28       		.byte	0x28
 939 03dd B7020000 		.4byte	0x2b7
 940 03e1 02       		.byte	0x2
 941 03e2 23       		.byte	0x23
 942 03e3 08       		.uleb128 0x8
 943 03e4 08       		.uleb128 0x8
 944 03e5 AD0A0000 		.4byte	.LASF61
 945 03e9 08       		.byte	0x8
 946 03ea 2A       		.byte	0x2a
 947 03eb F3030000 		.4byte	0x3f3
 948 03ef 02       		.byte	0x2
 949 03f0 23       		.byte	0x23
 950 03f1 0C       		.uleb128 0xc
 951 03f2 00       		.byte	0
 952 03f3 0B       		.uleb128 0xb
 953 03f4 04       		.byte	0x4
 954 03f5 BC030000 		.4byte	0x3bc
 955 03f9 03       		.uleb128 0x3
 956 03fa F9060000 		.4byte	.LASF58
 957 03fe 08       		.byte	0x8
 958 03ff 2C       		.byte	0x2c
 959 0400 BC030000 		.4byte	0x3bc
 960 0404 03       		.uleb128 0x3
 961 0405 D8000000 		.4byte	.LASF62
 962 0409 09       		.byte	0x9
ARM GAS  /tmp/ccIZ6SY6.s 			page 18


 963 040a 25       		.byte	0x25
 964 040b 0F040000 		.4byte	0x40f
 965 040f 0B       		.uleb128 0xb
 966 0410 04       		.byte	0x4
 967 0411 15040000 		.4byte	0x415
 968 0415 10       		.uleb128 0x10
 969 0416 F9020000 		.4byte	0x2f9
 970 041a 24040000 		.4byte	0x424
 971 041e 11       		.uleb128 0x11
 972 041f 30000000 		.4byte	0x30
 973 0423 00       		.byte	0
 974 0424 05       		.uleb128 0x5
 975 0425 BE0B0000 		.4byte	.LASF63
 976 0429 04       		.byte	0x4
 977 042a 0A       		.byte	0xa
 978 042b 25       		.byte	0x25
 979 042c 3F040000 		.4byte	0x43f
 980 0430 08       		.uleb128 0x8
 981 0431 FB070000 		.4byte	.LASF64
 982 0435 0A       		.byte	0xa
 983 0436 26       		.byte	0x26
 984 0437 3F040000 		.4byte	0x43f
 985 043b 02       		.byte	0x2
 986 043c 23       		.byte	0x23
 987 043d 00       		.uleb128 0
 988 043e 00       		.byte	0
 989 043f 0B       		.uleb128 0xb
 990 0440 04       		.byte	0x4
 991 0441 24040000 		.4byte	0x424
 992 0445 0A       		.uleb128 0xa
 993 0446 0C       		.byte	0xc
 994 0447 0A       		.byte	0xa
 995 0448 2D       		.byte	0x2d
 996 0449 C4000000 		.4byte	.LASF65
 997 044d 7C040000 		.4byte	0x47c
 998 0451 08       		.uleb128 0x8
 999 0452 ED0A0000 		.4byte	.LASF66
 1000 0456 0A       		.byte	0xa
 1001 0457 2E       		.byte	0x2e
 1002 0458 7C040000 		.4byte	0x47c
 1003 045c 02       		.byte	0x2
 1004 045d 23       		.byte	0x23
 1005 045e 00       		.uleb128 0
 1006 045f 08       		.uleb128 0x8
 1007 0460 CF0C0000 		.4byte	.LASF67
 1008 0464 0A       		.byte	0xa
 1009 0465 2F       		.byte	0x2f
 1010 0466 30000000 		.4byte	0x30
 1011 046a 02       		.byte	0x2
 1012 046b 23       		.byte	0x23
 1013 046c 04       		.uleb128 0x4
 1014 046d 08       		.uleb128 0x8
 1015 046e E2010000 		.4byte	.LASF68
 1016 0472 0A       		.byte	0xa
 1017 0473 31       		.byte	0x31
 1018 0474 04040000 		.4byte	0x404
 1019 0478 02       		.byte	0x2
ARM GAS  /tmp/ccIZ6SY6.s 			page 19


 1020 0479 23       		.byte	0x23
 1021 047a 08       		.uleb128 0x8
 1022 047b 00       		.byte	0
 1023 047c 0B       		.uleb128 0xb
 1024 047d 04       		.byte	0x4
 1025 047e 24040000 		.4byte	0x424
 1026 0482 03       		.uleb128 0x3
 1027 0483 000A0000 		.4byte	.LASF69
 1028 0487 0A       		.byte	0xa
 1029 0488 33       		.byte	0x33
 1030 0489 45040000 		.4byte	0x445
 1031 048d 0B       		.uleb128 0xb
 1032 048e 04       		.byte	0x4
 1033 048f 26010000 		.4byte	0x126
 1034 0493 0B       		.uleb128 0xb
 1035 0494 04       		.byte	0x4
 1036 0495 99040000 		.4byte	0x499
 1037 0499 12       		.uleb128 0x12
 1038 049a 9E040000 		.4byte	0x49e
 1039 049e 04       		.uleb128 0x4
 1040 049f 01       		.byte	0x1
 1041 04a0 08       		.byte	0x8
 1042 04a1 6C0A0000 		.4byte	.LASF70
 1043 04a5 0B       		.uleb128 0xb
 1044 04a6 04       		.byte	0x4
 1045 04a7 FB020000 		.4byte	0x2fb
 1046 04ab 0B       		.uleb128 0xb
 1047 04ac 04       		.byte	0x4
 1048 04ad F9030000 		.4byte	0x3f9
 1049 04b1 0B       		.uleb128 0xb
 1050 04b2 04       		.byte	0x4
 1051 04b3 49000000 		.4byte	0x49
 1052 04b7 13       		.uleb128 0x13
 1053 04b8 1C010000 		.4byte	.LASF196
 1054 04bc 14       		.byte	0x14
 1055 04bd 21       		.byte	0x21
 1056 04be 14       		.uleb128 0x14
 1057 04bf A7000000 		.4byte	.LASF71
 1058 04c3 02       		.byte	0x2
 1059 04c4 0B       		.byte	0xb
 1060 04c5 06       		.byte	0x6
 1061 04c6 4A050000 		.4byte	0x54a
 1062 04ca 15       		.uleb128 0x15
 1063 04cb 96000000 		.4byte	.LASF74
 1064 04cf 0B       		.byte	0xb
 1065 04d0 08       		.byte	0x8
 1066 04d1 62000000 		.4byte	0x62
 1067 04d5 02       		.byte	0x2
 1068 04d6 23       		.byte	0x23
 1069 04d7 00       		.uleb128 0
 1070 04d8 02       		.byte	0x2
 1071 04d9 16       		.uleb128 0x16
 1072 04da 01       		.byte	0x1
 1073 04db A7000000 		.4byte	.LASF71
 1074 04df 0B       		.byte	0xb
 1075 04e0 0A       		.byte	0xa
 1076 04e1 4A050000 		.4byte	0x54a
ARM GAS  /tmp/ccIZ6SY6.s 			page 20


 1077 04e5 01       		.byte	0x1
 1078 04e6 EE040000 		.4byte	0x4ee
 1079 04ea F5040000 		.4byte	0x4f5
 1080 04ee 17       		.uleb128 0x17
 1081 04ef 4A050000 		.4byte	0x54a
 1082 04f3 01       		.byte	0x1
 1083 04f4 00       		.byte	0
 1084 04f5 18       		.uleb128 0x18
 1085 04f6 01       		.byte	0x1
 1086 04f7 B9060000 		.4byte	.LASF72
 1087 04fb 0B       		.byte	0xb
 1088 04fc 0B       		.byte	0xb
 1089 04fd 7D0A0000 		.4byte	.LASF91
 1090 0501 01       		.byte	0x1
 1091 0502 0A050000 		.4byte	0x50a
 1092 0506 11050000 		.4byte	0x511
 1093 050a 17       		.uleb128 0x17
 1094 050b 4A050000 		.4byte	0x54a
 1095 050f 01       		.byte	0x1
 1096 0510 00       		.byte	0
 1097 0511 19       		.uleb128 0x19
 1098 0512 01       		.byte	0x1
 1099 0513 A10A0000 		.4byte	.LASF80
 1100 0517 0B       		.byte	0xb
 1101 0518 0C       		.byte	0xc
 1102 0519 00000000 		.4byte	.LASF82
 1103 051d B1000000 		.4byte	0xb1
 1104 0521 01       		.byte	0x1
 1105 0522 2A050000 		.4byte	0x52a
 1106 0526 31050000 		.4byte	0x531
 1107 052a 17       		.uleb128 0x17
 1108 052b 4A050000 		.4byte	0x54a
 1109 052f 01       		.byte	0x1
 1110 0530 00       		.byte	0
 1111 0531 1A       		.uleb128 0x1a
 1112 0532 01       		.byte	0x1
 1113 0533 0A040000 		.4byte	.LASF110
 1114 0537 0B       		.byte	0xb
 1115 0538 0D       		.byte	0xd
 1116 0539 EE010000 		.4byte	.LASF111
 1117 053d 01       		.byte	0x1
 1118 053e 42050000 		.4byte	0x542
 1119 0542 17       		.uleb128 0x17
 1120 0543 4A050000 		.4byte	0x54a
 1121 0547 01       		.byte	0x1
 1122 0548 00       		.byte	0
 1123 0549 00       		.byte	0
 1124 054a 0B       		.uleb128 0xb
 1125 054b 04       		.byte	0x4
 1126 054c BE040000 		.4byte	0x4be
 1127 0550 14       		.uleb128 0x14
 1128 0551 090C0000 		.4byte	.LASF73
 1129 0555 14       		.byte	0x14
 1130 0556 0C       		.byte	0xc
 1131 0557 07       		.byte	0x7
 1132 0558 94060000 		.4byte	0x694
 1133 055c 15       		.uleb128 0x15
ARM GAS  /tmp/ccIZ6SY6.s 			page 21


 1134 055d 2A030000 		.4byte	.LASF75
 1135 0561 0C       		.byte	0xc
 1136 0562 09       		.byte	0x9
 1137 0563 94060000 		.4byte	0x694
 1138 0567 02       		.byte	0x2
 1139 0568 23       		.byte	0x23
 1140 0569 00       		.uleb128 0
 1141 056a 02       		.byte	0x2
 1142 056b 15       		.uleb128 0x15
 1143 056c B90B0000 		.4byte	.LASF76
 1144 0570 0C       		.byte	0xc
 1145 0571 0A       		.byte	0xa
 1146 0572 94060000 		.4byte	0x694
 1147 0576 02       		.byte	0x2
 1148 0577 23       		.byte	0x23
 1149 0578 04       		.uleb128 0x4
 1150 0579 02       		.byte	0x2
 1151 057a 15       		.uleb128 0x15
 1152 057b 2F060000 		.4byte	.LASF77
 1153 057f 0C       		.byte	0xc
 1154 0580 0B       		.byte	0xb
 1155 0581 94060000 		.4byte	0x694
 1156 0585 02       		.byte	0x2
 1157 0586 23       		.byte	0x23
 1158 0587 08       		.uleb128 0x8
 1159 0588 02       		.byte	0x2
 1160 0589 15       		.uleb128 0x15
 1161 058a 10040000 		.4byte	.LASF78
 1162 058e 0C       		.byte	0xc
 1163 058f 0C       		.byte	0xc
 1164 0590 94060000 		.4byte	0x694
 1165 0594 02       		.byte	0x2
 1166 0595 23       		.byte	0x23
 1167 0596 0C       		.uleb128 0xc
 1168 0597 02       		.byte	0x2
 1169 0598 15       		.uleb128 0x15
 1170 0599 E80A0000 		.4byte	.LASF79
 1171 059d 0C       		.byte	0xc
 1172 059e 0D       		.byte	0xd
 1173 059f 86000000 		.4byte	0x86
 1174 05a3 02       		.byte	0x2
 1175 05a4 23       		.byte	0x23
 1176 05a5 10       		.uleb128 0x10
 1177 05a6 02       		.byte	0x2
 1178 05a7 16       		.uleb128 0x16
 1179 05a8 01       		.byte	0x1
 1180 05a9 090C0000 		.4byte	.LASF73
 1181 05ad 0C       		.byte	0xc
 1182 05ae 0F       		.byte	0xf
 1183 05af 9A060000 		.4byte	0x69a
 1184 05b3 01       		.byte	0x1
 1185 05b4 BC050000 		.4byte	0x5bc
 1186 05b8 CD050000 		.4byte	0x5cd
 1187 05bc 17       		.uleb128 0x17
 1188 05bd 9A060000 		.4byte	0x69a
 1189 05c1 01       		.byte	0x1
 1190 05c2 11       		.uleb128 0x11
ARM GAS  /tmp/ccIZ6SY6.s 			page 22


 1191 05c3 94060000 		.4byte	0x694
 1192 05c7 11       		.uleb128 0x11
 1193 05c8 86000000 		.4byte	0x86
 1194 05cc 00       		.byte	0
 1195 05cd 19       		.uleb128 0x19
 1196 05ce 01       		.byte	0x1
 1197 05cf 76050000 		.4byte	.LASF81
 1198 05d3 0C       		.byte	0xc
 1199 05d4 10       		.byte	0x10
 1200 05d5 8E050000 		.4byte	.LASF83
 1201 05d9 86000000 		.4byte	0x86
 1202 05dd 01       		.byte	0x1
 1203 05de E6050000 		.4byte	0x5e6
 1204 05e2 ED050000 		.4byte	0x5ed
 1205 05e6 17       		.uleb128 0x17
 1206 05e7 9A060000 		.4byte	0x69a
 1207 05eb 01       		.byte	0x1
 1208 05ec 00       		.byte	0
 1209 05ed 19       		.uleb128 0x19
 1210 05ee 01       		.byte	0x1
 1211 05ef AA0B0000 		.4byte	.LASF84
 1212 05f3 0C       		.byte	0xc
 1213 05f4 11       		.byte	0x11
 1214 05f5 3E0B0000 		.4byte	.LASF85
 1215 05f9 86000000 		.4byte	0x86
 1216 05fd 01       		.byte	0x1
 1217 05fe 06060000 		.4byte	0x606
 1218 0602 0D060000 		.4byte	0x60d
 1219 0606 17       		.uleb128 0x17
 1220 0607 9A060000 		.4byte	0x69a
 1221 060b 01       		.byte	0x1
 1222 060c 00       		.byte	0
 1223 060d 1B       		.uleb128 0x1b
 1224 060e 01       		.byte	0x1
 1225 060f 67657400 		.ascii	"get\000"
 1226 0613 0C       		.byte	0xc
 1227 0614 12       		.byte	0x12
 1228 0615 70010000 		.4byte	.LASF88
 1229 0619 4A050000 		.4byte	0x54a
 1230 061d 01       		.byte	0x1
 1231 061e 26060000 		.4byte	0x626
 1232 0622 2D060000 		.4byte	0x62d
 1233 0626 17       		.uleb128 0x17
 1234 0627 9A060000 		.4byte	0x69a
 1235 062b 01       		.byte	0x1
 1236 062c 00       		.byte	0
 1237 062d 19       		.uleb128 0x19
 1238 062e 01       		.byte	0x1
 1239 062f 8A000000 		.4byte	.LASF86
 1240 0633 0C       		.byte	0xc
 1241 0634 13       		.byte	0x13
 1242 0635 3A0A0000 		.4byte	.LASF87
 1243 0639 4A050000 		.4byte	0x54a
 1244 063d 01       		.byte	0x1
 1245 063e 46060000 		.4byte	0x646
 1246 0642 4D060000 		.4byte	0x64d
 1247 0646 17       		.uleb128 0x17
ARM GAS  /tmp/ccIZ6SY6.s 			page 23


 1248 0647 9A060000 		.4byte	0x69a
 1249 064b 01       		.byte	0x1
 1250 064c 00       		.byte	0
 1251 064d 1B       		.uleb128 0x1b
 1252 064e 01       		.byte	0x1
 1253 064f 70757400 		.ascii	"put\000"
 1254 0653 0C       		.byte	0xc
 1255 0654 14       		.byte	0x14
 1256 0655 0B0A0000 		.4byte	.LASF89
 1257 0659 B1000000 		.4byte	0xb1
 1258 065d 01       		.byte	0x1
 1259 065e 66060000 		.4byte	0x666
 1260 0662 72060000 		.4byte	0x672
 1261 0666 17       		.uleb128 0x17
 1262 0667 9A060000 		.4byte	0x69a
 1263 066b 01       		.byte	0x1
 1264 066c 11       		.uleb128 0x11
 1265 066d 4A050000 		.4byte	0x54a
 1266 0671 00       		.byte	0
 1267 0672 1C       		.uleb128 0x1c
 1268 0673 01       		.byte	0x1
 1269 0674 D60A0000 		.4byte	.LASF90
 1270 0678 0C       		.byte	0xc
 1271 0679 15       		.byte	0x15
 1272 067a A5040000 		.4byte	.LASF92
 1273 067e B1000000 		.4byte	0xb1
 1274 0682 01       		.byte	0x1
 1275 0683 87060000 		.4byte	0x687
 1276 0687 17       		.uleb128 0x17
 1277 0688 9A060000 		.4byte	0x69a
 1278 068c 01       		.byte	0x1
 1279 068d 11       		.uleb128 0x11
 1280 068e 4A050000 		.4byte	0x54a
 1281 0692 00       		.byte	0
 1282 0693 00       		.byte	0
 1283 0694 0B       		.uleb128 0xb
 1284 0695 04       		.byte	0x4
 1285 0696 4A050000 		.4byte	0x54a
 1286 069a 0B       		.uleb128 0xb
 1287 069b 04       		.byte	0x4
 1288 069c 50050000 		.4byte	0x550
 1289 06a0 14       		.uleb128 0x14
 1290 06a1 16060000 		.4byte	.LASF93
 1291 06a5 18       		.byte	0x18
 1292 06a6 0D       		.byte	0xd
 1293 06a7 0A       		.byte	0xa
 1294 06a8 EF070000 		.4byte	0x7ef
 1295 06ac 15       		.uleb128 0x15
 1296 06ad 96020000 		.4byte	.LASF94
 1297 06b1 0D       		.byte	0xd
 1298 06b2 0C       		.byte	0xc
 1299 06b3 93040000 		.4byte	0x493
 1300 06b7 02       		.byte	0x2
 1301 06b8 23       		.byte	0x23
 1302 06b9 00       		.uleb128 0
 1303 06ba 02       		.byte	0x2
 1304 06bb 15       		.uleb128 0x15
ARM GAS  /tmp/ccIZ6SY6.s 			page 24


 1305 06bc 6E030000 		.4byte	.LASF95
 1306 06c0 0D       		.byte	0xd
 1307 06c1 0D       		.byte	0xd
 1308 06c2 E0090000 		.4byte	0x9e0
 1309 06c6 02       		.byte	0x2
 1310 06c7 23       		.byte	0x23
 1311 06c8 04       		.uleb128 0x4
 1312 06c9 02       		.byte	0x2
 1313 06ca 15       		.uleb128 0x15
 1314 06cb 46080000 		.4byte	.LASF96
 1315 06cf 0D       		.byte	0xd
 1316 06d0 0E       		.byte	0xe
 1317 06d1 6B0B0000 		.4byte	0xb6b
 1318 06d5 02       		.byte	0x2
 1319 06d6 23       		.byte	0x23
 1320 06d7 08       		.uleb128 0x8
 1321 06d8 02       		.byte	0x2
 1322 06d9 15       		.uleb128 0x15
 1323 06da 8D010000 		.4byte	.LASF97
 1324 06de 0D       		.byte	0xd
 1325 06df 0F       		.byte	0xf
 1326 06e0 82040000 		.4byte	0x482
 1327 06e4 02       		.byte	0x2
 1328 06e5 23       		.byte	0x23
 1329 06e6 0C       		.uleb128 0xc
 1330 06e7 02       		.byte	0x2
 1331 06e8 16       		.uleb128 0x16
 1332 06e9 01       		.byte	0x1
 1333 06ea 16060000 		.4byte	.LASF93
 1334 06ee 0D       		.byte	0xd
 1335 06ef 11       		.byte	0x11
 1336 06f0 710B0000 		.4byte	0xb71
 1337 06f4 01       		.byte	0x1
 1338 06f5 FD060000 		.4byte	0x6fd
 1339 06f9 0E070000 		.4byte	0x70e
 1340 06fd 17       		.uleb128 0x17
 1341 06fe 710B0000 		.4byte	0xb71
 1342 0702 01       		.byte	0x1
 1343 0703 11       		.uleb128 0x11
 1344 0704 93040000 		.4byte	0x493
 1345 0708 11       		.uleb128 0x11
 1346 0709 30000000 		.4byte	0x30
 1347 070d 00       		.byte	0
 1348 070e 19       		.uleb128 0x19
 1349 070f 01       		.byte	0x1
 1350 0710 F2020000 		.4byte	.LASF98
 1351 0714 0D       		.byte	0xd
 1352 0715 12       		.byte	0x12
 1353 0716 AC0C0000 		.4byte	.LASF99
 1354 071a 93040000 		.4byte	0x493
 1355 071e 01       		.byte	0x1
 1356 071f 27070000 		.4byte	0x727
 1357 0723 2E070000 		.4byte	0x72e
 1358 0727 17       		.uleb128 0x17
 1359 0728 710B0000 		.4byte	0xb71
 1360 072c 01       		.byte	0x1
 1361 072d 00       		.byte	0
ARM GAS  /tmp/ccIZ6SY6.s 			page 25


 1362 072e 19       		.uleb128 0x19
 1363 072f 01       		.byte	0x1
 1364 0730 D00A0000 		.4byte	.LASF100
 1365 0734 0D       		.byte	0xd
 1366 0735 13       		.byte	0x13
 1367 0736 4C040000 		.4byte	.LASF101
 1368 073a 4A050000 		.4byte	0x54a
 1369 073e 01       		.byte	0x1
 1370 073f 47070000 		.4byte	0x747
 1371 0743 4E070000 		.4byte	0x74e
 1372 0747 17       		.uleb128 0x17
 1373 0748 710B0000 		.4byte	0xb71
 1374 074c 01       		.byte	0x1
 1375 074d 00       		.byte	0
 1376 074e 19       		.uleb128 0x19
 1377 074f 01       		.byte	0x1
 1378 0750 E5000000 		.4byte	.LASF102
 1379 0754 0D       		.byte	0xd
 1380 0755 14       		.byte	0x14
 1381 0756 36090000 		.4byte	.LASF103
 1382 075a 4A050000 		.4byte	0x54a
 1383 075e 01       		.byte	0x1
 1384 075f 67070000 		.4byte	0x767
 1385 0763 6E070000 		.4byte	0x76e
 1386 0767 17       		.uleb128 0x17
 1387 0768 710B0000 		.4byte	0xb71
 1388 076c 01       		.byte	0x1
 1389 076d 00       		.byte	0
 1390 076e 18       		.uleb128 0x18
 1391 076f 01       		.byte	0x1
 1392 0770 DA010000 		.4byte	.LASF104
 1393 0774 0D       		.byte	0xd
 1394 0775 15       		.byte	0x15
 1395 0776 91030000 		.4byte	.LASF105
 1396 077a 01       		.byte	0x1
 1397 077b 83070000 		.4byte	0x783
 1398 077f 8F070000 		.4byte	0x78f
 1399 0783 17       		.uleb128 0x17
 1400 0784 710B0000 		.4byte	0xb71
 1401 0788 01       		.byte	0x1
 1402 0789 11       		.uleb128 0x11
 1403 078a 4A050000 		.4byte	0x54a
 1404 078e 00       		.byte	0
 1405 078f 18       		.uleb128 0x18
 1406 0790 01       		.byte	0x1
 1407 0791 16040000 		.4byte	.LASF106
 1408 0795 0D       		.byte	0xd
 1409 0796 16       		.byte	0x16
 1410 0797 ED0C0000 		.4byte	.LASF107
 1411 079b 01       		.byte	0x1
 1412 079c A4070000 		.4byte	0x7a4
 1413 07a0 B0070000 		.4byte	0x7b0
 1414 07a4 17       		.uleb128 0x17
 1415 07a5 710B0000 		.4byte	0xb71
 1416 07a9 01       		.byte	0x1
 1417 07aa 11       		.uleb128 0x11
 1418 07ab 4A050000 		.4byte	0x54a
ARM GAS  /tmp/ccIZ6SY6.s 			page 26


 1419 07af 00       		.byte	0
 1420 07b0 18       		.uleb128 0x18
 1421 07b1 01       		.byte	0x1
 1422 07b2 95080000 		.4byte	.LASF108
 1423 07b6 0D       		.byte	0xd
 1424 07b7 17       		.byte	0x17
 1425 07b8 E1040000 		.4byte	.LASF109
 1426 07bc 01       		.byte	0x1
 1427 07bd C5070000 		.4byte	0x7c5
 1428 07c1 D1070000 		.4byte	0x7d1
 1429 07c5 17       		.uleb128 0x17
 1430 07c6 710B0000 		.4byte	0xb71
 1431 07ca 01       		.byte	0x1
 1432 07cb 11       		.uleb128 0x11
 1433 07cc 6B0B0000 		.4byte	0xb6b
 1434 07d0 00       		.byte	0
 1435 07d1 1A       		.uleb128 0x1a
 1436 07d2 01       		.byte	0x1
 1437 07d3 95080000 		.4byte	.LASF108
 1438 07d7 0D       		.byte	0xd
 1439 07d8 18       		.byte	0x18
 1440 07d9 B7080000 		.4byte	.LASF112
 1441 07dd 01       		.byte	0x1
 1442 07de E2070000 		.4byte	0x7e2
 1443 07e2 17       		.uleb128 0x17
 1444 07e3 710B0000 		.4byte	0xb71
 1445 07e7 01       		.byte	0x1
 1446 07e8 11       		.uleb128 0x11
 1447 07e9 E0090000 		.4byte	0x9e0
 1448 07ed 00       		.byte	0
 1449 07ee 00       		.byte	0
 1450 07ef 05       		.uleb128 0x5
 1451 07f0 26090000 		.4byte	.LASF113
 1452 07f4 3C       		.byte	0x3c
 1453 07f5 0E       		.byte	0xe
 1454 07f6 0D       		.byte	0xd
 1455 07f7 E0090000 		.4byte	0x9e0
 1456 07fb 1D       		.uleb128 0x1d
 1457 07fc 100E0000 		.4byte	0xe10
 1458 0800 02       		.byte	0x2
 1459 0801 23       		.byte	0x23
 1460 0802 00       		.uleb128 0
 1461 0803 01       		.byte	0x1
 1462 0804 15       		.uleb128 0x15
 1463 0805 DB0A0000 		.4byte	.LASF114
 1464 0809 0E       		.byte	0xe
 1465 080a 0F       		.byte	0xf
 1466 080b CD100000 		.4byte	0x10cd
 1467 080f 02       		.byte	0x2
 1468 0810 23       		.byte	0x23
 1469 0811 28       		.uleb128 0x28
 1470 0812 02       		.byte	0x2
 1471 0813 15       		.uleb128 0x15
 1472 0814 AB070000 		.4byte	.LASF115
 1473 0818 0E       		.byte	0xe
 1474 0819 10       		.byte	0x10
 1475 081a CD100000 		.4byte	0x10cd
ARM GAS  /tmp/ccIZ6SY6.s 			page 27


 1476 081e 02       		.byte	0x2
 1477 081f 23       		.byte	0x23
 1478 0820 2C       		.uleb128 0x2c
 1479 0821 02       		.byte	0x2
 1480 0822 1E       		.uleb128 0x1e
 1481 0823 5F747000 		.ascii	"_tp\000"
 1482 0827 0E       		.byte	0xe
 1483 0828 11       		.byte	0x11
 1484 0829 B7020000 		.4byte	0x2b7
 1485 082d 02       		.byte	0x2
 1486 082e 23       		.byte	0x23
 1487 082f 30       		.uleb128 0x30
 1488 0830 02       		.byte	0x2
 1489 0831 15       		.uleb128 0x15
 1490 0832 E70C0000 		.4byte	.LASF116
 1491 0836 0E       		.byte	0xe
 1492 0837 12       		.byte	0x12
 1493 0838 05010000 		.4byte	0x105
 1494 083c 02       		.byte	0x2
 1495 083d 23       		.byte	0x23
 1496 083e 34       		.uleb128 0x34
 1497 083f 02       		.byte	0x2
 1498 0840 15       		.uleb128 0x15
 1499 0841 300A0000 		.4byte	.LASF117
 1500 0845 0E       		.byte	0xe
 1501 0846 13       		.byte	0x13
 1502 0847 F40D0000 		.4byte	0xdf4
 1503 084b 02       		.byte	0x2
 1504 084c 23       		.byte	0x23
 1505 084d 38       		.uleb128 0x38
 1506 084e 02       		.byte	0x2
 1507 084f 16       		.uleb128 0x16
 1508 0850 01       		.byte	0x1
 1509 0851 26090000 		.4byte	.LASF113
 1510 0855 0E       		.byte	0xe
 1511 0856 15       		.byte	0x15
 1512 0857 E0090000 		.4byte	0x9e0
 1513 085b 01       		.byte	0x1
 1514 085c 64080000 		.4byte	0x864
 1515 0860 89080000 		.4byte	0x889
 1516 0864 17       		.uleb128 0x17
 1517 0865 E0090000 		.4byte	0x9e0
 1518 0869 01       		.byte	0x1
 1519 086a 11       		.uleb128 0x11
 1520 086b 93040000 		.4byte	0x493
 1521 086f 11       		.uleb128 0x11
 1522 0870 30000000 		.4byte	0x30
 1523 0874 11       		.uleb128 0x11
 1524 0875 B1040000 		.4byte	0x4b1
 1525 0879 11       		.uleb128 0x11
 1526 087a 94060000 		.4byte	0x694
 1527 087e 11       		.uleb128 0x11
 1528 087f 86000000 		.4byte	0x86
 1529 0883 11       		.uleb128 0x11
 1530 0884 F40D0000 		.4byte	0xdf4
 1531 0888 00       		.byte	0
 1532 0889 19       		.uleb128 0x19
ARM GAS  /tmp/ccIZ6SY6.s 			page 28


 1533 088a 01       		.byte	0x1
 1534 088b 88010000 		.4byte	.LASF118
 1535 088f 0E       		.byte	0xe
 1536 0890 17       		.byte	0x17
 1537 0891 7F040000 		.4byte	.LASF119
 1538 0895 CD100000 		.4byte	0x10cd
 1539 0899 01       		.byte	0x1
 1540 089a A2080000 		.4byte	0x8a2
 1541 089e A9080000 		.4byte	0x8a9
 1542 08a2 17       		.uleb128 0x17
 1543 08a3 E0090000 		.4byte	0x9e0
 1544 08a7 01       		.byte	0x1
 1545 08a8 00       		.byte	0
 1546 08a9 18       		.uleb128 0x18
 1547 08aa 01       		.byte	0x1
 1548 08ab 88010000 		.4byte	.LASF118
 1549 08af 0E       		.byte	0xe
 1550 08b0 18       		.byte	0x18
 1551 08b1 20080000 		.4byte	.LASF120
 1552 08b5 01       		.byte	0x1
 1553 08b6 BE080000 		.4byte	0x8be
 1554 08ba CA080000 		.4byte	0x8ca
 1555 08be 17       		.uleb128 0x17
 1556 08bf E0090000 		.4byte	0x9e0
 1557 08c3 01       		.byte	0x1
 1558 08c4 11       		.uleb128 0x11
 1559 08c5 CD100000 		.4byte	0x10cd
 1560 08c9 00       		.byte	0
 1561 08ca 18       		.uleb128 0x18
 1562 08cb 01       		.byte	0x1
 1563 08cc F1030000 		.4byte	.LASF121
 1564 08d0 0E       		.byte	0xe
 1565 08d1 19       		.byte	0x19
 1566 08d2 58060000 		.4byte	.LASF122
 1567 08d6 01       		.byte	0x1
 1568 08d7 DF080000 		.4byte	0x8df
 1569 08db EB080000 		.4byte	0x8eb
 1570 08df 17       		.uleb128 0x17
 1571 08e0 E0090000 		.4byte	0x9e0
 1572 08e4 01       		.byte	0x1
 1573 08e5 11       		.uleb128 0x11
 1574 08e6 CD100000 		.4byte	0x10cd
 1575 08ea 00       		.byte	0
 1576 08eb 19       		.uleb128 0x19
 1577 08ec 01       		.byte	0x1
 1578 08ed 650A0000 		.4byte	.LASF123
 1579 08f1 0E       		.byte	0xe
 1580 08f2 1A       		.byte	0x1a
 1581 08f3 F8020000 		.4byte	.LASF124
 1582 08f7 CD100000 		.4byte	0x10cd
 1583 08fb 01       		.byte	0x1
 1584 08fc 04090000 		.4byte	0x904
 1585 0900 10090000 		.4byte	0x910
 1586 0904 17       		.uleb128 0x17
 1587 0905 E0090000 		.4byte	0x9e0
 1588 0909 01       		.byte	0x1
 1589 090a 11       		.uleb128 0x11
ARM GAS  /tmp/ccIZ6SY6.s 			page 29


 1590 090b 4A050000 		.4byte	0x54a
 1591 090f 00       		.byte	0
 1592 0910 19       		.uleb128 0x19
 1593 0911 01       		.byte	0x1
 1594 0912 650A0000 		.4byte	.LASF123
 1595 0916 0E       		.byte	0xe
 1596 0917 1B       		.byte	0x1b
 1597 0918 3A0C0000 		.4byte	.LASF125
 1598 091c CD100000 		.4byte	0x10cd
 1599 0920 01       		.byte	0x1
 1600 0921 29090000 		.4byte	0x929
 1601 0925 3A090000 		.4byte	0x93a
 1602 0929 17       		.uleb128 0x17
 1603 092a E0090000 		.4byte	0x9e0
 1604 092e 01       		.byte	0x1
 1605 092f 11       		.uleb128 0x11
 1606 0930 4A050000 		.4byte	0x54a
 1607 0934 11       		.uleb128 0x11
 1608 0935 D3100000 		.4byte	0x10d3
 1609 0939 00       		.byte	0
 1610 093a 18       		.uleb128 0x18
 1611 093b 01       		.byte	0x1
 1612 093c D0010000 		.4byte	.LASF126
 1613 0940 0E       		.byte	0xe
 1614 0941 1C       		.byte	0x1c
 1615 0942 3F050000 		.4byte	.LASF127
 1616 0946 01       		.byte	0x1
 1617 0947 4F090000 		.4byte	0x94f
 1618 094b 60090000 		.4byte	0x960
 1619 094f 17       		.uleb128 0x17
 1620 0950 E0090000 		.4byte	0x9e0
 1621 0954 01       		.byte	0x1
 1622 0955 11       		.uleb128 0x11
 1623 0956 8A0C0000 		.4byte	0xc8a
 1624 095a 11       		.uleb128 0x11
 1625 095b 05010000 		.4byte	0x105
 1626 095f 00       		.byte	0
 1627 0960 18       		.uleb128 0x18
 1628 0961 01       		.byte	0x1
 1629 0962 D0010000 		.4byte	.LASF126
 1630 0966 0E       		.byte	0xe
 1631 0967 1D       		.byte	0x1d
 1632 0968 CD090000 		.4byte	.LASF128
 1633 096c 01       		.byte	0x1
 1634 096d 75090000 		.4byte	0x975
 1635 0971 86090000 		.4byte	0x986
 1636 0975 17       		.uleb128 0x17
 1637 0976 E0090000 		.4byte	0x9e0
 1638 097a 01       		.byte	0x1
 1639 097b 11       		.uleb128 0x11
 1640 097c C7100000 		.4byte	0x10c7
 1641 0980 11       		.uleb128 0x11
 1642 0981 05010000 		.4byte	0x105
 1643 0985 00       		.byte	0
 1644 0986 18       		.uleb128 0x18
 1645 0987 01       		.byte	0x1
 1646 0988 95080000 		.4byte	.LASF108
ARM GAS  /tmp/ccIZ6SY6.s 			page 30


 1647 098c 0E       		.byte	0xe
 1648 098d 1E       		.byte	0x1e
 1649 098e 9D020000 		.4byte	.LASF129
 1650 0992 01       		.byte	0x1
 1651 0993 9B090000 		.4byte	0x99b
 1652 0997 A2090000 		.4byte	0x9a2
 1653 099b 17       		.uleb128 0x17
 1654 099c E0090000 		.4byte	0x9e0
 1655 09a0 01       		.byte	0x1
 1656 09a1 00       		.byte	0
 1657 09a2 19       		.uleb128 0x19
 1658 09a3 01       		.byte	0x1
 1659 09a4 E0050000 		.4byte	.LASF130
 1660 09a8 0E       		.byte	0xe
 1661 09a9 1F       		.byte	0x1f
 1662 09aa DB070000 		.4byte	.LASF131
 1663 09ae F40D0000 		.4byte	0xdf4
 1664 09b2 01       		.byte	0x1
 1665 09b3 BB090000 		.4byte	0x9bb
 1666 09b7 C2090000 		.4byte	0x9c2
 1667 09bb 17       		.uleb128 0x17
 1668 09bc E0090000 		.4byte	0x9e0
 1669 09c0 01       		.byte	0x1
 1670 09c1 00       		.byte	0
 1671 09c2 1A       		.uleb128 0x1a
 1672 09c3 01       		.byte	0x1
 1673 09c4 E0050000 		.4byte	.LASF130
 1674 09c8 0E       		.byte	0xe
 1675 09c9 20       		.byte	0x20
 1676 09ca 580B0000 		.4byte	.LASF132
 1677 09ce 01       		.byte	0x1
 1678 09cf D3090000 		.4byte	0x9d3
 1679 09d3 17       		.uleb128 0x17
 1680 09d4 E0090000 		.4byte	0x9e0
 1681 09d8 01       		.byte	0x1
 1682 09d9 11       		.uleb128 0x11
 1683 09da 4A050000 		.4byte	0x54a
 1684 09de 00       		.byte	0
 1685 09df 00       		.byte	0
 1686 09e0 0B       		.uleb128 0xb
 1687 09e1 04       		.byte	0x4
 1688 09e2 EF070000 		.4byte	0x7ef
 1689 09e6 05       		.uleb128 0x5
 1690 09e7 B3000000 		.4byte	.LASF133
 1691 09eb 34       		.byte	0x34
 1692 09ec 0F       		.byte	0xf
 1693 09ed 0A       		.byte	0xa
 1694 09ee 6B0B0000 		.4byte	0xb6b
 1695 09f2 1D       		.uleb128 0x1d
 1696 09f3 100E0000 		.4byte	0xe10
 1697 09f7 02       		.byte	0x2
 1698 09f8 23       		.byte	0x23
 1699 09f9 00       		.uleb128 0
 1700 09fa 01       		.byte	0x1
 1701 09fb 1E       		.uleb128 0x1e
 1702 09fc 5F696400 		.ascii	"_id\000"
 1703 0a00 0F       		.byte	0xf
ARM GAS  /tmp/ccIZ6SY6.s 			page 31


 1704 0a01 0D       		.byte	0xd
 1705 0a02 62000000 		.4byte	0x62
 1706 0a06 02       		.byte	0x2
 1707 0a07 23       		.byte	0x23
 1708 0a08 28       		.uleb128 0x28
 1709 0a09 03       		.byte	0x3
 1710 0a0a 15       		.uleb128 0x15
 1711 0a0b DB0A0000 		.4byte	.LASF114
 1712 0a0f 0F       		.byte	0xf
 1713 0a10 0F       		.byte	0xf
 1714 0a11 D9100000 		.4byte	0x10d9
 1715 0a15 02       		.byte	0x2
 1716 0a16 23       		.byte	0x23
 1717 0a17 2C       		.uleb128 0x2c
 1718 0a18 02       		.byte	0x2
 1719 0a19 15       		.uleb128 0x15
 1720 0a1a AB070000 		.4byte	.LASF115
 1721 0a1e 0F       		.byte	0xf
 1722 0a1f 10       		.byte	0x10
 1723 0a20 D9100000 		.4byte	0x10d9
 1724 0a24 02       		.byte	0x2
 1725 0a25 23       		.byte	0x23
 1726 0a26 30       		.uleb128 0x30
 1727 0a27 02       		.byte	0x2
 1728 0a28 16       		.uleb128 0x16
 1729 0a29 01       		.byte	0x1
 1730 0a2a B3000000 		.4byte	.LASF133
 1731 0a2e 0F       		.byte	0xf
 1732 0a2f 12       		.byte	0x12
 1733 0a30 6B0B0000 		.4byte	0xb6b
 1734 0a34 01       		.byte	0x1
 1735 0a35 3D0A0000 		.4byte	0xa3d
 1736 0a39 5D0A0000 		.4byte	0xa5d
 1737 0a3d 17       		.uleb128 0x17
 1738 0a3e 6B0B0000 		.4byte	0xb6b
 1739 0a42 01       		.byte	0x1
 1740 0a43 11       		.uleb128 0x11
 1741 0a44 93040000 		.4byte	0x493
 1742 0a48 11       		.uleb128 0x11
 1743 0a49 30000000 		.4byte	0x30
 1744 0a4d 11       		.uleb128 0x11
 1745 0a4e B1040000 		.4byte	0x4b1
 1746 0a52 11       		.uleb128 0x11
 1747 0a53 94060000 		.4byte	0x694
 1748 0a57 11       		.uleb128 0x11
 1749 0a58 86000000 		.4byte	0x86
 1750 0a5c 00       		.byte	0
 1751 0a5d 19       		.uleb128 0x19
 1752 0a5e 01       		.byte	0x1
 1753 0a5f 88010000 		.4byte	.LASF118
 1754 0a63 0F       		.byte	0xf
 1755 0a64 13       		.byte	0x13
 1756 0a65 03080000 		.4byte	.LASF134
 1757 0a69 D9100000 		.4byte	0x10d9
 1758 0a6d 01       		.byte	0x1
 1759 0a6e 760A0000 		.4byte	0xa76
 1760 0a72 7D0A0000 		.4byte	0xa7d
ARM GAS  /tmp/ccIZ6SY6.s 			page 32


 1761 0a76 17       		.uleb128 0x17
 1762 0a77 6B0B0000 		.4byte	0xb6b
 1763 0a7b 01       		.byte	0x1
 1764 0a7c 00       		.byte	0
 1765 0a7d 18       		.uleb128 0x18
 1766 0a7e 01       		.byte	0x1
 1767 0a7f 88010000 		.4byte	.LASF118
 1768 0a83 0F       		.byte	0xf
 1769 0a84 14       		.byte	0x14
 1770 0a85 77020000 		.4byte	.LASF135
 1771 0a89 01       		.byte	0x1
 1772 0a8a 920A0000 		.4byte	0xa92
 1773 0a8e 9E0A0000 		.4byte	0xa9e
 1774 0a92 17       		.uleb128 0x17
 1775 0a93 6B0B0000 		.4byte	0xb6b
 1776 0a97 01       		.byte	0x1
 1777 0a98 11       		.uleb128 0x11
 1778 0a99 D9100000 		.4byte	0x10d9
 1779 0a9d 00       		.byte	0
 1780 0a9e 18       		.uleb128 0x18
 1781 0a9f 01       		.byte	0x1
 1782 0aa0 F1030000 		.4byte	.LASF121
 1783 0aa4 0F       		.byte	0xf
 1784 0aa5 15       		.byte	0x15
 1785 0aa6 9A060000 		.4byte	.LASF136
 1786 0aaa 01       		.byte	0x1
 1787 0aab B30A0000 		.4byte	0xab3
 1788 0aaf BF0A0000 		.4byte	0xabf
 1789 0ab3 17       		.uleb128 0x17
 1790 0ab4 6B0B0000 		.4byte	0xb6b
 1791 0ab8 01       		.byte	0x1
 1792 0ab9 11       		.uleb128 0x11
 1793 0aba D9100000 		.4byte	0x10d9
 1794 0abe 00       		.byte	0
 1795 0abf 19       		.uleb128 0x19
 1796 0ac0 01       		.byte	0x1
 1797 0ac1 650A0000 		.4byte	.LASF123
 1798 0ac5 0F       		.byte	0xf
 1799 0ac6 16       		.byte	0x16
 1800 0ac7 32030000 		.4byte	.LASF137
 1801 0acb D9100000 		.4byte	0x10d9
 1802 0acf 01       		.byte	0x1
 1803 0ad0 D80A0000 		.4byte	0xad8
 1804 0ad4 E40A0000 		.4byte	0xae4
 1805 0ad8 17       		.uleb128 0x17
 1806 0ad9 6B0B0000 		.4byte	0xb6b
 1807 0add 01       		.byte	0x1
 1808 0ade 11       		.uleb128 0x11
 1809 0adf 4A050000 		.4byte	0x54a
 1810 0ae3 00       		.byte	0
 1811 0ae4 19       		.uleb128 0x19
 1812 0ae5 01       		.byte	0x1
 1813 0ae6 650A0000 		.4byte	.LASF123
 1814 0aea 0F       		.byte	0xf
 1815 0aeb 17       		.byte	0x17
 1816 0aec B2050000 		.4byte	.LASF138
 1817 0af0 D9100000 		.4byte	0x10d9
ARM GAS  /tmp/ccIZ6SY6.s 			page 33


 1818 0af4 01       		.byte	0x1
 1819 0af5 FD0A0000 		.4byte	0xafd
 1820 0af9 0E0B0000 		.4byte	0xb0e
 1821 0afd 17       		.uleb128 0x17
 1822 0afe 6B0B0000 		.4byte	0xb6b
 1823 0b02 01       		.byte	0x1
 1824 0b03 11       		.uleb128 0x11
 1825 0b04 4A050000 		.4byte	0x54a
 1826 0b08 11       		.uleb128 0x11
 1827 0b09 D3100000 		.4byte	0x10d3
 1828 0b0d 00       		.byte	0
 1829 0b0e 18       		.uleb128 0x18
 1830 0b0f 01       		.byte	0x1
 1831 0b10 D0010000 		.4byte	.LASF126
 1832 0b14 0F       		.byte	0xf
 1833 0b15 18       		.byte	0x18
 1834 0b16 0C0B0000 		.4byte	.LASF139
 1835 0b1a 01       		.byte	0x1
 1836 0b1b 230B0000 		.4byte	0xb23
 1837 0b1f 2F0B0000 		.4byte	0xb2f
 1838 0b23 17       		.uleb128 0x17
 1839 0b24 6B0B0000 		.4byte	0xb6b
 1840 0b28 01       		.byte	0x1
 1841 0b29 11       		.uleb128 0x11
 1842 0b2a 8A0C0000 		.4byte	0xc8a
 1843 0b2e 00       		.byte	0
 1844 0b2f 1F       		.uleb128 0x1f
 1845 0b30 01       		.byte	0x1
 1846 0b31 696400   		.ascii	"id\000"
 1847 0b34 0F       		.byte	0xf
 1848 0b35 19       		.byte	0x19
 1849 0b36 16020000 		.4byte	.LASF140
 1850 0b3a 01       		.byte	0x1
 1851 0b3b 430B0000 		.4byte	0xb43
 1852 0b3f 4F0B0000 		.4byte	0xb4f
 1853 0b43 17       		.uleb128 0x17
 1854 0b44 6B0B0000 		.4byte	0xb6b
 1855 0b48 01       		.byte	0x1
 1856 0b49 11       		.uleb128 0x11
 1857 0b4a 62000000 		.4byte	0x62
 1858 0b4e 00       		.byte	0
 1859 0b4f 20       		.uleb128 0x20
 1860 0b50 01       		.byte	0x1
 1861 0b51 696400   		.ascii	"id\000"
 1862 0b54 0F       		.byte	0xf
 1863 0b55 1A       		.byte	0x1a
 1864 0b56 31020000 		.4byte	.LASF141
 1865 0b5a 62000000 		.4byte	0x62
 1866 0b5e 01       		.byte	0x1
 1867 0b5f 630B0000 		.4byte	0xb63
 1868 0b63 17       		.uleb128 0x17
 1869 0b64 6B0B0000 		.4byte	0xb6b
 1870 0b68 01       		.byte	0x1
 1871 0b69 00       		.byte	0
 1872 0b6a 00       		.byte	0
 1873 0b6b 0B       		.uleb128 0xb
 1874 0b6c 04       		.byte	0x4
ARM GAS  /tmp/ccIZ6SY6.s 			page 34


 1875 0b6d E6090000 		.4byte	0x9e6
 1876 0b71 0B       		.uleb128 0xb
 1877 0b72 04       		.byte	0x4
 1878 0b73 A0060000 		.4byte	0x6a0
 1879 0b77 14       		.uleb128 0x14
 1880 0b78 27010000 		.4byte	.LASF142
 1881 0b7c 1C       		.byte	0x1c
 1882 0b7d 10       		.byte	0x10
 1883 0b7e 0A       		.byte	0xa
 1884 0b7f 840C0000 		.4byte	0xc84
 1885 0b83 1D       		.uleb128 0x1d
 1886 0b84 A0060000 		.4byte	0x6a0
 1887 0b88 02       		.byte	0x2
 1888 0b89 23       		.byte	0x23
 1889 0b8a 00       		.uleb128 0
 1890 0b8b 01       		.byte	0x1
 1891 0b8c 15       		.uleb128 0x15
 1892 0b8d DB0A0000 		.4byte	.LASF114
 1893 0b91 10       		.byte	0x10
 1894 0b92 0C       		.byte	0xc
 1895 0b93 840C0000 		.4byte	0xc84
 1896 0b97 02       		.byte	0x2
 1897 0b98 23       		.byte	0x23
 1898 0b99 18       		.uleb128 0x18
 1899 0b9a 02       		.byte	0x2
 1900 0b9b 16       		.uleb128 0x16
 1901 0b9c 01       		.byte	0x1
 1902 0b9d 27010000 		.4byte	.LASF142
 1903 0ba1 10       		.byte	0x10
 1904 0ba2 0E       		.byte	0xe
 1905 0ba3 8A0C0000 		.4byte	0xc8a
 1906 0ba7 01       		.byte	0x1
 1907 0ba8 B00B0000 		.4byte	0xbb0
 1908 0bac C10B0000 		.4byte	0xbc1
 1909 0bb0 17       		.uleb128 0x17
 1910 0bb1 8A0C0000 		.4byte	0xc8a
 1911 0bb5 01       		.byte	0x1
 1912 0bb6 11       		.uleb128 0x11
 1913 0bb7 93040000 		.4byte	0x493
 1914 0bbb 11       		.uleb128 0x11
 1915 0bbc 30000000 		.4byte	0x30
 1916 0bc0 00       		.byte	0
 1917 0bc1 19       		.uleb128 0x19
 1918 0bc2 01       		.byte	0x1
 1919 0bc3 88010000 		.4byte	.LASF118
 1920 0bc7 10       		.byte	0x10
 1921 0bc8 0F       		.byte	0xf
 1922 0bc9 910C0000 		.4byte	.LASF143
 1923 0bcd 840C0000 		.4byte	0xc84
 1924 0bd1 01       		.byte	0x1
 1925 0bd2 DA0B0000 		.4byte	0xbda
 1926 0bd6 E10B0000 		.4byte	0xbe1
 1927 0bda 17       		.uleb128 0x17
 1928 0bdb 8A0C0000 		.4byte	0xc8a
 1929 0bdf 01       		.byte	0x1
 1930 0be0 00       		.byte	0
 1931 0be1 18       		.uleb128 0x18
ARM GAS  /tmp/ccIZ6SY6.s 			page 35


 1932 0be2 01       		.byte	0x1
 1933 0be3 88010000 		.4byte	.LASF118
 1934 0be7 10       		.byte	0x10
 1935 0be8 10       		.byte	0x10
 1936 0be9 7D060000 		.4byte	.LASF144
 1937 0bed 01       		.byte	0x1
 1938 0bee F60B0000 		.4byte	0xbf6
 1939 0bf2 020C0000 		.4byte	0xc02
 1940 0bf6 17       		.uleb128 0x17
 1941 0bf7 8A0C0000 		.4byte	0xc8a
 1942 0bfb 01       		.byte	0x1
 1943 0bfc 11       		.uleb128 0x11
 1944 0bfd 840C0000 		.4byte	0xc84
 1945 0c01 00       		.byte	0
 1946 0c02 19       		.uleb128 0x19
 1947 0c03 01       		.byte	0x1
 1948 0c04 64020000 		.4byte	.LASF145
 1949 0c08 10       		.byte	0x10
 1950 0c09 11       		.byte	0x11
 1951 0c0a 36010000 		.4byte	.LASF146
 1952 0c0e 29000000 		.4byte	0x29
 1953 0c12 01       		.byte	0x1
 1954 0c13 1B0C0000 		.4byte	0xc1b
 1955 0c17 270C0000 		.4byte	0xc27
 1956 0c1b 17       		.uleb128 0x17
 1957 0c1c 8A0C0000 		.4byte	0xc8a
 1958 0c20 01       		.byte	0x1
 1959 0c21 11       		.uleb128 0x11
 1960 0c22 4A050000 		.4byte	0x54a
 1961 0c26 00       		.byte	0
 1962 0c27 18       		.uleb128 0x18
 1963 0c28 01       		.byte	0x1
 1964 0c29 D0010000 		.4byte	.LASF126
 1965 0c2d 10       		.byte	0x10
 1966 0c2e 12       		.byte	0x12
 1967 0c2f C3060000 		.4byte	.LASF147
 1968 0c33 01       		.byte	0x1
 1969 0c34 3C0C0000 		.4byte	0xc3c
 1970 0c38 570C0000 		.4byte	0xc57
 1971 0c3c 17       		.uleb128 0x17
 1972 0c3d 8A0C0000 		.4byte	0xc8a
 1973 0c41 01       		.byte	0x1
 1974 0c42 11       		.uleb128 0x11
 1975 0c43 E0090000 		.4byte	0x9e0
 1976 0c47 11       		.uleb128 0x11
 1977 0c48 F9020000 		.4byte	0x2f9
 1978 0c4c 11       		.uleb128 0x11
 1979 0c4d 30000000 		.4byte	0x30
 1980 0c51 11       		.uleb128 0x11
 1981 0c52 900C0000 		.4byte	0xc90
 1982 0c56 00       		.byte	0
 1983 0c57 1A       		.uleb128 0x1a
 1984 0c58 01       		.byte	0x1
 1985 0c59 D0010000 		.4byte	.LASF126
 1986 0c5d 10       		.byte	0x10
 1987 0c5e 13       		.byte	0x13
 1988 0c5f 20000000 		.4byte	.LASF148
ARM GAS  /tmp/ccIZ6SY6.s 			page 36


 1989 0c63 01       		.byte	0x1
 1990 0c64 680C0000 		.4byte	0xc68
 1991 0c68 17       		.uleb128 0x17
 1992 0c69 8A0C0000 		.4byte	0xc8a
 1993 0c6d 01       		.byte	0x1
 1994 0c6e 11       		.uleb128 0x11
 1995 0c6f 6B0B0000 		.4byte	0xb6b
 1996 0c73 11       		.uleb128 0x11
 1997 0c74 F9020000 		.4byte	0x2f9
 1998 0c78 11       		.uleb128 0x11
 1999 0c79 30000000 		.4byte	0x30
 2000 0c7d 11       		.uleb128 0x11
 2001 0c7e 900C0000 		.4byte	0xc90
 2002 0c82 00       		.byte	0
 2003 0c83 00       		.byte	0
 2004 0c84 0B       		.uleb128 0xb
 2005 0c85 04       		.byte	0x4
 2006 0c86 770B0000 		.4byte	0xb77
 2007 0c8a 0B       		.uleb128 0xb
 2008 0c8b 04       		.byte	0x4
 2009 0c8c 770B0000 		.4byte	0xb77
 2010 0c90 0B       		.uleb128 0xb
 2011 0c91 04       		.byte	0x4
 2012 0c92 86000000 		.4byte	0x86
 2013 0c96 0F       		.uleb128 0xf
 2014 0c97 74000000 		.4byte	0x74
 2015 0c9b 03       		.uleb128 0x3
 2016 0c9c 710A0000 		.4byte	.LASF149
 2017 0ca0 11       		.byte	0x11
 2018 0ca1 55       		.byte	0x55
 2019 0ca2 A60C0000 		.4byte	0xca6
 2020 0ca6 05       		.uleb128 0x5
 2021 0ca7 710A0000 		.4byte	.LASF149
 2022 0cab 1E       		.byte	0x1e
 2023 0cac 11       		.byte	0x11
 2024 0cad AB       		.byte	0xab
 2025 0cae 8A0D0000 		.4byte	0xd8a
 2026 0cb2 06       		.uleb128 0x6
 2027 0cb3 04       		.byte	0x4
 2028 0cb4 11       		.byte	0x11
 2029 0cb5 B0       		.byte	0xb0
 2030 0cb6 010D0000 		.4byte	0xd01
 2031 0cba 21       		.uleb128 0x21
 2032 0cbb 04       		.byte	0x4
 2033 0cbc 11       		.byte	0x11
 2034 0cbd B1       		.byte	0xb1
 2035 0cbe D10C0000 		.4byte	0xcd1
 2036 0cc2 08       		.uleb128 0x8
 2037 0cc3 DE0C0000 		.4byte	.LASF150
 2038 0cc7 11       		.byte	0x11
 2039 0cc8 B2       		.byte	0xb2
 2040 0cc9 86000000 		.4byte	0x86
 2041 0ccd 02       		.byte	0x2
 2042 0cce 23       		.byte	0x23
 2043 0ccf 00       		.uleb128 0
 2044 0cd0 00       		.byte	0
 2045 0cd1 21       		.uleb128 0x21
ARM GAS  /tmp/ccIZ6SY6.s 			page 37


 2046 0cd2 04       		.byte	0x4
 2047 0cd3 11       		.byte	0x11
 2048 0cd4 B4       		.byte	0xb4
 2049 0cd5 F60C0000 		.4byte	0xcf6
 2050 0cd9 08       		.uleb128 0x8
 2051 0cda E9050000 		.4byte	.LASF151
 2052 0cde 11       		.byte	0x11
 2053 0cdf B5       		.byte	0xb5
 2054 0ce0 62000000 		.4byte	0x62
 2055 0ce4 02       		.byte	0x2
 2056 0ce5 23       		.byte	0x23
 2057 0ce6 00       		.uleb128 0
 2058 0ce7 08       		.uleb128 0x8
 2059 0ce8 D1000000 		.4byte	.LASF152
 2060 0cec 11       		.byte	0x11
 2061 0ced B6       		.byte	0xb6
 2062 0cee 62000000 		.4byte	0x62
 2063 0cf2 02       		.byte	0x2
 2064 0cf3 23       		.byte	0x23
 2065 0cf4 02       		.uleb128 0x2
 2066 0cf5 00       		.byte	0
 2067 0cf6 22       		.uleb128 0x22
 2068 0cf7 BA0C0000 		.4byte	0xcba
 2069 0cfb 22       		.uleb128 0x22
 2070 0cfc D10C0000 		.4byte	0xcd1
 2071 0d00 00       		.byte	0
 2072 0d01 08       		.uleb128 0x8
 2073 0d02 88010000 		.4byte	.LASF118
 2074 0d06 11       		.byte	0x11
 2075 0d07 AC       		.byte	0xac
 2076 0d08 EE0D0000 		.4byte	0xdee
 2077 0d0c 02       		.byte	0x2
 2078 0d0d 23       		.byte	0x23
 2079 0d0e 00       		.uleb128 0
 2080 0d0f 08       		.uleb128 0x8
 2081 0d10 D10B0000 		.4byte	.LASF153
 2082 0d14 11       		.byte	0x11
 2083 0d15 AD       		.byte	0xad
 2084 0d16 E30D0000 		.4byte	0xde3
 2085 0d1a 02       		.byte	0x2
 2086 0d1b 23       		.byte	0x23
 2087 0d1c 04       		.uleb128 0x4
 2088 0d1d 08       		.uleb128 0x8
 2089 0d1e E0050000 		.4byte	.LASF130
 2090 0d22 11       		.byte	0x11
 2091 0d23 AE       		.byte	0xae
 2092 0d24 8A0D0000 		.4byte	0xd8a
 2093 0d28 02       		.byte	0x2
 2094 0d29 23       		.byte	0x23
 2095 0d2a 05       		.uleb128 0x5
 2096 0d2b 08       		.uleb128 0x8
 2097 0d2c 9A0A0000 		.4byte	.LASF154
 2098 0d30 11       		.byte	0x11
 2099 0d31 AF       		.byte	0xaf
 2100 0d32 F9020000 		.4byte	0x2f9
 2101 0d36 02       		.byte	0x2
 2102 0d37 23       		.byte	0x23
ARM GAS  /tmp/ccIZ6SY6.s 			page 38


 2103 0d38 09       		.uleb128 0x9
 2104 0d39 23       		.uleb128 0x23
 2105 0d3a B20C0000 		.4byte	0xcb2
 2106 0d3e 02       		.byte	0x2
 2107 0d3f 23       		.byte	0x23
 2108 0d40 0D       		.uleb128 0xd
 2109 0d41 09       		.uleb128 0x9
 2110 0d42 696400   		.ascii	"id\000"
 2111 0d45 11       		.byte	0x11
 2112 0d46 B9       		.byte	0xb9
 2113 0d47 62000000 		.4byte	0x62
 2114 0d4b 02       		.byte	0x2
 2115 0d4c 23       		.byte	0x23
 2116 0d4d 11       		.uleb128 0x11
 2117 0d4e 08       		.uleb128 0x8
 2118 0d4f 76050000 		.4byte	.LASF81
 2119 0d53 11       		.byte	0x11
 2120 0d54 BA       		.byte	0xba
 2121 0d55 62000000 		.4byte	0x62
 2122 0d59 02       		.byte	0x2
 2123 0d5a 23       		.byte	0x23
 2124 0d5b 13       		.uleb128 0x13
 2125 0d5c 08       		.uleb128 0x8
 2126 0d5d 71050000 		.4byte	.LASF155
 2127 0d61 11       		.byte	0x11
 2128 0d62 BB       		.byte	0xbb
 2129 0d63 B1040000 		.4byte	0x4b1
 2130 0d67 02       		.byte	0x2
 2131 0d68 23       		.byte	0x23
 2132 0d69 15       		.uleb128 0x15
 2133 0d6a 09       		.uleb128 0x9
 2134 0d6b 70747200 		.ascii	"ptr\000"
 2135 0d6f 11       		.byte	0x11
 2136 0d70 BC       		.byte	0xbc
 2137 0d71 B1040000 		.4byte	0x4b1
 2138 0d75 02       		.byte	0x2
 2139 0d76 23       		.byte	0x23
 2140 0d77 19       		.uleb128 0x19
 2141 0d78 24       		.uleb128 0x24
 2142 0d79 62090000 		.4byte	.LASF197
 2143 0d7d 11       		.byte	0x11
 2144 0d7e BD       		.byte	0xbd
 2145 0d7f 49000000 		.4byte	0x49
 2146 0d83 01       		.byte	0x1
 2147 0d84 07       		.byte	0x7
 2148 0d85 01       		.byte	0x1
 2149 0d86 02       		.byte	0x2
 2150 0d87 23       		.byte	0x23
 2151 0d88 1D       		.uleb128 0x1d
 2152 0d89 00       		.byte	0
 2153 0d8a 03       		.uleb128 0x3
 2154 0d8b B8070000 		.4byte	.LASF156
 2155 0d8f 11       		.byte	0x11
 2156 0d90 5A       		.byte	0x5a
 2157 0d91 950D0000 		.4byte	0xd95
 2158 0d95 0B       		.uleb128 0xb
 2159 0d96 04       		.byte	0x4
ARM GAS  /tmp/ccIZ6SY6.s 			page 39


 2160 0d97 9B0D0000 		.4byte	0xd9b
 2161 0d9b 25       		.uleb128 0x25
 2162 0d9c A60D0000 		.4byte	0xda6
 2163 0da0 11       		.uleb128 0x11
 2164 0da1 A60D0000 		.4byte	0xda6
 2165 0da5 00       		.byte	0
 2166 0da6 0B       		.uleb128 0xb
 2167 0da7 04       		.byte	0x4
 2168 0da8 9B0C0000 		.4byte	0xc9b
 2169 0dac 26       		.uleb128 0x26
 2170 0dad 01       		.byte	0x1
 2171 0dae 11       		.byte	0x11
 2172 0daf 6C       		.byte	0x6c
 2173 0db0 F6030000 		.4byte	.LASF198
 2174 0db4 E30D0000 		.4byte	0xde3
 2175 0db8 27       		.uleb128 0x27
 2176 0db9 3B040000 		.4byte	.LASF157
 2177 0dbd 00       		.sleb128 0
 2178 0dbe 27       		.uleb128 0x27
 2179 0dbf F50A0000 		.4byte	.LASF158
 2180 0dc3 01       		.sleb128 1
 2181 0dc4 27       		.uleb128 0x27
 2182 0dc5 BD090000 		.4byte	.LASF159
 2183 0dc9 02       		.sleb128 2
 2184 0dca 27       		.uleb128 0x27
 2185 0dcb 180D0000 		.4byte	.LASF160
 2186 0dcf 03       		.sleb128 3
 2187 0dd0 27       		.uleb128 0x27
 2188 0dd1 03010000 		.4byte	.LASF161
 2189 0dd5 04       		.sleb128 4
 2190 0dd6 27       		.uleb128 0x27
 2191 0dd7 5A080000 		.4byte	.LASF162
 2192 0ddb 05       		.sleb128 5
 2193 0ddc 27       		.uleb128 0x27
 2194 0ddd 36060000 		.4byte	.LASF163
 2195 0de1 06       		.sleb128 6
 2196 0de2 00       		.byte	0
 2197 0de3 03       		.uleb128 0x3
 2198 0de4 46060000 		.4byte	.LASF164
 2199 0de8 11       		.byte	0x11
 2200 0de9 74       		.byte	0x74
 2201 0dea AC0D0000 		.4byte	0xdac
 2202 0dee 0B       		.uleb128 0xb
 2203 0def 04       		.byte	0x4
 2204 0df0 A60C0000 		.4byte	0xca6
 2205 0df4 03       		.uleb128 0x3
 2206 0df5 D6040000 		.4byte	.LASF165
 2207 0df9 12       		.byte	0x12
 2208 0dfa 09       		.byte	0x9
 2209 0dfb FF0D0000 		.4byte	0xdff
 2210 0dff 0B       		.uleb128 0xb
 2211 0e00 04       		.byte	0x4
 2212 0e01 050E0000 		.4byte	0xe05
 2213 0e05 25       		.uleb128 0x25
 2214 0e06 100E0000 		.4byte	0xe10
 2215 0e0a 11       		.uleb128 0x11
 2216 0e0b 4A050000 		.4byte	0x54a
ARM GAS  /tmp/ccIZ6SY6.s 			page 40


 2217 0e0f 00       		.byte	0
 2218 0e10 14       		.uleb128 0x14
 2219 0e11 30050000 		.4byte	.LASF166
 2220 0e15 28       		.byte	0x28
 2221 0e16 12       		.byte	0x12
 2222 0e17 0B       		.byte	0xb
 2223 0e18 8A0F0000 		.4byte	0xf8a
 2224 0e1c 15       		.uleb128 0x15
 2225 0e1d 96020000 		.4byte	.LASF94
 2226 0e21 12       		.byte	0x12
 2227 0e22 0D       		.byte	0xd
 2228 0e23 93040000 		.4byte	0x493
 2229 0e27 02       		.byte	0x2
 2230 0e28 23       		.byte	0x23
 2231 0e29 00       		.uleb128 0
 2232 0e2a 02       		.byte	0x2
 2233 0e2b 15       		.uleb128 0x15
 2234 0e2c 9B040000 		.4byte	.LASF167
 2235 0e30 12       		.byte	0x12
 2236 0e31 0E       		.byte	0xe
 2237 0e32 86000000 		.4byte	0x86
 2238 0e36 02       		.byte	0x2
 2239 0e37 23       		.byte	0x23
 2240 0e38 04       		.uleb128 0x4
 2241 0e39 02       		.byte	0x2
 2242 0e3a 15       		.uleb128 0x15
 2243 0e3b 6E0C0000 		.4byte	.LASF168
 2244 0e3f 12       		.byte	0x12
 2245 0e40 0F       		.byte	0xf
 2246 0e41 710B0000 		.4byte	0xb71
 2247 0e45 02       		.byte	0x2
 2248 0e46 23       		.byte	0x23
 2249 0e47 08       		.uleb128 0x8
 2250 0e48 02       		.byte	0x2
 2251 0e49 15       		.uleb128 0x15
 2252 0e4a 23030000 		.4byte	.LASF169
 2253 0e4e 12       		.byte	0x12
 2254 0e4f 10       		.byte	0x10
 2255 0e50 50050000 		.4byte	0x550
 2256 0e54 02       		.byte	0x2
 2257 0e55 23       		.byte	0x23
 2258 0e56 0C       		.uleb128 0xc
 2259 0e57 02       		.byte	0x2
 2260 0e58 15       		.uleb128 0x15
 2261 0e59 2A030000 		.4byte	.LASF75
 2262 0e5d 12       		.byte	0x12
 2263 0e5e 12       		.byte	0x12
 2264 0e5f B1040000 		.4byte	0x4b1
 2265 0e63 02       		.byte	0x2
 2266 0e64 23       		.byte	0x23
 2267 0e65 20       		.uleb128 0x20
 2268 0e66 02       		.byte	0x2
 2269 0e67 15       		.uleb128 0x15
 2270 0e68 EE050000 		.4byte	.LASF170
 2271 0e6c 12       		.byte	0x12
 2272 0e6d 13       		.byte	0x13
 2273 0e6e 86000000 		.4byte	0x86
ARM GAS  /tmp/ccIZ6SY6.s 			page 41


 2274 0e72 02       		.byte	0x2
 2275 0e73 23       		.byte	0x23
 2276 0e74 24       		.uleb128 0x24
 2277 0e75 02       		.byte	0x2
 2278 0e76 16       		.uleb128 0x16
 2279 0e77 01       		.byte	0x1
 2280 0e78 30050000 		.4byte	.LASF166
 2281 0e7c 12       		.byte	0x12
 2282 0e7d 15       		.byte	0x15
 2283 0e7e 8A0F0000 		.4byte	0xf8a
 2284 0e82 01       		.byte	0x1
 2285 0e83 8B0E0000 		.4byte	0xe8b
 2286 0e87 AB0E0000 		.4byte	0xeab
 2287 0e8b 17       		.uleb128 0x17
 2288 0e8c 8A0F0000 		.4byte	0xf8a
 2289 0e90 01       		.byte	0x1
 2290 0e91 11       		.uleb128 0x11
 2291 0e92 93040000 		.4byte	0x493
 2292 0e96 11       		.uleb128 0x11
 2293 0e97 30000000 		.4byte	0x30
 2294 0e9b 11       		.uleb128 0x11
 2295 0e9c B1040000 		.4byte	0x4b1
 2296 0ea0 11       		.uleb128 0x11
 2297 0ea1 94060000 		.4byte	0x694
 2298 0ea5 11       		.uleb128 0x11
 2299 0ea6 86000000 		.4byte	0x86
 2300 0eaa 00       		.byte	0
 2301 0eab 19       		.uleb128 0x19
 2302 0eac 01       		.byte	0x1
 2303 0ead F2020000 		.4byte	.LASF98
 2304 0eb1 12       		.byte	0x12
 2305 0eb2 17       		.byte	0x17
 2306 0eb3 9A010000 		.4byte	.LASF171
 2307 0eb7 93040000 		.4byte	0x493
 2308 0ebb 01       		.byte	0x1
 2309 0ebc C40E0000 		.4byte	0xec4
 2310 0ec0 CB0E0000 		.4byte	0xecb
 2311 0ec4 17       		.uleb128 0x17
 2312 0ec5 8A0F0000 		.4byte	0xf8a
 2313 0ec9 01       		.byte	0x1
 2314 0eca 00       		.byte	0
 2315 0ecb 19       		.uleb128 0x19
 2316 0ecc 01       		.byte	0x1
 2317 0ecd 76060000 		.4byte	.LASF172
 2318 0ed1 12       		.byte	0x12
 2319 0ed2 18       		.byte	0x18
 2320 0ed3 1B070000 		.4byte	.LASF173
 2321 0ed7 710B0000 		.4byte	0xb71
 2322 0edb 01       		.byte	0x1
 2323 0edc E40E0000 		.4byte	0xee4
 2324 0ee0 EB0E0000 		.4byte	0xeeb
 2325 0ee4 17       		.uleb128 0x17
 2326 0ee5 8A0F0000 		.4byte	0xf8a
 2327 0ee9 01       		.byte	0x1
 2328 0eea 00       		.byte	0
 2329 0eeb 19       		.uleb128 0x19
 2330 0eec 01       		.byte	0x1
ARM GAS  /tmp/ccIZ6SY6.s 			page 42


 2331 0eed AD050000 		.4byte	.LASF174
 2332 0ef1 12       		.byte	0x12
 2333 0ef2 19       		.byte	0x19
 2334 0ef3 760C0000 		.4byte	.LASF175
 2335 0ef7 900F0000 		.4byte	0xf90
 2336 0efb 01       		.byte	0x1
 2337 0efc 040F0000 		.4byte	0xf04
 2338 0f00 0B0F0000 		.4byte	0xf0b
 2339 0f04 17       		.uleb128 0x17
 2340 0f05 8A0F0000 		.4byte	0xf8a
 2341 0f09 01       		.byte	0x1
 2342 0f0a 00       		.byte	0
 2343 0f0b 1B       		.uleb128 0x1b
 2344 0f0c 01       		.byte	0x1
 2345 0f0d 67657400 		.ascii	"get\000"
 2346 0f11 12       		.byte	0x12
 2347 0f12 1A       		.byte	0x1a
 2348 0f13 BB030000 		.4byte	.LASF176
 2349 0f17 4A050000 		.4byte	0x54a
 2350 0f1b 01       		.byte	0x1
 2351 0f1c 240F0000 		.4byte	0xf24
 2352 0f20 2B0F0000 		.4byte	0xf2b
 2353 0f24 17       		.uleb128 0x17
 2354 0f25 8A0F0000 		.4byte	0xf8a
 2355 0f29 01       		.byte	0x1
 2356 0f2a 00       		.byte	0
 2357 0f2b 18       		.uleb128 0x18
 2358 0f2c 01       		.byte	0x1
 2359 0f2d DA010000 		.4byte	.LASF104
 2360 0f31 12       		.byte	0x12
 2361 0f32 1B       		.byte	0x1b
 2362 0f33 45070000 		.4byte	.LASF177
 2363 0f37 01       		.byte	0x1
 2364 0f38 400F0000 		.4byte	0xf40
 2365 0f3c 4C0F0000 		.4byte	0xf4c
 2366 0f40 17       		.uleb128 0x17
 2367 0f41 8A0F0000 		.4byte	0xf8a
 2368 0f45 01       		.byte	0x1
 2369 0f46 11       		.uleb128 0x11
 2370 0f47 4A050000 		.4byte	0x54a
 2371 0f4b 00       		.byte	0
 2372 0f4c 18       		.uleb128 0x18
 2373 0f4d 01       		.byte	0x1
 2374 0f4e 16040000 		.4byte	.LASF106
 2375 0f52 12       		.byte	0x12
 2376 0f53 1C       		.byte	0x1c
 2377 0f54 57000000 		.4byte	.LASF178
 2378 0f58 01       		.byte	0x1
 2379 0f59 610F0000 		.4byte	0xf61
 2380 0f5d 6D0F0000 		.4byte	0xf6d
 2381 0f61 17       		.uleb128 0x17
 2382 0f62 8A0F0000 		.4byte	0xf8a
 2383 0f66 01       		.byte	0x1
 2384 0f67 11       		.uleb128 0x11
 2385 0f68 4A050000 		.4byte	0x54a
 2386 0f6c 00       		.byte	0
 2387 0f6d 1C       		.uleb128 0x1c
ARM GAS  /tmp/ccIZ6SY6.s 			page 43


 2388 0f6e 01       		.byte	0x1
 2389 0f6f 76050000 		.4byte	.LASF81
 2390 0f73 12       		.byte	0x12
 2391 0f74 1D       		.byte	0x1d
 2392 0f75 15050000 		.4byte	.LASF179
 2393 0f79 62000000 		.4byte	0x62
 2394 0f7d 01       		.byte	0x1
 2395 0f7e 820F0000 		.4byte	0xf82
 2396 0f82 17       		.uleb128 0x17
 2397 0f83 8A0F0000 		.4byte	0xf8a
 2398 0f87 01       		.byte	0x1
 2399 0f88 00       		.byte	0
 2400 0f89 00       		.byte	0
 2401 0f8a 0B       		.uleb128 0xb
 2402 0f8b 04       		.byte	0x4
 2403 0f8c 100E0000 		.4byte	0xe10
 2404 0f90 0B       		.uleb128 0xb
 2405 0f91 04       		.byte	0x4
 2406 0f92 100E0000 		.4byte	0xe10
 2407 0f96 14       		.uleb128 0x14
 2408 0f97 52090000 		.4byte	.LASF180
 2409 0f9b 3C       		.byte	0x3c
 2410 0f9c 13       		.byte	0x13
 2411 0f9d 0A       		.byte	0xa
 2412 0f9e C1100000 		.4byte	0x10c1
 2413 0fa2 1D       		.uleb128 0x1d
 2414 0fa3 A0060000 		.4byte	0x6a0
 2415 0fa7 02       		.byte	0x2
 2416 0fa8 23       		.byte	0x23
 2417 0fa9 00       		.uleb128 0
 2418 0faa 01       		.byte	0x1
 2419 0fab 15       		.uleb128 0x15
 2420 0fac DB0A0000 		.4byte	.LASF114
 2421 0fb0 13       		.byte	0x13
 2422 0fb1 0C       		.byte	0xc
 2423 0fb2 C1100000 		.4byte	0x10c1
 2424 0fb6 02       		.byte	0x2
 2425 0fb7 23       		.byte	0x23
 2426 0fb8 18       		.uleb128 0x18
 2427 0fb9 03       		.byte	0x3
 2428 0fba 15       		.uleb128 0x15
 2429 0fbb 70070000 		.4byte	.LASF181
 2430 0fbf 13       		.byte	0x13
 2431 0fc0 0D       		.byte	0xd
 2432 0fc1 9B0C0000 		.4byte	0xc9b
 2433 0fc5 02       		.byte	0x2
 2434 0fc6 23       		.byte	0x23
 2435 0fc7 1C       		.uleb128 0x1c
 2436 0fc8 03       		.byte	0x3
 2437 0fc9 16       		.uleb128 0x16
 2438 0fca 01       		.byte	0x1
 2439 0fcb 52090000 		.4byte	.LASF180
 2440 0fcf 13       		.byte	0x13
 2441 0fd0 0F       		.byte	0xf
 2442 0fd1 C7100000 		.4byte	0x10c7
 2443 0fd5 01       		.byte	0x1
 2444 0fd6 DE0F0000 		.4byte	0xfde
ARM GAS  /tmp/ccIZ6SY6.s 			page 44


 2445 0fda EF0F0000 		.4byte	0xfef
 2446 0fde 17       		.uleb128 0x17
 2447 0fdf C7100000 		.4byte	0x10c7
 2448 0fe3 01       		.byte	0x1
 2449 0fe4 11       		.uleb128 0x11
 2450 0fe5 93040000 		.4byte	0x493
 2451 0fe9 11       		.uleb128 0x11
 2452 0fea 30000000 		.4byte	0x30
 2453 0fee 00       		.byte	0
 2454 0fef 19       		.uleb128 0x19
 2455 0ff0 01       		.byte	0x1
 2456 0ff1 88010000 		.4byte	.LASF118
 2457 0ff5 13       		.byte	0x13
 2458 0ff6 10       		.byte	0x10
 2459 0ff7 1F040000 		.4byte	.LASF182
 2460 0ffb C1100000 		.4byte	0x10c1
 2461 0fff 01       		.byte	0x1
 2462 1000 08100000 		.4byte	0x1008
 2463 1004 0F100000 		.4byte	0x100f
 2464 1008 17       		.uleb128 0x17
 2465 1009 C7100000 		.4byte	0x10c7
 2466 100d 01       		.byte	0x1
 2467 100e 00       		.byte	0
 2468 100f 18       		.uleb128 0x18
 2469 1010 01       		.byte	0x1
 2470 1011 88010000 		.4byte	.LASF118
 2471 1015 13       		.byte	0x13
 2472 1016 11       		.byte	0x11
 2473 1017 8C0B0000 		.4byte	.LASF183
 2474 101b 01       		.byte	0x1
 2475 101c 24100000 		.4byte	0x1024
 2476 1020 30100000 		.4byte	0x1030
 2477 1024 17       		.uleb128 0x17
 2478 1025 C7100000 		.4byte	0x10c7
 2479 1029 01       		.byte	0x1
 2480 102a 11       		.uleb128 0x11
 2481 102b C1100000 		.4byte	0x10c1
 2482 102f 00       		.byte	0
 2483 1030 19       		.uleb128 0x19
 2484 1031 01       		.byte	0x1
 2485 1032 D5030000 		.4byte	.LASF184
 2486 1036 13       		.byte	0x13
 2487 1037 12       		.byte	0x12
 2488 1038 7B070000 		.4byte	.LASF185
 2489 103c 29000000 		.4byte	0x29
 2490 1040 01       		.byte	0x1
 2491 1041 49100000 		.4byte	0x1049
 2492 1045 55100000 		.4byte	0x1055
 2493 1049 17       		.uleb128 0x17
 2494 104a C7100000 		.4byte	0x10c7
 2495 104e 01       		.byte	0x1
 2496 104f 11       		.uleb128 0x11
 2497 1050 4A050000 		.4byte	0x54a
 2498 1054 00       		.byte	0
 2499 1055 18       		.uleb128 0x18
 2500 1056 01       		.byte	0x1
 2501 1057 D0010000 		.4byte	.LASF126
ARM GAS  /tmp/ccIZ6SY6.s 			page 45


 2502 105b 13       		.byte	0x13
 2503 105c 13       		.byte	0x13
 2504 105d 410D0000 		.4byte	.LASF186
 2505 1061 01       		.byte	0x1
 2506 1062 6A100000 		.4byte	0x106a
 2507 1066 85100000 		.4byte	0x1085
 2508 106a 17       		.uleb128 0x17
 2509 106b C7100000 		.4byte	0x10c7
 2510 106f 01       		.byte	0x1
 2511 1070 11       		.uleb128 0x11
 2512 1071 E0090000 		.4byte	0x9e0
 2513 1075 11       		.uleb128 0x11
 2514 1076 F9020000 		.4byte	0x2f9
 2515 107a 11       		.uleb128 0x11
 2516 107b 30000000 		.4byte	0x30
 2517 107f 11       		.uleb128 0x11
 2518 1080 900C0000 		.4byte	0xc90
 2519 1084 00       		.byte	0
 2520 1085 1F       		.uleb128 0x1f
 2521 1086 01       		.byte	0x1
 2522 1087 696400   		.ascii	"id\000"
 2523 108a 13       		.byte	0x13
 2524 108b 14       		.byte	0x14
 2525 108c 73080000 		.4byte	.LASF187
 2526 1090 01       		.byte	0x1
 2527 1091 99100000 		.4byte	0x1099
 2528 1095 A5100000 		.4byte	0x10a5
 2529 1099 17       		.uleb128 0x17
 2530 109a C7100000 		.4byte	0x10c7
 2531 109e 01       		.byte	0x1
 2532 109f 11       		.uleb128 0x11
 2533 10a0 62000000 		.4byte	0x62
 2534 10a4 00       		.byte	0
 2535 10a5 20       		.uleb128 0x20
 2536 10a6 01       		.byte	0x1
 2537 10a7 696400   		.ascii	"id\000"
 2538 10aa 13       		.byte	0x13
 2539 10ab 15       		.byte	0x15
 2540 10ac E70B0000 		.4byte	.LASF188
 2541 10b0 62000000 		.4byte	0x62
 2542 10b4 01       		.byte	0x1
 2543 10b5 B9100000 		.4byte	0x10b9
 2544 10b9 17       		.uleb128 0x17
 2545 10ba C7100000 		.4byte	0x10c7
 2546 10be 01       		.byte	0x1
 2547 10bf 00       		.byte	0
 2548 10c0 00       		.byte	0
 2549 10c1 0B       		.uleb128 0xb
 2550 10c2 04       		.byte	0x4
 2551 10c3 960F0000 		.4byte	0xf96
 2552 10c7 0B       		.uleb128 0xb
 2553 10c8 04       		.byte	0x4
 2554 10c9 960F0000 		.4byte	0xf96
 2555 10cd 0B       		.uleb128 0xb
 2556 10ce 04       		.byte	0x4
 2557 10cf EF070000 		.4byte	0x7ef
 2558 10d3 28       		.uleb128 0x28
ARM GAS  /tmp/ccIZ6SY6.s 			page 46


 2559 10d4 04       		.byte	0x4
 2560 10d5 29000000 		.4byte	0x29
 2561 10d9 0B       		.uleb128 0xb
 2562 10da 04       		.byte	0x4
 2563 10db E6090000 		.4byte	0x9e6
 2564 10df 29       		.uleb128 0x29
 2565 10e0 9B0B0000 		.4byte	0xb9b
 2566 10e4 01       		.byte	0x1
 2567 10e5 0A       		.byte	0xa
 2568 10e6 00       		.byte	0
 2569 10e7 EF100000 		.4byte	0x10ef
 2570 10eb 10110000 		.4byte	0x1110
 2571 10ef 2A       		.uleb128 0x2a
 2572 10f0 84030000 		.4byte	.LASF190
 2573 10f4 10110000 		.4byte	0x1110
 2574 10f8 01       		.byte	0x1
 2575 10f9 2B       		.uleb128 0x2b
 2576 10fa F2020000 		.4byte	.LASF98
 2577 10fe 01       		.byte	0x1
 2578 10ff 0A       		.byte	0xa
 2579 1100 93040000 		.4byte	0x493
 2580 1104 2B       		.uleb128 0x2b
 2581 1105 D80B0000 		.4byte	.LASF189
 2582 1109 01       		.byte	0x1
 2583 110a 0A       		.byte	0xa
 2584 110b 30000000 		.4byte	0x30
 2585 110f 00       		.byte	0
 2586 1110 12       		.uleb128 0x12
 2587 1111 8A0C0000 		.4byte	0xc8a
 2588 1115 2C       		.uleb128 0x2c
 2589 1116 DF100000 		.4byte	0x10df
 2590 111a 00000000 		.4byte	.LFB81
 2591 111e 10000000 		.4byte	.LFE81
 2592 1122 00000000 		.4byte	.LLST0
 2593 1126 2E110000 		.4byte	0x112e
 2594 112a 4A110000 		.4byte	0x114a
 2595 112e 2D       		.uleb128 0x2d
 2596 112f EF100000 		.4byte	0x10ef
 2597 1133 20000000 		.4byte	.LLST1
 2598 1137 2D       		.uleb128 0x2d
 2599 1138 F9100000 		.4byte	0x10f9
 2600 113c 3E000000 		.4byte	.LLST2
 2601 1140 2D       		.uleb128 0x2d
 2602 1141 04110000 		.4byte	0x1104
 2603 1145 51000000 		.4byte	.LLST3
 2604 1149 00       		.byte	0
 2605 114a 2E       		.uleb128 0x2e
 2606 114b C10B0000 		.4byte	0xbc1
 2607 114f 01       		.byte	0x1
 2608 1150 0E       		.byte	0xe
 2609 1151 00000000 		.4byte	.LFB83
 2610 1155 04000000 		.4byte	.LFE83
 2611 1159 02       		.byte	0x2
 2612 115a 7D       		.byte	0x7d
 2613 115b 00       		.sleb128 0
 2614 115c 64110000 		.4byte	0x1164
 2615 1160 73110000 		.4byte	0x1173
ARM GAS  /tmp/ccIZ6SY6.s 			page 47


 2616 1164 2F       		.uleb128 0x2f
 2617 1165 84030000 		.4byte	.LASF190
 2618 1169 10110000 		.4byte	0x1110
 2619 116d 01       		.byte	0x1
 2620 116e 64000000 		.4byte	.LLST4
 2621 1172 00       		.byte	0
 2622 1173 2E       		.uleb128 0x2e
 2623 1174 E10B0000 		.4byte	0xbe1
 2624 1178 01       		.byte	0x1
 2625 1179 12       		.byte	0x12
 2626 117a 00000000 		.4byte	.LFB84
 2627 117e 04000000 		.4byte	.LFE84
 2628 1182 02       		.byte	0x2
 2629 1183 7D       		.byte	0x7d
 2630 1184 00       		.sleb128 0
 2631 1185 8D110000 		.4byte	0x118d
 2632 1189 A7110000 		.4byte	0x11a7
 2633 118d 30       		.uleb128 0x30
 2634 118e 84030000 		.4byte	.LASF190
 2635 1192 10110000 		.4byte	0x1110
 2636 1196 01       		.byte	0x1
 2637 1197 01       		.byte	0x1
 2638 1198 50       		.byte	0x50
 2639 1199 31       		.uleb128 0x31
 2640 119a 88010000 		.4byte	.LASF118
 2641 119e 01       		.byte	0x1
 2642 119f 12       		.byte	0x12
 2643 11a0 840C0000 		.4byte	0xc84
 2644 11a4 01       		.byte	0x1
 2645 11a5 51       		.byte	0x51
 2646 11a6 00       		.byte	0
 2647 11a7 32       		.uleb128 0x32
 2648 11a8 020C0000 		.4byte	0xc02
 2649 11ac 01       		.byte	0x1
 2650 11ad 16       		.byte	0x16
 2651 11ae 00000000 		.4byte	.LFB85
 2652 11b2 52000000 		.4byte	.LFE85
 2653 11b6 77000000 		.4byte	.LLST5
 2654 11ba C2110000 		.4byte	0x11c2
 2655 11be 46120000 		.4byte	0x1246
 2656 11c2 2F       		.uleb128 0x2f
 2657 11c3 84030000 		.4byte	.LASF190
 2658 11c7 10110000 		.4byte	0x1110
 2659 11cb 01       		.byte	0x1
 2660 11cc A3000000 		.4byte	.LLST6
 2661 11d0 33       		.uleb128 0x33
 2662 11d1 6D736700 		.ascii	"msg\000"
 2663 11d5 01       		.byte	0x1
 2664 11d6 16       		.byte	0x16
 2665 11d7 4A050000 		.4byte	0x54a
 2666 11db C1000000 		.4byte	.LLST7
 2667 11df 34       		.uleb128 0x34
 2668 11e0 00000000 		.4byte	.Ldebug_ranges0+0
 2669 11e4 35       		.uleb128 0x35
 2670 11e5 88010000 		.4byte	.LASF118
 2671 11e9 01       		.byte	0x1
 2672 11ea 17       		.byte	0x17
ARM GAS  /tmp/ccIZ6SY6.s 			page 48


 2673 11eb E0090000 		.4byte	0x9e0
 2674 11ef DF000000 		.4byte	.LLST8
 2675 11f3 35       		.uleb128 0x35
 2676 11f4 A1000000 		.4byte	.LASF191
 2677 11f8 01       		.byte	0x1
 2678 11f9 18       		.byte	0x18
 2679 11fa 6B0B0000 		.4byte	0xb6b
 2680 11fe 15010000 		.4byte	.LLST9
 2681 1202 36       		.uleb128 0x36
 2682 1203 6E00     		.ascii	"n\000"
 2683 1205 01       		.byte	0x1
 2684 1206 19       		.byte	0x19
 2685 1207 29000000 		.4byte	0x29
 2686 120b 02       		.byte	0x2
 2687 120c 91       		.byte	0x91
 2688 120d 6C       		.sleb128 -20
 2689 120e 37       		.uleb128 0x37
 2690 120f 10000000 		.4byte	.LBB5
 2691 1213 16000000 		.4byte	.LBE5
 2692 1217 2B120000 		.4byte	0x122b
 2693 121b 38       		.uleb128 0x38
 2694 121c 746D7000 		.ascii	"tmp\000"
 2695 1220 01       		.byte	0x1
 2696 1221 1B       		.byte	0x1b
 2697 1222 86000000 		.4byte	0x86
 2698 1226 4A010000 		.4byte	.LLST10
 2699 122a 00       		.byte	0
 2700 122b 39       		.uleb128 0x39
 2701 122c 46000000 		.4byte	.LBB7
 2702 1230 4C000000 		.4byte	.LBE7
 2703 1234 38       		.uleb128 0x38
 2704 1235 746D7000 		.ascii	"tmp\000"
 2705 1239 01       		.byte	0x1
 2706 123a 26       		.byte	0x26
 2707 123b 86000000 		.4byte	0x86
 2708 123f 5D010000 		.4byte	.LLST11
 2709 1243 00       		.byte	0
 2710 1244 00       		.byte	0
 2711 1245 00       		.byte	0
 2712 1246 32       		.uleb128 0x32
 2713 1247 270C0000 		.4byte	0xc27
 2714 124b 01       		.byte	0x1
 2715 124c 2B       		.byte	0x2b
 2716 124d 00000000 		.4byte	.LFB86
 2717 1251 40000000 		.4byte	.LFE86
 2718 1255 70010000 		.4byte	.LLST12
 2719 1259 61120000 		.4byte	0x1261
 2720 125d E1120000 		.4byte	0x12e1
 2721 1261 2F       		.uleb128 0x2f
 2722 1262 84030000 		.4byte	.LASF190
 2723 1266 10110000 		.4byte	0x1110
 2724 126a 01       		.byte	0x1
 2725 126b 90010000 		.4byte	.LLST13
 2726 126f 33       		.uleb128 0x33
 2727 1270 73756200 		.ascii	"sub\000"
 2728 1274 01       		.byte	0x1
 2729 1275 2B       		.byte	0x2b
ARM GAS  /tmp/ccIZ6SY6.s 			page 49


 2730 1276 E0090000 		.4byte	0x9e0
 2731 127a AE010000 		.4byte	.LLST14
 2732 127e 3A       		.uleb128 0x3a
 2733 127f C90A0000 		.4byte	.LASF192
 2734 1283 01       		.byte	0x1
 2735 1284 2B       		.byte	0x2b
 2736 1285 F9020000 		.4byte	0x2f9
 2737 1289 CC010000 		.4byte	.LLST15
 2738 128d 3A       		.uleb128 0x3a
 2739 128e 76050000 		.4byte	.LASF81
 2740 1292 01       		.byte	0x1
 2741 1293 2C       		.byte	0x2c
 2742 1294 30000000 		.4byte	0x30
 2743 1298 F5010000 		.4byte	.LLST16
 2744 129c 31       		.uleb128 0x31
 2745 129d EE050000 		.4byte	.LASF170
 2746 12a1 01       		.byte	0x1
 2747 12a2 2C       		.byte	0x2c
 2748 12a3 900C0000 		.4byte	0xc90
 2749 12a7 02       		.byte	0x2
 2750 12a8 91       		.byte	0x91
 2751 12a9 00       		.sleb128 0
 2752 12aa 37       		.uleb128 0x37
 2753 12ab 0C000000 		.4byte	.LBB12
 2754 12af 12000000 		.4byte	.LBE12
 2755 12b3 C7120000 		.4byte	0x12c7
 2756 12b7 38       		.uleb128 0x38
 2757 12b8 746D7000 		.ascii	"tmp\000"
 2758 12bc 01       		.byte	0x1
 2759 12bd 33       		.byte	0x33
 2760 12be 86000000 		.4byte	0x86
 2761 12c2 13020000 		.4byte	.LLST17
 2762 12c6 00       		.byte	0
 2763 12c7 39       		.uleb128 0x39
 2764 12c8 26000000 		.4byte	.LBB14
 2765 12cc 2C000000 		.4byte	.LBE14
 2766 12d0 38       		.uleb128 0x38
 2767 12d1 746D7000 		.ascii	"tmp\000"
 2768 12d5 01       		.byte	0x1
 2769 12d6 3A       		.byte	0x3a
 2770 12d7 86000000 		.4byte	0x86
 2771 12db 26020000 		.4byte	.LLST18
 2772 12df 00       		.byte	0
 2773 12e0 00       		.byte	0
 2774 12e1 32       		.uleb128 0x32
 2775 12e2 570C0000 		.4byte	0xc57
 2776 12e6 01       		.byte	0x1
 2777 12e7 3D       		.byte	0x3d
 2778 12e8 00000000 		.4byte	.LFB87
 2779 12ec 40000000 		.4byte	.LFE87
 2780 12f0 39020000 		.4byte	.LLST19
 2781 12f4 FC120000 		.4byte	0x12fc
 2782 12f8 7C130000 		.4byte	0x137c
 2783 12fc 2F       		.uleb128 0x2f
 2784 12fd 84030000 		.4byte	.LASF190
 2785 1301 10110000 		.4byte	0x1110
 2786 1305 01       		.byte	0x1
ARM GAS  /tmp/ccIZ6SY6.s 			page 50


 2787 1306 59020000 		.4byte	.LLST20
 2788 130a 33       		.uleb128 0x33
 2789 130b 73756200 		.ascii	"sub\000"
 2790 130f 01       		.byte	0x1
 2791 1310 3D       		.byte	0x3d
 2792 1311 6B0B0000 		.4byte	0xb6b
 2793 1315 77020000 		.4byte	.LLST21
 2794 1319 3A       		.uleb128 0x3a
 2795 131a C90A0000 		.4byte	.LASF192
 2796 131e 01       		.byte	0x1
 2797 131f 3D       		.byte	0x3d
 2798 1320 F9020000 		.4byte	0x2f9
 2799 1324 95020000 		.4byte	.LLST22
 2800 1328 3A       		.uleb128 0x3a
 2801 1329 76050000 		.4byte	.LASF81
 2802 132d 01       		.byte	0x1
 2803 132e 3E       		.byte	0x3e
 2804 132f 30000000 		.4byte	0x30
 2805 1333 BE020000 		.4byte	.LLST23
 2806 1337 31       		.uleb128 0x31
 2807 1338 EE050000 		.4byte	.LASF170
 2808 133c 01       		.byte	0x1
 2809 133d 3E       		.byte	0x3e
 2810 133e 900C0000 		.4byte	0xc90
 2811 1342 02       		.byte	0x2
 2812 1343 91       		.byte	0x91
 2813 1344 00       		.sleb128 0
 2814 1345 37       		.uleb128 0x37
 2815 1346 0C000000 		.4byte	.LBB19
 2816 134a 12000000 		.4byte	.LBE19
 2817 134e 62130000 		.4byte	0x1362
 2818 1352 38       		.uleb128 0x38
 2819 1353 746D7000 		.ascii	"tmp\000"
 2820 1357 01       		.byte	0x1
 2821 1358 45       		.byte	0x45
 2822 1359 86000000 		.4byte	0x86
 2823 135d DC020000 		.4byte	.LLST24
 2824 1361 00       		.byte	0
 2825 1362 39       		.uleb128 0x39
 2826 1363 26000000 		.4byte	.LBB21
 2827 1367 2C000000 		.4byte	.LBE21
 2828 136b 38       		.uleb128 0x38
 2829 136c 746D7000 		.ascii	"tmp\000"
 2830 1370 01       		.byte	0x1
 2831 1371 4C       		.byte	0x4c
 2832 1372 86000000 		.4byte	0x86
 2833 1376 EF020000 		.4byte	.LLST25
 2834 137a 00       		.byte	0
 2835 137b 00       		.byte	0
 2836 137c 3B       		.uleb128 0x3b
 2837 137d 63010000 		.4byte	.LASF199
 2838 1381 15       		.byte	0x15
 2839 1382 0706     		.2byte	0x607
 2840 1384 960C0000 		.4byte	0xc96
 2841 1388 01       		.byte	0x1
 2842 1389 01       		.byte	0x1
 2843 138a 00       		.byte	0
ARM GAS  /tmp/ccIZ6SY6.s 			page 51


 2844              		.section	.debug_abbrev,"",%progbits
 2845              	.Ldebug_abbrev0:
 2846 0000 01       		.uleb128 0x1
 2847 0001 11       		.uleb128 0x11
 2848 0002 01       		.byte	0x1
 2849 0003 25       		.uleb128 0x25
 2850 0004 0E       		.uleb128 0xe
 2851 0005 13       		.uleb128 0x13
 2852 0006 0B       		.uleb128 0xb
 2853 0007 03       		.uleb128 0x3
 2854 0008 0E       		.uleb128 0xe
 2855 0009 1B       		.uleb128 0x1b
 2856 000a 0E       		.uleb128 0xe
 2857 000b 11       		.uleb128 0x11
 2858 000c 01       		.uleb128 0x1
 2859 000d 52       		.uleb128 0x52
 2860 000e 01       		.uleb128 0x1
 2861 000f 55       		.uleb128 0x55
 2862 0010 06       		.uleb128 0x6
 2863 0011 10       		.uleb128 0x10
 2864 0012 06       		.uleb128 0x6
 2865 0013 00       		.byte	0
 2866 0014 00       		.byte	0
 2867 0015 02       		.uleb128 0x2
 2868 0016 24       		.uleb128 0x24
 2869 0017 00       		.byte	0
 2870 0018 0B       		.uleb128 0xb
 2871 0019 0B       		.uleb128 0xb
 2872 001a 3E       		.uleb128 0x3e
 2873 001b 0B       		.uleb128 0xb
 2874 001c 03       		.uleb128 0x3
 2875 001d 08       		.uleb128 0x8
 2876 001e 00       		.byte	0
 2877 001f 00       		.byte	0
 2878 0020 03       		.uleb128 0x3
 2879 0021 16       		.uleb128 0x16
 2880 0022 00       		.byte	0
 2881 0023 03       		.uleb128 0x3
 2882 0024 0E       		.uleb128 0xe
 2883 0025 3A       		.uleb128 0x3a
 2884 0026 0B       		.uleb128 0xb
 2885 0027 3B       		.uleb128 0x3b
 2886 0028 0B       		.uleb128 0xb
 2887 0029 49       		.uleb128 0x49
 2888 002a 13       		.uleb128 0x13
 2889 002b 00       		.byte	0
 2890 002c 00       		.byte	0
 2891 002d 04       		.uleb128 0x4
 2892 002e 24       		.uleb128 0x24
 2893 002f 00       		.byte	0
 2894 0030 0B       		.uleb128 0xb
 2895 0031 0B       		.uleb128 0xb
 2896 0032 3E       		.uleb128 0x3e
 2897 0033 0B       		.uleb128 0xb
 2898 0034 03       		.uleb128 0x3
 2899 0035 0E       		.uleb128 0xe
 2900 0036 00       		.byte	0
ARM GAS  /tmp/ccIZ6SY6.s 			page 52


 2901 0037 00       		.byte	0
 2902 0038 05       		.uleb128 0x5
 2903 0039 13       		.uleb128 0x13
 2904 003a 01       		.byte	0x1
 2905 003b 03       		.uleb128 0x3
 2906 003c 0E       		.uleb128 0xe
 2907 003d 0B       		.uleb128 0xb
 2908 003e 0B       		.uleb128 0xb
 2909 003f 3A       		.uleb128 0x3a
 2910 0040 0B       		.uleb128 0xb
 2911 0041 3B       		.uleb128 0x3b
 2912 0042 0B       		.uleb128 0xb
 2913 0043 01       		.uleb128 0x1
 2914 0044 13       		.uleb128 0x13
 2915 0045 00       		.byte	0
 2916 0046 00       		.byte	0
 2917 0047 06       		.uleb128 0x6
 2918 0048 17       		.uleb128 0x17
 2919 0049 01       		.byte	0x1
 2920 004a 0B       		.uleb128 0xb
 2921 004b 0B       		.uleb128 0xb
 2922 004c 3A       		.uleb128 0x3a
 2923 004d 0B       		.uleb128 0xb
 2924 004e 3B       		.uleb128 0x3b
 2925 004f 0B       		.uleb128 0xb
 2926 0050 01       		.uleb128 0x1
 2927 0051 13       		.uleb128 0x13
 2928 0052 00       		.byte	0
 2929 0053 00       		.byte	0
 2930 0054 07       		.uleb128 0x7
 2931 0055 0D       		.uleb128 0xd
 2932 0056 00       		.byte	0
 2933 0057 03       		.uleb128 0x3
 2934 0058 0E       		.uleb128 0xe
 2935 0059 3A       		.uleb128 0x3a
 2936 005a 0B       		.uleb128 0xb
 2937 005b 3B       		.uleb128 0x3b
 2938 005c 0B       		.uleb128 0xb
 2939 005d 49       		.uleb128 0x49
 2940 005e 13       		.uleb128 0x13
 2941 005f 00       		.byte	0
 2942 0060 00       		.byte	0
 2943 0061 08       		.uleb128 0x8
 2944 0062 0D       		.uleb128 0xd
 2945 0063 00       		.byte	0
 2946 0064 03       		.uleb128 0x3
 2947 0065 0E       		.uleb128 0xe
 2948 0066 3A       		.uleb128 0x3a
 2949 0067 0B       		.uleb128 0xb
 2950 0068 3B       		.uleb128 0x3b
 2951 0069 0B       		.uleb128 0xb
 2952 006a 49       		.uleb128 0x49
 2953 006b 13       		.uleb128 0x13
 2954 006c 38       		.uleb128 0x38
 2955 006d 0A       		.uleb128 0xa
 2956 006e 00       		.byte	0
 2957 006f 00       		.byte	0
ARM GAS  /tmp/ccIZ6SY6.s 			page 53


 2958 0070 09       		.uleb128 0x9
 2959 0071 0D       		.uleb128 0xd
 2960 0072 00       		.byte	0
 2961 0073 03       		.uleb128 0x3
 2962 0074 08       		.uleb128 0x8
 2963 0075 3A       		.uleb128 0x3a
 2964 0076 0B       		.uleb128 0xb
 2965 0077 3B       		.uleb128 0x3b
 2966 0078 0B       		.uleb128 0xb
 2967 0079 49       		.uleb128 0x49
 2968 007a 13       		.uleb128 0x13
 2969 007b 38       		.uleb128 0x38
 2970 007c 0A       		.uleb128 0xa
 2971 007d 00       		.byte	0
 2972 007e 00       		.byte	0
 2973 007f 0A       		.uleb128 0xa
 2974 0080 13       		.uleb128 0x13
 2975 0081 01       		.byte	0x1
 2976 0082 0B       		.uleb128 0xb
 2977 0083 0B       		.uleb128 0xb
 2978 0084 3A       		.uleb128 0x3a
 2979 0085 0B       		.uleb128 0xb
 2980 0086 3B       		.uleb128 0x3b
 2981 0087 0B       		.uleb128 0xb
 2982 0088 8740     		.uleb128 0x2007
 2983 008a 0E       		.uleb128 0xe
 2984 008b 01       		.uleb128 0x1
 2985 008c 13       		.uleb128 0x13
 2986 008d 00       		.byte	0
 2987 008e 00       		.byte	0
 2988 008f 0B       		.uleb128 0xb
 2989 0090 0F       		.uleb128 0xf
 2990 0091 00       		.byte	0
 2991 0092 0B       		.uleb128 0xb
 2992 0093 0B       		.uleb128 0xb
 2993 0094 49       		.uleb128 0x49
 2994 0095 13       		.uleb128 0x13
 2995 0096 00       		.byte	0
 2996 0097 00       		.byte	0
 2997 0098 0C       		.uleb128 0xc
 2998 0099 0F       		.uleb128 0xf
 2999 009a 00       		.byte	0
 3000 009b 0B       		.uleb128 0xb
 3001 009c 0B       		.uleb128 0xb
 3002 009d 00       		.byte	0
 3003 009e 00       		.byte	0
 3004 009f 0D       		.uleb128 0xd
 3005 00a0 13       		.uleb128 0x13
 3006 00a1 01       		.byte	0x1
 3007 00a2 03       		.uleb128 0x3
 3008 00a3 0E       		.uleb128 0xe
 3009 00a4 0B       		.uleb128 0xb
 3010 00a5 0B       		.uleb128 0xb
 3011 00a6 3A       		.uleb128 0x3a
 3012 00a7 0B       		.uleb128 0xb
 3013 00a8 3B       		.uleb128 0x3b
 3014 00a9 05       		.uleb128 0x5
ARM GAS  /tmp/ccIZ6SY6.s 			page 54


 3015 00aa 01       		.uleb128 0x1
 3016 00ab 13       		.uleb128 0x13
 3017 00ac 00       		.byte	0
 3018 00ad 00       		.byte	0
 3019 00ae 0E       		.uleb128 0xe
 3020 00af 0D       		.uleb128 0xd
 3021 00b0 00       		.byte	0
 3022 00b1 03       		.uleb128 0x3
 3023 00b2 08       		.uleb128 0x8
 3024 00b3 3A       		.uleb128 0x3a
 3025 00b4 0B       		.uleb128 0xb
 3026 00b5 3B       		.uleb128 0x3b
 3027 00b6 05       		.uleb128 0x5
 3028 00b7 49       		.uleb128 0x49
 3029 00b8 13       		.uleb128 0x13
 3030 00b9 38       		.uleb128 0x38
 3031 00ba 0A       		.uleb128 0xa
 3032 00bb 00       		.byte	0
 3033 00bc 00       		.byte	0
 3034 00bd 0F       		.uleb128 0xf
 3035 00be 35       		.uleb128 0x35
 3036 00bf 00       		.byte	0
 3037 00c0 49       		.uleb128 0x49
 3038 00c1 13       		.uleb128 0x13
 3039 00c2 00       		.byte	0
 3040 00c3 00       		.byte	0
 3041 00c4 10       		.uleb128 0x10
 3042 00c5 15       		.uleb128 0x15
 3043 00c6 01       		.byte	0x1
 3044 00c7 49       		.uleb128 0x49
 3045 00c8 13       		.uleb128 0x13
 3046 00c9 01       		.uleb128 0x1
 3047 00ca 13       		.uleb128 0x13
 3048 00cb 00       		.byte	0
 3049 00cc 00       		.byte	0
 3050 00cd 11       		.uleb128 0x11
 3051 00ce 05       		.uleb128 0x5
 3052 00cf 00       		.byte	0
 3053 00d0 49       		.uleb128 0x49
 3054 00d1 13       		.uleb128 0x13
 3055 00d2 00       		.byte	0
 3056 00d3 00       		.byte	0
 3057 00d4 12       		.uleb128 0x12
 3058 00d5 26       		.uleb128 0x26
 3059 00d6 00       		.byte	0
 3060 00d7 49       		.uleb128 0x49
 3061 00d8 13       		.uleb128 0x13
 3062 00d9 00       		.byte	0
 3063 00da 00       		.byte	0
 3064 00db 13       		.uleb128 0x13
 3065 00dc 39       		.uleb128 0x39
 3066 00dd 00       		.byte	0
 3067 00de 03       		.uleb128 0x3
 3068 00df 0E       		.uleb128 0xe
 3069 00e0 3A       		.uleb128 0x3a
 3070 00e1 0B       		.uleb128 0xb
 3071 00e2 3B       		.uleb128 0x3b
ARM GAS  /tmp/ccIZ6SY6.s 			page 55


 3072 00e3 0B       		.uleb128 0xb
 3073 00e4 00       		.byte	0
 3074 00e5 00       		.byte	0
 3075 00e6 14       		.uleb128 0x14
 3076 00e7 02       		.uleb128 0x2
 3077 00e8 01       		.byte	0x1
 3078 00e9 03       		.uleb128 0x3
 3079 00ea 0E       		.uleb128 0xe
 3080 00eb 0B       		.uleb128 0xb
 3081 00ec 0B       		.uleb128 0xb
 3082 00ed 3A       		.uleb128 0x3a
 3083 00ee 0B       		.uleb128 0xb
 3084 00ef 3B       		.uleb128 0x3b
 3085 00f0 0B       		.uleb128 0xb
 3086 00f1 01       		.uleb128 0x1
 3087 00f2 13       		.uleb128 0x13
 3088 00f3 00       		.byte	0
 3089 00f4 00       		.byte	0
 3090 00f5 15       		.uleb128 0x15
 3091 00f6 0D       		.uleb128 0xd
 3092 00f7 00       		.byte	0
 3093 00f8 03       		.uleb128 0x3
 3094 00f9 0E       		.uleb128 0xe
 3095 00fa 3A       		.uleb128 0x3a
 3096 00fb 0B       		.uleb128 0xb
 3097 00fc 3B       		.uleb128 0x3b
 3098 00fd 0B       		.uleb128 0xb
 3099 00fe 49       		.uleb128 0x49
 3100 00ff 13       		.uleb128 0x13
 3101 0100 38       		.uleb128 0x38
 3102 0101 0A       		.uleb128 0xa
 3103 0102 32       		.uleb128 0x32
 3104 0103 0B       		.uleb128 0xb
 3105 0104 00       		.byte	0
 3106 0105 00       		.byte	0
 3107 0106 16       		.uleb128 0x16
 3108 0107 2E       		.uleb128 0x2e
 3109 0108 01       		.byte	0x1
 3110 0109 3F       		.uleb128 0x3f
 3111 010a 0C       		.uleb128 0xc
 3112 010b 03       		.uleb128 0x3
 3113 010c 0E       		.uleb128 0xe
 3114 010d 3A       		.uleb128 0x3a
 3115 010e 0B       		.uleb128 0xb
 3116 010f 3B       		.uleb128 0x3b
 3117 0110 0B       		.uleb128 0xb
 3118 0111 49       		.uleb128 0x49
 3119 0112 13       		.uleb128 0x13
 3120 0113 3C       		.uleb128 0x3c
 3121 0114 0C       		.uleb128 0xc
 3122 0115 64       		.uleb128 0x64
 3123 0116 13       		.uleb128 0x13
 3124 0117 01       		.uleb128 0x1
 3125 0118 13       		.uleb128 0x13
 3126 0119 00       		.byte	0
 3127 011a 00       		.byte	0
 3128 011b 17       		.uleb128 0x17
ARM GAS  /tmp/ccIZ6SY6.s 			page 56


 3129 011c 05       		.uleb128 0x5
 3130 011d 00       		.byte	0
 3131 011e 49       		.uleb128 0x49
 3132 011f 13       		.uleb128 0x13
 3133 0120 34       		.uleb128 0x34
 3134 0121 0C       		.uleb128 0xc
 3135 0122 00       		.byte	0
 3136 0123 00       		.byte	0
 3137 0124 18       		.uleb128 0x18
 3138 0125 2E       		.uleb128 0x2e
 3139 0126 01       		.byte	0x1
 3140 0127 3F       		.uleb128 0x3f
 3141 0128 0C       		.uleb128 0xc
 3142 0129 03       		.uleb128 0x3
 3143 012a 0E       		.uleb128 0xe
 3144 012b 3A       		.uleb128 0x3a
 3145 012c 0B       		.uleb128 0xb
 3146 012d 3B       		.uleb128 0x3b
 3147 012e 0B       		.uleb128 0xb
 3148 012f 8740     		.uleb128 0x2007
 3149 0131 0E       		.uleb128 0xe
 3150 0132 3C       		.uleb128 0x3c
 3151 0133 0C       		.uleb128 0xc
 3152 0134 64       		.uleb128 0x64
 3153 0135 13       		.uleb128 0x13
 3154 0136 01       		.uleb128 0x1
 3155 0137 13       		.uleb128 0x13
 3156 0138 00       		.byte	0
 3157 0139 00       		.byte	0
 3158 013a 19       		.uleb128 0x19
 3159 013b 2E       		.uleb128 0x2e
 3160 013c 01       		.byte	0x1
 3161 013d 3F       		.uleb128 0x3f
 3162 013e 0C       		.uleb128 0xc
 3163 013f 03       		.uleb128 0x3
 3164 0140 0E       		.uleb128 0xe
 3165 0141 3A       		.uleb128 0x3a
 3166 0142 0B       		.uleb128 0xb
 3167 0143 3B       		.uleb128 0x3b
 3168 0144 0B       		.uleb128 0xb
 3169 0145 8740     		.uleb128 0x2007
 3170 0147 0E       		.uleb128 0xe
 3171 0148 49       		.uleb128 0x49
 3172 0149 13       		.uleb128 0x13
 3173 014a 3C       		.uleb128 0x3c
 3174 014b 0C       		.uleb128 0xc
 3175 014c 64       		.uleb128 0x64
 3176 014d 13       		.uleb128 0x13
 3177 014e 01       		.uleb128 0x1
 3178 014f 13       		.uleb128 0x13
 3179 0150 00       		.byte	0
 3180 0151 00       		.byte	0
 3181 0152 1A       		.uleb128 0x1a
 3182 0153 2E       		.uleb128 0x2e
 3183 0154 01       		.byte	0x1
 3184 0155 3F       		.uleb128 0x3f
 3185 0156 0C       		.uleb128 0xc
ARM GAS  /tmp/ccIZ6SY6.s 			page 57


 3186 0157 03       		.uleb128 0x3
 3187 0158 0E       		.uleb128 0xe
 3188 0159 3A       		.uleb128 0x3a
 3189 015a 0B       		.uleb128 0xb
 3190 015b 3B       		.uleb128 0x3b
 3191 015c 0B       		.uleb128 0xb
 3192 015d 8740     		.uleb128 0x2007
 3193 015f 0E       		.uleb128 0xe
 3194 0160 3C       		.uleb128 0x3c
 3195 0161 0C       		.uleb128 0xc
 3196 0162 64       		.uleb128 0x64
 3197 0163 13       		.uleb128 0x13
 3198 0164 00       		.byte	0
 3199 0165 00       		.byte	0
 3200 0166 1B       		.uleb128 0x1b
 3201 0167 2E       		.uleb128 0x2e
 3202 0168 01       		.byte	0x1
 3203 0169 3F       		.uleb128 0x3f
 3204 016a 0C       		.uleb128 0xc
 3205 016b 03       		.uleb128 0x3
 3206 016c 08       		.uleb128 0x8
 3207 016d 3A       		.uleb128 0x3a
 3208 016e 0B       		.uleb128 0xb
 3209 016f 3B       		.uleb128 0x3b
 3210 0170 0B       		.uleb128 0xb
 3211 0171 8740     		.uleb128 0x2007
 3212 0173 0E       		.uleb128 0xe
 3213 0174 49       		.uleb128 0x49
 3214 0175 13       		.uleb128 0x13
 3215 0176 3C       		.uleb128 0x3c
 3216 0177 0C       		.uleb128 0xc
 3217 0178 64       		.uleb128 0x64
 3218 0179 13       		.uleb128 0x13
 3219 017a 01       		.uleb128 0x1
 3220 017b 13       		.uleb128 0x13
 3221 017c 00       		.byte	0
 3222 017d 00       		.byte	0
 3223 017e 1C       		.uleb128 0x1c
 3224 017f 2E       		.uleb128 0x2e
 3225 0180 01       		.byte	0x1
 3226 0181 3F       		.uleb128 0x3f
 3227 0182 0C       		.uleb128 0xc
 3228 0183 03       		.uleb128 0x3
 3229 0184 0E       		.uleb128 0xe
 3230 0185 3A       		.uleb128 0x3a
 3231 0186 0B       		.uleb128 0xb
 3232 0187 3B       		.uleb128 0x3b
 3233 0188 0B       		.uleb128 0xb
 3234 0189 8740     		.uleb128 0x2007
 3235 018b 0E       		.uleb128 0xe
 3236 018c 49       		.uleb128 0x49
 3237 018d 13       		.uleb128 0x13
 3238 018e 3C       		.uleb128 0x3c
 3239 018f 0C       		.uleb128 0xc
 3240 0190 64       		.uleb128 0x64
 3241 0191 13       		.uleb128 0x13
 3242 0192 00       		.byte	0
ARM GAS  /tmp/ccIZ6SY6.s 			page 58


 3243 0193 00       		.byte	0
 3244 0194 1D       		.uleb128 0x1d
 3245 0195 1C       		.uleb128 0x1c
 3246 0196 00       		.byte	0
 3247 0197 49       		.uleb128 0x49
 3248 0198 13       		.uleb128 0x13
 3249 0199 38       		.uleb128 0x38
 3250 019a 0A       		.uleb128 0xa
 3251 019b 32       		.uleb128 0x32
 3252 019c 0B       		.uleb128 0xb
 3253 019d 00       		.byte	0
 3254 019e 00       		.byte	0
 3255 019f 1E       		.uleb128 0x1e
 3256 01a0 0D       		.uleb128 0xd
 3257 01a1 00       		.byte	0
 3258 01a2 03       		.uleb128 0x3
 3259 01a3 08       		.uleb128 0x8
 3260 01a4 3A       		.uleb128 0x3a
 3261 01a5 0B       		.uleb128 0xb
 3262 01a6 3B       		.uleb128 0x3b
 3263 01a7 0B       		.uleb128 0xb
 3264 01a8 49       		.uleb128 0x49
 3265 01a9 13       		.uleb128 0x13
 3266 01aa 38       		.uleb128 0x38
 3267 01ab 0A       		.uleb128 0xa
 3268 01ac 32       		.uleb128 0x32
 3269 01ad 0B       		.uleb128 0xb
 3270 01ae 00       		.byte	0
 3271 01af 00       		.byte	0
 3272 01b0 1F       		.uleb128 0x1f
 3273 01b1 2E       		.uleb128 0x2e
 3274 01b2 01       		.byte	0x1
 3275 01b3 3F       		.uleb128 0x3f
 3276 01b4 0C       		.uleb128 0xc
 3277 01b5 03       		.uleb128 0x3
 3278 01b6 08       		.uleb128 0x8
 3279 01b7 3A       		.uleb128 0x3a
 3280 01b8 0B       		.uleb128 0xb
 3281 01b9 3B       		.uleb128 0x3b
 3282 01ba 0B       		.uleb128 0xb
 3283 01bb 8740     		.uleb128 0x2007
 3284 01bd 0E       		.uleb128 0xe
 3285 01be 3C       		.uleb128 0x3c
 3286 01bf 0C       		.uleb128 0xc
 3287 01c0 64       		.uleb128 0x64
 3288 01c1 13       		.uleb128 0x13
 3289 01c2 01       		.uleb128 0x1
 3290 01c3 13       		.uleb128 0x13
 3291 01c4 00       		.byte	0
 3292 01c5 00       		.byte	0
 3293 01c6 20       		.uleb128 0x20
 3294 01c7 2E       		.uleb128 0x2e
 3295 01c8 01       		.byte	0x1
 3296 01c9 3F       		.uleb128 0x3f
 3297 01ca 0C       		.uleb128 0xc
 3298 01cb 03       		.uleb128 0x3
 3299 01cc 08       		.uleb128 0x8
ARM GAS  /tmp/ccIZ6SY6.s 			page 59


 3300 01cd 3A       		.uleb128 0x3a
 3301 01ce 0B       		.uleb128 0xb
 3302 01cf 3B       		.uleb128 0x3b
 3303 01d0 0B       		.uleb128 0xb
 3304 01d1 8740     		.uleb128 0x2007
 3305 01d3 0E       		.uleb128 0xe
 3306 01d4 49       		.uleb128 0x49
 3307 01d5 13       		.uleb128 0x13
 3308 01d6 3C       		.uleb128 0x3c
 3309 01d7 0C       		.uleb128 0xc
 3310 01d8 64       		.uleb128 0x64
 3311 01d9 13       		.uleb128 0x13
 3312 01da 00       		.byte	0
 3313 01db 00       		.byte	0
 3314 01dc 21       		.uleb128 0x21
 3315 01dd 13       		.uleb128 0x13
 3316 01de 01       		.byte	0x1
 3317 01df 0B       		.uleb128 0xb
 3318 01e0 0B       		.uleb128 0xb
 3319 01e1 3A       		.uleb128 0x3a
 3320 01e2 0B       		.uleb128 0xb
 3321 01e3 3B       		.uleb128 0x3b
 3322 01e4 0B       		.uleb128 0xb
 3323 01e5 01       		.uleb128 0x1
 3324 01e6 13       		.uleb128 0x13
 3325 01e7 00       		.byte	0
 3326 01e8 00       		.byte	0
 3327 01e9 22       		.uleb128 0x22
 3328 01ea 0D       		.uleb128 0xd
 3329 01eb 00       		.byte	0
 3330 01ec 49       		.uleb128 0x49
 3331 01ed 13       		.uleb128 0x13
 3332 01ee 00       		.byte	0
 3333 01ef 00       		.byte	0
 3334 01f0 23       		.uleb128 0x23
 3335 01f1 0D       		.uleb128 0xd
 3336 01f2 00       		.byte	0
 3337 01f3 49       		.uleb128 0x49
 3338 01f4 13       		.uleb128 0x13
 3339 01f5 38       		.uleb128 0x38
 3340 01f6 0A       		.uleb128 0xa
 3341 01f7 00       		.byte	0
 3342 01f8 00       		.byte	0
 3343 01f9 24       		.uleb128 0x24
 3344 01fa 0D       		.uleb128 0xd
 3345 01fb 00       		.byte	0
 3346 01fc 03       		.uleb128 0x3
 3347 01fd 0E       		.uleb128 0xe
 3348 01fe 3A       		.uleb128 0x3a
 3349 01ff 0B       		.uleb128 0xb
 3350 0200 3B       		.uleb128 0x3b
 3351 0201 0B       		.uleb128 0xb
 3352 0202 49       		.uleb128 0x49
 3353 0203 13       		.uleb128 0x13
 3354 0204 0B       		.uleb128 0xb
 3355 0205 0B       		.uleb128 0xb
 3356 0206 0D       		.uleb128 0xd
ARM GAS  /tmp/ccIZ6SY6.s 			page 60


 3357 0207 0B       		.uleb128 0xb
 3358 0208 0C       		.uleb128 0xc
 3359 0209 0B       		.uleb128 0xb
 3360 020a 38       		.uleb128 0x38
 3361 020b 0A       		.uleb128 0xa
 3362 020c 00       		.byte	0
 3363 020d 00       		.byte	0
 3364 020e 25       		.uleb128 0x25
 3365 020f 15       		.uleb128 0x15
 3366 0210 01       		.byte	0x1
 3367 0211 01       		.uleb128 0x1
 3368 0212 13       		.uleb128 0x13
 3369 0213 00       		.byte	0
 3370 0214 00       		.byte	0
 3371 0215 26       		.uleb128 0x26
 3372 0216 04       		.uleb128 0x4
 3373 0217 01       		.byte	0x1
 3374 0218 0B       		.uleb128 0xb
 3375 0219 0B       		.uleb128 0xb
 3376 021a 3A       		.uleb128 0x3a
 3377 021b 0B       		.uleb128 0xb
 3378 021c 3B       		.uleb128 0x3b
 3379 021d 0B       		.uleb128 0xb
 3380 021e 8740     		.uleb128 0x2007
 3381 0220 0E       		.uleb128 0xe
 3382 0221 01       		.uleb128 0x1
 3383 0222 13       		.uleb128 0x13
 3384 0223 00       		.byte	0
 3385 0224 00       		.byte	0
 3386 0225 27       		.uleb128 0x27
 3387 0226 28       		.uleb128 0x28
 3388 0227 00       		.byte	0
 3389 0228 03       		.uleb128 0x3
 3390 0229 0E       		.uleb128 0xe
 3391 022a 1C       		.uleb128 0x1c
 3392 022b 0D       		.uleb128 0xd
 3393 022c 00       		.byte	0
 3394 022d 00       		.byte	0
 3395 022e 28       		.uleb128 0x28
 3396 022f 10       		.uleb128 0x10
 3397 0230 00       		.byte	0
 3398 0231 0B       		.uleb128 0xb
 3399 0232 0B       		.uleb128 0xb
 3400 0233 49       		.uleb128 0x49
 3401 0234 13       		.uleb128 0x13
 3402 0235 00       		.byte	0
 3403 0236 00       		.byte	0
 3404 0237 29       		.uleb128 0x29
 3405 0238 2E       		.uleb128 0x2e
 3406 0239 01       		.byte	0x1
 3407 023a 47       		.uleb128 0x47
 3408 023b 13       		.uleb128 0x13
 3409 023c 3A       		.uleb128 0x3a
 3410 023d 0B       		.uleb128 0xb
 3411 023e 3B       		.uleb128 0x3b
 3412 023f 0B       		.uleb128 0xb
 3413 0240 20       		.uleb128 0x20
ARM GAS  /tmp/ccIZ6SY6.s 			page 61


 3414 0241 0B       		.uleb128 0xb
 3415 0242 64       		.uleb128 0x64
 3416 0243 13       		.uleb128 0x13
 3417 0244 01       		.uleb128 0x1
 3418 0245 13       		.uleb128 0x13
 3419 0246 00       		.byte	0
 3420 0247 00       		.byte	0
 3421 0248 2A       		.uleb128 0x2a
 3422 0249 05       		.uleb128 0x5
 3423 024a 00       		.byte	0
 3424 024b 03       		.uleb128 0x3
 3425 024c 0E       		.uleb128 0xe
 3426 024d 49       		.uleb128 0x49
 3427 024e 13       		.uleb128 0x13
 3428 024f 34       		.uleb128 0x34
 3429 0250 0C       		.uleb128 0xc
 3430 0251 00       		.byte	0
 3431 0252 00       		.byte	0
 3432 0253 2B       		.uleb128 0x2b
 3433 0254 05       		.uleb128 0x5
 3434 0255 00       		.byte	0
 3435 0256 03       		.uleb128 0x3
 3436 0257 0E       		.uleb128 0xe
 3437 0258 3A       		.uleb128 0x3a
 3438 0259 0B       		.uleb128 0xb
 3439 025a 3B       		.uleb128 0x3b
 3440 025b 0B       		.uleb128 0xb
 3441 025c 49       		.uleb128 0x49
 3442 025d 13       		.uleb128 0x13
 3443 025e 00       		.byte	0
 3444 025f 00       		.byte	0
 3445 0260 2C       		.uleb128 0x2c
 3446 0261 2E       		.uleb128 0x2e
 3447 0262 01       		.byte	0x1
 3448 0263 31       		.uleb128 0x31
 3449 0264 13       		.uleb128 0x13
 3450 0265 11       		.uleb128 0x11
 3451 0266 01       		.uleb128 0x1
 3452 0267 12       		.uleb128 0x12
 3453 0268 01       		.uleb128 0x1
 3454 0269 40       		.uleb128 0x40
 3455 026a 06       		.uleb128 0x6
 3456 026b 64       		.uleb128 0x64
 3457 026c 13       		.uleb128 0x13
 3458 026d 01       		.uleb128 0x1
 3459 026e 13       		.uleb128 0x13
 3460 026f 00       		.byte	0
 3461 0270 00       		.byte	0
 3462 0271 2D       		.uleb128 0x2d
 3463 0272 05       		.uleb128 0x5
 3464 0273 00       		.byte	0
 3465 0274 31       		.uleb128 0x31
 3466 0275 13       		.uleb128 0x13
 3467 0276 02       		.uleb128 0x2
 3468 0277 06       		.uleb128 0x6
 3469 0278 00       		.byte	0
 3470 0279 00       		.byte	0
ARM GAS  /tmp/ccIZ6SY6.s 			page 62


 3471 027a 2E       		.uleb128 0x2e
 3472 027b 2E       		.uleb128 0x2e
 3473 027c 01       		.byte	0x1
 3474 027d 47       		.uleb128 0x47
 3475 027e 13       		.uleb128 0x13
 3476 027f 3A       		.uleb128 0x3a
 3477 0280 0B       		.uleb128 0xb
 3478 0281 3B       		.uleb128 0x3b
 3479 0282 0B       		.uleb128 0xb
 3480 0283 11       		.uleb128 0x11
 3481 0284 01       		.uleb128 0x1
 3482 0285 12       		.uleb128 0x12
 3483 0286 01       		.uleb128 0x1
 3484 0287 40       		.uleb128 0x40
 3485 0288 0A       		.uleb128 0xa
 3486 0289 64       		.uleb128 0x64
 3487 028a 13       		.uleb128 0x13
 3488 028b 01       		.uleb128 0x1
 3489 028c 13       		.uleb128 0x13
 3490 028d 00       		.byte	0
 3491 028e 00       		.byte	0
 3492 028f 2F       		.uleb128 0x2f
 3493 0290 05       		.uleb128 0x5
 3494 0291 00       		.byte	0
 3495 0292 03       		.uleb128 0x3
 3496 0293 0E       		.uleb128 0xe
 3497 0294 49       		.uleb128 0x49
 3498 0295 13       		.uleb128 0x13
 3499 0296 34       		.uleb128 0x34
 3500 0297 0C       		.uleb128 0xc
 3501 0298 02       		.uleb128 0x2
 3502 0299 06       		.uleb128 0x6
 3503 029a 00       		.byte	0
 3504 029b 00       		.byte	0
 3505 029c 30       		.uleb128 0x30
 3506 029d 05       		.uleb128 0x5
 3507 029e 00       		.byte	0
 3508 029f 03       		.uleb128 0x3
 3509 02a0 0E       		.uleb128 0xe
 3510 02a1 49       		.uleb128 0x49
 3511 02a2 13       		.uleb128 0x13
 3512 02a3 34       		.uleb128 0x34
 3513 02a4 0C       		.uleb128 0xc
 3514 02a5 02       		.uleb128 0x2
 3515 02a6 0A       		.uleb128 0xa
 3516 02a7 00       		.byte	0
 3517 02a8 00       		.byte	0
 3518 02a9 31       		.uleb128 0x31
 3519 02aa 05       		.uleb128 0x5
 3520 02ab 00       		.byte	0
 3521 02ac 03       		.uleb128 0x3
 3522 02ad 0E       		.uleb128 0xe
 3523 02ae 3A       		.uleb128 0x3a
 3524 02af 0B       		.uleb128 0xb
 3525 02b0 3B       		.uleb128 0x3b
 3526 02b1 0B       		.uleb128 0xb
 3527 02b2 49       		.uleb128 0x49
ARM GAS  /tmp/ccIZ6SY6.s 			page 63


 3528 02b3 13       		.uleb128 0x13
 3529 02b4 02       		.uleb128 0x2
 3530 02b5 0A       		.uleb128 0xa
 3531 02b6 00       		.byte	0
 3532 02b7 00       		.byte	0
 3533 02b8 32       		.uleb128 0x32
 3534 02b9 2E       		.uleb128 0x2e
 3535 02ba 01       		.byte	0x1
 3536 02bb 47       		.uleb128 0x47
 3537 02bc 13       		.uleb128 0x13
 3538 02bd 3A       		.uleb128 0x3a
 3539 02be 0B       		.uleb128 0xb
 3540 02bf 3B       		.uleb128 0x3b
 3541 02c0 0B       		.uleb128 0xb
 3542 02c1 11       		.uleb128 0x11
 3543 02c2 01       		.uleb128 0x1
 3544 02c3 12       		.uleb128 0x12
 3545 02c4 01       		.uleb128 0x1
 3546 02c5 40       		.uleb128 0x40
 3547 02c6 06       		.uleb128 0x6
 3548 02c7 64       		.uleb128 0x64
 3549 02c8 13       		.uleb128 0x13
 3550 02c9 01       		.uleb128 0x1
 3551 02ca 13       		.uleb128 0x13
 3552 02cb 00       		.byte	0
 3553 02cc 00       		.byte	0
 3554 02cd 33       		.uleb128 0x33
 3555 02ce 05       		.uleb128 0x5
 3556 02cf 00       		.byte	0
 3557 02d0 03       		.uleb128 0x3
 3558 02d1 08       		.uleb128 0x8
 3559 02d2 3A       		.uleb128 0x3a
 3560 02d3 0B       		.uleb128 0xb
 3561 02d4 3B       		.uleb128 0x3b
 3562 02d5 0B       		.uleb128 0xb
 3563 02d6 49       		.uleb128 0x49
 3564 02d7 13       		.uleb128 0x13
 3565 02d8 02       		.uleb128 0x2
 3566 02d9 06       		.uleb128 0x6
 3567 02da 00       		.byte	0
 3568 02db 00       		.byte	0
 3569 02dc 34       		.uleb128 0x34
 3570 02dd 0B       		.uleb128 0xb
 3571 02de 01       		.byte	0x1
 3572 02df 55       		.uleb128 0x55
 3573 02e0 06       		.uleb128 0x6
 3574 02e1 00       		.byte	0
 3575 02e2 00       		.byte	0
 3576 02e3 35       		.uleb128 0x35
 3577 02e4 34       		.uleb128 0x34
 3578 02e5 00       		.byte	0
 3579 02e6 03       		.uleb128 0x3
 3580 02e7 0E       		.uleb128 0xe
 3581 02e8 3A       		.uleb128 0x3a
 3582 02e9 0B       		.uleb128 0xb
 3583 02ea 3B       		.uleb128 0x3b
 3584 02eb 0B       		.uleb128 0xb
ARM GAS  /tmp/ccIZ6SY6.s 			page 64


 3585 02ec 49       		.uleb128 0x49
 3586 02ed 13       		.uleb128 0x13
 3587 02ee 02       		.uleb128 0x2
 3588 02ef 06       		.uleb128 0x6
 3589 02f0 00       		.byte	0
 3590 02f1 00       		.byte	0
 3591 02f2 36       		.uleb128 0x36
 3592 02f3 34       		.uleb128 0x34
 3593 02f4 00       		.byte	0
 3594 02f5 03       		.uleb128 0x3
 3595 02f6 08       		.uleb128 0x8
 3596 02f7 3A       		.uleb128 0x3a
 3597 02f8 0B       		.uleb128 0xb
 3598 02f9 3B       		.uleb128 0x3b
 3599 02fa 0B       		.uleb128 0xb
 3600 02fb 49       		.uleb128 0x49
 3601 02fc 13       		.uleb128 0x13
 3602 02fd 02       		.uleb128 0x2
 3603 02fe 0A       		.uleb128 0xa
 3604 02ff 00       		.byte	0
 3605 0300 00       		.byte	0
 3606 0301 37       		.uleb128 0x37
 3607 0302 0B       		.uleb128 0xb
 3608 0303 01       		.byte	0x1
 3609 0304 11       		.uleb128 0x11
 3610 0305 01       		.uleb128 0x1
 3611 0306 12       		.uleb128 0x12
 3612 0307 01       		.uleb128 0x1
 3613 0308 01       		.uleb128 0x1
 3614 0309 13       		.uleb128 0x13
 3615 030a 00       		.byte	0
 3616 030b 00       		.byte	0
 3617 030c 38       		.uleb128 0x38
 3618 030d 34       		.uleb128 0x34
 3619 030e 00       		.byte	0
 3620 030f 03       		.uleb128 0x3
 3621 0310 08       		.uleb128 0x8
 3622 0311 3A       		.uleb128 0x3a
 3623 0312 0B       		.uleb128 0xb
 3624 0313 3B       		.uleb128 0x3b
 3625 0314 0B       		.uleb128 0xb
 3626 0315 49       		.uleb128 0x49
 3627 0316 13       		.uleb128 0x13
 3628 0317 02       		.uleb128 0x2
 3629 0318 06       		.uleb128 0x6
 3630 0319 00       		.byte	0
 3631 031a 00       		.byte	0
 3632 031b 39       		.uleb128 0x39
 3633 031c 0B       		.uleb128 0xb
 3634 031d 01       		.byte	0x1
 3635 031e 11       		.uleb128 0x11
 3636 031f 01       		.uleb128 0x1
 3637 0320 12       		.uleb128 0x12
 3638 0321 01       		.uleb128 0x1
 3639 0322 00       		.byte	0
 3640 0323 00       		.byte	0
 3641 0324 3A       		.uleb128 0x3a
ARM GAS  /tmp/ccIZ6SY6.s 			page 65


 3642 0325 05       		.uleb128 0x5
 3643 0326 00       		.byte	0
 3644 0327 03       		.uleb128 0x3
 3645 0328 0E       		.uleb128 0xe
 3646 0329 3A       		.uleb128 0x3a
 3647 032a 0B       		.uleb128 0xb
 3648 032b 3B       		.uleb128 0x3b
 3649 032c 0B       		.uleb128 0xb
 3650 032d 49       		.uleb128 0x49
 3651 032e 13       		.uleb128 0x13
 3652 032f 02       		.uleb128 0x2
 3653 0330 06       		.uleb128 0x6
 3654 0331 00       		.byte	0
 3655 0332 00       		.byte	0
 3656 0333 3B       		.uleb128 0x3b
 3657 0334 34       		.uleb128 0x34
 3658 0335 00       		.byte	0
 3659 0336 03       		.uleb128 0x3
 3660 0337 0E       		.uleb128 0xe
 3661 0338 3A       		.uleb128 0x3a
 3662 0339 0B       		.uleb128 0xb
 3663 033a 3B       		.uleb128 0x3b
 3664 033b 05       		.uleb128 0x5
 3665 033c 49       		.uleb128 0x49
 3666 033d 13       		.uleb128 0x13
 3667 033e 3F       		.uleb128 0x3f
 3668 033f 0C       		.uleb128 0xc
 3669 0340 3C       		.uleb128 0x3c
 3670 0341 0C       		.uleb128 0xc
 3671 0342 00       		.byte	0
 3672 0343 00       		.byte	0
 3673 0344 00       		.byte	0
 3674              		.section	.debug_loc,"",%progbits
 3675              	.Ldebug_loc0:
 3676              	.LLST0:
 3677 0000 00000000 		.4byte	.LFB81
 3678 0004 02000000 		.4byte	.LCFI0
 3679 0008 0200     		.2byte	0x2
 3680 000a 7D       		.byte	0x7d
 3681 000b 00       		.sleb128 0
 3682 000c 02000000 		.4byte	.LCFI0
 3683 0010 10000000 		.4byte	.LFE81
 3684 0014 0200     		.2byte	0x2
 3685 0016 7D       		.byte	0x7d
 3686 0017 08       		.sleb128 8
 3687 0018 00000000 		.4byte	0
 3688 001c 00000000 		.4byte	0
 3689              	.LLST1:
 3690 0020 00000000 		.4byte	.LVL0
 3691 0024 07000000 		.4byte	.LVL1-1
 3692 0028 0100     		.2byte	0x1
 3693 002a 50       		.byte	0x50
 3694 002b 07000000 		.4byte	.LVL1-1
 3695 002f 10000000 		.4byte	.LFE81
 3696 0033 0100     		.2byte	0x1
 3697 0035 54       		.byte	0x54
 3698 0036 00000000 		.4byte	0
ARM GAS  /tmp/ccIZ6SY6.s 			page 66


 3699 003a 00000000 		.4byte	0
 3700              	.LLST2:
 3701 003e 00000000 		.4byte	.LVL0
 3702 0042 07000000 		.4byte	.LVL1-1
 3703 0046 0100     		.2byte	0x1
 3704 0048 51       		.byte	0x51
 3705 0049 00000000 		.4byte	0
 3706 004d 00000000 		.4byte	0
 3707              	.LLST3:
 3708 0051 00000000 		.4byte	.LVL0
 3709 0055 07000000 		.4byte	.LVL1-1
 3710 0059 0100     		.2byte	0x1
 3711 005b 52       		.byte	0x52
 3712 005c 00000000 		.4byte	0
 3713 0060 00000000 		.4byte	0
 3714              	.LLST4:
 3715 0064 00000000 		.4byte	.LVL2
 3716 0068 02000000 		.4byte	.LVL3
 3717 006c 0100     		.2byte	0x1
 3718 006e 50       		.byte	0x50
 3719 006f 00000000 		.4byte	0
 3720 0073 00000000 		.4byte	0
 3721              	.LLST5:
 3722 0077 00000000 		.4byte	.LFB85
 3723 007b 02000000 		.4byte	.LCFI1
 3724 007f 0200     		.2byte	0x2
 3725 0081 7D       		.byte	0x7d
 3726 0082 00       		.sleb128 0
 3727 0083 02000000 		.4byte	.LCFI1
 3728 0087 08000000 		.4byte	.LCFI2
 3729 008b 0200     		.2byte	0x2
 3730 008d 7D       		.byte	0x7d
 3731 008e 0C       		.sleb128 12
 3732 008f 08000000 		.4byte	.LCFI2
 3733 0093 52000000 		.4byte	.LFE85
 3734 0097 0200     		.2byte	0x2
 3735 0099 7D       		.byte	0x7d
 3736 009a 20       		.sleb128 32
 3737 009b 00000000 		.4byte	0
 3738 009f 00000000 		.4byte	0
 3739              	.LLST6:
 3740 00a3 00000000 		.4byte	.LVL5
 3741 00a7 0A000000 		.4byte	.LVL6
 3742 00ab 0100     		.2byte	0x1
 3743 00ad 50       		.byte	0x50
 3744 00ae 0A000000 		.4byte	.LVL6
 3745 00b2 1B000000 		.4byte	.LVL11-1
 3746 00b6 0100     		.2byte	0x1
 3747 00b8 52       		.byte	0x52
 3748 00b9 00000000 		.4byte	0
 3749 00bd 00000000 		.4byte	0
 3750              	.LLST7:
 3751 00c1 00000000 		.4byte	.LVL5
 3752 00c5 1B000000 		.4byte	.LVL11-1
 3753 00c9 0100     		.2byte	0x1
 3754 00cb 51       		.byte	0x51
 3755 00cc 1B000000 		.4byte	.LVL11-1
ARM GAS  /tmp/ccIZ6SY6.s 			page 67


 3756 00d0 52000000 		.4byte	.LFE85
 3757 00d4 0100     		.2byte	0x1
 3758 00d6 55       		.byte	0x55
 3759 00d7 00000000 		.4byte	0
 3760 00db 00000000 		.4byte	0
 3761              	.LLST8:
 3762 00df 0A000000 		.4byte	.LVL6
 3763 00e3 1B000000 		.4byte	.LVL11-1
 3764 00e7 0200     		.2byte	0x2
 3765 00e9 72       		.byte	0x72
 3766 00ea 04       		.sleb128 4
 3767 00eb 1C000000 		.4byte	.LVL11
 3768 00ef 20000000 		.4byte	.LVL12
 3769 00f3 0200     		.2byte	0x2
 3770 00f5 91       		.byte	0x91
 3771 00f6 64       		.sleb128 -28
 3772 00f7 20000000 		.4byte	.LVL12
 3773 00fb 27000000 		.4byte	.LVL13-1
 3774 00ff 0100     		.2byte	0x1
 3775 0101 50       		.byte	0x50
 3776 0102 28000000 		.4byte	.LVL13
 3777 0106 2E000000 		.4byte	.LVL14
 3778 010a 0100     		.2byte	0x1
 3779 010c 50       		.byte	0x50
 3780 010d 00000000 		.4byte	0
 3781 0111 00000000 		.4byte	0
 3782              	.LLST9:
 3783 0115 0C000000 		.4byte	.LVL7
 3784 0119 1B000000 		.4byte	.LVL11-1
 3785 011d 0200     		.2byte	0x2
 3786 011f 72       		.byte	0x72
 3787 0120 08       		.sleb128 8
 3788 0121 1B000000 		.4byte	.LVL11-1
 3789 0125 3A000000 		.4byte	.LVL15
 3790 0129 0100     		.2byte	0x1
 3791 012b 54       		.byte	0x54
 3792 012c 3A000000 		.4byte	.LVL15
 3793 0130 3E000000 		.4byte	.LVL16
 3794 0134 0100     		.2byte	0x1
 3795 0136 50       		.byte	0x50
 3796 0137 3E000000 		.4byte	.LVL16
 3797 013b 52000000 		.4byte	.LFE85
 3798 013f 0100     		.2byte	0x1
 3799 0141 54       		.byte	0x54
 3800 0142 00000000 		.4byte	0
 3801 0146 00000000 		.4byte	0
 3802              	.LLST10:
 3803 014a 16000000 		.4byte	.LVL10
 3804 014e 1B000000 		.4byte	.LVL11-1
 3805 0152 0100     		.2byte	0x1
 3806 0154 53       		.byte	0x53
 3807 0155 00000000 		.4byte	0
 3808 0159 00000000 		.4byte	0
 3809              	.LLST11:
 3810 015d 4C000000 		.4byte	.LVL18
 3811 0161 52000000 		.4byte	.LFE85
 3812 0165 0100     		.2byte	0x1
ARM GAS  /tmp/ccIZ6SY6.s 			page 68


 3813 0167 53       		.byte	0x53
 3814 0168 00000000 		.4byte	0
 3815 016c 00000000 		.4byte	0
 3816              	.LLST12:
 3817 0170 00000000 		.4byte	.LFB86
 3818 0174 02000000 		.4byte	.LCFI3
 3819 0178 0200     		.2byte	0x2
 3820 017a 7D       		.byte	0x7d
 3821 017b 00       		.sleb128 0
 3822 017c 02000000 		.4byte	.LCFI3
 3823 0180 40000000 		.4byte	.LFE86
 3824 0184 0200     		.2byte	0x2
 3825 0186 7D       		.byte	0x7d
 3826 0187 10       		.sleb128 16
 3827 0188 00000000 		.4byte	0
 3828 018c 00000000 		.4byte	0
 3829              	.LLST13:
 3830 0190 00000000 		.4byte	.LVL19
 3831 0194 08000000 		.4byte	.LVL20
 3832 0198 0100     		.2byte	0x1
 3833 019a 50       		.byte	0x50
 3834 019b 08000000 		.4byte	.LVL20
 3835 019f 40000000 		.4byte	.LFE86
 3836 01a3 0100     		.2byte	0x1
 3837 01a5 54       		.byte	0x54
 3838 01a6 00000000 		.4byte	0
 3839 01aa 00000000 		.4byte	0
 3840              	.LLST14:
 3841 01ae 00000000 		.4byte	.LVL19
 3842 01b2 0C000000 		.4byte	.LVL21
 3843 01b6 0100     		.2byte	0x1
 3844 01b8 51       		.byte	0x51
 3845 01b9 0C000000 		.4byte	.LVL21
 3846 01bd 40000000 		.4byte	.LFE86
 3847 01c1 0100     		.2byte	0x1
 3848 01c3 55       		.byte	0x55
 3849 01c4 00000000 		.4byte	0
 3850 01c8 00000000 		.4byte	0
 3851              	.LLST15:
 3852 01cc 00000000 		.4byte	.LVL19
 3853 01d0 0C000000 		.4byte	.LVL21
 3854 01d4 0100     		.2byte	0x1
 3855 01d6 52       		.byte	0x52
 3856 01d7 2E000000 		.4byte	.LVL27
 3857 01db 36000000 		.4byte	.LVL28
 3858 01df 0100     		.2byte	0x1
 3859 01e1 52       		.byte	0x52
 3860 01e2 36000000 		.4byte	.LVL28
 3861 01e6 39000000 		.4byte	.LVL29-1
 3862 01ea 0100     		.2byte	0x1
 3863 01ec 51       		.byte	0x51
 3864 01ed 00000000 		.4byte	0
 3865 01f1 00000000 		.4byte	0
 3866              	.LLST16:
 3867 01f5 00000000 		.4byte	.LVL19
 3868 01f9 0C000000 		.4byte	.LVL21
 3869 01fd 0100     		.2byte	0x1
ARM GAS  /tmp/ccIZ6SY6.s 			page 69


 3870 01ff 53       		.byte	0x53
 3871 0200 2E000000 		.4byte	.LVL27
 3872 0204 39000000 		.4byte	.LVL29-1
 3873 0208 0100     		.2byte	0x1
 3874 020a 53       		.byte	0x53
 3875 020b 00000000 		.4byte	0
 3876 020f 00000000 		.4byte	0
 3877              	.LLST17:
 3878 0213 12000000 		.4byte	.LVL23
 3879 0217 15000000 		.4byte	.LVL24-1
 3880 021b 0100     		.2byte	0x1
 3881 021d 53       		.byte	0x53
 3882 021e 00000000 		.4byte	0
 3883 0222 00000000 		.4byte	0
 3884              	.LLST18:
 3885 0226 2C000000 		.4byte	.LVL26
 3886 022a 2E000000 		.4byte	.LVL27
 3887 022e 0100     		.2byte	0x1
 3888 0230 53       		.byte	0x53
 3889 0231 00000000 		.4byte	0
 3890 0235 00000000 		.4byte	0
 3891              	.LLST19:
 3892 0239 00000000 		.4byte	.LFB87
 3893 023d 02000000 		.4byte	.LCFI4
 3894 0241 0200     		.2byte	0x2
 3895 0243 7D       		.byte	0x7d
 3896 0244 00       		.sleb128 0
 3897 0245 02000000 		.4byte	.LCFI4
 3898 0249 40000000 		.4byte	.LFE87
 3899 024d 0200     		.2byte	0x2
 3900 024f 7D       		.byte	0x7d
 3901 0250 10       		.sleb128 16
 3902 0251 00000000 		.4byte	0
 3903 0255 00000000 		.4byte	0
 3904              	.LLST20:
 3905 0259 00000000 		.4byte	.LVL30
 3906 025d 08000000 		.4byte	.LVL31
 3907 0261 0100     		.2byte	0x1
 3908 0263 50       		.byte	0x50
 3909 0264 08000000 		.4byte	.LVL31
 3910 0268 40000000 		.4byte	.LFE87
 3911 026c 0100     		.2byte	0x1
 3912 026e 54       		.byte	0x54
 3913 026f 00000000 		.4byte	0
 3914 0273 00000000 		.4byte	0
 3915              	.LLST21:
 3916 0277 00000000 		.4byte	.LVL30
 3917 027b 0C000000 		.4byte	.LVL32
 3918 027f 0100     		.2byte	0x1
 3919 0281 51       		.byte	0x51
 3920 0282 0C000000 		.4byte	.LVL32
 3921 0286 40000000 		.4byte	.LFE87
 3922 028a 0100     		.2byte	0x1
 3923 028c 55       		.byte	0x55
 3924 028d 00000000 		.4byte	0
 3925 0291 00000000 		.4byte	0
 3926              	.LLST22:
ARM GAS  /tmp/ccIZ6SY6.s 			page 70


 3927 0295 00000000 		.4byte	.LVL30
 3928 0299 0C000000 		.4byte	.LVL32
 3929 029d 0100     		.2byte	0x1
 3930 029f 52       		.byte	0x52
 3931 02a0 2E000000 		.4byte	.LVL38
 3932 02a4 36000000 		.4byte	.LVL39
 3933 02a8 0100     		.2byte	0x1
 3934 02aa 52       		.byte	0x52
 3935 02ab 36000000 		.4byte	.LVL39
 3936 02af 39000000 		.4byte	.LVL40-1
 3937 02b3 0100     		.2byte	0x1
 3938 02b5 51       		.byte	0x51
 3939 02b6 00000000 		.4byte	0
 3940 02ba 00000000 		.4byte	0
 3941              	.LLST23:
 3942 02be 00000000 		.4byte	.LVL30
 3943 02c2 0C000000 		.4byte	.LVL32
 3944 02c6 0100     		.2byte	0x1
 3945 02c8 53       		.byte	0x53
 3946 02c9 2E000000 		.4byte	.LVL38
 3947 02cd 39000000 		.4byte	.LVL40-1
 3948 02d1 0100     		.2byte	0x1
 3949 02d3 53       		.byte	0x53
 3950 02d4 00000000 		.4byte	0
 3951 02d8 00000000 		.4byte	0
 3952              	.LLST24:
 3953 02dc 12000000 		.4byte	.LVL34
 3954 02e0 15000000 		.4byte	.LVL35-1
 3955 02e4 0100     		.2byte	0x1
 3956 02e6 53       		.byte	0x53
 3957 02e7 00000000 		.4byte	0
 3958 02eb 00000000 		.4byte	0
 3959              	.LLST25:
 3960 02ef 2C000000 		.4byte	.LVL37
 3961 02f3 2E000000 		.4byte	.LVL38
 3962 02f7 0100     		.2byte	0x1
 3963 02f9 53       		.byte	0x53
 3964 02fa 00000000 		.4byte	0
 3965 02fe 00000000 		.4byte	0
 3966              		.section	.debug_aranges,"",%progbits
 3967 0000 44000000 		.4byte	0x44
 3968 0004 0200     		.2byte	0x2
 3969 0006 00000000 		.4byte	.Ldebug_info0
 3970 000a 04       		.byte	0x4
 3971 000b 00       		.byte	0
 3972 000c 0000     		.2byte	0
 3973 000e 0000     		.2byte	0
 3974 0010 00000000 		.4byte	.LFB81
 3975 0014 10000000 		.4byte	.LFE81-.LFB81
 3976 0018 00000000 		.4byte	.LFB83
 3977 001c 04000000 		.4byte	.LFE83-.LFB83
 3978 0020 00000000 		.4byte	.LFB84
 3979 0024 04000000 		.4byte	.LFE84-.LFB84
 3980 0028 00000000 		.4byte	.LFB85
 3981 002c 52000000 		.4byte	.LFE85-.LFB85
 3982 0030 00000000 		.4byte	.LFB86
 3983 0034 40000000 		.4byte	.LFE86-.LFB86
ARM GAS  /tmp/ccIZ6SY6.s 			page 71


 3984 0038 00000000 		.4byte	.LFB87
 3985 003c 40000000 		.4byte	.LFE87-.LFB87
 3986 0040 00000000 		.4byte	0
 3987 0044 00000000 		.4byte	0
 3988              		.section	.debug_ranges,"",%progbits
 3989              	.Ldebug_ranges0:
 3990 0000 04000000 		.4byte	.LBB3
 3991 0004 06000000 		.4byte	.LBE3
 3992 0008 08000000 		.4byte	.LBB8
 3993 000c 0E000000 		.4byte	.LBE8
 3994 0010 10000000 		.4byte	.LBB9
 3995 0014 4C000000 		.4byte	.LBE9
 3996 0018 00000000 		.4byte	0
 3997 001c 00000000 		.4byte	0
 3998 0020 00000000 		.4byte	.LFB81
 3999 0024 10000000 		.4byte	.LFE81
 4000 0028 00000000 		.4byte	.LFB83
 4001 002c 04000000 		.4byte	.LFE83
 4002 0030 00000000 		.4byte	.LFB84
 4003 0034 04000000 		.4byte	.LFE84
 4004 0038 00000000 		.4byte	.LFB85
 4005 003c 52000000 		.4byte	.LFE85
 4006 0040 00000000 		.4byte	.LFB86
 4007 0044 40000000 		.4byte	.LFE86
 4008 0048 00000000 		.4byte	.LFB87
 4009 004c 40000000 		.4byte	.LFE87
 4010 0050 00000000 		.4byte	0
 4011 0054 00000000 		.4byte	0
 4012              		.section	.debug_line,"",%progbits
 4013              	.Ldebug_line0:
 4014 0000 B6030000 		.section	.debug_str,"MS",%progbits,1
 4014      02002303 
 4014      00000201 
 4014      FB0E0D00 
 4014      01010101 
 4015              	.LASF82:
 4016 0000 5F5A4E31 		.ascii	"_ZN11BaseMessage11dereferenceEv\000"
 4016      31426173 
 4016      654D6573 
 4016      73616765 
 4016      31316465 
 4017              	.LASF148:
 4018 0020 5F5A4E31 		.ascii	"_ZN14LocalPublisher9subscribeEP16RemoteSubscriberPv"
 4018      344C6F63 
 4018      616C5075 
 4018      626C6973 
 4018      68657239 
 4019 0053 6A506D00 		.ascii	"jPm\000"
 4020              	.LASF178:
 4021 0057 5F5A4E31 		.ascii	"_ZN14BaseSubscriber8releaseIEP11BaseMessage\000"
 4021      34426173 
 4021      65537562 
 4021      73637269 
 4021      62657238 
 4022              	.LASF2:
 4023 0083 73697A65 		.ascii	"size_t\000"
 4023      5F7400
ARM GAS  /tmp/ccIZ6SY6.s 			page 72


 4024              	.LASF86:
 4025 008a 67657449 		.ascii	"getI\000"
 4025      00
 4026              	.LASF26:
 4027 008f 7264796D 		.ascii	"rdymsg\000"
 4027      736700
 4028              	.LASF74:
 4029 0096 5F726566 		.ascii	"_ref_count\000"
 4029      5F636F75 
 4029      6E7400
 4030              	.LASF191:
 4031 00a1 726E6578 		.ascii	"rnext\000"
 4031      7400
 4032              	.LASF71:
 4033 00a7 42617365 		.ascii	"BaseMessage\000"
 4033      4D657373 
 4033      61676500 
 4034              	.LASF133:
 4035 00b3 52656D6F 		.ascii	"RemoteSubscriber\000"
 4035      74655375 
 4035      62736372 
 4035      69626572 
 4035      00
 4036              	.LASF65:
 4037 00c4 31304D65 		.ascii	"10MemoryPool\000"
 4037      6D6F7279 
 4037      506F6F6C 
 4037      00
 4038              	.LASF152:
 4039 00d1 70657269 		.ascii	"period\000"
 4039      6F6400
 4040              	.LASF62:
 4041 00d8 6D656D67 		.ascii	"memgetfunc_t\000"
 4041      65746675 
 4041      6E635F74 
 4041      00
 4042              	.LASF102:
 4043 00e5 616C6C6F 		.ascii	"allocI\000"
 4043      634900
 4044              	.LASF14:
 4045 00ec 6C6F6E67 		.ascii	"long long unsigned int\000"
 4045      206C6F6E 
 4045      6720756E 
 4045      7369676E 
 4045      65642069 
 4046              	.LASF161:
 4047 0103 52544341 		.ascii	"RTCAN_MSG_ONAIR\000"
 4047      4E5F4D53 
 4047      475F4F4E 
 4047      41495200 
 4048              	.LASF27:
 4049 0113 65786974 		.ascii	"exitcode\000"
 4049      636F6465 
 4049      00
 4050              	.LASF196:
 4051 011c 63686962 		.ascii	"chibios_rt\000"
 4051      696F735F 
ARM GAS  /tmp/ccIZ6SY6.s 			page 73


 4051      727400
 4052              	.LASF142:
 4053 0127 4C6F6361 		.ascii	"LocalPublisher\000"
 4053      6C507562 
 4053      6C697368 
 4053      657200
 4054              	.LASF146:
 4055 0136 5F5A4E31 		.ascii	"_ZN14LocalPublisher9broadcastEP11BaseMessage\000"
 4055      344C6F63 
 4055      616C5075 
 4055      626C6973 
 4055      68657239 
 4056              	.LASF199:
 4057 0163 49544D5F 		.ascii	"ITM_RxBuffer\000"
 4057      52784275 
 4057      66666572 
 4057      00
 4058              	.LASF88:
 4059 0170 5F5A4E31 		.ascii	"_ZN12MessageQueue3getEv\000"
 4059      324D6573 
 4059      73616765 
 4059      51756575 
 4059      65336765 
 4060              	.LASF118:
 4061 0188 6E657874 		.ascii	"next\000"
 4061      00
 4062              	.LASF97:
 4063 018d 5F706F6F 		.ascii	"_pool\000"
 4063      6C00
 4064              	.LASF32:
 4065 0193 705F7072 		.ascii	"p_prio\000"
 4065      696F00
 4066              	.LASF171:
 4067 019a 5F5A4E31 		.ascii	"_ZN14BaseSubscriber5topicEv\000"
 4067      34426173 
 4067      65537562 
 4067      73637269 
 4067      62657235 
 4068              	.LASF12:
 4069 01b6 6C6F6E67 		.ascii	"long long int\000"
 4069      206C6F6E 
 4069      6720696E 
 4069      7400
 4070              	.LASF1:
 4071 01c4 7369676E 		.ascii	"signed char\000"
 4071      65642063 
 4071      68617200 
 4072              	.LASF126:
 4073 01d0 73756273 		.ascii	"subscribe\000"
 4073      63726962 
 4073      6500
 4074              	.LASF104:
 4075 01da 72656C65 		.ascii	"release\000"
 4075      61736500 
 4076              	.LASF68:
 4077 01e2 6D705F70 		.ascii	"mp_provider\000"
 4077      726F7669 
ARM GAS  /tmp/ccIZ6SY6.s 			page 74


 4077      64657200 
 4078              	.LASF111:
 4079 01ee 5F5A4E31 		.ascii	"_ZN11BaseMessage5resetEv\000"
 4079      31426173 
 4079      654D6573 
 4079      73616765 
 4079      35726573 
 4080              	.LASF15:
 4081 0207 626F6F6C 		.ascii	"bool_t\000"
 4081      5F7400
 4082              	.LASF59:
 4083 020e 6D5F7175 		.ascii	"m_queue\000"
 4083      65756500 
 4084              	.LASF140:
 4085 0216 5F5A4E31 		.ascii	"_ZN16RemoteSubscriber2idEt\000"
 4085      3652656D 
 4085      6F746553 
 4085      75627363 
 4085      72696265 
 4086              	.LASF141:
 4087 0231 5F5A4E31 		.ascii	"_ZN16RemoteSubscriber2idEv\000"
 4087      3652656D 
 4087      6F746553 
 4087      75627363 
 4087      72696265 
 4088              	.LASF20:
 4089 024c 74736C69 		.ascii	"tslices_t\000"
 4089      6365735F 
 4089      7400
 4090              	.LASF52:
 4091 0256 31315468 		.ascii	"11ThreadsList\000"
 4091      72656164 
 4091      734C6973 
 4091      7400
 4092              	.LASF145:
 4093 0264 62726F61 		.ascii	"broadcast\000"
 4093      64636173 
 4093      7400
 4094              	.LASF9:
 4095 026e 6C6F6E67 		.ascii	"long int\000"
 4095      20696E74 
 4095      00
 4096              	.LASF135:
 4097 0277 5F5A4E31 		.ascii	"_ZN16RemoteSubscriber4nextEPS_\000"
 4097      3652656D 
 4097      6F746553 
 4097      75627363 
 4097      72696265 
 4098              	.LASF94:
 4099 0296 5F746F70 		.ascii	"_topic\000"
 4099      696300
 4100              	.LASF129:
 4101 029d 5F5A4E31 		.ascii	"_ZN15LocalSubscriber11unsubscribeEv\000"
 4101      354C6F63 
 4101      616C5375 
 4101      62736372 
 4101      69626572 
ARM GAS  /tmp/ccIZ6SY6.s 			page 75


 4102              	.LASF195:
 4103 02c1 2F686F6D 		.ascii	"/home/tino/workspace/openrobots/R2P_IR_module/fw\000"
 4103      652F7469 
 4103      6E6F2F77 
 4103      6F726B73 
 4103      70616365 
 4104              	.LASF98:
 4105 02f2 746F7069 		.ascii	"topic\000"
 4105      6300
 4106              	.LASF124:
 4107 02f8 5F5A4E31 		.ascii	"_ZN15LocalSubscriber6notifyEP11BaseMessage\000"
 4107      354C6F63 
 4107      616C5375 
 4107      62736372 
 4107      69626572 
 4108              	.LASF169:
 4109 0323 5F717565 		.ascii	"_queue\000"
 4109      756500
 4110              	.LASF75:
 4111 032a 5F627566 		.ascii	"_buffer\000"
 4111      66657200 
 4112              	.LASF137:
 4113 0332 5F5A4E31 		.ascii	"_ZN16RemoteSubscriber6notifyEP11BaseMessage\000"
 4113      3652656D 
 4113      6F746553 
 4113      75627363 
 4113      72696265 
 4114              	.LASF6:
 4115 035e 75696E74 		.ascii	"uint16_t\000"
 4115      31365F74 
 4115      00
 4116              	.LASF42:
 4117 0367 705F7469 		.ascii	"p_time\000"
 4117      6D6500
 4118              	.LASF95:
 4119 036e 5F737562 		.ascii	"_subscribers\000"
 4119      73637269 
 4119      62657273 
 4119      00
 4120              	.LASF18:
 4121 037b 74737461 		.ascii	"tstate_t\000"
 4121      74655F74 
 4121      00
 4122              	.LASF190:
 4123 0384 74686973 		.ascii	"this\000"
 4123      00
 4124              	.LASF34:
 4125 0389 705F6E65 		.ascii	"p_newer\000"
 4125      77657200 
 4126              	.LASF105:
 4127 0391 5F5A4E31 		.ascii	"_ZN13BasePublisher7releaseEP11BaseMessage\000"
 4127      33426173 
 4127      65507562 
 4127      6C697368 
 4127      65723772 
 4128              	.LASF176:
 4129 03bb 5F5A4E31 		.ascii	"_ZN14BaseSubscriber3getEv\000"
ARM GAS  /tmp/ccIZ6SY6.s 			page 76


 4129      34426173 
 4129      65537562 
 4129      73637269 
 4129      62657233 
 4130              	.LASF184:
 4131 03d5 62726F61 		.ascii	"broadcastI\000"
 4131      64636173 
 4131      744900
 4132              	.LASF49:
 4133 03e0 705F6D70 		.ascii	"p_mpool\000"
 4133      6F6F6C00 
 4134              	.LASF54:
 4135 03e8 72656761 		.ascii	"regarm_t\000"
 4135      726D5F74 
 4135      00
 4136              	.LASF121:
 4137 03f1 6C696E6B 		.ascii	"link\000"
 4137      00
 4138              	.LASF198:
 4139 03f6 31377274 		.ascii	"17rtcan_msgstatus_t\000"
 4139      63616E5F 
 4139      6D736773 
 4139      74617475 
 4139      735F7400 
 4140              	.LASF110:
 4141 040a 72657365 		.ascii	"reset\000"
 4141      7400
 4142              	.LASF78:
 4143 0410 5F726561 		.ascii	"_read\000"
 4143      6400
 4144              	.LASF106:
 4145 0416 72656C65 		.ascii	"releaseI\000"
 4145      61736549 
 4145      00
 4146              	.LASF182:
 4147 041f 5F5A4E31 		.ascii	"_ZN15RemotePublisher4nextEv\000"
 4147      3552656D 
 4147      6F746550 
 4147      75626C69 
 4147      73686572 
 4148              	.LASF157:
 4149 043b 52544341 		.ascii	"RTCAN_MSG_UNINIT\000"
 4149      4E5F4D53 
 4149      475F554E 
 4149      494E4954 
 4149      00
 4150              	.LASF101:
 4151 044c 5F5A4E31 		.ascii	"_ZN13BasePublisher5allocEv\000"
 4151      33426173 
 4151      65507562 
 4151      6C697368 
 4151      65723561 
 4152              	.LASF37:
 4153 0467 705F7374 		.ascii	"p_stklimit\000"
 4153      6B6C696D 
 4153      697400
 4154              	.LASF0:
ARM GAS  /tmp/ccIZ6SY6.s 			page 77


 4155 0472 756E7369 		.ascii	"unsigned int\000"
 4155      676E6564 
 4155      20696E74 
 4155      00
 4156              	.LASF119:
 4157 047f 5F5A4E31 		.ascii	"_ZN15LocalSubscriber4nextEv\000"
 4157      354C6F63 
 4157      616C5375 
 4157      62736372 
 4157      69626572 
 4158              	.LASF167:
 4159 049b 5F6D7367 		.ascii	"_msg_size\000"
 4159      5F73697A 
 4159      6500
 4160              	.LASF92:
 4161 04a5 5F5A4E31 		.ascii	"_ZN12MessageQueue4putIEP11BaseMessage\000"
 4161      324D6573 
 4161      73616765 
 4161      51756575 
 4161      65347075 
 4162              	.LASF44:
 4163 04cb 705F6D73 		.ascii	"p_msgqueue\000"
 4163      67717565 
 4163      756500
 4164              	.LASF165:
 4165 04d6 63616C6C 		.ascii	"callback_t\000"
 4165      6261636B 
 4165      5F7400
 4166              	.LASF109:
 4167 04e1 5F5A4E31 		.ascii	"_ZN13BasePublisher11unsubscribeEP16RemoteSubscriber"
 4167      33426173 
 4167      65507562 
 4167      6C697368 
 4167      65723131 
 4168 0514 00       		.ascii	"\000"
 4169              	.LASF179:
 4170 0515 5F5A4E31 		.ascii	"_ZN14BaseSubscriber4sizeEv\000"
 4170      34426173 
 4170      65537562 
 4170      73637269 
 4170      62657234 
 4171              	.LASF166:
 4172 0530 42617365 		.ascii	"BaseSubscriber\000"
 4172      53756273 
 4172      63726962 
 4172      657200
 4173              	.LASF127:
 4174 053f 5F5A4E31 		.ascii	"_ZN15LocalSubscriber9subscribeEP14LocalPublisherm\000"
 4174      354C6F63 
 4174      616C5375 
 4174      62736372 
 4174      69626572 
 4175              	.LASF155:
 4176 0571 64617461 		.ascii	"data\000"
 4176      00
 4177              	.LASF81:
 4178 0576 73697A65 		.ascii	"size\000"
ARM GAS  /tmp/ccIZ6SY6.s 			page 78


 4178      00
 4179              	.LASF7:
 4180 057b 73686F72 		.ascii	"short unsigned int\000"
 4180      7420756E 
 4180      7369676E 
 4180      65642069 
 4180      6E7400
 4181              	.LASF83:
 4182 058e 5F5A4E31 		.ascii	"_ZN12MessageQueue4sizeEv\000"
 4182      324D6573 
 4182      73616765 
 4182      51756575 
 4182      65347369 
 4183              	.LASF22:
 4184 05a7 6D73675F 		.ascii	"msg_t\000"
 4184      7400
 4185              	.LASF174:
 4186 05ad 6C617374 		.ascii	"last\000"
 4186      00
 4187              	.LASF138:
 4188 05b2 5F5A4E31 		.ascii	"_ZN16RemoteSubscriber6notifyEP11BaseMessageRi\000"
 4188      3652656D 
 4188      6F746553 
 4188      75627363 
 4188      72696265 
 4189              	.LASF130:
 4190 05e0 63616C6C 		.ascii	"callback\000"
 4190      6261636B 
 4190      00
 4191              	.LASF151:
 4192 05e9 736C6F74 		.ascii	"slot\000"
 4192      00
 4193              	.LASF170:
 4194 05ee 616C6C6F 		.ascii	"alloc_flag\000"
 4194      635F666C 
 4194      616700
 4195              	.LASF16:
 4196 05f9 626F6F6C 		.ascii	"bool\000"
 4196      00
 4197              	.LASF53:
 4198 05fe 54687265 		.ascii	"ThreadsList\000"
 4198      6164734C 
 4198      69737400 
 4199              	.LASF23:
 4200 060a 6576656E 		.ascii	"eventmask_t\000"
 4200      746D6173 
 4200      6B5F7400 
 4201              	.LASF93:
 4202 0616 42617365 		.ascii	"BasePublisher\000"
 4202      5075626C 
 4202      69736865 
 4202      7200
 4203              	.LASF55:
 4204 0624 73746B61 		.ascii	"stkalign_t\000"
 4204      6C69676E 
 4204      5F7400
 4205              	.LASF77:
ARM GAS  /tmp/ccIZ6SY6.s 			page 79


 4206 062f 5F777269 		.ascii	"_write\000"
 4206      746500
 4207              	.LASF163:
 4208 0636 52544341 		.ascii	"RTCAN_MSG_ERROR\000"
 4208      4E5F4D53 
 4208      475F4552 
 4208      524F5200 
 4209              	.LASF164:
 4210 0646 72746361 		.ascii	"rtcan_msgstatus_t\000"
 4210      6E5F6D73 
 4210      67737461 
 4210      7475735F 
 4210      7400
 4211              	.LASF122:
 4212 0658 5F5A4E31 		.ascii	"_ZN15LocalSubscriber4linkEPS_\000"
 4212      354C6F63 
 4212      616C5375 
 4212      62736372 
 4212      69626572 
 4213              	.LASF172:
 4214 0676 736F7572 		.ascii	"source\000"
 4214      636500
 4215              	.LASF144:
 4216 067d 5F5A4E31 		.ascii	"_ZN14LocalPublisher4nextEPS_\000"
 4216      344C6F63 
 4216      616C5075 
 4216      626C6973 
 4216      68657234 
 4217              	.LASF136:
 4218 069a 5F5A4E31 		.ascii	"_ZN16RemoteSubscriber4linkEPS_\000"
 4218      3652656D 
 4218      6F746553 
 4218      75627363 
 4218      72696265 
 4219              	.LASF72:
 4220 06b9 72656665 		.ascii	"reference\000"
 4220      72656E63 
 4220      6500
 4221              	.LASF147:
 4222 06c3 5F5A4E31 		.ascii	"_ZN14LocalPublisher9subscribeEP15LocalSubscriberPvj"
 4222      344C6F63 
 4222      616C5075 
 4222      626C6973 
 4222      68657239 
 4223 06f6 506D00   		.ascii	"Pm\000"
 4224              	.LASF58:
 4225 06f9 4D757465 		.ascii	"Mutex\000"
 4225      7800
 4226              	.LASF46:
 4227 06ff 705F6570 		.ascii	"p_epending\000"
 4227      656E6469 
 4227      6E6700
 4228              	.LASF13:
 4229 070a 75696E74 		.ascii	"uint64_t\000"
 4229      36345F74 
 4229      00
 4230              	.LASF35:
ARM GAS  /tmp/ccIZ6SY6.s 			page 80


 4231 0713 705F6F6C 		.ascii	"p_older\000"
 4231      64657200 
 4232              	.LASF173:
 4233 071b 5F5A4E31 		.ascii	"_ZN14BaseSubscriber6sourceEv\000"
 4233      34426173 
 4233      65537562 
 4233      73637269 
 4233      62657236 
 4234              	.LASF50:
 4235 0738 54687265 		.ascii	"ThreadsQueue\000"
 4235      61647351 
 4235      75657565 
 4235      00
 4236              	.LASF177:
 4237 0745 5F5A4E31 		.ascii	"_ZN14BaseSubscriber7releaseEP11BaseMessage\000"
 4237      34426173 
 4237      65537562 
 4237      73637269 
 4237      62657237 
 4238              	.LASF181:
 4239 0770 5F727463 		.ascii	"_rtcan_msg\000"
 4239      616E5F6D 
 4239      736700
 4240              	.LASF185:
 4241 077b 5F5A4E31 		.ascii	"_ZN15RemotePublisher10broadcastIEP11BaseMessage\000"
 4241      3552656D 
 4241      6F746550 
 4241      75626C69 
 4241      73686572 
 4242              	.LASF115:
 4243 07ab 5F6E6578 		.ascii	"_next_notify\000"
 4243      745F6E6F 
 4243      74696679 
 4243      00
 4244              	.LASF156:
 4245 07b8 72746361 		.ascii	"rtcan_msgcallback_t\000"
 4245      6E5F6D73 
 4245      6763616C 
 4245      6C626163 
 4245      6B5F7400 
 4246              	.LASF51:
 4247 07cc 31325468 		.ascii	"12ThreadsQueue\000"
 4247      72656164 
 4247      73517565 
 4247      756500
 4248              	.LASF131:
 4249 07db 5F5A4E31 		.ascii	"_ZN15LocalSubscriber8callbackEv\000"
 4249      354C6F63 
 4249      616C5375 
 4249      62736372 
 4249      69626572 
 4250              	.LASF64:
 4251 07fb 70685F6E 		.ascii	"ph_next\000"
 4251      65787400 
 4252              	.LASF134:
 4253 0803 5F5A4E31 		.ascii	"_ZN16RemoteSubscriber4nextEv\000"
 4253      3652656D 
ARM GAS  /tmp/ccIZ6SY6.s 			page 81


 4253      6F746553 
 4253      75627363 
 4253      72696265 
 4254              	.LASF120:
 4255 0820 5F5A4E31 		.ascii	"_ZN15LocalSubscriber4nextEPS_\000"
 4255      354C6F63 
 4255      616C5375 
 4255      62736372 
 4255      69626572 
 4256              	.LASF19:
 4257 083e 74726566 		.ascii	"trefs_t\000"
 4257      735F7400 
 4258              	.LASF96:
 4259 0846 5F72656D 		.ascii	"_remote_subscribers\000"
 4259      6F74655F 
 4259      73756273 
 4259      63726962 
 4259      65727300 
 4260              	.LASF162:
 4261 085a 52544341 		.ascii	"RTCAN_MSG_TIMEOUT\000"
 4261      4E5F4D53 
 4261      475F5449 
 4261      4D454F55 
 4261      5400
 4262              	.LASF31:
 4263 086c 705F7072 		.ascii	"p_prev\000"
 4263      657600
 4264              	.LASF187:
 4265 0873 5F5A4E31 		.ascii	"_ZN15RemotePublisher2idEt\000"
 4265      3552656D 
 4265      6F746550 
 4265      75626C69 
 4265      73686572 
 4266              	.LASF21:
 4267 088d 74707269 		.ascii	"tprio_t\000"
 4267      6F5F7400 
 4268              	.LASF108:
 4269 0895 756E7375 		.ascii	"unsubscribe\000"
 4269      62736372 
 4269      69626500 
 4270              	.LASF8:
 4271 08a1 696E7433 		.ascii	"int32_t\000"
 4271      325F7400 
 4272              	.LASF4:
 4273 08a9 756E7369 		.ascii	"unsigned char\000"
 4273      676E6564 
 4273      20636861 
 4273      7200
 4274              	.LASF112:
 4275 08b7 5F5A4E31 		.ascii	"_ZN13BasePublisher11unsubscribeEP15LocalSubscriber\000"
 4275      33426173 
 4275      65507562 
 4275      6C697368 
 4275      65723131 
 4276              	.LASF47:
 4277 08ea 705F6D74 		.ascii	"p_mtxlist\000"
 4277      786C6973 
ARM GAS  /tmp/ccIZ6SY6.s 			page 82


 4277      7400
 4278              	.LASF5:
 4279 08f4 73686F72 		.ascii	"short int\000"
 4279      7420696E 
 4279      7400
 4280              	.LASF38:
 4281 08fe 705F7374 		.ascii	"p_state\000"
 4281      61746500 
 4282              	.LASF41:
 4283 0906 705F7072 		.ascii	"p_preempt\000"
 4283      65656D70 
 4283      7400
 4284              	.LASF29:
 4285 0910 65776D61 		.ascii	"ewmask\000"
 4285      736B00
 4286              	.LASF30:
 4287 0917 705F6E65 		.ascii	"p_next\000"
 4287      787400
 4288              	.LASF17:
 4289 091e 746D6F64 		.ascii	"tmode_t\000"
 4289      655F7400 
 4290              	.LASF113:
 4291 0926 4C6F6361 		.ascii	"LocalSubscriber\000"
 4291      6C537562 
 4291      73637269 
 4291      62657200 
 4292              	.LASF103:
 4293 0936 5F5A4E31 		.ascii	"_ZN13BasePublisher6allocIEv\000"
 4293      33426173 
 4293      65507562 
 4293      6C697368 
 4293      65723661 
 4294              	.LASF180:
 4295 0952 52656D6F 		.ascii	"RemotePublisher\000"
 4295      74655075 
 4295      626C6973 
 4295      68657200 
 4296              	.LASF197:
 4297 0962 66726167 		.ascii	"fragment\000"
 4297      6D656E74 
 4297      00
 4298              	.LASF25:
 4299 096b 54687265 		.ascii	"Thread\000"
 4299      616400
 4300              	.LASF193:
 4301 0972 474E5520 		.ascii	"GNU C++ 4.6.2 20120613 (release) [ARM/embedded-4_6-"
 4301      432B2B20 
 4301      342E362E 
 4301      32203230 
 4301      31323036 
 4302 09a5 6272616E 		.ascii	"branch revision 188521]\000"
 4302      63682072 
 4302      65766973 
 4302      696F6E20 
 4302      31383835 
 4303              	.LASF159:
 4304 09bd 52544341 		.ascii	"RTCAN_MSG_READY\000"
ARM GAS  /tmp/ccIZ6SY6.s 			page 83


 4304      4E5F4D53 
 4304      475F5245 
 4304      41445900 
 4305              	.LASF128:
 4306 09cd 5F5A4E31 		.ascii	"_ZN15LocalSubscriber9subscribeEP15RemotePublisherm\000"
 4306      354C6F63 
 4306      616C5375 
 4306      62736372 
 4306      69626572 
 4307              	.LASF69:
 4308 0a00 4D656D6F 		.ascii	"MemoryPool\000"
 4308      7279506F 
 4308      6F6C00
 4309              	.LASF89:
 4310 0a0b 5F5A4E31 		.ascii	"_ZN12MessageQueue3putEP11BaseMessage\000"
 4310      324D6573 
 4310      73616765 
 4310      51756575 
 4310      65337075 
 4311              	.LASF117:
 4312 0a30 5F63616C 		.ascii	"_callback\000"
 4312      6C626163 
 4312      6B00
 4313              	.LASF87:
 4314 0a3a 5F5A4E31 		.ascii	"_ZN12MessageQueue4getIEv\000"
 4314      324D6573 
 4314      73616765 
 4314      51756575 
 4314      65346765 
 4315              	.LASF11:
 4316 0a53 6C6F6E67 		.ascii	"long unsigned int\000"
 4316      20756E73 
 4316      69676E65 
 4316      6420696E 
 4316      7400
 4317              	.LASF123:
 4318 0a65 6E6F7469 		.ascii	"notify\000"
 4318      667900
 4319              	.LASF70:
 4320 0a6c 63686172 		.ascii	"char\000"
 4320      00
 4321              	.LASF149:
 4322 0a71 72746361 		.ascii	"rtcan_msg_t\000"
 4322      6E5F6D73 
 4322      675F7400 
 4323              	.LASF91:
 4324 0a7d 5F5A4E31 		.ascii	"_ZN11BaseMessage9referenceEv\000"
 4324      31426173 
 4324      654D6573 
 4324      73616765 
 4324      39726566 
 4325              	.LASF154:
 4326 0a9a 70617261 		.ascii	"params\000"
 4326      6D7300
 4327              	.LASF80:
 4328 0aa1 64657265 		.ascii	"dereference\000"
 4328      66657265 
ARM GAS  /tmp/ccIZ6SY6.s 			page 84


 4328      6E636500 
 4329              	.LASF61:
 4330 0aad 6D5F6E65 		.ascii	"m_next\000"
 4330      787400
 4331              	.LASF24:
 4332 0ab4 73797374 		.ascii	"systime_t\000"
 4332      696D655F 
 4332      7400
 4333              	.LASF48:
 4334 0abe 705F7265 		.ascii	"p_realprio\000"
 4334      616C7072 
 4334      696F00
 4335              	.LASF192:
 4336 0ac9 62756666 		.ascii	"buffer\000"
 4336      657200
 4337              	.LASF100:
 4338 0ad0 616C6C6F 		.ascii	"alloc\000"
 4338      6300
 4339              	.LASF90:
 4340 0ad6 70757449 		.ascii	"putI\000"
 4340      00
 4341              	.LASF114:
 4342 0adb 5F6E6578 		.ascii	"_next\000"
 4342      7400
 4343              	.LASF36:
 4344 0ae1 705F6E61 		.ascii	"p_name\000"
 4344      6D6500
 4345              	.LASF79:
 4346 0ae8 5F636E74 		.ascii	"_cnt\000"
 4346      00
 4347              	.LASF66:
 4348 0aed 6D705F6E 		.ascii	"mp_next\000"
 4348      65787400 
 4349              	.LASF158:
 4350 0af5 52544341 		.ascii	"RTCAN_MSG_BUSY\000"
 4350      4E5F4D53 
 4350      475F4255 
 4350      535900
 4351              	.LASF57:
 4352 0b04 636F6E74 		.ascii	"context\000"
 4352      65787400 
 4353              	.LASF139:
 4354 0b0c 5F5A4E31 		.ascii	"_ZN16RemoteSubscriber9subscribeEP14LocalPublisher\000"
 4354      3652656D 
 4354      6F746553 
 4354      75627363 
 4354      72696265 
 4355              	.LASF85:
 4356 0b3e 5F5A4E31 		.ascii	"_ZN12MessageQueue5sizeIEv\000"
 4356      324D6573 
 4356      73616765 
 4356      51756575 
 4356      65357369 
 4357              	.LASF132:
 4358 0b58 5F5A4E31 		.ascii	"_ZN15LocalSubscriber8callbackEP11BaseMessage\000"
 4358      354C6F63 
 4358      616C5375 
ARM GAS  /tmp/ccIZ6SY6.s 			page 85


 4358      62736372 
 4358      69626572 
 4359              	.LASF56:
 4360 0b85 696E7463 		.ascii	"intctx\000"
 4360      747800
 4361              	.LASF183:
 4362 0b8c 5F5A4E31 		.ascii	"_ZN15RemotePublisher4nextEPS_\000"
 4362      3552656D 
 4362      6F746550 
 4362      75626C69 
 4362      73686572 
 4363              	.LASF84:
 4364 0baa 73697A65 		.ascii	"sizeI\000"
 4364      4900
 4365              	.LASF10:
 4366 0bb0 75696E74 		.ascii	"uint32_t\000"
 4366      33325F74 
 4366      00
 4367              	.LASF76:
 4368 0bb9 5F746F70 		.ascii	"_top\000"
 4368      00
 4369              	.LASF63:
 4370 0bbe 706F6F6C 		.ascii	"pool_header\000"
 4370      5F686561 
 4370      64657200 
 4371              	.LASF40:
 4372 0bca 705F7265 		.ascii	"p_refs\000"
 4372      667300
 4373              	.LASF153:
 4374 0bd1 73746174 		.ascii	"status\000"
 4374      757300
 4375              	.LASF189:
 4376 0bd8 6D73675F 		.ascii	"msg_size\000"
 4376      73697A65 
 4376      00
 4377              	.LASF45:
 4378 0be1 705F6D73 		.ascii	"p_msg\000"
 4378      6700
 4379              	.LASF188:
 4380 0be7 5F5A4E31 		.ascii	"_ZN15RemotePublisher2idEv\000"
 4380      3552656D 
 4380      6F746550 
 4380      75626C69 
 4380      73686572 
 4381              	.LASF3:
 4382 0c01 75696E74 		.ascii	"uint8_t\000"
 4382      385F7400 
 4383              	.LASF73:
 4384 0c09 4D657373 		.ascii	"MessageQueue\000"
 4384      61676551 
 4384      75657565 
 4384      00
 4385              	.LASF194:
 4386 0c16 2E2E2F2E 		.ascii	"../../Middleware/LocalPublisher.cpp\000"
 4386      2E2F4D69 
 4386      64646C65 
 4386      77617265 
ARM GAS  /tmp/ccIZ6SY6.s 			page 86


 4386      2F4C6F63 
 4387              	.LASF125:
 4388 0c3a 5F5A4E31 		.ascii	"_ZN15LocalSubscriber6notifyEP11BaseMessageRi\000"
 4388      354C6F63 
 4388      616C5375 
 4388      62736372 
 4388      69626572 
 4389              	.LASF28:
 4390 0c67 77746F62 		.ascii	"wtobjp\000"
 4390      6A7000
 4391              	.LASF168:
 4392 0c6e 5F736F75 		.ascii	"_source\000"
 4392      72636500 
 4393              	.LASF175:
 4394 0c76 5F5A4E31 		.ascii	"_ZN14BaseSubscriber4lastEv\000"
 4394      34426173 
 4394      65537562 
 4394      73637269 
 4394      62657234 
 4395              	.LASF143:
 4396 0c91 5F5A4E31 		.ascii	"_ZN14LocalPublisher4nextEv\000"
 4396      344C6F63 
 4396      616C5075 
 4396      626C6973 
 4396      68657234 
 4397              	.LASF99:
 4398 0cac 5F5A4E31 		.ascii	"_ZN13BasePublisher5topicEv\000"
 4398      33426173 
 4398      65507562 
 4398      6C697368 
 4398      65723574 
 4399              	.LASF39:
 4400 0cc7 705F666C 		.ascii	"p_flags\000"
 4400      61677300 
 4401              	.LASF67:
 4402 0ccf 6D705F6F 		.ascii	"mp_object_size\000"
 4402      626A6563 
 4402      745F7369 
 4402      7A6500
 4403              	.LASF150:
 4404 0cde 64656164 		.ascii	"deadline\000"
 4404      6C696E65 
 4404      00
 4405              	.LASF116:
 4406 0ce7 5F6D6173 		.ascii	"_mask\000"
 4406      6B00
 4407              	.LASF107:
 4408 0ced 5F5A4E31 		.ascii	"_ZN13BasePublisher8releaseIEP11BaseMessage\000"
 4408      33426173 
 4408      65507562 
 4408      6C697368 
 4408      65723872 
 4409              	.LASF160:
 4410 0d18 52544341 		.ascii	"RTCAN_MSG_QUEUED\000"
 4410      4E5F4D53 
 4410      475F5155 
 4410      45554544 
ARM GAS  /tmp/ccIZ6SY6.s 			page 87


 4410      00
 4411              	.LASF60:
 4412 0d29 6D5F6F77 		.ascii	"m_owner\000"
 4412      6E657200 
 4413              	.LASF33:
 4414 0d31 705F6374 		.ascii	"p_ctx\000"
 4414      7800
 4415              	.LASF43:
 4416 0d37 705F7761 		.ascii	"p_waiting\000"
 4416      6974696E 
 4416      6700
 4417              	.LASF186:
 4418 0d41 5F5A4E31 		.ascii	"_ZN15RemotePublisher9subscribeEP15LocalSubscriberPv"
 4418      3552656D 
 4418      6F746550 
 4418      75626C69 
 4418      73686572 
 4419 0d74 6A506D00 		.ascii	"jPm\000"
 4420              		.ident	"GCC: (GNU Tools for ARM Embedded Processors) 4.6.2 20120613 (release) [ARM/embedded-4_6-br
ARM GAS  /tmp/ccIZ6SY6.s 			page 88


DEFINED SYMBOLS
                            *ABS*:00000000 LocalPublisher.cpp
     /tmp/ccIZ6SY6.s:19     .text._ZN14LocalPublisherC2EPKcj:00000000 $t
     /tmp/ccIZ6SY6.s:25     .text._ZN14LocalPublisherC2EPKcj:00000000 _ZN14LocalPublisherC2EPKcj
     /tmp/ccIZ6SY6.s:54     .text._ZN14LocalPublisher4nextEv:00000000 $t
     /tmp/ccIZ6SY6.s:60     .text._ZN14LocalPublisher4nextEv:00000000 _ZN14LocalPublisher4nextEv
     /tmp/ccIZ6SY6.s:77     .text._ZN14LocalPublisher4nextEPS_:00000000 $t
     /tmp/ccIZ6SY6.s:83     .text._ZN14LocalPublisher4nextEPS_:00000000 _ZN14LocalPublisher4nextEPS_
     /tmp/ccIZ6SY6.s:99     .text._ZN14LocalPublisher9broadcastEP11BaseMessage:00000000 $t
     /tmp/ccIZ6SY6.s:105    .text._ZN14LocalPublisher9broadcastEP11BaseMessage:00000000 _ZN14LocalPublisher9broadcastEP11BaseMessage
     /tmp/ccIZ6SY6.s:210    .text._ZN14LocalPublisher9subscribeEP15LocalSubscriberPvjPm:00000000 $t
     /tmp/ccIZ6SY6.s:216    .text._ZN14LocalPublisher9subscribeEP15LocalSubscriberPvjPm:00000000 _ZN14LocalPublisher9subscribeEP15LocalSubscriberPvjPm
     /tmp/ccIZ6SY6.s:303    .text._ZN14LocalPublisher9subscribeEP16RemoteSubscriberPvjPm:00000000 $t
     /tmp/ccIZ6SY6.s:309    .text._ZN14LocalPublisher9subscribeEP16RemoteSubscriberPvjPm:00000000 _ZN14LocalPublisher9subscribeEP16RemoteSubscriberPvjPm
     /tmp/ccIZ6SY6.s:25     .text._ZN14LocalPublisherC2EPKcj:00000000 _ZN14LocalPublisherC1EPKcj
                     .debug_frame:00000010 $d

UNDEFINED SYMBOLS
_ZN13BasePublisherC2EPKcj
dbg_check_lock
_ZN15LocalSubscriber6notifyEP11BaseMessageRi
_ZN16RemoteSubscriber6notifyEP11BaseMessageRi
chSchRescheduleS
dbg_check_unlock
_ZN15LocalSubscriber4linkEPS_
chPoolLoadArray
_ZN16RemoteSubscriber4linkEPS_
