ARM GAS  /tmp/ccIZ6SY6.s 			page 1


   1              		.syntax unified
   2              		.cpu cortex-m3
   3              		.fpu softvfp
   4              		.eabi_attribute 20, 1
   5              		.eabi_attribute 21, 1
   6              		.eabi_attribute 23, 3
   7              		.eabi_attribute 24, 1
   8              		.eabi_attribute 25, 1
   9              		.eabi_attribute 26, 1
  10              		.eabi_attribute 30, 2
  11              		.eabi_attribute 34, 1
  12              		.eabi_attribute 18, 4
  13              		.thumb
  14              		.file	"LocalPublisher.cpp"
  15              		.text
  16              	.Ltext0:
  17              		.cfi_sections	.debug_frame
  18              		.section	.text._ZN14LocalPublisherC2EPKcj,"ax",%progbits
  19              		.align	2
  20              		.p2align 4,,15
  21              		.global	_ZN14LocalPublisherC2EPKcj
  22              		.thumb
  23              		.thumb_func
  24              		.type	_ZN14LocalPublisherC2EPKcj, %function
  25              	_ZN14LocalPublisherC2EPKcj:
  26              	.LFB81:
  27              		.file 1 "../../Middleware/LocalPublisher.cpp"
  28              		.loc 1 10 0
  29              		.cfi_startproc
  30              		@ args = 0, pretend = 0, frame = 0
  31              		@ frame_needed = 0, uses_anonymous_args = 0
  32              	.LVL0:
  33 0000 10B5     		push	{r4, lr}
  34              	.LCFI0:
  35              		.cfi_def_cfa_offset 8
  36              		.cfi_offset 14, -4
  37              		.cfi_offset 4, -8
  38              		.loc 1 10 0
  39 0002 0446     		mov	r4, r0
  40              	.LBB2:
  41 0004 FFF7FEFF 		bl	_ZN13BasePublisherC2EPKcj
  42              	.LVL1:
  43              		.loc 1 11 0
  44 0008 0023     		movs	r3, #0
  45 000a A361     		str	r3, [r4, #24]
  46              	.LBE2:
  47              		.loc 1 12 0
  48 000c 2046     		mov	r0, r4
  49 000e 10BD     		pop	{r4, pc}
  50              		.cfi_endproc
  51              	.LFE81:
  52              		.size	_ZN14LocalPublisherC2EPKcj, .-_ZN14LocalPublisherC2EPKcj
  53              		.section	.text._ZN14LocalPublisher4nextEv,"ax",%progbits
  54              		.align	2
  55              		.p2align 4,,15
  56              		.global	_ZN14LocalPublisher4nextEv
  57              		.thumb
ARM GAS  /tmp/ccIZ6SY6.s 			page 2


  58              		.thumb_func
  59              		.type	_ZN14LocalPublisher4nextEv, %function
  60              	_ZN14LocalPublisher4nextEv:
  61              	.LFB83:
  62              		.loc 1 14 0
  63              		.cfi_startproc
  64              		@ args = 0, pretend = 0, frame = 0
  65              		@ frame_needed = 0, uses_anonymous_args = 0
  66              		@ link register save eliminated.
  67              	.LVL2:
  68              		.loc 1 15 0
  69 0000 8069     		ldr	r0, [r0, #24]
  70              	.LVL3:
  71              		.loc 1 16 0
  72 0002 7047     		bx	lr
  73              		.cfi_endproc
  74              	.LFE83:
  75              		.size	_ZN14LocalPublisher4nextEv, .-_ZN14LocalPublisher4nextEv
  76 0004 AFF30080 		.section	.text._ZN14LocalPublisher4nextEPS_,"ax",%progbits
  76      AFF30080 
  76      AFF30080 
  77              		.align	2
  78              		.p2align 4,,15
  79              		.global	_ZN14LocalPublisher4nextEPS_
  80              		.thumb
  81              		.thumb_func
  82              		.type	_ZN14LocalPublisher4nextEPS_, %function
  83              	_ZN14LocalPublisher4nextEPS_:
  84              	.LFB84:
  85              		.loc 1 18 0
  86              		.cfi_startproc
  87              		@ args = 0, pretend = 0, frame = 0
  88              		@ frame_needed = 0, uses_anonymous_args = 0
  89              		@ link register save eliminated.
  90              	.LVL4:
  91              		.loc 1 19 0
  92 0000 8161     		str	r1, [r0, #24]
  93              		.loc 1 20 0
  94 0002 7047     		bx	lr
  95              		.cfi_endproc
  96              	.LFE84:
  97              		.size	_ZN14LocalPublisher4nextEPS_, .-_ZN14LocalPublisher4nextEPS_
  98 0004 AFF30080 		.section	.text._ZN14LocalPublisher9broadcastEP11BaseMessage,"ax",%progbits
  98      AFF30080 
  98      AFF30080 
  99              		.align	2
 100              		.p2align 4,,15
 101              		.global	_ZN14LocalPublisher9broadcastEP11BaseMessage
 102              		.thumb
 103              		.thumb_func
 104              		.type	_ZN14LocalPublisher9broadcastEP11BaseMessage, %function
 105              	_ZN14LocalPublisher9broadcastEP11BaseMessage:
 106              	.LFB85:
 107              		.loc 1 22 0
 108              		.cfi_startproc
 109              		@ args = 0, pretend = 0, frame = 16
 110              		@ frame_needed = 0, uses_anonymous_args = 0
ARM GAS  /tmp/ccIZ6SY6.s 			page 3


 111              	.LVL5:
 112 0000 30B5     		push	{r4, r5, lr}
 113              	.LCFI1:
 114              		.cfi_def_cfa_offset 12
 115              		.cfi_offset 14, -4
 116              		.cfi_offset 5, -8
 117              		.cfi_offset 4, -12
 118 0002 0246     		mov	r2, r0
 119              	.LBB3:
 120              		.loc 1 25 0
 121 0004 0023     		movs	r3, #0
 122              	.LBE3:
 123              		.loc 1 22 0
 124 0006 85B0     		sub	sp, sp, #20
 125              	.LCFI2:
 126              		.cfi_def_cfa_offset 32
 127              	.LBB8:
 128              		.loc 1 23 0
 129 0008 4068     		ldr	r0, [r0, #4]
 130              	.LVL6:
 131              		.loc 1 24 0
 132 000a 9468     		ldr	r4, [r2, #8]
 133              	.LVL7:
 134              		.loc 1 25 0
 135 000c 0393     		str	r3, [sp, #12]
 136              	.LVL8:
 137              	.LBE8:
 138              		.loc 1 22 0
 139 000e 0D46     		mov	r5, r1
 140              	.LBB9:
 141              	.LBB4:
 142              	.LBB5:
 143              		.loc 1 27 0
 144 0010 2023     		movs	r3, #32
 145              	.LVL9:
 146              	@ 27 "../../Middleware/LocalPublisher.cpp" 1
 147 0012 83F31188 		msr     BASEPRI, r3
 148              	@ 0 "" 2
 149              	.LVL10:
 150              		.thumb
 151              	.LBE5:
 152 0016 0190     		str	r0, [sp, #4]
 153 0018 FFF7FEFF 		bl	dbg_check_lock
 154              	.LVL11:
 155              	.LBE4:
 156              		.loc 1 29 0
 157 001c 0198     		ldr	r0, [sp, #4]
 158 001e 28B1     		cbz	r0, .L12
 159              	.LVL12:
 160              	.L7:
 161              		.loc 1 30 0
 162 0020 2946     		mov	r1, r5
 163 0022 03AA     		add	r2, sp, #12
 164 0024 FFF7FEFF 		bl	_ZN15LocalSubscriber6notifyEP11BaseMessageRi
 165              	.LVL13:
 166              		.loc 1 29 0
 167 0028 0028     		cmp	r0, #0
ARM GAS  /tmp/ccIZ6SY6.s 			page 4


 168 002a F9D1     		bne	.L7
 169              	.L12:
 170              		.loc 1 33 0
 171 002c 3CB1     		cbz	r4, .L14
 172              	.LVL14:
 173              	.L9:
 174              		.loc 1 34 0
 175 002e 2046     		mov	r0, r4
 176 0030 2946     		mov	r1, r5
 177 0032 03AA     		add	r2, sp, #12
 178 0034 FFF7FEFF 		bl	_ZN16RemoteSubscriber6notifyEP11BaseMessageRi
 179 0038 0446     		mov	r4, r0
 180              	.LVL15:
 181              		.loc 1 33 0
 182 003a 002C     		cmp	r4, #0
 183 003c F7D1     		bne	.L9
 184              	.LVL16:
 185              	.L14:
 186              		.loc 1 37 0
 187 003e FFF7FEFF 		bl	chSchRescheduleS
 188              	.LBB6:
 189              		.loc 1 38 0
 190 0042 FFF7FEFF 		bl	dbg_check_unlock
 191              	.LBB7:
 192 0046 0023     		movs	r3, #0
 193              	.LVL17:
 194              	@ 38 "../../Middleware/LocalPublisher.cpp" 1
 195 0048 83F31188 		msr     BASEPRI, r3
 196              	@ 0 "" 2
 197              	.LVL18:
 198              		.thumb
 199              	.LBE7:
 200              	.LBE6:
 201              	.LBE9:
 202              		.loc 1 41 0
 203 004c 0398     		ldr	r0, [sp, #12]
 204 004e 05B0     		add	sp, sp, #20
 205 0050 30BD     		pop	{r4, r5, pc}
 206              		.cfi_endproc
 207              	.LFE85:
 208              		.size	_ZN14LocalPublisher9broadcastEP11BaseMessage, .-_ZN14LocalPublisher9broadcastEP11BaseMessage
 209 0052 00BFAFF3 		.section	.text._ZN14LocalPublisher9subscribeEP15LocalSubscriberPvjPm,"ax",%progbits
 209      0080AFF3 
 209      0080AFF3 
 209      0080
 210              		.align	2
 211              		.p2align 4,,15
 212              		.global	_ZN14LocalPublisher9subscribeEP15LocalSubscriberPvjPm
 213              		.thumb
 214              		.thumb_func
 215              		.type	_ZN14LocalPublisher9subscribeEP15LocalSubscriberPvjPm, %function
 216              	_ZN14LocalPublisher9subscribeEP15LocalSubscriberPvjPm:
 217              	.LFB86:
 218              		.loc 1 44 0
 219              		.cfi_startproc
 220              		@ args = 4, pretend = 0, frame = 0
 221              		@ frame_needed = 0, uses_anonymous_args = 0
ARM GAS  /tmp/ccIZ6SY6.s 			page 5


 222              	.LVL19:
 223 0000 70B5     		push	{r4, r5, r6, lr}
 224              	.LCFI3:
 225              		.cfi_def_cfa_offset 16
 226              		.cfi_offset 14, -4
 227              		.cfi_offset 6, -8
 228              		.cfi_offset 5, -12
 229              		.cfi_offset 4, -16
 230              		.loc 1 44 0
 231 0002 049E     		ldr	r6, [sp, #16]
 232 0004 0446     		mov	r4, r0
 233              	.LBB10:
 234              		.loc 1 46 0
 235 0006 3068     		ldr	r0, [r6, #0]
 236              	.LVL20:
 237              	.LBE10:
 238              		.loc 1 44 0
 239 0008 0D46     		mov	r5, r1
 240              	.LBB15:
 241              		.loc 1 46 0
 242 000a 80B9     		cbnz	r0, .L20
 243              	.LVL21:
 244              	.L16:
 245              	.LBB11:
 246              	.LBB12:
 247              		.loc 1 51 0
 248 000c 2023     		movs	r3, #32
 249              	.LVL22:
 250              	@ 51 "../../Middleware/LocalPublisher.cpp" 1
 251 000e 83F31188 		msr     BASEPRI, r3
 252              	@ 0 "" 2
 253              	.LVL23:
 254              		.thumb
 255              	.LBE12:
 256 0012 FFF7FEFF 		bl	dbg_check_lock
 257              	.LVL24:
 258              	.LBE11:
 259              		.loc 1 52 0
 260 0016 6168     		ldr	r1, [r4, #4]
 261 0018 11B1     		cbz	r1, .L19
 262              		.loc 1 55 0
 263 001a 2846     		mov	r0, r5
 264 001c FFF7FEFF 		bl	_ZN15LocalSubscriber4linkEPS_
 265              	.L19:
 266              		.loc 1 56 0
 267 0020 6560     		str	r5, [r4, #4]
 268              	.LBB13:
 269              		.loc 1 58 0
 270 0022 FFF7FEFF 		bl	dbg_check_unlock
 271              	.LBB14:
 272 0026 0023     		movs	r3, #0
 273              	.LVL25:
 274              	@ 58 "../../Middleware/LocalPublisher.cpp" 1
 275 0028 83F31188 		msr     BASEPRI, r3
 276              	@ 0 "" 2
 277              	.LVL26:
 278              		.thumb
ARM GAS  /tmp/ccIZ6SY6.s 			page 6


 279              	.LBE14:
 280              	.LBE13:
 281              	.LBE15:
 282              		.loc 1 59 0
 283 002c 70BD     		pop	{r4, r5, r6, pc}
 284              	.LVL27:
 285              	.L20:
 286              	.LBB16:
 287              		.loc 1 47 0
 288 002e 1146     		mov	r1, r2
 289 0030 04F10C00 		add	r0, r4, #12
 290 0034 1A46     		mov	r2, r3
 291              	.LVL28:
 292 0036 FFF7FEFF 		bl	chPoolLoadArray
 293              	.LVL29:
 294              		.loc 1 48 0
 295 003a 0023     		movs	r3, #0
 296 003c 3360     		str	r3, [r6, #0]
 297 003e E5E7     		b	.L16
 298              	.LBE16:
 299              		.cfi_endproc
 300              	.LFE86:
 301              		.size	_ZN14LocalPublisher9subscribeEP15LocalSubscriberPvjPm, .-_ZN14LocalPublisher9subscribeEP15Lo
 302              		.section	.text._ZN14LocalPublisher9subscribeEP16RemoteSubscriberPvjPm,"ax",%progbits
 303              		.align	2
 304              		.p2align 4,,15
 305              		.global	_ZN14LocalPublisher9subscribeEP16RemoteSubscriberPvjPm
 306              		.thumb
 307              		.thumb_func
 308              		.type	_ZN14LocalPublisher9subscribeEP16RemoteSubscriberPvjPm, %function
 309              	_ZN14LocalPublisher9subscribeEP16RemoteSubscriberPvjPm:
 310              	.LFB87:
 311              		.loc 1 62 0
 312              		.cfi_startproc
 313              		@ args = 4, pretend = 0, frame = 0
 314              		@ frame_needed = 0, uses_anonymous_args = 0
 315              	.LVL30:
 316 0000 70B5     		push	{r4, r5, r6, lr}
 317              	.LCFI4:
 318              		.cfi_def_cfa_offset 16
 319              		.cfi_offset 14, -4
 320              		.cfi_offset 6, -8
 321              		.cfi_offset 5, -12
 322              		.cfi_offset 4, -16
 323              		.loc 1 62 0
 324 0002 049E     		ldr	r6, [sp, #16]
 325 0004 0446     		mov	r4, r0
 326              	.LBB17:
 327              		.loc 1 64 0
 328 0006 3068     		ldr	r0, [r6, #0]
 329              	.LVL31:
 330              	.LBE17:
 331              		.loc 1 62 0
 332 0008 0D46     		mov	r5, r1
 333              	.LBB22:
 334              		.loc 1 64 0
 335 000a 80B9     		cbnz	r0, .L26
ARM GAS  /tmp/ccIZ6SY6.s 			page 7


 336              	.LVL32:
 337              	.L22:
 338              	.LBB18:
 339              	.LBB19:
 340              		.loc 1 69 0
 341 000c 2023     		movs	r3, #32
 342              	.LVL33:
 343              	@ 69 "../../Middleware/LocalPublisher.cpp" 1
 344 000e 83F31188 		msr     BASEPRI, r3
 345              	@ 0 "" 2
 346              	.LVL34:
 347              		.thumb
 348              	.LBE19:
 349 0012 FFF7FEFF 		bl	dbg_check_lock
 350              	.LVL35:
 351              	.LBE18:
 352              		.loc 1 70 0
 353 0016 A168     		ldr	r1, [r4, #8]
 354 0018 11B1     		cbz	r1, .L25
 355              		.loc 1 73 0
 356 001a 2846     		mov	r0, r5
 357 001c FFF7FEFF 		bl	_ZN16RemoteSubscriber4linkEPS_
 358              	.L25:
 359              		.loc 1 74 0
 360 0020 A560     		str	r5, [r4, #8]
 361              	.LBB20:
 362              		.loc 1 76 0
 363 0022 FFF7FEFF 		bl	dbg_check_unlock
 364              	.LBB21:
 365 0026 0023     		movs	r3, #0
 366              	.LVL36:
 367              	@ 76 "../../Middleware/LocalPublisher.cpp" 1
 368 0028 83F31188 		msr     BASEPRI, r3
 369              	@ 0 "" 2
 370              	.LVL37:
 371              		.thumb
 372              	.LBE21:
 373              	.LBE20:
 374              	.LBE22:
 375              		.loc 1 77 0
 376 002c 70BD     		pop	{r4, r5, r6, pc}
 377              	.LVL38:
 378              	.L26:
 379              	.LBB23:
 380              		.loc 1 65 0
 381 002e 1146     		mov	r1, r2
 382 0030 04F10C00 		add	r0, r4, #12
 383 0034 1A46     		mov	r2, r3
 384              	.LVL39:
 385 0036 FFF7FEFF 		bl	chPoolLoadArray
 386              	.LVL40:
 387              		.loc 1 66 0
 388 003a 0023     		movs	r3, #0
 389 003c 3360     		str	r3, [r6, #0]
 390 003e E5E7     		b	.L22
 391              	.LBE23:
 392              		.cfi_endproc
ARM GAS  /tmp/ccIZ6SY6.s 			page 8


 393              	.LFE87:
 394              		.size	_ZN14LocalPublisher9subscribeEP16RemoteSubscriberPvjPm, .-_ZN14LocalPublisher9subscribeEP16R
 395              		.global	_ZN14LocalPublisherC1EPKcj
 396              		.thumb_set _ZN14LocalPublisherC1EPKcj,_ZN14LocalPublisherC2EPKcj
 397              		.text
 398              	.Letext0:
 399              		.file 2 "/home/tino/ChibiStudio/tools/GNU Tools ARM Embedded/4.6 2012q2/bin/../lib/gcc/arm-none-ea
 400              		.file 3 "/home/tino/ChibiStudio/tools/GNU Tools ARM Embedded/4.6 2012q2/bin/../lib/gcc/arm-none-ea
 401              		.file 4 "../../ChibiOS/os/ports/GCC/ARMCMx/chtypes.h"
 402              		.file 5 "../../ChibiOS/os/kernel/include/chlists.h"
 403              		.file 6 "../../ChibiOS/os/kernel/include/chthreads.h"
 404              		.file 7 "../../ChibiOS/os/ports/GCC/ARMCMx/chcore_v7m.h"
 405              		.file 8 "../../ChibiOS/os/kernel/include/chmtx.h"
 406              		.file 9 "../../ChibiOS/os/kernel/include/chmemcore.h"
 407              		.file 10 "../../ChibiOS/os/kernel/include/chmempools.h"
 408              		.file 11 "../../Middleware/BaseMessage.hpp"
 409              		.file 12 "../../Middleware/MessageQueue.hpp"
 410              		.file 13 "../../Middleware/BasePublisher.hpp"
 411              		.file 14 "../../Middleware/LocalSubscriber.hpp"
 412              		.file 15 "../../Middleware/RemoteSubscriber.hpp"
 413              		.file 16 "../../Middleware/LocalPublisher.hpp"
 414              		.file 17 "../../RTCAN/include/rtcan.h"
 415              		.file 18 "../../Middleware/BaseSubscriber.hpp"
 416              		.file 19 "../../Middleware/RemotePublisher.hpp"
 417              		.file 20 "../../ChibiOS/os/various/cpp_wrappers/ch.hpp"
 418              		.file 21 "../../ChibiOS/os/ports/common/ARMCMx/CMSIS/include/core_cm3.h"