ARM GAS  /tmp/ccHx40UG.s 			page 1


   1              		.syntax unified
   2              		.cpu cortex-m3
   3              		.fpu softvfp
   4              		.eabi_attribute 20, 1
   5              		.eabi_attribute 21, 1
   6              		.eabi_attribute 23, 3
   7              		.eabi_attribute 24, 1
   8              		.eabi_attribute 25, 1
   9              		.eabi_attribute 26, 1
  10              		.eabi_attribute 30, 2
  11              		.eabi_attribute 34, 1
  12              		.eabi_attribute 18, 4
  13              		.thumb
  14              		.file	"main_middleware_test.cpp"
  15              		.text
  16              	.Ltext0:
  17              		.cfi_sections	.debug_frame
  18              		.section	.text._ZL14blinker_threadPv,"ax",%progbits
  19              		.align	2
  20              		.p2align 4,,15
  21              		.thumb
  22              		.thumb_func
  23              		.type	_ZL14blinker_threadPv, %function
  24              	_ZL14blinker_threadPv:
  25              	.LFB83:
  26              		.file 1 "main_middleware_test.cpp"
  27              		.loc 1 154 0
  28              		.cfi_startproc
  29              		@ args = 0, pretend = 0, frame = 0
  30              		@ frame_needed = 0, uses_anonymous_args = 0
  31              	.LVL0:
  32              		.loc 1 157 0
  33 0000 2148     		ldr	r0, .L12
  34              	.LVL1:
  35 0002 224A     		ldr	r2, .L12+4
  36 0004 8369     		ldr	r3, [r0, #24]
  37              		.loc 1 154 0
  38 0006 70B5     		push	{r4, r5, r6, lr}
  39              	.LCFI0:
  40              		.cfi_def_cfa_offset 16
  41              		.cfi_offset 14, -4
  42              		.cfi_offset 6, -8
  43              		.cfi_offset 5, -12
  44              		.cfi_offset 4, -16
  45              		.loc 1 162 0
  46 0008 4FF44064 		mov	r4, #3072
  47 000c 204D     		ldr	r5, .L12+8
  48              		.loc 1 157 0
  49 000e 9A61     		str	r2, [r3, #24]
  50              		.loc 1 162 0
  51 0010 C4F20104 		movt	r4, 16385
  52 0014 4FF48056 		mov	r6, #4096
  53              	.L10:
  54              		.loc 1 160 0
  55 0018 2A78     		ldrb	r2, [r5, #0]	@ zero_extendqisi2
  56 001a D11E     		subs	r1, r2, #3
  57 001c 0329     		cmp	r1, #3
ARM GAS  /tmp/ccHx40UG.s 			page 2


  58 001e 2ED8     		bhi	.L3
  59 0020 DFE801F0 		tbb	[pc, r1]
  60              	.L8:
  61 0024 25       		.byte	(.L4-.L8)/2
  62 0025 1D       		.byte	(.L5-.L8)/2
  63 0026 14       		.byte	(.L6-.L8)/2
  64 0027 02       		.byte	(.L7-.L8)/2
  65              		.align	1
  66              	.L7:
  67              		.loc 1 163 0
  68 0028 C820     		movs	r0, #200
  69              		.loc 1 162 0
  70 002a 6661     		str	r6, [r4, #20]
  71              		.loc 1 163 0
  72 002c FFF7FEFF 		bl	chThdSleep
  73              		.loc 1 165 0
  74 0030 6420     		movs	r0, #100
  75              		.loc 1 164 0
  76 0032 2661     		str	r6, [r4, #16]
  77              		.loc 1 165 0
  78 0034 FFF7FEFF 		bl	chThdSleep
  79              		.loc 1 167 0
  80 0038 C820     		movs	r0, #200
  81              		.loc 1 166 0
  82 003a 6661     		str	r6, [r4, #20]
  83              		.loc 1 167 0
  84 003c FFF7FEFF 		bl	chThdSleep
  85              		.loc 1 168 0
  86 0040 2661     		str	r6, [r4, #16]
  87              		.loc 1 169 0
  88 0042 4FF4FA70 		mov	r0, #500
  89 0046 FFF7FEFF 		bl	chThdSleep
  90              		.loc 1 170 0
  91 004a E5E7     		b	.L10
  92              	.L6:
  93              		.loc 1 176 0
  94 004c E268     		ldr	r2, [r4, #12]
  95              		.loc 1 177 0
  96 004e 4FF4FA70 		mov	r0, #500
  97              		.loc 1 176 0
  98 0052 82F48051 		eor	r1, r2, #4096
  99 0056 E160     		str	r1, [r4, #12]
 100              		.loc 1 177 0
 101 0058 FFF7FEFF 		bl	chThdSleep
 102              		.loc 1 178 0
 103 005c DCE7     		b	.L10
 104              	.L5:
 105              		.loc 1 172 0
 106 005e E068     		ldr	r0, [r4, #12]
 107 0060 80F48053 		eor	r3, r0, #4096
 108 0064 E360     		str	r3, [r4, #12]
 109              		.loc 1 173 0
 110 0066 6420     		movs	r0, #100
 111 0068 FFF7FEFF 		bl	chThdSleep
 112              		.loc 1 174 0
 113 006c D4E7     		b	.L10
 114              	.L4:
ARM GAS  /tmp/ccHx40UG.s 			page 3


 115              		.loc 1 180 0
 116 006e E068     		ldr	r0, [r4, #12]
 117 0070 80F40043 		eor	r3, r0, #32768
 118 0074 E360     		str	r3, [r4, #12]
 119              		.loc 1 181 0
 120 0076 C820     		movs	r0, #200
 121 0078 FFF7FEFF 		bl	chThdSleep
 122              		.loc 1 182 0
 123 007c CCE7     		b	.L10
 124              	.L3:
 125              		.loc 1 184 0
 126 007e 6420     		movs	r0, #100
 127 0080 FFF7FEFF 		bl	chThdSleep
 128              		.loc 1 185 0
 129 0084 C8E7     		b	.L10
 130              	.L13:
 131 0086 00BF     		.align	2
 132              	.L12:
 133 0088 00000000 		.word	rlist
 134 008c 00000000 		.word	.LC0
 135 0090 00000000 		.word	RTCAND1
 136              		.cfi_endproc
 137              	.LFE83:
 138              		.size	_ZL14blinker_threadPv, .-_ZL14blinker_threadPv
 139 0094 AFF30080 		.section	.text._ZL16PublisherThread1Pv,"ax",%progbits
 139      AFF30080 
 139      AFF30080 
 140              		.align	2
 141              		.p2align 4,,15
 142              		.thumb
 143              		.thumb_func
 144              		.type	_ZL16PublisherThread1Pv, %function
 145              	_ZL16PublisherThread1Pv:
 146              	.LFB82:
 147              		.loc 1 103 0
 148              		.cfi_startproc
 149              		@ args = 0, pretend = 0, frame = 208
 150              		@ frame_needed = 0, uses_anonymous_args = 0
 151              	.LVL2:
 152 0000 30B5     		push	{r4, r5, lr}
 153              	.LCFI1:
 154              		.cfi_def_cfa_offset 12
 155              		.cfi_offset 14, -4
 156              		.cfi_offset 5, -8
 157              		.cfi_offset 4, -12
 158 0002 B7B0     		sub	sp, sp, #220
 159              	.LCFI2:
 160              		.cfi_def_cfa_offset 232
 161              	.LBB14:
 162              		.loc 1 104 0
 163 0004 FFF7FEFF 		bl	_ZN10Middleware8instanceEv
 164              	.LVL3:
 165              		.loc 1 105 0
 166 0008 2749     		ldr	r1, .L21
 167              		.loc 1 104 0
 168 000a 0446     		mov	r4, r0
 169              	.LVL4:
ARM GAS  /tmp/ccHx40UG.s 			page 4


 170              		.loc 1 105 0
 171 000c 31A8     		add	r0, sp, #196
 172              	.LVL5:
 173 000e FFF7FEFF 		bl	_ZN4NodeC1EPKc
 174              	.LVL6:
 175              	.LBB15:
 176              	.LBB16:
 177              	.LBB17:
 178              		.file 2 "../../Middleware/Publisher.hpp"
 179              		.loc 2 15 0
 180 0012 0A22     		movs	r2, #10
 181 0014 2449     		ldr	r1, .L21
 182 0016 2AA8     		add	r0, sp, #168
 183 0018 FFF7FEFF 		bl	_ZN14LocalPublisherC2EPKcj
 184              	.LBE17:
 185              	.LBE16:
 186              	.LBE15:
 187              		.loc 1 111 0
 188 001c 2348     		ldr	r0, .L21+4
 189 001e 244A     		ldr	r2, .L21+8
 190 0020 8369     		ldr	r3, [r0, #24]
 191              		.loc 1 113 0
 192 0022 31A9     		add	r1, sp, #196
 193 0024 2046     		mov	r0, r4
 194              		.loc 1 111 0
 195 0026 9A61     		str	r2, [r3, #24]
 196              		.loc 1 113 0
 197 0028 FFF7FEFF 		bl	_ZN10Middleware7newNodeEP4Node
 198              		.loc 1 115 0
 199 002c 31A8     		add	r0, sp, #196
 200 002e 2AA9     		add	r1, sp, #168
 201 0030 FFF7FEFF 		bl	_ZN4Node9advertiseEP14LocalPublisher
 202 0034 20B9     		cbnz	r0, .L16
 203              		.loc 1 116 0
 204 0036 2046     		mov	r0, r4
 205 0038 31A9     		add	r1, sp, #196
 206 003a FFF7FEFF 		bl	_ZN10Middleware7delNodeEP4Node
 207              	.L17:
 208 003e FEE7     		b	.L17
 209              	.L16:
 210              	.LVL7:
 211              	.LBB18:
 212              	.LBB19:
 213              	.LBB20:
 214              		.file 3 "../../Middleware/RemoteSubscriberT.hpp"
 215              		.loc 3 20 0
 216 0040 24AD     		add	r5, sp, #144
 217 0042 0095     		str	r5, [sp, #0]
 218              	.LBE20:
 219              	.LBE19:
 220              	.LBE18:
 221              	.LBB25:
 222              	.LBB26:
 223              		.loc 1 45 0
 224 0044 4FF2F075 		movw	r5, #63472
 225              	.LBE26:
 226              	.LBE25:
ARM GAS  /tmp/ccHx40UG.s 			page 5


 227              	.LBB28:
 228              	.LBB23:
 229              	.LBB21:
 230              		.loc 3 20 0
 231 0048 10AB     		add	r3, sp, #64
 232 004a 0A22     		movs	r2, #10
 233 004c 1649     		ldr	r1, .L21
 234 004e 0524     		movs	r4, #5
 235              	.LVL8:
 236              	.LBE21:
 237              	.LBE23:
 238              	.LBE28:
 239              	.LBB29:
 240              	.LBB27:
 241              		.loc 1 45 0
 242 0050 C1F6FF75 		movt	r5, 8191
 243              	.LBE27:
 244              	.LBE29:
 245              	.LBB30:
 246              	.LBB24:
 247              	.LBB22:
 248              		.loc 3 20 0
 249 0054 02A8     		add	r0, sp, #8
 250 0056 0194     		str	r4, [sp, #4]
 251 0058 FFF7FEFF 		bl	_ZN16RemoteSubscriberC2EPKcjPhPP11BaseMessagem
 252              	.LVL9:
 253              	.LBE22:
 254              	.LBE24:
 255              	.LBE30:
 256              		.loc 1 122 0
 257 005c 2C78     		ldrb	r4, [r5, #0]	@ zero_extendqisi2
 258 005e 02A8     		add	r0, sp, #8
 259 0060 44F4F051 		orr	r1, r4, #7680
 260 0064 FFF7FEFF 		bl	_ZN16RemoteSubscriber2idEt
 261              		.loc 1 123 0
 262 0068 2AA9     		add	r1, sp, #168
 263 006a 02A8     		add	r0, sp, #8
 264 006c FFF7FEFF 		bl	_ZN16RemoteSubscriber9subscribeEP14LocalPublisher
 265              		.loc 1 125 0
 266 0070 6420     		movs	r0, #100
 267 0072 FFF7FEFF 		bl	chThdSleep
 268              		.loc 1 127 0
 269 0076 0F49     		ldr	r1, .L21+12
 270 0078 0F4D     		ldr	r5, .L21+16
 271 007a CC68     		ldr	r4, [r1, #12]
 272              	.LVL10:
 273              	.L20:
 274              	.LBB31:
 275              	.LBB32:
 276              		.loc 2 20 0
 277 007c 2AA8     		add	r0, sp, #168
 278 007e FFF7FEFF 		bl	_ZN13BasePublisher5allocEv
 279              	.LBE32:
 280              	.LBE31:
 281              		.loc 1 139 0
 282 0082 3234     		adds	r4, r4, #50
 283              	.LVL11:
ARM GAS  /tmp/ccHx40UG.s 			page 6


 284              	.LBB34:
 285              	.LBB33:
 286              		.loc 2 20 0
 287 0084 0146     		mov	r1, r0
 288              	.LBE33:
 289              	.LBE34:
 290              		.loc 1 131 0
 291 0086 50B1     		cbz	r0, .L19
 292              		.loc 1 132 0
 293 0088 2A88     		ldrh	r2, [r5, #0]
 294 008a 4280     		strh	r2, [r0, #2]	@ unaligned
 295              		.loc 1 133 0
 296 008c 6888     		ldrh	r0, [r5, #2]
 297 008e 8880     		strh	r0, [r1, #4]	@ unaligned
 298              		.loc 1 134 0
 299 0090 AB88     		ldrh	r3, [r5, #4]
 300              		.loc 1 136 0
 301 0092 2AA8     		add	r0, sp, #168
 302              		.loc 1 134 0
 303 0094 CB80     		strh	r3, [r1, #6]	@ unaligned
 304              		.loc 1 135 0
 305 0096 EA88     		ldrh	r2, [r5, #6]
 306 0098 0A81     		strh	r2, [r1, #8]	@ unaligned
 307              		.loc 1 136 0
 308 009a FFF7FEFF 		bl	_ZN14LocalPublisher9broadcastEP11BaseMessage
 309              	.L19:
 310              	.LVL12:
 311              		.loc 1 140 0
 312 009e 2046     		mov	r0, r4
 313 00a0 FFF7FEFF 		bl	chThdSleepUntil
 314              		.loc 1 129 0
 315 00a4 EAE7     		b	.L20
 316              	.L22:
 317 00a6 00BF     		.align	2
 318              	.L21:
 319 00a8 08000000 		.word	.LC1
 320 00ac 00000000 		.word	rlist
 321 00b0 10000000 		.word	.LC2
 322 00b4 00000000 		.word	vtlist
 323 00b8 00000000 		.word	.LANCHOR0
 324              	.LBE14:
 325              		.cfi_endproc
 326              	.LFE82:
 327              		.size	_ZL16PublisherThread1Pv, .-_ZL16PublisherThread1Pv
 328 00bc AFF30080 		.section	.text.startup.main,"ax",%progbits
 329              		.align	2
 330              		.p2align 4,,15
 331              		.global	main
 332              		.thumb
 333              		.thumb_func
 334              		.type	main, %function
 335              	main:
 336              	.LFB84:
 337              		.loc 1 196 0
 338              		.cfi_startproc
 339              		@ args = 0, pretend = 0, frame = 0
 340              		@ frame_needed = 0, uses_anonymous_args = 0
ARM GAS  /tmp/ccHx40UG.s 			page 7


 341              	.LVL13:
 342 0000 10B5     		push	{r4, lr}
 343              	.LCFI3:
 344              		.cfi_def_cfa_offset 8
 345              		.cfi_offset 14, -4
 346              		.cfi_offset 4, -8
 347 0002 82B0     		sub	sp, sp, #8
 348              	.LCFI4:
 349              		.cfi_def_cfa_offset 16
 350              	.LBB35:
 351              		.loc 1 206 0
 352 0004 FFF7FEFF 		bl	halInit
 353              		.loc 1 207 0
 354 0008 FFF7FEFF 		bl	chSysInit
 355              		.loc 1 212 0
 356 000c 6420     		movs	r0, #100
 357 000e FFF7FEFF 		bl	chThdSleep
 358              		.loc 1 213 0
 359 0012 FFF7FEFF 		bl	rtcanInit
 360              		.loc 1 214 0
 361 0016 1548     		ldr	r0, .L25
 362 0018 1549     		ldr	r1, .L25+4
 363 001a FFF7FEFF 		bl	rtcanStart
 364              		.loc 1 219 0
 365 001e 1548     		ldr	r0, .L25+8
 366 0020 0021     		movs	r1, #0
 367 0022 FFF7FEFF 		bl	adcStart
 368              		.loc 1 220 0
 369 0026 1348     		ldr	r0, .L25+8
 370 0028 1349     		ldr	r1, .L25+12
 371 002a 144A     		ldr	r2, .L25+16
 372 002c 0223     		movs	r3, #2
 373 002e FFF7FEFF 		bl	adcStartConversion
 374              		.loc 1 225 0
 375 0032 0024     		movs	r4, #0
 376 0034 4FF40471 		mov	r1, #528
 377 0038 4022     		movs	r2, #64
 378 003a 114B     		ldr	r3, .L25+20
 379 003c 1148     		ldr	r0, .L25+24
 380 003e 0094     		str	r4, [sp, #0]
 381 0040 FFF7FEFF 		bl	chThdCreateStatic
 382              		.loc 1 231 0
 383 0044 4FF44063 		mov	r3, #3072
 384 0048 C4F20103 		movt	r3, 16385
 385 004c 4FF40062 		mov	r2, #2048
 386 0050 5A61     		str	r2, [r3, #20]
 387              		.loc 1 236 0
 388 0052 2046     		mov	r0, r4
 389 0054 4FF41961 		mov	r1, #2448
 390 0058 4122     		movs	r2, #65
 391 005a 0B4B     		ldr	r3, .L25+28
 392 005c 0094     		str	r4, [sp, #0]
 393 005e FFF7FEFF 		bl	chThdCreateFromHeap
 394              	.L24:
 395              		.loc 1 243 0 discriminator 1
 396 0062 C820     		movs	r0, #200
 397 0064 FFF7FEFF 		bl	chThdSleep
ARM GAS  /tmp/ccHx40UG.s 			page 8


 398 0068 FBE7     		b	.L24
 399              	.L26:
 400 006a 00BF     		.align	2
 401              	.L25:
 402 006c 00000000 		.word	RTCAND1
 403 0070 00000000 		.word	.LANCHOR1
 404 0074 00000000 		.word	ADCD1
 405 0078 00000000 		.word	.LANCHOR2
 406 007c 00000000 		.word	.LANCHOR0
 407 0080 00000000 		.word	_ZL14blinker_threadPv
 408 0084 00000000 		.word	.LANCHOR3
 409 0088 00000000 		.word	_ZL16PublisherThread1Pv
 410              	.LBE35:
 411              		.cfi_endproc
 412              	.LFE84:
 413              		.size	main, .-main
 414              		.global	rtcan_config
 415 008c AFF30080 		.section	.bss._ZL11adc_samples,"aw",%nobits
 416              		.align	2
 417              		.set	.LANCHOR0,. + 0
 418              		.type	_ZL11adc_samples, %object
 419              		.size	_ZL11adc_samples, 16
 420              	_ZL11adc_samples:
 421 0000 00000000 		.space	16
 421      00000000 
 421      00000000 
 421      00000000 
 422              		.section	.bss._ZL17wa_blinker_thread,"aw",%nobits
 423              		.align	3
 424              		.set	.LANCHOR3,. + 0
 425              		.type	_ZL17wa_blinker_thread, %object
 426              		.size	_ZL17wa_blinker_thread, 528
 427              	_ZL17wa_blinker_thread:
 428 0000 00000000 		.space	528
 428      00000000 
 428      00000000 
 428      00000000 
 428      00000000 
 429              		.section	.rodata._ZL10adc_grpcfg,"a",%progbits
 430              		.align	2
 431              		.set	.LANCHOR2,. + 0
 432              		.type	_ZL10adc_grpcfg, %object
 433              		.size	_ZL10adc_grpcfg, 40
 434              	_ZL10adc_grpcfg:
 435 0000 01       		.byte	1
 436 0001 00       		.space	1
 437 0002 0400     		.short	4
 438 0004 00000000 		.word	0
 439 0008 00000000 		.word	0
 440 000c 00000000 		.word	0
 441 0010 00000000 		.word	0
 442 0014 00000000 		.word	0
 443 0018 F801003F 		.word	1056965112
 444 001c 00003000 		.word	3145728
 445 0020 00000000 		.word	0
 446 0024 41240400 		.word	271425
 447              		.section	.rodata.str1.4,"aMS",%progbits,1
ARM GAS  /tmp/ccHx40UG.s 			page 9


 448              		.align	2
 449              	.LC0:
 450 0000 626C696E 		.ascii	"blinker\000"
 450      6B657200 
 451              	.LC1:
 452 0008 49525261 		.ascii	"IRRaw\000"
 452      7700
 453 000e 0000     		.space	2
 454              	.LC2:
 455 0010 50554220 		.ascii	"PUB THD #1\000"
 455      54484420 
 455      233100
 456 001b 00       		.section	.data.rtcan_config,"aw",%progbits
 457              		.align	2
 458              		.set	.LANCHOR1,. + 0
 459              		.type	rtcan_config, %object
 460              		.size	rtcan_config, 12
 461              	rtcan_config:
 462 0000 40420F00 		.word	1000000
 463 0004 64000000 		.word	100
 464 0008 3C000000 		.word	60
 465              		.text
 466              	.Letext0:
 467              		.file 4 "/home/tino/ChibiStudio/tools/GNU Tools ARM Embedded/4.6 2012q2/bin/../lib/gcc/arm-none-ea
 468              		.file 5 "/home/tino/ChibiStudio/tools/GNU Tools ARM Embedded/4.6 2012q2/bin/../lib/gcc/arm-none-ea
 469              		.file 6 "../../ChibiOS/os/ports/GCC/ARMCMx/chtypes.h"
 470              		.file 7 "../../ChibiOS/os/kernel/include/chlists.h"
 471              		.file 8 "../../ChibiOS/os/kernel/include/chthreads.h"
 472              		.file 9 "../../ChibiOS/os/ports/GCC/ARMCMx/chcore_v7m.h"
 473              		.file 10 "../../ChibiOS/os/kernel/include/chvt.h"
 474              		.file 11 "../../ChibiOS/os/kernel/include/chschd.h"
 475              		.file 12 "../../ChibiOS/os/kernel/include/chmtx.h"
 476              		.file 13 "../../ChibiOS/os/kernel/include/chmemcore.h"
 477              		.file 14 "../../ChibiOS/os/kernel/include/chmempools.h"
 478              		.file 15 "../../ChibiOS/os/hal/platforms/STM32F1xx/stm32f10x.h"
 479              		.file 16 "../../ChibiOS/os/hal/platforms/STM32F1xx/stm32_dma.h"
 480              		.file 17 "../../ChibiOS/os/hal/platforms/STM32/GPIOv1/pal_lld.h"
 481              		.file 18 "../../ChibiOS/os/hal/include/adc.h"
 482              		.file 19 "../../ChibiOS/os/hal/platforms/STM32F1xx/adc_lld.h"
 483              		.file 20 "../../RTCAN/include/rtcan.h"
 484              		.file 21 "../../RTCAN/include/msgqueue.h"
 485              		.file 22 "../../RTCAN/include/hrt.h"
 486              		.file 23 "../../Middleware/BaseMessage.hpp"
 487              		.file 24 "../../Middleware/MessageQueue.hpp"
 488              		.file 25 "../../Middleware/BasePublisher.hpp"
 489              		.file 26 "../../Middleware/LocalSubscriber.hpp"
 490              		.file 27 "../../Middleware/RemoteSubscriber.hpp"
 491              		.file 28 "../../Middleware/LocalPublisher.hpp"
 492              		.file 29 "../../Middleware/BaseSubscriber.hpp"
 493              		.file 30 "../../Middleware/RemotePublisher.hpp"
 494              		.file 31 "../../Middleware/Node.hpp"
 495              		.file 32 "../../Middleware/transport/RTcan.hpp"
 496              		.file 33 "./r2config.h"
 497              		.file 34 "../../Middleware/Middleware.hpp"
 498              		.file 35 "../../Middleware/msg/r2p_ir.h"
 499              		.file 36 "../../ChibiOS/os/ports/common/ARMCMx/CMSIS/include/core_cm3.h"
 500              		.file 37 "../../RTCAN/platforms/STM32/rtcan_lld_can.h"
ARM GAS  /tmp/ccHx40UG.s 			page 10


 501              		.file 38 "../../ChibiOS/os/various/cpp_wrappers/ch.hpp"