ARM GAS  /tmp/cciDLP0W.s 			page 1


   1              		.syntax unified
   2              		.cpu cortex-m3
   3              		.fpu softvfp
   4              		.eabi_attribute 20, 1
   5              		.eabi_attribute 21, 1
   6              		.eabi_attribute 23, 3
   7              		.eabi_attribute 24, 1
   8              		.eabi_attribute 25, 1
   9              		.eabi_attribute 26, 1
  10              		.eabi_attribute 30, 2
  11              		.eabi_attribute 34, 1
  12              		.eabi_attribute 18, 4
  13              		.thumb
  14              		.file	"MessageQueue.cpp"
  15              		.text
  16              	.Ltext0:
  17              		.cfi_sections	.debug_frame
  18              		.section	.text._ZN12MessageQueueC2EPP11BaseMessagem,"ax",%progbits
  19              		.align	2
  20              		.p2align 4,,15
  21              		.global	_ZN12MessageQueueC2EPP11BaseMessagem
  22              		.thumb
  23              		.thumb_func
  24              		.type	_ZN12MessageQueueC2EPP11BaseMessagem, %function
  25              	_ZN12MessageQueueC2EPP11BaseMessagem:
  26              	.LFB17:
  27              		.file 1 "../../Middleware/MessageQueue.cpp"
  28              		.loc 1 4 0
  29              		.cfi_startproc
  30              		@ args = 0, pretend = 0, frame = 0
  31              		@ frame_needed = 0, uses_anonymous_args = 0
  32              		@ link register save eliminated.
  33              	.LVL0:
  34              	.LBB28:
  35              		.loc 1 6 0
  36 0000 01EB8202 		add	r2, r1, r2, lsl #2
  37              	.LVL1:
  38              		.loc 1 7 0
  39 0004 0023     		movs	r3, #0
  40              		.loc 1 5 0
  41 0006 C160     		str	r1, [r0, #12]
  42 0008 8160     		str	r1, [r0, #8]
  43              		.loc 1 6 0
  44 000a 80E80600 		stmia	r0, {r1, r2}
  45              		.loc 1 7 0
  46 000e 0361     		str	r3, [r0, #16]
  47              	.LBE28:
  48              		.loc 1 8 0
  49 0010 7047     		bx	lr
  50              		.cfi_endproc
  51              	.LFE17:
  52              		.size	_ZN12MessageQueueC2EPP11BaseMessagem, .-_ZN12MessageQueueC2EPP11BaseMessagem
  53 0012 00BFAFF3 		.section	.text._ZN12MessageQueue4sizeEv,"ax",%progbits
  53      0080AFF3 
  53      0080AFF3 
  53      0080
  54              		.align	2
ARM GAS  /tmp/cciDLP0W.s 			page 2


  55              		.p2align 4,,15
  56              		.global	_ZN12MessageQueue4sizeEv
  57              		.thumb
  58              		.thumb_func
  59              		.type	_ZN12MessageQueue4sizeEv, %function
  60              	_ZN12MessageQueue4sizeEv:
  61              	.LFB19:
  62              		.loc 1 10 0
  63              		.cfi_startproc
  64              		@ args = 0, pretend = 0, frame = 0
  65              		@ frame_needed = 0, uses_anonymous_args = 0
  66              	.LVL2:
  67 0000 10B5     		push	{r4, lr}
  68              	.LCFI0:
  69              		.cfi_def_cfa_offset 8
  70              		.cfi_offset 14, -4
  71              		.cfi_offset 4, -8
  72              	.LBB29:
  73              	.LBB30:
  74              	.LBB31:
  75              		.loc 1 13 0
  76 0002 2023     		movs	r3, #32
  77              	.LVL3:
  78              	.LBE31:
  79              	.LBE30:
  80              	.LBE29:
  81              		.loc 1 10 0
  82 0004 0446     		mov	r4, r0
  83              	.LBB38:
  84              	.LBB33:
  85              	.LBB32:
  86              		.loc 1 13 0
  87              	@ 13 "../../Middleware/MessageQueue.cpp" 1
  88 0006 83F31188 		msr     BASEPRI, r3
  89              	@ 0 "" 2
  90              	.LVL4:
  91              		.thumb
  92              	.LBE32:
  93 000a FFF7FEFF 		bl	dbg_check_lock
  94              	.LVL5:
  95              	.LBE33:
  96              	.LBB34:
  97              	.LBB35:
  98              		.loc 1 21 0
  99 000e 6268     		ldr	r2, [r4, #4]
 100 0010 2368     		ldr	r3, [r4, #0]
 101 0012 D41A     		subs	r4, r2, r3
 102              	.LVL6:
 103 0014 A410     		asrs	r4, r4, #2
 104              	.LBE35:
 105              	.LBE34:
 106              	.LBB36:
 107              		.loc 1 15 0
 108 0016 FFF7FEFF 		bl	dbg_check_unlock
 109              	.LBB37:
 110 001a 0023     		movs	r3, #0
 111              	.LVL7:
ARM GAS  /tmp/cciDLP0W.s 			page 3


 112              	@ 15 "../../Middleware/MessageQueue.cpp" 1
 113 001c 83F31188 		msr     BASEPRI, r3
 114              	@ 0 "" 2
 115              	.LVL8:
 116              		.thumb
 117              	.LBE37:
 118              	.LBE36:
 119              	.LBE38:
 120              		.loc 1 18 0
 121 0020 2046     		mov	r0, r4
 122 0022 10BD     		pop	{r4, pc}
 123              		.cfi_endproc
 124              	.LFE19:
 125              		.size	_ZN12MessageQueue4sizeEv, .-_ZN12MessageQueue4sizeEv
 126 0024 AFF30080 		.section	.text._ZN12MessageQueue5sizeIEv,"ax",%progbits
 126      AFF30080 
 126      AFF30080 
 127              		.align	2
 128              		.p2align 4,,15
 129              		.global	_ZN12MessageQueue5sizeIEv
 130              		.thumb
 131              		.thumb_func
 132              		.type	_ZN12MessageQueue5sizeIEv, %function
 133              	_ZN12MessageQueue5sizeIEv:
 134              	.LFB20:
 135              		.loc 1 20 0
 136              		.cfi_startproc
 137              		@ args = 0, pretend = 0, frame = 0
 138              		@ frame_needed = 0, uses_anonymous_args = 0
 139              		@ link register save eliminated.
 140              	.LVL9:
 141              		.loc 1 21 0
 142 0000 4268     		ldr	r2, [r0, #4]
 143 0002 0368     		ldr	r3, [r0, #0]
 144 0004 D01A     		subs	r0, r2, r3
 145              	.LVL10:
 146 0006 8010     		asrs	r0, r0, #2
 147              		.loc 1 22 0
 148 0008 7047     		bx	lr
 149              		.cfi_endproc
 150              	.LFE20:
 151              		.size	_ZN12MessageQueue5sizeIEv, .-_ZN12MessageQueue5sizeIEv
 152 000a 00BFAFF3 		.section	.text._ZN12MessageQueue3putEP11BaseMessage,"ax",%progbits
 152      0080
 153              		.align	2
 154              		.p2align 4,,15
 155              		.global	_ZN12MessageQueue3putEP11BaseMessage
 156              		.thumb
 157              		.thumb_func
 158              		.type	_ZN12MessageQueue3putEP11BaseMessage, %function
 159              	_ZN12MessageQueue3putEP11BaseMessage:
 160              	.LFB21:
 161              		.loc 1 24 0
 162              		.cfi_startproc
 163              		@ args = 0, pretend = 0, frame = 0
 164              		@ frame_needed = 0, uses_anonymous_args = 0
 165              	.LVL11:
ARM GAS  /tmp/cciDLP0W.s 			page 4


 166 0000 38B5     		push	{r3, r4, r5, lr}
 167              	.LCFI1:
 168              		.cfi_def_cfa_offset 16
 169              		.cfi_offset 14, -4
 170              		.cfi_offset 5, -8
 171              		.cfi_offset 4, -12
 172              		.cfi_offset 3, -16
 173              		.loc 1 24 0
 174 0002 0446     		mov	r4, r0
 175 0004 0D46     		mov	r5, r1
 176              	.LBB39:
 177              	.LBB40:
 178              	.LBB41:
 179              		.loc 1 27 0
 180 0006 2023     		movs	r3, #32
 181              	.LVL12:
 182              	@ 27 "../../Middleware/MessageQueue.cpp" 1
 183 0008 83F31188 		msr     BASEPRI, r3
 184              	@ 0 "" 2
 185              	.LVL13:
 186              		.thumb
 187              	.LBE41:
 188 000c FFF7FEFF 		bl	dbg_check_lock
 189              	.LVL14:
 190              	.LBE40:
 191              	.LBB42:
 192              	.LBB43:
 193              	.LBB44:
 194              	.LBB45:
 195              		.loc 1 21 0
 196 0010 6168     		ldr	r1, [r4, #4]
 197 0012 2068     		ldr	r0, [r4, #0]
 198              	.LBE45:
 199              	.LBE44:
 200              		.loc 1 36 0
 201 0014 2269     		ldr	r2, [r4, #16]
 202              	.LVL15:
 203              	.LBB47:
 204              	.LBB46:
 205              		.loc 1 21 0
 206 0016 0B1A     		subs	r3, r1, r0
 207              	.LBE46:
 208              	.LBE47:
 209              		.loc 1 36 0
 210 0018 B2EBA30F 		cmp	r2, r3, asr #2
 211 001c 1AD8     		bhi	.L7
 212              		.loc 1 40 0
 213 001e A368     		ldr	r3, [r4, #8]
 214              		.loc 1 41 0
 215 0020 0132     		adds	r2, r2, #1
 216              		.loc 1 40 0
 217 0022 43F8045B 		str	r5, [r3], #4
 218              		.loc 1 43 0
 219 0026 6568     		ldr	r5, [r4, #4]
 220              	.LVL16:
 221              		.loc 1 40 0
 222 0028 A360     		str	r3, [r4, #8]
ARM GAS  /tmp/cciDLP0W.s 			page 5


 223              		.loc 1 43 0
 224 002a AB42     		cmp	r3, r5
 225              		.loc 1 41 0
 226 002c 2261     		str	r2, [r4, #16]
 227              		.loc 1 43 0
 228 002e 09D3     		bcc	.L8
 229              		.loc 1 44 0
 230 0030 2068     		ldr	r0, [r4, #0]
 231              		.loc 1 47 0
 232 0032 0125     		movs	r5, #1
 233              		.loc 1 44 0
 234 0034 A060     		str	r0, [r4, #8]
 235              	.LBE43:
 236              	.LBE42:
 237              	.LBB50:
 238              		.loc 1 29 0
 239 0036 FFF7FEFF 		bl	dbg_check_unlock
 240              	.LVL17:
 241              	.LBB51:
 242 003a 0023     		movs	r3, #0
 243              	.LVL18:
 244              	@ 29 "../../Middleware/MessageQueue.cpp" 1
 245 003c 83F31188 		msr     BASEPRI, r3
 246              	@ 0 "" 2
 247              	.LVL19:
 248              		.thumb
 249              	.LBE51:
 250              	.LBE50:
 251              	.LBE39:
 252              		.loc 1 32 0
 253 0040 2846     		mov	r0, r5
 254 0042 38BD     		pop	{r3, r4, r5, pc}
 255              	.LVL20:
 256              	.L8:
 257              	.LBB60:
 258              	.LBB54:
 259              		.loc 1 29 0
 260 0044 FFF7FEFF 		bl	dbg_check_unlock
 261              	.LVL21:
 262              	.LBE54:
 263              	.LBB55:
 264              	.LBB48:
 265              		.loc 1 47 0
 266 0048 0125     		movs	r5, #1
 267              	.LBE48:
 268              	.LBE55:
 269              	.LBB56:
 270              	.LBB52:
 271              		.loc 1 29 0
 272 004a 0023     		movs	r3, #0
 273              	@ 29 "../../Middleware/MessageQueue.cpp" 1
 274 004c 83F31188 		msr     BASEPRI, r3
 275              	@ 0 "" 2
 276              	.LVL22:
 277              		.thumb
 278              	.LBE52:
 279              	.LBE56:
ARM GAS  /tmp/cciDLP0W.s 			page 6


 280              	.LBE60:
 281              		.loc 1 32 0
 282 0050 2846     		mov	r0, r5
 283 0052 38BD     		pop	{r3, r4, r5, pc}
 284              	.LVL23:
 285              	.L7:
 286              	.LBB61:
 287              	.LBB57:
 288              		.loc 1 29 0
 289 0054 FFF7FEFF 		bl	dbg_check_unlock
 290              	.LBE57:
 291              	.LBB58:
 292              	.LBB49:
 293              		.loc 1 37 0
 294 0058 0025     		movs	r5, #0
 295              	.LVL24:
 296              	.LBE49:
 297              	.LBE58:
 298              	.LBB59:
 299              	.LBB53:
 300              		.loc 1 29 0
 301 005a 0023     		movs	r3, #0
 302              	@ 29 "../../Middleware/MessageQueue.cpp" 1
 303 005c 83F31188 		msr     BASEPRI, r3
 304              	@ 0 "" 2
 305              	.LVL25:
 306              		.thumb
 307              	.LBE53:
 308              	.LBE59:
 309              	.LBE61:
 310              		.loc 1 32 0
 311 0060 2846     		mov	r0, r5
 312 0062 38BD     		pop	{r3, r4, r5, pc}
 313              		.cfi_endproc
 314              	.LFE21:
 315              		.size	_ZN12MessageQueue3putEP11BaseMessage, .-_ZN12MessageQueue3putEP11BaseMessage
 316 0064 AFF30080 		.section	.text._ZN12MessageQueue4putIEP11BaseMessage,"ax",%progbits
 316      AFF30080 
 316      AFF30080 
 317              		.align	2
 318              		.p2align 4,,15
 319              		.global	_ZN12MessageQueue4putIEP11BaseMessage
 320              		.thumb
 321              		.thumb_func
 322              		.type	_ZN12MessageQueue4putIEP11BaseMessage, %function
 323              	_ZN12MessageQueue4putIEP11BaseMessage:
 324              	.LFB22:
 325              		.loc 1 34 0
 326              		.cfi_startproc
 327              		@ args = 0, pretend = 0, frame = 0
 328              		@ frame_needed = 0, uses_anonymous_args = 0
 329              		@ link register save eliminated.
 330              	.LVL26:
 331 0000 0346     		mov	r3, r0
 332              		.loc 1 36 0
 333 0002 1A69     		ldr	r2, [r3, #16]
 334              	.LVL27:
ARM GAS  /tmp/cciDLP0W.s 			page 7


 335              		.loc 1 34 0
 336 0004 10B4     		push	{r4}
 337              	.LCFI2:
 338              		.cfi_def_cfa_offset 4
 339              		.cfi_offset 4, -4
 340              	.LBB62:
 341              	.LBB63:
 342              		.loc 1 21 0
 343 0006 11C8     		ldmia	r0, {r0, r4}
 344              	.LVL28:
 345 0008 201A     		subs	r0, r4, r0
 346              	.LBE63:
 347              	.LBE62:
 348              		.loc 1 36 0
 349 000a B2EBA00F 		cmp	r2, r0, asr #2
 350 000e 0FD8     		bhi	.L12
 351              		.loc 1 40 0
 352 0010 9868     		ldr	r0, [r3, #8]
 353              		.loc 1 41 0
 354 0012 0132     		adds	r2, r2, #1
 355              		.loc 1 40 0
 356 0014 40F8041B 		str	r1, [r0], #4
 357              		.loc 1 43 0
 358 0018 5968     		ldr	r1, [r3, #4]
 359              	.LVL29:
 360              		.loc 1 40 0
 361 001a 9860     		str	r0, [r3, #8]
 362              		.loc 1 43 0
 363 001c 8842     		cmp	r0, r1
 364              		.loc 1 41 0
 365 001e 1A61     		str	r2, [r3, #16]
 366              		.loc 1 43 0
 367 0020 04D3     		bcc	.L13
 368              		.loc 1 44 0
 369 0022 1968     		ldr	r1, [r3, #0]
 370              		.loc 1 47 0
 371 0024 0120     		movs	r0, #1
 372              		.loc 1 44 0
 373 0026 9960     		str	r1, [r3, #8]
 374              	.LVL30:
 375              	.L11:
 376              		.loc 1 48 0
 377 0028 10BC     		pop	{r4}
 378 002a 7047     		bx	lr
 379              	.LVL31:
 380              	.L13:
 381              		.loc 1 47 0
 382 002c 0120     		movs	r0, #1
 383 002e FBE7     		b	.L11
 384              	.LVL32:
 385              	.L12:
 386              		.loc 1 37 0
 387 0030 0020     		movs	r0, #0
 388 0032 F9E7     		b	.L11
 389              		.cfi_endproc
 390              	.LFE22:
 391              		.size	_ZN12MessageQueue4putIEP11BaseMessage, .-_ZN12MessageQueue4putIEP11BaseMessage
ARM GAS  /tmp/cciDLP0W.s 			page 8


 392 0034 AFF30080 		.section	.text._ZN12MessageQueue3getEv,"ax",%progbits
 392      AFF30080 
 392      AFF30080 
 393              		.align	2
 394              		.p2align 4,,15
 395              		.global	_ZN12MessageQueue3getEv
 396              		.thumb
 397              		.thumb_func
 398              		.type	_ZN12MessageQueue3getEv, %function
 399              	_ZN12MessageQueue3getEv:
 400              	.LFB23:
 401              		.loc 1 50 0
 402              		.cfi_startproc
 403              		@ args = 0, pretend = 0, frame = 0
 404              		@ frame_needed = 0, uses_anonymous_args = 0
 405              	.LVL33:
 406 0000 38B5     		push	{r3, r4, r5, lr}
 407              	.LCFI3:
 408              		.cfi_def_cfa_offset 16
 409              		.cfi_offset 14, -4
 410              		.cfi_offset 5, -8
 411              		.cfi_offset 4, -12
 412              		.cfi_offset 3, -16
 413              		.loc 1 50 0
 414 0002 0446     		mov	r4, r0
 415              	.LBB64:
 416              	.LBB65:
 417              	.LBB66:
 418              		.loc 1 53 0
 419 0004 2023     		movs	r3, #32
 420              	.LVL34:
 421              	@ 53 "../../Middleware/MessageQueue.cpp" 1
 422 0006 83F31188 		msr     BASEPRI, r3
 423              	@ 0 "" 2
 424              	.LVL35:
 425              		.thumb
 426              	.LBE66:
 427 000a FFF7FEFF 		bl	dbg_check_lock
 428              	.LVL36:
 429              	.LBE65:
 430              	.LBB67:
 431              	.LBB68:
 432              		.loc 1 63 0
 433 000e 2269     		ldr	r2, [r4, #16]
 434 0010 8AB1     		cbz	r2, .L16
 435              		.loc 1 67 0
 436 0012 E368     		ldr	r3, [r4, #12]
 437              		.loc 1 70 0
 438 0014 6168     		ldr	r1, [r4, #4]
 439              		.loc 1 67 0
 440 0016 53F8045B 		ldr	r5, [r3], #4
 441              	.LVL37:
 442              		.loc 1 68 0
 443 001a 013A     		subs	r2, r2, #1
 444              		.loc 1 70 0
 445 001c 8B42     		cmp	r3, r1
 446              		.loc 1 67 0
ARM GAS  /tmp/cciDLP0W.s 			page 9


 447 001e E360     		str	r3, [r4, #12]
 448              		.loc 1 68 0
 449 0020 2261     		str	r2, [r4, #16]
 450              		.loc 1 70 0
 451 0022 01D3     		bcc	.L15
 452              		.loc 1 71 0
 453 0024 2068     		ldr	r0, [r4, #0]
 454 0026 E060     		str	r0, [r4, #12]
 455              	.L15:
 456              	.LBE68:
 457              	.LBE67:
 458              	.LBB70:
 459              		.loc 1 55 0
 460 0028 FFF7FEFF 		bl	dbg_check_unlock
 461              	.LVL38:
 462              	.LBB71:
 463 002c 0023     		movs	r3, #0
 464              	.LVL39:
 465              	@ 55 "../../Middleware/MessageQueue.cpp" 1
 466 002e 83F31188 		msr     BASEPRI, r3
 467              	@ 0 "" 2
 468              	.LVL40:
 469              		.thumb
 470              	.LBE71:
 471              	.LBE70:
 472              	.LBE64:
 473              		.loc 1 58 0
 474 0032 2846     		mov	r0, r5
 475 0034 38BD     		pop	{r3, r4, r5, pc}
 476              	.LVL41:
 477              	.L16:
 478              	.LBB75:
 479              	.LBB73:
 480              	.LBB69:
 481              		.loc 1 64 0
 482 0036 1546     		mov	r5, r2
 483              	.LBE69:
 484              	.LBE73:
 485              	.LBB74:
 486              		.loc 1 55 0
 487 0038 FFF7FEFF 		bl	dbg_check_unlock
 488              	.LBB72:
 489 003c 0023     		movs	r3, #0
 490              	@ 55 "../../Middleware/MessageQueue.cpp" 1
 491 003e 83F31188 		msr     BASEPRI, r3
 492              	@ 0 "" 2
 493              	.LVL42:
 494              		.thumb
 495              	.LBE72:
 496              	.LBE74:
 497              	.LBE75:
 498              		.loc 1 58 0
 499 0042 2846     		mov	r0, r5
 500 0044 38BD     		pop	{r3, r4, r5, pc}
 501              		.cfi_endproc
 502              	.LFE23:
 503              		.size	_ZN12MessageQueue3getEv, .-_ZN12MessageQueue3getEv
ARM GAS  /tmp/cciDLP0W.s 			page 10


 504 0046 00BFAFF3 		.section	.text._ZN12MessageQueue4getIEv,"ax",%progbits
 504      0080AFF3 
 504      0080
 505              		.align	2
 506              		.p2align 4,,15
 507              		.global	_ZN12MessageQueue4getIEv
 508              		.thumb
 509              		.thumb_func
 510              		.type	_ZN12MessageQueue4getIEv, %function
 511              	_ZN12MessageQueue4getIEv:
 512              	.LFB24:
 513              		.loc 1 60 0
 514              		.cfi_startproc
 515              		@ args = 0, pretend = 0, frame = 0
 516              		@ frame_needed = 0, uses_anonymous_args = 0
 517              		@ link register save eliminated.
 518              	.LVL43:
 519              	.LBB76:
 520              		.loc 1 63 0
 521 0000 0169     		ldr	r1, [r0, #16]
 522              	.LBE76:
 523              		.loc 1 60 0
 524 0002 10B4     		push	{r4}
 525              	.LCFI4:
 526              		.cfi_def_cfa_offset 4
 527              		.cfi_offset 4, -4
 528              		.loc 1 60 0
 529 0004 0346     		mov	r3, r0
 530              	.LBB77:
 531              		.loc 1 63 0
 532 0006 61B1     		cbz	r1, .L19
 533              		.loc 1 67 0
 534 0008 C268     		ldr	r2, [r0, #12]
 535              		.loc 1 70 0
 536 000a 4468     		ldr	r4, [r0, #4]
 537              		.loc 1 67 0
 538 000c 52F8040B 		ldr	r0, [r2], #4
 539              	.LVL44:
 540              		.loc 1 68 0
 541 0010 0139     		subs	r1, r1, #1
 542              		.loc 1 70 0
 543 0012 A242     		cmp	r2, r4
 544              		.loc 1 67 0
 545 0014 DA60     		str	r2, [r3, #12]
 546              		.loc 1 68 0
 547 0016 1961     		str	r1, [r3, #16]
 548              		.loc 1 70 0
 549 0018 01D3     		bcc	.L18
 550              		.loc 1 71 0
 551 001a 1A68     		ldr	r2, [r3, #0]
 552 001c DA60     		str	r2, [r3, #12]
 553              	.LVL45:
 554              	.L18:
 555              	.LBE77:
 556              		.loc 1 75 0
 557 001e 10BC     		pop	{r4}
 558 0020 7047     		bx	lr
ARM GAS  /tmp/cciDLP0W.s 			page 11


 559              	.L19:
 560              	.LBB78:
 561              		.loc 1 64 0
 562 0022 0846     		mov	r0, r1
 563 0024 FBE7     		b	.L18
 564              	.LBE78:
 565              		.cfi_endproc
 566              	.LFE24:
 567              		.size	_ZN12MessageQueue4getIEv, .-_ZN12MessageQueue4getIEv
 568              		.global	_ZN12MessageQueueC1EPP11BaseMessagem
 569              		.thumb_set _ZN12MessageQueueC1EPP11BaseMessagem,_ZN12MessageQueueC2EPP11BaseMessagem
 570 0026 00BFAFF3 		.text
 570      0080AFF3 
 570      0080
 571              	.Letext0:
 572              		.file 2 "/home/tino/ChibiStudio/tools/GNU Tools ARM Embedded/4.6 2012q2/bin/../lib/gcc/arm-none-ea
 573              		.file 3 "../../ChibiOS/os/ports/GCC/ARMCMx/chtypes.h"
 574              		.file 4 "../../Middleware/BaseMessage.hpp"
 575              		.file 5 "../../Middleware/MessageQueue.hpp"
 576              		.file 6 "../../ChibiOS/os/various/cpp_wrappers/ch.hpp"