ARM GAS  /tmp/cc04izfv.s 			page 1


   1              		.syntax unified
   2              		.cpu cortex-m3
   3              		.fpu softvfp
   4              		.eabi_attribute 20, 1
   5              		.eabi_attribute 21, 1
   6              		.eabi_attribute 23, 3
   7              		.eabi_attribute 24, 1
   8              		.eabi_attribute 25, 1
   9              		.eabi_attribute 26, 1
  10              		.eabi_attribute 30, 2
  11              		.eabi_attribute 34, 1
  12              		.eabi_attribute 18, 4
  13              		.thumb
  14              		.file	"Middleware.cpp"
  15              		.text
  16              	.Ltext0:
  17              		.cfi_sections	.debug_frame
  18              		.section	.text._ZN10MiddlewareC2Ev,"ax",%progbits
  19              		.align	2
  20              		.p2align 4,,15
  21              		.global	_ZN10MiddlewareC2Ev
  22              		.thumb
  23              		.thumb_func
  24              		.type	_ZN10MiddlewareC2Ev, %function
  25              	_ZN10MiddlewareC2Ev:
  26              	.LFB81:
  27              		.file 1 "../../Middleware/Middleware.cpp"
  28              		.loc 1 6 0
  29              		.cfi_startproc
  30              		@ args = 0, pretend = 0, frame = 0
  31              		@ frame_needed = 0, uses_anonymous_args = 0
  32              		@ link register save eliminated.
  33              	.LVL0:
  34              	.LBB10:
  35              		.loc 1 7 0
  36 0000 0023     		movs	r3, #0
  37 0002 0360     		str	r3, [r0, #0]
  38              	.LBE10:
  39              		.loc 1 8 0
  40 0004 7047     		bx	lr
  41              		.cfi_endproc
  42              	.LFE81:
  43              		.size	_ZN10MiddlewareC2Ev, .-_ZN10MiddlewareC2Ev
  44 0006 00BFAFF3 		.section	.text._ZN10Middleware8instanceEv,"ax",%progbits
  44      0080AFF3 
  44      0080
  45              		.align	2
  46              		.p2align 4,,15
  47              		.global	_ZN10Middleware8instanceEv
  48              		.thumb
  49              		.thumb_func
  50              		.type	_ZN10Middleware8instanceEv, %function
  51              	_ZN10Middleware8instanceEv:
  52              	.LFB83:
  53              		.loc 1 10 0
  54              		.cfi_startproc
  55              		@ args = 0, pretend = 0, frame = 0
ARM GAS  /tmp/cc04izfv.s 			page 2


  56              		@ frame_needed = 0, uses_anonymous_args = 0
  57              		@ link register save eliminated.
  58              		.loc 1 11 0
  59 0000 40F20000 		movw	r0, #:lower16:.LANCHOR0
  60 0004 C0F20000 		movt	r0, #:upper16:.LANCHOR0
  61              		.loc 1 12 0
  62 0008 7047     		bx	lr
  63              		.cfi_endproc
  64              	.LFE83:
  65              		.size	_ZN10Middleware8instanceEv, .-_ZN10Middleware8instanceEv
  66 000a 00BFAFF3 		.section	.text._ZN10Middleware9transportEv,"ax",%progbits
  66      0080
  67              		.align	2
  68              		.p2align 4,,15
  69              		.global	_ZN10Middleware9transportEv
  70              		.thumb
  71              		.thumb_func
  72              		.type	_ZN10Middleware9transportEv, %function
  73              	_ZN10Middleware9transportEv:
  74              	.LFB84:
  75              		.loc 1 14 0
  76              		.cfi_startproc
  77              		@ args = 0, pretend = 0, frame = 0
  78              		@ frame_needed = 0, uses_anonymous_args = 0
  79              		@ link register save eliminated.
  80              		.loc 1 15 0
  81 0000 40F20003 		movw	r3, #:lower16:.LANCHOR1
  82 0004 C0F20003 		movt	r3, #:upper16:.LANCHOR1
  83 0008 1868     		ldr	r0, [r3, #0]
  84              		.loc 1 16 0
  85 000a 7047     		bx	lr
  86              		.cfi_endproc
  87              	.LFE84:
  88              		.size	_ZN10Middleware9transportEv, .-_ZN10Middleware9transportEv
  89 000c AFF30080 		.section	.text._ZN10Middleware7newNodeEP4Node,"ax",%progbits
  90              		.align	2
  91              		.p2align 4,,15
  92              		.global	_ZN10Middleware7newNodeEP4Node
  93              		.thumb
  94              		.thumb_func
  95              		.type	_ZN10Middleware7newNodeEP4Node, %function
  96              	_ZN10Middleware7newNodeEP4Node:
  97              	.LFB85:
  98              		.loc 1 18 0
  99              		.cfi_startproc
 100              		@ args = 0, pretend = 0, frame = 0
 101              		@ frame_needed = 0, uses_anonymous_args = 0
 102              	.LVL1:
 103 0000 38B5     		push	{r3, r4, r5, lr}
 104              	.LCFI0:
 105              		.cfi_def_cfa_offset 16
 106              		.cfi_offset 14, -4
 107              		.cfi_offset 5, -8
 108              		.cfi_offset 4, -12
 109              		.cfi_offset 3, -16
 110              	.LBB11:
 111              		.loc 1 21 0
ARM GAS  /tmp/cc04izfv.s 			page 3


 112 0002 0468     		ldr	r4, [r0, #0]
 113              	.LBE11:
 114              		.loc 1 18 0
 115 0004 0D46     		mov	r5, r1
 116              	.LBB12:
 117              		.loc 1 21 0
 118 0006 1CB9     		cbnz	r4, .L10
 119 0008 0EE0     		b	.L13
 120              	.LVL2:
 121              	.L9:
 122              		.loc 1 29 0
 123 000a FFF7FEFF 		bl	_ZN4Node4nextEv
 124              	.LVL3:
 125 000e 0446     		mov	r4, r0
 126              	.LVL4:
 127              	.L10:
 128              		.loc 1 28 0 discriminator 1
 129 0010 2046     		mov	r0, r4
 130 0012 FFF7FEFF 		bl	_ZN4Node4nextEv
 131 0016 0346     		mov	r3, r0
 132              		.loc 1 29 0 discriminator 1
 133 0018 2046     		mov	r0, r4
 134              		.loc 1 28 0 discriminator 1
 135 001a 002B     		cmp	r3, #0
 136 001c F5D1     		bne	.L9
 137              		.loc 1 32 0
 138 001e 2946     		mov	r1, r5
 139              	.LBE12:
 140              		.loc 1 33 0
 141 0020 BDE83840 		pop	{r3, r4, r5, lr}
 142              	.LBB13:
 143              		.loc 1 32 0
 144 0024 FFF7FEBF 		b	_ZN4Node4nextEPS_
 145              	.LVL5:
 146              	.L13:
 147              		.loc 1 22 0
 148 0028 0160     		str	r1, [r0, #0]
 149              	.LBE13:
 150              		.loc 1 33 0
 151 002a 38BD     		pop	{r3, r4, r5, pc}
 152              		.cfi_endproc
 153              	.LFE85:
 154              		.size	_ZN10Middleware7newNodeEP4Node, .-_ZN10Middleware7newNodeEP4Node
 155 002c AFF30080 		.section	.text._ZN10Middleware7delNodeEP4Node,"ax",%progbits
 156              		.align	2
 157              		.p2align 4,,15
 158              		.global	_ZN10Middleware7delNodeEP4Node
 159              		.thumb
 160              		.thumb_func
 161              		.type	_ZN10Middleware7delNodeEP4Node, %function
 162              	_ZN10Middleware7delNodeEP4Node:
 163              	.LFB86:
 164              		.loc 1 35 0
 165              		.cfi_startproc
 166              		@ args = 0, pretend = 0, frame = 0
 167              		@ frame_needed = 0, uses_anonymous_args = 0
 168              	.LVL6:
ARM GAS  /tmp/cc04izfv.s 			page 4


 169 0000 F8B5     		push	{r3, r4, r5, r6, r7, lr}
 170              	.LCFI1:
 171              		.cfi_def_cfa_offset 24
 172              		.cfi_offset 14, -4
 173              		.cfi_offset 7, -8
 174              		.cfi_offset 6, -12
 175              		.cfi_offset 5, -16
 176              		.cfi_offset 4, -20
 177              		.cfi_offset 3, -24
 178              	.LBB14:
 179              		.loc 1 40 0
 180 0002 0468     		ldr	r4, [r0, #0]
 181              	.LVL7:
 182              	.LBE14:
 183              		.loc 1 35 0
 184 0004 0646     		mov	r6, r0
 185 0006 0D46     		mov	r5, r1
 186              	.LBB15:
 187              		.loc 1 40 0
 188 0008 B4B1     		cbz	r4, .L15
 189 000a 0027     		movs	r7, #0
 190 000c 05E0     		b	.L18
 191              	.LVL8:
 192              	.L16:
 193 000e 2046     		mov	r0, r4
 194 0010 FFF7FEFF 		bl	_ZN4Node4nextEv
 195              	.LVL9:
 196 0014 80B1     		cbz	r0, .L15
 197              	.L19:
 198 0016 2746     		mov	r7, r4
 199 0018 0446     		mov	r4, r0
 200              	.LVL10:
 201              	.L18:
 202              		.loc 1 43 0
 203 001a AC42     		cmp	r4, r5
 204 001c F7D1     		bne	.L16
 205              		.loc 1 47 0
 206 001e 2046     		mov	r0, r4
 207              		.loc 1 44 0
 208 0020 87B1     		cbz	r7, .L20
 209              		.loc 1 47 0
 210 0022 FFF7FEFF 		bl	_ZN4Node4nextEv
 211 0026 0146     		mov	r1, r0
 212 0028 3846     		mov	r0, r7
 213 002a FFF7FEFF 		bl	_ZN4Node4nextEPS_
 214              	.LVL11:
 215              		.loc 1 40 0
 216 002e 2046     		mov	r0, r4
 217 0030 FFF7FEFF 		bl	_ZN4Node4nextEv
 218              	.LVL12:
 219 0034 0028     		cmp	r0, #0
 220 0036 EED1     		bne	.L19
 221              	.LVL13:
 222              	.L15:
 223              		.loc 1 52 0
 224 0038 2846     		mov	r0, r5
 225 003a 0021     		movs	r1, #0
ARM GAS  /tmp/cc04izfv.s 			page 5


 226              	.LBE15:
 227              		.loc 1 53 0
 228 003c BDE8F840 		pop	{r3, r4, r5, r6, r7, lr}
 229              	.LBB16:
 230              		.loc 1 52 0
 231 0040 FFF7FEBF 		b	_ZN4Node4nextEPS_
 232              	.LVL14:
 233              	.L20:
 234              		.loc 1 45 0
 235 0044 FFF7FEFF 		bl	_ZN4Node4nextEv
 236              	.LVL15:
 237 0048 3060     		str	r0, [r6, #0]
 238 004a E0E7     		b	.L16
 239              	.LBE16:
 240              		.cfi_endproc
 241              	.LFE86:
 242              		.size	_ZN10Middleware7delNodeEP4Node, .-_ZN10Middleware7delNodeEP4Node
 243 004c AFF30080 		.section	.text._ZN10Middleware9advertiseEP14LocalPublisher,"ax",%progbits
 244              		.align	2
 245              		.p2align 4,,15
 246              		.global	_ZN10Middleware9advertiseEP14LocalPublisher
 247              		.thumb
 248              		.thumb_func
 249              		.type	_ZN10Middleware9advertiseEP14LocalPublisher, %function
 250              	_ZN10Middleware9advertiseEP14LocalPublisher:
 251              	.LFB87:
 252              		.loc 1 55 0
 253              		.cfi_startproc
 254              		@ args = 0, pretend = 0, frame = 0
 255              		@ frame_needed = 0, uses_anonymous_args = 0
 256              	.LVL16:
 257 0000 F8B5     		push	{r3, r4, r5, r6, r7, lr}
 258              	.LCFI2:
 259              		.cfi_def_cfa_offset 24
 260              		.cfi_offset 14, -4
 261              		.cfi_offset 7, -8
 262              		.cfi_offset 6, -12
 263              		.cfi_offset 5, -16
 264              		.cfi_offset 4, -20
 265              		.cfi_offset 3, -24
 266              	.LBB25:
 267              		.loc 1 59 0
 268 0002 0668     		ldr	r6, [r0, #0]
 269              	.LVL17:
 270              	.LBE25:
 271              		.loc 1 55 0
 272 0004 0D46     		mov	r5, r1
 273              	.LBB36:
 274              		.loc 1 61 0
 275 0006 002E     		cmp	r6, #0
 276 0008 31D0     		beq	.L22
 277              	.LVL18:
 278              	.L30:
 279              		.loc 1 62 0
 280 000a 3046     		mov	r0, r6
 281 000c FFF7FEFF 		bl	_ZN4Node5queueEv
 282 0010 0446     		mov	r4, r0
ARM GAS  /tmp/cc04izfv.s 			page 6


 283              	.LVL19:
 284              		.loc 1 64 0
 285 0012 48B9     		cbnz	r0, .L31
 286 0014 25E0     		b	.L23
 287              	.LVL20:
 288              	.L36:
 289              	.LBB26:
 290              	.LBB27:
 291              		.loc 1 167 0
 292 0016 10F8012B 		ldrb	r2, [r0], #1	@ zero_extendqisi2
 293 001a 002A     		cmp	r2, #0
 294 001c 35D1     		bne	.L35
 295              	.L25:
 296              	.LBE27:
 297              	.LBE26:
 298              		.loc 1 70 0
 299 001e 2046     		mov	r0, r4
 300 0020 FFF7FEFF 		bl	_ZN15LocalSubscriber4nextEv
 301 0024 0446     		mov	r4, r0
 302              	.LVL21:
 303              		.loc 1 64 0
 304 0026 E0B1     		cbz	r0, .L23
 305              	.L31:
 306              		.loc 1 66 0
 307 0028 2846     		mov	r0, r5
 308              	.LVL22:
 309 002a FFF7FEFF 		bl	_ZN13BasePublisher5topicEv
 310 002e 0746     		mov	r7, r0
 311 0030 2046     		mov	r0, r4
 312 0032 FFF7FEFF 		bl	_ZN14BaseSubscriber5topicEv
 313              	.LVL23:
 314              	.L26:
 315              	.LBB30:
 316              	.LBB28:
 317              		.loc 1 167 0
 318 0036 17F8013B 		ldrb	r3, [r7], #1	@ zero_extendqisi2
 319 003a 002B     		cmp	r3, #0
 320 003c EBD1     		bne	.L36
 321              		.loc 1 170 0
 322 003e 0378     		ldrb	r3, [r0, #0]	@ zero_extendqisi2
 323 0040 002B     		cmp	r3, #0
 324 0042 ECD1     		bne	.L25
 325              	.LBE28:
 326              	.LBE30:
 327              		.loc 1 67 0
 328 0044 2146     		mov	r1, r4
 329 0046 3046     		mov	r0, r6
 330 0048 FFF7FEFF 		bl	_ZN4Node17unqueueSubscriberEP15LocalSubscriber
 331              		.loc 1 68 0
 332 004c 2246     		mov	r2, r4
 333 004e 2946     		mov	r1, r5
 334 0050 3046     		mov	r0, r6
 335 0052 FFF7FEFF 		bl	_ZN4Node14localSubscribeEP14LocalPublisherP15LocalSubscriber
 336              		.loc 1 70 0
 337 0056 2046     		mov	r0, r4
 338 0058 FFF7FEFF 		bl	_ZN15LocalSubscriber4nextEv
 339 005c 0446     		mov	r4, r0
ARM GAS  /tmp/cc04izfv.s 			page 7


 340              	.LVL24:
 341              		.loc 1 64 0
 342 005e 0028     		cmp	r0, #0
 343 0060 E2D1     		bne	.L31
 344              	.L23:
 345              		.loc 1 73 0
 346 0062 3046     		mov	r0, r6
 347              	.LVL25:
 348 0064 FFF7FEFF 		bl	_ZN4Node4nextEv
 349 0068 0646     		mov	r6, r0
 350              	.LVL26:
 351              		.loc 1 61 0
 352 006a 0028     		cmp	r0, #0
 353 006c CDD1     		bne	.L30
 354              	.LVL27:
 355              	.L22:
 356              	.LBB31:
 357              	.LBB32:
 358              		.loc 1 76 0
 359 006e 2023     		movs	r3, #32
 360              	.LVL28:
 361              	@ 76 "../../Middleware/Middleware.cpp" 1
 362 0070 83F31188 		msr     BASEPRI, r3
 363              	@ 0 "" 2
 364              	.LVL29:
 365              		.thumb
 366              	.LBE32:
 367 0074 FFF7FEFF 		bl	dbg_check_lock
 368              	.LVL30:
 369              	.LBE31:
 370              		.loc 1 77 0
 371 0078 FFF7FEFF 		bl	chSchRescheduleS
 372              	.LBB33:
 373              		.loc 1 78 0
 374 007c FFF7FEFF 		bl	dbg_check_unlock
 375              	.LBB34:
 376 0080 0023     		movs	r3, #0
 377              	.LVL31:
 378              	@ 78 "../../Middleware/Middleware.cpp" 1
 379 0082 83F31188 		msr     BASEPRI, r3
 380              	@ 0 "" 2
 381              	.LVL32:
 382              		.thumb
 383              	.LBE34:
 384              	.LBE33:
 385              	.LBE36:
 386              		.loc 1 81 0
 387 0086 0120     		movs	r0, #1
 388 0088 F8BD     		pop	{r3, r4, r5, r6, r7, pc}
 389              	.LVL33:
 390              	.L35:
 391              	.LBB37:
 392              	.LBB35:
 393              	.LBB29:
 394              		.loc 1 167 0
 395 008a 9342     		cmp	r3, r2
 396 008c C7D1     		bne	.L25
ARM GAS  /tmp/cc04izfv.s 			page 8


 397 008e D2E7     		b	.L26
 398              	.LBE29:
 399              	.LBE35:
 400              	.LBE37:
 401              		.cfi_endproc
 402              	.LFE87:
 403              		.size	_ZN10Middleware9advertiseEP14LocalPublisher, .-_ZN10Middleware9advertiseEP14LocalPublisher
 404              		.section	.text._ZN10Middleware9advertiseEP15RemotePublisher,"ax",%progbits
 405              		.align	2
 406              		.p2align 4,,15
 407              		.global	_ZN10Middleware9advertiseEP15RemotePublisher
 408              		.thumb
 409              		.thumb_func
 410              		.type	_ZN10Middleware9advertiseEP15RemotePublisher, %function
 411              	_ZN10Middleware9advertiseEP15RemotePublisher:
 412              	.LFB88:
 413              		.loc 1 84 0
 414              		.cfi_startproc
 415              		@ args = 0, pretend = 0, frame = 0
 416              		@ frame_needed = 0, uses_anonymous_args = 0
 417              	.LVL34:
 418 0000 F8B5     		push	{r3, r4, r5, r6, r7, lr}
 419              	.LCFI3:
 420              		.cfi_def_cfa_offset 24
 421              		.cfi_offset 14, -4
 422              		.cfi_offset 7, -8
 423              		.cfi_offset 6, -12
 424              		.cfi_offset 5, -16
 425              		.cfi_offset 4, -20
 426              		.cfi_offset 3, -24
 427              	.LBB46:
 428              		.loc 1 88 0
 429 0002 4368     		ldr	r3, [r0, #4]
 430              	.LBE46:
 431              		.loc 1 84 0
 432 0004 0446     		mov	r4, r0
 433 0006 0D46     		mov	r5, r1
 434              	.LBB57:
 435              		.loc 1 88 0
 436 0008 1BB1     		cbz	r3, .L53
 437              		.loc 1 91 0
 438 000a 0846     		mov	r0, r1
 439              	.LVL35:
 440 000c 1946     		mov	r1, r3
 441              	.LVL36:
 442 000e FFF7FEFF 		bl	_ZN15RemotePublisher4nextEPS_
 443              	.LVL37:
 444              	.L53:
 445              		.loc 1 95 0
 446 0012 2668     		ldr	r6, [r4, #0]
 447              	.LVL38:
 448              		.loc 1 92 0
 449 0014 6560     		str	r5, [r4, #4]
 450              		.loc 1 97 0
 451 0016 002E     		cmp	r6, #0
 452 0018 31D0     		beq	.L40
 453              	.LVL39:
ARM GAS  /tmp/cc04izfv.s 			page 9


 454              	.L48:
 455              		.loc 1 98 0
 456 001a 3046     		mov	r0, r6
 457 001c FFF7FEFF 		bl	_ZN4Node5queueEv
 458 0020 0446     		mov	r4, r0
 459              	.LVL40:
 460              		.loc 1 100 0
 461 0022 48B9     		cbnz	r0, .L49
 462 0024 25E0     		b	.L41
 463              	.LVL41:
 464              	.L55:
 465              	.LBB47:
 466              	.LBB48:
 467              		.loc 1 167 0
 468 0026 10F8012B 		ldrb	r2, [r0], #1	@ zero_extendqisi2
 469 002a 002A     		cmp	r2, #0
 470 002c 35D1     		bne	.L54
 471              	.L43:
 472              	.LBE48:
 473              	.LBE47:
 474              		.loc 1 106 0
 475 002e 2046     		mov	r0, r4
 476 0030 FFF7FEFF 		bl	_ZN15LocalSubscriber4nextEv
 477 0034 0446     		mov	r4, r0
 478              	.LVL42:
 479              		.loc 1 100 0
 480 0036 E0B1     		cbz	r0, .L41
 481              	.L49:
 482              		.loc 1 102 0
 483 0038 2846     		mov	r0, r5
 484              	.LVL43:
 485 003a FFF7FEFF 		bl	_ZN13BasePublisher5topicEv
 486 003e 0746     		mov	r7, r0
 487 0040 2046     		mov	r0, r4
 488 0042 FFF7FEFF 		bl	_ZN14BaseSubscriber5topicEv
 489              	.LVL44:
 490              	.L44:
 491              	.LBB51:
 492              	.LBB49:
 493              		.loc 1 167 0
 494 0046 17F8013B 		ldrb	r3, [r7], #1	@ zero_extendqisi2
 495 004a 002B     		cmp	r3, #0
 496 004c EBD1     		bne	.L55
 497              		.loc 1 170 0
 498 004e 0378     		ldrb	r3, [r0, #0]	@ zero_extendqisi2
 499 0050 002B     		cmp	r3, #0
 500 0052 ECD1     		bne	.L43
 501              	.LBE49:
 502              	.LBE51:
 503              		.loc 1 103 0
 504 0054 2146     		mov	r1, r4
 505 0056 3046     		mov	r0, r6
 506 0058 FFF7FEFF 		bl	_ZN4Node17unqueueSubscriberEP15LocalSubscriber
 507              		.loc 1 104 0
 508 005c 2246     		mov	r2, r4
 509 005e 2946     		mov	r1, r5
 510 0060 3046     		mov	r0, r6
ARM GAS  /tmp/cc04izfv.s 			page 10


 511 0062 FFF7FEFF 		bl	_ZN4Node15remoteSubscribeEP15RemotePublisherP15LocalSubscriber
 512              		.loc 1 106 0
 513 0066 2046     		mov	r0, r4
 514 0068 FFF7FEFF 		bl	_ZN15LocalSubscriber4nextEv
 515 006c 0446     		mov	r4, r0
 516              	.LVL45:
 517              		.loc 1 100 0
 518 006e 0028     		cmp	r0, #0
 519 0070 E2D1     		bne	.L49
 520              	.L41:
 521              		.loc 1 109 0
 522 0072 3046     		mov	r0, r6
 523              	.LVL46:
 524 0074 FFF7FEFF 		bl	_ZN4Node4nextEv
 525 0078 0646     		mov	r6, r0
 526              	.LVL47:
 527              		.loc 1 97 0
 528 007a 0028     		cmp	r0, #0
 529 007c CDD1     		bne	.L48
 530              	.LVL48:
 531              	.L40:
 532              	.LBB52:
 533              	.LBB53:
 534              		.loc 1 112 0
 535 007e 2023     		movs	r3, #32
 536              	.LVL49:
 537              	@ 112 "../../Middleware/Middleware.cpp" 1
 538 0080 83F31188 		msr     BASEPRI, r3
 539              	@ 0 "" 2
 540              	.LVL50:
 541              		.thumb
 542              	.LBE53:
 543 0084 FFF7FEFF 		bl	dbg_check_lock
 544              	.LVL51:
 545              	.LBE52:
 546              		.loc 1 113 0
 547 0088 FFF7FEFF 		bl	chSchRescheduleS
 548              	.LBB54:
 549              		.loc 1 114 0
 550 008c FFF7FEFF 		bl	dbg_check_unlock
 551              	.LBB55:
 552 0090 0023     		movs	r3, #0
 553              	.LVL52:
 554              	@ 114 "../../Middleware/Middleware.cpp" 1
 555 0092 83F31188 		msr     BASEPRI, r3
 556              	@ 0 "" 2
 557              	.LVL53:
 558              		.thumb
 559              	.LBE55:
 560              	.LBE54:
 561              	.LBE57:
 562              		.loc 1 117 0
 563 0096 0120     		movs	r0, #1
 564 0098 F8BD     		pop	{r3, r4, r5, r6, r7, pc}
 565              	.LVL54:
 566              	.L54:
 567              	.LBB58:
ARM GAS  /tmp/cc04izfv.s 			page 11


 568              	.LBB56:
 569              	.LBB50:
 570              		.loc 1 167 0
 571 009a 9342     		cmp	r3, r2
 572 009c C7D1     		bne	.L43
 573 009e D2E7     		b	.L44
 574              	.LBE50:
 575              	.LBE56:
 576              	.LBE58:
 577              		.cfi_endproc
 578              	.LFE88:
 579              		.size	_ZN10Middleware9advertiseEP15RemotePublisher, .-_ZN10Middleware9advertiseEP15RemotePublisher
 580              		.section	.text._ZN10Middleware13compareTopicsEPKcS1_,"ax",%progbits
 581              		.align	2
 582              		.p2align 4,,15
 583              		.global	_ZN10Middleware13compareTopicsEPKcS1_
 584              		.thumb
 585              		.thumb_func
 586              		.type	_ZN10Middleware13compareTopicsEPKcS1_, %function
 587              	_ZN10Middleware13compareTopicsEPKcS1_:
 588              	.LFB89:
 589              		.loc 1 164 0
 590              		.cfi_startproc
 591              		@ args = 0, pretend = 0, frame = 0
 592              		@ frame_needed = 0, uses_anonymous_args = 0
 593              		@ link register save eliminated.
 594              	.L59:
 595              	.LBB60:
 596              		.loc 1 167 0 discriminator 2
 597 0000 11F8013B 		ldrb	r3, [r1], #1	@ zero_extendqisi2
 598 0004 33B1     		cbz	r3, .L57
 599              		.loc 1 167 0 is_stmt 0 discriminator 4
 600 0006 12F8010B 		ldrb	r0, [r2], #1	@ zero_extendqisi2
 601 000a 10B1     		cbz	r0, .L58
 602              	.LVL55:
 603              		.loc 1 167 0 discriminator 6
 604 000c 8342     		cmp	r3, r0
 605 000e F7D0     		beq	.L59
 606              		.loc 1 173 0 is_stmt 1
 607 0010 0020     		movs	r0, #0
 608              	.LVL56:
 609              	.L58:
 610              	.LBE60:
 611              		.loc 1 175 0
 612 0012 7047     		bx	lr
 613              	.L57:
 614              	.LBB61:
 615              		.loc 1 164 0
 616 0014 1078     		ldrb	r0, [r2, #0]	@ zero_extendqisi2
 617 0016 D0F10100 		rsbs	r0, r0, #1
 618 001a 38BF     		it	cc
 619 001c 0020     		movcc	r0, #0
 620 001e 7047     		bx	lr
 621              	.LBE61:
 622              		.cfi_endproc
 623              	.LFE89:
 624              		.size	_ZN10Middleware13compareTopicsEPKcS1_, .-_ZN10Middleware13compareTopicsEPKcS1_
ARM GAS  /tmp/cc04izfv.s 			page 12


 625              		.section	.text._ZN10Middleware18findLocalPublisherEPKc,"ax",%progbits
 626              		.align	2
 627              		.p2align 4,,15
 628              		.global	_ZN10Middleware18findLocalPublisherEPKc
 629              		.thumb
 630              		.thumb_func
 631              		.type	_ZN10Middleware18findLocalPublisherEPKc, %function
 632              	_ZN10Middleware18findLocalPublisherEPKc:
 633              	.LFB90:
 634              		.loc 1 177 0
 635              		.cfi_startproc
 636              		@ args = 0, pretend = 0, frame = 0
 637              		@ frame_needed = 0, uses_anonymous_args = 0
 638              	.LVL57:
 639 0000 70B5     		push	{r4, r5, r6, lr}
 640              	.LCFI4:
 641              		.cfi_def_cfa_offset 16
 642              		.cfi_offset 14, -4
 643              		.cfi_offset 6, -8
 644              		.cfi_offset 5, -12
 645              		.cfi_offset 4, -16
 646              	.LBB66:
 647              		.loc 1 181 0
 648 0002 0468     		ldr	r4, [r0, #0]
 649              	.LVL58:
 650              	.LBE66:
 651              		.loc 1 177 0
 652 0004 0E46     		mov	r6, r1
 653              	.LBB73:
 654              		.loc 1 183 0
 655 0006 002C     		cmp	r4, #0
 656 0008 28D0     		beq	.L70
 657              	.LVL59:
 658              	.L71:
 659              		.loc 1 184 0
 660 000a 2046     		mov	r0, r4
 661 000c FFF7FEFF 		bl	_ZN4Node10publishersEv
 662 0010 0546     		mov	r5, r0
 663              	.LVL60:
 664              		.loc 1 186 0
 665 0012 40B9     		cbnz	r0, .L72
 666 0014 1CE0     		b	.L64
 667              	.LVL61:
 668              	.L78:
 669              	.LBB67:
 670              	.LBB68:
 671              		.loc 1 167 0
 672 0016 10F8011B 		ldrb	r1, [r0], #1	@ zero_extendqisi2
 673 001a 89B9     		cbnz	r1, .L77
 674              	.L66:
 675              	.LBE68:
 676              	.LBE67:
 677              		.loc 1 191 0
 678 001c 2846     		mov	r0, r5
 679 001e FFF7FEFF 		bl	_ZN14LocalPublisher4nextEv
 680 0022 0546     		mov	r5, r0
 681              	.LVL62:
ARM GAS  /tmp/cc04izfv.s 			page 13


 682              		.loc 1 186 0
 683 0024 A0B1     		cbz	r0, .L64
 684              	.L72:
 685              		.loc 1 187 0
 686 0026 2846     		mov	r0, r5
 687              	.LVL63:
 688 0028 FFF7FEFF 		bl	_ZN13BasePublisher5topicEv
 689              	.LVL64:
 690 002c 3246     		mov	r2, r6
 691              	.LVL65:
 692              	.L67:
 693              	.LBB71:
 694              	.LBB69:
 695              		.loc 1 167 0
 696 002e 12F8013B 		ldrb	r3, [r2], #1	@ zero_extendqisi2
 697 0032 002B     		cmp	r3, #0
 698 0034 EFD1     		bne	.L78
 699              		.loc 1 170 0
 700 0036 0378     		ldrb	r3, [r0, #0]	@ zero_extendqisi2
 701 0038 002B     		cmp	r3, #0
 702 003a EFD1     		bne	.L66
 703              	.LBE69:
 704              	.LBE71:
 705              	.LBE73:
 706              		.loc 1 197 0
 707 003c 2846     		mov	r0, r5
 708 003e 70BD     		pop	{r4, r5, r6, pc}
 709              	.L77:
 710              	.LVL66:
 711              	.LBB74:
 712              	.LBB72:
 713              	.LBB70:
 714              		.loc 1 167 0
 715 0040 8B42     		cmp	r3, r1
 716 0042 F4D0     		beq	.L67
 717              	.LBE70:
 718              	.LBE72:
 719              		.loc 1 191 0
 720 0044 2846     		mov	r0, r5
 721 0046 FFF7FEFF 		bl	_ZN14LocalPublisher4nextEv
 722              	.LVL67:
 723 004a 0546     		mov	r5, r0
 724              	.LVL68:
 725              		.loc 1 186 0
 726 004c 0028     		cmp	r0, #0
 727 004e EAD1     		bne	.L72
 728              	.LVL69:
 729              	.L64:
 730              		.loc 1 193 0
 731 0050 2046     		mov	r0, r4
 732              	.LVL70:
 733 0052 FFF7FEFF 		bl	_ZN4Node4nextEv
 734 0056 0446     		mov	r4, r0
 735              	.LVL71:
 736              		.loc 1 183 0
 737 0058 0028     		cmp	r0, #0
 738 005a D6D1     		bne	.L71
ARM GAS  /tmp/cc04izfv.s 			page 14


 739              	.LVL72:
 740              	.L70:
 741              		.loc 1 196 0
 742 005c 2546     		mov	r5, r4
 743              	.LBE74:
 744              		.loc 1 197 0
 745 005e 2846     		mov	r0, r5
 746 0060 70BD     		pop	{r4, r5, r6, pc}
 747              		.cfi_endproc
 748              	.LFE90:
 749              		.size	_ZN10Middleware18findLocalPublisherEPKc, .-_ZN10Middleware18findLocalPublisherEPKc
 750 0062 00BFAFF3 		.section	.text._ZN10Middleware19findRemotePublisherEPKc,"ax",%progbits
 750      0080AFF3 
 750      0080AFF3 
 750      0080
 751              		.align	2
 752              		.p2align 4,,15
 753              		.global	_ZN10Middleware19findRemotePublisherEPKc
 754              		.thumb
 755              		.thumb_func
 756              		.type	_ZN10Middleware19findRemotePublisherEPKc, %function
 757              	_ZN10Middleware19findRemotePublisherEPKc:
 758              	.LFB91:
 759              		.loc 1 199 0
 760              		.cfi_startproc
 761              		@ args = 0, pretend = 0, frame = 0
 762              		@ frame_needed = 0, uses_anonymous_args = 0
 763              	.LVL73:
 764 0000 38B5     		push	{r3, r4, r5, lr}
 765              	.LCFI5:
 766              		.cfi_def_cfa_offset 16
 767              		.cfi_offset 14, -4
 768              		.cfi_offset 5, -8
 769              		.cfi_offset 4, -12
 770              		.cfi_offset 3, -16
 771              	.LBB79:
 772              		.loc 1 202 0
 773 0002 4468     		ldr	r4, [r0, #4]
 774              	.LVL74:
 775              	.LBE79:
 776              		.loc 1 199 0
 777 0004 0D46     		mov	r5, r1
 778              	.LBB86:
 779              		.loc 1 204 0
 780 0006 44B9     		cbnz	r4, .L85
 781 0008 12E0     		b	.L80
 782              	.LVL75:
 783              	.L89:
 784              	.LBB80:
 785              	.LBB81:
 786              		.loc 1 167 0
 787 000a 10F8011B 		ldrb	r1, [r0], #1	@ zero_extendqisi2
 788 000e 89B9     		cbnz	r1, .L88
 789              	.L82:
 790              	.LBE81:
 791              	.LBE80:
 792              		.loc 1 208 0
ARM GAS  /tmp/cc04izfv.s 			page 15


 793 0010 2046     		mov	r0, r4
 794 0012 FFF7FEFF 		bl	_ZN15RemotePublisher4nextEv
 795 0016 0446     		mov	r4, r0
 796              	.LVL76:
 797              		.loc 1 204 0
 798 0018 50B1     		cbz	r0, .L80
 799              	.LVL77:
 800              	.L85:
 801              		.loc 1 205 0
 802 001a 2046     		mov	r0, r4
 803 001c FFF7FEFF 		bl	_ZN13BasePublisher5topicEv
 804              	.LVL78:
 805 0020 2A46     		mov	r2, r5
 806              	.LVL79:
 807              	.L83:
 808              	.LBB84:
 809              	.LBB82:
 810              		.loc 1 167 0
 811 0022 12F8013B 		ldrb	r3, [r2], #1	@ zero_extendqisi2
 812 0026 002B     		cmp	r3, #0
 813 0028 EFD1     		bne	.L89
 814              		.loc 1 170 0
 815 002a 0378     		ldrb	r3, [r0, #0]	@ zero_extendqisi2
 816 002c 002B     		cmp	r3, #0
 817 002e EFD1     		bne	.L82
 818              	.L80:
 819              	.LBE82:
 820              	.LBE84:
 821              	.LBE86:
 822              		.loc 1 212 0
 823 0030 2046     		mov	r0, r4
 824 0032 38BD     		pop	{r3, r4, r5, pc}
 825              	.L88:
 826              	.LVL80:
 827              	.LBB87:
 828              	.LBB85:
 829              	.LBB83:
 830              		.loc 1 167 0
 831 0034 8B42     		cmp	r3, r1
 832 0036 EBD1     		bne	.L82
 833 0038 F3E7     		b	.L83
 834              	.LBE83:
 835              	.LBE85:
 836              	.LBE87:
 837              		.cfi_endproc
 838              	.LFE91:
 839              		.size	_ZN10Middleware19findRemotePublisherEPKc, .-_ZN10Middleware19findRemotePublisherEPKc
 840 003a 00BFAFF3 		.section	.text.startup._GLOBAL__sub_I__ZN10Middleware9_instanceE,"ax",%progbits
 840      0080
 841              		.align	2
 842              		.p2align 4,,15
 843              		.thumb
 844              		.thumb_func
 845              		.type	_GLOBAL__sub_I__ZN10Middleware9_instanceE, %function
 846              	_GLOBAL__sub_I__ZN10Middleware9_instanceE:
 847              	.LFB93:
 848              		.loc 1 212 0
ARM GAS  /tmp/cc04izfv.s 			page 16


 849              		.cfi_startproc
 850              		@ args = 0, pretend = 0, frame = 0
 851              		@ frame_needed = 0, uses_anonymous_args = 0
 852              	.LVL81:
 853              	.LBB88:
 854              	.LBB89:
 855              	.LBB90:
 856              	.LBB91:
 857              	.LBB92:
 858              		.loc 1 7 0
 859 0000 40F20000 		movw	r0, #:lower16:.LANCHOR0
 860 0004 C0F20000 		movt	r0, #:upper16:.LANCHOR0
 861 0008 0022     		movs	r2, #0
 862              	.LBE92:
 863              	.LBE91:
 864              	.LBE90:
 865              	.LBE89:
 866              	.LBE88:
 867              		.loc 1 212 0
 868 000a 08B5     		push	{r3, lr}
 869              	.LCFI6:
 870              		.cfi_def_cfa_offset 8
 871              		.cfi_offset 14, -4
 872              		.cfi_offset 3, -8
 873              	.LBB97:
 874              	.LBB96:
 875              	.LBB95:
 876              	.LBB94:
 877              	.LBB93:
 878              		.loc 1 7 0
 879 000c 0260     		str	r2, [r0, #0]
 880              	.LBE93:
 881              	.LBE94:
 882              	.LBE95:
 883              		.loc 1 4 0
 884 000e FFF7FEFF 		bl	_ZN5RTcan8instanceEv
 885 0012 40F20003 		movw	r3, #:lower16:.LANCHOR1
 886 0016 C0F20003 		movt	r3, #:upper16:.LANCHOR1
 887 001a 1860     		str	r0, [r3, #0]
 888              	.LBE96:
 889              	.LBE97:
 890              		.loc 1 212 0
 891 001c 08BD     		pop	{r3, pc}
 892              		.cfi_endproc
 893              	.LFE93:
 894              		.size	_GLOBAL__sub_I__ZN10Middleware9_instanceE, .-_GLOBAL__sub_I__ZN10Middleware9_instanceE
 895 001e 00BF     		.section	.init_array,"aw",%init_array
 896              		.align	2
 897 0000 00000000 		.word	_GLOBAL__sub_I__ZN10Middleware9_instanceE(target1)
 898              		.global	_ZN10Middleware10_transportE
 899              		.global	_ZN10Middleware9_instanceE
 900              		.global	_ZN10MiddlewareC1Ev
 901              		.thumb_set _ZN10MiddlewareC1Ev,_ZN10MiddlewareC2Ev
 902              		.section	.bss._ZN10Middleware9_instanceE,"aw",%nobits
 903              		.align	2
 904              		.set	.LANCHOR0,. + 0
 905              		.type	_ZN10Middleware9_instanceE, %object
ARM GAS  /tmp/cc04izfv.s 			page 17


 906              		.size	_ZN10Middleware9_instanceE, 8
 907              	_ZN10Middleware9_instanceE:
 908 0000 00000000 		.space	8
 908      00000000 
 909              		.section	.bss._ZN10Middleware10_transportE,"aw",%nobits
 910              		.align	2
 911              		.set	.LANCHOR1,. + 0
 912              		.type	_ZN10Middleware10_transportE, %object
 913              		.size	_ZN10Middleware10_transportE, 4
 914              	_ZN10Middleware10_transportE:
 915 0000 00000000 		.space	4
 916              		.text
 917              	.Letext0:
 918              		.file 2 "/home/tino/ChibiStudio/tools/GNU Tools ARM Embedded/4.6 2012q2/bin/../lib/gcc/arm-none-ea
 919              		.file 3 "/home/tino/ChibiStudio/tools/GNU Tools ARM Embedded/4.6 2012q2/bin/../lib/gcc/arm-none-ea
 920              		.file 4 "../../ChibiOS/os/ports/GCC/ARMCMx/chtypes.h"
 921              		.file 5 "../../ChibiOS/os/kernel/include/chlists.h"
 922              		.file 6 "../../ChibiOS/os/kernel/include/chthreads.h"
 923              		.file 7 "../../ChibiOS/os/ports/GCC/ARMCMx/chcore_v7m.h"
 924              		.file 8 "../../ChibiOS/os/kernel/include/chmtx.h"
 925              		.file 9 "../../ChibiOS/os/kernel/include/chmemcore.h"
 926              		.file 10 "../../ChibiOS/os/kernel/include/chmempools.h"
 927              		.file 11 "../../Middleware/BaseMessage.hpp"
 928              		.file 12 "../../Middleware/MessageQueue.hpp"
 929              		.file 13 "../../Middleware/BasePublisher.hpp"
 930              		.file 14 "../../Middleware/LocalSubscriber.hpp"
 931              		.file 15 "../../Middleware/RemoteSubscriber.hpp"
 932              		.file 16 "../../Middleware/LocalPublisher.hpp"
 933              		.file 17 "../../RTCAN/include/rtcan.h"
 934              		.file 18 "../../Middleware/BaseSubscriber.hpp"
 935              		.file 19 "../../Middleware/RemotePublisher.hpp"
 936              		.file 20 "../../Middleware/Node.hpp"
 937              		.file 21 "../../Middleware/transport/RTcan.hpp"
 938              		.file 22 "./r2config.h"
 939              		.file 23 "../../Middleware/Middleware.hpp"
 940              		.file 24 "../../ChibiOS/os/various/cpp_wrappers/ch.hpp"
 941              		.file 25 "../../ChibiOS/os/ports/common/ARMCMx/CMSIS/include/core_cm3.h"