ARM GAS  /tmp/ccmCzCQs.s 			page 1


   1              		.syntax unified
   2              		.cpu cortex-m3
   3              		.fpu softvfp
   4              		.eabi_attribute 20, 1
   5              		.eabi_attribute 21, 1
   6              		.eabi_attribute 23, 3
   7              		.eabi_attribute 24, 1
   8              		.eabi_attribute 25, 1
   9              		.eabi_attribute 26, 1
  10              		.eabi_attribute 30, 2
  11              		.eabi_attribute 34, 1
  12              		.eabi_attribute 18, 4
  13              		.thumb
  14              		.file	"msgqueue.c"
  15              		.text
  16              	.Ltext0:
  17              		.cfi_sections	.debug_frame
  18              		.section	.text.msgqueue_init,"ax",%progbits
  19              		.align	2
  20              		.p2align 4,,15
  21              		.global	msgqueue_init
  22              		.thumb
  23              		.thumb_func
  24              		.type	msgqueue_init, %function
  25              	msgqueue_init:
  26              	.LFB63:
  27              		.file 1 "../../RTCAN/src/msgqueue.c"
  28              		.loc 1 11 0
  29              		.cfi_startproc
  30              		@ args = 0, pretend = 0, frame = 0
  31              		@ frame_needed = 0, uses_anonymous_args = 0
  32              		@ link register save eliminated.
  33              	.LVL0:
  34              		.loc 1 12 0
  35 0000 0060     		str	r0, [r0, #0]
  36              		.loc 1 13 0
  37 0002 7047     		bx	lr
  38              		.cfi_endproc
  39              	.LFE63:
  40              		.size	msgqueue_init, .-msgqueue_init
  41 0004 AFF30080 		.section	.text.msgqueue_insert,"ax",%progbits
  41      AFF30080 
  41      AFF30080 
  42              		.align	2
  43              		.p2align 4,,15
  44              		.global	msgqueue_insert
  45              		.thumb
  46              		.thumb_func
  47              		.type	msgqueue_insert, %function
  48              	msgqueue_insert:
  49              	.LFB64:
  50              		.loc 1 16 0
  51              		.cfi_startproc
  52              		@ args = 0, pretend = 0, frame = 0
  53              		@ frame_needed = 0, uses_anonymous_args = 0
  54              	.LVL1:
  55 0000 38B5     		push	{r3, r4, r5, lr}
ARM GAS  /tmp/ccmCzCQs.s 			page 2


  56              	.LCFI0:
  57              		.cfi_def_cfa_offset 16
  58              		.cfi_offset 14, -4
  59              		.cfi_offset 5, -8
  60              		.cfi_offset 4, -12
  61              		.cfi_offset 3, -16
  62              		.loc 1 16 0
  63 0002 0446     		mov	r4, r0
  64              	.LVL2:
  65 0004 0D46     		mov	r5, r1
  66              		.loc 1 19 0
  67 0006 78B1     		cbz	r0, .L3
  68              	.LVL3:
  69              		.loc 1 19 0 is_stmt 0 discriminator 2
  70 0008 71B1     		cbz	r1, .L3
  71              	.LVL4:
  72              	.L4:
  73              		.loc 1 16 0 is_stmt 1 discriminator 1
  74 000a 2246     		mov	r2, r4
  75 000c 06E0     		b	.L5
  76              	.LVL5:
  77              	.L7:
  78              		.loc 1 23 0
  79 000e D5F80D00 		ldr	r0, [r5, #13]	@ unaligned
  80 0012 D3F80D10 		ldr	r1, [r3, #13]	@ unaligned
  81 0016 8842     		cmp	r0, r1
  82 0018 03D3     		bcc	.L6
  83 001a 1A46     		mov	r2, r3
  84              	.LVL6:
  85              	.L5:
  86              		.loc 1 22 0 discriminator 1
  87 001c 1368     		ldr	r3, [r2, #0]	@ unaligned
  88 001e A342     		cmp	r3, r4
  89 0020 F5D1     		bne	.L7
  90              	.L6:
  91              		.loc 1 29 0
  92 0022 2B60     		str	r3, [r5, #0]	@ unaligned
  93              		.loc 1 30 0
  94 0024 1560     		str	r5, [r2, #0]	@ unaligned
  95              		.loc 1 31 0
  96 0026 38BD     		pop	{r3, r4, r5, pc}
  97              	.LVL7:
  98              	.L3:
  99              		.loc 1 19 0 discriminator 1
 100 0028 0148     		ldr	r0, .L9
 101 002a FFF7FEFF 		bl	chDbgPanic
 102 002e ECE7     		b	.L4
 103              	.L10:
 104              		.align	2
 105              	.L9:
 106 0030 00000000 		.word	.LC0
 107              		.cfi_endproc
 108              	.LFE64:
 109              		.size	msgqueue_insert, .-msgqueue_insert
 110              		.section	.text.msgqueue_remove,"ax",%progbits
 111              		.align	2
 112              		.p2align 4,,15
ARM GAS  /tmp/ccmCzCQs.s 			page 3


 113              		.global	msgqueue_remove
 114              		.thumb
 115              		.thumb_func
 116              		.type	msgqueue_remove, %function
 117              	msgqueue_remove:
 118              	.LFB65:
 119              		.loc 1 34 0
 120              		.cfi_startproc
 121              		@ args = 0, pretend = 0, frame = 0
 122              		@ frame_needed = 0, uses_anonymous_args = 0
 123              	.LVL8:
 124 0000 38B5     		push	{r3, r4, r5, lr}
 125              	.LCFI1:
 126              		.cfi_def_cfa_offset 16
 127              		.cfi_offset 14, -4
 128              		.cfi_offset 5, -8
 129              		.cfi_offset 4, -12
 130              		.cfi_offset 3, -16
 131              		.loc 1 34 0
 132 0002 0446     		mov	r4, r0
 133 0004 0D46     		mov	r5, r1
 134              		.loc 1 37 0
 135 0006 58B1     		cbz	r0, .L12
 136              		.loc 1 37 0 is_stmt 0 discriminator 2
 137 0008 51B1     		cbz	r1, .L12
 138              	.LVL9:
 139              	.L13:
 140              		.loc 1 38 0 is_stmt 1
 141 000a 2368     		ldr	r3, [r4, #0]
 142 000c A342     		cmp	r3, r4
 143 000e 02D1     		bne	.L16
 144 0010 0AE0     		b	.L19
 145              	.LVL10:
 146              	.L18:
 147              		.loc 1 43 0
 148 0012 1C46     		mov	r4, r3
 149 0014 1B68     		ldr	r3, [r3, #0]	@ unaligned
 150              	.L16:
 151              		.loc 1 43 0 is_stmt 0 discriminator 1
 152 0016 9D42     		cmp	r5, r3
 153 0018 FBD1     		bne	.L18
 154              		.loc 1 47 0 is_stmt 1
 155 001a 2B68     		ldr	r3, [r5, #0]	@ unaligned
 156 001c 2360     		str	r3, [r4, #0]	@ unaligned
 157              		.loc 1 48 0
 158 001e 38BD     		pop	{r3, r4, r5, pc}
 159              	.LVL11:
 160              	.L12:
 161              		.loc 1 37 0 discriminator 1
 162 0020 0448     		ldr	r0, .L20
 163              	.LVL12:
 164 0022 FFF7FEFF 		bl	chDbgPanic
 165 0026 F0E7     		b	.L13
 166              	.L19:
 167              		.loc 1 38 0 discriminator 1
 168 0028 0348     		ldr	r0, .L20+4
 169 002a FFF7FEFF 		bl	chDbgPanic
ARM GAS  /tmp/ccmCzCQs.s 			page 4


 170 002e 2368     		ldr	r3, [r4, #0]	@ unaligned
 171              	.LVL13:
 172              		.loc 1 43 0 discriminator 1
 173 0030 F1E7     		b	.L16
 174              	.L21:
 175 0032 00BF     		.align	2
 176              	.L20:
 177 0034 14000000 		.word	.LC1
 178 0038 28000000 		.word	.LC2
 179              		.cfi_endproc
 180              	.LFE65:
 181              		.size	msgqueue_remove, .-msgqueue_remove
 182 003c AFF30080 		.section	.text.msgqueue_get,"ax",%progbits
 183              		.align	2
 184              		.p2align 4,,15
 185              		.global	msgqueue_get
 186              		.thumb
 187              		.thumb_func
 188              		.type	msgqueue_get, %function
 189              	msgqueue_get:
 190              	.LFB66:
 191              		.loc 1 50 0
 192              		.cfi_startproc
 193              		@ args = 0, pretend = 0, frame = 0
 194              		@ frame_needed = 0, uses_anonymous_args = 0
 195              	.LVL14:
 196 0000 10B5     		push	{r4, lr}
 197              	.LCFI2:
 198              		.cfi_def_cfa_offset 8
 199              		.cfi_offset 14, -4
 200              		.cfi_offset 4, -8
 201              		.loc 1 50 0
 202 0002 0446     		mov	r4, r0
 203              		.loc 1 53 0
 204 0004 60B1     		cbz	r0, .L25
 205              	.LVL15:
 206              	.L23:
 207              		.loc 1 54 0
 208 0006 2068     		ldr	r0, [r4, #0]
 209 0008 A042     		cmp	r0, r4
 210 000a 02D0     		beq	.L26
 211              	.LVL16:
 212              		.loc 1 58 0
 213 000c 0368     		ldr	r3, [r0, #0]	@ unaligned
 214 000e 2360     		str	r3, [r4, #0]
 215              		.loc 1 61 0
 216 0010 10BD     		pop	{r4, pc}
 217              	.LVL17:
 218              	.L26:
 219              		.loc 1 54 0 discriminator 1
 220 0012 0548     		ldr	r0, .L27
 221 0014 FFF7FEFF 		bl	chDbgPanic
 222 0018 2068     		ldr	r0, [r4, #0]
 223              	.LVL18:
 224              		.loc 1 58 0 discriminator 1
 225 001a 0368     		ldr	r3, [r0, #0]	@ unaligned
 226 001c 2360     		str	r3, [r4, #0]
ARM GAS  /tmp/ccmCzCQs.s 			page 5


 227              		.loc 1 61 0 discriminator 1
 228 001e 10BD     		pop	{r4, pc}
 229              	.LVL19:
 230              	.L25:
 231              		.loc 1 53 0 discriminator 1
 232 0020 0248     		ldr	r0, .L27+4
 233 0022 FFF7FEFF 		bl	chDbgPanic
 234 0026 EEE7     		b	.L23
 235              	.L28:
 236              		.align	2
 237              	.L27:
 238 0028 54000000 		.word	.LC4
 239 002c 40000000 		.word	.LC3
 240              		.cfi_endproc
 241              	.LFE66:
 242              		.size	msgqueue_get, .-msgqueue_get
 243              		.section	.rodata.str1.4,"aMS",%progbits,1
 244              		.align	2
 245              	.LC0:
 246 0000 226D7367 		.ascii	"\"msgqueue_insert\"()\000"
 246      71756575 
 246      655F696E 
 246      73657274 
 246      22282900 
 247              	.LC1:
 248 0014 226D7367 		.ascii	"\"msgqueue_remove\"()\000"
 248      71756575 
 248      655F7265 
 248      6D6F7665 
 248      22282900 
 249              	.LC2:
 250 0028 6D736771 		.ascii	"msgqueue_remove(), #1\000"
 250      75657565 
 250      5F72656D 
 250      6F766528 
 250      292C2023 
 251 003e 0000     		.space	2
 252              	.LC3:
 253 0040 226D7367 		.ascii	"\"msgqueue_get\"()\000"
 253      71756575 
 253      655F6765 
 253      74222829 
 253      00
 254 0051 000000   		.space	3
 255              	.LC4:
 256 0054 6D736771 		.ascii	"msgqueue_get(), #1\000"
 256      75657565 
 256      5F676574 
 256      28292C20 
 256      233100
 257 0067 00       		.text
 258              	.Letext0:
 259              		.file 2 "/home/tino/ChibiStudio/tools/GNU Tools ARM Embedded/4.6 2012q2/bin/../lib/gcc/arm-none-ea
 260              		.file 3 "../../RTCAN/include/rtcan.h"
 261              		.file 4 "../../RTCAN/include/msgqueue.h"
 262              		.file 5 "../../ChibiOS/os/ports/common/ARMCMx/CMSIS/include/core_cm3.h"