ARM GAS  /tmp/ccmCzCQs.s 			page 1


   1              		.syntax unified
   2              		.cpu cortex-m3
   3              		.fpu softvfp
   4              		.eabi_attribute 20, 1
   5              		.eabi_attribute 21, 1
   6              		.eabi_attribute 23, 3
   7              		.eabi_attribute 24, 1
   8              		.eabi_attribute 25, 1
   9              		.eabi_attribute 26, 1
  10              		.eabi_attribute 30, 2
  11              		.eabi_attribute 34, 1
  12              		.eabi_attribute 18, 4
  13              		.thumb
  14              		.file	"msgqueue.c"
  15              		.text
  16              	.Ltext0:
  17              		.cfi_sections	.debug_frame
  18              		.section	.text.msgqueue_init,"ax",%progbits
  19              		.align	2
  20              		.p2align 4,,15
  21              		.global	msgqueue_init
  22              		.thumb
  23              		.thumb_func
  24              		.type	msgqueue_init, %function
  25              	msgqueue_init:
  26              	.LFB63:
  27              		.file 1 "../../RTCAN/src/msgqueue.c"
  28              		.loc 1 11 0
  29              		.cfi_startproc
  30              		@ args = 0, pretend = 0, frame = 0
  31              		@ frame_needed = 0, uses_anonymous_args = 0
  32              		@ link register save eliminated.
  33              	.LVL0:
  34              		.loc 1 12 0
  35 0000 0060     		str	r0, [r0, #0]
  36              		.loc 1 13 0
  37 0002 7047     		bx	lr
  38              		.cfi_endproc
  39              	.LFE63:
  40              		.size	msgqueue_init, .-msgqueue_init
  41 0004 AFF30080 		.section	.text.msgqueue_insert,"ax",%progbits
  41      AFF30080 
  41      AFF30080 
  42              		.align	2
  43              		.p2align 4,,15
  44              		.global	msgqueue_insert
  45              		.thumb
  46              		.thumb_func
  47              		.type	msgqueue_insert, %function
  48              	msgqueue_insert:
  49              	.LFB64:
  50              		.loc 1 16 0
  51              		.cfi_startproc
  52              		@ args = 0, pretend = 0, frame = 0
  53              		@ frame_needed = 0, uses_anonymous_args = 0
  54              	.LVL1:
  55 0000 38B5     		push	{r3, r4, r5, lr}
ARM GAS  /tmp/ccmCzCQs.s 			page 2


  56              	.LCFI0:
  57              		.cfi_def_cfa_offset 16
  58              		.cfi_offset 14, -4
  59              		.cfi_offset 5, -8
  60              		.cfi_offset 4, -12
  61              		.cfi_offset 3, -16
  62              		.loc 1 16 0
  63 0002 0446     		mov	r4, r0
  64              	.LVL2:
  65 0004 0D46     		mov	r5, r1
  66              		.loc 1 19 0
  67 0006 78B1     		cbz	r0, .L3
  68              	.LVL3:
  69              		.loc 1 19 0 is_stmt 0 discriminator 2
  70 0008 71B1     		cbz	r1, .L3
  71              	.LVL4:
  72              	.L4:
  73              		.loc 1 16 0 is_stmt 1 discriminator 1
  74 000a 2246     		mov	r2, r4
  75 000c 06E0     		b	.L5
  76              	.LVL5:
  77              	.L7:
  78              		.loc 1 23 0
  79 000e D5F80D00 		ldr	r0, [r5, #13]	@ unaligned
  80 0012 D3F80D10 		ldr	r1, [r3, #13]	@ unaligned
  81 0016 8842     		cmp	r0, r1
  82 0018 03D3     		bcc	.L6
  83 001a 1A46     		mov	r2, r3
  84              	.LVL6:
  85              	.L5:
  86              		.loc 1 22 0 discriminator 1
  87 001c 1368     		ldr	r3, [r2, #0]	@ unaligned
  88 001e A342     		cmp	r3, r4
  89 0020 F5D1     		bne	.L7
  90              	.L6:
  91              		.loc 1 29 0
  92 0022 2B60     		str	r3, [r5, #0]	@ unaligned
  93              		.loc 1 30 0
  94 0024 1560     		str	r5, [r2, #0]	@ unaligned
  95              		.loc 1 31 0
  96 0026 38BD     		pop	{r3, r4, r5, pc}
  97              	.LVL7:
  98              	.L3:
  99              		.loc 1 19 0 discriminator 1
 100 0028 0148     		ldr	r0, .L9
 101 002a FFF7FEFF 		bl	chDbgPanic
 102 002e ECE7     		b	.L4
 103              	.L10:
 104              		.align	2
 105              	.L9:
 106 0030 00000000 		.word	.LC0
 107              		.cfi_endproc
 108              	.LFE64:
 109              		.size	msgqueue_insert, .-msgqueue_insert
 110              		.section	.text.msgqueue_remove,"ax",%progbits
 111              		.align	2
 112              		.p2align 4,,15
ARM GAS  /tmp/ccmCzCQs.s 			page 3


 113              		.global	msgqueue_remove
 114              		.thumb
 115              		.thumb_func
 116              		.type	msgqueue_remove, %function
 117              	msgqueue_remove:
 118              	.LFB65:
 119              		.loc 1 34 0
 120              		.cfi_startproc
 121              		@ args = 0, pretend = 0, frame = 0
 122              		@ frame_needed = 0, uses_anonymous_args = 0
 123              	.LVL8:
 124 0000 38B5     		push	{r3, r4, r5, lr}
 125              	.LCFI1:
 126              		.cfi_def_cfa_offset 16
 127              		.cfi_offset 14, -4
 128              		.cfi_offset 5, -8
 129              		.cfi_offset 4, -12
 130              		.cfi_offset 3, -16
 131              		.loc 1 34 0
 132 0002 0446     		mov	r4, r0
 133 0004 0D46     		mov	r5, r1
 134              		.loc 1 37 0
 135 0006 58B1     		cbz	r0, .L12
 136              		.loc 1 37 0 is_stmt 0 discriminator 2
 137 0008 51B1     		cbz	r1, .L12
 138              	.LVL9:
 139              	.L13:
 140              		.loc 1 38 0 is_stmt 1
 141 000a 2368     		ldr	r3, [r4, #0]
 142 000c A342     		cmp	r3, r4
 143 000e 02D1     		bne	.L16
 144 0010 0AE0     		b	.L19
 145              	.LVL10:
 146              	.L18:
 147              		.loc 1 43 0
 148 0012 1C46     		mov	r4, r3
 149 0014 1B68     		ldr	r3, [r3, #0]	@ unaligned
 150              	.L16:
 151              		.loc 1 43 0 is_stmt 0 discriminator 1
 152 0016 9D42     		cmp	r5, r3
 153 0018 FBD1     		bne	.L18
 154              		.loc 1 47 0 is_stmt 1
 155 001a 2B68     		ldr	r3, [r5, #0]	@ unaligned
 156 001c 2360     		str	r3, [r4, #0]	@ unaligned
 157              		.loc 1 48 0
 158 001e 38BD     		pop	{r3, r4, r5, pc}
 159              	.LVL11:
 160              	.L12:
 161              		.loc 1 37 0 discriminator 1
 162 0020 0448     		ldr	r0, .L20
 163              	.LVL12:
 164 0022 FFF7FEFF 		bl	chDbgPanic
 165 0026 F0E7     		b	.L13
 166              	.L19:
 167              		.loc 1 38 0 discriminator 1
 168 0028 0348     		ldr	r0, .L20+4
 169 002a FFF7FEFF 		bl	chDbgPanic
ARM GAS  /tmp/ccmCzCQs.s 			page 4


 170 002e 2368     		ldr	r3, [r4, #0]	@ unaligned
 171              	.LVL13:
 172              		.loc 1 43 0 discriminator 1
 173 0030 F1E7     		b	.L16
 174              	.L21:
 175 0032 00BF     		.align	2
 176              	.L20:
 177 0034 14000000 		.word	.LC1
 178 0038 28000000 		.word	.LC2
 179              		.cfi_endproc
 180              	.LFE65:
 181              		.size	msgqueue_remove, .-msgqueue_remove
 182 003c AFF30080 		.section	.text.msgqueue_get,"ax",%progbits
 183              		.align	2
 184              		.p2align 4,,15
 185              		.global	msgqueue_get
 186              		.thumb
 187              		.thumb_func
 188              		.type	msgqueue_get, %function
 189              	msgqueue_get:
 190              	.LFB66:
 191              		.loc 1 50 0
 192              		.cfi_startproc
 193              		@ args = 0, pretend = 0, frame = 0
 194              		@ frame_needed = 0, uses_anonymous_args = 0
 195              	.LVL14:
 196 0000 10B5     		push	{r4, lr}
 197              	.LCFI2:
 198              		.cfi_def_cfa_offset 8
 199              		.cfi_offset 14, -4
 200              		.cfi_offset 4, -8
 201              		.loc 1 50 0
 202 0002 0446     		mov	r4, r0
 203              		.loc 1 53 0
 204 0004 60B1     		cbz	r0, .L25
 205              	.LVL15:
 206              	.L23:
 207              		.loc 1 54 0
 208 0006 2068     		ldr	r0, [r4, #0]
 209 0008 A042     		cmp	r0, r4
 210 000a 02D0     		beq	.L26
 211              	.LVL16:
 212              		.loc 1 58 0
 213 000c 0368     		ldr	r3, [r0, #0]	@ unaligned
 214 000e 2360     		str	r3, [r4, #0]
 215              		.loc 1 61 0
 216 0010 10BD     		pop	{r4, pc}
 217              	.LVL17:
 218              	.L26:
 219              		.loc 1 54 0 discriminator 1
 220 0012 0548     		ldr	r0, .L27
 221 0014 FFF7FEFF 		bl	chDbgPanic
 222 0018 2068     		ldr	r0, [r4, #0]
 223              	.LVL18:
 224              		.loc 1 58 0 discriminator 1
 225 001a 0368     		ldr	r3, [r0, #0]	@ unaligned
 226 001c 2360     		str	r3, [r4, #0]
ARM GAS  /tmp/ccmCzCQs.s 			page 5


 227              		.loc 1 61 0 discriminator 1
 228 001e 10BD     		pop	{r4, pc}
 229              	.LVL19:
 230              	.L25:
 231              		.loc 1 53 0 discriminator 1
 232 0020 0248     		ldr	r0, .L27+4
 233 0022 FFF7FEFF 		bl	chDbgPanic
 234 0026 EEE7     		b	.L23
 235              	.L28:
 236              		.align	2
 237              	.L27:
 238 0028 54000000 		.word	.LC4
 239 002c 40000000 		.word	.LC3
 240              		.cfi_endproc
 241              	.LFE66:
 242              		.size	msgqueue_get, .-msgqueue_get
 243              		.section	.rodata.str1.4,"aMS",%progbits,1
 244              		.align	2
 245              	.LC0:
 246 0000 226D7367 		.ascii	"\"msgqueue_insert\"()\000"
 246      71756575 
 246      655F696E 
 246      73657274 
 246      22282900 
 247              	.LC1:
 248 0014 226D7367 		.ascii	"\"msgqueue_remove\"()\000"
 248      71756575 
 248      655F7265 
 248      6D6F7665 
 248      22282900 
 249              	.LC2:
 250 0028 6D736771 		.ascii	"msgqueue_remove(), #1\000"
 250      75657565 
 250      5F72656D 
 250      6F766528 
 250      292C2023 
 251 003e 0000     		.space	2
 252              	.LC3:
 253 0040 226D7367 		.ascii	"\"msgqueue_get\"()\000"
 253      71756575 
 253      655F6765 
 253      74222829 
 253      00
 254 0051 000000   		.space	3
 255              	.LC4:
 256 0054 6D736771 		.ascii	"msgqueue_get(), #1\000"
 256      75657565 
 256      5F676574 
 256      28292C20 
 256      233100
 257 0067 00       		.text
 258              	.Letext0:
 259              		.file 2 "/home/tino/ChibiStudio/tools/GNU Tools ARM Embedded/4.6 2012q2/bin/../lib/gcc/arm-none-ea
 260              		.file 3 "../../RTCAN/include/rtcan.h"
 261              		.file 4 "../../RTCAN/include/msgqueue.h"
 262              		.file 5 "../../ChibiOS/os/ports/common/ARMCMx/CMSIS/include/core_cm3.h"
 263              		.section	.debug_info,"",%progbits
ARM GAS  /tmp/ccmCzCQs.s 			page 6


 264              	.Ldebug_info0:
 265 0000 35030000 		.4byte	0x335
 266 0004 0200     		.2byte	0x2
 267 0006 00000000 		.4byte	.Ldebug_abbrev0
 268 000a 04       		.byte	0x4
 269 000b 01       		.uleb128 0x1
 270 000c 90000000 		.4byte	.LASF42
 271 0010 01       		.byte	0x1
 272 0011 1D020000 		.4byte	.LASF43
 273 0015 94010000 		.4byte	.LASF44
 274 0019 00000000 		.4byte	0
 275 001d 00000000 		.4byte	0
 276 0021 00000000 		.4byte	.Ldebug_ranges0+0
 277 0025 00000000 		.4byte	.Ldebug_line0
 278 0029 02       		.uleb128 0x2
 279 002a 04       		.byte	0x4
 280 002b 05       		.byte	0x5
 281 002c 696E7400 		.ascii	"int\000"
 282 0030 03       		.uleb128 0x3
 283 0031 04       		.byte	0x4
 284 0032 07       		.byte	0x7
 285 0033 6A010000 		.4byte	.LASF0
 286 0037 03       		.uleb128 0x3
 287 0038 01       		.byte	0x1
 288 0039 06       		.byte	0x6
 289 003a 6F020000 		.4byte	.LASF1
 290 003e 04       		.uleb128 0x4
 291 003f 8C010000 		.4byte	.LASF4
 292 0043 02       		.byte	0x2
 293 0044 2A       		.byte	0x2a
 294 0045 49000000 		.4byte	0x49
 295 0049 03       		.uleb128 0x3
 296 004a 01       		.byte	0x1
 297 004b 08       		.byte	0x8
 298 004c 1C010000 		.4byte	.LASF2
 299 0050 03       		.uleb128 0x3
 300 0051 02       		.byte	0x2
 301 0052 05       		.byte	0x5
 302 0053 4A010000 		.4byte	.LASF3
 303 0057 04       		.uleb128 0x4
 304 0058 14020000 		.4byte	.LASF5
 305 005c 02       		.byte	0x2
 306 005d 36       		.byte	0x36
 307 005e 62000000 		.4byte	0x62
 308 0062 03       		.uleb128 0x3
 309 0063 02       		.byte	0x2
 310 0064 07       		.byte	0x7
 311 0065 2C000000 		.4byte	.LASF6
 312 0069 04       		.uleb128 0x4
 313 006a DB010000 		.4byte	.LASF7
 314 006e 02       		.byte	0x2
 315 006f 4F       		.byte	0x4f
 316 0070 74000000 		.4byte	0x74
 317 0074 03       		.uleb128 0x3
 318 0075 04       		.byte	0x4
 319 0076 05       		.byte	0x5
 320 0077 41020000 		.4byte	.LASF8
ARM GAS  /tmp/ccmCzCQs.s 			page 7


 321 007b 04       		.uleb128 0x4
 322 007c 38020000 		.4byte	.LASF9
 323 0080 02       		.byte	0x2
 324 0081 50       		.byte	0x50
 325 0082 86000000 		.4byte	0x86
 326 0086 03       		.uleb128 0x3
 327 0087 04       		.byte	0x4
 328 0088 07       		.byte	0x7
 329 0089 D9000000 		.4byte	.LASF10
 330 008d 03       		.uleb128 0x3
 331 008e 08       		.byte	0x8
 332 008f 05       		.byte	0x5
 333 0090 E3010000 		.4byte	.LASF11
 334 0094 03       		.uleb128 0x3
 335 0095 08       		.byte	0x8
 336 0096 07       		.byte	0x7
 337 0097 6B000000 		.4byte	.LASF12
 338 009b 03       		.uleb128 0x3
 339 009c 01       		.byte	0x1
 340 009d 02       		.byte	0x2
 341 009e 85020000 		.4byte	.LASF13
 342 00a2 05       		.uleb128 0x5
 343 00a3 04       		.byte	0x4
 344 00a4 03       		.uleb128 0x3
 345 00a5 01       		.byte	0x1
 346 00a6 08       		.byte	0x8
 347 00a7 87010000 		.4byte	.LASF14
 348 00ab 06       		.uleb128 0x6
 349 00ac 04       		.byte	0x4
 350 00ad 3E000000 		.4byte	0x3e
 351 00b1 07       		.uleb128 0x7
 352 00b2 69000000 		.4byte	0x69
 353 00b6 04       		.uleb128 0x4
 354 00b7 54010000 		.4byte	.LASF15
 355 00bb 03       		.byte	0x3
 356 00bc 55       		.byte	0x55
 357 00bd C1000000 		.4byte	0xc1
 358 00c1 08       		.uleb128 0x8
 359 00c2 54010000 		.4byte	.LASF15
 360 00c6 1E       		.byte	0x1e
 361 00c7 03       		.byte	0x3
 362 00c8 AB       		.byte	0xab
 363 00c9 56010000 		.4byte	0x156
 364 00cd 09       		.uleb128 0x9
 365 00ce 7B020000 		.4byte	.LASF16
 366 00d2 03       		.byte	0x3
 367 00d3 AC       		.byte	0xac
 368 00d4 73010000 		.4byte	0x173
 369 00d8 02       		.byte	0x2
 370 00d9 23       		.byte	0x23
 371 00da 00       		.uleb128 0
 372 00db 09       		.uleb128 0x9
 373 00dc 44000000 		.4byte	.LASF17
 374 00e0 03       		.byte	0x3
 375 00e1 AD       		.byte	0xad
 376 00e2 AC010000 		.4byte	0x1ac
 377 00e6 02       		.byte	0x2
ARM GAS  /tmp/ccmCzCQs.s 			page 8


 378 00e7 23       		.byte	0x23
 379 00e8 04       		.uleb128 0x4
 380 00e9 09       		.uleb128 0x9
 381 00ea EB000000 		.4byte	.LASF18
 382 00ee 03       		.byte	0x3
 383 00ef AE       		.byte	0xae
 384 00f0 56010000 		.4byte	0x156
 385 00f4 02       		.byte	0x2
 386 00f5 23       		.byte	0x23
 387 00f6 05       		.uleb128 0x5
 388 00f7 09       		.uleb128 0x9
 389 00f8 2A010000 		.4byte	.LASF19
 390 00fc 03       		.byte	0x3
 391 00fd AF       		.byte	0xaf
 392 00fe A2000000 		.4byte	0xa2
 393 0102 02       		.byte	0x2
 394 0103 23       		.byte	0x23
 395 0104 09       		.uleb128 0x9
 396 0105 0A       		.uleb128 0xa
 397 0106 15020000 		.4byte	0x215
 398 010a 02       		.byte	0x2
 399 010b 23       		.byte	0x23
 400 010c 0D       		.uleb128 0xd
 401 010d 0B       		.uleb128 0xb
 402 010e 696400   		.ascii	"id\000"
 403 0111 03       		.byte	0x3
 404 0112 B9       		.byte	0xb9
 405 0113 57000000 		.4byte	0x57
 406 0117 02       		.byte	0x2
 407 0118 23       		.byte	0x23
 408 0119 11       		.uleb128 0x11
 409 011a 09       		.uleb128 0x9
 410 011b 80020000 		.4byte	.LASF20
 411 011f 03       		.byte	0x3
 412 0120 BA       		.byte	0xba
 413 0121 57000000 		.4byte	0x57
 414 0125 02       		.byte	0x2
 415 0126 23       		.byte	0x23
 416 0127 13       		.uleb128 0x13
 417 0128 09       		.uleb128 0x9
 418 0129 3F000000 		.4byte	.LASF21
 419 012d 03       		.byte	0x3
 420 012e BB       		.byte	0xbb
 421 012f AB000000 		.4byte	0xab
 422 0133 02       		.byte	0x2
 423 0134 23       		.byte	0x23
 424 0135 15       		.uleb128 0x15
 425 0136 0B       		.uleb128 0xb
 426 0137 70747200 		.ascii	"ptr\000"
 427 013b 03       		.byte	0x3
 428 013c BC       		.byte	0xbc
 429 013d AB000000 		.4byte	0xab
 430 0141 02       		.byte	0x2
 431 0142 23       		.byte	0x23
 432 0143 19       		.uleb128 0x19
 433 0144 0C       		.uleb128 0xc
 434 0145 F4000000 		.4byte	.LASF45
ARM GAS  /tmp/ccmCzCQs.s 			page 9


 435 0149 03       		.byte	0x3
 436 014a BD       		.byte	0xbd
 437 014b 3E000000 		.4byte	0x3e
 438 014f 01       		.byte	0x1
 439 0150 07       		.byte	0x7
 440 0151 01       		.byte	0x1
 441 0152 02       		.byte	0x2
 442 0153 23       		.byte	0x23
 443 0154 1D       		.uleb128 0x1d
 444 0155 00       		.byte	0
 445 0156 04       		.uleb128 0x4
 446 0157 5B020000 		.4byte	.LASF22
 447 015b 03       		.byte	0x3
 448 015c 5A       		.byte	0x5a
 449 015d 61010000 		.4byte	0x161
 450 0161 06       		.uleb128 0x6
 451 0162 04       		.byte	0x4
 452 0163 67010000 		.4byte	0x167
 453 0167 0D       		.uleb128 0xd
 454 0168 01       		.byte	0x1
 455 0169 73010000 		.4byte	0x173
 456 016d 0E       		.uleb128 0xe
 457 016e 73010000 		.4byte	0x173
 458 0172 00       		.byte	0
 459 0173 06       		.uleb128 0x6
 460 0174 04       		.byte	0x4
 461 0175 B6000000 		.4byte	0xb6
 462 0179 0F       		.uleb128 0xf
 463 017a 01       		.byte	0x1
 464 017b 03       		.byte	0x3
 465 017c 6C       		.byte	0x6c
 466 017d AC010000 		.4byte	0x1ac
 467 0181 10       		.uleb128 0x10
 468 0182 4A020000 		.4byte	.LASF23
 469 0186 00       		.sleb128 0
 470 0187 10       		.uleb128 0x10
 471 0188 F1010000 		.4byte	.LASF24
 472 018c 01       		.sleb128 1
 473 018d 10       		.uleb128 0x10
 474 018e 00000000 		.4byte	.LASF25
 475 0192 02       		.sleb128 2
 476 0193 10       		.uleb128 0x10
 477 0194 C5010000 		.4byte	.LASF26
 478 0198 03       		.sleb128 3
 479 0199 10       		.uleb128 0x10
 480 019a 4B000000 		.4byte	.LASF27
 481 019e 04       		.sleb128 4
 482 019f 10       		.uleb128 0x10
 483 01a0 0A010000 		.4byte	.LASF28
 484 01a4 05       		.sleb128 5
 485 01a5 10       		.uleb128 0x10
 486 01a6 5B000000 		.4byte	.LASF29
 487 01aa 06       		.sleb128 6
 488 01ab 00       		.byte	0
 489 01ac 04       		.uleb128 0x4
 490 01ad 31010000 		.4byte	.LASF30
 491 01b1 03       		.byte	0x3
ARM GAS  /tmp/ccmCzCQs.s 			page 10


 492 01b2 74       		.byte	0x74
 493 01b3 79010000 		.4byte	0x179
 494 01b7 11       		.uleb128 0x11
 495 01b8 04       		.byte	0x4
 496 01b9 04       		.byte	0x4
 497 01ba 1E       		.byte	0x1e
 498 01bb CE010000 		.4byte	0x1ce
 499 01bf 09       		.uleb128 0x9
 500 01c0 7B020000 		.4byte	.LASF16
 501 01c4 04       		.byte	0x4
 502 01c5 20       		.byte	0x20
 503 01c6 73010000 		.4byte	0x173
 504 01ca 02       		.byte	0x2
 505 01cb 23       		.byte	0x23
 506 01cc 00       		.uleb128 0
 507 01cd 00       		.byte	0
 508 01ce 04       		.uleb128 0x4
 509 01cf 09020000 		.4byte	.LASF31
 510 01d3 04       		.byte	0x4
 511 01d4 21       		.byte	0x21
 512 01d5 B7010000 		.4byte	0x1b7
 513 01d9 11       		.uleb128 0x11
 514 01da 04       		.byte	0x4
 515 01db 03       		.byte	0x3
 516 01dc B1       		.byte	0xb1
 517 01dd F0010000 		.4byte	0x1f0
 518 01e1 09       		.uleb128 0x9
 519 01e2 00020000 		.4byte	.LASF32
 520 01e6 03       		.byte	0x3
 521 01e7 B2       		.byte	0xb2
 522 01e8 7B000000 		.4byte	0x7b
 523 01ec 02       		.byte	0x2
 524 01ed 23       		.byte	0x23
 525 01ee 00       		.uleb128 0
 526 01ef 00       		.byte	0
 527 01f0 11       		.uleb128 0x11
 528 01f1 04       		.byte	0x4
 529 01f2 03       		.byte	0x3
 530 01f3 B4       		.byte	0xb4
 531 01f4 15020000 		.4byte	0x215
 532 01f8 09       		.uleb128 0x9
 533 01f9 D6010000 		.4byte	.LASF33
 534 01fd 03       		.byte	0x3
 535 01fe B5       		.byte	0xb5
 536 01ff 57000000 		.4byte	0x57
 537 0203 02       		.byte	0x2
 538 0204 23       		.byte	0x23
 539 0205 00       		.uleb128 0
 540 0206 09       		.uleb128 0x9
 541 0207 15000000 		.4byte	.LASF34
 542 020b 03       		.byte	0x3
 543 020c B6       		.byte	0xb6
 544 020d 57000000 		.4byte	0x57
 545 0211 02       		.byte	0x2
 546 0212 23       		.byte	0x23
 547 0213 02       		.uleb128 0x2
 548 0214 00       		.byte	0
ARM GAS  /tmp/ccmCzCQs.s 			page 11


 549 0215 12       		.uleb128 0x12
 550 0216 04       		.byte	0x4
 551 0217 03       		.byte	0x3
 552 0218 B0       		.byte	0xb0
 553 0219 28020000 		.4byte	0x228
 554 021d 13       		.uleb128 0x13
 555 021e D9010000 		.4byte	0x1d9
 556 0222 13       		.uleb128 0x13
 557 0223 F0010000 		.4byte	0x1f0
 558 0227 00       		.byte	0
 559 0228 14       		.uleb128 0x14
 560 0229 01       		.byte	0x1
 561 022a 82000000 		.4byte	.LASF35
 562 022e 01       		.byte	0x1
 563 022f 0B       		.byte	0xb
 564 0230 01       		.byte	0x1
 565 0231 00000000 		.4byte	.LFB63
 566 0235 04000000 		.4byte	.LFE63
 567 0239 02       		.byte	0x2
 568 023a 7D       		.byte	0x7d
 569 023b 00       		.sleb128 0
 570 023c 4E020000 		.4byte	0x24e
 571 0240 15       		.uleb128 0x15
 572 0241 43010000 		.4byte	.LASF37
 573 0245 01       		.byte	0x1
 574 0246 0B       		.byte	0xb
 575 0247 4E020000 		.4byte	0x24e
 576 024b 01       		.byte	0x1
 577 024c 50       		.byte	0x50
 578 024d 00       		.byte	0
 579 024e 06       		.uleb128 0x6
 580 024f 04       		.byte	0x4
 581 0250 CE010000 		.4byte	0x1ce
 582 0254 16       		.uleb128 0x16
 583 0255 01       		.byte	0x1
 584 0256 77010000 		.4byte	.LASF36
 585 025a 01       		.byte	0x1
 586 025b 10       		.byte	0x10
 587 025c 01       		.byte	0x1
 588 025d 00000000 		.4byte	.LFB64
 589 0261 34000000 		.4byte	.LFE64
 590 0265 00000000 		.4byte	.LLST0
 591 0269 9B020000 		.4byte	0x29b
 592 026d 17       		.uleb128 0x17
 593 026e 43010000 		.4byte	.LASF37
 594 0272 01       		.byte	0x1
 595 0273 10       		.byte	0x10
 596 0274 4E020000 		.4byte	0x24e
 597 0278 20000000 		.4byte	.LLST1
 598 027c 17       		.uleb128 0x17
 599 027d 10000000 		.4byte	.LASF38
 600 0281 01       		.byte	0x1
 601 0282 10       		.byte	0x10
 602 0283 73010000 		.4byte	0x173
 603 0287 3E000000 		.4byte	.LLST2
 604 028b 18       		.uleb128 0x18
 605 028c 60010000 		.4byte	.LASF40
ARM GAS  /tmp/ccmCzCQs.s 			page 12


 606 0290 01       		.byte	0x1
 607 0291 11       		.byte	0x11
 608 0292 73010000 		.4byte	0x173
 609 0296 5C000000 		.4byte	.LLST3
 610 029a 00       		.byte	0
 611 029b 16       		.uleb128 0x16
 612 029c 01       		.byte	0x1
 613 029d 1C000000 		.4byte	.LASF39
 614 02a1 01       		.byte	0x1
 615 02a2 22       		.byte	0x22
 616 02a3 01       		.byte	0x1
 617 02a4 00000000 		.4byte	.LFB65
 618 02a8 3C000000 		.4byte	.LFE65
 619 02ac 90000000 		.4byte	.LLST4
 620 02b0 E0020000 		.4byte	0x2e0
 621 02b4 17       		.uleb128 0x17
 622 02b5 43010000 		.4byte	.LASF37
 623 02b9 01       		.byte	0x1
 624 02ba 22       		.byte	0x22
 625 02bb 4E020000 		.4byte	0x24e
 626 02bf B0000000 		.4byte	.LLST5
 627 02c3 17       		.uleb128 0x17
 628 02c4 10000000 		.4byte	.LASF38
 629 02c8 01       		.byte	0x1
 630 02c9 22       		.byte	0x22
 631 02ca 73010000 		.4byte	0x173
 632 02ce E4000000 		.4byte	.LLST6
 633 02d2 19       		.uleb128 0x19
 634 02d3 60010000 		.4byte	.LASF40
 635 02d7 01       		.byte	0x1
 636 02d8 23       		.byte	0x23
 637 02d9 73010000 		.4byte	0x173
 638 02dd 01       		.byte	0x1
 639 02de 54       		.byte	0x54
 640 02df 00       		.byte	0
 641 02e0 1A       		.uleb128 0x1a
 642 02e1 01       		.byte	0x1
 643 02e2 8B020000 		.4byte	.LASF46
 644 02e6 01       		.byte	0x1
 645 02e7 32       		.byte	0x32
 646 02e8 01       		.byte	0x1
 647 02e9 73010000 		.4byte	0x173
 648 02ed 00000000 		.4byte	.LFB66
 649 02f1 30000000 		.4byte	.LFE66
 650 02f5 02010000 		.4byte	.LLST7
 651 02f9 1C030000 		.4byte	0x31c
 652 02fd 17       		.uleb128 0x17
 653 02fe 43010000 		.4byte	.LASF37
 654 0302 01       		.byte	0x1
 655 0303 32       		.byte	0x32
 656 0304 4E020000 		.4byte	0x24e
 657 0308 22010000 		.4byte	.LLST8
 658 030c 18       		.uleb128 0x18
 659 030d 10000000 		.4byte	.LASF38
 660 0311 01       		.byte	0x1
 661 0312 33       		.byte	0x33
 662 0313 73010000 		.4byte	0x173
ARM GAS  /tmp/ccmCzCQs.s 			page 13


 663 0317 40010000 		.4byte	.LLST9
 664 031b 00       		.byte	0
 665 031c 1B       		.uleb128 0x1b
 666 031d FD000000 		.4byte	.LASF41
 667 0321 05       		.byte	0x5
 668 0322 0706     		.2byte	0x607
 669 0324 B1000000 		.4byte	0xb1
 670 0328 01       		.byte	0x1
 671 0329 01       		.byte	0x1
 672 032a 1B       		.uleb128 0x1b
 673 032b FD000000 		.4byte	.LASF41
 674 032f 05       		.byte	0x5
 675 0330 0706     		.2byte	0x607
 676 0332 B1000000 		.4byte	0xb1
 677 0336 01       		.byte	0x1
 678 0337 01       		.byte	0x1
 679 0338 00       		.byte	0
 680              		.section	.debug_abbrev,"",%progbits
 681              	.Ldebug_abbrev0:
 682 0000 01       		.uleb128 0x1
 683 0001 11       		.uleb128 0x11
 684 0002 01       		.byte	0x1
 685 0003 25       		.uleb128 0x25
 686 0004 0E       		.uleb128 0xe
 687 0005 13       		.uleb128 0x13
 688 0006 0B       		.uleb128 0xb
 689 0007 03       		.uleb128 0x3
 690 0008 0E       		.uleb128 0xe
 691 0009 1B       		.uleb128 0x1b
 692 000a 0E       		.uleb128 0xe
 693 000b 11       		.uleb128 0x11
 694 000c 01       		.uleb128 0x1
 695 000d 52       		.uleb128 0x52
 696 000e 01       		.uleb128 0x1
 697 000f 55       		.uleb128 0x55
 698 0010 06       		.uleb128 0x6
 699 0011 10       		.uleb128 0x10
 700 0012 06       		.uleb128 0x6
 701 0013 00       		.byte	0
 702 0014 00       		.byte	0
 703 0015 02       		.uleb128 0x2
 704 0016 24       		.uleb128 0x24
 705 0017 00       		.byte	0
 706 0018 0B       		.uleb128 0xb
 707 0019 0B       		.uleb128 0xb
 708 001a 3E       		.uleb128 0x3e
 709 001b 0B       		.uleb128 0xb
 710 001c 03       		.uleb128 0x3
 711 001d 08       		.uleb128 0x8
 712 001e 00       		.byte	0
 713 001f 00       		.byte	0
 714 0020 03       		.uleb128 0x3
 715 0021 24       		.uleb128 0x24
 716 0022 00       		.byte	0
 717 0023 0B       		.uleb128 0xb
 718 0024 0B       		.uleb128 0xb
 719 0025 3E       		.uleb128 0x3e
ARM GAS  /tmp/ccmCzCQs.s 			page 14


 720 0026 0B       		.uleb128 0xb
 721 0027 03       		.uleb128 0x3
 722 0028 0E       		.uleb128 0xe
 723 0029 00       		.byte	0
 724 002a 00       		.byte	0
 725 002b 04       		.uleb128 0x4
 726 002c 16       		.uleb128 0x16
 727 002d 00       		.byte	0
 728 002e 03       		.uleb128 0x3
 729 002f 0E       		.uleb128 0xe
 730 0030 3A       		.uleb128 0x3a
 731 0031 0B       		.uleb128 0xb
 732 0032 3B       		.uleb128 0x3b
 733 0033 0B       		.uleb128 0xb
 734 0034 49       		.uleb128 0x49
 735 0035 13       		.uleb128 0x13
 736 0036 00       		.byte	0
 737 0037 00       		.byte	0
 738 0038 05       		.uleb128 0x5
 739 0039 0F       		.uleb128 0xf
 740 003a 00       		.byte	0
 741 003b 0B       		.uleb128 0xb
 742 003c 0B       		.uleb128 0xb
 743 003d 00       		.byte	0
 744 003e 00       		.byte	0
 745 003f 06       		.uleb128 0x6
 746 0040 0F       		.uleb128 0xf
 747 0041 00       		.byte	0
 748 0042 0B       		.uleb128 0xb
 749 0043 0B       		.uleb128 0xb
 750 0044 49       		.uleb128 0x49
 751 0045 13       		.uleb128 0x13
 752 0046 00       		.byte	0
 753 0047 00       		.byte	0
 754 0048 07       		.uleb128 0x7
 755 0049 35       		.uleb128 0x35
 756 004a 00       		.byte	0
 757 004b 49       		.uleb128 0x49
 758 004c 13       		.uleb128 0x13
 759 004d 00       		.byte	0
 760 004e 00       		.byte	0
 761 004f 08       		.uleb128 0x8
 762 0050 13       		.uleb128 0x13
 763 0051 01       		.byte	0x1
 764 0052 03       		.uleb128 0x3
 765 0053 0E       		.uleb128 0xe
 766 0054 0B       		.uleb128 0xb
 767 0055 0B       		.uleb128 0xb
 768 0056 3A       		.uleb128 0x3a
 769 0057 0B       		.uleb128 0xb
 770 0058 3B       		.uleb128 0x3b
 771 0059 0B       		.uleb128 0xb
 772 005a 01       		.uleb128 0x1
 773 005b 13       		.uleb128 0x13
 774 005c 00       		.byte	0
 775 005d 00       		.byte	0
 776 005e 09       		.uleb128 0x9
ARM GAS  /tmp/ccmCzCQs.s 			page 15


 777 005f 0D       		.uleb128 0xd
 778 0060 00       		.byte	0
 779 0061 03       		.uleb128 0x3
 780 0062 0E       		.uleb128 0xe
 781 0063 3A       		.uleb128 0x3a
 782 0064 0B       		.uleb128 0xb
 783 0065 3B       		.uleb128 0x3b
 784 0066 0B       		.uleb128 0xb
 785 0067 49       		.uleb128 0x49
 786 0068 13       		.uleb128 0x13
 787 0069 38       		.uleb128 0x38
 788 006a 0A       		.uleb128 0xa
 789 006b 00       		.byte	0
 790 006c 00       		.byte	0
 791 006d 0A       		.uleb128 0xa
 792 006e 0D       		.uleb128 0xd
 793 006f 00       		.byte	0
 794 0070 49       		.uleb128 0x49
 795 0071 13       		.uleb128 0x13
 796 0072 38       		.uleb128 0x38
 797 0073 0A       		.uleb128 0xa
 798 0074 00       		.byte	0
 799 0075 00       		.byte	0
 800 0076 0B       		.uleb128 0xb
 801 0077 0D       		.uleb128 0xd
 802 0078 00       		.byte	0
 803 0079 03       		.uleb128 0x3
 804 007a 08       		.uleb128 0x8
 805 007b 3A       		.uleb128 0x3a
 806 007c 0B       		.uleb128 0xb
 807 007d 3B       		.uleb128 0x3b
 808 007e 0B       		.uleb128 0xb
 809 007f 49       		.uleb128 0x49
 810 0080 13       		.uleb128 0x13
 811 0081 38       		.uleb128 0x38
 812 0082 0A       		.uleb128 0xa
 813 0083 00       		.byte	0
 814 0084 00       		.byte	0
 815 0085 0C       		.uleb128 0xc
 816 0086 0D       		.uleb128 0xd
 817 0087 00       		.byte	0
 818 0088 03       		.uleb128 0x3
 819 0089 0E       		.uleb128 0xe
 820 008a 3A       		.uleb128 0x3a
 821 008b 0B       		.uleb128 0xb
 822 008c 3B       		.uleb128 0x3b
 823 008d 0B       		.uleb128 0xb
 824 008e 49       		.uleb128 0x49
 825 008f 13       		.uleb128 0x13
 826 0090 0B       		.uleb128 0xb
 827 0091 0B       		.uleb128 0xb
 828 0092 0D       		.uleb128 0xd
 829 0093 0B       		.uleb128 0xb
 830 0094 0C       		.uleb128 0xc
 831 0095 0B       		.uleb128 0xb
 832 0096 38       		.uleb128 0x38
 833 0097 0A       		.uleb128 0xa
ARM GAS  /tmp/ccmCzCQs.s 			page 16


 834 0098 00       		.byte	0
 835 0099 00       		.byte	0
 836 009a 0D       		.uleb128 0xd
 837 009b 15       		.uleb128 0x15
 838 009c 01       		.byte	0x1
 839 009d 27       		.uleb128 0x27
 840 009e 0C       		.uleb128 0xc
 841 009f 01       		.uleb128 0x1
 842 00a0 13       		.uleb128 0x13
 843 00a1 00       		.byte	0
 844 00a2 00       		.byte	0
 845 00a3 0E       		.uleb128 0xe
 846 00a4 05       		.uleb128 0x5
 847 00a5 00       		.byte	0
 848 00a6 49       		.uleb128 0x49
 849 00a7 13       		.uleb128 0x13
 850 00a8 00       		.byte	0
 851 00a9 00       		.byte	0
 852 00aa 0F       		.uleb128 0xf
 853 00ab 04       		.uleb128 0x4
 854 00ac 01       		.byte	0x1
 855 00ad 0B       		.uleb128 0xb
 856 00ae 0B       		.uleb128 0xb
 857 00af 3A       		.uleb128 0x3a
 858 00b0 0B       		.uleb128 0xb
 859 00b1 3B       		.uleb128 0x3b
 860 00b2 0B       		.uleb128 0xb
 861 00b3 01       		.uleb128 0x1
 862 00b4 13       		.uleb128 0x13
 863 00b5 00       		.byte	0
 864 00b6 00       		.byte	0
 865 00b7 10       		.uleb128 0x10
 866 00b8 28       		.uleb128 0x28
 867 00b9 00       		.byte	0
 868 00ba 03       		.uleb128 0x3
 869 00bb 0E       		.uleb128 0xe
 870 00bc 1C       		.uleb128 0x1c
 871 00bd 0D       		.uleb128 0xd
 872 00be 00       		.byte	0
 873 00bf 00       		.byte	0
 874 00c0 11       		.uleb128 0x11
 875 00c1 13       		.uleb128 0x13
 876 00c2 01       		.byte	0x1
 877 00c3 0B       		.uleb128 0xb
 878 00c4 0B       		.uleb128 0xb
 879 00c5 3A       		.uleb128 0x3a
 880 00c6 0B       		.uleb128 0xb
 881 00c7 3B       		.uleb128 0x3b
 882 00c8 0B       		.uleb128 0xb
 883 00c9 01       		.uleb128 0x1
 884 00ca 13       		.uleb128 0x13
 885 00cb 00       		.byte	0
 886 00cc 00       		.byte	0
 887 00cd 12       		.uleb128 0x12
 888 00ce 17       		.uleb128 0x17
 889 00cf 01       		.byte	0x1
 890 00d0 0B       		.uleb128 0xb
ARM GAS  /tmp/ccmCzCQs.s 			page 17


 891 00d1 0B       		.uleb128 0xb
 892 00d2 3A       		.uleb128 0x3a
 893 00d3 0B       		.uleb128 0xb
 894 00d4 3B       		.uleb128 0x3b
 895 00d5 0B       		.uleb128 0xb
 896 00d6 01       		.uleb128 0x1
 897 00d7 13       		.uleb128 0x13
 898 00d8 00       		.byte	0
 899 00d9 00       		.byte	0
 900 00da 13       		.uleb128 0x13
 901 00db 0D       		.uleb128 0xd
 902 00dc 00       		.byte	0
 903 00dd 49       		.uleb128 0x49
 904 00de 13       		.uleb128 0x13
 905 00df 00       		.byte	0
 906 00e0 00       		.byte	0
 907 00e1 14       		.uleb128 0x14
 908 00e2 2E       		.uleb128 0x2e
 909 00e3 01       		.byte	0x1
 910 00e4 3F       		.uleb128 0x3f
 911 00e5 0C       		.uleb128 0xc
 912 00e6 03       		.uleb128 0x3
 913 00e7 0E       		.uleb128 0xe
 914 00e8 3A       		.uleb128 0x3a
 915 00e9 0B       		.uleb128 0xb
 916 00ea 3B       		.uleb128 0x3b
 917 00eb 0B       		.uleb128 0xb
 918 00ec 27       		.uleb128 0x27
 919 00ed 0C       		.uleb128 0xc
 920 00ee 11       		.uleb128 0x11
 921 00ef 01       		.uleb128 0x1
 922 00f0 12       		.uleb128 0x12
 923 00f1 01       		.uleb128 0x1
 924 00f2 40       		.uleb128 0x40
 925 00f3 0A       		.uleb128 0xa
 926 00f4 01       		.uleb128 0x1
 927 00f5 13       		.uleb128 0x13
 928 00f6 00       		.byte	0
 929 00f7 00       		.byte	0
 930 00f8 15       		.uleb128 0x15
 931 00f9 05       		.uleb128 0x5
 932 00fa 00       		.byte	0
 933 00fb 03       		.uleb128 0x3
 934 00fc 0E       		.uleb128 0xe
 935 00fd 3A       		.uleb128 0x3a
 936 00fe 0B       		.uleb128 0xb
 937 00ff 3B       		.uleb128 0x3b
 938 0100 0B       		.uleb128 0xb
 939 0101 49       		.uleb128 0x49
 940 0102 13       		.uleb128 0x13
 941 0103 02       		.uleb128 0x2
 942 0104 0A       		.uleb128 0xa
 943 0105 00       		.byte	0
 944 0106 00       		.byte	0
 945 0107 16       		.uleb128 0x16
 946 0108 2E       		.uleb128 0x2e
 947 0109 01       		.byte	0x1
ARM GAS  /tmp/ccmCzCQs.s 			page 18


 948 010a 3F       		.uleb128 0x3f
 949 010b 0C       		.uleb128 0xc
 950 010c 03       		.uleb128 0x3
 951 010d 0E       		.uleb128 0xe
 952 010e 3A       		.uleb128 0x3a
 953 010f 0B       		.uleb128 0xb
 954 0110 3B       		.uleb128 0x3b
 955 0111 0B       		.uleb128 0xb
 956 0112 27       		.uleb128 0x27
 957 0113 0C       		.uleb128 0xc
 958 0114 11       		.uleb128 0x11
 959 0115 01       		.uleb128 0x1
 960 0116 12       		.uleb128 0x12
 961 0117 01       		.uleb128 0x1
 962 0118 40       		.uleb128 0x40
 963 0119 06       		.uleb128 0x6
 964 011a 01       		.uleb128 0x1
 965 011b 13       		.uleb128 0x13
 966 011c 00       		.byte	0
 967 011d 00       		.byte	0
 968 011e 17       		.uleb128 0x17
 969 011f 05       		.uleb128 0x5
 970 0120 00       		.byte	0
 971 0121 03       		.uleb128 0x3
 972 0122 0E       		.uleb128 0xe
 973 0123 3A       		.uleb128 0x3a
 974 0124 0B       		.uleb128 0xb
 975 0125 3B       		.uleb128 0x3b
 976 0126 0B       		.uleb128 0xb
 977 0127 49       		.uleb128 0x49
 978 0128 13       		.uleb128 0x13
 979 0129 02       		.uleb128 0x2
 980 012a 06       		.uleb128 0x6
 981 012b 00       		.byte	0
 982 012c 00       		.byte	0
 983 012d 18       		.uleb128 0x18
 984 012e 34       		.uleb128 0x34
 985 012f 00       		.byte	0
 986 0130 03       		.uleb128 0x3
 987 0131 0E       		.uleb128 0xe
 988 0132 3A       		.uleb128 0x3a
 989 0133 0B       		.uleb128 0xb
 990 0134 3B       		.uleb128 0x3b
 991 0135 0B       		.uleb128 0xb
 992 0136 49       		.uleb128 0x49
 993 0137 13       		.uleb128 0x13
 994 0138 02       		.uleb128 0x2
 995 0139 06       		.uleb128 0x6
 996 013a 00       		.byte	0
 997 013b 00       		.byte	0
 998 013c 19       		.uleb128 0x19
 999 013d 34       		.uleb128 0x34
 1000 013e 00       		.byte	0
 1001 013f 03       		.uleb128 0x3
 1002 0140 0E       		.uleb128 0xe
 1003 0141 3A       		.uleb128 0x3a
 1004 0142 0B       		.uleb128 0xb
ARM GAS  /tmp/ccmCzCQs.s 			page 19


 1005 0143 3B       		.uleb128 0x3b
 1006 0144 0B       		.uleb128 0xb
 1007 0145 49       		.uleb128 0x49
 1008 0146 13       		.uleb128 0x13
 1009 0147 02       		.uleb128 0x2
 1010 0148 0A       		.uleb128 0xa
 1011 0149 00       		.byte	0
 1012 014a 00       		.byte	0
 1013 014b 1A       		.uleb128 0x1a
 1014 014c 2E       		.uleb128 0x2e
 1015 014d 01       		.byte	0x1
 1016 014e 3F       		.uleb128 0x3f
 1017 014f 0C       		.uleb128 0xc
 1018 0150 03       		.uleb128 0x3
 1019 0151 0E       		.uleb128 0xe
 1020 0152 3A       		.uleb128 0x3a
 1021 0153 0B       		.uleb128 0xb
 1022 0154 3B       		.uleb128 0x3b
 1023 0155 0B       		.uleb128 0xb
 1024 0156 27       		.uleb128 0x27
 1025 0157 0C       		.uleb128 0xc
 1026 0158 49       		.uleb128 0x49
 1027 0159 13       		.uleb128 0x13
 1028 015a 11       		.uleb128 0x11
 1029 015b 01       		.uleb128 0x1
 1030 015c 12       		.uleb128 0x12
 1031 015d 01       		.uleb128 0x1
 1032 015e 40       		.uleb128 0x40
 1033 015f 06       		.uleb128 0x6
 1034 0160 01       		.uleb128 0x1
 1035 0161 13       		.uleb128 0x13
 1036 0162 00       		.byte	0
 1037 0163 00       		.byte	0
 1038 0164 1B       		.uleb128 0x1b
 1039 0165 34       		.uleb128 0x34
 1040 0166 00       		.byte	0
 1041 0167 03       		.uleb128 0x3
 1042 0168 0E       		.uleb128 0xe
 1043 0169 3A       		.uleb128 0x3a
 1044 016a 0B       		.uleb128 0xb
 1045 016b 3B       		.uleb128 0x3b
 1046 016c 05       		.uleb128 0x5
 1047 016d 49       		.uleb128 0x49
 1048 016e 13       		.uleb128 0x13
 1049 016f 3F       		.uleb128 0x3f
 1050 0170 0C       		.uleb128 0xc
 1051 0171 3C       		.uleb128 0x3c
 1052 0172 0C       		.uleb128 0xc
 1053 0173 00       		.byte	0
 1054 0174 00       		.byte	0
 1055 0175 00       		.byte	0
 1056              		.section	.debug_loc,"",%progbits
 1057              	.Ldebug_loc0:
 1058              	.LLST0:
 1059 0000 00000000 		.4byte	.LFB64
 1060 0004 02000000 		.4byte	.LCFI0
 1061 0008 0200     		.2byte	0x2
ARM GAS  /tmp/ccmCzCQs.s 			page 20


 1062 000a 7D       		.byte	0x7d
 1063 000b 00       		.sleb128 0
 1064 000c 02000000 		.4byte	.LCFI0
 1065 0010 34000000 		.4byte	.LFE64
 1066 0014 0200     		.2byte	0x2
 1067 0016 7D       		.byte	0x7d
 1068 0017 10       		.sleb128 16
 1069 0018 00000000 		.4byte	0
 1070 001c 00000000 		.4byte	0
 1071              	.LLST1:
 1072 0020 00000000 		.4byte	.LVL1
 1073 0024 08000000 		.4byte	.LVL3
 1074 0028 0100     		.2byte	0x1
 1075 002a 50       		.byte	0x50
 1076 002b 0A000000 		.4byte	.LVL4
 1077 002f 34000000 		.4byte	.LFE64
 1078 0033 0100     		.2byte	0x1
 1079 0035 54       		.byte	0x54
 1080 0036 00000000 		.4byte	0
 1081 003a 00000000 		.4byte	0
 1082              	.LLST2:
 1083 003e 00000000 		.4byte	.LVL1
 1084 0042 0A000000 		.4byte	.LVL4
 1085 0046 0100     		.2byte	0x1
 1086 0048 51       		.byte	0x51
 1087 0049 0A000000 		.4byte	.LVL4
 1088 004d 34000000 		.4byte	.LFE64
 1089 0051 0100     		.2byte	0x1
 1090 0053 55       		.byte	0x55
 1091 0054 00000000 		.4byte	0
 1092 0058 00000000 		.4byte	0
 1093              	.LLST3:
 1094 005c 04000000 		.4byte	.LVL2
 1095 0060 0A000000 		.4byte	.LVL4
 1096 0064 0100     		.2byte	0x1
 1097 0066 50       		.byte	0x50
 1098 0067 0A000000 		.4byte	.LVL4
 1099 006b 0E000000 		.4byte	.LVL5
 1100 006f 0100     		.2byte	0x1
 1101 0071 54       		.byte	0x54
 1102 0072 0E000000 		.4byte	.LVL5
 1103 0076 28000000 		.4byte	.LVL7
 1104 007a 0100     		.2byte	0x1
 1105 007c 52       		.byte	0x52
 1106 007d 28000000 		.4byte	.LVL7
 1107 0081 34000000 		.4byte	.LFE64
 1108 0085 0100     		.2byte	0x1
 1109 0087 54       		.byte	0x54
 1110 0088 00000000 		.4byte	0
 1111 008c 00000000 		.4byte	0
 1112              	.LLST4:
 1113 0090 00000000 		.4byte	.LFB65
 1114 0094 02000000 		.4byte	.LCFI1
 1115 0098 0200     		.2byte	0x2
 1116 009a 7D       		.byte	0x7d
 1117 009b 00       		.sleb128 0
 1118 009c 02000000 		.4byte	.LCFI1
ARM GAS  /tmp/ccmCzCQs.s 			page 21


 1119 00a0 3C000000 		.4byte	.LFE65
 1120 00a4 0200     		.2byte	0x2
 1121 00a6 7D       		.byte	0x7d
 1122 00a7 10       		.sleb128 16
 1123 00a8 00000000 		.4byte	0
 1124 00ac 00000000 		.4byte	0
 1125              	.LLST5:
 1126 00b0 00000000 		.4byte	.LVL8
 1127 00b4 0A000000 		.4byte	.LVL9
 1128 00b8 0100     		.2byte	0x1
 1129 00ba 50       		.byte	0x50
 1130 00bb 0A000000 		.4byte	.LVL9
 1131 00bf 12000000 		.4byte	.LVL10
 1132 00c3 0100     		.2byte	0x1
 1133 00c5 54       		.byte	0x54
 1134 00c6 20000000 		.4byte	.LVL11
 1135 00ca 22000000 		.4byte	.LVL12
 1136 00ce 0100     		.2byte	0x1
 1137 00d0 50       		.byte	0x50
 1138 00d1 22000000 		.4byte	.LVL12
 1139 00d5 3C000000 		.4byte	.LFE65
 1140 00d9 0100     		.2byte	0x1
 1141 00db 54       		.byte	0x54
 1142 00dc 00000000 		.4byte	0
 1143 00e0 00000000 		.4byte	0
 1144              	.LLST6:
 1145 00e4 00000000 		.4byte	.LVL8
 1146 00e8 0A000000 		.4byte	.LVL9
 1147 00ec 0100     		.2byte	0x1
 1148 00ee 51       		.byte	0x51
 1149 00ef 0A000000 		.4byte	.LVL9
 1150 00f3 3C000000 		.4byte	.LFE65
 1151 00f7 0100     		.2byte	0x1
 1152 00f9 55       		.byte	0x55
 1153 00fa 00000000 		.4byte	0
 1154 00fe 00000000 		.4byte	0
 1155              	.LLST7:
 1156 0102 00000000 		.4byte	.LFB66
 1157 0106 02000000 		.4byte	.LCFI2
 1158 010a 0200     		.2byte	0x2
 1159 010c 7D       		.byte	0x7d
 1160 010d 00       		.sleb128 0
 1161 010e 02000000 		.4byte	.LCFI2
 1162 0112 30000000 		.4byte	.LFE66
 1163 0116 0200     		.2byte	0x2
 1164 0118 7D       		.byte	0x7d
 1165 0119 08       		.sleb128 8
 1166 011a 00000000 		.4byte	0
 1167 011e 00000000 		.4byte	0
 1168              	.LLST8:
 1169 0122 00000000 		.4byte	.LVL14
 1170 0126 06000000 		.4byte	.LVL15
 1171 012a 0100     		.2byte	0x1
 1172 012c 50       		.byte	0x50
 1173 012d 06000000 		.4byte	.LVL15
 1174 0131 30000000 		.4byte	.LFE66
 1175 0135 0100     		.2byte	0x1
ARM GAS  /tmp/ccmCzCQs.s 			page 22


 1176 0137 54       		.byte	0x54
 1177 0138 00000000 		.4byte	0
 1178 013c 00000000 		.4byte	0
 1179              	.LLST9:
 1180 0140 0C000000 		.4byte	.LVL16
 1181 0144 12000000 		.4byte	.LVL17
 1182 0148 0200     		.2byte	0x2
 1183 014a 74       		.byte	0x74
 1184 014b 00       		.sleb128 0
 1185 014c 1A000000 		.4byte	.LVL18
 1186 0150 20000000 		.4byte	.LVL19
 1187 0154 0200     		.2byte	0x2
 1188 0156 74       		.byte	0x74
 1189 0157 00       		.sleb128 0
 1190 0158 00000000 		.4byte	0
 1191 015c 00000000 		.4byte	0
 1192              		.section	.debug_aranges,"",%progbits
 1193 0000 34000000 		.4byte	0x34
 1194 0004 0200     		.2byte	0x2
 1195 0006 00000000 		.4byte	.Ldebug_info0
 1196 000a 04       		.byte	0x4
 1197 000b 00       		.byte	0
 1198 000c 0000     		.2byte	0
 1199 000e 0000     		.2byte	0
 1200 0010 00000000 		.4byte	.LFB63
 1201 0014 04000000 		.4byte	.LFE63-.LFB63
 1202 0018 00000000 		.4byte	.LFB64
 1203 001c 34000000 		.4byte	.LFE64-.LFB64
 1204 0020 00000000 		.4byte	.LFB65
 1205 0024 3C000000 		.4byte	.LFE65-.LFB65
 1206 0028 00000000 		.4byte	.LFB66
 1207 002c 30000000 		.4byte	.LFE66-.LFB66
 1208 0030 00000000 		.4byte	0
 1209 0034 00000000 		.4byte	0
 1210              		.section	.debug_ranges,"",%progbits
 1211              	.Ldebug_ranges0:
 1212 0000 00000000 		.4byte	.LFB63
 1213 0004 04000000 		.4byte	.LFE63
 1214 0008 00000000 		.4byte	.LFB64
 1215 000c 34000000 		.4byte	.LFE64
 1216 0010 00000000 		.4byte	.LFB65
 1217 0014 3C000000 		.4byte	.LFE65
 1218 0018 00000000 		.4byte	.LFB66
 1219 001c 30000000 		.4byte	.LFE66
 1220 0020 00000000 		.4byte	0
 1221 0024 00000000 		.4byte	0
 1222              		.section	.debug_line,"",%progbits
 1223              	.Ldebug_line0:
 1224 0000 D3010000 		.section	.debug_str,"MS",%progbits,1
 1224      02002F01 
 1224      00000201 
 1224      FB0E0D00 
 1224      01010101 
 1225              	.LASF25:
 1226 0000 52544341 		.ascii	"RTCAN_MSG_READY\000"
 1226      4E5F4D53 
 1226      475F5245 
ARM GAS  /tmp/ccmCzCQs.s 			page 23


 1226      41445900 
 1227              	.LASF38:
 1228 0010 6D736770 		.ascii	"msgp\000"
 1228      00
 1229              	.LASF34:
 1230 0015 70657269 		.ascii	"period\000"
 1230      6F6400
 1231              	.LASF39:
 1232 001c 6D736771 		.ascii	"msgqueue_remove\000"
 1232      75657565 
 1232      5F72656D 
 1232      6F766500 
 1233              	.LASF6:
 1234 002c 73686F72 		.ascii	"short unsigned int\000"
 1234      7420756E 
 1234      7369676E 
 1234      65642069 
 1234      6E7400
 1235              	.LASF21:
 1236 003f 64617461 		.ascii	"data\000"
 1236      00
 1237              	.LASF17:
 1238 0044 73746174 		.ascii	"status\000"
 1238      757300
 1239              	.LASF27:
 1240 004b 52544341 		.ascii	"RTCAN_MSG_ONAIR\000"
 1240      4E5F4D53 
 1240      475F4F4E 
 1240      41495200 
 1241              	.LASF29:
 1242 005b 52544341 		.ascii	"RTCAN_MSG_ERROR\000"
 1242      4E5F4D53 
 1242      475F4552 
 1242      524F5200 
 1243              	.LASF12:
 1244 006b 6C6F6E67 		.ascii	"long long unsigned int\000"
 1244      206C6F6E 
 1244      6720756E 
 1244      7369676E 
 1244      65642069 
 1245              	.LASF35:
 1246 0082 6D736771 		.ascii	"msgqueue_init\000"
 1246      75657565 
 1246      5F696E69 
 1246      7400
 1247              	.LASF42:
 1248 0090 474E5520 		.ascii	"GNU C 4.6.2 20120613 (release) [ARM/embedded-4_6-br"
 1248      4320342E 
 1248      362E3220 
 1248      32303132 
 1248      30363133 
 1249 00c3 616E6368 		.ascii	"anch revision 188521]\000"
 1249      20726576 
 1249      6973696F 
 1249      6E203138 
 1249      38353231 
 1250              	.LASF10:
ARM GAS  /tmp/ccmCzCQs.s 			page 24


 1251 00d9 6C6F6E67 		.ascii	"long unsigned int\000"
 1251      20756E73 
 1251      69676E65 
 1251      6420696E 
 1251      7400
 1252              	.LASF18:
 1253 00eb 63616C6C 		.ascii	"callback\000"
 1253      6261636B 
 1253      00
 1254              	.LASF45:
 1255 00f4 66726167 		.ascii	"fragment\000"
 1255      6D656E74 
 1255      00
 1256              	.LASF41:
 1257 00fd 49544D5F 		.ascii	"ITM_RxBuffer\000"
 1257      52784275 
 1257      66666572 
 1257      00
 1258              	.LASF28:
 1259 010a 52544341 		.ascii	"RTCAN_MSG_TIMEOUT\000"
 1259      4E5F4D53 
 1259      475F5449 
 1259      4D454F55 
 1259      5400
 1260              	.LASF2:
 1261 011c 756E7369 		.ascii	"unsigned char\000"
 1261      676E6564 
 1261      20636861 
 1261      7200
 1262              	.LASF19:
 1263 012a 70617261 		.ascii	"params\000"
 1263      6D7300
 1264              	.LASF30:
 1265 0131 72746361 		.ascii	"rtcan_msgstatus_t\000"
 1265      6E5F6D73 
 1265      67737461 
 1265      7475735F 
 1265      7400
 1266              	.LASF37:
 1267 0143 71756575 		.ascii	"queuep\000"
 1267      657000
 1268              	.LASF3:
 1269 014a 73686F72 		.ascii	"short int\000"
 1269      7420696E 
 1269      7400
 1270              	.LASF15:
 1271 0154 72746361 		.ascii	"rtcan_msg_t\000"
 1271      6E5F6D73 
 1271      675F7400 
 1272              	.LASF40:
 1273 0160 63757272 		.ascii	"curr_msgp\000"
 1273      5F6D7367 
 1273      7000
 1274              	.LASF0:
 1275 016a 756E7369 		.ascii	"unsigned int\000"
 1275      676E6564 
 1275      20696E74 
ARM GAS  /tmp/ccmCzCQs.s 			page 25


 1275      00
 1276              	.LASF36:
 1277 0177 6D736771 		.ascii	"msgqueue_insert\000"
 1277      75657565 
 1277      5F696E73 
 1277      65727400 
 1278              	.LASF14:
 1279 0187 63686172 		.ascii	"char\000"
 1279      00
 1280              	.LASF4:
 1281 018c 75696E74 		.ascii	"uint8_t\000"
 1281      385F7400 
 1282              	.LASF44:
 1283 0194 2F686F6D 		.ascii	"/home/tino/workspace/openrobots/R2P_IR_module/fw\000"
 1283      652F7469 
 1283      6E6F2F77 
 1283      6F726B73 
 1283      70616365 
 1284              	.LASF26:
 1285 01c5 52544341 		.ascii	"RTCAN_MSG_QUEUED\000"
 1285      4E5F4D53 
 1285      475F5155 
 1285      45554544 
 1285      00
 1286              	.LASF33:
 1287 01d6 736C6F74 		.ascii	"slot\000"
 1287      00
 1288              	.LASF7:
 1289 01db 696E7433 		.ascii	"int32_t\000"
 1289      325F7400 
 1290              	.LASF11:
 1291 01e3 6C6F6E67 		.ascii	"long long int\000"
 1291      206C6F6E 
 1291      6720696E 
 1291      7400
 1292              	.LASF24:
 1293 01f1 52544341 		.ascii	"RTCAN_MSG_BUSY\000"
 1293      4E5F4D53 
 1293      475F4255 
 1293      535900
 1294              	.LASF32:
 1295 0200 64656164 		.ascii	"deadline\000"
 1295      6C696E65 
 1295      00
 1296              	.LASF31:
 1297 0209 6D736771 		.ascii	"msgqueue_t\000"
 1297      75657565 
 1297      5F7400
 1298              	.LASF5:
 1299 0214 75696E74 		.ascii	"uint16_t\000"
 1299      31365F74 
 1299      00
 1300              	.LASF43:
 1301 021d 2E2E2F2E 		.ascii	"../../RTCAN/src/msgqueue.c\000"
 1301      2E2F5254 
 1301      43414E2F 
 1301      7372632F 
ARM GAS  /tmp/ccmCzCQs.s 			page 26


 1301      6D736771 
 1302              	.LASF9:
 1303 0238 75696E74 		.ascii	"uint32_t\000"
 1303      33325F74 
 1303      00
 1304              	.LASF8:
 1305 0241 6C6F6E67 		.ascii	"long int\000"
 1305      20696E74 
 1305      00
 1306              	.LASF23:
 1307 024a 52544341 		.ascii	"RTCAN_MSG_UNINIT\000"
 1307      4E5F4D53 
 1307      475F554E 
 1307      494E4954 
 1307      00
 1308              	.LASF22:
 1309 025b 72746361 		.ascii	"rtcan_msgcallback_t\000"
 1309      6E5F6D73 
 1309      6763616C 
 1309      6C626163 
 1309      6B5F7400 
 1310              	.LASF1:
 1311 026f 7369676E 		.ascii	"signed char\000"
 1311      65642063 
 1311      68617200 
 1312              	.LASF16:
 1313 027b 6E657874 		.ascii	"next\000"
 1313      00
 1314              	.LASF20:
 1315 0280 73697A65 		.ascii	"size\000"
 1315      00
 1316              	.LASF13:
 1317 0285 5F426F6F 		.ascii	"_Bool\000"
 1317      6C00
 1318              	.LASF46:
 1319 028b 6D736771 		.ascii	"msgqueue_get\000"
 1319      75657565 
 1319      5F676574 
 1319      00
 1320              		.ident	"GCC: (GNU Tools for ARM Embedded Processors) 4.6.2 20120613 (release) [ARM/embedded-4_6-br
ARM GAS  /tmp/ccmCzCQs.s 			page 27


DEFINED SYMBOLS
                            *ABS*:00000000 msgqueue.c
     /tmp/ccmCzCQs.s:19     .text.msgqueue_init:00000000 $t
     /tmp/ccmCzCQs.s:25     .text.msgqueue_init:00000000 msgqueue_init
     /tmp/ccmCzCQs.s:42     .text.msgqueue_insert:00000000 $t
     /tmp/ccmCzCQs.s:48     .text.msgqueue_insert:00000000 msgqueue_insert
     /tmp/ccmCzCQs.s:106    .text.msgqueue_insert:00000030 $d
     /tmp/ccmCzCQs.s:111    .text.msgqueue_remove:00000000 $t
     /tmp/ccmCzCQs.s:117    .text.msgqueue_remove:00000000 msgqueue_remove
     /tmp/ccmCzCQs.s:177    .text.msgqueue_remove:00000034 $d
     /tmp/ccmCzCQs.s:183    .text.msgqueue_get:00000000 $t
     /tmp/ccmCzCQs.s:189    .text.msgqueue_get:00000000 msgqueue_get
     /tmp/ccmCzCQs.s:238    .text.msgqueue_get:00000028 $d
     /tmp/ccmCzCQs.s:244    .rodata.str1.4:00000000 $d
                     .debug_frame:00000010 $d
     /tmp/ccmCzCQs.s:1320   .text.msgqueue_insert:00000034 $t
     /tmp/ccmCzCQs.s:182    .text.msgqueue_remove:0000003c $t

UNDEFINED SYMBOLS
chDbgPanic
