ARM GAS  /tmp/ccXs6z0w.s 			page 1


   1              		.syntax unified
   2              		.cpu cortex-m3
   3              		.fpu softvfp
   4              		.eabi_attribute 20, 1
   5              		.eabi_attribute 21, 1
   6              		.eabi_attribute 23, 3
   7              		.eabi_attribute 24, 1
   8              		.eabi_attribute 25, 1
   9              		.eabi_attribute 26, 1
  10              		.eabi_attribute 30, 2
  11              		.eabi_attribute 34, 1
  12              		.eabi_attribute 18, 4
  13              		.thumb
  14              		.file	"nvic.c"
  15              		.text
  16              	.Ltext0:
  17              		.cfi_sections	.debug_frame
  18              		.section	.text.nvicEnableVector,"ax",%progbits
  19              		.align	2
  20              		.p2align 4,,15
  21              		.global	nvicEnableVector
  22              		.thumb
  23              		.thumb_func
  24              		.type	nvicEnableVector, %function
  25              	nvicEnableVector:
  26              	.LFB7:
  27              		.file 1 "../../ChibiOS/os/ports/common/ARMCMx/nvic.c"
  28              		.loc 1 39 0
  29              		.cfi_startproc
  30              		@ args = 0, pretend = 0, frame = 0
  31              		@ frame_needed = 0, uses_anonymous_args = 0
  32              		@ link register save eliminated.
  33              	.LVL0:
  34              		.loc 1 40 0
  35 0000 00F00303 		and	r3, r0, #3
  36              		.loc 1 39 0
  37 0004 F0B4     		push	{r4, r5, r6, r7}
  38              	.LCFI0:
  39              		.cfi_def_cfa_offset 16
  40              		.cfi_offset 7, -4
  41              		.cfi_offset 6, -8
  42              		.cfi_offset 5, -12
  43              		.cfi_offset 4, -16
  44              		.loc 1 40 0
  45 0006 DA00     		lsls	r2, r3, #3
  46              		.loc 1 42 0
  47 0008 FF27     		movs	r7, #255
  48 000a 07FA02F7 		lsl	r7, r7, r2
  49 000e 01FA02FC 		lsl	ip, r1, r2
  50              		.loc 1 43 0
  51 0012 00F01F05 		and	r5, r0, #31
  52 0016 0124     		movs	r4, #1
  53 0018 04FA05F4 		lsl	r4, r4, r5
  54              		.loc 1 42 0
  55 001c 4FF46142 		mov	r2, #57600
  56 0020 8508     		lsrs	r5, r0, #2
  57 0022 CEF20002 		movt	r2, 57344
ARM GAS  /tmp/ccXs6z0w.s 			page 2


  58 0026 C035     		adds	r5, r5, #192
  59 0028 52F82560 		ldr	r6, [r2, r5, lsl #2]
  60              		.loc 1 43 0
  61 002c 4009     		lsrs	r0, r0, #5
  62              	.LVL1:
  63              		.loc 1 42 0
  64 002e 26EA0701 		bic	r1, r6, r7
  65              	.LVL2:
  66 0032 41EA0C03 		orr	r3, r1, ip
  67              		.loc 1 43 0
  68 0036 00F16006 		add	r6, r0, #96
  69              		.loc 1 42 0
  70 003a 42F82530 		str	r3, [r2, r5, lsl #2]
  71              		.loc 1 43 0
  72 003e 42F82640 		str	r4, [r2, r6, lsl #2]
  73              		.loc 1 44 0
  74 0042 42F82040 		str	r4, [r2, r0, lsl #2]
  75              		.loc 1 45 0
  76 0046 F0BC     		pop	{r4, r5, r6, r7}
  77 0048 7047     		bx	lr
  78              		.cfi_endproc
  79              	.LFE7:
  80              		.size	nvicEnableVector, .-nvicEnableVector
  81 004a 00BFAFF3 		.section	.text.nvicDisableVector,"ax",%progbits
  81      0080
  82              		.align	2
  83              		.p2align 4,,15
  84              		.global	nvicDisableVector
  85              		.thumb
  86              		.thumb_func
  87              		.type	nvicDisableVector, %function
  88              	nvicDisableVector:
  89              	.LFB8:
  90              		.loc 1 53 0
  91              		.cfi_startproc
  92              		@ args = 0, pretend = 0, frame = 0
  93              		@ frame_needed = 0, uses_anonymous_args = 0
  94              		@ link register save eliminated.
  95              	.LVL3:
  96 0000 10B4     		push	{r4}
  97              	.LCFI1:
  98              		.cfi_def_cfa_offset 4
  99              		.cfi_offset 4, -4
 100              		.loc 1 56 0
 101 0002 00F01F01 		and	r1, r0, #31
 102 0006 0124     		movs	r4, #1
 103 0008 04FA01F4 		lsl	r4, r4, r1
 104              		.loc 1 54 0
 105 000c 00F00302 		and	r2, r0, #3
 106 0010 D100     		lsls	r1, r2, #3
 107              		.loc 1 57 0
 108 0012 FF23     		movs	r3, #255
 109 0014 03FA01FC 		lsl	ip, r3, r1
 110              		.loc 1 56 0
 111 0018 4209     		lsrs	r2, r0, #5
 112 001a 4FF46143 		mov	r3, #57600
 113 001e CEF20003 		movt	r3, 57344
ARM GAS  /tmp/ccXs6z0w.s 			page 3


 114 0022 2032     		adds	r2, r2, #32
 115              		.loc 1 57 0
 116 0024 8008     		lsrs	r0, r0, #2
 117              	.LVL4:
 118              		.loc 1 56 0
 119 0026 43F82240 		str	r4, [r3, r2, lsl #2]
 120              		.loc 1 57 0
 121 002a C030     		adds	r0, r0, #192
 122 002c 53F82010 		ldr	r1, [r3, r0, lsl #2]
 123              	.LVL5:
 124 0030 21EA0C02 		bic	r2, r1, ip
 125 0034 43F82020 		str	r2, [r3, r0, lsl #2]
 126              		.loc 1 58 0
 127 0038 10BC     		pop	{r4}
 128 003a 7047     		bx	lr
 129              		.cfi_endproc
 130              	.LFE8:
 131              		.size	nvicDisableVector, .-nvicDisableVector
 132 003c AFF30080 		.section	.text.nvicSetSystemHandlerPriority,"ax",%progbits
 133              		.align	2
 134              		.p2align 4,,15
 135              		.global	nvicSetSystemHandlerPriority
 136              		.thumb
 137              		.thumb_func
 138              		.type	nvicSetSystemHandlerPriority, %function
 139              	nvicSetSystemHandlerPriority:
 140              	.LFB9:
 141              		.loc 1 67 0
 142              		.cfi_startproc
 143              		@ args = 0, pretend = 0, frame = 0
 144              		@ frame_needed = 0, uses_anonymous_args = 0
 145              		@ link register save eliminated.
 146              	.LVL6:
 147              		.loc 1 68 0
 148 0000 00F00303 		and	r3, r0, #3
 149              		.loc 1 67 0
 150 0004 30B4     		push	{r4, r5}
 151              	.LCFI2:
 152              		.cfi_def_cfa_offset 8
 153              		.cfi_offset 5, -4
 154              		.cfi_offset 4, -8
 155              		.loc 1 68 0
 156 0006 DA00     		lsls	r2, r3, #3
 157              		.loc 1 71 0
 158 0008 FF25     		movs	r5, #255
 159 000a 05FA02F5 		lsl	r5, r5, r2
 160 000e 01FA02FC 		lsl	ip, r1, r2
 161              		.loc 1 70 0
 162 0012 8408     		lsrs	r4, r0, #2
 163 0014 4FF46D42 		mov	r2, #60672
 164 0018 CEF20002 		movt	r2, 57344
 165 001c A01D     		adds	r0, r4, #6
 166              	.LVL7:
 167 001e 52F82040 		ldr	r4, [r2, r0, lsl #2]
 168 0022 24EA0501 		bic	r1, r4, r5
 169              	.LVL8:
 170              		.loc 1 71 0
ARM GAS  /tmp/ccXs6z0w.s 			page 4


 171 0026 41EA0C03 		orr	r3, r1, ip
 172              		.loc 1 70 0
 173 002a 42F82030 		str	r3, [r2, r0, lsl #2]
 174              		.loc 1 72 0
 175 002e 30BC     		pop	{r4, r5}
 176 0030 7047     		bx	lr
 177              		.cfi_endproc
 178              	.LFE9:
 179              		.size	nvicSetSystemHandlerPriority, .-nvicSetSystemHandlerPriority
 180 0032 00BFAFF3 		.text
 180      0080AFF3 
 180      0080AFF3 
 180      0080
 181              	.Letext0:
 182              		.file 2 "../../ChibiOS/os/ports/common/ARMCMx/nvic.h"
 183              		.file 3 "/home/tino/ChibiStudio/tools/GNU Tools ARM Embedded/4.6 2012q2/bin/../lib/gcc/arm-none-ea