ARM GAS  /tmp/ccXs6z0w.s 			page 1


   1              		.syntax unified
   2              		.cpu cortex-m3
   3              		.fpu softvfp
   4              		.eabi_attribute 20, 1
   5              		.eabi_attribute 21, 1
   6              		.eabi_attribute 23, 3
   7              		.eabi_attribute 24, 1
   8              		.eabi_attribute 25, 1
   9              		.eabi_attribute 26, 1
  10              		.eabi_attribute 30, 2
  11              		.eabi_attribute 34, 1
  12              		.eabi_attribute 18, 4
  13              		.thumb
  14              		.file	"nvic.c"
  15              		.text
  16              	.Ltext0:
  17              		.cfi_sections	.debug_frame
  18              		.section	.text.nvicEnableVector,"ax",%progbits
  19              		.align	2
  20              		.p2align 4,,15
  21              		.global	nvicEnableVector
  22              		.thumb
  23              		.thumb_func
  24              		.type	nvicEnableVector, %function
  25              	nvicEnableVector:
  26              	.LFB7:
  27              		.file 1 "../../ChibiOS/os/ports/common/ARMCMx/nvic.c"
  28              		.loc 1 39 0
  29              		.cfi_startproc
  30              		@ args = 0, pretend = 0, frame = 0
  31              		@ frame_needed = 0, uses_anonymous_args = 0
  32              		@ link register save eliminated.
  33              	.LVL0:
  34              		.loc 1 40 0
  35 0000 00F00303 		and	r3, r0, #3
  36              		.loc 1 39 0
  37 0004 F0B4     		push	{r4, r5, r6, r7}
  38              	.LCFI0:
  39              		.cfi_def_cfa_offset 16
  40              		.cfi_offset 7, -4
  41              		.cfi_offset 6, -8
  42              		.cfi_offset 5, -12
  43              		.cfi_offset 4, -16
  44              		.loc 1 40 0
  45 0006 DA00     		lsls	r2, r3, #3
  46              		.loc 1 42 0
  47 0008 FF27     		movs	r7, #255
  48 000a 07FA02F7 		lsl	r7, r7, r2
  49 000e 01FA02FC 		lsl	ip, r1, r2
  50              		.loc 1 43 0
  51 0012 00F01F05 		and	r5, r0, #31
  52 0016 0124     		movs	r4, #1
  53 0018 04FA05F4 		lsl	r4, r4, r5
  54              		.loc 1 42 0
  55 001c 4FF46142 		mov	r2, #57600
  56 0020 8508     		lsrs	r5, r0, #2
  57 0022 CEF20002 		movt	r2, 57344
ARM GAS  /tmp/ccXs6z0w.s 			page 2


  58 0026 C035     		adds	r5, r5, #192
  59 0028 52F82560 		ldr	r6, [r2, r5, lsl #2]
  60              		.loc 1 43 0
  61 002c 4009     		lsrs	r0, r0, #5
  62              	.LVL1:
  63              		.loc 1 42 0
  64 002e 26EA0701 		bic	r1, r6, r7
  65              	.LVL2:
  66 0032 41EA0C03 		orr	r3, r1, ip
  67              		.loc 1 43 0
  68 0036 00F16006 		add	r6, r0, #96
  69              		.loc 1 42 0
  70 003a 42F82530 		str	r3, [r2, r5, lsl #2]
  71              		.loc 1 43 0
  72 003e 42F82640 		str	r4, [r2, r6, lsl #2]
  73              		.loc 1 44 0
  74 0042 42F82040 		str	r4, [r2, r0, lsl #2]
  75              		.loc 1 45 0
  76 0046 F0BC     		pop	{r4, r5, r6, r7}
  77 0048 7047     		bx	lr
  78              		.cfi_endproc
  79              	.LFE7:
  80              		.size	nvicEnableVector, .-nvicEnableVector
  81 004a 00BFAFF3 		.section	.text.nvicDisableVector,"ax",%progbits
  81      0080
  82              		.align	2
  83              		.p2align 4,,15
  84              		.global	nvicDisableVector
  85              		.thumb
  86              		.thumb_func
  87              		.type	nvicDisableVector, %function
  88              	nvicDisableVector:
  89              	.LFB8:
  90              		.loc 1 53 0
  91              		.cfi_startproc
  92              		@ args = 0, pretend = 0, frame = 0
  93              		@ frame_needed = 0, uses_anonymous_args = 0
  94              		@ link register save eliminated.
  95              	.LVL3:
  96 0000 10B4     		push	{r4}
  97              	.LCFI1:
  98              		.cfi_def_cfa_offset 4
  99              		.cfi_offset 4, -4
 100              		.loc 1 56 0
 101 0002 00F01F01 		and	r1, r0, #31
 102 0006 0124     		movs	r4, #1
 103 0008 04FA01F4 		lsl	r4, r4, r1
 104              		.loc 1 54 0
 105 000c 00F00302 		and	r2, r0, #3
 106 0010 D100     		lsls	r1, r2, #3
 107              		.loc 1 57 0
 108 0012 FF23     		movs	r3, #255
 109 0014 03FA01FC 		lsl	ip, r3, r1
 110              		.loc 1 56 0
 111 0018 4209     		lsrs	r2, r0, #5
 112 001a 4FF46143 		mov	r3, #57600
 113 001e CEF20003 		movt	r3, 57344
ARM GAS  /tmp/ccXs6z0w.s 			page 3


 114 0022 2032     		adds	r2, r2, #32
 115              		.loc 1 57 0
 116 0024 8008     		lsrs	r0, r0, #2
 117              	.LVL4:
 118              		.loc 1 56 0
 119 0026 43F82240 		str	r4, [r3, r2, lsl #2]
 120              		.loc 1 57 0
 121 002a C030     		adds	r0, r0, #192
 122 002c 53F82010 		ldr	r1, [r3, r0, lsl #2]
 123              	.LVL5:
 124 0030 21EA0C02 		bic	r2, r1, ip
 125 0034 43F82020 		str	r2, [r3, r0, lsl #2]
 126              		.loc 1 58 0
 127 0038 10BC     		pop	{r4}
 128 003a 7047     		bx	lr
 129              		.cfi_endproc
 130              	.LFE8:
 131              		.size	nvicDisableVector, .-nvicDisableVector
 132 003c AFF30080 		.section	.text.nvicSetSystemHandlerPriority,"ax",%progbits
 133              		.align	2
 134              		.p2align 4,,15
 135              		.global	nvicSetSystemHandlerPriority
 136              		.thumb
 137              		.thumb_func
 138              		.type	nvicSetSystemHandlerPriority, %function
 139              	nvicSetSystemHandlerPriority:
 140              	.LFB9:
 141              		.loc 1 67 0
 142              		.cfi_startproc
 143              		@ args = 0, pretend = 0, frame = 0
 144              		@ frame_needed = 0, uses_anonymous_args = 0
 145              		@ link register save eliminated.
 146              	.LVL6:
 147              		.loc 1 68 0
 148 0000 00F00303 		and	r3, r0, #3
 149              		.loc 1 67 0
 150 0004 30B4     		push	{r4, r5}
 151              	.LCFI2:
 152              		.cfi_def_cfa_offset 8
 153              		.cfi_offset 5, -4
 154              		.cfi_offset 4, -8
 155              		.loc 1 68 0
 156 0006 DA00     		lsls	r2, r3, #3
 157              		.loc 1 71 0
 158 0008 FF25     		movs	r5, #255
 159 000a 05FA02F5 		lsl	r5, r5, r2
 160 000e 01FA02FC 		lsl	ip, r1, r2
 161              		.loc 1 70 0
 162 0012 8408     		lsrs	r4, r0, #2
 163 0014 4FF46D42 		mov	r2, #60672
 164 0018 CEF20002 		movt	r2, 57344
 165 001c A01D     		adds	r0, r4, #6
 166              	.LVL7:
 167 001e 52F82040 		ldr	r4, [r2, r0, lsl #2]
 168 0022 24EA0501 		bic	r1, r4, r5
 169              	.LVL8:
 170              		.loc 1 71 0
ARM GAS  /tmp/ccXs6z0w.s 			page 4


 171 0026 41EA0C03 		orr	r3, r1, ip
 172              		.loc 1 70 0
 173 002a 42F82030 		str	r3, [r2, r0, lsl #2]
 174              		.loc 1 72 0
 175 002e 30BC     		pop	{r4, r5}
 176 0030 7047     		bx	lr
 177              		.cfi_endproc
 178              	.LFE9:
 179              		.size	nvicSetSystemHandlerPriority, .-nvicSetSystemHandlerPriority
 180 0032 00BFAFF3 		.text
 180      0080AFF3 
 180      0080AFF3 
 180      0080
 181              	.Letext0:
 182              		.file 2 "../../ChibiOS/os/ports/common/ARMCMx/nvic.h"
 183              		.file 3 "/home/tino/ChibiStudio/tools/GNU Tools ARM Embedded/4.6 2012q2/bin/../lib/gcc/arm-none-ea
 184              		.section	.debug_info,"",%progbits
 185              	.Ldebug_info0:
 186 0000 3C040000 		.4byte	0x43c
 187 0004 0200     		.2byte	0x2
 188 0006 00000000 		.4byte	.Ldebug_abbrev0
 189 000a 04       		.byte	0x4
 190 000b 01       		.uleb128 0x1
 191 000c 61000000 		.4byte	.LASF44
 192 0010 01       		.byte	0x1
 193 0011 00000000 		.4byte	.LASF45
 194 0015 5F010000 		.4byte	.LASF46
 195 0019 00000000 		.4byte	0
 196 001d 00000000 		.4byte	0
 197 0021 00000000 		.4byte	.Ldebug_ranges0+0
 198 0025 00000000 		.4byte	.Ldebug_line0
 199 0029 02       		.uleb128 0x2
 200 002a 04       		.byte	0x4
 201 002b 05       		.byte	0x5
 202 002c 696E7400 		.ascii	"int\000"
 203 0030 03       		.uleb128 0x3
 204 0031 04       		.byte	0x4
 205 0032 07       		.byte	0x7
 206 0033 31010000 		.4byte	.LASF0
 207 0037 03       		.uleb128 0x3
 208 0038 01       		.byte	0x1
 209 0039 06       		.byte	0x6
 210 003a F6010000 		.4byte	.LASF1
 211 003e 03       		.uleb128 0x3
 212 003f 01       		.byte	0x1
 213 0040 08       		.byte	0x8
 214 0041 F2000000 		.4byte	.LASF2
 215 0045 03       		.uleb128 0x3
 216 0046 02       		.byte	0x2
 217 0047 05       		.byte	0x5
 218 0048 22010000 		.4byte	.LASF3
 219 004c 03       		.uleb128 0x3
 220 004d 02       		.byte	0x2
 221 004e 07       		.byte	0x7
 222 004f DA000000 		.4byte	.LASF4
 223 0053 03       		.uleb128 0x3
 224 0054 04       		.byte	0x4
ARM GAS  /tmp/ccXs6z0w.s 			page 5


 225 0055 05       		.byte	0x5
 226 0056 E8010000 		.4byte	.LASF5
 227 005a 04       		.uleb128 0x4
 228 005b DF010000 		.4byte	.LASF22
 229 005f 03       		.byte	0x3
 230 0060 50       		.byte	0x50
 231 0061 65000000 		.4byte	0x65
 232 0065 03       		.uleb128 0x3
 233 0066 04       		.byte	0x4
 234 0067 07       		.byte	0x7
 235 0068 05010000 		.4byte	.LASF6
 236 006c 03       		.uleb128 0x3
 237 006d 08       		.byte	0x8
 238 006e 05       		.byte	0x5
 239 006f B0010000 		.4byte	.LASF7
 240 0073 03       		.uleb128 0x3
 241 0074 08       		.byte	0x8
 242 0075 07       		.byte	0x7
 243 0076 48010000 		.4byte	.LASF8
 244 007a 03       		.uleb128 0x3
 245 007b 01       		.byte	0x1
 246 007c 02       		.byte	0x2
 247 007d 36000000 		.4byte	.LASF9
 248 0081 05       		.uleb128 0x5
 249 0082 65000000 		.4byte	0x65
 250 0086 06       		.uleb128 0x6
 251 0087 040E     		.2byte	0xe04
 252 0089 02       		.byte	0x2
 253 008a 63       		.byte	0x63
 254 008b 51010000 		.4byte	0x151
 255 008f 07       		.uleb128 0x7
 256 0090 C9010000 		.4byte	.LASF10
 257 0094 02       		.byte	0x2
 258 0095 64       		.byte	0x64
 259 0096 61010000 		.4byte	0x161
 260 009a 02       		.byte	0x2
 261 009b 23       		.byte	0x23
 262 009c 00       		.uleb128 0
 263 009d 07       		.uleb128 0x7
 264 009e AA000000 		.4byte	.LASF11
 265 00a2 02       		.byte	0x2
 266 00a3 65       		.byte	0x65
 267 00a4 76010000 		.4byte	0x176
 268 00a8 02       		.byte	0x2
 269 00a9 23       		.byte	0x23
 270 00aa 20       		.uleb128 0x20
 271 00ab 07       		.uleb128 0x7
 272 00ac 5C000000 		.4byte	.LASF12
 273 00b0 02       		.byte	0x2
 274 00b1 66       		.byte	0x66
 275 00b2 7B010000 		.4byte	0x17b
 276 00b6 03       		.byte	0x3
 277 00b7 23       		.byte	0x23
 278 00b8 8001     		.uleb128 0x80
 279 00ba 07       		.uleb128 0x7
 280 00bb B2000000 		.4byte	.LASF13
 281 00bf 02       		.byte	0x2
ARM GAS  /tmp/ccXs6z0w.s 			page 6


 282 00c0 67       		.byte	0x67
 283 00c1 80010000 		.4byte	0x180
 284 00c5 03       		.byte	0x3
 285 00c6 23       		.byte	0x23
 286 00c7 A001     		.uleb128 0xa0
 287 00c9 07       		.uleb128 0x7
 288 00ca 3E010000 		.4byte	.LASF14
 289 00ce 02       		.byte	0x2
 290 00cf 68       		.byte	0x68
 291 00d0 85010000 		.4byte	0x185
 292 00d4 03       		.byte	0x3
 293 00d5 23       		.byte	0x23
 294 00d6 8002     		.uleb128 0x100
 295 00d8 07       		.uleb128 0x7
 296 00d9 BA000000 		.4byte	.LASF15
 297 00dd 02       		.byte	0x2
 298 00de 69       		.byte	0x69
 299 00df 8A010000 		.4byte	0x18a
 300 00e3 03       		.byte	0x3
 301 00e4 23       		.byte	0x23
 302 00e5 A002     		.uleb128 0x120
 303 00e7 07       		.uleb128 0x7
 304 00e8 2C000000 		.4byte	.LASF16
 305 00ec 02       		.byte	0x2
 306 00ed 6A       		.byte	0x6a
 307 00ee 8F010000 		.4byte	0x18f
 308 00f2 03       		.byte	0x3
 309 00f3 23       		.byte	0x23
 310 00f4 8003     		.uleb128 0x180
 311 00f6 07       		.uleb128 0x7
 312 00f7 C2000000 		.4byte	.LASF17
 313 00fb 02       		.byte	0x2
 314 00fc 6B       		.byte	0x6b
 315 00fd 94010000 		.4byte	0x194
 316 0101 03       		.byte	0x3
 317 0102 23       		.byte	0x23
 318 0103 A003     		.uleb128 0x1a0
 319 0105 07       		.uleb128 0x7
 320 0106 1F020000 		.4byte	.LASF18
 321 010a 02       		.byte	0x2
 322 010b 6C       		.byte	0x6c
 323 010c 99010000 		.4byte	0x199
 324 0110 03       		.byte	0x3
 325 0111 23       		.byte	0x23
 326 0112 8004     		.uleb128 0x200
 327 0114 07       		.uleb128 0x7
 328 0115 CA000000 		.4byte	.LASF19
 329 0119 02       		.byte	0x2
 330 011a 6D       		.byte	0x6d
 331 011b AE010000 		.4byte	0x1ae
 332 011f 03       		.byte	0x3
 333 0120 23       		.byte	0x23
 334 0121 A004     		.uleb128 0x220
 335 0123 08       		.uleb128 0x8
 336 0124 49505200 		.ascii	"IPR\000"
 337 0128 02       		.byte	0x2
 338 0129 6E       		.byte	0x6e
ARM GAS  /tmp/ccXs6z0w.s 			page 7


 339 012a C3010000 		.4byte	0x1c3
 340 012e 03       		.byte	0x3
 341 012f 23       		.byte	0x23
 342 0130 8006     		.uleb128 0x300
 343 0132 07       		.uleb128 0x7
 344 0133 D2000000 		.4byte	.LASF20
 345 0137 02       		.byte	0x2
 346 0138 6F       		.byte	0x6f
 347 0139 D9010000 		.4byte	0x1d9
 348 013d 03       		.byte	0x3
 349 013e 23       		.byte	0x23
 350 013f F007     		.uleb128 0x3f0
 351 0141 07       		.uleb128 0x7
 352 0142 1D010000 		.4byte	.LASF21
 353 0146 02       		.byte	0x2
 354 0147 70       		.byte	0x70
 355 0148 81000000 		.4byte	0x81
 356 014c 03       		.byte	0x3
 357 014d 23       		.byte	0x23
 358 014e 801C     		.uleb128 0xe00
 359 0150 00       		.byte	0
 360 0151 09       		.uleb128 0x9
 361 0152 65000000 		.4byte	0x65
 362 0156 61010000 		.4byte	0x161
 363 015a 0A       		.uleb128 0xa
 364 015b 30000000 		.4byte	0x30
 365 015f 07       		.byte	0x7
 366 0160 00       		.byte	0
 367 0161 05       		.uleb128 0x5
 368 0162 51010000 		.4byte	0x151
 369 0166 09       		.uleb128 0x9
 370 0167 65000000 		.4byte	0x65
 371 016b 76010000 		.4byte	0x176
 372 016f 0A       		.uleb128 0xa
 373 0170 30000000 		.4byte	0x30
 374 0174 17       		.byte	0x17
 375 0175 00       		.byte	0
 376 0176 05       		.uleb128 0x5
 377 0177 66010000 		.4byte	0x166
 378 017b 05       		.uleb128 0x5
 379 017c 51010000 		.4byte	0x151
 380 0180 05       		.uleb128 0x5
 381 0181 66010000 		.4byte	0x166
 382 0185 05       		.uleb128 0x5
 383 0186 51010000 		.4byte	0x151
 384 018a 05       		.uleb128 0x5
 385 018b 66010000 		.4byte	0x166
 386 018f 05       		.uleb128 0x5
 387 0190 51010000 		.4byte	0x151
 388 0194 05       		.uleb128 0x5
 389 0195 66010000 		.4byte	0x166
 390 0199 05       		.uleb128 0x5
 391 019a 51010000 		.4byte	0x151
 392 019e 09       		.uleb128 0x9
 393 019f 65000000 		.4byte	0x65
 394 01a3 AE010000 		.4byte	0x1ae
 395 01a7 0A       		.uleb128 0xa
ARM GAS  /tmp/ccXs6z0w.s 			page 8


 396 01a8 30000000 		.4byte	0x30
 397 01ac 37       		.byte	0x37
 398 01ad 00       		.byte	0
 399 01ae 05       		.uleb128 0x5
 400 01af 9E010000 		.4byte	0x19e
 401 01b3 09       		.uleb128 0x9
 402 01b4 65000000 		.4byte	0x65
 403 01b8 C3010000 		.4byte	0x1c3
 404 01bc 0A       		.uleb128 0xa
 405 01bd 30000000 		.4byte	0x30
 406 01c1 3B       		.byte	0x3b
 407 01c2 00       		.byte	0
 408 01c3 05       		.uleb128 0x5
 409 01c4 B3010000 		.4byte	0x1b3
 410 01c8 09       		.uleb128 0x9
 411 01c9 65000000 		.4byte	0x65
 412 01cd D9010000 		.4byte	0x1d9
 413 01d1 0B       		.uleb128 0xb
 414 01d2 30000000 		.4byte	0x30
 415 01d6 8302     		.2byte	0x283
 416 01d8 00       		.byte	0
 417 01d9 05       		.uleb128 0x5
 418 01da C8010000 		.4byte	0x1c8
 419 01de 04       		.uleb128 0x4
 420 01df 4E000000 		.4byte	.LASF23
 421 01e3 02       		.byte	0x2
 422 01e4 71       		.byte	0x71
 423 01e5 86000000 		.4byte	0x86
 424 01e9 0C       		.uleb128 0xc
 425 01ea 8C       		.byte	0x8c
 426 01eb 02       		.byte	0x2
 427 01ec 82       		.byte	0x82
 428 01ed 19030000 		.4byte	0x319
 429 01f1 07       		.uleb128 0x7
 430 01f2 BE010000 		.4byte	.LASF24
 431 01f6 02       		.byte	0x2
 432 01f7 83       		.byte	0x83
 433 01f8 81000000 		.4byte	0x81
 434 01fc 02       		.byte	0x2
 435 01fd 23       		.byte	0x23
 436 01fe 00       		.uleb128 0
 437 01ff 07       		.uleb128 0x7
 438 0200 2C010000 		.4byte	.LASF25
 439 0204 02       		.byte	0x2
 440 0205 84       		.byte	0x84
 441 0206 81000000 		.4byte	0x81
 442 020a 02       		.byte	0x2
 443 020b 23       		.byte	0x23
 444 020c 04       		.uleb128 0x4
 445 020d 07       		.uleb128 0x7
 446 020e 57000000 		.4byte	.LASF26
 447 0212 02       		.byte	0x2
 448 0213 85       		.byte	0x85
 449 0214 81000000 		.4byte	0x81
 450 0218 02       		.byte	0x2
 451 0219 23       		.byte	0x23
 452 021a 08       		.uleb128 0x8
ARM GAS  /tmp/ccXs6z0w.s 			page 9


 453 021b 07       		.uleb128 0x7
 454 021c 9D010000 		.4byte	.LASF27
 455 0220 02       		.byte	0x2
 456 0221 86       		.byte	0x86
 457 0222 81000000 		.4byte	0x81
 458 0226 02       		.byte	0x2
 459 0227 23       		.byte	0x23
 460 0228 0C       		.uleb128 0xc
 461 0229 08       		.uleb128 0x8
 462 022a 53435200 		.ascii	"SCR\000"
 463 022e 02       		.byte	0x2
 464 022f 87       		.byte	0x87
 465 0230 81000000 		.4byte	0x81
 466 0234 02       		.byte	0x2
 467 0235 23       		.byte	0x23
 468 0236 10       		.uleb128 0x10
 469 0237 08       		.uleb128 0x8
 470 0238 43435200 		.ascii	"CCR\000"
 471 023c 02       		.byte	0x2
 472 023d 88       		.byte	0x88
 473 023e 81000000 		.4byte	0x81
 474 0242 02       		.byte	0x2
 475 0243 23       		.byte	0x23
 476 0244 14       		.uleb128 0x14
 477 0245 07       		.uleb128 0x7
 478 0246 90010000 		.4byte	.LASF28
 479 024a 02       		.byte	0x2
 480 024b 89       		.byte	0x89
 481 024c 29030000 		.4byte	0x329
 482 0250 02       		.byte	0x2
 483 0251 23       		.byte	0x23
 484 0252 18       		.uleb128 0x18
 485 0253 07       		.uleb128 0x7
 486 0254 D9010000 		.4byte	.LASF29
 487 0258 02       		.byte	0x2
 488 0259 8A       		.byte	0x8a
 489 025a 81000000 		.4byte	0x81
 490 025e 02       		.byte	0x2
 491 025f 23       		.byte	0x23
 492 0260 24       		.uleb128 0x24
 493 0261 07       		.uleb128 0x7
 494 0262 ED000000 		.4byte	.LASF30
 495 0266 02       		.byte	0x2
 496 0267 8B       		.byte	0x8b
 497 0268 81000000 		.4byte	0x81
 498 026c 02       		.byte	0x2
 499 026d 23       		.byte	0x23
 500 026e 28       		.uleb128 0x28
 501 026f 07       		.uleb128 0x7
 502 0270 00010000 		.4byte	.LASF31
 503 0274 02       		.byte	0x2
 504 0275 8C       		.byte	0x8c
 505 0276 81000000 		.4byte	0x81
 506 027a 02       		.byte	0x2
 507 027b 23       		.byte	0x23
 508 027c 2C       		.uleb128 0x2c
 509 027d 07       		.uleb128 0x7
ARM GAS  /tmp/ccXs6z0w.s 			page 10


 510 027e 43010000 		.4byte	.LASF32
 511 0282 02       		.byte	0x2
 512 0283 8D       		.byte	0x8d
 513 0284 81000000 		.4byte	0x81
 514 0288 02       		.byte	0x2
 515 0289 23       		.byte	0x23
 516 028a 30       		.uleb128 0x30
 517 028b 07       		.uleb128 0x7
 518 028c D3010000 		.4byte	.LASF33
 519 0290 02       		.byte	0x2
 520 0291 8E       		.byte	0x8e
 521 0292 81000000 		.4byte	0x81
 522 0296 02       		.byte	0x2
 523 0297 23       		.byte	0x23
 524 0298 34       		.uleb128 0x34
 525 0299 07       		.uleb128 0x7
 526 029a A3010000 		.4byte	.LASF34
 527 029e 02       		.byte	0x2
 528 029f 8F       		.byte	0x8f
 529 02a0 81000000 		.4byte	0x81
 530 02a4 02       		.byte	0x2
 531 02a5 23       		.byte	0x23
 532 02a6 38       		.uleb128 0x38
 533 02a7 07       		.uleb128 0x7
 534 02a8 CE010000 		.4byte	.LASF35
 535 02ac 02       		.byte	0x2
 536 02ad 90       		.byte	0x90
 537 02ae 81000000 		.4byte	0x81
 538 02b2 02       		.byte	0x2
 539 02b3 23       		.byte	0x23
 540 02b4 3C       		.uleb128 0x3c
 541 02b5 08       		.uleb128 0x8
 542 02b6 50465200 		.ascii	"PFR\000"
 543 02ba 02       		.byte	0x2
 544 02bb 91       		.byte	0x91
 545 02bc 3E030000 		.4byte	0x33e
 546 02c0 02       		.byte	0x2
 547 02c1 23       		.byte	0x23
 548 02c2 40       		.uleb128 0x40
 549 02c3 08       		.uleb128 0x8
 550 02c4 44465200 		.ascii	"DFR\000"
 551 02c8 02       		.byte	0x2
 552 02c9 92       		.byte	0x92
 553 02ca 81000000 		.4byte	0x81
 554 02ce 02       		.byte	0x2
 555 02cf 23       		.byte	0x23
 556 02d0 48       		.uleb128 0x48
 557 02d1 08       		.uleb128 0x8
 558 02d2 41445200 		.ascii	"ADR\000"
 559 02d6 02       		.byte	0x2
 560 02d7 93       		.byte	0x93
 561 02d8 81000000 		.4byte	0x81
 562 02dc 02       		.byte	0x2
 563 02dd 23       		.byte	0x23
 564 02de 4C       		.uleb128 0x4c
 565 02df 07       		.uleb128 0x7
 566 02e0 31000000 		.4byte	.LASF36
ARM GAS  /tmp/ccXs6z0w.s 			page 11


 567 02e4 02       		.byte	0x2
 568 02e5 94       		.byte	0x94
 569 02e6 53030000 		.4byte	0x353
 570 02ea 02       		.byte	0x2
 571 02eb 23       		.byte	0x23
 572 02ec 50       		.uleb128 0x50
 573 02ed 08       		.uleb128 0x8
 574 02ee 53415200 		.ascii	"SAR\000"
 575 02f2 02       		.byte	0x2
 576 02f3 95       		.byte	0x95
 577 02f4 68030000 		.4byte	0x368
 578 02f8 02       		.byte	0x2
 579 02f9 23       		.byte	0x23
 580 02fa 60       		.uleb128 0x60
 581 02fb 07       		.uleb128 0x7
 582 02fc AA000000 		.4byte	.LASF11
 583 0300 02       		.byte	0x2
 584 0301 96       		.byte	0x96
 585 0302 6D030000 		.4byte	0x36d
 586 0306 02       		.byte	0x2
 587 0307 23       		.byte	0x23
 588 0308 74       		.uleb128 0x74
 589 0309 07       		.uleb128 0x7
 590 030a 17010000 		.4byte	.LASF37
 591 030e 02       		.byte	0x2
 592 030f 97       		.byte	0x97
 593 0310 81000000 		.4byte	0x81
 594 0314 03       		.byte	0x3
 595 0315 23       		.byte	0x23
 596 0316 8801     		.uleb128 0x88
 597 0318 00       		.byte	0
 598 0319 09       		.uleb128 0x9
 599 031a 65000000 		.4byte	0x65
 600 031e 29030000 		.4byte	0x329
 601 0322 0A       		.uleb128 0xa
 602 0323 30000000 		.4byte	0x30
 603 0327 02       		.byte	0x2
 604 0328 00       		.byte	0
 605 0329 05       		.uleb128 0x5
 606 032a 19030000 		.4byte	0x319
 607 032e 09       		.uleb128 0x9
 608 032f 65000000 		.4byte	0x65
 609 0333 3E030000 		.4byte	0x33e
 610 0337 0A       		.uleb128 0xa
 611 0338 30000000 		.4byte	0x30
 612 033c 01       		.byte	0x1
 613 033d 00       		.byte	0
 614 033e 05       		.uleb128 0x5
 615 033f 2E030000 		.4byte	0x32e
 616 0343 09       		.uleb128 0x9
 617 0344 65000000 		.4byte	0x65
 618 0348 53030000 		.4byte	0x353
 619 034c 0A       		.uleb128 0xa
 620 034d 30000000 		.4byte	0x30
 621 0351 03       		.byte	0x3
 622 0352 00       		.byte	0
 623 0353 05       		.uleb128 0x5
ARM GAS  /tmp/ccXs6z0w.s 			page 12


 624 0354 43030000 		.4byte	0x343
 625 0358 09       		.uleb128 0x9
 626 0359 65000000 		.4byte	0x65
 627 035d 68030000 		.4byte	0x368
 628 0361 0A       		.uleb128 0xa
 629 0362 30000000 		.4byte	0x30
 630 0366 04       		.byte	0x4
 631 0367 00       		.byte	0
 632 0368 05       		.uleb128 0x5
 633 0369 58030000 		.4byte	0x358
 634 036d 05       		.uleb128 0x5
 635 036e 58030000 		.4byte	0x358
 636 0372 04       		.uleb128 0x4
 637 0373 95010000 		.4byte	.LASF38
 638 0377 02       		.byte	0x2
 639 0378 98       		.byte	0x98
 640 0379 E9010000 		.4byte	0x1e9
 641 037d 03       		.uleb128 0x3
 642 037e 01       		.byte	0x1
 643 037f 08       		.byte	0x8
 644 0380 C4010000 		.4byte	.LASF39
 645 0384 0D       		.uleb128 0xd
 646 0385 01       		.byte	0x1
 647 0386 24020000 		.4byte	.LASF41
 648 038a 01       		.byte	0x1
 649 038b 27       		.byte	0x27
 650 038c 01       		.byte	0x1
 651 038d 00000000 		.4byte	.LFB7
 652 0391 4A000000 		.4byte	.LFE7
 653 0395 00000000 		.4byte	.LLST0
 654 0399 C8030000 		.4byte	0x3c8
 655 039d 0E       		.uleb128 0xe
 656 039e 6E00     		.ascii	"n\000"
 657 03a0 01       		.byte	0x1
 658 03a1 27       		.byte	0x27
 659 03a2 5A000000 		.4byte	0x5a
 660 03a6 20000000 		.4byte	.LLST1
 661 03aa 0F       		.uleb128 0xf
 662 03ab F1010000 		.4byte	.LASF40
 663 03af 01       		.byte	0x1
 664 03b0 27       		.byte	0x27
 665 03b1 5A000000 		.4byte	0x5a
 666 03b5 33000000 		.4byte	.LLST2
 667 03b9 10       		.uleb128 0x10
 668 03ba 736800   		.ascii	"sh\000"
 669 03bd 01       		.byte	0x1
 670 03be 28       		.byte	0x28
 671 03bf 30000000 		.4byte	0x30
 672 03c3 46000000 		.4byte	.LLST3
 673 03c7 00       		.byte	0
 674 03c8 0D       		.uleb128 0xd
 675 03c9 01       		.byte	0x1
 676 03ca 3C000000 		.4byte	.LASF42
 677 03ce 01       		.byte	0x1
 678 03cf 35       		.byte	0x35
 679 03d0 01       		.byte	0x1
 680 03d1 00000000 		.4byte	.LFB8
ARM GAS  /tmp/ccXs6z0w.s 			page 13


 681 03d5 3C000000 		.4byte	.LFE8
 682 03d9 5F000000 		.4byte	.LLST4
 683 03dd FD030000 		.4byte	0x3fd
 684 03e1 0E       		.uleb128 0xe
 685 03e2 6E00     		.ascii	"n\000"
 686 03e4 01       		.byte	0x1
 687 03e5 35       		.byte	0x35
 688 03e6 5A000000 		.4byte	0x5a
 689 03ea 7F000000 		.4byte	.LLST5
 690 03ee 10       		.uleb128 0x10
 691 03ef 736800   		.ascii	"sh\000"
 692 03f2 01       		.byte	0x1
 693 03f3 36       		.byte	0x36
 694 03f4 30000000 		.4byte	0x30
 695 03f8 92000000 		.4byte	.LLST6
 696 03fc 00       		.byte	0
 697 03fd 11       		.uleb128 0x11
 698 03fe 01       		.byte	0x1
 699 03ff 02020000 		.4byte	.LASF47
 700 0403 01       		.byte	0x1
 701 0404 43       		.byte	0x43
 702 0405 01       		.byte	0x1
 703 0406 00000000 		.4byte	.LFB9
 704 040a 32000000 		.4byte	.LFE9
 705 040e B6000000 		.4byte	.LLST7
 706 0412 0F       		.uleb128 0xf
 707 0413 A8010000 		.4byte	.LASF43
 708 0417 01       		.byte	0x1
 709 0418 43       		.byte	0x43
 710 0419 5A000000 		.4byte	0x5a
 711 041d D6000000 		.4byte	.LLST8
 712 0421 0F       		.uleb128 0xf
 713 0422 F1010000 		.4byte	.LASF40
 714 0426 01       		.byte	0x1
 715 0427 43       		.byte	0x43
 716 0428 5A000000 		.4byte	0x5a
 717 042c E9000000 		.4byte	.LLST9
 718 0430 10       		.uleb128 0x10
 719 0431 736800   		.ascii	"sh\000"
 720 0434 01       		.byte	0x1
 721 0435 44       		.byte	0x44
 722 0436 30000000 		.4byte	0x30
 723 043a FC000000 		.4byte	.LLST10
 724 043e 00       		.byte	0
 725 043f 00       		.byte	0
 726              		.section	.debug_abbrev,"",%progbits
 727              	.Ldebug_abbrev0:
 728 0000 01       		.uleb128 0x1
 729 0001 11       		.uleb128 0x11
 730 0002 01       		.byte	0x1
 731 0003 25       		.uleb128 0x25
 732 0004 0E       		.uleb128 0xe
 733 0005 13       		.uleb128 0x13
 734 0006 0B       		.uleb128 0xb
 735 0007 03       		.uleb128 0x3
 736 0008 0E       		.uleb128 0xe
 737 0009 1B       		.uleb128 0x1b
ARM GAS  /tmp/ccXs6z0w.s 			page 14


 738 000a 0E       		.uleb128 0xe
 739 000b 11       		.uleb128 0x11
 740 000c 01       		.uleb128 0x1
 741 000d 52       		.uleb128 0x52
 742 000e 01       		.uleb128 0x1
 743 000f 55       		.uleb128 0x55
 744 0010 06       		.uleb128 0x6
 745 0011 10       		.uleb128 0x10
 746 0012 06       		.uleb128 0x6
 747 0013 00       		.byte	0
 748 0014 00       		.byte	0
 749 0015 02       		.uleb128 0x2
 750 0016 24       		.uleb128 0x24
 751 0017 00       		.byte	0
 752 0018 0B       		.uleb128 0xb
 753 0019 0B       		.uleb128 0xb
 754 001a 3E       		.uleb128 0x3e
 755 001b 0B       		.uleb128 0xb
 756 001c 03       		.uleb128 0x3
 757 001d 08       		.uleb128 0x8
 758 001e 00       		.byte	0
 759 001f 00       		.byte	0
 760 0020 03       		.uleb128 0x3
 761 0021 24       		.uleb128 0x24
 762 0022 00       		.byte	0
 763 0023 0B       		.uleb128 0xb
 764 0024 0B       		.uleb128 0xb
 765 0025 3E       		.uleb128 0x3e
 766 0026 0B       		.uleb128 0xb
 767 0027 03       		.uleb128 0x3
 768 0028 0E       		.uleb128 0xe
 769 0029 00       		.byte	0
 770 002a 00       		.byte	0
 771 002b 04       		.uleb128 0x4
 772 002c 16       		.uleb128 0x16
 773 002d 00       		.byte	0
 774 002e 03       		.uleb128 0x3
 775 002f 0E       		.uleb128 0xe
 776 0030 3A       		.uleb128 0x3a
 777 0031 0B       		.uleb128 0xb
 778 0032 3B       		.uleb128 0x3b
 779 0033 0B       		.uleb128 0xb
 780 0034 49       		.uleb128 0x49
 781 0035 13       		.uleb128 0x13
 782 0036 00       		.byte	0
 783 0037 00       		.byte	0
 784 0038 05       		.uleb128 0x5
 785 0039 35       		.uleb128 0x35
 786 003a 00       		.byte	0
 787 003b 49       		.uleb128 0x49
 788 003c 13       		.uleb128 0x13
 789 003d 00       		.byte	0
 790 003e 00       		.byte	0
 791 003f 06       		.uleb128 0x6
 792 0040 13       		.uleb128 0x13
 793 0041 01       		.byte	0x1
 794 0042 0B       		.uleb128 0xb
ARM GAS  /tmp/ccXs6z0w.s 			page 15


 795 0043 05       		.uleb128 0x5
 796 0044 3A       		.uleb128 0x3a
 797 0045 0B       		.uleb128 0xb
 798 0046 3B       		.uleb128 0x3b
 799 0047 0B       		.uleb128 0xb
 800 0048 01       		.uleb128 0x1
 801 0049 13       		.uleb128 0x13
 802 004a 00       		.byte	0
 803 004b 00       		.byte	0
 804 004c 07       		.uleb128 0x7
 805 004d 0D       		.uleb128 0xd
 806 004e 00       		.byte	0
 807 004f 03       		.uleb128 0x3
 808 0050 0E       		.uleb128 0xe
 809 0051 3A       		.uleb128 0x3a
 810 0052 0B       		.uleb128 0xb
 811 0053 3B       		.uleb128 0x3b
 812 0054 0B       		.uleb128 0xb
 813 0055 49       		.uleb128 0x49
 814 0056 13       		.uleb128 0x13
 815 0057 38       		.uleb128 0x38
 816 0058 0A       		.uleb128 0xa
 817 0059 00       		.byte	0
 818 005a 00       		.byte	0
 819 005b 08       		.uleb128 0x8
 820 005c 0D       		.uleb128 0xd
 821 005d 00       		.byte	0
 822 005e 03       		.uleb128 0x3
 823 005f 08       		.uleb128 0x8
 824 0060 3A       		.uleb128 0x3a
 825 0061 0B       		.uleb128 0xb
 826 0062 3B       		.uleb128 0x3b
 827 0063 0B       		.uleb128 0xb
 828 0064 49       		.uleb128 0x49
 829 0065 13       		.uleb128 0x13
 830 0066 38       		.uleb128 0x38
 831 0067 0A       		.uleb128 0xa
 832 0068 00       		.byte	0
 833 0069 00       		.byte	0
 834 006a 09       		.uleb128 0x9
 835 006b 01       		.uleb128 0x1
 836 006c 01       		.byte	0x1
 837 006d 49       		.uleb128 0x49
 838 006e 13       		.uleb128 0x13
 839 006f 01       		.uleb128 0x1
 840 0070 13       		.uleb128 0x13
 841 0071 00       		.byte	0
 842 0072 00       		.byte	0
 843 0073 0A       		.uleb128 0xa
 844 0074 21       		.uleb128 0x21
 845 0075 00       		.byte	0
 846 0076 49       		.uleb128 0x49
 847 0077 13       		.uleb128 0x13
 848 0078 2F       		.uleb128 0x2f
 849 0079 0B       		.uleb128 0xb
 850 007a 00       		.byte	0
 851 007b 00       		.byte	0
ARM GAS  /tmp/ccXs6z0w.s 			page 16


 852 007c 0B       		.uleb128 0xb
 853 007d 21       		.uleb128 0x21
 854 007e 00       		.byte	0
 855 007f 49       		.uleb128 0x49
 856 0080 13       		.uleb128 0x13
 857 0081 2F       		.uleb128 0x2f
 858 0082 05       		.uleb128 0x5
 859 0083 00       		.byte	0
 860 0084 00       		.byte	0
 861 0085 0C       		.uleb128 0xc
 862 0086 13       		.uleb128 0x13
 863 0087 01       		.byte	0x1
 864 0088 0B       		.uleb128 0xb
 865 0089 0B       		.uleb128 0xb
 866 008a 3A       		.uleb128 0x3a
 867 008b 0B       		.uleb128 0xb
 868 008c 3B       		.uleb128 0x3b
 869 008d 0B       		.uleb128 0xb
 870 008e 01       		.uleb128 0x1
 871 008f 13       		.uleb128 0x13
 872 0090 00       		.byte	0
 873 0091 00       		.byte	0
 874 0092 0D       		.uleb128 0xd
 875 0093 2E       		.uleb128 0x2e
 876 0094 01       		.byte	0x1
 877 0095 3F       		.uleb128 0x3f
 878 0096 0C       		.uleb128 0xc
 879 0097 03       		.uleb128 0x3
 880 0098 0E       		.uleb128 0xe
 881 0099 3A       		.uleb128 0x3a
 882 009a 0B       		.uleb128 0xb
 883 009b 3B       		.uleb128 0x3b
 884 009c 0B       		.uleb128 0xb
 885 009d 27       		.uleb128 0x27
 886 009e 0C       		.uleb128 0xc
 887 009f 11       		.uleb128 0x11
 888 00a0 01       		.uleb128 0x1
 889 00a1 12       		.uleb128 0x12
 890 00a2 01       		.uleb128 0x1
 891 00a3 40       		.uleb128 0x40
 892 00a4 06       		.uleb128 0x6
 893 00a5 01       		.uleb128 0x1
 894 00a6 13       		.uleb128 0x13
 895 00a7 00       		.byte	0
 896 00a8 00       		.byte	0
 897 00a9 0E       		.uleb128 0xe
 898 00aa 05       		.uleb128 0x5
 899 00ab 00       		.byte	0
 900 00ac 03       		.uleb128 0x3
 901 00ad 08       		.uleb128 0x8
 902 00ae 3A       		.uleb128 0x3a
 903 00af 0B       		.uleb128 0xb
 904 00b0 3B       		.uleb128 0x3b
 905 00b1 0B       		.uleb128 0xb
 906 00b2 49       		.uleb128 0x49
 907 00b3 13       		.uleb128 0x13
 908 00b4 02       		.uleb128 0x2
ARM GAS  /tmp/ccXs6z0w.s 			page 17


 909 00b5 06       		.uleb128 0x6
 910 00b6 00       		.byte	0
 911 00b7 00       		.byte	0
 912 00b8 0F       		.uleb128 0xf
 913 00b9 05       		.uleb128 0x5
 914 00ba 00       		.byte	0
 915 00bb 03       		.uleb128 0x3
 916 00bc 0E       		.uleb128 0xe
 917 00bd 3A       		.uleb128 0x3a
 918 00be 0B       		.uleb128 0xb
 919 00bf 3B       		.uleb128 0x3b
 920 00c0 0B       		.uleb128 0xb
 921 00c1 49       		.uleb128 0x49
 922 00c2 13       		.uleb128 0x13
 923 00c3 02       		.uleb128 0x2
 924 00c4 06       		.uleb128 0x6
 925 00c5 00       		.byte	0
 926 00c6 00       		.byte	0
 927 00c7 10       		.uleb128 0x10
 928 00c8 34       		.uleb128 0x34
 929 00c9 00       		.byte	0
 930 00ca 03       		.uleb128 0x3
 931 00cb 08       		.uleb128 0x8
 932 00cc 3A       		.uleb128 0x3a
 933 00cd 0B       		.uleb128 0xb
 934 00ce 3B       		.uleb128 0x3b
 935 00cf 0B       		.uleb128 0xb
 936 00d0 49       		.uleb128 0x49
 937 00d1 13       		.uleb128 0x13
 938 00d2 02       		.uleb128 0x2
 939 00d3 06       		.uleb128 0x6
 940 00d4 00       		.byte	0
 941 00d5 00       		.byte	0
 942 00d6 11       		.uleb128 0x11
 943 00d7 2E       		.uleb128 0x2e
 944 00d8 01       		.byte	0x1
 945 00d9 3F       		.uleb128 0x3f
 946 00da 0C       		.uleb128 0xc
 947 00db 03       		.uleb128 0x3
 948 00dc 0E       		.uleb128 0xe
 949 00dd 3A       		.uleb128 0x3a
 950 00de 0B       		.uleb128 0xb
 951 00df 3B       		.uleb128 0x3b
 952 00e0 0B       		.uleb128 0xb
 953 00e1 27       		.uleb128 0x27
 954 00e2 0C       		.uleb128 0xc
 955 00e3 11       		.uleb128 0x11
 956 00e4 01       		.uleb128 0x1
 957 00e5 12       		.uleb128 0x12
 958 00e6 01       		.uleb128 0x1
 959 00e7 40       		.uleb128 0x40
 960 00e8 06       		.uleb128 0x6
 961 00e9 00       		.byte	0
 962 00ea 00       		.byte	0
 963 00eb 00       		.byte	0
 964              		.section	.debug_loc,"",%progbits
 965              	.Ldebug_loc0:
ARM GAS  /tmp/ccXs6z0w.s 			page 18


 966              	.LLST0:
 967 0000 00000000 		.4byte	.LFB7
 968 0004 06000000 		.4byte	.LCFI0
 969 0008 0200     		.2byte	0x2
 970 000a 7D       		.byte	0x7d
 971 000b 00       		.sleb128 0
 972 000c 06000000 		.4byte	.LCFI0
 973 0010 4A000000 		.4byte	.LFE7
 974 0014 0200     		.2byte	0x2
 975 0016 7D       		.byte	0x7d
 976 0017 10       		.sleb128 16
 977 0018 00000000 		.4byte	0
 978 001c 00000000 		.4byte	0
 979              	.LLST1:
 980 0020 00000000 		.4byte	.LVL0
 981 0024 2E000000 		.4byte	.LVL1
 982 0028 0100     		.2byte	0x1
 983 002a 50       		.byte	0x50
 984 002b 00000000 		.4byte	0
 985 002f 00000000 		.4byte	0
 986              	.LLST2:
 987 0033 00000000 		.4byte	.LVL0
 988 0037 32000000 		.4byte	.LVL2
 989 003b 0100     		.2byte	0x1
 990 003d 51       		.byte	0x51
 991 003e 00000000 		.4byte	0
 992 0042 00000000 		.4byte	0
 993              	.LLST3:
 994 0046 00000000 		.4byte	.LVL0
 995 004a 2E000000 		.4byte	.LVL1
 996 004e 0700     		.2byte	0x7
 997 0050 70       		.byte	0x70
 998 0051 00       		.sleb128 0
 999 0052 33       		.byte	0x33
 1000 0053 1A       		.byte	0x1a
 1001 0054 33       		.byte	0x33
 1002 0055 24       		.byte	0x24
 1003 0056 9F       		.byte	0x9f
 1004 0057 00000000 		.4byte	0
 1005 005b 00000000 		.4byte	0
 1006              	.LLST4:
 1007 005f 00000000 		.4byte	.LFB8
 1008 0063 02000000 		.4byte	.LCFI1
 1009 0067 0200     		.2byte	0x2
 1010 0069 7D       		.byte	0x7d
 1011 006a 00       		.sleb128 0
 1012 006b 02000000 		.4byte	.LCFI1
 1013 006f 3C000000 		.4byte	.LFE8
 1014 0073 0200     		.2byte	0x2
 1015 0075 7D       		.byte	0x7d
 1016 0076 04       		.sleb128 4
 1017 0077 00000000 		.4byte	0
 1018 007b 00000000 		.4byte	0
 1019              	.LLST5:
 1020 007f 00000000 		.4byte	.LVL3
 1021 0083 26000000 		.4byte	.LVL4
 1022 0087 0100     		.2byte	0x1
ARM GAS  /tmp/ccXs6z0w.s 			page 19


 1023 0089 50       		.byte	0x50
 1024 008a 00000000 		.4byte	0
 1025 008e 00000000 		.4byte	0
 1026              	.LLST6:
 1027 0092 00000000 		.4byte	.LVL3
 1028 0096 26000000 		.4byte	.LVL4
 1029 009a 0700     		.2byte	0x7
 1030 009c 70       		.byte	0x70
 1031 009d 00       		.sleb128 0
 1032 009e 33       		.byte	0x33
 1033 009f 1A       		.byte	0x1a
 1034 00a0 33       		.byte	0x33
 1035 00a1 24       		.byte	0x24
 1036 00a2 9F       		.byte	0x9f
 1037 00a3 26000000 		.4byte	.LVL4
 1038 00a7 30000000 		.4byte	.LVL5
 1039 00ab 0100     		.2byte	0x1
 1040 00ad 51       		.byte	0x51
 1041 00ae 00000000 		.4byte	0
 1042 00b2 00000000 		.4byte	0
 1043              	.LLST7:
 1044 00b6 00000000 		.4byte	.LFB9
 1045 00ba 06000000 		.4byte	.LCFI2
 1046 00be 0200     		.2byte	0x2
 1047 00c0 7D       		.byte	0x7d
 1048 00c1 00       		.sleb128 0
 1049 00c2 06000000 		.4byte	.LCFI2
 1050 00c6 32000000 		.4byte	.LFE9
 1051 00ca 0200     		.2byte	0x2
 1052 00cc 7D       		.byte	0x7d
 1053 00cd 08       		.sleb128 8
 1054 00ce 00000000 		.4byte	0
 1055 00d2 00000000 		.4byte	0
 1056              	.LLST8:
 1057 00d6 00000000 		.4byte	.LVL6
 1058 00da 1E000000 		.4byte	.LVL7
 1059 00de 0100     		.2byte	0x1
 1060 00e0 50       		.byte	0x50
 1061 00e1 00000000 		.4byte	0
 1062 00e5 00000000 		.4byte	0
 1063              	.LLST9:
 1064 00e9 00000000 		.4byte	.LVL6
 1065 00ed 26000000 		.4byte	.LVL8
 1066 00f1 0100     		.2byte	0x1
 1067 00f3 51       		.byte	0x51
 1068 00f4 00000000 		.4byte	0
 1069 00f8 00000000 		.4byte	0
 1070              	.LLST10:
 1071 00fc 00000000 		.4byte	.LVL6
 1072 0100 1E000000 		.4byte	.LVL7
 1073 0104 0700     		.2byte	0x7
 1074 0106 70       		.byte	0x70
 1075 0107 00       		.sleb128 0
 1076 0108 33       		.byte	0x33
 1077 0109 1A       		.byte	0x1a
 1078 010a 33       		.byte	0x33
 1079 010b 24       		.byte	0x24
ARM GAS  /tmp/ccXs6z0w.s 			page 20


 1080 010c 9F       		.byte	0x9f
 1081 010d 00000000 		.4byte	0
 1082 0111 00000000 		.4byte	0
 1083              		.section	.debug_aranges,"",%progbits
 1084 0000 2C000000 		.4byte	0x2c
 1085 0004 0200     		.2byte	0x2
 1086 0006 00000000 		.4byte	.Ldebug_info0
 1087 000a 04       		.byte	0x4
 1088 000b 00       		.byte	0
 1089 000c 0000     		.2byte	0
 1090 000e 0000     		.2byte	0
 1091 0010 00000000 		.4byte	.LFB7
 1092 0014 4A000000 		.4byte	.LFE7-.LFB7
 1093 0018 00000000 		.4byte	.LFB8
 1094 001c 3C000000 		.4byte	.LFE8-.LFB8
 1095 0020 00000000 		.4byte	.LFB9
 1096 0024 32000000 		.4byte	.LFE9-.LFB9
 1097 0028 00000000 		.4byte	0
 1098 002c 00000000 		.4byte	0
 1099              		.section	.debug_ranges,"",%progbits
 1100              	.Ldebug_ranges0:
 1101 0000 00000000 		.4byte	.LFB7
 1102 0004 4A000000 		.4byte	.LFE7
 1103 0008 00000000 		.4byte	.LFB8
 1104 000c 3C000000 		.4byte	.LFE8
 1105 0010 00000000 		.4byte	.LFB9
 1106 0014 32000000 		.4byte	.LFE9
 1107 0018 00000000 		.4byte	0
 1108 001c 00000000 		.4byte	0
 1109              		.section	.debug_line,"",%progbits
 1110              	.Ldebug_line0:
 1111 0000 2D010000 		.section	.debug_str,"MS",%progbits,1
 1111      0200DC00 
 1111      00000201 
 1111      FB0E0D00 
 1111      01010101 
 1112              	.LASF45:
 1113 0000 2E2E2F2E 		.ascii	"../../ChibiOS/os/ports/common/ARMCMx/nvic.c\000"
 1113      2E2F4368 
 1113      6962694F 
 1113      532F6F73 
 1113      2F706F72 
 1114              	.LASF16:
 1115 002c 49435052 		.ascii	"ICPR\000"
 1115      00
 1116              	.LASF36:
 1117 0031 4D4D4652 		.ascii	"MMFR\000"
 1117      00
 1118              	.LASF9:
 1119 0036 5F426F6F 		.ascii	"_Bool\000"
 1119      6C00
 1120              	.LASF42:
 1121 003c 6E766963 		.ascii	"nvicDisableVector\000"
 1121      44697361 
 1121      626C6556 
 1121      6563746F 
 1121      7200
ARM GAS  /tmp/ccXs6z0w.s 			page 21


 1122              	.LASF23:
 1123 004e 434D785F 		.ascii	"CMx_NVIC\000"
 1123      4E564943 
 1123      00
 1124              	.LASF26:
 1125 0057 56544F52 		.ascii	"VTOR\000"
 1125      00
 1126              	.LASF12:
 1127 005c 49434552 		.ascii	"ICER\000"
 1127      00
 1128              	.LASF44:
 1129 0061 474E5520 		.ascii	"GNU C 4.6.2 20120613 (release) [ARM/embedded-4_6-br"
 1129      4320342E 
 1129      362E3220 
 1129      32303132 
 1129      30363133 
 1130 0094 616E6368 		.ascii	"anch revision 188521]\000"
 1130      20726576 
 1130      6973696F 
 1130      6E203138 
 1130      38353231 
 1131              	.LASF11:
 1132 00aa 756E7573 		.ascii	"unused1\000"
 1132      65643100 
 1133              	.LASF13:
 1134 00b2 756E7573 		.ascii	"unused2\000"
 1134      65643200 
 1135              	.LASF15:
 1136 00ba 756E7573 		.ascii	"unused3\000"
 1136      65643300 
 1137              	.LASF17:
 1138 00c2 756E7573 		.ascii	"unused4\000"
 1138      65643400 
 1139              	.LASF19:
 1140 00ca 756E7573 		.ascii	"unused5\000"
 1140      65643500 
 1141              	.LASF20:
 1142 00d2 756E7573 		.ascii	"unused6\000"
 1142      65643600 
 1143              	.LASF4:
 1144 00da 73686F72 		.ascii	"short unsigned int\000"
 1144      7420756E 
 1144      7369676E 
 1144      65642069 
 1144      6E7400
 1145              	.LASF30:
 1146 00ed 43465352 		.ascii	"CFSR\000"
 1146      00
 1147              	.LASF2:
 1148 00f2 756E7369 		.ascii	"unsigned char\000"
 1148      676E6564 
 1148      20636861 
 1148      7200
 1149              	.LASF31:
 1150 0100 48465352 		.ascii	"HFSR\000"
 1150      00
 1151              	.LASF6:
ARM GAS  /tmp/ccXs6z0w.s 			page 22


 1152 0105 6C6F6E67 		.ascii	"long unsigned int\000"
 1152      20756E73 
 1152      69676E65 
 1152      6420696E 
 1152      7400
 1153              	.LASF37:
 1154 0117 43504143 		.ascii	"CPACR\000"
 1154      5200
 1155              	.LASF21:
 1156 011d 53544952 		.ascii	"STIR\000"
 1156      00
 1157              	.LASF3:
 1158 0122 73686F72 		.ascii	"short int\000"
 1158      7420696E 
 1158      7400
 1159              	.LASF25:
 1160 012c 49435352 		.ascii	"ICSR\000"
 1160      00
 1161              	.LASF0:
 1162 0131 756E7369 		.ascii	"unsigned int\000"
 1162      676E6564 
 1162      20696E74 
 1162      00
 1163              	.LASF14:
 1164 013e 49535052 		.ascii	"ISPR\000"
 1164      00
 1165              	.LASF32:
 1166 0143 44465352 		.ascii	"DFSR\000"
 1166      00
 1167              	.LASF8:
 1168 0148 6C6F6E67 		.ascii	"long long unsigned int\000"
 1168      206C6F6E 
 1168      6720756E 
 1168      7369676E 
 1168      65642069 
 1169              	.LASF46:
 1170 015f 2F686F6D 		.ascii	"/home/tino/workspace/openrobots/R2P_IR_module/fw\000"
 1170      652F7469 
 1170      6E6F2F77 
 1170      6F726B73 
 1170      70616365 
 1171              	.LASF28:
 1172 0190 53485052 		.ascii	"SHPR\000"
 1172      00
 1173              	.LASF38:
 1174 0195 434D785F 		.ascii	"CMx_SCB\000"
 1174      53434200 
 1175              	.LASF27:
 1176 019d 41495243 		.ascii	"AIRCR\000"
 1176      5200
 1177              	.LASF34:
 1178 01a3 42464152 		.ascii	"BFAR\000"
 1178      00
 1179              	.LASF43:
 1180 01a8 68616E64 		.ascii	"handler\000"
 1180      6C657200 
 1181              	.LASF7:
ARM GAS  /tmp/ccXs6z0w.s 			page 23


 1182 01b0 6C6F6E67 		.ascii	"long long int\000"
 1182      206C6F6E 
 1182      6720696E 
 1182      7400
 1183              	.LASF24:
 1184 01be 43505549 		.ascii	"CPUID\000"
 1184      4400
 1185              	.LASF39:
 1186 01c4 63686172 		.ascii	"char\000"
 1186      00
 1187              	.LASF10:
 1188 01c9 49534552 		.ascii	"ISER\000"
 1188      00
 1189              	.LASF35:
 1190 01ce 41465352 		.ascii	"AFSR\000"
 1190      00
 1191              	.LASF33:
 1192 01d3 4D4D4641 		.ascii	"MMFAR\000"
 1192      5200
 1193              	.LASF29:
 1194 01d9 53484353 		.ascii	"SHCSR\000"
 1194      5200
 1195              	.LASF22:
 1196 01df 75696E74 		.ascii	"uint32_t\000"
 1196      33325F74 
 1196      00
 1197              	.LASF5:
 1198 01e8 6C6F6E67 		.ascii	"long int\000"
 1198      20696E74 
 1198      00
 1199              	.LASF40:
 1200 01f1 7072696F 		.ascii	"prio\000"
 1200      00
 1201              	.LASF1:
 1202 01f6 7369676E 		.ascii	"signed char\000"
 1202      65642063 
 1202      68617200 
 1203              	.LASF47:
 1204 0202 6E766963 		.ascii	"nvicSetSystemHandlerPriority\000"
 1204      53657453 
 1204      79737465 
 1204      6D48616E 
 1204      646C6572 
 1205              	.LASF18:
 1206 021f 49414252 		.ascii	"IABR\000"
 1206      00
 1207              	.LASF41:
 1208 0224 6E766963 		.ascii	"nvicEnableVector\000"
 1208      456E6162 
 1208      6C655665 
 1208      63746F72 
 1208      00
 1209              		.ident	"GCC: (GNU Tools for ARM Embedded Processors) 4.6.2 20120613 (release) [ARM/embedded-4_6-br
ARM GAS  /tmp/ccXs6z0w.s 			page 24


DEFINED SYMBOLS
                            *ABS*:00000000 nvic.c
     /tmp/ccXs6z0w.s:19     .text.nvicEnableVector:00000000 $t
     /tmp/ccXs6z0w.s:25     .text.nvicEnableVector:00000000 nvicEnableVector
     /tmp/ccXs6z0w.s:82     .text.nvicDisableVector:00000000 $t
     /tmp/ccXs6z0w.s:88     .text.nvicDisableVector:00000000 nvicDisableVector
     /tmp/ccXs6z0w.s:133    .text.nvicSetSystemHandlerPriority:00000000 $t
     /tmp/ccXs6z0w.s:139    .text.nvicSetSystemHandlerPriority:00000000 nvicSetSystemHandlerPriority
                     .debug_frame:00000010 $d

NO UNDEFINED SYMBOLS
