ARM GAS  /tmp/ccD0UGvg.s 			page 1


   1              		.syntax unified
   2              		.cpu cortex-m3
   3              		.fpu softvfp
   4              		.eabi_attribute 20, 1
   5              		.eabi_attribute 21, 1
   6              		.eabi_attribute 23, 3
   7              		.eabi_attribute 24, 1
   8              		.eabi_attribute 25, 1
   9              		.eabi_attribute 26, 1
  10              		.eabi_attribute 30, 2
  11              		.eabi_attribute 34, 1
  12              		.eabi_attribute 18, 4
  13              		.thumb
  14              		.file	"pal.c"
  15              		.text
  16              	.Ltext0:
  17              		.cfi_sections	.debug_frame
  18              		.section	.text.palReadBus,"ax",%progbits
  19              		.align	2
  20              		.p2align 4,,15
  21              		.global	palReadBus
  22              		.thumb
  23              		.thumb_func
  24              		.type	palReadBus, %function
  25              	palReadBus:
  26              	.LFB63:
  27              		.file 1 "../../ChibiOS/os/hal/src/pal.c"
  28              		.loc 1 69 0
  29              		.cfi_startproc
  30              		@ args = 0, pretend = 0, frame = 0
  31              		@ frame_needed = 0, uses_anonymous_args = 0
  32              	.LVL0:
  33 0000 10B5     		push	{r4, lr}
  34              	.LCFI0:
  35              		.cfi_def_cfa_offset 8
  36              		.cfi_offset 14, -4
  37              		.cfi_offset 4, -8
  38              		.loc 1 69 0
  39 0002 0446     		mov	r4, r0
  40              		.loc 1 71 0
  41 0004 10B1     		cbz	r0, .L2
  42              		.loc 1 71 0 is_stmt 0 discriminator 2
  43 0006 8368     		ldr	r3, [r0, #8]
  44 0008 0F2B     		cmp	r3, #15
  45 000a 03D9     		bls	.L3
  46              	.L2:
  47              		.loc 1 71 0 discriminator 1
  48 000c 0548     		ldr	r0, .L5
  49              	.LVL1:
  50 000e FFF7FEFF 		bl	chDbgPanic
  51 0012 A368     		ldr	r3, [r4, #8]
  52              	.L3:
  53              		.loc 1 74 0 is_stmt 1
  54 0014 94E80600 		ldmia	r4, {r1, r2}
  55 0018 8868     		ldr	r0, [r1, #8]
  56 001a 20FA03F3 		lsr	r3, r0, r3
  57 001e 03EA0200 		and	r0, r3, r2
ARM GAS  /tmp/ccD0UGvg.s 			page 2


  58              		.loc 1 75 0
  59 0022 10BD     		pop	{r4, pc}
  60              	.L6:
  61              		.align	2
  62              	.L5:
  63 0024 00000000 		.word	.LC0
  64              		.cfi_endproc
  65              	.LFE63:
  66              		.size	palReadBus, .-palReadBus
  67 0028 AFF30080 		.section	.text.palWriteBus,"ax",%progbits
  67      AFF30080 
  68              		.align	2
  69              		.p2align 4,,15
  70              		.global	palWriteBus
  71              		.thumb
  72              		.thumb_func
  73              		.type	palWriteBus, %function
  74              	palWriteBus:
  75              	.LFB64:
  76              		.loc 1 94 0
  77              		.cfi_startproc
  78              		@ args = 0, pretend = 0, frame = 0
  79              		@ frame_needed = 0, uses_anonymous_args = 0
  80              	.LVL2:
  81 0000 38B5     		push	{r3, r4, r5, lr}
  82              	.LCFI1:
  83              		.cfi_def_cfa_offset 16
  84              		.cfi_offset 14, -4
  85              		.cfi_offset 5, -8
  86              		.cfi_offset 4, -12
  87              		.cfi_offset 3, -16
  88              		.loc 1 94 0
  89 0002 0446     		mov	r4, r0
  90 0004 0D46     		mov	r5, r1
  91              		.loc 1 96 0
  92 0006 10B1     		cbz	r0, .L8
  93              		.loc 1 96 0 is_stmt 0 discriminator 2
  94 0008 8368     		ldr	r3, [r0, #8]
  95 000a 0F2B     		cmp	r3, #15
  96 000c 03D9     		bls	.L9
  97              	.L8:
  98              		.loc 1 96 0 discriminator 1
  99 000e 0948     		ldr	r0, .L10
 100              	.LVL3:
 101 0010 FFF7FEFF 		bl	chDbgPanic
 102              	.LVL4:
 103 0014 A368     		ldr	r3, [r4, #8]
 104              	.L9:
 105              		.loc 1 99 0 is_stmt 1
 106 0016 6268     		ldr	r2, [r4, #4]
 107 0018 03F11001 		add	r1, r3, #16
 108 001c 22EA050C 		bic	ip, r2, r5
 109 0020 1540     		ands	r5, r5, r2
 110              	.LVL5:
 111 0022 0CFA01F0 		lsl	r0, ip, r1
 112 0026 05FA03F2 		lsl	r2, r5, r3
 113 002a 2168     		ldr	r1, [r4, #0]
ARM GAS  /tmp/ccD0UGvg.s 			page 3


 114 002c 40EA0203 		orr	r3, r0, r2
 115 0030 0B61     		str	r3, [r1, #16]
 116              		.loc 1 100 0
 117 0032 38BD     		pop	{r3, r4, r5, pc}
 118              	.L11:
 119              		.align	2
 120              	.L10:
 121 0034 10000000 		.word	.LC1
 122              		.cfi_endproc
 123              	.LFE64:
 124              		.size	palWriteBus, .-palWriteBus
 125 0038 AFF30080 		.section	.text.palSetBusMode,"ax",%progbits
 125      AFF30080 
 126              		.align	2
 127              		.p2align 4,,15
 128              		.global	palSetBusMode
 129              		.thumb
 130              		.thumb_func
 131              		.type	palSetBusMode, %function
 132              	palSetBusMode:
 133              	.LFB65:
 134              		.loc 1 117 0
 135              		.cfi_startproc
 136              		@ args = 0, pretend = 0, frame = 0
 137              		@ frame_needed = 0, uses_anonymous_args = 0
 138              	.LVL6:
 139 0000 38B5     		push	{r3, r4, r5, lr}
 140              	.LCFI2:
 141              		.cfi_def_cfa_offset 16
 142              		.cfi_offset 14, -4
 143              		.cfi_offset 5, -8
 144              		.cfi_offset 4, -12
 145              		.cfi_offset 3, -16
 146              		.loc 1 117 0
 147 0002 0446     		mov	r4, r0
 148 0004 0D46     		mov	r5, r1
 149              		.loc 1 119 0
 150 0006 10B1     		cbz	r0, .L13
 151              		.loc 1 119 0 is_stmt 0 discriminator 2
 152 0008 8368     		ldr	r3, [r0, #8]
 153 000a 0F2B     		cmp	r3, #15
 154 000c 03D9     		bls	.L14
 155              	.L13:
 156              		.loc 1 119 0 discriminator 1
 157 000e 0648     		ldr	r0, .L15
 158              	.LVL7:
 159 0010 FFF7FEFF 		bl	chDbgPanic
 160              	.LVL8:
 161 0014 A368     		ldr	r3, [r4, #8]
 162              	.L14:
 163              		.loc 1 122 0 is_stmt 1
 164 0016 94E80300 		ldmia	r4, {r0, r1}
 165 001a 01FA03F1 		lsl	r1, r1, r3
 166 001e 2A46     		mov	r2, r5
 167              		.loc 1 123 0
 168 0020 BDE83840 		pop	{r3, r4, r5, lr}
 169              		.loc 1 122 0
ARM GAS  /tmp/ccD0UGvg.s 			page 4


 170 0024 FFF7FEBF 		b	_pal_lld_setgroupmode
 171              	.L16:
 172              		.align	2
 173              	.L15:
 174 0028 20000000 		.word	.LC2
 175              		.cfi_endproc
 176              	.LFE65:
 177              		.size	palSetBusMode, .-palSetBusMode
 178 002c AFF30080 		.section	.rodata.str1.4,"aMS",%progbits,1
 179              		.align	2
 180              	.LC0:
 181 0000 2270616C 		.ascii	"\"palReadBus\"()\000"
 181      52656164 
 181      42757322 
 181      282900
 182 000f 00       		.space	1
 183              	.LC1:
 184 0010 2270616C 		.ascii	"\"palWriteBus\"()\000"
 184      57726974 
 184      65427573 
 184      22282900 
 185              	.LC2:
 186 0020 2270616C 		.ascii	"\"palSetBusMode\"()\000"
 186      53657442 
 186      75734D6F 
 186      64652228 
 186      2900
 187 0032 0000     		.text
 188              	.Letext0:
 189              		.file 2 "/home/tino/ChibiStudio/tools/GNU Tools ARM Embedded/4.6 2012q2/bin/../lib/gcc/arm-none-ea
 190              		.file 3 "../../ChibiOS/os/hal/platforms/STM32F1xx/stm32f10x.h"
 191              		.file 4 "../../ChibiOS/os/hal/platforms/STM32/GPIOv1/pal_lld.h"
 192              		.file 5 "../../ChibiOS/os/hal/include/pal.h"
 193              		.file 6 "../../ChibiOS/os/ports/common/ARMCMx/CMSIS/include/core_cm3.h"