ARM GAS  /tmp/ccet7U8j.s 			page 1


   1              		.syntax unified
   2              		.cpu cortex-m3
   3              		.fpu softvfp
   4              		.eabi_attribute 20, 1
   5              		.eabi_attribute 21, 1
   6              		.eabi_attribute 23, 3
   7              		.eabi_attribute 24, 1
   8              		.eabi_attribute 25, 1
   9              		.eabi_attribute 26, 1
  10              		.eabi_attribute 30, 2
  11              		.eabi_attribute 34, 1
  12              		.eabi_attribute 18, 4
  13              		.thumb
  14              		.file	"RemotePublisher.cpp"
  15              		.text
  16              	.Ltext0:
  17              		.cfi_sections	.debug_frame
  18              		.section	.text._ZN15RemotePublisherC2EPKcj,"ax",%progbits
  19              		.align	2
  20              		.p2align 4,,15
  21              		.global	_ZN15RemotePublisherC2EPKcj
  22              		.thumb
  23              		.thumb_func
  24              		.type	_ZN15RemotePublisherC2EPKcj, %function
  25              	_ZN15RemotePublisherC2EPKcj:
  26              	.LFB73:
  27              		.file 1 "../../Middleware/RemotePublisher.cpp"
  28              		.loc 1 12 0
  29              		.cfi_startproc
  30              		@ args = 0, pretend = 0, frame = 0
  31              		@ frame_needed = 0, uses_anonymous_args = 0
  32              	.LVL0:
  33 0000 38B5     		push	{r3, r4, r5, lr}
  34              	.LCFI0:
  35              		.cfi_def_cfa_offset 16
  36              		.cfi_offset 14, -4
  37              		.cfi_offset 5, -8
  38              		.cfi_offset 4, -12
  39              		.cfi_offset 3, -16
  40              		.loc 1 12 0
  41 0002 0446     		mov	r4, r0
  42 0004 1546     		mov	r5, r2
  43              	.LBB2:
  44 0006 FFF7FEFF 		bl	_ZN13BasePublisherC2EPKcj
  45              	.LVL1:
  46              		.loc 1 16 0
  47 000a E16A     		ldr	r1, [r4, #44]
  48 000c 40F2E730 		movw	r0, #999
  49              		.loc 1 17 0
  50 0010 40F2000C 		movw	ip, #:lower16:_ZN5RTcan4rxcbEP11rtcan_msg_t
  51              		.loc 1 13 0
  52 0014 0022     		movs	r2, #0
  53              		.loc 1 16 0
  54 0016 60F31721 		bfi	r1, r0, #8, #16
  55              		.loc 1 17 0
  56 001a C0F2000C 		movt	ip, #:upper16:_ZN5RTcan4rxcbEP11rtcan_msg_t
  57              		.loc 1 20 0
ARM GAS  /tmp/ccet7U8j.s 			page 2


  58 001e 0223     		movs	r3, #2
  59              		.loc 1 16 0
  60 0020 E162     		str	r1, [r4, #44]
  61              		.loc 1 13 0
  62 0022 A261     		str	r2, [r4, #24]
  63              		.loc 1 14 0
  64 0024 6260     		str	r2, [r4, #4]
  65              		.loc 1 17 0
  66 0026 C4F821C0 		str	ip, [r4, #33]	@ unaligned
  67              		.loc 1 18 0
  68 002a C4F82540 		str	r4, [r4, #37]	@ unaligned
  69              		.loc 1 19 0
  70 002e A4F82F50 		strh	r5, [r4, #47]	@ unaligned
  71              		.loc 1 20 0
  72 0032 84F82030 		strb	r3, [r4, #32]
  73              	.LBE2:
  74              		.loc 1 21 0
  75 0036 2046     		mov	r0, r4
  76 0038 38BD     		pop	{r3, r4, r5, pc}
  77              		.cfi_endproc
  78              	.LFE73:
  79              		.size	_ZN15RemotePublisherC2EPKcj, .-_ZN15RemotePublisherC2EPKcj
  80 003a 00BFAFF3 		.section	.text._ZN15RemotePublisher4nextEv,"ax",%progbits
  80      0080
  81              		.align	2
  82              		.p2align 4,,15
  83              		.global	_ZN15RemotePublisher4nextEv
  84              		.thumb
  85              		.thumb_func
  86              		.type	_ZN15RemotePublisher4nextEv, %function
  87              	_ZN15RemotePublisher4nextEv:
  88              	.LFB75:
  89              		.loc 1 23 0
  90              		.cfi_startproc
  91              		@ args = 0, pretend = 0, frame = 0
  92              		@ frame_needed = 0, uses_anonymous_args = 0
  93              		@ link register save eliminated.
  94              	.LVL2:
  95              		.loc 1 24 0
  96 0000 8069     		ldr	r0, [r0, #24]
  97              	.LVL3:
  98              		.loc 1 25 0
  99 0002 7047     		bx	lr
 100              		.cfi_endproc
 101              	.LFE75:
 102              		.size	_ZN15RemotePublisher4nextEv, .-_ZN15RemotePublisher4nextEv
 103 0004 AFF30080 		.section	.text._ZN15RemotePublisher4nextEPS_,"ax",%progbits
 103      AFF30080 
 103      AFF30080 
 104              		.align	2
 105              		.p2align 4,,15
 106              		.global	_ZN15RemotePublisher4nextEPS_
 107              		.thumb
 108              		.thumb_func
 109              		.type	_ZN15RemotePublisher4nextEPS_, %function
 110              	_ZN15RemotePublisher4nextEPS_:
 111              	.LFB76:
ARM GAS  /tmp/ccet7U8j.s 			page 3


 112              		.loc 1 27 0
 113              		.cfi_startproc
 114              		@ args = 0, pretend = 0, frame = 0
 115              		@ frame_needed = 0, uses_anonymous_args = 0
 116              		@ link register save eliminated.
 117              	.LVL4:
 118              		.loc 1 28 0
 119 0000 8161     		str	r1, [r0, #24]
 120              		.loc 1 29 0
 121 0002 7047     		bx	lr
 122              		.cfi_endproc
 123              	.LFE76:
 124              		.size	_ZN15RemotePublisher4nextEPS_, .-_ZN15RemotePublisher4nextEPS_
 125 0004 AFF30080 		.section	.text._ZN15RemotePublisher10broadcastIEP11BaseMessage,"ax",%progbits
 125      AFF30080 
 125      AFF30080 
 126              		.align	2
 127              		.p2align 4,,15
 128              		.global	_ZN15RemotePublisher10broadcastIEP11BaseMessage
 129              		.thumb
 130              		.thumb_func
 131              		.type	_ZN15RemotePublisher10broadcastIEP11BaseMessage, %function
 132              	_ZN15RemotePublisher10broadcastIEP11BaseMessage:
 133              	.LFB77:
 134              		.loc 1 31 0
 135              		.cfi_startproc
 136              		@ args = 0, pretend = 0, frame = 8
 137              		@ frame_needed = 0, uses_anonymous_args = 0
 138              	.LVL5:
 139 0000 10B5     		push	{r4, lr}
 140              	.LCFI1:
 141              		.cfi_def_cfa_offset 8
 142              		.cfi_offset 14, -4
 143              		.cfi_offset 4, -8
 144              	.LBB3:
 145              		.loc 1 32 0
 146 0002 4068     		ldr	r0, [r0, #4]
 147              	.LVL6:
 148              	.LBE3:
 149              		.loc 1 31 0
 150 0004 82B0     		sub	sp, sp, #8
 151              	.LCFI2:
 152              		.cfi_def_cfa_offset 16
 153              	.LBB4:
 154              		.loc 1 33 0
 155 0006 0023     		movs	r3, #0
 156              	.LBE4:
 157              		.loc 1 31 0
 158 0008 0C46     		mov	r4, r1
 159              	.LBB5:
 160              		.loc 1 33 0
 161 000a 0193     		str	r3, [sp, #4]
 162              	.LVL7:
 163              		.loc 1 35 0
 164 000c 30B1     		cbz	r0, .L6
 165              	.LVL8:
 166              	.L7:
ARM GAS  /tmp/ccet7U8j.s 			page 4


 167              		.loc 1 36 0
 168 000e 2146     		mov	r1, r4
 169 0010 01AA     		add	r2, sp, #4
 170 0012 FFF7FEFF 		bl	_ZN15LocalSubscriber6notifyEP11BaseMessageRi
 171              	.LVL9:
 172              		.loc 1 35 0
 173 0016 0028     		cmp	r0, #0
 174 0018 F9D1     		bne	.L7
 175 001a 0198     		ldr	r0, [sp, #4]
 176              	.LVL10:
 177              	.L6:
 178              	.LBE5:
 179              		.loc 1 43 0
 180 001c 02B0     		add	sp, sp, #8
 181 001e 10BD     		pop	{r4, pc}
 182              		.cfi_endproc
 183              	.LFE77:
 184              		.size	_ZN15RemotePublisher10broadcastIEP11BaseMessage, .-_ZN15RemotePublisher10broadcastIEP11BaseM
 185              		.section	.text._ZN15RemotePublisher9subscribeEP15LocalSubscriberPvjPm,"ax",%progbits
 186              		.align	2
 187              		.p2align 4,,15
 188              		.global	_ZN15RemotePublisher9subscribeEP15LocalSubscriberPvjPm
 189              		.thumb
 190              		.thumb_func
 191              		.type	_ZN15RemotePublisher9subscribeEP15LocalSubscriberPvjPm, %function
 192              	_ZN15RemotePublisher9subscribeEP15LocalSubscriberPvjPm:
 193              	.LFB78:
 194              		.loc 1 46 0
 195              		.cfi_startproc
 196              		@ args = 4, pretend = 0, frame = 0
 197              		@ frame_needed = 0, uses_anonymous_args = 0
 198              	.LVL11:
 199 0000 70B5     		push	{r4, r5, r6, lr}
 200              	.LCFI3:
 201              		.cfi_def_cfa_offset 16
 202              		.cfi_offset 14, -4
 203              		.cfi_offset 6, -8
 204              		.cfi_offset 5, -12
 205              		.cfi_offset 4, -16
 206              		.loc 1 46 0
 207 0002 049E     		ldr	r6, [sp, #16]
 208 0004 0446     		mov	r4, r0
 209              	.LBB6:
 210              		.loc 1 48 0
 211 0006 3068     		ldr	r0, [r6, #0]
 212              	.LVL12:
 213              	.LBE6:
 214              		.loc 1 46 0
 215 0008 0D46     		mov	r5, r1
 216              	.LBB11:
 217              		.loc 1 48 0
 218 000a E0B9     		cbnz	r0, .L17
 219              	.LVL13:
 220              	.L12:
 221              	.LBB7:
 222              	.LBB8:
 223              		.loc 1 53 0
ARM GAS  /tmp/ccet7U8j.s 			page 5


 224 000c 2023     		movs	r3, #32
 225              	.LVL14:
 226              	@ 53 "../../Middleware/RemotePublisher.cpp" 1
 227 000e 83F31188 		msr     BASEPRI, r3
 228              	@ 0 "" 2
 229              	.LVL15:
 230              		.thumb
 231              	.LBE8:
 232 0012 FFF7FEFF 		bl	dbg_check_lock
 233              	.LVL16:
 234              	.LBE7:
 235              		.loc 1 54 0
 236 0016 6168     		ldr	r1, [r4, #4]
 237 0018 11B1     		cbz	r1, .L16
 238              		.loc 1 57 0
 239 001a 2846     		mov	r0, r5
 240 001c FFF7FEFF 		bl	_ZN15LocalSubscriber4linkEPS_
 241              	.L16:
 242              		.loc 1 58 0
 243 0020 6560     		str	r5, [r4, #4]
 244              	.LBB9:
 245              		.loc 1 60 0
 246 0022 FFF7FEFF 		bl	dbg_check_unlock
 247              	.LBB10:
 248 0026 0023     		movs	r3, #0
 249              	.LVL17:
 250              	@ 60 "../../Middleware/RemotePublisher.cpp" 1
 251 0028 83F31188 		msr     BASEPRI, r3
 252              	@ 0 "" 2
 253              	.LVL18:
 254              		.thumb
 255              	.LBE10:
 256              	.LBE9:
 257              		.loc 1 62 0
 258 002c 2046     		mov	r0, r4
 259 002e FFF7FEFF 		bl	_ZN13BasePublisher5allocEv
 260              	.LVL19:
 261 0032 C4F83100 		str	r0, [r4, #49]	@ unaligned
 262              		.loc 1 63 0
 263 0036 78B1     		cbz	r0, .L11
 264              		.loc 1 64 0
 265 0038 0848     		ldr	r0, .L18
 266 003a 04F11C01 		add	r1, r4, #28
 267              	.LBE11:
 268              		.loc 1 68 0
 269 003e BDE87040 		pop	{r4, r5, r6, lr}
 270              	.LBB12:
 271              		.loc 1 64 0
 272 0042 FFF7FEBF 		b	rtcanReceive
 273              	.LVL20:
 274              	.L17:
 275              		.loc 1 49 0
 276 0046 1146     		mov	r1, r2
 277 0048 04F10C00 		add	r0, r4, #12
 278 004c 1A46     		mov	r2, r3
 279              	.LVL21:
 280 004e FFF7FEFF 		bl	chPoolLoadArray
ARM GAS  /tmp/ccet7U8j.s 			page 6


 281              	.LVL22:
 282              		.loc 1 50 0
 283 0052 0023     		movs	r3, #0
 284 0054 3360     		str	r3, [r6, #0]
 285 0056 D9E7     		b	.L12
 286              	.L11:
 287 0058 70BD     		pop	{r4, r5, r6, pc}
 288              	.L19:
 289 005a 00BF     		.align	2
 290              	.L18:
 291 005c 00000000 		.word	RTCAND1
 292              	.LBE12:
 293              		.cfi_endproc
 294              	.LFE78:
 295              		.size	_ZN15RemotePublisher9subscribeEP15LocalSubscriberPvjPm, .-_ZN15RemotePublisher9subscribeEP15
 296              		.section	.text._ZN15RemotePublisher2idEt,"ax",%progbits
 297              		.align	2
 298              		.p2align 4,,15
 299              		.global	_ZN15RemotePublisher2idEt
 300              		.thumb
 301              		.thumb_func
 302              		.type	_ZN15RemotePublisher2idEt, %function
 303              	_ZN15RemotePublisher2idEt:
 304              	.LFB79:
 305              		.loc 1 70 0
 306              		.cfi_startproc
 307              		@ args = 0, pretend = 0, frame = 0
 308              		@ frame_needed = 0, uses_anonymous_args = 0
 309              		@ link register save eliminated.
 310              	.LVL23:
 311              		.loc 1 71 0
 312 0000 A0F82D10 		strh	r1, [r0, #45]	@ unaligned
 313              		.loc 1 72 0
 314 0004 7047     		bx	lr
 315              		.cfi_endproc
 316              	.LFE79:
 317              		.size	_ZN15RemotePublisher2idEt, .-_ZN15RemotePublisher2idEt
 318 0006 00BFAFF3 		.section	.text._ZN15RemotePublisher2idEv,"ax",%progbits
 318      0080AFF3 
 318      0080
 319              		.align	2
 320              		.p2align 4,,15
 321              		.global	_ZN15RemotePublisher2idEv
 322              		.thumb
 323              		.thumb_func
 324              		.type	_ZN15RemotePublisher2idEv, %function
 325              	_ZN15RemotePublisher2idEv:
 326              	.LFB80:
 327              		.loc 1 74 0
 328              		.cfi_startproc
 329              		@ args = 0, pretend = 0, frame = 0
 330              		@ frame_needed = 0, uses_anonymous_args = 0
 331              		@ link register save eliminated.
 332              	.LVL24:
 333              		.loc 1 75 0
 334 0000 B0F82D00 		ldrh	r0, [r0, #45]	@ unaligned
 335              	.LVL25:
ARM GAS  /tmp/ccet7U8j.s 			page 7


 336              		.loc 1 76 0
 337 0004 7047     		bx	lr
 338              		.cfi_endproc
 339              	.LFE80:
 340              		.size	_ZN15RemotePublisher2idEv, .-_ZN15RemotePublisher2idEv
 341              		.global	_ZN15RemotePublisherC1EPKcj
 342              		.thumb_set _ZN15RemotePublisherC1EPKcj,_ZN15RemotePublisherC2EPKcj
 343 0006 00BFAFF3 		.text
 343      0080AFF3 
 343      0080
 344              	.Letext0:
 345              		.file 2 "/home/tino/ChibiStudio/tools/GNU Tools ARM Embedded/4.6 2012q2/bin/../lib/gcc/arm-none-ea
 346              		.file 3 "/home/tino/ChibiStudio/tools/GNU Tools ARM Embedded/4.6 2012q2/bin/../lib/gcc/arm-none-ea
 347              		.file 4 "../../ChibiOS/os/ports/GCC/ARMCMx/chtypes.h"
 348              		.file 5 "../../ChibiOS/os/kernel/include/chlists.h"
 349              		.file 6 "../../ChibiOS/os/kernel/include/chthreads.h"
 350              		.file 7 "../../ChibiOS/os/ports/GCC/ARMCMx/chcore_v7m.h"
 351              		.file 8 "../../ChibiOS/os/kernel/include/chmtx.h"
 352              		.file 9 "../../ChibiOS/os/kernel/include/chmemcore.h"
 353              		.file 10 "../../ChibiOS/os/kernel/include/chmempools.h"
 354              		.file 11 "../../Middleware/BasePublisher.hpp"
 355              		.file 12 "../../Middleware/LocalSubscriber.hpp"
 356              		.file 13 "../../Middleware/RemoteSubscriber.hpp"
 357              		.file 14 "../../Middleware/BaseMessage.hpp"
 358              		.file 15 "../../ChibiOS/os/hal/platforms/STM32F1xx/stm32f10x.h"
 359              		.file 16 "../../RTCAN/include/rtcan.h"
 360              		.file 17 "../../RTCAN/include/msgqueue.h"
 361              		.file 18 "../../RTCAN/include/hrt.h"
 362              		.file 19 "../../Middleware/MessageQueue.hpp"
 363              		.file 20 "../../Middleware/BaseSubscriber.hpp"
 364              		.file 21 "../../Middleware/RemotePublisher.hpp"
 365              		.file 22 "../../Middleware/LocalPublisher.hpp"
 366              		.file 23 "../../ChibiOS/os/ports/common/ARMCMx/CMSIS/include/core_cm3.h"
 367              		.file 24 "../../RTCAN/platforms/STM32/rtcan_lld_can.h"
 368              		.file 25 "../../ChibiOS/os/various/cpp_wrappers/ch.hpp"