ARM GAS  /tmp/ccLewEkE.s 			page 1


   1              		.syntax unified
   2              		.cpu cortex-m3
   3              		.fpu softvfp
   4              		.eabi_attribute 20, 1
   5              		.eabi_attribute 21, 1
   6              		.eabi_attribute 23, 3
   7              		.eabi_attribute 24, 1
   8              		.eabi_attribute 25, 1
   9              		.eabi_attribute 26, 1
  10              		.eabi_attribute 30, 2
  11              		.eabi_attribute 34, 1
  12              		.eabi_attribute 18, 4
  13              		.thumb
  14              		.file	"rtcan.c"
  15              		.text
  16              	.Ltext0:
  17              		.cfi_sections	.debug_frame
  18              		.section	.text.stm32_id8,"ax",%progbits
  19              		.align	2
  20              		.p2align 4,,15
  21              		.global	stm32_id8
  22              		.thumb
  23              		.thumb_func
  24              		.type	stm32_id8, %function
  25              	stm32_id8:
  26              	.LFB63:
  27              		.file 1 "../../RTCAN/src/rtcan.c"
  28              		.loc 1 28 0
  29              		.cfi_startproc
  30              		@ args = 0, pretend = 0, frame = 0
  31              		@ frame_needed = 0, uses_anonymous_args = 0
  32              		@ link register save eliminated.
  33              	.LVL0:
  34              		.loc 1 31 0
  35 0000 4FF2F073 		movw	r3, #63472
  36 0004 C1F6FF73 		movt	r3, 8191
  37 0008 1878     		ldrb	r0, [r3, #0]	@ zero_extendqisi2
  38              		.loc 1 32 0
  39 000a 7047     		bx	lr
  40              		.cfi_endproc
  41              	.LFE63:
  42              		.size	stm32_id8, .-stm32_id8
  43 000c AFF30080 		.section	.text.rtcan_ismaster,"ax",%progbits
  44              		.align	2
  45              		.p2align 4,,15
  46              		.global	rtcan_ismaster
  47              		.thumb
  48              		.thumb_func
  49              		.type	rtcan_ismaster, %function
  50              	rtcan_ismaster:
  51              	.LFB64:
  52              		.loc 1 34 0
  53              		.cfi_startproc
  54              		@ args = 0, pretend = 0, frame = 0
  55              		@ frame_needed = 0, uses_anonymous_args = 0
  56              		@ link register save eliminated.
  57              		.loc 1 40 0
ARM GAS  /tmp/ccLewEkE.s 			page 2


  58 0000 0120     		movs	r0, #1
  59 0002 7047     		bx	lr
  60              		.cfi_endproc
  61              	.LFE64:
  62              		.size	rtcan_ismaster, .-rtcan_ismaster
  63 0004 AFF30080 		.section	.text.rtcan_sync_transmit,"ax",%progbits
  63      AFF30080 
  63      AFF30080 
  64              		.align	2
  65              		.p2align 4,,15
  66              		.global	rtcan_sync_transmit
  67              		.thumb
  68              		.thumb_func
  69              		.type	rtcan_sync_transmit, %function
  70              	rtcan_sync_transmit:
  71              	.LFB65:
  72              		.loc 1 43 0
  73              		.cfi_startproc
  74              		@ args = 0, pretend = 0, frame = 16
  75              		@ frame_needed = 0, uses_anonymous_args = 0
  76              	.LVL1:
  77 0000 30B5     		push	{r4, r5, lr}
  78              	.LCFI0:
  79              		.cfi_def_cfa_offset 12
  80              		.cfi_offset 14, -4
  81              		.cfi_offset 5, -8
  82              		.cfi_offset 4, -12
  83              		.loc 1 46 0
  84 0002 047A     		ldrb	r4, [r0, #8]	@ zero_extendqisi2
  85              		.loc 1 43 0
  86 0004 85B0     		sub	sp, sp, #20
  87              	.LCFI1:
  88              		.cfi_def_cfa_offset 32
  89              		.loc 1 46 0
  90 0006 009A     		ldr	r2, [sp, #0]
  91 0008 E501     		lsls	r5, r4, #7
  92              		.loc 1 47 0
  93 000a 9DF80430 		ldrb	r3, [sp, #4]	@ zero_extendqisi2
  94              		.loc 1 49 0
  95 000e C16D     		ldr	r1, [r0, #92]
  96              		.loc 1 46 0
  97 0010 65F31C02 		bfi	r2, r5, #0, #29
  98              		.loc 1 48 0
  99 0014 846D     		ldr	r4, [r0, #88]
 100              		.loc 1 47 0
 101 0016 0825     		movs	r5, #8
 102 0018 65F30303 		bfi	r3, r5, #0, #4
 103              		.loc 1 49 0
 104 001c 0391     		str	r1, [sp, #12]
 105              		.loc 1 51 0
 106 001e 6946     		mov	r1, sp
 107              		.loc 1 46 0
 108 0020 0092     		str	r2, [sp, #0]
 109              		.loc 1 47 0
 110 0022 8DF80430 		strb	r3, [sp, #4]
 111              		.loc 1 48 0
 112 0026 0294     		str	r4, [sp, #8]
ARM GAS  /tmp/ccLewEkE.s 			page 3


 113              		.loc 1 51 0
 114 0028 FFF7FEFF 		bl	rtcan_lld_can_transmit
 115              	.LVL2:
 116              		.loc 1 52 0
 117 002c 05B0     		add	sp, sp, #20
 118 002e 30BD     		pop	{r4, r5, pc}
 119              		.cfi_endproc
 120              	.LFE65:
 121              		.size	rtcan_sync_transmit, .-rtcan_sync_transmit
 122              		.section	.text.rtcan_tim_isr_code,"ax",%progbits
 123              		.align	2
 124              		.p2align 4,,15
 125              		.global	rtcan_tim_isr_code
 126              		.thumb
 127              		.thumb_func
 128              		.type	rtcan_tim_isr_code, %function
 129              	rtcan_tim_isr_code:
 130              	.LFB66:
 131              		.loc 1 66 0
 132              		.cfi_startproc
 133              		@ args = 0, pretend = 0, frame = 0
 134              		@ frame_needed = 0, uses_anonymous_args = 0
 135              	.LVL3:
 136 0000 38B5     		push	{r3, r4, r5, lr}
 137              	.LCFI2:
 138              		.cfi_def_cfa_offset 16
 139              		.cfi_offset 14, -4
 140              		.cfi_offset 5, -8
 141              		.cfi_offset 4, -12
 142              		.cfi_offset 3, -16
 143              		.loc 1 66 0
 144 0002 0446     		mov	r4, r0
 145              	.LBB7:
 146              		.loc 1 68 0
 147 0004 2023     		movs	r3, #32
 148              	.LVL4:
 149              	@ 68 "../../RTCAN/src/rtcan.c" 1
 150 0006 83F31188 		msr     BASEPRI, r3
 151              	@ 0 "" 2
 152              	.LVL5:
 153              		.thumb
 154              	.LBE7:
 155 000a FFF7FEFF 		bl	dbg_check_lock_from_isr
 156              	.LVL6:
 157              		.loc 1 71 0
 158 000e 2378     		ldrb	r3, [r4, #0]	@ zero_extendqisi2
 159 0010 052B     		cmp	r3, #5
 160 0012 25D0     		beq	.L7
 161 0014 062B     		cmp	r3, #6
 162 0016 0DD0     		beq	.L8
 163 0018 042B     		cmp	r3, #4
 164 001a 02D0     		beq	.L16
 165              		.loc 1 97 0
 166 001c 0325     		movs	r5, #3
 167 001e 2570     		strb	r5, [r4, #0]
 168              	.L12:
 169 0020 FEE7     		b	.L12
ARM GAS  /tmp/ccLewEkE.s 			page 4


 170              	.L16:
 171              		.loc 1 90 0
 172 0022 6268     		ldr	r2, [r4, #4]
 173 0024 531C     		adds	r3, r2, #1
 174 0026 6360     		str	r3, [r4, #4]
 175              		.loc 1 91 0
 176 0028 FFF7FEFF 		bl	dbg_check_unlock_from_isr
 177              	.LBB8:
 178 002c 0023     		movs	r3, #0
 179              	.LVL7:
 180              	@ 91 "../../RTCAN/src/rtcan.c" 1
 181 002e 83F31188 		msr     BASEPRI, r3
 182              	@ 0 "" 2
 183              	.LVL8:
 184              		.thumb
 185              	.LBE8:
 186              		.loc 1 93 0
 187 0032 38BD     		pop	{r3, r4, r5, pc}
 188              	.LVL9:
 189              	.L8:
 190              		.loc 1 74 0
 191 0034 216E     		ldr	r1, [r4, #96]
 192 0036 6368     		ldr	r3, [r4, #4]
 193 0038 8868     		ldr	r0, [r1, #8]
 194 003a 421E     		subs	r2, r0, #1
 195 003c 9342     		cmp	r3, r2
 196 003e 1FD0     		beq	.L17
 197              	.L9:
 198              		.loc 1 102 0
 199 0040 581C     		adds	r0, r3, #1
 200 0042 6060     		str	r0, [r4, #4]
 201              		.loc 1 105 0
 202 0044 2046     		mov	r0, r4
 203 0046 FFF7FEFF 		bl	hrt_reserved_slot
 204 004a 0546     		mov	r5, r0
 205              		.loc 1 106 0
 206 004c 2046     		mov	r0, r4
 207              		.loc 1 105 0
 208 004e 7DB9     		cbnz	r5, .L18
 209              		.loc 1 112 0
 210 0050 FFF7FEFF 		bl	srt_transmit
 211              		.loc 1 114 0
 212 0054 FFF7FEFF 		bl	dbg_check_unlock_from_isr
 213              	.LBB9:
 214 0058 2B46     		mov	r3, r5
 215              	.LVL10:
 216              	@ 114 "../../RTCAN/src/rtcan.c" 1
 217 005a 83F31188 		msr     BASEPRI, r3
 218              	@ 0 "" 2
 219              	.LVL11:
 220              		.thumb
 221 005e 38BD     		pop	{r3, r4, r5, pc}
 222              	.LVL12:
 223              	.L7:
 224              	.LBE9:
 225              		.loc 1 84 0
 226 0060 206E     		ldr	r0, [r4, #96]
ARM GAS  /tmp/ccLewEkE.s 			page 5


 227 0062 6368     		ldr	r3, [r4, #4]
 228 0064 8568     		ldr	r5, [r0, #8]
 229 0066 AB42     		cmp	r3, r5
 230 0068 EAD9     		bls	.L9
 231              		.loc 1 85 0
 232 006a 0321     		movs	r1, #3
 233 006c 2170     		strb	r1, [r4, #0]
 234              	.L11:
 235 006e FEE7     		b	.L11
 236              	.L18:
 237              		.loc 1 106 0
 238 0070 FFF7FEFF 		bl	hrt_transmit
 239              		.loc 1 107 0
 240 0074 FFF7FEFF 		bl	dbg_check_unlock_from_isr
 241              	.LBB10:
 242 0078 0023     		movs	r3, #0
 243              	.LVL13:
 244              	@ 107 "../../RTCAN/src/rtcan.c" 1
 245 007a 83F31188 		msr     BASEPRI, r3
 246              	@ 0 "" 2
 247              	.LVL14:
 248              		.thumb
 249              	.LBE10:
 250              		.loc 1 108 0
 251 007e 38BD     		pop	{r3, r4, r5, pc}
 252              	.LVL15:
 253              	.L17:
 254              		.loc 1 75 0
 255 0080 A268     		ldr	r2, [r4, #8]
 256              		.loc 1 76 0
 257 0082 0025     		movs	r5, #0
 258              		.loc 1 75 0
 259 0084 531C     		adds	r3, r2, #1
 260 0086 A360     		str	r3, [r4, #8]
 261              		.loc 1 77 0
 262 0088 2046     		mov	r0, r4
 263              		.loc 1 76 0
 264 008a 6560     		str	r5, [r4, #4]
 265              		.loc 1 77 0
 266 008c FFF7FEFF 		bl	rtcan_sync_transmit
 267              		.loc 1 78 0
 268 0090 FFF7FEFF 		bl	dbg_check_unlock_from_isr
 269              	.LBB11:
 270 0094 2B46     		mov	r3, r5
 271              	.LVL16:
 272              	@ 78 "../../RTCAN/src/rtcan.c" 1
 273 0096 83F31188 		msr     BASEPRI, r3
 274              	@ 0 "" 2
 275              	.LVL17:
 276              		.thumb
 277              	.LBE11:
 278              		.loc 1 79 0
 279 009a 38BD     		pop	{r3, r4, r5, pc}
 280              		.cfi_endproc
 281              	.LFE66:
 282              		.size	rtcan_tim_isr_code, .-rtcan_tim_isr_code
 283 009c AFF30080 		.section	.text.rtcan_txok_isr_code,"ax",%progbits
ARM GAS  /tmp/ccLewEkE.s 			page 6


 284              		.align	2
 285              		.p2align 4,,15
 286              		.global	rtcan_txok_isr_code
 287              		.thumb
 288              		.thumb_func
 289              		.type	rtcan_txok_isr_code, %function
 290              	rtcan_txok_isr_code:
 291              	.LFB67:
 292              		.loc 1 122 0
 293              		.cfi_startproc
 294              		@ args = 0, pretend = 0, frame = 0
 295              		@ frame_needed = 0, uses_anonymous_args = 0
 296              	.LVL18:
 297 0000 38B5     		push	{r3, r4, r5, lr}
 298              	.LCFI3:
 299              		.cfi_def_cfa_offset 16
 300              		.cfi_offset 14, -4
 301              		.cfi_offset 5, -8
 302              		.cfi_offset 4, -12
 303              		.cfi_offset 3, -16
 304              		.loc 1 122 0
 305 0002 0546     		mov	r5, r0
 306 0004 0C46     		mov	r4, r1
 307              	.LBB12:
 308              		.loc 1 125 0
 309 0006 2023     		movs	r3, #32
 310              	.LVL19:
 311              	@ 125 "../../RTCAN/src/rtcan.c" 1
 312 0008 83F31188 		msr     BASEPRI, r3
 313              	@ 0 "" 2
 314              	.LVL20:
 315              		.thumb
 316              	.LBE12:
 317 000c FFF7FEFF 		bl	dbg_check_lock_from_isr
 318              	.LVL21:
 319              		.loc 1 128 0
 320 0010 231D     		adds	r3, r4, #4
 321 0012 55F82340 		ldr	r4, [r5, r3, lsl #2]
 322              	.LVL22:
 323              		.loc 1 129 0
 324 0016 0022     		movs	r2, #0
 325 0018 45F82320 		str	r2, [r5, r3, lsl #2]
 326              		.loc 1 132 0
 327 001c 44B3     		cbz	r4, .L24
 328              		.loc 1 138 0
 329 001e 637F     		ldrb	r3, [r4, #29]	@ zero_extendqisi2
 330              	.LVL23:
 331 0020 13F07F02 		ands	r2, r3, #127
 332 0024 16D0     		beq	.L22
 333              		.loc 1 140 0
 334 0026 D4F819C0 		ldr	ip, [r4, #25]	@ unaligned
 335              		.loc 1 139 0
 336 002a 7F32     		adds	r2, r2, #127
 337              		.loc 1 140 0
 338 002c 0CF10801 		add	r1, ip, #8
 339              		.loc 1 139 0
 340 0030 62F30603 		bfi	r3, r2, #0, #7
ARM GAS  /tmp/ccLewEkE.s 			page 7


 341              		.loc 1 141 0
 342 0034 05F10C00 		add	r0, r5, #12
 343              		.loc 1 140 0
 344 0038 C4F81910 		str	r1, [r4, #25]	@ unaligned
 345              		.loc 1 139 0
 346 003c 6377     		strb	r3, [r4, #29]
 347              		.loc 1 141 0
 348 003e 2146     		mov	r1, r4
 349 0040 FFF7FEFF 		bl	msgqueue_insert
 350              		.loc 1 142 0
 351 0044 0320     		movs	r0, #3
 352 0046 2071     		strb	r0, [r4, #4]
 353              	.L23:
 354              		.loc 1 154 0
 355 0048 FFF7FEFF 		bl	dbg_check_unlock_from_isr
 356              	.LBB13:
 357 004c 0023     		movs	r3, #0
 358              	.LVL24:
 359              	@ 154 "../../RTCAN/src/rtcan.c" 1
 360 004e 83F31188 		msr     BASEPRI, r3
 361              	@ 0 "" 2
 362              	.LVL25:
 363              		.thumb
 364 0052 38BD     		pop	{r3, r4, r5, pc}
 365              	.LVL26:
 366              	.L22:
 367              	.LBE13:
 368              		.loc 1 145 0
 369 0054 D4F80530 		ldr	r3, [r4, #5]	@ unaligned
 370              		.loc 1 144 0
 371 0058 0222     		movs	r2, #2
 372 005a 2271     		strb	r2, [r4, #4]
 373              		.loc 1 145 0
 374 005c 002B     		cmp	r3, #0
 375 005e F3D0     		beq	.L23
 376              		.loc 1 146 0
 377 0060 2046     		mov	r0, r4
 378 0062 9847     		blx	r3
 379              		.loc 1 154 0
 380 0064 FFF7FEFF 		bl	dbg_check_unlock_from_isr
 381              	.LBB14:
 382 0068 0023     		movs	r3, #0
 383              	@ 154 "../../RTCAN/src/rtcan.c" 1
 384 006a 83F31188 		msr     BASEPRI, r3
 385              	@ 0 "" 2
 386              	.LVL27:
 387              		.thumb
 388 006e 38BD     		pop	{r3, r4, r5, pc}
 389              	.LVL28:
 390              	.L24:
 391              	.LBE14:
 392              		.loc 1 133 0
 393 0070 FFF7FEFF 		bl	dbg_check_unlock_from_isr
 394              	.LBB15:
 395 0074 2346     		mov	r3, r4
 396              	.LVL29:
 397              	@ 133 "../../RTCAN/src/rtcan.c" 1
ARM GAS  /tmp/ccLewEkE.s 			page 8


 398 0076 83F31188 		msr     BASEPRI, r3
 399              	@ 0 "" 2
 400              	.LVL30:
 401              		.thumb
 402              	.LBE15:
 403              		.loc 1 135 0
 404 007a 38BD     		pop	{r3, r4, r5, pc}
 405              		.cfi_endproc
 406              	.LFE67:
 407              		.size	rtcan_txok_isr_code, .-rtcan_txok_isr_code
 408 007c AFF30080 		.section	.text.rtcan_alst_isr_code,"ax",%progbits
 409              		.align	2
 410              		.p2align 4,,15
 411              		.global	rtcan_alst_isr_code
 412              		.thumb
 413              		.thumb_func
 414              		.type	rtcan_alst_isr_code, %function
 415              	rtcan_alst_isr_code:
 416              	.LFB68:
 417              		.loc 1 162 0
 418              		.cfi_startproc
 419              		@ args = 0, pretend = 0, frame = 0
 420              		@ frame_needed = 0, uses_anonymous_args = 0
 421              	.LVL31:
 422 0000 70B5     		push	{r4, r5, r6, lr}
 423              	.LCFI4:
 424              		.cfi_def_cfa_offset 16
 425              		.cfi_offset 14, -4
 426              		.cfi_offset 6, -8
 427              		.cfi_offset 5, -12
 428              		.cfi_offset 4, -16
 429              	.LBB16:
 430              		.loc 1 165 0
 431 0002 2023     		movs	r3, #32
 432              	.LVL32:
 433              	.LBE16:
 434              		.loc 1 162 0
 435 0004 0446     		mov	r4, r0
 436 0006 0D46     		mov	r5, r1
 437              	.LBB17:
 438              		.loc 1 165 0
 439              	@ 165 "../../RTCAN/src/rtcan.c" 1
 440 0008 83F31188 		msr     BASEPRI, r3
 441              	@ 0 "" 2
 442              	.LVL33:
 443              		.thumb
 444              	.LBE17:
 445 000c FFF7FEFF 		bl	dbg_check_lock_from_isr
 446              	.LVL34:
 447              		.loc 1 168 0
 448 0010 2B1D     		adds	r3, r5, #4
 449 0012 54F82350 		ldr	r5, [r4, r3, lsl #2]
 450              	.LVL35:
 451              		.loc 1 169 0
 452 0016 0026     		movs	r6, #0
 453 0018 44F82360 		str	r6, [r4, r3, lsl #2]
 454              		.loc 1 171 0
ARM GAS  /tmp/ccLewEkE.s 			page 9


 455 001c 5DB1     		cbz	r5, .L25
 456              		.loc 1 175 0
 457 001e 04F10C00 		add	r0, r4, #12
 458 0022 2946     		mov	r1, r5
 459 0024 FFF7FEFF 		bl	msgqueue_insert
 460              	.LVL36:
 461              		.loc 1 176 0
 462 0028 0320     		movs	r0, #3
 463 002a 2871     		strb	r0, [r5, #4]
 464              		.loc 1 182 0
 465 002c FFF7FEFF 		bl	dbg_check_unlock_from_isr
 466              	.LBB18:
 467 0030 3346     		mov	r3, r6
 468              	.LVL37:
 469              	@ 182 "../../RTCAN/src/rtcan.c" 1
 470 0032 83F31188 		msr     BASEPRI, r3
 471              	@ 0 "" 2
 472              	.LVL38:
 473              		.thumb
 474              	.L25:
 475 0036 70BD     		pop	{r4, r5, r6, pc}
 476              	.LBE18:
 477              		.cfi_endproc
 478              	.LFE68:
 479              		.size	rtcan_alst_isr_code, .-rtcan_alst_isr_code
 480              		.global	__aeabi_ui2f
 481              		.global	__aeabi_fdiv
 482              		.global	__aeabi_f2d
 483              		.global	__aeabi_d2uiz
 484 0038 AFF30080 		.section	.text.rtcan_rx_isr_code,"ax",%progbits
 484      AFF30080 
 485              		.align	2
 486              		.p2align 4,,15
 487              		.global	rtcan_rx_isr_code
 488              		.thumb
 489              		.thumb_func
 490              		.type	rtcan_rx_isr_code, %function
 491              	rtcan_rx_isr_code:
 492              	.LFB69:
 493              		.loc 1 190 0
 494              		.cfi_startproc
 495              		@ args = 0, pretend = 0, frame = 16
 496              		@ frame_needed = 0, uses_anonymous_args = 0
 497              	.LVL39:
 498 0000 70B5     		push	{r4, r5, r6, lr}
 499              	.LCFI5:
 500              		.cfi_def_cfa_offset 16
 501              		.cfi_offset 14, -4
 502              		.cfi_offset 6, -8
 503              		.cfi_offset 5, -12
 504              		.cfi_offset 4, -16
 505              	.LBB19:
 506              		.loc 1 194 0
 507 0002 2023     		movs	r3, #32
 508              	.LVL40:
 509              	.LBE19:
 510              		.loc 1 190 0
ARM GAS  /tmp/ccLewEkE.s 			page 10


 511 0004 84B0     		sub	sp, sp, #16
 512              	.LCFI6:
 513              		.cfi_def_cfa_offset 32
 514              		.loc 1 190 0
 515 0006 0446     		mov	r4, r0
 516              	.LBB20:
 517              		.loc 1 194 0
 518              	@ 194 "../../RTCAN/src/rtcan.c" 1
 519 0008 83F31188 		msr     BASEPRI, r3
 520              	@ 0 "" 2
 521              	.LVL41:
 522              		.thumb
 523              	.LBE20:
 524 000c FFF7FEFF 		bl	dbg_check_lock_from_isr
 525              	.LVL42:
 526              		.loc 1 197 0
 527 0010 2046     		mov	r0, r4
 528 0012 6946     		mov	r1, sp
 529 0014 FFF7FEFF 		bl	rtcan_lld_can_receive
 530              		.loc 1 200 0
 531 0018 009B     		ldr	r3, [sp, #0]
 532 001a C3F31C03 		ubfx	r3, r3, #0, #29
 533 001e 13F4FF05 		ands	r5, r3, #8355840
 534 0022 18D1     		bne	.L28
 535              		.loc 1 201 0
 536 0024 2378     		ldrb	r3, [r4, #0]	@ zero_extendqisi2
 537 0026 042B     		cmp	r3, #4
 538 0028 2BD0     		beq	.L30
 539 002a 052B     		cmp	r3, #5
 540 002c 0CD1     		bne	.L43
 541              		.loc 1 203 0
 542 002e 2046     		mov	r0, r4
 543 0030 FFF7FEFF 		bl	rtcan_lld_tim_get_counter
 544              		.loc 1 204 0
 545 0034 A368     		ldr	r3, [r4, #8]
 546              		.loc 1 203 0
 547 0036 4F4A     		ldr	r2, .L49
 548              		.loc 1 204 0
 549 0038 591C     		adds	r1, r3, #1
 550              		.loc 1 203 0
 551 003a 1060     		str	r0, [r2, #0]
 552              		.loc 1 204 0
 553 003c A160     		str	r1, [r4, #8]
 554              		.loc 1 205 0
 555 003e 6560     		str	r5, [r4, #4]
 556              		.loc 1 207 0
 557 0040 2046     		mov	r0, r4
 558 0042 9E21     		movs	r1, #158
 559 0044 FFF7FEFF 		bl	rtcan_lld_tim_set_counter
 560              	.LVL43:
 561              	.L43:
 562              		.loc 1 276 0
 563 0048 FFF7FEFF 		bl	dbg_check_unlock_from_isr
 564              	.LBB21:
 565 004c 0023     		movs	r3, #0
 566              	.LVL44:
 567              	@ 276 "../../RTCAN/src/rtcan.c" 1
ARM GAS  /tmp/ccLewEkE.s 			page 11


 568 004e 83F31188 		msr     BASEPRI, r3
 569              	@ 0 "" 2
 570              	.LVL45:
 571              		.thumb
 572              	.LBE21:
 573              		.loc 1 277 0
 574 0052 04B0     		add	sp, sp, #16
 575 0054 70BD     		pop	{r4, r5, r6, pc}
 576              	.LVL46:
 577              	.L28:
 578              		.loc 1 241 0
 579 0056 9DF80500 		ldrb	r0, [sp, #5]	@ zero_extendqisi2
 580 005a 04EB8004 		add	r4, r4, r0, lsl #2
 581              	.LVL47:
 582 005e E469     		ldr	r4, [r4, #28]
 583              	.LVL48:
 584              		.loc 1 244 0
 585 0060 CCB1     		cbz	r4, .L45
 586              		.loc 1 251 0
 587 0062 2279     		ldrb	r2, [r4, #4]	@ zero_extendqisi2
 588 0064 022A     		cmp	r2, #2
 589 0066 25D0     		beq	.L46
 590              		.loc 1 257 0
 591 0068 042A     		cmp	r2, #4
 592 006a 2CD0     		beq	.L38
 593 006c 94F81DE0 		ldrb	lr, [r4, #29]	@ zero_extendqisi2
 594 0070 0EF07F03 		and	r3, lr, #127
 595              	.L39:
 596              		.loc 1 267 0
 597 0074 ABB1     		cbz	r3, .L42
 598              		.loc 1 268 0
 599 0076 617F     		ldrb	r1, [r4, #29]	@ zero_extendqisi2
 600 0078 7F33     		adds	r3, r3, #127
 601 007a 63F30601 		bfi	r1, r3, #0, #7
 602 007e 6177     		strb	r1, [r4, #29]
 603 0080 E2E7     		b	.L43
 604              	.LVL49:
 605              	.L30:
 606              		.loc 1 211 0
 607 0082 A368     		ldr	r3, [r4, #8]
 608 0084 002B     		cmp	r3, #0
 609 0086 70D0     		beq	.L47
 610              	.L32:
 611              		.loc 1 215 0
 612 0088 216E     		ldr	r1, [r4, #96]
 613 008a 4868     		ldr	r0, [r1, #4]
 614 008c 9842     		cmp	r0, r3
 615 008e 3AD0     		beq	.L48
 616              		.loc 1 228 0
 617 0090 5A1C     		adds	r2, r3, #1
 618 0092 A260     		str	r2, [r4, #8]
 619              		.loc 1 230 0
 620 0094 D8E7     		b	.L43
 621              	.LVL50:
 622              	.L45:
 623              		.loc 1 245 0
 624 0096 FFF7FEFF 		bl	dbg_check_unlock_from_isr
ARM GAS  /tmp/ccLewEkE.s 			page 12


 625              	.LBB22:
 626 009a 2346     		mov	r3, r4
 627              	.LVL51:
 628              	@ 245 "../../RTCAN/src/rtcan.c" 1
 629 009c 83F31188 		msr     BASEPRI, r3
 630              	@ 0 "" 2
 631              	.LVL52:
 632              		.thumb
 633              	.L36:
 634 00a0 FEE7     		b	.L36
 635              	.LVL53:
 636              	.L42:
 637              	.LBE22:
 638              		.loc 1 271 0
 639 00a2 D4F80520 		ldr	r2, [r4, #5]	@ unaligned
 640              		.loc 1 270 0
 641 00a6 0220     		movs	r0, #2
 642 00a8 2071     		strb	r0, [r4, #4]
 643              		.loc 1 271 0
 644 00aa 002A     		cmp	r2, #0
 645 00ac CCD0     		beq	.L43
 646              		.loc 1 272 0
 647 00ae 2046     		mov	r0, r4
 648 00b0 9047     		blx	r2
 649 00b2 C9E7     		b	.L43
 650              	.L46:
 651              		.loc 1 253 0
 652 00b4 D4F815C0 		ldr	ip, [r4, #21]	@ unaligned
 653              		.loc 1 254 0
 654 00b8 DA09     		lsrs	r2, r3, #7
 655              		.loc 1 252 0
 656 00ba 0421     		movs	r1, #4
 657 00bc 2171     		strb	r1, [r4, #4]
 658              		.loc 1 253 0
 659 00be C4F819C0 		str	ip, [r4, #25]	@ unaligned
 660              		.loc 1 254 0
 661 00c2 A4F81120 		strh	r2, [r4, #17]	@ unaligned
 662              	.L38:
 663              	.LVL54:
 664              	.LBB23:
 665              		.loc 1 260 0 discriminator 1
 666 00c6 9DF80400 		ldrb	r0, [sp, #4]	@ zero_extendqisi2
 667 00ca 0207     		lsls	r2, r0, #28
 668 00cc 14D0     		beq	.L40
 669              		.loc 1 260 0 is_stmt 0
 670 00ce D4F81920 		ldr	r2, [r4, #25]	@ unaligned
 671 00d2 0DF10701 		add	r1, sp, #7
 672 00d6 0023     		movs	r3, #0
 673              	.LVL55:
 674              	.L41:
 675              		.loc 1 261 0 is_stmt 1 discriminator 2
 676 00d8 11F8010F 		ldrb	r0, [r1, #1]!	@ zero_extendqisi2
 677              		.loc 1 260 0 discriminator 2
 678 00dc 0133     		adds	r3, r3, #1
 679              	.LVL56:
 680              		.loc 1 261 0 discriminator 2
 681 00de 02F8010B 		strb	r0, [r2], #1
ARM GAS  /tmp/ccLewEkE.s 			page 13


 682 00e2 C4F81920 		str	r2, [r4, #25]	@ unaligned
 683              		.loc 1 260 0 discriminator 2
 684 00e6 9DF804E0 		ldrb	lr, [sp, #4]	@ zero_extendqisi2
 685 00ea 0EF00F0C 		and	ip, lr, #15
 686 00ee 9C45     		cmp	ip, r3
 687 00f0 F2D8     		bhi	.L41
 688              		.loc 1 260 0 is_stmt 0
 689 00f2 009B     		ldr	r3, [sp, #0]
 690              	.LVL57:
 691 00f4 C3F31C03 		ubfx	r3, r3, #0, #29
 692              	.L40:
 693              		.loc 1 264 0 is_stmt 1
 694 00f8 627F     		ldrb	r2, [r4, #29]	@ zero_extendqisi2
 695 00fa 03F07F03 		and	r3, r3, #127
 696 00fe 63F30602 		bfi	r2, r3, #0, #7
 697 0102 6277     		strb	r2, [r4, #29]
 698 0104 B6E7     		b	.L39
 699              	.LVL58:
 700              	.L48:
 701              	.LBE23:
 702              	.LBB24:
 703              		.loc 1 216 0
 704 0106 2046     		mov	r0, r4
 705 0108 FFF7FEFF 		bl	rtcan_lld_tim_stop_timer
 706              		.loc 1 217 0
 707 010c 2046     		mov	r0, r4
 708 010e 6568     		ldr	r5, [r4, #4]
 709 0110 FFF7FEFF 		bl	rtcan_lld_tim_get_counter
 710 0114 C5EB0546 		rsb	r6, r5, r5, lsl #16
 711 0118 8019     		adds	r0, r0, r6
 712 011a FFF7FEFF 		bl	__aeabi_ui2f
 713 011e 256E     		ldr	r5, [r4, #96]
 714 0120 0646     		mov	r6, r0
 715 0122 A968     		ldr	r1, [r5, #8]
 716 0124 6868     		ldr	r0, [r5, #4]
 717 0126 00FB01F0 		mul	r0, r0, r1
 718 012a FFF7FEFF 		bl	__aeabi_ui2f
 719 012e 0146     		mov	r1, r0
 720 0130 3046     		mov	r0, r6
 721 0132 FFF7FEFF 		bl	__aeabi_fdiv
 722 0136 FFF7FEFF 		bl	__aeabi_f2d
 723 013a FFF7FEFF 		bl	round
 724              	.LVL59:
 725              		.loc 1 219 0
 726 013e 009B     		ldr	r3, [sp, #0]
 727              		.loc 1 218 0
 728 0140 0522     		movs	r2, #5
 729              		.loc 1 219 0
 730 0142 C3F3C713 		ubfx	r3, r3, #7, #8
 731              		.loc 1 218 0
 732 0146 2270     		strb	r2, [r4, #0]
 733              		.loc 1 220 0
 734 0148 0022     		movs	r2, #0
 735              		.loc 1 219 0
 736 014a A360     		str	r3, [r4, #8]
 737              		.loc 1 220 0
 738 014c 6260     		str	r2, [r4, #4]
ARM GAS  /tmp/ccLewEkE.s 			page 14


 739              		.loc 1 217 0
 740 014e FFF7FEFF 		bl	__aeabi_d2uiz
 741              	.LVL60:
 742              		.loc 1 221 0
 743 0152 81B2     		uxth	r1, r0
 744 0154 2046     		mov	r0, r4
 745 0156 FFF7FEFF 		bl	rtcan_lld_tim_set_interval
 746              		.loc 1 222 0
 747 015a 2046     		mov	r0, r4
 748 015c FFF7FEFF 		bl	rtcan_lld_tim_start_timer
 749              		.loc 1 224 0
 750 0160 2046     		mov	r0, r4
 751 0162 9E21     		movs	r1, #158
 752 0164 FFF7FEFF 		bl	rtcan_lld_tim_set_counter
 753              		.loc 1 225 0
 754 0168 6EE7     		b	.L43
 755              	.L47:
 756              	.LBE24:
 757              		.loc 1 212 0
 758 016a 2046     		mov	r0, r4
 759 016c FFF7FEFF 		bl	rtcan_lld_tim_start_timer
 760 0170 A368     		ldr	r3, [r4, #8]
 761 0172 89E7     		b	.L32
 762              	.L50:
 763              		.align	2
 764              	.L49:
 765 0174 00000000 		.word	.LANCHOR0
 766              		.cfi_endproc
 767              	.LFE69:
 768              		.size	rtcan_rx_isr_code, .-rtcan_rx_isr_code
 769 0178 AFF30080 		.section	.text.rtcanInit,"ax",%progbits
 769      AFF30080 
 770              		.align	2
 771              		.p2align 4,,15
 772              		.global	rtcanInit
 773              		.thumb
 774              		.thumb_func
 775              		.type	rtcanInit, %function
 776              	rtcanInit:
 777              	.LFB70:
 778              		.loc 1 284 0
 779              		.cfi_startproc
 780              		@ args = 0, pretend = 0, frame = 0
 781              		@ frame_needed = 0, uses_anonymous_args = 0
 782 0000 08B5     		push	{r3, lr}
 783              	.LCFI7:
 784              		.cfi_def_cfa_offset 8
 785              		.cfi_offset 14, -4
 786              		.cfi_offset 3, -8
 787              		.loc 1 286 0
 788 0002 FFF7FEFF 		bl	rtcan_lld_tim_init
 789              		.loc 1 288 0
 790 0006 BDE80840 		pop	{r3, lr}
 791              		.loc 1 287 0
 792 000a FFF7FEBF 		b	rtcan_lld_can_init
 793              		.cfi_endproc
 794              	.LFE70:
ARM GAS  /tmp/ccLewEkE.s 			page 15


 795              		.size	rtcanInit, .-rtcanInit
 796 000e 00BF     		.section	.text.rtcanReset,"ax",%progbits
 797              		.align	2
 798              		.p2align 4,,15
 799              		.global	rtcanReset
 800              		.thumb
 801              		.thumb_func
 802              		.type	rtcanReset, %function
 803              	rtcanReset:
 804              	.LFB71:
 805              		.loc 1 297 0
 806              		.cfi_startproc
 807              		@ args = 0, pretend = 0, frame = 0
 808              		@ frame_needed = 0, uses_anonymous_args = 0
 809              	.LVL61:
 810 0000 38B5     		push	{r3, r4, r5, lr}
 811              	.LCFI8:
 812              		.cfi_def_cfa_offset 16
 813              		.cfi_offset 14, -4
 814              		.cfi_offset 5, -8
 815              		.cfi_offset 4, -12
 816              		.cfi_offset 3, -16
 817              		.loc 1 297 0
 818 0002 0446     		mov	r4, r0
 819              		.loc 1 301 0
 820 0004 0025     		movs	r5, #0
 821              		.loc 1 300 0
 822 0006 0123     		movs	r3, #1
 823              		.loc 1 303 0
 824 0008 00F10C00 		add	r0, r0, #12
 825              	.LVL62:
 826              		.loc 1 300 0
 827 000c 2370     		strb	r3, [r4, #0]
 828              		.loc 1 301 0
 829 000e 2566     		str	r5, [r4, #96]
 830              		.loc 1 303 0
 831 0010 FFF7FEFF 		bl	msgqueue_init
 832              	.LVL63:
 833              		.loc 1 314 0
 834 0014 2046     		mov	r0, r4
 835              		.loc 1 306 0
 836 0016 2561     		str	r5, [r4, #16]
 837              	.LVL64:
 838 0018 6561     		str	r5, [r4, #20]
 839              	.LVL65:
 840 001a A561     		str	r5, [r4, #24]
 841              	.LVL66:
 842              		.loc 1 310 0
 843 001c E561     		str	r5, [r4, #28]
 844              	.LVL67:
 845 001e 2562     		str	r5, [r4, #32]
 846              	.LVL68:
 847 0020 6562     		str	r5, [r4, #36]
 848              	.LVL69:
 849 0022 A562     		str	r5, [r4, #40]
 850              	.LVL70:
 851 0024 E562     		str	r5, [r4, #44]
ARM GAS  /tmp/ccLewEkE.s 			page 16


 852              	.LVL71:
 853 0026 2563     		str	r5, [r4, #48]
 854              	.LVL72:
 855 0028 6563     		str	r5, [r4, #52]
 856              	.LVL73:
 857 002a A563     		str	r5, [r4, #56]
 858              	.LVL74:
 859 002c E563     		str	r5, [r4, #60]
 860              	.LVL75:
 861 002e 2564     		str	r5, [r4, #64]
 862              	.LVL76:
 863 0030 6564     		str	r5, [r4, #68]
 864              	.LVL77:
 865 0032 A564     		str	r5, [r4, #72]
 866              	.LVL78:
 867 0034 E564     		str	r5, [r4, #76]
 868              	.LVL79:
 869 0036 2565     		str	r5, [r4, #80]
 870              	.LVL80:
 871              		.loc 1 317 0
 872 0038 BDE83840 		pop	{r3, r4, r5, lr}
 873              		.loc 1 314 0
 874 003c FFF7FEBF 		b	hrt_reset
 875              		.cfi_endproc
 876              	.LFE71:
 877              		.size	rtcanReset, .-rtcanReset
 878              		.section	.text.rtcanStart,"ax",%progbits
 879              		.align	2
 880              		.p2align 4,,15
 881              		.global	rtcanStart
 882              		.thumb
 883              		.thumb_func
 884              		.type	rtcanStart, %function
 885              	rtcanStart:
 886              	.LFB72:
 887              		.loc 1 331 0
 888              		.cfi_startproc
 889              		@ args = 0, pretend = 0, frame = 0
 890              		@ frame_needed = 0, uses_anonymous_args = 0
 891              	.LVL81:
 892 0000 38B5     		push	{r3, r4, r5, lr}
 893              	.LCFI9:
 894              		.cfi_def_cfa_offset 16
 895              		.cfi_offset 14, -4
 896              		.cfi_offset 5, -8
 897              		.cfi_offset 4, -12
 898              		.cfi_offset 3, -16
 899              		.loc 1 331 0
 900 0002 0446     		mov	r4, r0
 901 0004 0D46     		mov	r5, r1
 902              		.loc 1 333 0
 903 0006 40B3     		cbz	r0, .L61
 904              	.LVL82:
 905              	.L54:
 906              	.LBB25:
 907              		.loc 1 336 0
 908 0008 2023     		movs	r3, #32
ARM GAS  /tmp/ccLewEkE.s 			page 17


 909              	.LVL83:
 910              	@ 336 "../../RTCAN/src/rtcan.c" 1
 911 000a 83F31188 		msr     BASEPRI, r3
 912              	@ 0 "" 2
 913              	.LVL84:
 914              		.thumb
 915              	.LBE25:
 916 000e FFF7FEFF 		bl	dbg_check_lock
 917              	.LVL85:
 918              		.loc 1 338 0
 919 0012 2378     		ldrb	r3, [r4, #0]	@ zero_extendqisi2
 920 0014 012B     		cmp	r3, #1
 921 0016 26D0     		beq	.L55
 922              		.loc 1 338 0 is_stmt 0 discriminator 1
 923 0018 1648     		ldr	r0, .L62
 924 001a FFF7FEFF 		bl	chDbgPanic
 925              		.loc 1 342 0 is_stmt 1 discriminator 1
 926 001e 2078     		ldrb	r0, [r4, #0]	@ zero_extendqisi2
 927 0020 0128     		cmp	r0, #1
 928 0022 20D0     		beq	.L55
 929              	.L56:
 930              		.loc 1 349 0
 931 0024 2046     		mov	r0, r4
 932 0026 FFF7FEFF 		bl	rtcan_lld_tim_start
 933              		.loc 1 352 0
 934 002a 0623     		movs	r3, #6
 935 002c 2370     		strb	r3, [r4, #0]
 936              		.loc 1 354 0
 937 002e A621     		movs	r1, #166
 938 0030 2046     		mov	r0, r4
 939 0032 FFF7FEFF 		bl	rtcan_lld_tim_set_interval
 940              		.loc 1 355 0
 941 0036 2046     		mov	r0, r4
 942 0038 FFF7FEFF 		bl	rtcan_lld_tim_start_timer
 943              		.loc 1 367 0
 944 003c FFF7FEFF 		bl	dbg_check_unlock
 945              	.LBB26:
 946 0040 0023     		movs	r3, #0
 947              	.LVL86:
 948              	@ 367 "../../RTCAN/src/rtcan.c" 1
 949 0042 83F31188 		msr     BASEPRI, r3
 950              	@ 0 "" 2
 951              	.LVL87:
 952              		.thumb
 953              	.LBE26:
 954              		.loc 1 369 0
 955 0046 2278     		ldrb	r2, [r4, #0]	@ zero_extendqisi2
 956 0048 042A     		cmp	r2, #4
 957 004a 05D1     		bne	.L53
 958              	.L59:
 959              		.loc 1 370 0
 960 004c 0A20     		movs	r0, #10
 961 004e FFF7FEFF 		bl	chThdSleep
 962              	.LVL88:
 963              		.loc 1 369 0
 964 0052 2078     		ldrb	r0, [r4, #0]	@ zero_extendqisi2
 965 0054 0428     		cmp	r0, #4
ARM GAS  /tmp/ccLewEkE.s 			page 18


 966 0056 F9D0     		beq	.L59
 967              	.LVL89:
 968              	.L53:
 969 0058 38BD     		pop	{r3, r4, r5, pc}
 970              	.LVL90:
 971              	.L61:
 972              		.loc 1 333 0 discriminator 1
 973 005a 0029     		cmp	r1, #0
 974 005c D4D1     		bne	.L54
 975              		.loc 1 333 0 is_stmt 0 discriminator 2
 976 005e 0648     		ldr	r0, .L62+4
 977 0060 FFF7FEFF 		bl	chDbgPanic
 978 0064 D0E7     		b	.L54
 979              	.L55:
 980              		.loc 1 343 0 is_stmt 1
 981 0066 2566     		str	r5, [r4, #96]
 982              		.loc 1 344 0
 983 0068 2046     		mov	r0, r4
 984 006a FFF7FEFF 		bl	rtcan_lld_can_start
 985              		.loc 1 345 0
 986 006e 0221     		movs	r1, #2
 987 0070 2170     		strb	r1, [r4, #0]
 988 0072 D7E7     		b	.L56
 989              	.L63:
 990              		.align	2
 991              	.L62:
 992 0074 10000000 		.word	.LC1
 993 0078 00000000 		.word	.LC0
 994              		.cfi_endproc
 995              	.LFE72:
 996              		.size	rtcanStart, .-rtcanStart
 997 007c AFF30080 		.section	.text.rtcanStop,"ax",%progbits
 998              		.align	2
 999              		.p2align 4,,15
 1000              		.global	rtcanStop
 1001              		.thumb
 1002              		.thumb_func
 1003              		.type	rtcanStop, %function
 1004              	rtcanStop:
 1005              	.LFB73:
 1006              		.loc 1 381 0
 1007              		.cfi_startproc
 1008              		@ args = 0, pretend = 0, frame = 0
 1009              		@ frame_needed = 0, uses_anonymous_args = 0
 1010              	.LVL91:
 1011 0000 10B5     		push	{r4, lr}
 1012              	.LCFI10:
 1013              		.cfi_def_cfa_offset 8
 1014              		.cfi_offset 14, -4
 1015              		.cfi_offset 4, -8
 1016              		.loc 1 381 0
 1017 0002 0446     		mov	r4, r0
 1018              		.loc 1 383 0
 1019 0004 B8B1     		cbz	r0, .L67
 1020              	.LVL92:
 1021              	.L65:
 1022              	.LBB27:
ARM GAS  /tmp/ccLewEkE.s 			page 19


 1023              		.loc 1 386 0
 1024 0006 2023     		movs	r3, #32
 1025              	.LVL93:
 1026              	@ 386 "../../RTCAN/src/rtcan.c" 1
 1027 0008 83F31188 		msr     BASEPRI, r3
 1028              	@ 0 "" 2
 1029              	.LVL94:
 1030              		.thumb
 1031              	.LBE27:
 1032 000c FFF7FEFF 		bl	dbg_check_lock
 1033              	.LVL95:
 1034              		.loc 1 388 0
 1035 0010 2178     		ldrb	r1, [r4, #0]	@ zero_extendqisi2
 1036 0012 481F     		subs	r0, r1, #5
 1037 0014 C3B2     		uxtb	r3, r0
 1038 0016 012B     		cmp	r3, #1
 1039 0018 02D9     		bls	.L66
 1040              		.loc 1 388 0 is_stmt 0 discriminator 1
 1041 001a 0948     		ldr	r0, .L68
 1042 001c FFF7FEFF 		bl	chDbgPanic
 1043              	.L66:
 1044              		.loc 1 391 0 is_stmt 1
 1045 0020 2046     		mov	r0, r4
 1046 0022 FFF7FEFF 		bl	rtcan_lld_can_stop
 1047              		.loc 1 392 0
 1048 0026 0122     		movs	r2, #1
 1049 0028 2270     		strb	r2, [r4, #0]
 1050              		.loc 1 393 0
 1051 002a FFF7FEFF 		bl	dbg_check_unlock
 1052              	.LBB28:
 1053 002e 0023     		movs	r3, #0
 1054              	.LVL96:
 1055              	@ 393 "../../RTCAN/src/rtcan.c" 1
 1056 0030 83F31188 		msr     BASEPRI, r3
 1057              	@ 0 "" 2
 1058              	.LVL97:
 1059              		.thumb
 1060              	.LBE28:
 1061              		.loc 1 394 0
 1062 0034 10BD     		pop	{r4, pc}
 1063              	.LVL98:
 1064              	.L67:
 1065              		.loc 1 383 0 discriminator 1
 1066 0036 0348     		ldr	r0, .L68+4
 1067 0038 FFF7FEFF 		bl	chDbgPanic
 1068 003c E3E7     		b	.L65
 1069              	.L69:
 1070 003e 00BF     		.align	2
 1071              	.L68:
 1072 0040 34000000 		.word	.LC3
 1073 0044 24000000 		.word	.LC2
 1074              		.cfi_endproc
 1075              	.LFE73:
 1076              		.size	rtcanStop, .-rtcanStop
 1077 0048 AFF30080 		.section	.text.rtcanTransmit,"ax",%progbits
 1077      AFF30080 
 1078              		.align	2
ARM GAS  /tmp/ccLewEkE.s 			page 20


 1079              		.p2align 4,,15
 1080              		.global	rtcanTransmit
 1081              		.thumb
 1082              		.thumb_func
 1083              		.type	rtcanTransmit, %function
 1084              	rtcanTransmit:
 1085              	.LFB74:
 1086              		.loc 1 401 0
 1087              		.cfi_startproc
 1088              		@ args = 0, pretend = 0, frame = 0
 1089              		@ frame_needed = 0, uses_anonymous_args = 0
 1090              	.LVL99:
 1091 0000 70B5     		push	{r4, r5, r6, lr}
 1092              	.LCFI11:
 1093              		.cfi_def_cfa_offset 16
 1094              		.cfi_offset 14, -4
 1095              		.cfi_offset 6, -8
 1096              		.cfi_offset 5, -12
 1097              		.cfi_offset 4, -16
 1098              	.LBB33:
 1099              		.loc 1 403 0
 1100 0002 2023     		movs	r3, #32
 1101              	.LVL100:
 1102              	.LBE33:
 1103              		.loc 1 401 0
 1104 0004 0546     		mov	r5, r0
 1105 0006 0C46     		mov	r4, r1
 1106 0008 1646     		mov	r6, r2
 1107              	.LBB34:
 1108              		.loc 1 403 0
 1109              	@ 403 "../../RTCAN/src/rtcan.c" 1
 1110 000a 83F31188 		msr     BASEPRI, r3
 1111              	@ 0 "" 2
 1112              	.LVL101:
 1113              		.thumb
 1114              	.LBE34:
 1115 000e FFF7FEFF 		bl	dbg_check_lock
 1116              	.LVL102:
 1117              	.LBB35:
 1118              	.LBB36:
 1119              		.loc 1 416 0
 1120 0012 0120     		movs	r0, #1
 1121              		.loc 1 419 0
 1122 0014 124B     		ldr	r3, .L74
 1123              		.loc 1 416 0
 1124 0016 2071     		strb	r0, [r4, #4]
 1125              		.loc 1 419 0
 1126 0018 DA68     		ldr	r2, [r3, #12]
 1127              		.loc 1 422 0
 1128 001a B4F81330 		ldrh	r3, [r4, #19]	@ unaligned
 1129              		.loc 1 419 0
 1130 001e B618     		adds	r6, r6, r2
 1131              	.LVL103:
 1132              		.loc 1 422 0
 1133 0020 082B     		cmp	r3, #8
 1134              		.loc 1 419 0
 1135 0022 C4F80D60 		str	r6, [r4, #13]	@ unaligned
ARM GAS  /tmp/ccLewEkE.s 			page 21


 1136              		.loc 1 422 0
 1137 0026 14D8     		bhi	.L73
 1138              		.loc 1 425 0
 1139 0028 637F     		ldrb	r3, [r4, #29]	@ zero_extendqisi2
 1140 002a 6FF30603 		bfc	r3, #0, #7
 1141 002e 6377     		strb	r3, [r4, #29]
 1142              	.L72:
 1143              		.loc 1 429 0
 1144 0030 D4F81520 		ldr	r2, [r4, #21]	@ unaligned
 1145              		.loc 1 431 0
 1146 0034 05F10C00 		add	r0, r5, #12
 1147 0038 2146     		mov	r1, r4
 1148              		.loc 1 429 0
 1149 003a C4F81920 		str	r2, [r4, #25]	@ unaligned
 1150              		.loc 1 431 0
 1151 003e FFF7FEFF 		bl	msgqueue_insert
 1152              		.loc 1 432 0
 1153 0042 0320     		movs	r0, #3
 1154 0044 2071     		strb	r0, [r4, #4]
 1155              	.LBE36:
 1156              	.LBE35:
 1157              		.loc 1 405 0
 1158 0046 FFF7FEFF 		bl	dbg_check_unlock
 1159              	.LBB38:
 1160 004a 0023     		movs	r3, #0
 1161              	.LVL104:
 1162              	@ 405 "../../RTCAN/src/rtcan.c" 1
 1163 004c 83F31188 		msr     BASEPRI, r3
 1164              	@ 0 "" 2
 1165              	.LVL105:
 1166              		.thumb
 1167              	.LBE38:
 1168              		.loc 1 406 0
 1169 0050 70BD     		pop	{r4, r5, r6, pc}
 1170              	.LVL106:
 1171              	.L73:
 1172              	.LBB39:
 1173              	.LBB37:
 1174              		.loc 1 423 0
 1175 0052 617F     		ldrb	r1, [r4, #29]	@ zero_extendqisi2
 1176 0054 DA08     		lsrs	r2, r3, #3
 1177 0056 62F30601 		bfi	r1, r2, #0, #7
 1178 005a 6177     		strb	r1, [r4, #29]
 1179 005c E8E7     		b	.L72
 1180              	.L75:
 1181 005e 00BF     		.align	2
 1182              	.L74:
 1183 0060 00000000 		.word	vtlist
 1184              	.LBE37:
 1185              	.LBE39:
 1186              		.cfi_endproc
 1187              	.LFE74:
 1188              		.size	rtcanTransmit, .-rtcanTransmit
 1189 0064 AFF30080 		.section	.text.rtcanTransmitI,"ax",%progbits
 1189      AFF30080 
 1189      AFF30080 
 1190              		.align	2
ARM GAS  /tmp/ccLewEkE.s 			page 22


 1191              		.p2align 4,,15
 1192              		.global	rtcanTransmitI
 1193              		.thumb
 1194              		.thumb_func
 1195              		.type	rtcanTransmitI, %function
 1196              	rtcanTransmitI:
 1197              	.LFB75:
 1198              		.loc 1 413 0
 1199              		.cfi_startproc
 1200              		@ args = 0, pretend = 0, frame = 0
 1201              		@ frame_needed = 0, uses_anonymous_args = 0
 1202              	.LVL107:
 1203 0000 10B5     		push	{r4, lr}
 1204              	.LCFI12:
 1205              		.cfi_def_cfa_offset 8
 1206              		.cfi_offset 14, -4
 1207              		.cfi_offset 4, -8
 1208              		.loc 1 416 0
 1209 0002 0123     		movs	r3, #1
 1210 0004 0B71     		strb	r3, [r1, #4]
 1211              		.loc 1 413 0
 1212 0006 0C46     		mov	r4, r1
 1213              		.loc 1 419 0
 1214 0008 0E49     		ldr	r1, .L80
 1215              	.LVL108:
 1216 000a CB68     		ldr	r3, [r1, #12]
 1217              		.loc 1 422 0
 1218 000c B4F81310 		ldrh	r1, [r4, #19]	@ unaligned
 1219              		.loc 1 419 0
 1220 0010 D318     		adds	r3, r2, r3
 1221              		.loc 1 422 0
 1222 0012 0829     		cmp	r1, #8
 1223              		.loc 1 419 0
 1224 0014 C4F80D30 		str	r3, [r4, #13]	@ unaligned
 1225              		.loc 1 423 0
 1226 0018 637F     		ldrb	r3, [r4, #29]	@ zero_extendqisi2
 1227              		.loc 1 422 0
 1228 001a 0DD8     		bhi	.L79
 1229              		.loc 1 425 0
 1230 001c 6FF30603 		bfc	r3, #0, #7
 1231 0020 6377     		strb	r3, [r4, #29]
 1232              	.LVL109:
 1233              	.L78:
 1234              		.loc 1 429 0
 1235 0022 D4F81510 		ldr	r1, [r4, #21]	@ unaligned
 1236              		.loc 1 431 0
 1237 0026 0C30     		adds	r0, r0, #12
 1238              	.LVL110:
 1239              		.loc 1 429 0
 1240 0028 C4F81910 		str	r1, [r4, #25]	@ unaligned
 1241              		.loc 1 431 0
 1242 002c 2146     		mov	r1, r4
 1243 002e FFF7FEFF 		bl	msgqueue_insert
 1244              	.LVL111:
 1245              		.loc 1 432 0
 1246 0032 0320     		movs	r0, #3
 1247 0034 2071     		strb	r0, [r4, #4]
ARM GAS  /tmp/ccLewEkE.s 			page 23


 1248              		.loc 1 436 0
 1249 0036 10BD     		pop	{r4, pc}
 1250              	.LVL112:
 1251              	.L79:
 1252              		.loc 1 423 0
 1253 0038 CA08     		lsrs	r2, r1, #3
 1254              	.LVL113:
 1255 003a 62F30603 		bfi	r3, r2, #0, #7
 1256 003e 6377     		strb	r3, [r4, #29]
 1257 0040 EFE7     		b	.L78
 1258              	.L81:
 1259 0042 00BF     		.align	2
 1260              	.L80:
 1261 0044 00000000 		.word	vtlist
 1262              		.cfi_endproc
 1263              	.LFE75:
 1264              		.size	rtcanTransmitI, .-rtcanTransmitI
 1265 0048 AFF30080 		.section	.text.rtcanReceive,"ax",%progbits
 1265      AFF30080 
 1266              		.align	2
 1267              		.p2align 4,,15
 1268              		.global	rtcanReceive
 1269              		.thumb
 1270              		.thumb_func
 1271              		.type	rtcanReceive, %function
 1272              	rtcanReceive:
 1273              	.LFB76:
 1274              		.loc 1 443 0
 1275              		.cfi_startproc
 1276              		@ args = 0, pretend = 0, frame = 8
 1277              		@ frame_needed = 0, uses_anonymous_args = 0
 1278              	.LVL114:
 1279 0000 30B5     		push	{r4, r5, lr}
 1280              	.LCFI13:
 1281              		.cfi_def_cfa_offset 12
 1282              		.cfi_offset 14, -4
 1283              		.cfi_offset 5, -8
 1284              		.cfi_offset 4, -12
 1285              	.LBB40:
 1286              		.loc 1 446 0
 1287 0002 2023     		movs	r3, #32
 1288              	.LVL115:
 1289              	.LBE40:
 1290              		.loc 1 443 0
 1291 0004 83B0     		sub	sp, sp, #12
 1292              	.LCFI14:
 1293              		.cfi_def_cfa_offset 24
 1294              		.loc 1 443 0
 1295 0006 0546     		mov	r5, r0
 1296 0008 0C46     		mov	r4, r1
 1297              	.LBB41:
 1298              		.loc 1 446 0
 1299              	@ 446 "../../RTCAN/src/rtcan.c" 1
 1300 000a 83F31188 		msr     BASEPRI, r3
 1301              	@ 0 "" 2
 1302              	.LVL116:
 1303              		.thumb
ARM GAS  /tmp/ccLewEkE.s 			page 24


 1304              	.LBE41:
 1305 000e FFF7FEFF 		bl	dbg_check_lock
 1306              	.LVL117:
 1307              		.loc 1 450 0
 1308 0012 B4F81110 		ldrh	r1, [r4, #17]	@ unaligned
 1309 0016 4FF68072 		movw	r2, #65408
 1310 001a C901     		lsls	r1, r1, #7
 1311 001c C0F27F02 		movt	r2, 127
 1312 0020 0DF10703 		add	r3, sp, #7
 1313 0024 2846     		mov	r0, r5
 1314 0026 FFF7FEFF 		bl	rtcan_lld_can_addfilter
 1315              	.LVL118:
 1316              		.loc 1 452 0
 1317 002a 9DF80730 		ldrb	r3, [sp, #7]	@ zero_extendqisi2
 1318              	.LVL119:
 1319 002e 05EB8305 		add	r5, r5, r3, lsl #2
 1320              	.LVL120:
 1321 0032 EC61     		str	r4, [r5, #28]
 1322              		.loc 1 454 0
 1323 0034 FFF7FEFF 		bl	dbg_check_unlock
 1324              	.LVL121:
 1325              	.LBB42:
 1326 0038 0023     		movs	r3, #0
 1327              	.LVL122:
 1328              	@ 454 "../../RTCAN/src/rtcan.c" 1
 1329 003a 83F31188 		msr     BASEPRI, r3
 1330              	@ 0 "" 2
 1331              	.LVL123:
 1332              		.thumb
 1333              	.LBE42:
 1334              		.loc 1 455 0
 1335 003e 03B0     		add	sp, sp, #12
 1336 0040 30BD     		pop	{r4, r5, pc}
 1337              		.cfi_endproc
 1338              	.LFE76:
 1339              		.size	rtcanReceive, .-rtcanReceive
 1340 0042 00BFAFF3 		.section	.text.rtcanGetTime,"ax",%progbits
 1340      0080AFF3 
 1340      0080AFF3 
 1340      0080
 1341              		.align	2
 1342              		.p2align 4,,15
 1343              		.global	rtcanGetTime
 1344              		.thumb
 1345              		.thumb_func
 1346              		.type	rtcanGetTime, %function
 1347              	rtcanGetTime:
 1348              	.LFB77:
 1349              		.loc 1 462 0
 1350              		.cfi_startproc
 1351              		@ args = 0, pretend = 0, frame = 0
 1352              		@ frame_needed = 0, uses_anonymous_args = 0
 1353              	.LVL124:
 1354 0000 2DE9F041 		push	{r4, r5, r6, r7, r8, lr}
 1355              	.LCFI15:
 1356              		.cfi_def_cfa_offset 24
 1357              		.cfi_offset 14, -4
ARM GAS  /tmp/ccLewEkE.s 			page 25


 1358              		.cfi_offset 8, -8
 1359              		.cfi_offset 7, -12
 1360              		.cfi_offset 6, -16
 1361              		.cfi_offset 5, -20
 1362              		.cfi_offset 4, -24
 1363              		.loc 1 462 0
 1364 0004 0446     		mov	r4, r0
 1365 0006 8846     		mov	r8, r1
 1366              		.loc 1 474 0
 1367 0008 4568     		ldr	r5, [r0, #4]
 1368 000a 00E0     		b	.L84
 1369              	.LVL125:
 1370              	.L85:
 1371 000c 1D46     		mov	r5, r3
 1372              	.LVL126:
 1373              	.L84:
 1374              		.loc 1 472 0 discriminator 1
 1375 000e 2046     		mov	r0, r4
 1376              		.loc 1 470 0 discriminator 1
 1377 0010 A768     		ldr	r7, [r4, #8]
 1378              	.LVL127:
 1379              		.loc 1 472 0 discriminator 1
 1380 0012 FFF7FEFF 		bl	rtcan_lld_tim_get_counter
 1381 0016 0646     		mov	r6, r0
 1382              		.loc 1 473 0 discriminator 1
 1383 0018 2046     		mov	r0, r4
 1384 001a FFF7FEFF 		bl	rtcan_lld_tim_get_interval
 1385              		.loc 1 474 0 discriminator 1
 1386 001e 6368     		ldr	r3, [r4, #4]
 1387 0020 AB42     		cmp	r3, r5
 1388 0022 F3D1     		bne	.L85
 1389              		.loc 1 476 0
 1390 0024 236E     		ldr	r3, [r4, #96]
 1391 0026 44F2402C 		movw	ip, #16960
 1392 002a 9868     		ldr	r0, [r3, #8]
 1393 002c 5968     		ldr	r1, [r3, #4]
 1394 002e 00FB0755 		mla	r5, r0, r7, r5
 1395              	.LVL128:
 1396 0032 C0F20F0C 		movt	ip, 15
 1397 0036 BCFBF1F2 		udiv	r2, ip, r1
 1398 003a B2FBF0F3 		udiv	r3, r2, r0
 1399 003e 03FB0560 		mla	r0, r3, r5, r6
 1400              	.LVL129:
 1401              		.loc 1 478 0
 1402 0042 4DF68366 		movw	r6, #56963
 1403 0046 C4F21B36 		movt	r6, 17179
 1404 004a 86FB0012 		smull	r1, r2, r6, r0
 1405 004e C117     		asrs	r1, r0, #31
 1406 0050 C1EBA242 		rsb	r2, r1, r2, asr #18
 1407              		.loc 1 479 0
 1408 0054 0CFB1206 		mls	r6, ip, r2, r0
 1409 0058 4FF47A73 		mov	r3, #1000
 1410 005c 03FB06F6 		mul	r6, r3, r6
 1411 0060 88E84400 		stmia	r8, {r2, r6}
 1412              		.loc 1 480 0
 1413 0064 BDE8F081 		pop	{r4, r5, r6, r7, r8, pc}
 1414              		.cfi_endproc
ARM GAS  /tmp/ccLewEkE.s 			page 26


 1415              	.LFE77:
 1416              		.size	rtcanGetTime, .-rtcanGetTime
 1417              		.global	last_sync_tim
 1418 0068 AFF30080 		.section	.rodata.str1.4,"aMS",%progbits,1
 1418      AFF30080 
 1419              		.align	2
 1420              	.LC0:
 1421 0000 22727463 		.ascii	"\"rtcanStart\"()\000"
 1421      616E5374 
 1421      61727422 
 1421      282900
 1422 000f 00       		.space	1
 1423              	.LC1:
 1424 0010 72746361 		.ascii	"rtcanStart(), #1\000"
 1424      6E537461 
 1424      72742829 
 1424      2C202331 
 1424      00
 1425 0021 000000   		.space	3
 1426              	.LC2:
 1427 0024 22727463 		.ascii	"\"rtcanStop\"()\000"
 1427      616E5374 
 1427      6F702228 
 1427      2900
 1428 0032 0000     		.space	2
 1429              	.LC3:
 1430 0034 72746361 		.ascii	"rtcanStop(), #1\000"
 1430      6E53746F 
 1430      7028292C 
 1430      20233100 
 1431              		.section	.bss.last_sync_tim,"aw",%nobits
 1432              		.align	2
 1433              		.set	.LANCHOR0,. + 0
 1434              		.type	last_sync_tim, %object
 1435              		.size	last_sync_tim, 4
 1436              	last_sync_tim:
 1437 0000 00000000 		.space	4
 1438              		.text
 1439              	.Letext0:
 1440              		.file 2 "/home/tino/ChibiStudio/tools/GNU Tools ARM Embedded/4.6 2012q2/bin/../lib/gcc/arm-none-ea
 1441              		.file 3 "../../ChibiOS/os/ports/GCC/ARMCMx/chtypes.h"
 1442              		.file 4 "../../ChibiOS/os/kernel/include/chvt.h"
 1443              		.file 5 "../../ChibiOS/os/hal/platforms/STM32F1xx/stm32f10x.h"
 1444              		.file 6 "../../RTCAN/include/rtcan.h"
 1445              		.file 7 "../../RTCAN/include/msgqueue.h"
 1446              		.file 8 "../../RTCAN/include/hrt.h"
 1447              		.file 9 "../../ChibiOS/os/ports/common/ARMCMx/CMSIS/include/core_cm3.h"