ARM GAS  /tmp/ccQucLyg.s 			page 1


   1              		.syntax unified
   2              		.cpu cortex-m3
   3              		.fpu softvfp
   4              		.eabi_attribute 20, 1
   5              		.eabi_attribute 21, 1
   6              		.eabi_attribute 23, 3
   7              		.eabi_attribute 24, 1
   8              		.eabi_attribute 25, 1
   9              		.eabi_attribute 26, 1
  10              		.eabi_attribute 30, 2
  11              		.eabi_attribute 34, 1
  12              		.eabi_attribute 18, 4
  13              		.thumb
  14              		.file	"rtcan_lld_tim.c"
  15              		.text
  16              	.Ltext0:
  17              		.cfi_sections	.debug_frame
  18              		.section	.text.VectorB4,"ax",%progbits
  19              		.align	2
  20              		.p2align 4,,15
  21              		.global	VectorB4
  22              		.thumb
  23              		.thumb_func
  24              		.type	VectorB4, %function
  25              	VectorB4:
  26              	.LFB63:
  27              		.file 1 "../../RTCAN/platforms/STM32/rtcan_lld_tim.c"
  28              		.loc 1 40 0
  29              		.cfi_startproc
  30              		@ args = 0, pretend = 0, frame = 0
  31              		@ frame_needed = 0, uses_anonymous_args = 0
  32 0000 08B5     		push	{r3, lr}
  33              	.LCFI0:
  34              		.cfi_def_cfa_offset 8
  35              		.cfi_offset 14, -4
  36              		.cfi_offset 3, -8
  37              		.loc 1 42 0
  38 0002 FFF7FEFF 		bl	dbg_check_enter_isr
  39              		.loc 1 44 0
  40 0006 4FF48063 		mov	r3, #1024
  41 000a C4F20003 		movt	r3, 16384
  42 000e 0022     		movs	r2, #0
  43              		.loc 1 45 0
  44 0010 40F20000 		movw	r0, #:lower16:RTCAND1
  45 0014 C0F20000 		movt	r0, #:upper16:RTCAND1
  46              		.loc 1 44 0
  47 0018 1A82     		strh	r2, [r3, #16]	@ movhi
  48              		.loc 1 45 0
  49 001a FFF7FEFF 		bl	rtcan_tim_isr_code
  50              		.loc 1 47 0
  51 001e FFF7FEFF 		bl	dbg_check_leave_isr
  52              		.loc 1 48 0
  53 0022 BDE80840 		pop	{r3, lr}
  54              		.loc 1 47 0
  55 0026 FFF7FEBF 		b	_port_irq_epilogue
  56              		.cfi_endproc
  57              	.LFE63:
ARM GAS  /tmp/ccQucLyg.s 			page 2


  58              		.size	VectorB4, .-VectorB4
  59 002a 00BFAFF3 		.section	.text.rtcan_lld_tim_init,"ax",%progbits
  59      0080
  60              		.align	2
  61              		.p2align 4,,15
  62              		.global	rtcan_lld_tim_init
  63              		.thumb
  64              		.thumb_func
  65              		.type	rtcan_lld_tim_init, %function
  66              	rtcan_lld_tim_init:
  67              	.LFB64:
  68              		.loc 1 59 0
  69              		.cfi_startproc
  70              		@ args = 0, pretend = 0, frame = 0
  71              		@ frame_needed = 0, uses_anonymous_args = 0
  72              		@ link register save eliminated.
  73              		.loc 1 62 0
  74 0000 40F20003 		movw	r3, #:lower16:RTCAND1
  75 0004 4FF48062 		mov	r2, #1024
  76 0008 C0F20003 		movt	r3, #:upper16:RTCAND1
  77 000c C4F20002 		movt	r2, 16384
  78 0010 5A66     		str	r2, [r3, #100]
  79              		.loc 1 68 0
  80 0012 7047     		bx	lr
  81              		.cfi_endproc
  82              	.LFE64:
  83              		.size	rtcan_lld_tim_init, .-rtcan_lld_tim_init
  84 0014 AFF30080 		.section	.text.rtcan_lld_tim_start,"ax",%progbits
  84      AFF30080 
  84      AFF30080 
  85              		.align	2
  86              		.p2align 4,,15
  87              		.global	rtcan_lld_tim_start
  88              		.thumb
  89              		.thumb_func
  90              		.type	rtcan_lld_tim_start, %function
  91              	rtcan_lld_tim_start:
  92              	.LFB65:
  93              		.loc 1 77 0
  94              		.cfi_startproc
  95              		@ args = 0, pretend = 0, frame = 0
  96              		@ frame_needed = 0, uses_anonymous_args = 0
  97              	.LVL0:
  98 0000 70B5     		push	{r4, r5, r6, lr}
  99              	.LCFI1:
 100              		.cfi_def_cfa_offset 16
 101              		.cfi_offset 14, -4
 102              		.cfi_offset 6, -8
 103              		.cfi_offset 5, -12
 104              		.cfi_offset 4, -16
 105              		.loc 1 85 0
 106 0002 4FF4805E 		mov	lr, #4096
 107 0006 C4F2020E 		movt	lr, 16386
 108 000a DEF81C40 		ldr	r4, [lr, #28]
 109              		.loc 1 77 0
 110 000e 0646     		mov	r6, r0
 111              		.loc 1 85 0
ARM GAS  /tmp/ccQucLyg.s 			page 3


 112 0010 44F00205 		orr	r5, r4, #2
 113              		.loc 1 78 0
 114 0014 446E     		ldr	r4, [r0, #100]
 115              	.LVL1:
 116              		.loc 1 85 0
 117 0016 CEF81C50 		str	r5, [lr, #28]
 118              		.loc 1 86 0
 119 001a DEF81010 		ldr	r1, [lr, #16]
 120 001e 0025     		movs	r5, #0
 121 0020 41F00200 		orr	r0, r1, #2
 122              	.LVL2:
 123 0024 CEF81000 		str	r0, [lr, #16]
 124              		.loc 1 87 0
 125 0028 3021     		movs	r1, #48
 126 002a 1D20     		movs	r0, #29
 127              		.loc 1 86 0
 128 002c CEF81050 		str	r5, [lr, #16]
 129              		.loc 1 87 0
 130 0030 FFF7FEFF 		bl	nvicEnableVector
 131              	.LVL3:
 132              		.loc 1 100 0
 133 0034 336E     		ldr	r3, [r6, #96]
 134 0036 4FF4224C 		mov	ip, #41472
 135 003a 1A68     		ldr	r2, [r3, #0]
 136 003c C0F24A4C 		movt	ip, 1098
 137 0040 BCFBF2F1 		udiv	r1, ip, r2
 138 0044 481E     		subs	r0, r1, #1
 139 0046 83B2     		uxth	r3, r0
 140              	.LVL4:
 141              		.loc 1 103 0
 142 0048 2580     		strh	r5, [r4, #0]	@ movhi
 143              		.loc 1 104 0
 144 004a 2385     		strh	r3, [r4, #40]	@ movhi
 145              		.loc 1 105 0
 146 004c A581     		strh	r5, [r4, #12]	@ movhi
 147              		.loc 1 106 0
 148 004e 70BD     		pop	{r4, r5, r6, pc}
 149              		.cfi_endproc
 150              	.LFE65:
 151              		.size	rtcan_lld_tim_start, .-rtcan_lld_tim_start
 152              		.section	.text.rtcan_lld_tim_stop,"ax",%progbits
 153              		.align	2
 154              		.p2align 4,,15
 155              		.global	rtcan_lld_tim_stop
 156              		.thumb
 157              		.thumb_func
 158              		.type	rtcan_lld_tim_stop, %function
 159              	rtcan_lld_tim_stop:
 160              	.LFB66:
 161              		.loc 1 115 0
 162              		.cfi_startproc
 163              		@ args = 0, pretend = 0, frame = 0
 164              		@ frame_needed = 0, uses_anonymous_args = 0
 165              	.LVL5:
 166              		.loc 1 116 0
 167 0000 426E     		ldr	r2, [r0, #100]
 168              	.LVL6:
ARM GAS  /tmp/ccQucLyg.s 			page 4


 169              		.loc 1 118 0
 170 0002 0021     		movs	r1, #0
 171              		.loc 1 115 0
 172 0004 08B5     		push	{r3, lr}
 173              	.LCFI2:
 174              		.cfi_def_cfa_offset 8
 175              		.cfi_offset 14, -4
 176              		.cfi_offset 3, -8
 177              		.loc 1 125 0
 178 0006 1D20     		movs	r0, #29
 179              	.LVL7:
 180              		.loc 1 118 0
 181 0008 1180     		strh	r1, [r2, #0]	@ movhi
 182              		.loc 1 119 0
 183 000a 9181     		strh	r1, [r2, #12]	@ movhi
 184              		.loc 1 120 0
 185 000c 1182     		strh	r1, [r2, #16]	@ movhi
 186              		.loc 1 125 0
 187 000e FFF7FEFF 		bl	nvicDisableVector
 188              	.LVL8:
 189              		.loc 1 126 0
 190 0012 4FF48053 		mov	r3, #4096
 191 0016 C4F20203 		movt	r3, 16386
 192 001a D869     		ldr	r0, [r3, #28]
 193 001c 20F00202 		bic	r2, r0, #2
 194 0020 DA61     		str	r2, [r3, #28]
 195              		.loc 1 133 0
 196 0022 08BD     		pop	{r3, pc}
 197              		.cfi_endproc
 198              	.LFE66:
 199              		.size	rtcan_lld_tim_stop, .-rtcan_lld_tim_stop
 200 0024 AFF30080 		.section	.text.rtcan_lld_tim_start_timer,"ax",%progbits
 200      AFF30080 
 200      AFF30080 
 201              		.align	2
 202              		.p2align 4,,15
 203              		.global	rtcan_lld_tim_start_timer
 204              		.thumb
 205              		.thumb_func
 206              		.type	rtcan_lld_tim_start_timer, %function
 207              	rtcan_lld_tim_start_timer:
 208              	.LFB67:
 209              		.loc 1 143 0
 210              		.cfi_startproc
 211              		@ args = 0, pretend = 0, frame = 0
 212              		@ frame_needed = 0, uses_anonymous_args = 0
 213              		@ link register save eliminated.
 214              	.LVL9:
 215              		.loc 1 144 0
 216 0000 436E     		ldr	r3, [r0, #100]
 217              	.LVL10:
 218              		.loc 1 146 0
 219 0002 0021     		movs	r1, #0
 220              		.loc 1 145 0
 221 0004 0120     		movs	r0, #1
 222              	.LVL11:
 223              		.loc 1 149 0
ARM GAS  /tmp/ccQucLyg.s 			page 5


 224 0006 0522     		movs	r2, #5
 225              		.loc 1 145 0
 226 0008 9882     		strh	r0, [r3, #20]	@ movhi
 227              		.loc 1 146 0
 228 000a 9984     		strh	r1, [r3, #36]	@ movhi
 229              		.loc 1 147 0
 230 000c 1982     		strh	r1, [r3, #16]	@ movhi
 231              		.loc 1 148 0
 232 000e 9881     		strh	r0, [r3, #12]	@ movhi
 233              		.loc 1 149 0
 234 0010 1A80     		strh	r2, [r3, #0]	@ movhi
 235              		.loc 1 150 0
 236 0012 7047     		bx	lr
 237              		.cfi_endproc
 238              	.LFE67:
 239              		.size	rtcan_lld_tim_start_timer, .-rtcan_lld_tim_start_timer
 240 0014 AFF30080 		.section	.text.rtcan_lld_tim_stop_timer,"ax",%progbits
 240      AFF30080 
 240      AFF30080 
 241              		.align	2
 242              		.p2align 4,,15
 243              		.global	rtcan_lld_tim_stop_timer
 244              		.thumb
 245              		.thumb_func
 246              		.type	rtcan_lld_tim_stop_timer, %function
 247              	rtcan_lld_tim_stop_timer:
 248              	.LFB68:
 249              		.loc 1 159 0
 250              		.cfi_startproc
 251              		@ args = 0, pretend = 0, frame = 0
 252              		@ frame_needed = 0, uses_anonymous_args = 0
 253              		@ link register save eliminated.
 254              	.LVL12:
 255              		.loc 1 160 0
 256 0000 436E     		ldr	r3, [r0, #100]
 257              	.LVL13:
 258              		.loc 1 162 0
 259 0002 0022     		movs	r2, #0
 260 0004 1A80     		strh	r2, [r3, #0]	@ movhi
 261              		.loc 1 163 0
 262 0006 1A82     		strh	r2, [r3, #16]	@ movhi
 263              		.loc 1 164 0
 264 0008 9A81     		strh	r2, [r3, #12]	@ movhi
 265              		.loc 1 165 0
 266 000a 7047     		bx	lr
 267              		.cfi_endproc
 268              	.LFE68:
 269              		.size	rtcan_lld_tim_stop_timer, .-rtcan_lld_tim_stop_timer
 270 000c AFF30080 		.section	.text.rtcan_lld_tim_set_interval,"ax",%progbits
 271              		.align	2
 272              		.p2align 4,,15
 273              		.global	rtcan_lld_tim_set_interval
 274              		.thumb
 275              		.thumb_func
 276              		.type	rtcan_lld_tim_set_interval, %function
 277              	rtcan_lld_tim_set_interval:
 278              	.LFB69:
ARM GAS  /tmp/ccQucLyg.s 			page 6


 279              		.loc 1 168 0
 280              		.cfi_startproc
 281              		@ args = 0, pretend = 0, frame = 0
 282              		@ frame_needed = 0, uses_anonymous_args = 0
 283              		@ link register save eliminated.
 284              	.LVL14:
 285              		.loc 1 169 0
 286 0000 436E     		ldr	r3, [r0, #100]
 287              	.LVL15:
 288              		.loc 1 171 0
 289 0002 481E     		subs	r0, r1, #1
 290              	.LVL16:
 291 0004 81B2     		uxth	r1, r0
 292              	.LVL17:
 293 0006 9985     		strh	r1, [r3, #44]	@ movhi
 294              		.loc 1 172 0
 295 0008 7047     		bx	lr
 296              		.cfi_endproc
 297              	.LFE69:
 298              		.size	rtcan_lld_tim_set_interval, .-rtcan_lld_tim_set_interval
 299 000a 00BFAFF3 		.section	.text.rtcan_lld_tim_get_interval,"ax",%progbits
 299      0080
 300              		.align	2
 301              		.p2align 4,,15
 302              		.global	rtcan_lld_tim_get_interval
 303              		.thumb
 304              		.thumb_func
 305              		.type	rtcan_lld_tim_get_interval, %function
 306              	rtcan_lld_tim_get_interval:
 307              	.LFB70:
 308              		.loc 1 175 0
 309              		.cfi_startproc
 310              		@ args = 0, pretend = 0, frame = 0
 311              		@ frame_needed = 0, uses_anonymous_args = 0
 312              		@ link register save eliminated.
 313              	.LVL18:
 314              		.loc 1 176 0
 315 0000 436E     		ldr	r3, [r0, #100]
 316              	.LVL19:
 317              		.loc 1 178 0
 318 0002 998D     		ldrh	r1, [r3, #44]
 319 0004 481C     		adds	r0, r1, #1
 320              	.LVL20:
 321 0006 80B2     		uxth	r0, r0
 322              		.loc 1 179 0
 323 0008 7047     		bx	lr
 324              		.cfi_endproc
 325              	.LFE70:
 326              		.size	rtcan_lld_tim_get_interval, .-rtcan_lld_tim_get_interval
 327 000a 00BFAFF3 		.section	.text.rtcan_lld_tim_get_counter,"ax",%progbits
 327      0080
 328              		.align	2
 329              		.p2align 4,,15
 330              		.global	rtcan_lld_tim_get_counter
 331              		.thumb
 332              		.thumb_func
 333              		.type	rtcan_lld_tim_get_counter, %function
ARM GAS  /tmp/ccQucLyg.s 			page 7


 334              	rtcan_lld_tim_get_counter:
 335              	.LFB71:
 336              		.loc 1 181 0
 337              		.cfi_startproc
 338              		@ args = 0, pretend = 0, frame = 0
 339              		@ frame_needed = 0, uses_anonymous_args = 0
 340              		@ link register save eliminated.
 341              	.LVL21:
 342              		.loc 1 182 0
 343 0000 436E     		ldr	r3, [r0, #100]
 344              	.LVL22:
 345              		.loc 1 184 0
 346 0002 988C     		ldrh	r0, [r3, #36]
 347              	.LVL23:
 348 0004 80B2     		uxth	r0, r0
 349              		.loc 1 185 0
 350 0006 7047     		bx	lr
 351              		.cfi_endproc
 352              	.LFE71:
 353              		.size	rtcan_lld_tim_get_counter, .-rtcan_lld_tim_get_counter
 354 0008 AFF30080 		.section	.text.rtcan_lld_tim_set_counter,"ax",%progbits
 354      AFF30080 
 355              		.align	2
 356              		.p2align 4,,15
 357              		.global	rtcan_lld_tim_set_counter
 358              		.thumb
 359              		.thumb_func
 360              		.type	rtcan_lld_tim_set_counter, %function
 361              	rtcan_lld_tim_set_counter:
 362              	.LFB72:
 363              		.loc 1 187 0
 364              		.cfi_startproc
 365              		@ args = 0, pretend = 0, frame = 0
 366              		@ frame_needed = 0, uses_anonymous_args = 0
 367              		@ link register save eliminated.
 368              	.LVL24:
 369              		.loc 1 188 0
 370 0000 436E     		ldr	r3, [r0, #100]
 371              	.LVL25:
 372              		.loc 1 190 0
 373 0002 9984     		strh	r1, [r3, #36]	@ movhi
 374              		.loc 1 191 0
 375 0004 7047     		bx	lr
 376              		.cfi_endproc
 377              	.LFE72:
 378              		.size	rtcan_lld_tim_set_counter, .-rtcan_lld_tim_set_counter
 379 0006 00BFAFF3 		.text
 379      0080AFF3 
 379      0080
 380              	.Letext0:
 381              		.file 2 "/home/tino/ChibiStudio/tools/GNU Tools ARM Embedded/4.6 2012q2/bin/../lib/gcc/arm-none-ea
 382              		.file 3 "../../ChibiOS/os/hal/platforms/STM32F1xx/stm32f10x.h"
 383              		.file 4 "../../RTCAN/include/rtcan.h"
 384              		.file 5 "../../RTCAN/include/msgqueue.h"
 385              		.file 6 "../../RTCAN/include/hrt.h"
 386              		.file 7 "../../ChibiOS/os/ports/common/ARMCMx/CMSIS/include/core_cm3.h"
 387              		.file 8 "../../RTCAN/platforms/STM32/rtcan_lld_can.h"
ARM GAS  /tmp/ccQucLyg.s 			page 8


 388              		.section	.debug_info,"",%progbits
 389              	.Ldebug_info0:
 390 0000 EC0D0000 		.4byte	0xdec
 391 0004 0200     		.2byte	0x2
 392 0006 00000000 		.4byte	.Ldebug_abbrev0
 393 000a 04       		.byte	0x4
 394 000b 01       		.uleb128 0x1
 395 000c 9C010000 		.4byte	.LASF186
 396 0010 01       		.byte	0x1
 397 0011 61020000 		.4byte	.LASF187
 398 0015 E5010000 		.4byte	.LASF188
 399 0019 00000000 		.4byte	0
 400 001d 00000000 		.4byte	0
 401 0021 00000000 		.4byte	.Ldebug_ranges0+0
 402 0025 00000000 		.4byte	.Ldebug_line0
 403 0029 02       		.uleb128 0x2
 404 002a 04       		.byte	0x4
 405 002b 05       		.byte	0x5
 406 002c 696E7400 		.ascii	"int\000"
 407 0030 03       		.uleb128 0x3
 408 0031 04       		.byte	0x4
 409 0032 07       		.byte	0x7
 410 0033 0F030000 		.4byte	.LASF0
 411 0037 03       		.uleb128 0x3
 412 0038 01       		.byte	0x1
 413 0039 06       		.byte	0x6
 414 003a E7000000 		.4byte	.LASF1
 415 003e 04       		.uleb128 0x4
 416 003f 57080000 		.4byte	.LASF4
 417 0043 02       		.byte	0x2
 418 0044 2A       		.byte	0x2a
 419 0045 49000000 		.4byte	0x49
 420 0049 03       		.uleb128 0x3
 421 004a 01       		.byte	0x1
 422 004b 08       		.byte	0x8
 423 004c F8050000 		.4byte	.LASF2
 424 0050 03       		.uleb128 0x3
 425 0051 02       		.byte	0x2
 426 0052 05       		.byte	0x5
 427 0053 32060000 		.4byte	.LASF3
 428 0057 04       		.uleb128 0x4
 429 0058 1C030000 		.4byte	.LASF5
 430 005c 02       		.byte	0x2
 431 005d 36       		.byte	0x36
 432 005e 62000000 		.4byte	0x62
 433 0062 03       		.uleb128 0x3
 434 0063 02       		.byte	0x2
 435 0064 07       		.byte	0x7
 436 0065 70060000 		.4byte	.LASF6
 437 0069 04       		.uleb128 0x4
 438 006a F0050000 		.4byte	.LASF7
 439 006e 02       		.byte	0x2
 440 006f 4F       		.byte	0x4f
 441 0070 74000000 		.4byte	0x74
 442 0074 03       		.uleb128 0x3
 443 0075 04       		.byte	0x4
 444 0076 05       		.byte	0x5
ARM GAS  /tmp/ccQucLyg.s 			page 9


 445 0077 93010000 		.4byte	.LASF8
 446 007b 04       		.uleb128 0x4
 447 007c D4060000 		.4byte	.LASF9
 448 0080 02       		.byte	0x2
 449 0081 50       		.byte	0x50
 450 0082 86000000 		.4byte	0x86
 451 0086 03       		.uleb128 0x3
 452 0087 04       		.byte	0x4
 453 0088 07       		.byte	0x7
 454 0089 47030000 		.4byte	.LASF10
 455 008d 03       		.uleb128 0x3
 456 008e 08       		.byte	0x8
 457 008f 05       		.byte	0x5
 458 0090 D9000000 		.4byte	.LASF11
 459 0094 03       		.uleb128 0x3
 460 0095 08       		.byte	0x8
 461 0096 07       		.byte	0x7
 462 0097 05010000 		.4byte	.LASF12
 463 009b 03       		.uleb128 0x3
 464 009c 01       		.byte	0x1
 465 009d 02       		.byte	0x2
 466 009e EA050000 		.4byte	.LASF13
 467 00a2 05       		.uleb128 0x5
 468 00a3 04       		.byte	0x4
 469 00a4 06       		.uleb128 0x6
 470 00a5 7B000000 		.4byte	0x7b
 471 00a9 03       		.uleb128 0x3
 472 00aa 01       		.byte	0x1
 473 00ab 08       		.byte	0x8
 474 00ac 17070000 		.4byte	.LASF14
 475 00b0 07       		.uleb128 0x7
 476 00b1 04       		.byte	0x4
 477 00b2 3E000000 		.4byte	0x3e
 478 00b6 08       		.uleb128 0x8
 479 00b7 91040000 		.4byte	.LASF189
 480 00bb 01       		.byte	0x1
 481 00bc 03       		.byte	0x3
 482 00bd A9       		.byte	0xa9
 483 00be F5010000 		.4byte	0x1f5
 484 00c2 09       		.uleb128 0x9
 485 00c3 6B070000 		.4byte	.LASF15
 486 00c7 72       		.sleb128 -14
 487 00c8 09       		.uleb128 0x9
 488 00c9 31030000 		.4byte	.LASF16
 489 00cd 74       		.sleb128 -12
 490 00ce 09       		.uleb128 0x9
 491 00cf BC020000 		.4byte	.LASF17
 492 00d3 75       		.sleb128 -11
 493 00d4 09       		.uleb128 0x9
 494 00d5 F3060000 		.4byte	.LASF18
 495 00d9 76       		.sleb128 -10
 496 00da 09       		.uleb128 0x9
 497 00db DB040000 		.4byte	.LASF19
 498 00df 7B       		.sleb128 -5
 499 00e0 09       		.uleb128 0x9
 500 00e1 EA070000 		.4byte	.LASF20
 501 00e5 7C       		.sleb128 -4
ARM GAS  /tmp/ccQucLyg.s 			page 10


 502 00e6 09       		.uleb128 0x9
 503 00e7 99020000 		.4byte	.LASF21
 504 00eb 7E       		.sleb128 -2
 505 00ec 09       		.uleb128 0x9
 506 00ed 3D040000 		.4byte	.LASF22
 507 00f1 7F       		.sleb128 -1
 508 00f2 09       		.uleb128 0x9
 509 00f3 C3000000 		.4byte	.LASF23
 510 00f7 00       		.sleb128 0
 511 00f8 09       		.uleb128 0x9
 512 00f9 00000000 		.4byte	.LASF24
 513 00fd 01       		.sleb128 1
 514 00fe 09       		.uleb128 0x9
 515 00ff A7070000 		.4byte	.LASF25
 516 0103 02       		.sleb128 2
 517 0104 09       		.uleb128 0x9
 518 0105 BE080000 		.4byte	.LASF26
 519 0109 03       		.sleb128 3
 520 010a 09       		.uleb128 0x9
 521 010b B5060000 		.4byte	.LASF27
 522 010f 04       		.sleb128 4
 523 0110 09       		.uleb128 0x9
 524 0111 72080000 		.4byte	.LASF28
 525 0115 05       		.sleb128 5
 526 0116 09       		.uleb128 0x9
 527 0117 FA000000 		.4byte	.LASF29
 528 011b 06       		.sleb128 6
 529 011c 09       		.uleb128 0x9
 530 011d 2D090000 		.4byte	.LASF30
 531 0121 07       		.sleb128 7
 532 0122 09       		.uleb128 0x9
 533 0123 B8000000 		.4byte	.LASF31
 534 0127 08       		.sleb128 8
 535 0128 09       		.uleb128 0x9
 536 0129 F5040000 		.4byte	.LASF32
 537 012d 09       		.sleb128 9
 538 012e 09       		.uleb128 0x9
 539 012f 27060000 		.4byte	.LASF33
 540 0133 0A       		.sleb128 10
 541 0134 09       		.uleb128 0x9
 542 0135 70050000 		.4byte	.LASF34
 543 0139 0B       		.sleb128 11
 544 013a 09       		.uleb128 0x9
 545 013b A6040000 		.4byte	.LASF35
 546 013f 0C       		.sleb128 12
 547 0140 09       		.uleb128 0x9
 548 0141 48060000 		.4byte	.LASF36
 549 0145 0D       		.sleb128 13
 550 0146 09       		.uleb128 0x9
 551 0147 2A040000 		.4byte	.LASF37
 552 014b 0E       		.sleb128 14
 553 014c 09       		.uleb128 0x9
 554 014d 94030000 		.4byte	.LASF38
 555 0151 0F       		.sleb128 15
 556 0152 09       		.uleb128 0x9
 557 0153 8C070000 		.4byte	.LASF39
 558 0157 10       		.sleb128 16
ARM GAS  /tmp/ccQucLyg.s 			page 11


 559 0158 09       		.uleb128 0x9
 560 0159 17040000 		.4byte	.LASF40
 561 015d 11       		.sleb128 17
 562 015e 09       		.uleb128 0x9
 563 015f 59030000 		.4byte	.LASF41
 564 0163 12       		.sleb128 18
 565 0164 09       		.uleb128 0x9
 566 0165 06060000 		.4byte	.LASF42
 567 0169 13       		.sleb128 19
 568 016a 09       		.uleb128 0x9
 569 016b 5B060000 		.4byte	.LASF43
 570 016f 14       		.sleb128 20
 571 0170 09       		.uleb128 0x9
 572 0171 7B000000 		.4byte	.LASF44
 573 0175 15       		.sleb128 21
 574 0176 09       		.uleb128 0x9
 575 0177 EB080000 		.4byte	.LASF45
 576 017b 16       		.sleb128 22
 577 017c 09       		.uleb128 0x9
 578 017d 25000000 		.4byte	.LASF46
 579 0181 17       		.sleb128 23
 580 0182 09       		.uleb128 0x9
 581 0183 39070000 		.4byte	.LASF47
 582 0187 18       		.sleb128 24
 583 0188 09       		.uleb128 0x9
 584 0189 C2070000 		.4byte	.LASF48
 585 018d 19       		.sleb128 25
 586 018e 09       		.uleb128 0x9
 587 018f 0E000000 		.4byte	.LASF49
 588 0193 1A       		.sleb128 26
 589 0194 09       		.uleb128 0x9
 590 0195 4A040000 		.4byte	.LASF50
 591 0199 1B       		.sleb128 27
 592 019a 09       		.uleb128 0x9
 593 019b 27080000 		.4byte	.LASF51
 594 019f 1C       		.sleb128 28
 595 01a0 09       		.uleb128 0x9
 596 01a1 E1080000 		.4byte	.LASF52
 597 01a5 1D       		.sleb128 29
 598 01a6 09       		.uleb128 0x9
 599 01a7 AE000000 		.4byte	.LASF53
 600 01ab 1E       		.sleb128 30
 601 01ac 09       		.uleb128 0x9
 602 01ad 4F000000 		.4byte	.LASF54
 603 01b1 1F       		.sleb128 31
 604 01b2 09       		.uleb128 0x9
 605 01b3 B1080000 		.4byte	.LASF55
 606 01b7 20       		.sleb128 32
 607 01b8 09       		.uleb128 0x9
 608 01b9 03080000 		.4byte	.LASF56
 609 01bd 21       		.sleb128 33
 610 01be 09       		.uleb128 0x9
 611 01bf 7B080000 		.4byte	.LASF57
 612 01c3 22       		.sleb128 34
 613 01c4 09       		.uleb128 0x9
 614 01c5 EA030000 		.4byte	.LASF58
 615 01c9 23       		.sleb128 35
ARM GAS  /tmp/ccQucLyg.s 			page 12


 616 01ca 09       		.uleb128 0x9
 617 01cb 00050000 		.4byte	.LASF59
 618 01cf 24       		.sleb128 36
 619 01d0 09       		.uleb128 0x9
 620 01d1 3B080000 		.4byte	.LASF60
 621 01d5 25       		.sleb128 37
 622 01d6 09       		.uleb128 0x9
 623 01d7 E7060000 		.4byte	.LASF61
 624 01db 26       		.sleb128 38
 625 01dc 09       		.uleb128 0x9
 626 01dd 10080000 		.4byte	.LASF62
 627 01e1 27       		.sleb128 39
 628 01e2 09       		.uleb128 0x9
 629 01e3 CC030000 		.4byte	.LASF63
 630 01e7 28       		.sleb128 40
 631 01e8 09       		.uleb128 0x9
 632 01e9 93000000 		.4byte	.LASF64
 633 01ed 29       		.sleb128 41
 634 01ee 09       		.uleb128 0x9
 635 01ef 0F050000 		.4byte	.LASF65
 636 01f3 2A       		.sleb128 42
 637 01f4 00       		.byte	0
 638 01f5 0A       		.uleb128 0xa
 639 01f6 7B000000 		.4byte	0x7b
 640 01fa 05020000 		.4byte	0x205
 641 01fe 0B       		.uleb128 0xb
 642 01ff 30000000 		.4byte	0x30
 643 0203 07       		.byte	0x7
 644 0204 00       		.byte	0
 645 0205 0A       		.uleb128 0xa
 646 0206 7B000000 		.4byte	0x7b
 647 020a 15020000 		.4byte	0x215
 648 020e 0B       		.uleb128 0xb
 649 020f 30000000 		.4byte	0x30
 650 0213 01       		.byte	0x1
 651 0214 00       		.byte	0
 652 0215 06       		.uleb128 0x6
 653 0216 57000000 		.4byte	0x57
 654 021a 06       		.uleb128 0x6
 655 021b 69000000 		.4byte	0x69
 656 021f 0C       		.uleb128 0xc
 657 0220 10       		.byte	0x10
 658 0221 03       		.byte	0x3
 659 0222 AC02     		.2byte	0x2ac
 660 0224 65020000 		.4byte	0x265
 661 0228 0D       		.uleb128 0xd
 662 0229 54495200 		.ascii	"TIR\000"
 663 022d 03       		.byte	0x3
 664 022e AE02     		.2byte	0x2ae
 665 0230 A4000000 		.4byte	0xa4
 666 0234 02       		.byte	0x2
 667 0235 23       		.byte	0x23
 668 0236 00       		.uleb128 0
 669 0237 0E       		.uleb128 0xe
 670 0238 D3020000 		.4byte	.LASF66
 671 023c 03       		.byte	0x3
 672 023d AF02     		.2byte	0x2af
ARM GAS  /tmp/ccQucLyg.s 			page 13


 673 023f A4000000 		.4byte	0xa4
 674 0243 02       		.byte	0x2
 675 0244 23       		.byte	0x23
 676 0245 04       		.uleb128 0x4
 677 0246 0E       		.uleb128 0xe
 678 0247 8E010000 		.4byte	.LASF67
 679 024b 03       		.byte	0x3
 680 024c B002     		.2byte	0x2b0
 681 024e A4000000 		.4byte	0xa4
 682 0252 02       		.byte	0x2
 683 0253 23       		.byte	0x23
 684 0254 08       		.uleb128 0x8
 685 0255 0E       		.uleb128 0xe
 686 0256 0A050000 		.4byte	.LASF68
 687 025a 03       		.byte	0x3
 688 025b B102     		.2byte	0x2b1
 689 025d A4000000 		.4byte	0xa4
 690 0261 02       		.byte	0x2
 691 0262 23       		.byte	0x23
 692 0263 0C       		.uleb128 0xc
 693 0264 00       		.byte	0
 694 0265 0F       		.uleb128 0xf
 695 0266 16020000 		.4byte	.LASF69
 696 026a 03       		.byte	0x3
 697 026b B202     		.2byte	0x2b2
 698 026d 1F020000 		.4byte	0x21f
 699 0271 0C       		.uleb128 0xc
 700 0272 10       		.byte	0x10
 701 0273 03       		.byte	0x3
 702 0274 B802     		.2byte	0x2b8
 703 0276 B7020000 		.4byte	0x2b7
 704 027a 0D       		.uleb128 0xd
 705 027b 52495200 		.ascii	"RIR\000"
 706 027f 03       		.byte	0x3
 707 0280 BA02     		.2byte	0x2ba
 708 0282 A4000000 		.4byte	0xa4
 709 0286 02       		.byte	0x2
 710 0287 23       		.byte	0x23
 711 0288 00       		.uleb128 0
 712 0289 0E       		.uleb128 0xe
 713 028a 71030000 		.4byte	.LASF70
 714 028e 03       		.byte	0x3
 715 028f BB02     		.2byte	0x2bb
 716 0291 A4000000 		.4byte	0xa4
 717 0295 02       		.byte	0x2
 718 0296 23       		.byte	0x23
 719 0297 04       		.uleb128 0x4
 720 0298 0E       		.uleb128 0xe
 721 0299 EC020000 		.4byte	.LASF71
 722 029d 03       		.byte	0x3
 723 029e BC02     		.2byte	0x2bc
 724 02a0 A4000000 		.4byte	0xa4
 725 02a4 02       		.byte	0x2
 726 02a5 23       		.byte	0x23
 727 02a6 08       		.uleb128 0x8
 728 02a7 0E       		.uleb128 0xe
 729 02a8 4C070000 		.4byte	.LASF72
ARM GAS  /tmp/ccQucLyg.s 			page 14


 730 02ac 03       		.byte	0x3
 731 02ad BD02     		.2byte	0x2bd
 732 02af A4000000 		.4byte	0xa4
 733 02b3 02       		.byte	0x2
 734 02b4 23       		.byte	0x23
 735 02b5 0C       		.uleb128 0xc
 736 02b6 00       		.byte	0
 737 02b7 0F       		.uleb128 0xf
 738 02b8 67040000 		.4byte	.LASF73
 739 02bc 03       		.byte	0x3
 740 02bd BE02     		.2byte	0x2be
 741 02bf 71020000 		.4byte	0x271
 742 02c3 0C       		.uleb128 0xc
 743 02c4 08       		.byte	0x8
 744 02c5 03       		.byte	0x3
 745 02c6 C402     		.2byte	0x2c4
 746 02c8 EB020000 		.4byte	0x2eb
 747 02cc 0D       		.uleb128 0xd
 748 02cd 46523100 		.ascii	"FR1\000"
 749 02d1 03       		.byte	0x3
 750 02d2 C602     		.2byte	0x2c6
 751 02d4 A4000000 		.4byte	0xa4
 752 02d8 02       		.byte	0x2
 753 02d9 23       		.byte	0x23
 754 02da 00       		.uleb128 0
 755 02db 0D       		.uleb128 0xd
 756 02dc 46523200 		.ascii	"FR2\000"
 757 02e0 03       		.byte	0x3
 758 02e1 C702     		.2byte	0x2c7
 759 02e3 A4000000 		.4byte	0xa4
 760 02e7 02       		.byte	0x2
 761 02e8 23       		.byte	0x23
 762 02e9 04       		.uleb128 0x4
 763 02ea 00       		.byte	0
 764 02eb 0F       		.uleb128 0xf
 765 02ec B1030000 		.4byte	.LASF74
 766 02f0 03       		.byte	0x3
 767 02f1 C802     		.2byte	0x2c8
 768 02f3 C3020000 		.4byte	0x2c3
 769 02f7 10       		.uleb128 0x10
 770 02f8 B002     		.2byte	0x2b0
 771 02fa 03       		.byte	0x3
 772 02fb CE02     		.2byte	0x2ce
 773 02fd 59040000 		.4byte	0x459
 774 0301 0D       		.uleb128 0xd
 775 0302 4D435200 		.ascii	"MCR\000"
 776 0306 03       		.byte	0x3
 777 0307 D002     		.2byte	0x2d0
 778 0309 A4000000 		.4byte	0xa4
 779 030d 02       		.byte	0x2
 780 030e 23       		.byte	0x23
 781 030f 00       		.uleb128 0
 782 0310 0D       		.uleb128 0xd
 783 0311 4D535200 		.ascii	"MSR\000"
 784 0315 03       		.byte	0x3
 785 0316 D102     		.2byte	0x2d1
 786 0318 A4000000 		.4byte	0xa4
ARM GAS  /tmp/ccQucLyg.s 			page 15


 787 031c 02       		.byte	0x2
 788 031d 23       		.byte	0x23
 789 031e 04       		.uleb128 0x4
 790 031f 0D       		.uleb128 0xd
 791 0320 54535200 		.ascii	"TSR\000"
 792 0324 03       		.byte	0x3
 793 0325 D202     		.2byte	0x2d2
 794 0327 A4000000 		.4byte	0xa4
 795 032b 02       		.byte	0x2
 796 032c 23       		.byte	0x23
 797 032d 08       		.uleb128 0x8
 798 032e 0E       		.uleb128 0xe
 799 032f AE020000 		.4byte	.LASF75
 800 0333 03       		.byte	0x3
 801 0334 D302     		.2byte	0x2d3
 802 0336 A4000000 		.4byte	0xa4
 803 033a 02       		.byte	0x2
 804 033b 23       		.byte	0x23
 805 033c 0C       		.uleb128 0xc
 806 033d 0E       		.uleb128 0xe
 807 033e AC030000 		.4byte	.LASF76
 808 0342 03       		.byte	0x3
 809 0343 D402     		.2byte	0x2d4
 810 0345 A4000000 		.4byte	0xa4
 811 0349 02       		.byte	0x2
 812 034a 23       		.byte	0x23
 813 034b 10       		.uleb128 0x10
 814 034c 0D       		.uleb128 0xd
 815 034d 49455200 		.ascii	"IER\000"
 816 0351 03       		.byte	0x3
 817 0352 D502     		.2byte	0x2d5
 818 0354 A4000000 		.4byte	0xa4
 819 0358 02       		.byte	0x2
 820 0359 23       		.byte	0x23
 821 035a 14       		.uleb128 0x14
 822 035b 0D       		.uleb128 0xd
 823 035c 45535200 		.ascii	"ESR\000"
 824 0360 03       		.byte	0x3
 825 0361 D602     		.2byte	0x2d6
 826 0363 A4000000 		.4byte	0xa4
 827 0367 02       		.byte	0x2
 828 0368 23       		.byte	0x23
 829 0369 18       		.uleb128 0x18
 830 036a 0D       		.uleb128 0xd
 831 036b 42545200 		.ascii	"BTR\000"
 832 036f 03       		.byte	0x3
 833 0370 D702     		.2byte	0x2d7
 834 0372 A4000000 		.4byte	0xa4
 835 0376 02       		.byte	0x2
 836 0377 23       		.byte	0x23
 837 0378 1C       		.uleb128 0x1c
 838 0379 0E       		.uleb128 0xe
 839 037a 8D050000 		.4byte	.LASF77
 840 037e 03       		.byte	0x3
 841 037f D802     		.2byte	0x2d8
 842 0381 59040000 		.4byte	0x459
 843 0385 02       		.byte	0x2
ARM GAS  /tmp/ccQucLyg.s 			page 16


 844 0386 23       		.byte	0x23
 845 0387 20       		.uleb128 0x20
 846 0388 0E       		.uleb128 0xe
 847 0389 32000000 		.4byte	.LASF78
 848 038d 03       		.byte	0x3
 849 038e D902     		.2byte	0x2d9
 850 0390 69040000 		.4byte	0x469
 851 0394 03       		.byte	0x3
 852 0395 23       		.byte	0x23
 853 0396 8003     		.uleb128 0x180
 854 0398 0E       		.uleb128 0xe
 855 0399 7F070000 		.4byte	.LASF79
 856 039d 03       		.byte	0x3
 857 039e DA02     		.2byte	0x2da
 858 03a0 79040000 		.4byte	0x479
 859 03a4 03       		.byte	0x3
 860 03a5 23       		.byte	0x23
 861 03a6 B003     		.uleb128 0x1b0
 862 03a8 0E       		.uleb128 0xe
 863 03a9 97050000 		.4byte	.LASF80
 864 03ad 03       		.byte	0x3
 865 03ae DB02     		.2byte	0x2db
 866 03b0 89040000 		.4byte	0x489
 867 03b4 03       		.byte	0x3
 868 03b5 23       		.byte	0x23
 869 03b6 D003     		.uleb128 0x1d0
 870 03b8 0D       		.uleb128 0xd
 871 03b9 464D5200 		.ascii	"FMR\000"
 872 03bd 03       		.byte	0x3
 873 03be DC02     		.2byte	0x2dc
 874 03c0 A4000000 		.4byte	0xa4
 875 03c4 03       		.byte	0x3
 876 03c5 23       		.byte	0x23
 877 03c6 8004     		.uleb128 0x200
 878 03c8 0E       		.uleb128 0xe
 879 03c9 12040000 		.4byte	.LASF81
 880 03cd 03       		.byte	0x3
 881 03ce DD02     		.2byte	0x2dd
 882 03d0 A4000000 		.4byte	0xa4
 883 03d4 03       		.byte	0x3
 884 03d5 23       		.byte	0x23
 885 03d6 8404     		.uleb128 0x204
 886 03d8 0E       		.uleb128 0xe
 887 03d9 A1050000 		.4byte	.LASF82
 888 03dd 03       		.byte	0x3
 889 03de DE02     		.2byte	0x2de
 890 03e0 7B000000 		.4byte	0x7b
 891 03e4 03       		.byte	0x3
 892 03e5 23       		.byte	0x23
 893 03e6 8804     		.uleb128 0x208
 894 03e8 0E       		.uleb128 0xe
 895 03e9 76030000 		.4byte	.LASF83
 896 03ed 03       		.byte	0x3
 897 03ee DF02     		.2byte	0x2df
 898 03f0 A4000000 		.4byte	0xa4
 899 03f4 03       		.byte	0x3
 900 03f5 23       		.byte	0x23
ARM GAS  /tmp/ccQucLyg.s 			page 17


 901 03f6 8C04     		.uleb128 0x20c
 902 03f8 0E       		.uleb128 0xe
 903 03f9 AB050000 		.4byte	.LASF84
 904 03fd 03       		.byte	0x3
 905 03fe E002     		.2byte	0x2e0
 906 0400 7B000000 		.4byte	0x7b
 907 0404 03       		.byte	0x3
 908 0405 23       		.byte	0x23
 909 0406 9004     		.uleb128 0x210
 910 0408 0E       		.uleb128 0xe
 911 0409 43050000 		.4byte	.LASF85
 912 040d 03       		.byte	0x3
 913 040e E102     		.2byte	0x2e1
 914 0410 A4000000 		.4byte	0xa4
 915 0414 03       		.byte	0x3
 916 0415 23       		.byte	0x23
 917 0416 9404     		.uleb128 0x214
 918 0418 0E       		.uleb128 0xe
 919 0419 C0060000 		.4byte	.LASF86
 920 041d 03       		.byte	0x3
 921 041e E202     		.2byte	0x2e2
 922 0420 7B000000 		.4byte	0x7b
 923 0424 03       		.byte	0x3
 924 0425 23       		.byte	0x23
 925 0426 9804     		.uleb128 0x218
 926 0428 0E       		.uleb128 0xe
 927 0429 C7050000 		.4byte	.LASF87
 928 042d 03       		.byte	0x3
 929 042e E302     		.2byte	0x2e3
 930 0430 A4000000 		.4byte	0xa4
 931 0434 03       		.byte	0x3
 932 0435 23       		.byte	0x23
 933 0436 9C04     		.uleb128 0x21c
 934 0438 0E       		.uleb128 0xe
 935 0439 CA060000 		.4byte	.LASF88
 936 043d 03       		.byte	0x3
 937 043e E402     		.2byte	0x2e4
 938 0440 F5010000 		.4byte	0x1f5
 939 0444 03       		.byte	0x3
 940 0445 23       		.byte	0x23
 941 0446 A004     		.uleb128 0x220
 942 0448 0E       		.uleb128 0xe
 943 0449 02040000 		.4byte	.LASF89
 944 044d 03       		.byte	0x3
 945 044e E602     		.2byte	0x2e6
 946 0450 99040000 		.4byte	0x499
 947 0454 03       		.byte	0x3
 948 0455 23       		.byte	0x23
 949 0456 C004     		.uleb128 0x240
 950 0458 00       		.byte	0
 951 0459 0A       		.uleb128 0xa
 952 045a 7B000000 		.4byte	0x7b
 953 045e 69040000 		.4byte	0x469
 954 0462 0B       		.uleb128 0xb
 955 0463 30000000 		.4byte	0x30
 956 0467 57       		.byte	0x57
 957 0468 00       		.byte	0
ARM GAS  /tmp/ccQucLyg.s 			page 18


 958 0469 0A       		.uleb128 0xa
 959 046a 65020000 		.4byte	0x265
 960 046e 79040000 		.4byte	0x479
 961 0472 0B       		.uleb128 0xb
 962 0473 30000000 		.4byte	0x30
 963 0477 02       		.byte	0x2
 964 0478 00       		.byte	0
 965 0479 0A       		.uleb128 0xa
 966 047a B7020000 		.4byte	0x2b7
 967 047e 89040000 		.4byte	0x489
 968 0482 0B       		.uleb128 0xb
 969 0483 30000000 		.4byte	0x30
 970 0487 01       		.byte	0x1
 971 0488 00       		.byte	0
 972 0489 0A       		.uleb128 0xa
 973 048a 7B000000 		.4byte	0x7b
 974 048e 99040000 		.4byte	0x499
 975 0492 0B       		.uleb128 0xb
 976 0493 30000000 		.4byte	0x30
 977 0497 0B       		.byte	0xb
 978 0498 00       		.byte	0
 979 0499 0A       		.uleb128 0xa
 980 049a EB020000 		.4byte	0x2eb
 981 049e A9040000 		.4byte	0x4a9
 982 04a2 0B       		.uleb128 0xb
 983 04a3 30000000 		.4byte	0x30
 984 04a7 0D       		.byte	0xd
 985 04a8 00       		.byte	0
 986 04a9 0F       		.uleb128 0xf
 987 04aa 5C000000 		.4byte	.LASF90
 988 04ae 03       		.byte	0x3
 989 04af EA02     		.2byte	0x2ea
 990 04b1 F7020000 		.4byte	0x2f7
 991 04b5 0C       		.uleb128 0xc
 992 04b6 28       		.byte	0x28
 993 04b7 03       		.byte	0x3
 994 04b8 4304     		.2byte	0x443
 995 04ba 54050000 		.4byte	0x554
 996 04be 0D       		.uleb128 0xd
 997 04bf 435200   		.ascii	"CR\000"
 998 04c2 03       		.byte	0x3
 999 04c3 4504     		.2byte	0x445
 1000 04c5 A4000000 		.4byte	0xa4
 1001 04c9 02       		.byte	0x2
 1002 04ca 23       		.byte	0x23
 1003 04cb 00       		.uleb128 0
 1004 04cc 0E       		.uleb128 0xe
 1005 04cd 8D080000 		.4byte	.LASF91
 1006 04d1 03       		.byte	0x3
 1007 04d2 4604     		.2byte	0x446
 1008 04d4 A4000000 		.4byte	0xa4
 1009 04d8 02       		.byte	0x2
 1010 04d9 23       		.byte	0x23
 1011 04da 04       		.uleb128 0x4
 1012 04db 0D       		.uleb128 0xd
 1013 04dc 43495200 		.ascii	"CIR\000"
 1014 04e0 03       		.byte	0x3
ARM GAS  /tmp/ccQucLyg.s 			page 19


 1015 04e1 4704     		.2byte	0x447
 1016 04e3 A4000000 		.4byte	0xa4
 1017 04e7 02       		.byte	0x2
 1018 04e8 23       		.byte	0x23
 1019 04e9 08       		.uleb128 0x8
 1020 04ea 0E       		.uleb128 0xe
 1021 04eb CA020000 		.4byte	.LASF92
 1022 04ef 03       		.byte	0x3
 1023 04f0 4804     		.2byte	0x448
 1024 04f2 A4000000 		.4byte	0xa4
 1025 04f6 02       		.byte	0x2
 1026 04f7 23       		.byte	0x23
 1027 04f8 0C       		.uleb128 0xc
 1028 04f9 0E       		.uleb128 0xe
 1029 04fa 26050000 		.4byte	.LASF93
 1030 04fe 03       		.byte	0x3
 1031 04ff 4904     		.2byte	0x449
 1032 0501 A4000000 		.4byte	0xa4
 1033 0505 02       		.byte	0x2
 1034 0506 23       		.byte	0x23
 1035 0507 10       		.uleb128 0x10
 1036 0508 0E       		.uleb128 0xe
 1037 0509 26090000 		.4byte	.LASF94
 1038 050d 03       		.byte	0x3
 1039 050e 4A04     		.2byte	0x44a
 1040 0510 A4000000 		.4byte	0xa4
 1041 0514 02       		.byte	0x2
 1042 0515 23       		.byte	0x23
 1043 0516 14       		.uleb128 0x14
 1044 0517 0E       		.uleb128 0xe
 1045 0518 83060000 		.4byte	.LASF95
 1046 051c 03       		.byte	0x3
 1047 051d 4B04     		.2byte	0x44b
 1048 051f A4000000 		.4byte	0xa4
 1049 0523 02       		.byte	0x2
 1050 0524 23       		.byte	0x23
 1051 0525 18       		.uleb128 0x18
 1052 0526 0E       		.uleb128 0xe
 1053 0527 9F070000 		.4byte	.LASF96
 1054 052b 03       		.byte	0x3
 1055 052c 4C04     		.2byte	0x44c
 1056 052e A4000000 		.4byte	0xa4
 1057 0532 02       		.byte	0x2
 1058 0533 23       		.byte	0x23
 1059 0534 1C       		.uleb128 0x1c
 1060 0535 0E       		.uleb128 0xe
 1061 0536 47080000 		.4byte	.LASF97
 1062 053a 03       		.byte	0x3
 1063 053b 4D04     		.2byte	0x44d
 1064 053d A4000000 		.4byte	0xa4
 1065 0541 02       		.byte	0x2
 1066 0542 23       		.byte	0x23
 1067 0543 20       		.uleb128 0x20
 1068 0544 0D       		.uleb128 0xd
 1069 0545 43535200 		.ascii	"CSR\000"
 1070 0549 03       		.byte	0x3
 1071 054a 4E04     		.2byte	0x44e
ARM GAS  /tmp/ccQucLyg.s 			page 20


 1072 054c A4000000 		.4byte	0xa4
 1073 0550 02       		.byte	0x2
 1074 0551 23       		.byte	0x23
 1075 0552 24       		.uleb128 0x24
 1076 0553 00       		.byte	0
 1077 0554 0F       		.uleb128 0xf
 1078 0555 65030000 		.4byte	.LASF98
 1079 0559 03       		.byte	0x3
 1080 055a 5904     		.2byte	0x459
 1081 055c B5040000 		.4byte	0x4b5
 1082 0560 0C       		.uleb128 0xc
 1083 0561 50       		.byte	0x50
 1084 0562 03       		.byte	0x3
 1085 0563 B104     		.2byte	0x4b1
 1086 0565 C1070000 		.4byte	0x7c1
 1087 0569 0D       		.uleb128 0xd
 1088 056a 43523100 		.ascii	"CR1\000"
 1089 056e 03       		.byte	0x3
 1090 056f B304     		.2byte	0x4b3
 1091 0571 15020000 		.4byte	0x215
 1092 0575 02       		.byte	0x2
 1093 0576 23       		.byte	0x23
 1094 0577 00       		.uleb128 0
 1095 0578 0E       		.uleb128 0xe
 1096 0579 8D050000 		.4byte	.LASF77
 1097 057d 03       		.byte	0x3
 1098 057e B404     		.2byte	0x4b4
 1099 0580 57000000 		.4byte	0x57
 1100 0584 02       		.byte	0x2
 1101 0585 23       		.byte	0x23
 1102 0586 02       		.uleb128 0x2
 1103 0587 0D       		.uleb128 0xd
 1104 0588 43523200 		.ascii	"CR2\000"
 1105 058c 03       		.byte	0x3
 1106 058d B504     		.2byte	0x4b5
 1107 058f 15020000 		.4byte	0x215
 1108 0593 02       		.byte	0x2
 1109 0594 23       		.byte	0x23
 1110 0595 04       		.uleb128 0x4
 1111 0596 0E       		.uleb128 0xe
 1112 0597 97050000 		.4byte	.LASF80
 1113 059b 03       		.byte	0x3
 1114 059c B604     		.2byte	0x4b6
 1115 059e 57000000 		.4byte	0x57
 1116 05a2 02       		.byte	0x2
 1117 05a3 23       		.byte	0x23
 1118 05a4 06       		.uleb128 0x6
 1119 05a5 0E       		.uleb128 0xe
 1120 05a6 A7030000 		.4byte	.LASF99
 1121 05aa 03       		.byte	0x3
 1122 05ab B704     		.2byte	0x4b7
 1123 05ad 15020000 		.4byte	0x215
 1124 05b1 02       		.byte	0x2
 1125 05b2 23       		.byte	0x23
 1126 05b3 08       		.uleb128 0x8
 1127 05b4 0E       		.uleb128 0xe
 1128 05b5 A1050000 		.4byte	.LASF82
ARM GAS  /tmp/ccQucLyg.s 			page 21


 1129 05b9 03       		.byte	0x3
 1130 05ba B804     		.2byte	0x4b8
 1131 05bc 57000000 		.4byte	0x57
 1132 05c0 02       		.byte	0x2
 1133 05c1 23       		.byte	0x23
 1134 05c2 0A       		.uleb128 0xa
 1135 05c3 0E       		.uleb128 0xe
 1136 05c4 09000000 		.4byte	.LASF100
 1137 05c8 03       		.byte	0x3
 1138 05c9 B904     		.2byte	0x4b9
 1139 05cb 15020000 		.4byte	0x215
 1140 05cf 02       		.byte	0x2
 1141 05d0 23       		.byte	0x23
 1142 05d1 0C       		.uleb128 0xc
 1143 05d2 0E       		.uleb128 0xe
 1144 05d3 AB050000 		.4byte	.LASF84
 1145 05d7 03       		.byte	0x3
 1146 05d8 BA04     		.2byte	0x4ba
 1147 05da 57000000 		.4byte	0x57
 1148 05de 02       		.byte	0x2
 1149 05df 23       		.byte	0x23
 1150 05e0 0E       		.uleb128 0xe
 1151 05e1 0D       		.uleb128 0xd
 1152 05e2 535200   		.ascii	"SR\000"
 1153 05e5 03       		.byte	0x3
 1154 05e6 BB04     		.2byte	0x4bb
 1155 05e8 15020000 		.4byte	0x215
 1156 05ec 02       		.byte	0x2
 1157 05ed 23       		.byte	0x23
 1158 05ee 10       		.uleb128 0x10
 1159 05ef 0E       		.uleb128 0xe
 1160 05f0 C0060000 		.4byte	.LASF86
 1161 05f4 03       		.byte	0x3
 1162 05f5 BC04     		.2byte	0x4bc
 1163 05f7 57000000 		.4byte	0x57
 1164 05fb 02       		.byte	0x2
 1165 05fc 23       		.byte	0x23
 1166 05fd 12       		.uleb128 0x12
 1167 05fe 0D       		.uleb128 0xd
 1168 05ff 45475200 		.ascii	"EGR\000"
 1169 0603 03       		.byte	0x3
 1170 0604 BD04     		.2byte	0x4bd
 1171 0606 15020000 		.4byte	0x215
 1172 060a 02       		.byte	0x2
 1173 060b 23       		.byte	0x23
 1174 060c 14       		.uleb128 0x14
 1175 060d 0E       		.uleb128 0xe
 1176 060e CA060000 		.4byte	.LASF88
 1177 0612 03       		.byte	0x3
 1178 0613 BE04     		.2byte	0x4be
 1179 0615 57000000 		.4byte	0x57
 1180 0619 02       		.byte	0x2
 1181 061a 23       		.byte	0x23
 1182 061b 16       		.uleb128 0x16
 1183 061c 0E       		.uleb128 0xe
 1184 061d CD000000 		.4byte	.LASF101
 1185 0621 03       		.byte	0x3
ARM GAS  /tmp/ccQucLyg.s 			page 22


 1186 0622 BF04     		.2byte	0x4bf
 1187 0624 15020000 		.4byte	0x215
 1188 0628 02       		.byte	0x2
 1189 0629 23       		.byte	0x23
 1190 062a 18       		.uleb128 0x18
 1191 062b 0E       		.uleb128 0xe
 1192 062c CC050000 		.4byte	.LASF102
 1193 0630 03       		.byte	0x3
 1194 0631 C004     		.2byte	0x4c0
 1195 0633 57000000 		.4byte	0x57
 1196 0637 02       		.byte	0x2
 1197 0638 23       		.byte	0x23
 1198 0639 1A       		.uleb128 0x1a
 1199 063a 0E       		.uleb128 0xe
 1200 063b D3000000 		.4byte	.LASF103
 1201 063f 03       		.byte	0x3
 1202 0640 C104     		.2byte	0x4c1
 1203 0642 15020000 		.4byte	0x215
 1204 0646 02       		.byte	0x2
 1205 0647 23       		.byte	0x23
 1206 0648 1C       		.uleb128 0x1c
 1207 0649 0E       		.uleb128 0xe
 1208 064a DD060000 		.4byte	.LASF104
 1209 064e 03       		.byte	0x3
 1210 064f C204     		.2byte	0x4c2
 1211 0651 57000000 		.4byte	0x57
 1212 0655 02       		.byte	0x2
 1213 0656 23       		.byte	0x23
 1214 0657 1E       		.uleb128 0x1e
 1215 0658 0E       		.uleb128 0xe
 1216 0659 3A020000 		.4byte	.LASF105
 1217 065d 03       		.byte	0x3
 1218 065e C304     		.2byte	0x4c3
 1219 0660 15020000 		.4byte	0x215
 1220 0664 02       		.byte	0x2
 1221 0665 23       		.byte	0x23
 1222 0666 20       		.uleb128 0x20
 1223 0667 0E       		.uleb128 0xe
 1224 0668 D6050000 		.4byte	.LASF106
 1225 066c 03       		.byte	0x3
 1226 066d C404     		.2byte	0x4c4
 1227 066f 57000000 		.4byte	0x57
 1228 0673 02       		.byte	0x2
 1229 0674 23       		.byte	0x23
 1230 0675 22       		.uleb128 0x22
 1231 0676 0D       		.uleb128 0xd
 1232 0677 434E5400 		.ascii	"CNT\000"
 1233 067b 03       		.byte	0x3
 1234 067c C504     		.2byte	0x4c5
 1235 067e 15020000 		.4byte	0x215
 1236 0682 02       		.byte	0x2
 1237 0683 23       		.byte	0x23
 1238 0684 24       		.uleb128 0x24
 1239 0685 0E       		.uleb128 0xe
 1240 0686 E0050000 		.4byte	.LASF107
 1241 068a 03       		.byte	0x3
 1242 068b C604     		.2byte	0x4c6
ARM GAS  /tmp/ccQucLyg.s 			page 23


 1243 068d 57000000 		.4byte	0x57
 1244 0691 02       		.byte	0x2
 1245 0692 23       		.byte	0x23
 1246 0693 26       		.uleb128 0x26
 1247 0694 0D       		.uleb128 0xd
 1248 0695 50534300 		.ascii	"PSC\000"
 1249 0699 03       		.byte	0x3
 1250 069a C704     		.2byte	0x4c7
 1251 069c 15020000 		.4byte	0x215
 1252 06a0 02       		.byte	0x2
 1253 06a1 23       		.byte	0x23
 1254 06a2 28       		.uleb128 0x28
 1255 06a3 0E       		.uleb128 0xe
 1256 06a4 25010000 		.4byte	.LASF108
 1257 06a8 03       		.byte	0x3
 1258 06a9 C804     		.2byte	0x4c8
 1259 06ab 57000000 		.4byte	0x57
 1260 06af 02       		.byte	0x2
 1261 06b0 23       		.byte	0x23
 1262 06b1 2A       		.uleb128 0x2a
 1263 06b2 0D       		.uleb128 0xd
 1264 06b3 41525200 		.ascii	"ARR\000"
 1265 06b7 03       		.byte	0x3
 1266 06b8 C904     		.2byte	0x4c9
 1267 06ba 15020000 		.4byte	0x215
 1268 06be 02       		.byte	0x2
 1269 06bf 23       		.byte	0x23
 1270 06c0 2C       		.uleb128 0x2c
 1271 06c1 0E       		.uleb128 0xe
 1272 06c2 30010000 		.4byte	.LASF109
 1273 06c6 03       		.byte	0x3
 1274 06c7 CA04     		.2byte	0x4ca
 1275 06c9 57000000 		.4byte	0x57
 1276 06cd 02       		.byte	0x2
 1277 06ce 23       		.byte	0x23
 1278 06cf 2E       		.uleb128 0x2e
 1279 06d0 0D       		.uleb128 0xd
 1280 06d1 52435200 		.ascii	"RCR\000"
 1281 06d5 03       		.byte	0x3
 1282 06d6 CB04     		.2byte	0x4cb
 1283 06d8 15020000 		.4byte	0x215
 1284 06dc 02       		.byte	0x2
 1285 06dd 23       		.byte	0x23
 1286 06de 30       		.uleb128 0x30
 1287 06df 0E       		.uleb128 0xe
 1288 06e0 3B010000 		.4byte	.LASF110
 1289 06e4 03       		.byte	0x3
 1290 06e5 CC04     		.2byte	0x4cc
 1291 06e7 57000000 		.4byte	0x57
 1292 06eb 02       		.byte	0x2
 1293 06ec 23       		.byte	0x23
 1294 06ed 32       		.uleb128 0x32
 1295 06ee 0E       		.uleb128 0xe
 1296 06ef 22080000 		.4byte	.LASF111
 1297 06f3 03       		.byte	0x3
 1298 06f4 CD04     		.2byte	0x4cd
 1299 06f6 15020000 		.4byte	0x215
ARM GAS  /tmp/ccQucLyg.s 			page 24


 1300 06fa 02       		.byte	0x2
 1301 06fb 23       		.byte	0x23
 1302 06fc 34       		.uleb128 0x34
 1303 06fd 0E       		.uleb128 0xe
 1304 06fe 46010000 		.4byte	.LASF112
 1305 0702 03       		.byte	0x3
 1306 0703 CE04     		.2byte	0x4ce
 1307 0705 57000000 		.4byte	0x57
 1308 0709 02       		.byte	0x2
 1309 070a 23       		.byte	0x23
 1310 070b 36       		.uleb128 0x36
 1311 070c 0E       		.uleb128 0xe
 1312 070d 89000000 		.4byte	.LASF113
 1313 0711 03       		.byte	0x3
 1314 0712 CF04     		.2byte	0x4cf
 1315 0714 15020000 		.4byte	0x215
 1316 0718 02       		.byte	0x2
 1317 0719 23       		.byte	0x23
 1318 071a 38       		.uleb128 0x38
 1319 071b 0E       		.uleb128 0xe
 1320 071c 51010000 		.4byte	.LASF114
 1321 0720 03       		.byte	0x3
 1322 0721 D004     		.2byte	0x4d0
 1323 0723 57000000 		.4byte	0x57
 1324 0727 02       		.byte	0x2
 1325 0728 23       		.byte	0x23
 1326 0729 3A       		.uleb128 0x3a
 1327 072a 0E       		.uleb128 0xe
 1328 072b 31080000 		.4byte	.LASF115
 1329 072f 03       		.byte	0x3
 1330 0730 D104     		.2byte	0x4d1
 1331 0732 15020000 		.4byte	0x215
 1332 0736 02       		.byte	0x2
 1333 0737 23       		.byte	0x23
 1334 0738 3C       		.uleb128 0x3c
 1335 0739 0E       		.uleb128 0xe
 1336 073a 5C010000 		.4byte	.LASF116
 1337 073e 03       		.byte	0x3
 1338 073f D204     		.2byte	0x4d2
 1339 0741 57000000 		.4byte	0x57
 1340 0745 02       		.byte	0x2
 1341 0746 23       		.byte	0x23
 1342 0747 3E       		.uleb128 0x3e
 1343 0748 0E       		.uleb128 0xe
 1344 0749 36080000 		.4byte	.LASF117
 1345 074d 03       		.byte	0x3
 1346 074e D304     		.2byte	0x4d3
 1347 0750 15020000 		.4byte	0x215
 1348 0754 02       		.byte	0x2
 1349 0755 23       		.byte	0x23
 1350 0756 40       		.uleb128 0x40
 1351 0757 0E       		.uleb128 0xe
 1352 0758 67010000 		.4byte	.LASF118
 1353 075c 03       		.byte	0x3
 1354 075d D404     		.2byte	0x4d4
 1355 075f 57000000 		.4byte	0x57
 1356 0763 02       		.byte	0x2
ARM GAS  /tmp/ccQucLyg.s 			page 25


 1357 0764 23       		.byte	0x23
 1358 0765 42       		.uleb128 0x42
 1359 0766 0E       		.uleb128 0xe
 1360 0767 D8020000 		.4byte	.LASF119
 1361 076b 03       		.byte	0x3
 1362 076c D504     		.2byte	0x4d5
 1363 076e 15020000 		.4byte	0x215
 1364 0772 02       		.byte	0x2
 1365 0773 23       		.byte	0x23
 1366 0774 44       		.uleb128 0x44
 1367 0775 0E       		.uleb128 0xe
 1368 0776 72010000 		.4byte	.LASF120
 1369 077a 03       		.byte	0x3
 1370 077b D604     		.2byte	0x4d6
 1371 077d 57000000 		.4byte	0x57
 1372 0781 02       		.byte	0x2
 1373 0782 23       		.byte	0x23
 1374 0783 46       		.uleb128 0x46
 1375 0784 0D       		.uleb128 0xd
 1376 0785 44435200 		.ascii	"DCR\000"
 1377 0789 03       		.byte	0x3
 1378 078a D704     		.2byte	0x4d7
 1379 078c 15020000 		.4byte	0x215
 1380 0790 02       		.byte	0x2
 1381 0791 23       		.byte	0x23
 1382 0792 48       		.uleb128 0x48
 1383 0793 0E       		.uleb128 0xe
 1384 0794 7D010000 		.4byte	.LASF121
 1385 0798 03       		.byte	0x3
 1386 0799 D804     		.2byte	0x4d8
 1387 079b 57000000 		.4byte	0x57
 1388 079f 02       		.byte	0x2
 1389 07a0 23       		.byte	0x23
 1390 07a1 4A       		.uleb128 0x4a
 1391 07a2 0E       		.uleb128 0xe
 1392 07a3 47070000 		.4byte	.LASF122
 1393 07a7 03       		.byte	0x3
 1394 07a8 D904     		.2byte	0x4d9
 1395 07aa 15020000 		.4byte	0x215
 1396 07ae 02       		.byte	0x2
 1397 07af 23       		.byte	0x23
 1398 07b0 4C       		.uleb128 0x4c
 1399 07b1 0E       		.uleb128 0xe
 1400 07b2 4C080000 		.4byte	.LASF123
 1401 07b6 03       		.byte	0x3
 1402 07b7 DA04     		.2byte	0x4da
 1403 07b9 57000000 		.4byte	0x57
 1404 07bd 02       		.byte	0x2
 1405 07be 23       		.byte	0x23
 1406 07bf 4E       		.uleb128 0x4e
 1407 07c0 00       		.byte	0
 1408 07c1 0F       		.uleb128 0xf
 1409 07c2 68000000 		.4byte	.LASF124
 1410 07c6 03       		.byte	0x3
 1411 07c7 DB04     		.2byte	0x4db
 1412 07c9 60050000 		.4byte	0x560
 1413 07cd 04       		.uleb128 0x4
ARM GAS  /tmp/ccQucLyg.s 			page 26


 1414 07ce 1C070000 		.4byte	.LASF125
 1415 07d2 04       		.byte	0x4
 1416 07d3 55       		.byte	0x55
 1417 07d4 D8070000 		.4byte	0x7d8
 1418 07d8 11       		.uleb128 0x11
 1419 07d9 1C070000 		.4byte	.LASF125
 1420 07dd 1E       		.byte	0x1e
 1421 07de 04       		.byte	0x4
 1422 07df AB       		.byte	0xab
 1423 07e0 6D080000 		.4byte	0x86d
 1424 07e4 12       		.uleb128 0x12
 1425 07e5 20000000 		.4byte	.LASF126
 1426 07e9 04       		.byte	0x4
 1427 07ea AC       		.byte	0xac
 1428 07eb 8A080000 		.4byte	0x88a
 1429 07ef 02       		.byte	0x2
 1430 07f0 23       		.byte	0x23
 1431 07f1 00       		.uleb128 0
 1432 07f2 12       		.uleb128 0x12
 1433 07f3 F3000000 		.4byte	.LASF127
 1434 07f7 04       		.byte	0x4
 1435 07f8 AD       		.byte	0xad
 1436 07f9 01090000 		.4byte	0x901
 1437 07fd 02       		.byte	0x2
 1438 07fe 23       		.byte	0x23
 1439 07ff 04       		.uleb128 0x4
 1440 0800 12       		.uleb128 0x12
 1441 0801 F4030000 		.4byte	.LASF128
 1442 0805 04       		.byte	0x4
 1443 0806 AE       		.byte	0xae
 1444 0807 6D080000 		.4byte	0x86d
 1445 080b 02       		.byte	0x2
 1446 080c 23       		.byte	0x23
 1447 080d 05       		.uleb128 0x5
 1448 080e 12       		.uleb128 0x12
 1449 080f 3F020000 		.4byte	.LASF129
 1450 0813 04       		.byte	0x4
 1451 0814 AF       		.byte	0xaf
 1452 0815 A2000000 		.4byte	0xa2
 1453 0819 02       		.byte	0x2
 1454 081a 23       		.byte	0x23
 1455 081b 09       		.uleb128 0x9
 1456 081c 13       		.uleb128 0x13
 1457 081d 0C0B0000 		.4byte	0xb0c
 1458 0821 02       		.byte	0x2
 1459 0822 23       		.byte	0x23
 1460 0823 0D       		.uleb128 0xd
 1461 0824 14       		.uleb128 0x14
 1462 0825 696400   		.ascii	"id\000"
 1463 0828 04       		.byte	0x4
 1464 0829 B9       		.byte	0xb9
 1465 082a 57000000 		.4byte	0x57
 1466 082e 02       		.byte	0x2
 1467 082f 23       		.byte	0x23
 1468 0830 11       		.uleb128 0x11
 1469 0831 12       		.uleb128 0x12
 1470 0832 88080000 		.4byte	.LASF130
ARM GAS  /tmp/ccQucLyg.s 			page 27


 1471 0836 04       		.byte	0x4
 1472 0837 BA       		.byte	0xba
 1473 0838 57000000 		.4byte	0x57
 1474 083c 02       		.byte	0x2
 1475 083d 23       		.byte	0x23
 1476 083e 13       		.uleb128 0x13
 1477 083f 12       		.uleb128 0x12
 1478 0840 8E000000 		.4byte	.LASF131
 1479 0844 04       		.byte	0x4
 1480 0845 BB       		.byte	0xbb
 1481 0846 B0000000 		.4byte	0xb0
 1482 084a 02       		.byte	0x2
 1483 084b 23       		.byte	0x23
 1484 084c 15       		.uleb128 0x15
 1485 084d 14       		.uleb128 0x14
 1486 084e 70747200 		.ascii	"ptr\000"
 1487 0852 04       		.byte	0x4
 1488 0853 BC       		.byte	0xbc
 1489 0854 B0000000 		.4byte	0xb0
 1490 0858 02       		.byte	0x2
 1491 0859 23       		.byte	0x23
 1492 085a 19       		.uleb128 0x19
 1493 085b 15       		.uleb128 0x15
 1494 085c 9C060000 		.4byte	.LASF163
 1495 0860 04       		.byte	0x4
 1496 0861 BD       		.byte	0xbd
 1497 0862 3E000000 		.4byte	0x3e
 1498 0866 01       		.byte	0x1
 1499 0867 07       		.byte	0x7
 1500 0868 01       		.byte	0x1
 1501 0869 02       		.byte	0x2
 1502 086a 23       		.byte	0x23
 1503 086b 1D       		.uleb128 0x1d
 1504 086c 00       		.byte	0
 1505 086d 04       		.uleb128 0x4
 1506 086e 2F050000 		.4byte	.LASF132
 1507 0872 04       		.byte	0x4
 1508 0873 5A       		.byte	0x5a
 1509 0874 78080000 		.4byte	0x878
 1510 0878 07       		.uleb128 0x7
 1511 0879 04       		.byte	0x4
 1512 087a 7E080000 		.4byte	0x87e
 1513 087e 16       		.uleb128 0x16
 1514 087f 01       		.byte	0x1
 1515 0880 8A080000 		.4byte	0x88a
 1516 0884 17       		.uleb128 0x17
 1517 0885 8A080000 		.4byte	0x88a
 1518 0889 00       		.byte	0
 1519 088a 07       		.uleb128 0x7
 1520 088b 04       		.byte	0x4
 1521 088c CD070000 		.4byte	0x7cd
 1522 0890 18       		.uleb128 0x18
 1523 0891 01       		.byte	0x1
 1524 0892 04       		.byte	0x4
 1525 0893 5F       		.byte	0x5f
 1526 0894 C3080000 		.4byte	0x8c3
 1527 0898 09       		.uleb128 0x9
ARM GAS  /tmp/ccQucLyg.s 			page 28


 1528 0899 02030000 		.4byte	.LASF133
 1529 089d 00       		.sleb128 0
 1530 089e 09       		.uleb128 0x9
 1531 089f 3D000000 		.4byte	.LASF134
 1532 08a3 01       		.sleb128 1
 1533 08a4 09       		.uleb128 0x9
 1534 08a5 CC040000 		.4byte	.LASF135
 1535 08a9 02       		.sleb128 2
 1536 08aa 09       		.uleb128 0x9
 1537 08ab 8D020000 		.4byte	.LASF136
 1538 08af 03       		.sleb128 3
 1539 08b0 09       		.uleb128 0x9
 1540 08b1 2C020000 		.4byte	.LASF137
 1541 08b5 04       		.sleb128 4
 1542 08b6 09       		.uleb128 0x9
 1543 08b7 25030000 		.4byte	.LASF138
 1544 08bb 05       		.sleb128 5
 1545 08bc 09       		.uleb128 0x9
 1546 08bd 92080000 		.4byte	.LASF139
 1547 08c1 06       		.sleb128 6
 1548 08c2 00       		.byte	0
 1549 08c3 04       		.uleb128 0x4
 1550 08c4 49050000 		.4byte	.LASF140
 1551 08c8 04       		.byte	0x4
 1552 08c9 67       		.byte	0x67
 1553 08ca 90080000 		.4byte	0x890
 1554 08ce 18       		.uleb128 0x18
 1555 08cf 01       		.byte	0x1
 1556 08d0 04       		.byte	0x4
 1557 08d1 6C       		.byte	0x6c
 1558 08d2 01090000 		.4byte	0x901
 1559 08d6 09       		.uleb128 0x9
 1560 08d7 F1020000 		.4byte	.LASF141
 1561 08db 00       		.sleb128 0
 1562 08dc 09       		.uleb128 0x9
 1563 08dd B3070000 		.4byte	.LASF142
 1564 08e1 01       		.sleb128 1
 1565 08e2 09       		.uleb128 0x9
 1566 08e3 A5060000 		.4byte	.LASF143
 1567 08e7 02       		.sleb128 2
 1568 08e8 09       		.uleb128 0x9
 1569 08e9 8B060000 		.4byte	.LASF144
 1570 08ed 03       		.sleb128 3
 1571 08ee 09       		.uleb128 0x9
 1572 08ef 96040000 		.4byte	.LASF145
 1573 08f3 04       		.sleb128 4
 1574 08f4 09       		.uleb128 0x9
 1575 08f5 B5050000 		.4byte	.LASF146
 1576 08f9 05       		.sleb128 5
 1577 08fa 09       		.uleb128 0x9
 1578 08fb 57040000 		.4byte	.LASF147
 1579 08ff 06       		.sleb128 6
 1580 0900 00       		.byte	0
 1581 0901 04       		.uleb128 0x4
 1582 0902 7F040000 		.4byte	.LASF148
 1583 0906 04       		.byte	0x4
 1584 0907 74       		.byte	0x74
ARM GAS  /tmp/ccQucLyg.s 			page 29


 1585 0908 CE080000 		.4byte	0x8ce
 1586 090c 04       		.uleb128 0x4
 1587 090d 3C060000 		.4byte	.LASF149
 1588 0911 04       		.byte	0x4
 1589 0912 80       		.byte	0x80
 1590 0913 57000000 		.4byte	0x57
 1591 0917 19       		.uleb128 0x19
 1592 0918 04       		.byte	0x4
 1593 0919 05       		.byte	0x5
 1594 091a 1E       		.byte	0x1e
 1595 091b 2E090000 		.4byte	0x92e
 1596 091f 12       		.uleb128 0x12
 1597 0920 20000000 		.4byte	.LASF126
 1598 0924 05       		.byte	0x5
 1599 0925 20       		.byte	0x20
 1600 0926 8A080000 		.4byte	0x88a
 1601 092a 02       		.byte	0x2
 1602 092b 23       		.byte	0x23
 1603 092c 00       		.uleb128 0
 1604 092d 00       		.byte	0
 1605 092e 04       		.uleb128 0x4
 1606 092f 1B090000 		.4byte	.LASF150
 1607 0933 05       		.byte	0x5
 1608 0934 21       		.byte	0x21
 1609 0935 17090000 		.4byte	0x917
 1610 0939 11       		.uleb128 0x11
 1611 093a A2000000 		.4byte	.LASF151
 1612 093e 6C       		.byte	0x6c
 1613 093f 04       		.byte	0x4
 1614 0940 D5       		.byte	0xd5
 1615 0941 E2090000 		.4byte	0x9e2
 1616 0945 12       		.uleb128 0x12
 1617 0946 88010000 		.4byte	.LASF152
 1618 094a 04       		.byte	0x4
 1619 094b D9       		.byte	0xd9
 1620 094c C3080000 		.4byte	0x8c3
 1621 0950 02       		.byte	0x2
 1622 0951 23       		.byte	0x23
 1623 0952 00       		.uleb128 0
 1624 0953 12       		.uleb128 0x12
 1625 0954 FD030000 		.4byte	.LASF153
 1626 0958 04       		.byte	0x4
 1627 0959 DD       		.byte	0xdd
 1628 095a 7B000000 		.4byte	0x7b
 1629 095e 02       		.byte	0x2
 1630 095f 23       		.byte	0x23
 1631 0960 04       		.uleb128 0x4
 1632 0961 12       		.uleb128 0x12
 1633 0962 1C080000 		.4byte	.LASF154
 1634 0966 04       		.byte	0x4
 1635 0967 E1       		.byte	0xe1
 1636 0968 7B000000 		.4byte	0x7b
 1637 096c 02       		.byte	0x2
 1638 096d 23       		.byte	0x23
 1639 096e 08       		.uleb128 0x8
 1640 096f 12       		.uleb128 0x12
 1641 0970 28070000 		.4byte	.LASF155
ARM GAS  /tmp/ccQucLyg.s 			page 30


 1642 0974 04       		.byte	0x4
 1643 0975 E5       		.byte	0xe5
 1644 0976 2E090000 		.4byte	0x92e
 1645 097a 02       		.byte	0x2
 1646 097b 23       		.byte	0x23
 1647 097c 0C       		.uleb128 0xc
 1648 097d 12       		.uleb128 0x12
 1649 097e E7040000 		.4byte	.LASF156
 1650 0982 04       		.byte	0x4
 1651 0983 E9       		.byte	0xe9
 1652 0984 5D0B0000 		.4byte	0xb5d
 1653 0988 02       		.byte	0x2
 1654 0989 23       		.byte	0x23
 1655 098a 10       		.uleb128 0x10
 1656 098b 12       		.uleb128 0x12
 1657 098c F9080000 		.4byte	.LASF157
 1658 0990 04       		.byte	0x4
 1659 0991 ED       		.byte	0xed
 1660 0992 6D0B0000 		.4byte	0xb6d
 1661 0996 02       		.byte	0x2
 1662 0997 23       		.byte	0x23
 1663 0998 1C       		.uleb128 0x1c
 1664 0999 12       		.uleb128 0x12
 1665 099a 38090000 		.4byte	.LASF158
 1666 099e 04       		.byte	0x4
 1667 099f F2       		.byte	0xf2
 1668 09a0 C50A0000 		.4byte	0xac5
 1669 09a4 02       		.byte	0x2
 1670 09a5 23       		.byte	0x23
 1671 09a6 54       		.uleb128 0x54
 1672 09a7 12       		.uleb128 0x12
 1673 09a8 51070000 		.4byte	.LASF159
 1674 09ac 04       		.byte	0x4
 1675 09ad F6       		.byte	0xf6
 1676 09ae 05020000 		.4byte	0x205
 1677 09b2 02       		.byte	0x2
 1678 09b3 23       		.byte	0x23
 1679 09b4 58       		.uleb128 0x58
 1680 09b5 12       		.uleb128 0x12
 1681 09b6 32070000 		.4byte	.LASF160
 1682 09ba 04       		.byte	0x4
 1683 09bb FB       		.byte	0xfb
 1684 09bc 7D0B0000 		.4byte	0xb7d
 1685 09c0 02       		.byte	0x2
 1686 09c1 23       		.byte	0x23
 1687 09c2 60       		.uleb128 0x60
 1688 09c3 0D       		.uleb128 0xd
 1689 09c4 74696D00 		.ascii	"tim\000"
 1690 09c8 04       		.byte	0x4
 1691 09c9 0001     		.2byte	0x100
 1692 09cb 880B0000 		.4byte	0xb88
 1693 09cf 02       		.byte	0x2
 1694 09d0 23       		.byte	0x23
 1695 09d1 64       		.uleb128 0x64
 1696 09d2 0D       		.uleb128 0xd
 1697 09d3 63616E00 		.ascii	"can\000"
 1698 09d7 04       		.byte	0x4
ARM GAS  /tmp/ccQucLyg.s 			page 31


 1699 09d8 0501     		.2byte	0x105
 1700 09da 8E0B0000 		.4byte	0xb8e
 1701 09de 02       		.byte	0x2
 1702 09df 23       		.byte	0x23
 1703 09e0 68       		.uleb128 0x68
 1704 09e1 00       		.byte	0
 1705 09e2 04       		.uleb128 0x4
 1706 09e3 83050000 		.4byte	.LASF161
 1707 09e7 06       		.byte	0x6
 1708 09e8 26       		.byte	0x26
 1709 09e9 ED090000 		.4byte	0x9ed
 1710 09ed 11       		.uleb128 0x11
 1711 09ee 83050000 		.4byte	.LASF161
 1712 09f2 1C       		.byte	0x1c
 1713 09f3 06       		.byte	0x6
 1714 09f4 30       		.byte	0x30
 1715 09f5 8B0A0000 		.4byte	0xa8b
 1716 09f9 12       		.uleb128 0x12
 1717 09fa 20000000 		.4byte	.LASF126
 1718 09fe 06       		.byte	0x6
 1719 09ff 32       		.byte	0x32
 1720 0a00 A80A0000 		.4byte	0xaa8
 1721 0a04 02       		.byte	0x2
 1722 0a05 23       		.byte	0x23
 1723 0a06 00       		.uleb128 0
 1724 0a07 12       		.uleb128 0x12
 1725 0a08 FC070000 		.4byte	.LASF162
 1726 0a0c 06       		.byte	0x6
 1727 0a0d 33       		.byte	0x33
 1728 0a0e 8B0A0000 		.4byte	0xa8b
 1729 0a12 02       		.byte	0x2
 1730 0a13 23       		.byte	0x23
 1731 0a14 04       		.uleb128 0x4
 1732 0a15 12       		.uleb128 0x12
 1733 0a16 F3000000 		.4byte	.LASF127
 1734 0a1a 06       		.byte	0x6
 1735 0a1b 34       		.byte	0x34
 1736 0a1c 01090000 		.4byte	0x901
 1737 0a20 02       		.byte	0x2
 1738 0a21 23       		.byte	0x23
 1739 0a22 08       		.uleb128 0x8
 1740 0a23 1A       		.uleb128 0x1a
 1741 0a24 696400   		.ascii	"id\000"
 1742 0a27 06       		.byte	0x6
 1743 0a28 35       		.byte	0x35
 1744 0a29 57000000 		.4byte	0x57
 1745 0a2d 02       		.byte	0x2
 1746 0a2e 10       		.byte	0x10
 1747 0a2f 00       		.byte	0
 1748 0a30 02       		.byte	0x2
 1749 0a31 23       		.byte	0x23
 1750 0a32 09       		.uleb128 0x9
 1751 0a33 12       		.uleb128 0x12
 1752 0a34 88080000 		.4byte	.LASF130
 1753 0a38 06       		.byte	0x6
 1754 0a39 36       		.byte	0x36
 1755 0a3a 57000000 		.4byte	0x57
ARM GAS  /tmp/ccQucLyg.s 			page 32


 1756 0a3e 02       		.byte	0x2
 1757 0a3f 23       		.byte	0x23
 1758 0a40 0B       		.uleb128 0xb
 1759 0a41 12       		.uleb128 0x12
 1760 0a42 FD030000 		.4byte	.LASF153
 1761 0a46 06       		.byte	0x6
 1762 0a47 37       		.byte	0x37
 1763 0a48 7B000000 		.4byte	0x7b
 1764 0a4c 02       		.byte	0x2
 1765 0a4d 23       		.byte	0x23
 1766 0a4e 0D       		.uleb128 0xd
 1767 0a4f 12       		.uleb128 0x12
 1768 0a50 74000000 		.4byte	.LASF164
 1769 0a54 06       		.byte	0x6
 1770 0a55 38       		.byte	0x38
 1771 0a56 57000000 		.4byte	0x57
 1772 0a5a 02       		.byte	0x2
 1773 0a5b 23       		.byte	0x23
 1774 0a5c 11       		.uleb128 0x11
 1775 0a5d 12       		.uleb128 0x12
 1776 0a5e 8E000000 		.4byte	.LASF131
 1777 0a62 06       		.byte	0x6
 1778 0a63 39       		.byte	0x39
 1779 0a64 B0000000 		.4byte	0xb0
 1780 0a68 02       		.byte	0x2
 1781 0a69 23       		.byte	0x23
 1782 0a6a 13       		.uleb128 0x13
 1783 0a6b 14       		.uleb128 0x14
 1784 0a6c 70747200 		.ascii	"ptr\000"
 1785 0a70 06       		.byte	0x6
 1786 0a71 3A       		.byte	0x3a
 1787 0a72 B0000000 		.4byte	0xb0
 1788 0a76 02       		.byte	0x2
 1789 0a77 23       		.byte	0x23
 1790 0a78 17       		.uleb128 0x17
 1791 0a79 15       		.uleb128 0x15
 1792 0a7a 9C060000 		.4byte	.LASF163
 1793 0a7e 06       		.byte	0x6
 1794 0a7f 3B       		.byte	0x3b
 1795 0a80 3E000000 		.4byte	0x3e
 1796 0a84 01       		.byte	0x1
 1797 0a85 07       		.byte	0x7
 1798 0a86 01       		.byte	0x1
 1799 0a87 02       		.byte	0x2
 1800 0a88 23       		.byte	0x23
 1801 0a89 1B       		.uleb128 0x1b
 1802 0a8a 00       		.byte	0
 1803 0a8b 04       		.uleb128 0x4
 1804 0a8c DD020000 		.4byte	.LASF165
 1805 0a90 06       		.byte	0x6
 1806 0a91 2B       		.byte	0x2b
 1807 0a92 960A0000 		.4byte	0xa96
 1808 0a96 07       		.uleb128 0x7
 1809 0a97 04       		.byte	0x4
 1810 0a98 9C0A0000 		.4byte	0xa9c
 1811 0a9c 16       		.uleb128 0x16
 1812 0a9d 01       		.byte	0x1
ARM GAS  /tmp/ccQucLyg.s 			page 33


 1813 0a9e A80A0000 		.4byte	0xaa8
 1814 0aa2 17       		.uleb128 0x17
 1815 0aa3 A80A0000 		.4byte	0xaa8
 1816 0aa7 00       		.byte	0
 1817 0aa8 07       		.uleb128 0x7
 1818 0aa9 04       		.byte	0x4
 1819 0aaa E2090000 		.4byte	0x9e2
 1820 0aae 19       		.uleb128 0x19
 1821 0aaf 04       		.byte	0x4
 1822 0ab0 06       		.byte	0x6
 1823 0ab1 41       		.byte	0x41
 1824 0ab2 C50A0000 		.4byte	0xac5
 1825 0ab6 12       		.uleb128 0x12
 1826 0ab7 20000000 		.4byte	.LASF126
 1827 0abb 06       		.byte	0x6
 1828 0abc 42       		.byte	0x42
 1829 0abd A80A0000 		.4byte	0xaa8
 1830 0ac1 02       		.byte	0x2
 1831 0ac2 23       		.byte	0x23
 1832 0ac3 00       		.uleb128 0
 1833 0ac4 00       		.byte	0
 1834 0ac5 04       		.uleb128 0x4
 1835 0ac6 DB030000 		.4byte	.LASF166
 1836 0aca 06       		.byte	0x6
 1837 0acb 43       		.byte	0x43
 1838 0acc AE0A0000 		.4byte	0xaae
 1839 0ad0 19       		.uleb128 0x19
 1840 0ad1 04       		.byte	0x4
 1841 0ad2 04       		.byte	0x4
 1842 0ad3 B1       		.byte	0xb1
 1843 0ad4 E70A0000 		.4byte	0xae7
 1844 0ad8 12       		.uleb128 0x12
 1845 0ad9 62070000 		.4byte	.LASF167
 1846 0add 04       		.byte	0x4
 1847 0ade B2       		.byte	0xb2
 1848 0adf 7B000000 		.4byte	0x7b
 1849 0ae3 02       		.byte	0x2
 1850 0ae4 23       		.byte	0x23
 1851 0ae5 00       		.uleb128 0
 1852 0ae6 00       		.byte	0
 1853 0ae7 19       		.uleb128 0x19
 1854 0ae8 04       		.byte	0x4
 1855 0ae9 04       		.byte	0x4
 1856 0aea B4       		.byte	0xb4
 1857 0aeb 0C0B0000 		.4byte	0xb0c
 1858 0aef 12       		.uleb128 0x12
 1859 0af0 FD030000 		.4byte	.LASF153
 1860 0af4 04       		.byte	0x4
 1861 0af5 B5       		.byte	0xb5
 1862 0af6 57000000 		.4byte	0x57
 1863 0afa 02       		.byte	0x2
 1864 0afb 23       		.byte	0x23
 1865 0afc 00       		.uleb128 0
 1866 0afd 12       		.uleb128 0x12
 1867 0afe 74000000 		.4byte	.LASF164
 1868 0b02 04       		.byte	0x4
 1869 0b03 B6       		.byte	0xb6
ARM GAS  /tmp/ccQucLyg.s 			page 34


 1870 0b04 57000000 		.4byte	0x57
 1871 0b08 02       		.byte	0x2
 1872 0b09 23       		.byte	0x23
 1873 0b0a 02       		.uleb128 0x2
 1874 0b0b 00       		.byte	0
 1875 0b0c 1B       		.uleb128 0x1b
 1876 0b0d 04       		.byte	0x4
 1877 0b0e 04       		.byte	0x4
 1878 0b0f B0       		.byte	0xb0
 1879 0b10 1F0B0000 		.4byte	0xb1f
 1880 0b14 1C       		.uleb128 0x1c
 1881 0b15 D00A0000 		.4byte	0xad0
 1882 0b19 1C       		.uleb128 0x1c
 1883 0b1a E70A0000 		.4byte	0xae7
 1884 0b1e 00       		.byte	0
 1885 0b1f 19       		.uleb128 0x19
 1886 0b20 0C       		.byte	0xc
 1887 0b21 04       		.byte	0x4
 1888 0b22 C3       		.byte	0xc3
 1889 0b23 520B0000 		.4byte	0xb52
 1890 0b27 12       		.uleb128 0x12
 1891 0b28 1C010000 		.4byte	.LASF168
 1892 0b2c 04       		.byte	0x4
 1893 0b2d C7       		.byte	0xc7
 1894 0b2e 7B000000 		.4byte	0x7b
 1895 0b32 02       		.byte	0x2
 1896 0b33 23       		.byte	0x23
 1897 0b34 00       		.uleb128 0
 1898 0b35 12       		.uleb128 0x12
 1899 0b36 AB080000 		.4byte	.LASF169
 1900 0b3a 04       		.byte	0x4
 1901 0b3b CB       		.byte	0xcb
 1902 0b3c 7B000000 		.4byte	0x7b
 1903 0b40 02       		.byte	0x2
 1904 0b41 23       		.byte	0x23
 1905 0b42 04       		.uleb128 0x4
 1906 0b43 12       		.uleb128 0x12
 1907 0b44 20050000 		.4byte	.LASF170
 1908 0b48 04       		.byte	0x4
 1909 0b49 CF       		.byte	0xcf
 1910 0b4a 7B000000 		.4byte	0x7b
 1911 0b4e 02       		.byte	0x2
 1912 0b4f 23       		.byte	0x23
 1913 0b50 08       		.uleb128 0x8
 1914 0b51 00       		.byte	0
 1915 0b52 04       		.uleb128 0x4
 1916 0b53 9F080000 		.4byte	.LASF171
 1917 0b57 04       		.byte	0x4
 1918 0b58 D0       		.byte	0xd0
 1919 0b59 1F0B0000 		.4byte	0xb1f
 1920 0b5d 0A       		.uleb128 0xa
 1921 0b5e 8A080000 		.4byte	0x88a
 1922 0b62 6D0B0000 		.4byte	0xb6d
 1923 0b66 0B       		.uleb128 0xb
 1924 0b67 30000000 		.4byte	0x30
 1925 0b6b 02       		.byte	0x2
 1926 0b6c 00       		.byte	0
ARM GAS  /tmp/ccQucLyg.s 			page 35


 1927 0b6d 0A       		.uleb128 0xa
 1928 0b6e 8A080000 		.4byte	0x88a
 1929 0b72 7D0B0000 		.4byte	0xb7d
 1930 0b76 0B       		.uleb128 0xb
 1931 0b77 30000000 		.4byte	0x30
 1932 0b7b 0D       		.byte	0xd
 1933 0b7c 00       		.byte	0
 1934 0b7d 07       		.uleb128 0x7
 1935 0b7e 04       		.byte	0x4
 1936 0b7f 830B0000 		.4byte	0xb83
 1937 0b83 1D       		.uleb128 0x1d
 1938 0b84 520B0000 		.4byte	0xb52
 1939 0b88 07       		.uleb128 0x7
 1940 0b89 04       		.byte	0x4
 1941 0b8a C1070000 		.4byte	0x7c1
 1942 0b8e 07       		.uleb128 0x7
 1943 0b8f 04       		.byte	0x4
 1944 0b90 A9040000 		.4byte	0x4a9
 1945 0b94 1E       		.uleb128 0x1e
 1946 0b95 01       		.byte	0x1
 1947 0b96 A5020000 		.4byte	.LASF172
 1948 0b9a 01       		.byte	0x1
 1949 0b9b 28       		.byte	0x28
 1950 0b9c 01       		.byte	0x1
 1951 0b9d 00000000 		.4byte	.LFB63
 1952 0ba1 2A000000 		.4byte	.LFE63
 1953 0ba5 00000000 		.4byte	.LLST0
 1954 0ba9 1F       		.uleb128 0x1f
 1955 0baa 01       		.byte	0x1
 1956 0bab 5F080000 		.4byte	.LASF173
 1957 0baf 01       		.byte	0x1
 1958 0bb0 3B       		.byte	0x3b
 1959 0bb1 01       		.byte	0x1
 1960 0bb2 00000000 		.4byte	.LFB64
 1961 0bb6 14000000 		.4byte	.LFE64
 1962 0bba 02       		.byte	0x2
 1963 0bbb 7D       		.byte	0x7d
 1964 0bbc 00       		.sleb128 0
 1965 0bbd 20       		.uleb128 0x20
 1966 0bbe 01       		.byte	0x1
 1967 0bbf 03070000 		.4byte	.LASF174
 1968 0bc3 01       		.byte	0x1
 1969 0bc4 4D       		.byte	0x4d
 1970 0bc5 01       		.byte	0x1
 1971 0bc6 00000000 		.4byte	.LFB65
 1972 0bca 50000000 		.4byte	.LFE65
 1973 0bce 20000000 		.4byte	.LLST1
 1974 0bd2 110C0000 		.4byte	0xc11
 1975 0bd6 21       		.uleb128 0x21
 1976 0bd7 48000000 		.4byte	.LASF176
 1977 0bdb 01       		.byte	0x1
 1978 0bdc 4D       		.byte	0x4d
 1979 0bdd 110C0000 		.4byte	0xc11
 1980 0be1 40000000 		.4byte	.LLST2
 1981 0be5 22       		.uleb128 0x22
 1982 0be6 74696D00 		.ascii	"tim\000"
 1983 0bea 01       		.byte	0x1
ARM GAS  /tmp/ccQucLyg.s 			page 36


 1984 0beb 4E       		.byte	0x4e
 1985 0bec 880B0000 		.4byte	0xb88
 1986 0bf0 53000000 		.4byte	.LLST3
 1987 0bf4 23       		.uleb128 0x23
 1988 0bf5 AB080000 		.4byte	.LASF169
 1989 0bf9 01       		.byte	0x1
 1990 0bfa 4F       		.byte	0x4f
 1991 0bfb 7B000000 		.4byte	0x7b
 1992 0bff 00A24A04 		.4byte	0x44aa200
 1993 0c03 24       		.uleb128 0x24
 1994 0c04 70736300 		.ascii	"psc\000"
 1995 0c08 01       		.byte	0x1
 1996 0c09 50       		.byte	0x50
 1997 0c0a 57000000 		.4byte	0x57
 1998 0c0e 01       		.byte	0x1
 1999 0c0f 53       		.byte	0x53
 2000 0c10 00       		.byte	0
 2001 0c11 07       		.uleb128 0x7
 2002 0c12 04       		.byte	0x4
 2003 0c13 39090000 		.4byte	0x939
 2004 0c17 20       		.uleb128 0x20
 2005 0c18 01       		.byte	0x1
 2006 0c19 B9040000 		.4byte	.LASF175
 2007 0c1d 01       		.byte	0x1
 2008 0c1e 73       		.byte	0x73
 2009 0c1f 01       		.byte	0x1
 2010 0c20 00000000 		.4byte	.LFB66
 2011 0c24 24000000 		.4byte	.LFE66
 2012 0c28 80000000 		.4byte	.LLST4
 2013 0c2c 4F0C0000 		.4byte	0xc4f
 2014 0c30 21       		.uleb128 0x21
 2015 0c31 48000000 		.4byte	.LASF176
 2016 0c35 01       		.byte	0x1
 2017 0c36 73       		.byte	0x73
 2018 0c37 110C0000 		.4byte	0xc11
 2019 0c3b A0000000 		.4byte	.LLST5
 2020 0c3f 22       		.uleb128 0x22
 2021 0c40 74696D00 		.ascii	"tim\000"
 2022 0c44 01       		.byte	0x1
 2023 0c45 74       		.byte	0x74
 2024 0c46 880B0000 		.4byte	0xb88
 2025 0c4a B3000000 		.4byte	.LLST6
 2026 0c4e 00       		.byte	0
 2027 0c4f 25       		.uleb128 0x25
 2028 0c50 01       		.byte	0x1
 2029 0c51 C7080000 		.4byte	.LASF177
 2030 0c55 01       		.byte	0x1
 2031 0c56 8F       		.byte	0x8f
 2032 0c57 01       		.byte	0x1
 2033 0c58 00000000 		.4byte	.LFB67
 2034 0c5c 14000000 		.4byte	.LFE67
 2035 0c60 02       		.byte	0x2
 2036 0c61 7D       		.byte	0x7d
 2037 0c62 00       		.sleb128 0
 2038 0c63 860C0000 		.4byte	0xc86
 2039 0c67 21       		.uleb128 0x21
 2040 0c68 48000000 		.4byte	.LASF176
ARM GAS  /tmp/ccQucLyg.s 			page 37


 2041 0c6c 01       		.byte	0x1
 2042 0c6d 8F       		.byte	0x8f
 2043 0c6e 110C0000 		.4byte	0xc11
 2044 0c72 D3000000 		.4byte	.LLST7
 2045 0c76 22       		.uleb128 0x22
 2046 0c77 74696D00 		.ascii	"tim\000"
 2047 0c7b 01       		.byte	0x1
 2048 0c7c 90       		.byte	0x90
 2049 0c7d 880B0000 		.4byte	0xb88
 2050 0c81 E6000000 		.4byte	.LLST8
 2051 0c85 00       		.byte	0
 2052 0c86 25       		.uleb128 0x25
 2053 0c87 01       		.byte	0x1
 2054 0c88 7B030000 		.4byte	.LASF178
 2055 0c8c 01       		.byte	0x1
 2056 0c8d 9F       		.byte	0x9f
 2057 0c8e 01       		.byte	0x1
 2058 0c8f 00000000 		.4byte	.LFB68
 2059 0c93 0C000000 		.4byte	.LFE68
 2060 0c97 02       		.byte	0x2
 2061 0c98 7D       		.byte	0x7d
 2062 0c99 00       		.sleb128 0
 2063 0c9a BB0C0000 		.4byte	0xcbb
 2064 0c9e 26       		.uleb128 0x26
 2065 0c9f 48000000 		.4byte	.LASF176
 2066 0ca3 01       		.byte	0x1
 2067 0ca4 9F       		.byte	0x9f
 2068 0ca5 110C0000 		.4byte	0xc11
 2069 0ca9 01       		.byte	0x1
 2070 0caa 50       		.byte	0x50
 2071 0cab 24       		.uleb128 0x24
 2072 0cac 74696D00 		.ascii	"tim\000"
 2073 0cb0 01       		.byte	0x1
 2074 0cb1 A0       		.byte	0xa0
 2075 0cb2 880B0000 		.4byte	0xb88
 2076 0cb6 03       		.byte	0x3
 2077 0cb7 70       		.byte	0x70
 2078 0cb8 E400     		.sleb128 100
 2079 0cba 00       		.byte	0
 2080 0cbb 25       		.uleb128 0x25
 2081 0cbc 01       		.byte	0x1
 2082 0cbd CF070000 		.4byte	.LASF179
 2083 0cc1 01       		.byte	0x1
 2084 0cc2 A8       		.byte	0xa8
 2085 0cc3 01       		.byte	0x1
 2086 0cc4 00000000 		.4byte	.LFB69
 2087 0cc8 0A000000 		.4byte	.LFE69
 2088 0ccc 02       		.byte	0x2
 2089 0ccd 7D       		.byte	0x7d
 2090 0cce 00       		.sleb128 0
 2091 0ccf 010D0000 		.4byte	0xd01
 2092 0cd3 21       		.uleb128 0x21
 2093 0cd4 48000000 		.4byte	.LASF176
 2094 0cd8 01       		.byte	0x1
 2095 0cd9 A8       		.byte	0xa8
 2096 0cda 110C0000 		.4byte	0xc11
 2097 0cde 06010000 		.4byte	.LLST9
ARM GAS  /tmp/ccQucLyg.s 			page 38


 2098 0ce2 21       		.uleb128 0x21
 2099 0ce3 B3020000 		.4byte	.LASF180
 2100 0ce7 01       		.byte	0x1
 2101 0ce8 A8       		.byte	0xa8
 2102 0ce9 0C090000 		.4byte	0x90c
 2103 0ced 19010000 		.4byte	.LLST10
 2104 0cf1 22       		.uleb128 0x22
 2105 0cf2 74696D00 		.ascii	"tim\000"
 2106 0cf6 01       		.byte	0x1
 2107 0cf7 A9       		.byte	0xa9
 2108 0cf8 880B0000 		.4byte	0xb88
 2109 0cfc 2C010000 		.4byte	.LLST11
 2110 0d00 00       		.byte	0
 2111 0d01 27       		.uleb128 0x27
 2112 0d02 01       		.byte	0x1
 2113 0d03 46020000 		.4byte	.LASF181
 2114 0d07 01       		.byte	0x1
 2115 0d08 AF       		.byte	0xaf
 2116 0d09 01       		.byte	0x1
 2117 0d0a 0C090000 		.4byte	0x90c
 2118 0d0e 00000000 		.4byte	.LFB70
 2119 0d12 0A000000 		.4byte	.LFE70
 2120 0d16 02       		.byte	0x2
 2121 0d17 7D       		.byte	0x7d
 2122 0d18 00       		.sleb128 0
 2123 0d19 3C0D0000 		.4byte	0xd3c
 2124 0d1d 21       		.uleb128 0x21
 2125 0d1e 48000000 		.4byte	.LASF176
 2126 0d22 01       		.byte	0x1
 2127 0d23 AF       		.byte	0xaf
 2128 0d24 110C0000 		.4byte	0xc11
 2129 0d28 4C010000 		.4byte	.LLST12
 2130 0d2c 22       		.uleb128 0x22
 2131 0d2d 74696D00 		.ascii	"tim\000"
 2132 0d31 01       		.byte	0x1
 2133 0d32 B0       		.byte	0xb0
 2134 0d33 880B0000 		.4byte	0xb88
 2135 0d37 5F010000 		.4byte	.LLST13
 2136 0d3b 00       		.byte	0
 2137 0d3c 27       		.uleb128 0x27
 2138 0d3d 01       		.byte	0x1
 2139 0d3e 56050000 		.4byte	.LASF182
 2140 0d42 01       		.byte	0x1
 2141 0d43 B5       		.byte	0xb5
 2142 0d44 01       		.byte	0x1
 2143 0d45 0C090000 		.4byte	0x90c
 2144 0d49 00000000 		.4byte	.LFB71
 2145 0d4d 08000000 		.4byte	.LFE71
 2146 0d51 02       		.byte	0x2
 2147 0d52 7D       		.byte	0x7d
 2148 0d53 00       		.sleb128 0
 2149 0d54 770D0000 		.4byte	0xd77
 2150 0d58 21       		.uleb128 0x21
 2151 0d59 48000000 		.4byte	.LASF176
 2152 0d5d 01       		.byte	0x1
 2153 0d5e B5       		.byte	0xb5
 2154 0d5f 110C0000 		.4byte	0xc11
ARM GAS  /tmp/ccQucLyg.s 			page 39


 2155 0d63 7F010000 		.4byte	.LLST14
 2156 0d67 22       		.uleb128 0x22
 2157 0d68 74696D00 		.ascii	"tim\000"
 2158 0d6c 01       		.byte	0x1
 2159 0d6d B6       		.byte	0xb6
 2160 0d6e 880B0000 		.4byte	0xb88
 2161 0d72 92010000 		.4byte	.LLST15
 2162 0d76 00       		.byte	0
 2163 0d77 25       		.uleb128 0x25
 2164 0d78 01       		.byte	0x1
 2165 0d79 01090000 		.4byte	.LASF183
 2166 0d7d 01       		.byte	0x1
 2167 0d7e BB       		.byte	0xbb
 2168 0d7f 01       		.byte	0x1
 2169 0d80 00000000 		.4byte	.LFB72
 2170 0d84 06000000 		.4byte	.LFE72
 2171 0d88 02       		.byte	0x2
 2172 0d89 7D       		.byte	0x7d
 2173 0d8a 00       		.sleb128 0
 2174 0d8b B90D0000 		.4byte	0xdb9
 2175 0d8f 26       		.uleb128 0x26
 2176 0d90 48000000 		.4byte	.LASF176
 2177 0d94 01       		.byte	0x1
 2178 0d95 BB       		.byte	0xbb
 2179 0d96 110C0000 		.4byte	0xc11
 2180 0d9a 01       		.byte	0x1
 2181 0d9b 50       		.byte	0x50
 2182 0d9c 28       		.uleb128 0x28
 2183 0d9d 636E7400 		.ascii	"cnt\000"
 2184 0da1 01       		.byte	0x1
 2185 0da2 BB       		.byte	0xbb
 2186 0da3 0C090000 		.4byte	0x90c
 2187 0da7 01       		.byte	0x1
 2188 0da8 51       		.byte	0x51
 2189 0da9 24       		.uleb128 0x24
 2190 0daa 74696D00 		.ascii	"tim\000"
 2191 0dae 01       		.byte	0x1
 2192 0daf BC       		.byte	0xbc
 2193 0db0 880B0000 		.4byte	0xb88
 2194 0db4 03       		.byte	0x3
 2195 0db5 70       		.byte	0x70
 2196 0db6 E400     		.sleb128 100
 2197 0db8 00       		.byte	0
 2198 0db9 29       		.uleb128 0x29
 2199 0dba 1A060000 		.4byte	.LASF184
 2200 0dbe 07       		.byte	0x7
 2201 0dbf 0706     		.2byte	0x607
 2202 0dc1 1A020000 		.4byte	0x21a
 2203 0dc5 01       		.byte	0x1
 2204 0dc6 01       		.byte	0x1
 2205 0dc7 2A       		.uleb128 0x2a
 2206 0dc8 ED040000 		.4byte	.LASF185
 2207 0dcc 08       		.byte	0x8
 2208 0dcd 79       		.byte	0x79
 2209 0dce 39090000 		.4byte	0x939
 2210 0dd2 01       		.byte	0x1
 2211 0dd3 01       		.byte	0x1
ARM GAS  /tmp/ccQucLyg.s 			page 40


 2212 0dd4 29       		.uleb128 0x29
 2213 0dd5 1A060000 		.4byte	.LASF184
 2214 0dd9 07       		.byte	0x7
 2215 0dda 0706     		.2byte	0x607
 2216 0ddc 1A020000 		.4byte	0x21a
 2217 0de0 01       		.byte	0x1
 2218 0de1 01       		.byte	0x1
 2219 0de2 2A       		.uleb128 0x2a
 2220 0de3 ED040000 		.4byte	.LASF185
 2221 0de7 08       		.byte	0x8
 2222 0de8 79       		.byte	0x79
 2223 0de9 39090000 		.4byte	0x939
 2224 0ded 01       		.byte	0x1
 2225 0dee 01       		.byte	0x1
 2226 0def 00       		.byte	0
 2227              		.section	.debug_abbrev,"",%progbits
 2228              	.Ldebug_abbrev0:
 2229 0000 01       		.uleb128 0x1
 2230 0001 11       		.uleb128 0x11
 2231 0002 01       		.byte	0x1
 2232 0003 25       		.uleb128 0x25
 2233 0004 0E       		.uleb128 0xe
 2234 0005 13       		.uleb128 0x13
 2235 0006 0B       		.uleb128 0xb
 2236 0007 03       		.uleb128 0x3
 2237 0008 0E       		.uleb128 0xe
 2238 0009 1B       		.uleb128 0x1b
 2239 000a 0E       		.uleb128 0xe
 2240 000b 11       		.uleb128 0x11
 2241 000c 01       		.uleb128 0x1
 2242 000d 52       		.uleb128 0x52
 2243 000e 01       		.uleb128 0x1
 2244 000f 55       		.uleb128 0x55
 2245 0010 06       		.uleb128 0x6
 2246 0011 10       		.uleb128 0x10
 2247 0012 06       		.uleb128 0x6
 2248 0013 00       		.byte	0
 2249 0014 00       		.byte	0
 2250 0015 02       		.uleb128 0x2
 2251 0016 24       		.uleb128 0x24
 2252 0017 00       		.byte	0
 2253 0018 0B       		.uleb128 0xb
 2254 0019 0B       		.uleb128 0xb
 2255 001a 3E       		.uleb128 0x3e
 2256 001b 0B       		.uleb128 0xb
 2257 001c 03       		.uleb128 0x3
 2258 001d 08       		.uleb128 0x8
 2259 001e 00       		.byte	0
 2260 001f 00       		.byte	0
 2261 0020 03       		.uleb128 0x3
 2262 0021 24       		.uleb128 0x24
 2263 0022 00       		.byte	0
 2264 0023 0B       		.uleb128 0xb
 2265 0024 0B       		.uleb128 0xb
 2266 0025 3E       		.uleb128 0x3e
 2267 0026 0B       		.uleb128 0xb
 2268 0027 03       		.uleb128 0x3
ARM GAS  /tmp/ccQucLyg.s 			page 41


 2269 0028 0E       		.uleb128 0xe
 2270 0029 00       		.byte	0
 2271 002a 00       		.byte	0
 2272 002b 04       		.uleb128 0x4
 2273 002c 16       		.uleb128 0x16
 2274 002d 00       		.byte	0
 2275 002e 03       		.uleb128 0x3
 2276 002f 0E       		.uleb128 0xe
 2277 0030 3A       		.uleb128 0x3a
 2278 0031 0B       		.uleb128 0xb
 2279 0032 3B       		.uleb128 0x3b
 2280 0033 0B       		.uleb128 0xb
 2281 0034 49       		.uleb128 0x49
 2282 0035 13       		.uleb128 0x13
 2283 0036 00       		.byte	0
 2284 0037 00       		.byte	0
 2285 0038 05       		.uleb128 0x5
 2286 0039 0F       		.uleb128 0xf
 2287 003a 00       		.byte	0
 2288 003b 0B       		.uleb128 0xb
 2289 003c 0B       		.uleb128 0xb
 2290 003d 00       		.byte	0
 2291 003e 00       		.byte	0
 2292 003f 06       		.uleb128 0x6
 2293 0040 35       		.uleb128 0x35
 2294 0041 00       		.byte	0
 2295 0042 49       		.uleb128 0x49
 2296 0043 13       		.uleb128 0x13
 2297 0044 00       		.byte	0
 2298 0045 00       		.byte	0
 2299 0046 07       		.uleb128 0x7
 2300 0047 0F       		.uleb128 0xf
 2301 0048 00       		.byte	0
 2302 0049 0B       		.uleb128 0xb
 2303 004a 0B       		.uleb128 0xb
 2304 004b 49       		.uleb128 0x49
 2305 004c 13       		.uleb128 0x13
 2306 004d 00       		.byte	0
 2307 004e 00       		.byte	0
 2308 004f 08       		.uleb128 0x8
 2309 0050 04       		.uleb128 0x4
 2310 0051 01       		.byte	0x1
 2311 0052 03       		.uleb128 0x3
 2312 0053 0E       		.uleb128 0xe
 2313 0054 0B       		.uleb128 0xb
 2314 0055 0B       		.uleb128 0xb
 2315 0056 3A       		.uleb128 0x3a
 2316 0057 0B       		.uleb128 0xb
 2317 0058 3B       		.uleb128 0x3b
 2318 0059 0B       		.uleb128 0xb
 2319 005a 01       		.uleb128 0x1
 2320 005b 13       		.uleb128 0x13
 2321 005c 00       		.byte	0
 2322 005d 00       		.byte	0
 2323 005e 09       		.uleb128 0x9
 2324 005f 28       		.uleb128 0x28
 2325 0060 00       		.byte	0
ARM GAS  /tmp/ccQucLyg.s 			page 42


 2326 0061 03       		.uleb128 0x3
 2327 0062 0E       		.uleb128 0xe
 2328 0063 1C       		.uleb128 0x1c
 2329 0064 0D       		.uleb128 0xd
 2330 0065 00       		.byte	0
 2331 0066 00       		.byte	0
 2332 0067 0A       		.uleb128 0xa
 2333 0068 01       		.uleb128 0x1
 2334 0069 01       		.byte	0x1
 2335 006a 49       		.uleb128 0x49
 2336 006b 13       		.uleb128 0x13
 2337 006c 01       		.uleb128 0x1
 2338 006d 13       		.uleb128 0x13
 2339 006e 00       		.byte	0
 2340 006f 00       		.byte	0
 2341 0070 0B       		.uleb128 0xb
 2342 0071 21       		.uleb128 0x21
 2343 0072 00       		.byte	0
 2344 0073 49       		.uleb128 0x49
 2345 0074 13       		.uleb128 0x13
 2346 0075 2F       		.uleb128 0x2f
 2347 0076 0B       		.uleb128 0xb
 2348 0077 00       		.byte	0
 2349 0078 00       		.byte	0
 2350 0079 0C       		.uleb128 0xc
 2351 007a 13       		.uleb128 0x13
 2352 007b 01       		.byte	0x1
 2353 007c 0B       		.uleb128 0xb
 2354 007d 0B       		.uleb128 0xb
 2355 007e 3A       		.uleb128 0x3a
 2356 007f 0B       		.uleb128 0xb
 2357 0080 3B       		.uleb128 0x3b
 2358 0081 05       		.uleb128 0x5
 2359 0082 01       		.uleb128 0x1
 2360 0083 13       		.uleb128 0x13
 2361 0084 00       		.byte	0
 2362 0085 00       		.byte	0
 2363 0086 0D       		.uleb128 0xd
 2364 0087 0D       		.uleb128 0xd
 2365 0088 00       		.byte	0
 2366 0089 03       		.uleb128 0x3
 2367 008a 08       		.uleb128 0x8
 2368 008b 3A       		.uleb128 0x3a
 2369 008c 0B       		.uleb128 0xb
 2370 008d 3B       		.uleb128 0x3b
 2371 008e 05       		.uleb128 0x5
 2372 008f 49       		.uleb128 0x49
 2373 0090 13       		.uleb128 0x13
 2374 0091 38       		.uleb128 0x38
 2375 0092 0A       		.uleb128 0xa
 2376 0093 00       		.byte	0
 2377 0094 00       		.byte	0
 2378 0095 0E       		.uleb128 0xe
 2379 0096 0D       		.uleb128 0xd
 2380 0097 00       		.byte	0
 2381 0098 03       		.uleb128 0x3
 2382 0099 0E       		.uleb128 0xe
ARM GAS  /tmp/ccQucLyg.s 			page 43


 2383 009a 3A       		.uleb128 0x3a
 2384 009b 0B       		.uleb128 0xb
 2385 009c 3B       		.uleb128 0x3b
 2386 009d 05       		.uleb128 0x5
 2387 009e 49       		.uleb128 0x49
 2388 009f 13       		.uleb128 0x13
 2389 00a0 38       		.uleb128 0x38
 2390 00a1 0A       		.uleb128 0xa
 2391 00a2 00       		.byte	0
 2392 00a3 00       		.byte	0
 2393 00a4 0F       		.uleb128 0xf
 2394 00a5 16       		.uleb128 0x16
 2395 00a6 00       		.byte	0
 2396 00a7 03       		.uleb128 0x3
 2397 00a8 0E       		.uleb128 0xe
 2398 00a9 3A       		.uleb128 0x3a
 2399 00aa 0B       		.uleb128 0xb
 2400 00ab 3B       		.uleb128 0x3b
 2401 00ac 05       		.uleb128 0x5
 2402 00ad 49       		.uleb128 0x49
 2403 00ae 13       		.uleb128 0x13
 2404 00af 00       		.byte	0
 2405 00b0 00       		.byte	0
 2406 00b1 10       		.uleb128 0x10
 2407 00b2 13       		.uleb128 0x13
 2408 00b3 01       		.byte	0x1
 2409 00b4 0B       		.uleb128 0xb
 2410 00b5 05       		.uleb128 0x5
 2411 00b6 3A       		.uleb128 0x3a
 2412 00b7 0B       		.uleb128 0xb
 2413 00b8 3B       		.uleb128 0x3b
 2414 00b9 05       		.uleb128 0x5
 2415 00ba 01       		.uleb128 0x1
 2416 00bb 13       		.uleb128 0x13
 2417 00bc 00       		.byte	0
 2418 00bd 00       		.byte	0
 2419 00be 11       		.uleb128 0x11
 2420 00bf 13       		.uleb128 0x13
 2421 00c0 01       		.byte	0x1
 2422 00c1 03       		.uleb128 0x3
 2423 00c2 0E       		.uleb128 0xe
 2424 00c3 0B       		.uleb128 0xb
 2425 00c4 0B       		.uleb128 0xb
 2426 00c5 3A       		.uleb128 0x3a
 2427 00c6 0B       		.uleb128 0xb
 2428 00c7 3B       		.uleb128 0x3b
 2429 00c8 0B       		.uleb128 0xb
 2430 00c9 01       		.uleb128 0x1
 2431 00ca 13       		.uleb128 0x13
 2432 00cb 00       		.byte	0
 2433 00cc 00       		.byte	0
 2434 00cd 12       		.uleb128 0x12
 2435 00ce 0D       		.uleb128 0xd
 2436 00cf 00       		.byte	0
 2437 00d0 03       		.uleb128 0x3
 2438 00d1 0E       		.uleb128 0xe
 2439 00d2 3A       		.uleb128 0x3a
ARM GAS  /tmp/ccQucLyg.s 			page 44


 2440 00d3 0B       		.uleb128 0xb
 2441 00d4 3B       		.uleb128 0x3b
 2442 00d5 0B       		.uleb128 0xb
 2443 00d6 49       		.uleb128 0x49
 2444 00d7 13       		.uleb128 0x13
 2445 00d8 38       		.uleb128 0x38
 2446 00d9 0A       		.uleb128 0xa
 2447 00da 00       		.byte	0
 2448 00db 00       		.byte	0
 2449 00dc 13       		.uleb128 0x13
 2450 00dd 0D       		.uleb128 0xd
 2451 00de 00       		.byte	0
 2452 00df 49       		.uleb128 0x49
 2453 00e0 13       		.uleb128 0x13
 2454 00e1 38       		.uleb128 0x38
 2455 00e2 0A       		.uleb128 0xa
 2456 00e3 00       		.byte	0
 2457 00e4 00       		.byte	0
 2458 00e5 14       		.uleb128 0x14
 2459 00e6 0D       		.uleb128 0xd
 2460 00e7 00       		.byte	0
 2461 00e8 03       		.uleb128 0x3
 2462 00e9 08       		.uleb128 0x8
 2463 00ea 3A       		.uleb128 0x3a
 2464 00eb 0B       		.uleb128 0xb
 2465 00ec 3B       		.uleb128 0x3b
 2466 00ed 0B       		.uleb128 0xb
 2467 00ee 49       		.uleb128 0x49
 2468 00ef 13       		.uleb128 0x13
 2469 00f0 38       		.uleb128 0x38
 2470 00f1 0A       		.uleb128 0xa
 2471 00f2 00       		.byte	0
 2472 00f3 00       		.byte	0
 2473 00f4 15       		.uleb128 0x15
 2474 00f5 0D       		.uleb128 0xd
 2475 00f6 00       		.byte	0
 2476 00f7 03       		.uleb128 0x3
 2477 00f8 0E       		.uleb128 0xe
 2478 00f9 3A       		.uleb128 0x3a
 2479 00fa 0B       		.uleb128 0xb
 2480 00fb 3B       		.uleb128 0x3b
 2481 00fc 0B       		.uleb128 0xb
 2482 00fd 49       		.uleb128 0x49
 2483 00fe 13       		.uleb128 0x13
 2484 00ff 0B       		.uleb128 0xb
 2485 0100 0B       		.uleb128 0xb
 2486 0101 0D       		.uleb128 0xd
 2487 0102 0B       		.uleb128 0xb
 2488 0103 0C       		.uleb128 0xc
 2489 0104 0B       		.uleb128 0xb
 2490 0105 38       		.uleb128 0x38
 2491 0106 0A       		.uleb128 0xa
 2492 0107 00       		.byte	0
 2493 0108 00       		.byte	0
 2494 0109 16       		.uleb128 0x16
 2495 010a 15       		.uleb128 0x15
 2496 010b 01       		.byte	0x1
ARM GAS  /tmp/ccQucLyg.s 			page 45


 2497 010c 27       		.uleb128 0x27
 2498 010d 0C       		.uleb128 0xc
 2499 010e 01       		.uleb128 0x1
 2500 010f 13       		.uleb128 0x13
 2501 0110 00       		.byte	0
 2502 0111 00       		.byte	0
 2503 0112 17       		.uleb128 0x17
 2504 0113 05       		.uleb128 0x5
 2505 0114 00       		.byte	0
 2506 0115 49       		.uleb128 0x49
 2507 0116 13       		.uleb128 0x13
 2508 0117 00       		.byte	0
 2509 0118 00       		.byte	0
 2510 0119 18       		.uleb128 0x18
 2511 011a 04       		.uleb128 0x4
 2512 011b 01       		.byte	0x1
 2513 011c 0B       		.uleb128 0xb
 2514 011d 0B       		.uleb128 0xb
 2515 011e 3A       		.uleb128 0x3a
 2516 011f 0B       		.uleb128 0xb
 2517 0120 3B       		.uleb128 0x3b
 2518 0121 0B       		.uleb128 0xb
 2519 0122 01       		.uleb128 0x1
 2520 0123 13       		.uleb128 0x13
 2521 0124 00       		.byte	0
 2522 0125 00       		.byte	0
 2523 0126 19       		.uleb128 0x19
 2524 0127 13       		.uleb128 0x13
 2525 0128 01       		.byte	0x1
 2526 0129 0B       		.uleb128 0xb
 2527 012a 0B       		.uleb128 0xb
 2528 012b 3A       		.uleb128 0x3a
 2529 012c 0B       		.uleb128 0xb
 2530 012d 3B       		.uleb128 0x3b
 2531 012e 0B       		.uleb128 0xb
 2532 012f 01       		.uleb128 0x1
 2533 0130 13       		.uleb128 0x13
 2534 0131 00       		.byte	0
 2535 0132 00       		.byte	0
 2536 0133 1A       		.uleb128 0x1a
 2537 0134 0D       		.uleb128 0xd
 2538 0135 00       		.byte	0
 2539 0136 03       		.uleb128 0x3
 2540 0137 08       		.uleb128 0x8
 2541 0138 3A       		.uleb128 0x3a
 2542 0139 0B       		.uleb128 0xb
 2543 013a 3B       		.uleb128 0x3b
 2544 013b 0B       		.uleb128 0xb
 2545 013c 49       		.uleb128 0x49
 2546 013d 13       		.uleb128 0x13
 2547 013e 0B       		.uleb128 0xb
 2548 013f 0B       		.uleb128 0xb
 2549 0140 0D       		.uleb128 0xd
 2550 0141 0B       		.uleb128 0xb
 2551 0142 0C       		.uleb128 0xc
 2552 0143 0B       		.uleb128 0xb
 2553 0144 38       		.uleb128 0x38
ARM GAS  /tmp/ccQucLyg.s 			page 46


 2554 0145 0A       		.uleb128 0xa
 2555 0146 00       		.byte	0
 2556 0147 00       		.byte	0
 2557 0148 1B       		.uleb128 0x1b
 2558 0149 17       		.uleb128 0x17
 2559 014a 01       		.byte	0x1
 2560 014b 0B       		.uleb128 0xb
 2561 014c 0B       		.uleb128 0xb
 2562 014d 3A       		.uleb128 0x3a
 2563 014e 0B       		.uleb128 0xb
 2564 014f 3B       		.uleb128 0x3b
 2565 0150 0B       		.uleb128 0xb
 2566 0151 01       		.uleb128 0x1
 2567 0152 13       		.uleb128 0x13
 2568 0153 00       		.byte	0
 2569 0154 00       		.byte	0
 2570 0155 1C       		.uleb128 0x1c
 2571 0156 0D       		.uleb128 0xd
 2572 0157 00       		.byte	0
 2573 0158 49       		.uleb128 0x49
 2574 0159 13       		.uleb128 0x13
 2575 015a 00       		.byte	0
 2576 015b 00       		.byte	0
 2577 015c 1D       		.uleb128 0x1d
 2578 015d 26       		.uleb128 0x26
 2579 015e 00       		.byte	0
 2580 015f 49       		.uleb128 0x49
 2581 0160 13       		.uleb128 0x13
 2582 0161 00       		.byte	0
 2583 0162 00       		.byte	0
 2584 0163 1E       		.uleb128 0x1e
 2585 0164 2E       		.uleb128 0x2e
 2586 0165 00       		.byte	0
 2587 0166 3F       		.uleb128 0x3f
 2588 0167 0C       		.uleb128 0xc
 2589 0168 03       		.uleb128 0x3
 2590 0169 0E       		.uleb128 0xe
 2591 016a 3A       		.uleb128 0x3a
 2592 016b 0B       		.uleb128 0xb
 2593 016c 3B       		.uleb128 0x3b
 2594 016d 0B       		.uleb128 0xb
 2595 016e 27       		.uleb128 0x27
 2596 016f 0C       		.uleb128 0xc
 2597 0170 11       		.uleb128 0x11
 2598 0171 01       		.uleb128 0x1
 2599 0172 12       		.uleb128 0x12
 2600 0173 01       		.uleb128 0x1
 2601 0174 40       		.uleb128 0x40
 2602 0175 06       		.uleb128 0x6
 2603 0176 00       		.byte	0
 2604 0177 00       		.byte	0
 2605 0178 1F       		.uleb128 0x1f
 2606 0179 2E       		.uleb128 0x2e
 2607 017a 00       		.byte	0
 2608 017b 3F       		.uleb128 0x3f
 2609 017c 0C       		.uleb128 0xc
 2610 017d 03       		.uleb128 0x3
ARM GAS  /tmp/ccQucLyg.s 			page 47


 2611 017e 0E       		.uleb128 0xe
 2612 017f 3A       		.uleb128 0x3a
 2613 0180 0B       		.uleb128 0xb
 2614 0181 3B       		.uleb128 0x3b
 2615 0182 0B       		.uleb128 0xb
 2616 0183 27       		.uleb128 0x27
 2617 0184 0C       		.uleb128 0xc
 2618 0185 11       		.uleb128 0x11
 2619 0186 01       		.uleb128 0x1
 2620 0187 12       		.uleb128 0x12
 2621 0188 01       		.uleb128 0x1
 2622 0189 40       		.uleb128 0x40
 2623 018a 0A       		.uleb128 0xa
 2624 018b 00       		.byte	0
 2625 018c 00       		.byte	0
 2626 018d 20       		.uleb128 0x20
 2627 018e 2E       		.uleb128 0x2e
 2628 018f 01       		.byte	0x1
 2629 0190 3F       		.uleb128 0x3f
 2630 0191 0C       		.uleb128 0xc
 2631 0192 03       		.uleb128 0x3
 2632 0193 0E       		.uleb128 0xe
 2633 0194 3A       		.uleb128 0x3a
 2634 0195 0B       		.uleb128 0xb
 2635 0196 3B       		.uleb128 0x3b
 2636 0197 0B       		.uleb128 0xb
 2637 0198 27       		.uleb128 0x27
 2638 0199 0C       		.uleb128 0xc
 2639 019a 11       		.uleb128 0x11
 2640 019b 01       		.uleb128 0x1
 2641 019c 12       		.uleb128 0x12
 2642 019d 01       		.uleb128 0x1
 2643 019e 40       		.uleb128 0x40
 2644 019f 06       		.uleb128 0x6
 2645 01a0 01       		.uleb128 0x1
 2646 01a1 13       		.uleb128 0x13
 2647 01a2 00       		.byte	0
 2648 01a3 00       		.byte	0
 2649 01a4 21       		.uleb128 0x21
 2650 01a5 05       		.uleb128 0x5
 2651 01a6 00       		.byte	0
 2652 01a7 03       		.uleb128 0x3
 2653 01a8 0E       		.uleb128 0xe
 2654 01a9 3A       		.uleb128 0x3a
 2655 01aa 0B       		.uleb128 0xb
 2656 01ab 3B       		.uleb128 0x3b
 2657 01ac 0B       		.uleb128 0xb
 2658 01ad 49       		.uleb128 0x49
 2659 01ae 13       		.uleb128 0x13
 2660 01af 02       		.uleb128 0x2
 2661 01b0 06       		.uleb128 0x6
 2662 01b1 00       		.byte	0
 2663 01b2 00       		.byte	0
 2664 01b3 22       		.uleb128 0x22
 2665 01b4 34       		.uleb128 0x34
 2666 01b5 00       		.byte	0
 2667 01b6 03       		.uleb128 0x3
ARM GAS  /tmp/ccQucLyg.s 			page 48


 2668 01b7 08       		.uleb128 0x8
 2669 01b8 3A       		.uleb128 0x3a
 2670 01b9 0B       		.uleb128 0xb
 2671 01ba 3B       		.uleb128 0x3b
 2672 01bb 0B       		.uleb128 0xb
 2673 01bc 49       		.uleb128 0x49
 2674 01bd 13       		.uleb128 0x13
 2675 01be 02       		.uleb128 0x2
 2676 01bf 06       		.uleb128 0x6
 2677 01c0 00       		.byte	0
 2678 01c1 00       		.byte	0
 2679 01c2 23       		.uleb128 0x23
 2680 01c3 34       		.uleb128 0x34
 2681 01c4 00       		.byte	0
 2682 01c5 03       		.uleb128 0x3
 2683 01c6 0E       		.uleb128 0xe
 2684 01c7 3A       		.uleb128 0x3a
 2685 01c8 0B       		.uleb128 0xb
 2686 01c9 3B       		.uleb128 0x3b
 2687 01ca 0B       		.uleb128 0xb
 2688 01cb 49       		.uleb128 0x49
 2689 01cc 13       		.uleb128 0x13
 2690 01cd 1C       		.uleb128 0x1c
 2691 01ce 06       		.uleb128 0x6
 2692 01cf 00       		.byte	0
 2693 01d0 00       		.byte	0
 2694 01d1 24       		.uleb128 0x24
 2695 01d2 34       		.uleb128 0x34
 2696 01d3 00       		.byte	0
 2697 01d4 03       		.uleb128 0x3
 2698 01d5 08       		.uleb128 0x8
 2699 01d6 3A       		.uleb128 0x3a
 2700 01d7 0B       		.uleb128 0xb
 2701 01d8 3B       		.uleb128 0x3b
 2702 01d9 0B       		.uleb128 0xb
 2703 01da 49       		.uleb128 0x49
 2704 01db 13       		.uleb128 0x13
 2705 01dc 02       		.uleb128 0x2
 2706 01dd 0A       		.uleb128 0xa
 2707 01de 00       		.byte	0
 2708 01df 00       		.byte	0
 2709 01e0 25       		.uleb128 0x25
 2710 01e1 2E       		.uleb128 0x2e
 2711 01e2 01       		.byte	0x1
 2712 01e3 3F       		.uleb128 0x3f
 2713 01e4 0C       		.uleb128 0xc
 2714 01e5 03       		.uleb128 0x3
 2715 01e6 0E       		.uleb128 0xe
 2716 01e7 3A       		.uleb128 0x3a
 2717 01e8 0B       		.uleb128 0xb
 2718 01e9 3B       		.uleb128 0x3b
 2719 01ea 0B       		.uleb128 0xb
 2720 01eb 27       		.uleb128 0x27
 2721 01ec 0C       		.uleb128 0xc
 2722 01ed 11       		.uleb128 0x11
 2723 01ee 01       		.uleb128 0x1
 2724 01ef 12       		.uleb128 0x12
ARM GAS  /tmp/ccQucLyg.s 			page 49


 2725 01f0 01       		.uleb128 0x1
 2726 01f1 40       		.uleb128 0x40
 2727 01f2 0A       		.uleb128 0xa
 2728 01f3 01       		.uleb128 0x1
 2729 01f4 13       		.uleb128 0x13
 2730 01f5 00       		.byte	0
 2731 01f6 00       		.byte	0
 2732 01f7 26       		.uleb128 0x26
 2733 01f8 05       		.uleb128 0x5
 2734 01f9 00       		.byte	0
 2735 01fa 03       		.uleb128 0x3
 2736 01fb 0E       		.uleb128 0xe
 2737 01fc 3A       		.uleb128 0x3a
 2738 01fd 0B       		.uleb128 0xb
 2739 01fe 3B       		.uleb128 0x3b
 2740 01ff 0B       		.uleb128 0xb
 2741 0200 49       		.uleb128 0x49
 2742 0201 13       		.uleb128 0x13
 2743 0202 02       		.uleb128 0x2
 2744 0203 0A       		.uleb128 0xa
 2745 0204 00       		.byte	0
 2746 0205 00       		.byte	0
 2747 0206 27       		.uleb128 0x27
 2748 0207 2E       		.uleb128 0x2e
 2749 0208 01       		.byte	0x1
 2750 0209 3F       		.uleb128 0x3f
 2751 020a 0C       		.uleb128 0xc
 2752 020b 03       		.uleb128 0x3
 2753 020c 0E       		.uleb128 0xe
 2754 020d 3A       		.uleb128 0x3a
 2755 020e 0B       		.uleb128 0xb
 2756 020f 3B       		.uleb128 0x3b
 2757 0210 0B       		.uleb128 0xb
 2758 0211 27       		.uleb128 0x27
 2759 0212 0C       		.uleb128 0xc
 2760 0213 49       		.uleb128 0x49
 2761 0214 13       		.uleb128 0x13
 2762 0215 11       		.uleb128 0x11
 2763 0216 01       		.uleb128 0x1
 2764 0217 12       		.uleb128 0x12
 2765 0218 01       		.uleb128 0x1
 2766 0219 40       		.uleb128 0x40
 2767 021a 0A       		.uleb128 0xa
 2768 021b 01       		.uleb128 0x1
 2769 021c 13       		.uleb128 0x13
 2770 021d 00       		.byte	0
 2771 021e 00       		.byte	0
 2772 021f 28       		.uleb128 0x28
 2773 0220 05       		.uleb128 0x5
 2774 0221 00       		.byte	0
 2775 0222 03       		.uleb128 0x3
 2776 0223 08       		.uleb128 0x8
 2777 0224 3A       		.uleb128 0x3a
 2778 0225 0B       		.uleb128 0xb
 2779 0226 3B       		.uleb128 0x3b
 2780 0227 0B       		.uleb128 0xb
 2781 0228 49       		.uleb128 0x49
ARM GAS  /tmp/ccQucLyg.s 			page 50


 2782 0229 13       		.uleb128 0x13
 2783 022a 02       		.uleb128 0x2
 2784 022b 0A       		.uleb128 0xa
 2785 022c 00       		.byte	0
 2786 022d 00       		.byte	0
 2787 022e 29       		.uleb128 0x29
 2788 022f 34       		.uleb128 0x34
 2789 0230 00       		.byte	0
 2790 0231 03       		.uleb128 0x3
 2791 0232 0E       		.uleb128 0xe
 2792 0233 3A       		.uleb128 0x3a
 2793 0234 0B       		.uleb128 0xb
 2794 0235 3B       		.uleb128 0x3b
 2795 0236 05       		.uleb128 0x5
 2796 0237 49       		.uleb128 0x49
 2797 0238 13       		.uleb128 0x13
 2798 0239 3F       		.uleb128 0x3f
 2799 023a 0C       		.uleb128 0xc
 2800 023b 3C       		.uleb128 0x3c
 2801 023c 0C       		.uleb128 0xc
 2802 023d 00       		.byte	0
 2803 023e 00       		.byte	0
 2804 023f 2A       		.uleb128 0x2a
 2805 0240 34       		.uleb128 0x34
 2806 0241 00       		.byte	0
 2807 0242 03       		.uleb128 0x3
 2808 0243 0E       		.uleb128 0xe
 2809 0244 3A       		.uleb128 0x3a
 2810 0245 0B       		.uleb128 0xb
 2811 0246 3B       		.uleb128 0x3b
 2812 0247 0B       		.uleb128 0xb
 2813 0248 49       		.uleb128 0x49
 2814 0249 13       		.uleb128 0x13
 2815 024a 3F       		.uleb128 0x3f
 2816 024b 0C       		.uleb128 0xc
 2817 024c 3C       		.uleb128 0x3c
 2818 024d 0C       		.uleb128 0xc
 2819 024e 00       		.byte	0
 2820 024f 00       		.byte	0
 2821 0250 00       		.byte	0
 2822              		.section	.debug_loc,"",%progbits
 2823              	.Ldebug_loc0:
 2824              	.LLST0:
 2825 0000 00000000 		.4byte	.LFB63
 2826 0004 02000000 		.4byte	.LCFI0
 2827 0008 0200     		.2byte	0x2
 2828 000a 7D       		.byte	0x7d
 2829 000b 00       		.sleb128 0
 2830 000c 02000000 		.4byte	.LCFI0
 2831 0010 2A000000 		.4byte	.LFE63
 2832 0014 0200     		.2byte	0x2
 2833 0016 7D       		.byte	0x7d
 2834 0017 08       		.sleb128 8
 2835 0018 00000000 		.4byte	0
 2836 001c 00000000 		.4byte	0
 2837              	.LLST1:
 2838 0020 00000000 		.4byte	.LFB65
ARM GAS  /tmp/ccQucLyg.s 			page 51


 2839 0024 02000000 		.4byte	.LCFI1
 2840 0028 0200     		.2byte	0x2
 2841 002a 7D       		.byte	0x7d
 2842 002b 00       		.sleb128 0
 2843 002c 02000000 		.4byte	.LCFI1
 2844 0030 50000000 		.4byte	.LFE65
 2845 0034 0200     		.2byte	0x2
 2846 0036 7D       		.byte	0x7d
 2847 0037 10       		.sleb128 16
 2848 0038 00000000 		.4byte	0
 2849 003c 00000000 		.4byte	0
 2850              	.LLST2:
 2851 0040 00000000 		.4byte	.LVL0
 2852 0044 24000000 		.4byte	.LVL2
 2853 0048 0100     		.2byte	0x1
 2854 004a 50       		.byte	0x50
 2855 004b 00000000 		.4byte	0
 2856 004f 00000000 		.4byte	0
 2857              	.LLST3:
 2858 0053 16000000 		.4byte	.LVL1
 2859 0057 24000000 		.4byte	.LVL2
 2860 005b 0300     		.2byte	0x3
 2861 005d 70       		.byte	0x70
 2862 005e E400     		.sleb128 100
 2863 0060 24000000 		.4byte	.LVL2
 2864 0064 33000000 		.4byte	.LVL3-1
 2865 0068 0300     		.2byte	0x3
 2866 006a 76       		.byte	0x76
 2867 006b E400     		.sleb128 100
 2868 006d 33000000 		.4byte	.LVL3-1
 2869 0071 50000000 		.4byte	.LFE65
 2870 0075 0100     		.2byte	0x1
 2871 0077 54       		.byte	0x54
 2872 0078 00000000 		.4byte	0
 2873 007c 00000000 		.4byte	0
 2874              	.LLST4:
 2875 0080 00000000 		.4byte	.LFB66
 2876 0084 06000000 		.4byte	.LCFI2
 2877 0088 0200     		.2byte	0x2
 2878 008a 7D       		.byte	0x7d
 2879 008b 00       		.sleb128 0
 2880 008c 06000000 		.4byte	.LCFI2
 2881 0090 24000000 		.4byte	.LFE66
 2882 0094 0200     		.2byte	0x2
 2883 0096 7D       		.byte	0x7d
 2884 0097 08       		.sleb128 8
 2885 0098 00000000 		.4byte	0
 2886 009c 00000000 		.4byte	0
 2887              	.LLST5:
 2888 00a0 00000000 		.4byte	.LVL5
 2889 00a4 08000000 		.4byte	.LVL7
 2890 00a8 0100     		.2byte	0x1
 2891 00aa 50       		.byte	0x50
 2892 00ab 00000000 		.4byte	0
 2893 00af 00000000 		.4byte	0
 2894              	.LLST6:
 2895 00b3 02000000 		.4byte	.LVL6
ARM GAS  /tmp/ccQucLyg.s 			page 52


 2896 00b7 08000000 		.4byte	.LVL7
 2897 00bb 0300     		.2byte	0x3
 2898 00bd 70       		.byte	0x70
 2899 00be E400     		.sleb128 100
 2900 00c0 08000000 		.4byte	.LVL7
 2901 00c4 11000000 		.4byte	.LVL8-1
 2902 00c8 0100     		.2byte	0x1
 2903 00ca 52       		.byte	0x52
 2904 00cb 00000000 		.4byte	0
 2905 00cf 00000000 		.4byte	0
 2906              	.LLST7:
 2907 00d3 00000000 		.4byte	.LVL9
 2908 00d7 06000000 		.4byte	.LVL11
 2909 00db 0100     		.2byte	0x1
 2910 00dd 50       		.byte	0x50
 2911 00de 00000000 		.4byte	0
 2912 00e2 00000000 		.4byte	0
 2913              	.LLST8:
 2914 00e6 02000000 		.4byte	.LVL10
 2915 00ea 06000000 		.4byte	.LVL11
 2916 00ee 0300     		.2byte	0x3
 2917 00f0 70       		.byte	0x70
 2918 00f1 E400     		.sleb128 100
 2919 00f3 06000000 		.4byte	.LVL11
 2920 00f7 14000000 		.4byte	.LFE67
 2921 00fb 0100     		.2byte	0x1
 2922 00fd 53       		.byte	0x53
 2923 00fe 00000000 		.4byte	0
 2924 0102 00000000 		.4byte	0
 2925              	.LLST9:
 2926 0106 00000000 		.4byte	.LVL14
 2927 010a 04000000 		.4byte	.LVL16
 2928 010e 0100     		.2byte	0x1
 2929 0110 50       		.byte	0x50
 2930 0111 00000000 		.4byte	0
 2931 0115 00000000 		.4byte	0
 2932              	.LLST10:
 2933 0119 00000000 		.4byte	.LVL14
 2934 011d 06000000 		.4byte	.LVL17
 2935 0121 0100     		.2byte	0x1
 2936 0123 51       		.byte	0x51
 2937 0124 00000000 		.4byte	0
 2938 0128 00000000 		.4byte	0
 2939              	.LLST11:
 2940 012c 02000000 		.4byte	.LVL15
 2941 0130 04000000 		.4byte	.LVL16
 2942 0134 0300     		.2byte	0x3
 2943 0136 70       		.byte	0x70
 2944 0137 E400     		.sleb128 100
 2945 0139 04000000 		.4byte	.LVL16
 2946 013d 0A000000 		.4byte	.LFE69
 2947 0141 0100     		.2byte	0x1
 2948 0143 53       		.byte	0x53
 2949 0144 00000000 		.4byte	0
 2950 0148 00000000 		.4byte	0
 2951              	.LLST12:
 2952 014c 00000000 		.4byte	.LVL18
ARM GAS  /tmp/ccQucLyg.s 			page 53


 2953 0150 06000000 		.4byte	.LVL20
 2954 0154 0100     		.2byte	0x1
 2955 0156 50       		.byte	0x50
 2956 0157 00000000 		.4byte	0
 2957 015b 00000000 		.4byte	0
 2958              	.LLST13:
 2959 015f 02000000 		.4byte	.LVL19
 2960 0163 06000000 		.4byte	.LVL20
 2961 0167 0300     		.2byte	0x3
 2962 0169 70       		.byte	0x70
 2963 016a E400     		.sleb128 100
 2964 016c 06000000 		.4byte	.LVL20
 2965 0170 0A000000 		.4byte	.LFE70
 2966 0174 0100     		.2byte	0x1
 2967 0176 53       		.byte	0x53
 2968 0177 00000000 		.4byte	0
 2969 017b 00000000 		.4byte	0
 2970              	.LLST14:
 2971 017f 00000000 		.4byte	.LVL21
 2972 0183 04000000 		.4byte	.LVL23
 2973 0187 0100     		.2byte	0x1
 2974 0189 50       		.byte	0x50
 2975 018a 00000000 		.4byte	0
 2976 018e 00000000 		.4byte	0
 2977              	.LLST15:
 2978 0192 02000000 		.4byte	.LVL22
 2979 0196 04000000 		.4byte	.LVL23
 2980 019a 0300     		.2byte	0x3
 2981 019c 70       		.byte	0x70
 2982 019d E400     		.sleb128 100
 2983 019f 04000000 		.4byte	.LVL23
 2984 01a3 08000000 		.4byte	.LFE71
 2985 01a7 0100     		.2byte	0x1
 2986 01a9 53       		.byte	0x53
 2987 01aa 00000000 		.4byte	0
 2988 01ae 00000000 		.4byte	0
 2989              		.section	.debug_aranges,"",%progbits
 2990 0000 64000000 		.4byte	0x64
 2991 0004 0200     		.2byte	0x2
 2992 0006 00000000 		.4byte	.Ldebug_info0
 2993 000a 04       		.byte	0x4
 2994 000b 00       		.byte	0
 2995 000c 0000     		.2byte	0
 2996 000e 0000     		.2byte	0
 2997 0010 00000000 		.4byte	.LFB63
 2998 0014 2A000000 		.4byte	.LFE63-.LFB63
 2999 0018 00000000 		.4byte	.LFB64
 3000 001c 14000000 		.4byte	.LFE64-.LFB64
 3001 0020 00000000 		.4byte	.LFB65
 3002 0024 50000000 		.4byte	.LFE65-.LFB65
 3003 0028 00000000 		.4byte	.LFB66
 3004 002c 24000000 		.4byte	.LFE66-.LFB66
 3005 0030 00000000 		.4byte	.LFB67
 3006 0034 14000000 		.4byte	.LFE67-.LFB67
 3007 0038 00000000 		.4byte	.LFB68
 3008 003c 0C000000 		.4byte	.LFE68-.LFB68
 3009 0040 00000000 		.4byte	.LFB69
ARM GAS  /tmp/ccQucLyg.s 			page 54


 3010 0044 0A000000 		.4byte	.LFE69-.LFB69
 3011 0048 00000000 		.4byte	.LFB70
 3012 004c 0A000000 		.4byte	.LFE70-.LFB70
 3013 0050 00000000 		.4byte	.LFB71
 3014 0054 08000000 		.4byte	.LFE71-.LFB71
 3015 0058 00000000 		.4byte	.LFB72
 3016 005c 06000000 		.4byte	.LFE72-.LFB72
 3017 0060 00000000 		.4byte	0
 3018 0064 00000000 		.4byte	0
 3019              		.section	.debug_ranges,"",%progbits
 3020              	.Ldebug_ranges0:
 3021 0000 00000000 		.4byte	.LFB63
 3022 0004 2A000000 		.4byte	.LFE63
 3023 0008 00000000 		.4byte	.LFB64
 3024 000c 14000000 		.4byte	.LFE64
 3025 0010 00000000 		.4byte	.LFB65
 3026 0014 50000000 		.4byte	.LFE65
 3027 0018 00000000 		.4byte	.LFB66
 3028 001c 24000000 		.4byte	.LFE66
 3029 0020 00000000 		.4byte	.LFB67
 3030 0024 14000000 		.4byte	.LFE67
 3031 0028 00000000 		.4byte	.LFB68
 3032 002c 0C000000 		.4byte	.LFE68
 3033 0030 00000000 		.4byte	.LFB69
 3034 0034 0A000000 		.4byte	.LFE69
 3035 0038 00000000 		.4byte	.LFB70
 3036 003c 0A000000 		.4byte	.LFE70
 3037 0040 00000000 		.4byte	.LFB71
 3038 0044 08000000 		.4byte	.LFE71
 3039 0048 00000000 		.4byte	.LFB72
 3040 004c 06000000 		.4byte	.LFE72
 3041 0050 00000000 		.4byte	0
 3042 0054 00000000 		.4byte	0
 3043              		.section	.debug_line,"",%progbits
 3044              	.Ldebug_line0:
 3045 0000 7F020000 		.section	.debug_str,"MS",%progbits,1
 3045      02009401 
 3045      00000201 
 3045      FB0E0D00 
 3045      01010101 
 3046              	.LASF24:
 3047 0000 5056445F 		.ascii	"PVD_IRQn\000"
 3047      4952516E 
 3047      00
 3048              	.LASF100:
 3049 0009 44494552 		.ascii	"DIER\000"
 3049      00
 3050              	.LASF49:
 3051 000e 54494D31 		.ascii	"TIM1_TRG_COM_IRQn\000"
 3051      5F545247 
 3051      5F434F4D 
 3051      5F495251 
 3051      6E00
 3052              	.LASF126:
 3053 0020 6E657874 		.ascii	"next\000"
 3053      00
 3054              	.LASF46:
ARM GAS  /tmp/ccQucLyg.s 			page 55


 3055 0025 45585449 		.ascii	"EXTI9_5_IRQn\000"
 3055      395F355F 
 3055      4952516E 
 3055      00
 3056              	.LASF78:
 3057 0032 7354784D 		.ascii	"sTxMailBox\000"
 3057      61696C42 
 3057      6F7800
 3058              	.LASF134:
 3059 003d 52544341 		.ascii	"RTCAN_STOP\000"
 3059      4E5F5354 
 3059      4F5000
 3060              	.LASF176:
 3061 0048 72746361 		.ascii	"rtcanp\000"
 3061      6E7000
 3062              	.LASF54:
 3063 004f 49324331 		.ascii	"I2C1_EV_IRQn\000"
 3063      5F45565F 
 3063      4952516E 
 3063      00
 3064              	.LASF90:
 3065 005c 43414E5F 		.ascii	"CAN_TypeDef\000"
 3065      54797065 
 3065      44656600 
 3066              	.LASF124:
 3067 0068 54494D5F 		.ascii	"TIM_TypeDef\000"
 3067      54797065 
 3067      44656600 
 3068              	.LASF164:
 3069 0074 70657269 		.ascii	"period\000"
 3069      6F6400
 3070              	.LASF44:
 3071 007b 43414E31 		.ascii	"CAN1_RX1_IRQn\000"
 3071      5F525831 
 3071      5F495251 
 3071      6E00
 3072              	.LASF113:
 3073 0089 43435232 		.ascii	"CCR2\000"
 3073      00
 3074              	.LASF131:
 3075 008e 64617461 		.ascii	"data\000"
 3075      00
 3076              	.LASF64:
 3077 0093 5254435F 		.ascii	"RTC_Alarm_IRQn\000"
 3077      416C6172 
 3077      6D5F4952 
 3077      516E00
 3078              	.LASF151:
 3079 00a2 52544341 		.ascii	"RTCANDriver\000"
 3079      4E447269 
 3079      76657200 
 3080              	.LASF53:
 3081 00ae 54494D34 		.ascii	"TIM4_IRQn\000"
 3081      5F495251 
 3081      6E00
 3082              	.LASF31:
 3083 00b8 45585449 		.ascii	"EXTI2_IRQn\000"
ARM GAS  /tmp/ccQucLyg.s 			page 56


 3083      325F4952 
 3083      516E00
 3084              	.LASF23:
 3085 00c3 57574447 		.ascii	"WWDG_IRQn\000"
 3085      5F495251 
 3085      6E00
 3086              	.LASF101:
 3087 00cd 43434D52 		.ascii	"CCMR1\000"
 3087      3100
 3088              	.LASF103:
 3089 00d3 43434D52 		.ascii	"CCMR2\000"
 3089      3200
 3090              	.LASF11:
 3091 00d9 6C6F6E67 		.ascii	"long long int\000"
 3091      206C6F6E 
 3091      6720696E 
 3091      7400
 3092              	.LASF1:
 3093 00e7 7369676E 		.ascii	"signed char\000"
 3093      65642063 
 3093      68617200 
 3094              	.LASF127:
 3095 00f3 73746174 		.ascii	"status\000"
 3095      757300
 3096              	.LASF29:
 3097 00fa 45585449 		.ascii	"EXTI0_IRQn\000"
 3097      305F4952 
 3097      516E00
 3098              	.LASF12:
 3099 0105 6C6F6E67 		.ascii	"long long unsigned int\000"
 3099      206C6F6E 
 3099      6720756E 
 3099      7369676E 
 3099      65642069 
 3100              	.LASF168:
 3101 011c 62617564 		.ascii	"baudrate\000"
 3101      72617465 
 3101      00
 3102              	.LASF108:
 3103 0125 52455345 		.ascii	"RESERVED10\000"
 3103      52564544 
 3103      313000
 3104              	.LASF109:
 3105 0130 52455345 		.ascii	"RESERVED11\000"
 3105      52564544 
 3105      313100
 3106              	.LASF110:
 3107 013b 52455345 		.ascii	"RESERVED12\000"
 3107      52564544 
 3107      313200
 3108              	.LASF112:
 3109 0146 52455345 		.ascii	"RESERVED13\000"
 3109      52564544 
 3109      313300
 3110              	.LASF114:
 3111 0151 52455345 		.ascii	"RESERVED14\000"
 3111      52564544 
ARM GAS  /tmp/ccQucLyg.s 			page 57


 3111      313400
 3112              	.LASF116:
 3113 015c 52455345 		.ascii	"RESERVED15\000"
 3113      52564544 
 3113      313500
 3114              	.LASF118:
 3115 0167 52455345 		.ascii	"RESERVED16\000"
 3115      52564544 
 3115      313600
 3116              	.LASF120:
 3117 0172 52455345 		.ascii	"RESERVED17\000"
 3117      52564544 
 3117      313700
 3118              	.LASF121:
 3119 017d 52455345 		.ascii	"RESERVED18\000"
 3119      52564544 
 3119      313800
 3120              	.LASF152:
 3121 0188 73746174 		.ascii	"state\000"
 3121      6500
 3122              	.LASF67:
 3123 018e 54444C52 		.ascii	"TDLR\000"
 3123      00
 3124              	.LASF8:
 3125 0193 6C6F6E67 		.ascii	"long int\000"
 3125      20696E74 
 3125      00
 3126              	.LASF186:
 3127 019c 474E5520 		.ascii	"GNU C 4.6.2 20120613 (release) [ARM/embedded-4_6-br"
 3127      4320342E 
 3127      362E3220 
 3127      32303132 
 3127      30363133 
 3128 01cf 616E6368 		.ascii	"anch revision 188521]\000"
 3128      20726576 
 3128      6973696F 
 3128      6E203138 
 3128      38353231 
 3129              	.LASF188:
 3130 01e5 2F686F6D 		.ascii	"/home/tino/workspace/openrobots/R2P_IR_module/fw\000"
 3130      652F7469 
 3130      6E6F2F77 
 3130      6F726B73 
 3130      70616365 
 3131              	.LASF69:
 3132 0216 43414E5F 		.ascii	"CAN_TxMailBox_TypeDef\000"
 3132      54784D61 
 3132      696C426F 
 3132      785F5479 
 3132      70654465 
 3133              	.LASF137:
 3134 022c 52544341 		.ascii	"RTCAN_SYNCING\000"
 3134      4E5F5359 
 3134      4E43494E 
 3134      4700
 3135              	.LASF105:
 3136 023a 43434552 		.ascii	"CCER\000"
ARM GAS  /tmp/ccQucLyg.s 			page 58


 3136      00
 3137              	.LASF129:
 3138 023f 70617261 		.ascii	"params\000"
 3138      6D7300
 3139              	.LASF181:
 3140 0246 72746361 		.ascii	"rtcan_lld_tim_get_interval\000"
 3140      6E5F6C6C 
 3140      645F7469 
 3140      6D5F6765 
 3140      745F696E 
 3141              	.LASF187:
 3142 0261 2E2E2F2E 		.ascii	"../../RTCAN/platforms/STM32/rtcan_lld_tim.c\000"
 3142      2E2F5254 
 3142      43414E2F 
 3142      706C6174 
 3142      666F726D 
 3143              	.LASF136:
 3144 028d 52544341 		.ascii	"RTCAN_ERROR\000"
 3144      4E5F4552 
 3144      524F5200 
 3145              	.LASF21:
 3146 0299 50656E64 		.ascii	"PendSV_IRQn\000"
 3146      53565F49 
 3146      52516E00 
 3147              	.LASF172:
 3148 02a5 56656374 		.ascii	"VectorB4\000"
 3148      6F724234 
 3148      00
 3149              	.LASF75:
 3150 02ae 52463052 		.ascii	"RF0R\000"
 3150      00
 3151              	.LASF180:
 3152 02b3 696E7465 		.ascii	"interval\000"
 3152      7276616C 
 3152      00
 3153              	.LASF17:
 3154 02bc 42757346 		.ascii	"BusFault_IRQn\000"
 3154      61756C74 
 3154      5F495251 
 3154      6E00
 3155              	.LASF92:
 3156 02ca 41504232 		.ascii	"APB2RSTR\000"
 3156      52535452 
 3156      00
 3157              	.LASF66:
 3158 02d3 54445452 		.ascii	"TDTR\000"
 3158      00
 3159              	.LASF119:
 3160 02d8 42445452 		.ascii	"BDTR\000"
 3160      00
 3161              	.LASF165:
 3162 02dd 6872745F 		.ascii	"hrt_updatecb_t\000"
 3162      75706461 
 3162      74656362 
 3162      5F7400
 3163              	.LASF71:
 3164 02ec 52444C52 		.ascii	"RDLR\000"
ARM GAS  /tmp/ccQucLyg.s 			page 59


 3164      00
 3165              	.LASF141:
 3166 02f1 52544341 		.ascii	"RTCAN_MSG_UNINIT\000"
 3166      4E5F4D53 
 3166      475F554E 
 3166      494E4954 
 3166      00
 3167              	.LASF133:
 3168 0302 52544341 		.ascii	"RTCAN_UNINIT\000"
 3168      4E5F554E 
 3168      494E4954 
 3168      00
 3169              	.LASF0:
 3170 030f 756E7369 		.ascii	"unsigned int\000"
 3170      676E6564 
 3170      20696E74 
 3170      00
 3171              	.LASF5:
 3172 031c 75696E74 		.ascii	"uint16_t\000"
 3172      31365F74 
 3172      00
 3173              	.LASF138:
 3174 0325 52544341 		.ascii	"RTCAN_SLAVE\000"
 3174      4E5F534C 
 3174      41564500 
 3175              	.LASF16:
 3176 0331 4D656D6F 		.ascii	"MemoryManagement_IRQn\000"
 3176      72794D61 
 3176      6E616765 
 3176      6D656E74 
 3176      5F495251 
 3177              	.LASF10:
 3178 0347 6C6F6E67 		.ascii	"long unsigned int\000"
 3178      20756E73 
 3178      69676E65 
 3178      6420696E 
 3178      7400
 3179              	.LASF41:
 3180 0359 41444331 		.ascii	"ADC1_2_IRQn\000"
 3180      5F325F49 
 3180      52516E00 
 3181              	.LASF98:
 3182 0365 5243435F 		.ascii	"RCC_TypeDef\000"
 3182      54797065 
 3182      44656600 
 3183              	.LASF70:
 3184 0371 52445452 		.ascii	"RDTR\000"
 3184      00
 3185              	.LASF83:
 3186 0376 46533152 		.ascii	"FS1R\000"
 3186      00
 3187              	.LASF178:
 3188 037b 72746361 		.ascii	"rtcan_lld_tim_stop_timer\000"
 3188      6E5F6C6C 
 3188      645F7469 
 3188      6D5F7374 
 3188      6F705F74 
ARM GAS  /tmp/ccQucLyg.s 			page 60


 3189              	.LASF38:
 3190 0394 444D4131 		.ascii	"DMA1_Channel5_IRQn\000"
 3190      5F436861 
 3190      6E6E656C 
 3190      355F4952 
 3190      516E00
 3191              	.LASF99:
 3192 03a7 534D4352 		.ascii	"SMCR\000"
 3192      00
 3193              	.LASF76:
 3194 03ac 52463152 		.ascii	"RF1R\000"
 3194      00
 3195              	.LASF74:
 3196 03b1 43414E5F 		.ascii	"CAN_FilterRegister_TypeDef\000"
 3196      46696C74 
 3196      65725265 
 3196      67697374 
 3196      65725F54 
 3197              	.LASF63:
 3198 03cc 45585449 		.ascii	"EXTI15_10_IRQn\000"
 3198      31355F31 
 3198      305F4952 
 3198      516E00
 3199              	.LASF166:
 3200 03db 6872745F 		.ascii	"hrt_calendar_t\000"
 3200      63616C65 
 3200      6E646172 
 3200      5F7400
 3201              	.LASF58:
 3202 03ea 53504931 		.ascii	"SPI1_IRQn\000"
 3202      5F495251 
 3202      6E00
 3203              	.LASF128:
 3204 03f4 63616C6C 		.ascii	"callback\000"
 3204      6261636B 
 3204      00
 3205              	.LASF153:
 3206 03fd 736C6F74 		.ascii	"slot\000"
 3206      00
 3207              	.LASF89:
 3208 0402 7346696C 		.ascii	"sFilterRegister\000"
 3208      74657252 
 3208      65676973 
 3208      74657200 
 3209              	.LASF81:
 3210 0412 464D3152 		.ascii	"FM1R\000"
 3210      00
 3211              	.LASF40:
 3212 0417 444D4131 		.ascii	"DMA1_Channel7_IRQn\000"
 3212      5F436861 
 3212      6E6E656C 
 3212      375F4952 
 3212      516E00
 3213              	.LASF37:
 3214 042a 444D4131 		.ascii	"DMA1_Channel4_IRQn\000"
 3214      5F436861 
 3214      6E6E656C 
ARM GAS  /tmp/ccQucLyg.s 			page 61


 3214      345F4952 
 3214      516E00
 3215              	.LASF22:
 3216 043d 53797354 		.ascii	"SysTick_IRQn\000"
 3216      69636B5F 
 3216      4952516E 
 3216      00
 3217              	.LASF50:
 3218 044a 54494D31 		.ascii	"TIM1_CC_IRQn\000"
 3218      5F43435F 
 3218      4952516E 
 3218      00
 3219              	.LASF147:
 3220 0457 52544341 		.ascii	"RTCAN_MSG_ERROR\000"
 3220      4E5F4D53 
 3220      475F4552 
 3220      524F5200 
 3221              	.LASF73:
 3222 0467 43414E5F 		.ascii	"CAN_FIFOMailBox_TypeDef\000"
 3222      4649464F 
 3222      4D61696C 
 3222      426F785F 
 3222      54797065 
 3223              	.LASF148:
 3224 047f 72746361 		.ascii	"rtcan_msgstatus_t\000"
 3224      6E5F6D73 
 3224      67737461 
 3224      7475735F 
 3224      7400
 3225              	.LASF189:
 3226 0491 4952516E 		.ascii	"IRQn\000"
 3226      00
 3227              	.LASF145:
 3228 0496 52544341 		.ascii	"RTCAN_MSG_ONAIR\000"
 3228      4E5F4D53 
 3228      475F4F4E 
 3228      41495200 
 3229              	.LASF35:
 3230 04a6 444D4131 		.ascii	"DMA1_Channel2_IRQn\000"
 3230      5F436861 
 3230      6E6E656C 
 3230      325F4952 
 3230      516E00
 3231              	.LASF175:
 3232 04b9 72746361 		.ascii	"rtcan_lld_tim_stop\000"
 3232      6E5F6C6C 
 3232      645F7469 
 3232      6D5F7374 
 3232      6F7000
 3233              	.LASF135:
 3234 04cc 52544341 		.ascii	"RTCAN_STARTING\000"
 3234      4E5F5354 
 3234      41525449 
 3234      4E4700
 3235              	.LASF19:
 3236 04db 53564361 		.ascii	"SVCall_IRQn\000"
 3236      6C6C5F49 
ARM GAS  /tmp/ccQucLyg.s 			page 62


 3236      52516E00 
 3237              	.LASF156:
 3238 04e7 6F6E6169 		.ascii	"onair\000"
 3238      7200
 3239              	.LASF185:
 3240 04ed 52544341 		.ascii	"RTCAND1\000"
 3240      4E443100 
 3241              	.LASF32:
 3242 04f5 45585449 		.ascii	"EXTI3_IRQn\000"
 3242      335F4952 
 3242      516E00
 3243              	.LASF59:
 3244 0500 53504932 		.ascii	"SPI2_IRQn\000"
 3244      5F495251 
 3244      6E00
 3245              	.LASF68:
 3246 050a 54444852 		.ascii	"TDHR\000"
 3246      00
 3247              	.LASF65:
 3248 050f 5553425F 		.ascii	"USB_FS_WKUP_IRQn\000"
 3248      46535F57 
 3248      4B55505F 
 3248      4952516E 
 3248      00
 3249              	.LASF170:
 3250 0520 736C6F74 		.ascii	"slots\000"
 3250      7300
 3251              	.LASF93:
 3252 0526 41504231 		.ascii	"APB1RSTR\000"
 3252      52535452 
 3252      00
 3253              	.LASF132:
 3254 052f 72746361 		.ascii	"rtcan_msgcallback_t\000"
 3254      6E5F6D73 
 3254      6763616C 
 3254      6C626163 
 3254      6B5F7400 
 3255              	.LASF85:
 3256 0543 46464131 		.ascii	"FFA1R\000"
 3256      5200
 3257              	.LASF140:
 3258 0549 72746361 		.ascii	"rtcanstate_t\000"
 3258      6E737461 
 3258      74655F74 
 3258      00
 3259              	.LASF182:
 3260 0556 72746361 		.ascii	"rtcan_lld_tim_get_counter\000"
 3260      6E5F6C6C 
 3260      645F7469 
 3260      6D5F6765 
 3260      745F636F 
 3261              	.LASF34:
 3262 0570 444D4131 		.ascii	"DMA1_Channel1_IRQn\000"
 3262      5F436861 
 3262      6E6E656C 
 3262      315F4952 
 3262      516E00
ARM GAS  /tmp/ccQucLyg.s 			page 63


 3263              	.LASF161:
 3264 0583 6872745F 		.ascii	"hrt_msg_t\000"
 3264      6D73675F 
 3264      7400
 3265              	.LASF77:
 3266 058d 52455345 		.ascii	"RESERVED0\000"
 3266      52564544 
 3266      3000
 3267              	.LASF80:
 3268 0597 52455345 		.ascii	"RESERVED1\000"
 3268      52564544 
 3268      3100
 3269              	.LASF82:
 3270 05a1 52455345 		.ascii	"RESERVED2\000"
 3270      52564544 
 3270      3200
 3271              	.LASF84:
 3272 05ab 52455345 		.ascii	"RESERVED3\000"
 3272      52564544 
 3272      3300
 3273              	.LASF146:
 3274 05b5 52544341 		.ascii	"RTCAN_MSG_TIMEOUT\000"
 3274      4E5F4D53 
 3274      475F5449 
 3274      4D454F55 
 3274      5400
 3275              	.LASF87:
 3276 05c7 46413152 		.ascii	"FA1R\000"
 3276      00
 3277              	.LASF102:
 3278 05cc 52455345 		.ascii	"RESERVED6\000"
 3278      52564544 
 3278      3600
 3279              	.LASF106:
 3280 05d6 52455345 		.ascii	"RESERVED8\000"
 3280      52564544 
 3280      3800
 3281              	.LASF107:
 3282 05e0 52455345 		.ascii	"RESERVED9\000"
 3282      52564544 
 3282      3900
 3283              	.LASF13:
 3284 05ea 5F426F6F 		.ascii	"_Bool\000"
 3284      6C00
 3285              	.LASF7:
 3286 05f0 696E7433 		.ascii	"int32_t\000"
 3286      325F7400 
 3287              	.LASF2:
 3288 05f8 756E7369 		.ascii	"unsigned char\000"
 3288      676E6564 
 3288      20636861 
 3288      7200
 3289              	.LASF42:
 3290 0606 5553425F 		.ascii	"USB_HP_CAN1_TX_IRQn\000"
 3290      48505F43 
 3290      414E315F 
 3290      54585F49 
ARM GAS  /tmp/ccQucLyg.s 			page 64


 3290      52516E00 
 3291              	.LASF184:
 3292 061a 49544D5F 		.ascii	"ITM_RxBuffer\000"
 3292      52784275 
 3292      66666572 
 3292      00
 3293              	.LASF33:
 3294 0627 45585449 		.ascii	"EXTI4_IRQn\000"
 3294      345F4952 
 3294      516E00
 3295              	.LASF3:
 3296 0632 73686F72 		.ascii	"short int\000"
 3296      7420696E 
 3296      7400
 3297              	.LASF149:
 3298 063c 72746361 		.ascii	"rtcan_cnt_t\000"
 3298      6E5F636E 
 3298      745F7400 
 3299              	.LASF36:
 3300 0648 444D4131 		.ascii	"DMA1_Channel3_IRQn\000"
 3300      5F436861 
 3300      6E6E656C 
 3300      335F4952 
 3300      516E00
 3301              	.LASF43:
 3302 065b 5553425F 		.ascii	"USB_LP_CAN1_RX0_IRQn\000"
 3302      4C505F43 
 3302      414E315F 
 3302      5258305F 
 3302      4952516E 
 3303              	.LASF6:
 3304 0670 73686F72 		.ascii	"short unsigned int\000"
 3304      7420756E 
 3304      7369676E 
 3304      65642069 
 3304      6E7400
 3305              	.LASF95:
 3306 0683 41504232 		.ascii	"APB2ENR\000"
 3306      454E5200 
 3307              	.LASF144:
 3308 068b 52544341 		.ascii	"RTCAN_MSG_QUEUED\000"
 3308      4E5F4D53 
 3308      475F5155 
 3308      45554544 
 3308      00
 3309              	.LASF163:
 3310 069c 66726167 		.ascii	"fragment\000"
 3310      6D656E74 
 3310      00
 3311              	.LASF143:
 3312 06a5 52544341 		.ascii	"RTCAN_MSG_READY\000"
 3312      4E5F4D53 
 3312      475F5245 
 3312      41445900 
 3313              	.LASF27:
 3314 06b5 464C4153 		.ascii	"FLASH_IRQn\000"
 3314      485F4952 
ARM GAS  /tmp/ccQucLyg.s 			page 65


 3314      516E00
 3315              	.LASF86:
 3316 06c0 52455345 		.ascii	"RESERVED4\000"
 3316      52564544 
 3316      3400
 3317              	.LASF88:
 3318 06ca 52455345 		.ascii	"RESERVED5\000"
 3318      52564544 
 3318      3500
 3319              	.LASF9:
 3320 06d4 75696E74 		.ascii	"uint32_t\000"
 3320      33325F74 
 3320      00
 3321              	.LASF104:
 3322 06dd 52455345 		.ascii	"RESERVED7\000"
 3322      52564544 
 3322      3700
 3323              	.LASF61:
 3324 06e7 55534152 		.ascii	"USART2_IRQn\000"
 3324      54325F49 
 3324      52516E00 
 3325              	.LASF18:
 3326 06f3 55736167 		.ascii	"UsageFault_IRQn\000"
 3326      65466175 
 3326      6C745F49 
 3326      52516E00 
 3327              	.LASF174:
 3328 0703 72746361 		.ascii	"rtcan_lld_tim_start\000"
 3328      6E5F6C6C 
 3328      645F7469 
 3328      6D5F7374 
 3328      61727400 
 3329              	.LASF14:
 3330 0717 63686172 		.ascii	"char\000"
 3330      00
 3331              	.LASF125:
 3332 071c 72746361 		.ascii	"rtcan_msg_t\000"
 3332      6E5F6D73 
 3332      675F7400 
 3333              	.LASF155:
 3334 0728 7372745F 		.ascii	"srt_queue\000"
 3334      71756575 
 3334      6500
 3335              	.LASF160:
 3336 0732 636F6E66 		.ascii	"config\000"
 3336      696700
 3337              	.LASF47:
 3338 0739 54494D31 		.ascii	"TIM1_BRK_IRQn\000"
 3338      5F42524B 
 3338      5F495251 
 3338      6E00
 3339              	.LASF122:
 3340 0747 444D4152 		.ascii	"DMAR\000"
 3340      00
 3341              	.LASF72:
 3342 074c 52444852 		.ascii	"RDHR\000"
 3342      00
ARM GAS  /tmp/ccQucLyg.s 			page 66


 3343              	.LASF159:
 3344 0751 72657365 		.ascii	"reservation_mask\000"
 3344      72766174 
 3344      696F6E5F 
 3344      6D61736B 
 3344      00
 3345              	.LASF167:
 3346 0762 64656164 		.ascii	"deadline\000"
 3346      6C696E65 
 3346      00
 3347              	.LASF15:
 3348 076b 4E6F6E4D 		.ascii	"NonMaskableInt_IRQn\000"
 3348      61736B61 
 3348      626C6549 
 3348      6E745F49 
 3348      52516E00 
 3349              	.LASF79:
 3350 077f 73464946 		.ascii	"sFIFOMailBox\000"
 3350      4F4D6169 
 3350      6C426F78 
 3350      00
 3351              	.LASF39:
 3352 078c 444D4131 		.ascii	"DMA1_Channel6_IRQn\000"
 3352      5F436861 
 3352      6E6E656C 
 3352      365F4952 
 3352      516E00
 3353              	.LASF96:
 3354 079f 41504231 		.ascii	"APB1ENR\000"
 3354      454E5200 
 3355              	.LASF25:
 3356 07a7 54414D50 		.ascii	"TAMPER_IRQn\000"
 3356      45525F49 
 3356      52516E00 
 3357              	.LASF142:
 3358 07b3 52544341 		.ascii	"RTCAN_MSG_BUSY\000"
 3358      4E5F4D53 
 3358      475F4255 
 3358      535900
 3359              	.LASF48:
 3360 07c2 54494D31 		.ascii	"TIM1_UP_IRQn\000"
 3360      5F55505F 
 3360      4952516E 
 3360      00
 3361              	.LASF179:
 3362 07cf 72746361 		.ascii	"rtcan_lld_tim_set_interval\000"
 3362      6E5F6C6C 
 3362      645F7469 
 3362      6D5F7365 
 3362      745F696E 
 3363              	.LASF20:
 3364 07ea 44656275 		.ascii	"DebugMonitor_IRQn\000"
 3364      674D6F6E 
 3364      69746F72 
 3364      5F495251 
 3364      6E00
 3365              	.LASF162:
ARM GAS  /tmp/ccQucLyg.s 			page 67


 3366 07fc 75706461 		.ascii	"update\000"
 3366      746500
 3367              	.LASF56:
 3368 0803 49324332 		.ascii	"I2C2_EV_IRQn\000"
 3368      5F45565F 
 3368      4952516E 
 3368      00
 3369              	.LASF62:
 3370 0810 55534152 		.ascii	"USART3_IRQn\000"
 3370      54335F49 
 3370      52516E00 
 3371              	.LASF154:
 3372 081c 6379636C 		.ascii	"cycle\000"
 3372      6500
 3373              	.LASF111:
 3374 0822 43435231 		.ascii	"CCR1\000"
 3374      00
 3375              	.LASF51:
 3376 0827 54494D32 		.ascii	"TIM2_IRQn\000"
 3376      5F495251 
 3376      6E00
 3377              	.LASF115:
 3378 0831 43435233 		.ascii	"CCR3\000"
 3378      00
 3379              	.LASF117:
 3380 0836 43435234 		.ascii	"CCR4\000"
 3380      00
 3381              	.LASF60:
 3382 083b 55534152 		.ascii	"USART1_IRQn\000"
 3382      54315F49 
 3382      52516E00 
 3383              	.LASF97:
 3384 0847 42444352 		.ascii	"BDCR\000"
 3384      00
 3385              	.LASF123:
 3386 084c 52455345 		.ascii	"RESERVED19\000"
 3386      52564544 
 3386      313900
 3387              	.LASF4:
 3388 0857 75696E74 		.ascii	"uint8_t\000"
 3388      385F7400 
 3389              	.LASF173:
 3390 085f 72746361 		.ascii	"rtcan_lld_tim_init\000"
 3390      6E5F6C6C 
 3390      645F7469 
 3390      6D5F696E 
 3390      697400
 3391              	.LASF28:
 3392 0872 5243435F 		.ascii	"RCC_IRQn\000"
 3392      4952516E 
 3392      00
 3393              	.LASF57:
 3394 087b 49324332 		.ascii	"I2C2_ER_IRQn\000"
 3394      5F45525F 
 3394      4952516E 
 3394      00
 3395              	.LASF130:
ARM GAS  /tmp/ccQucLyg.s 			page 68


 3396 0888 73697A65 		.ascii	"size\000"
 3396      00
 3397              	.LASF91:
 3398 088d 43464752 		.ascii	"CFGR\000"
 3398      00
 3399              	.LASF139:
 3400 0892 52544341 		.ascii	"RTCAN_MASTER\000"
 3400      4E5F4D41 
 3400      53544552 
 3400      00
 3401              	.LASF171:
 3402 089f 52544341 		.ascii	"RTCANConfig\000"
 3402      4E436F6E 
 3402      66696700 
 3403              	.LASF169:
 3404 08ab 636C6F63 		.ascii	"clock\000"
 3404      6B00
 3405              	.LASF55:
 3406 08b1 49324331 		.ascii	"I2C1_ER_IRQn\000"
 3406      5F45525F 
 3406      4952516E 
 3406      00
 3407              	.LASF26:
 3408 08be 5254435F 		.ascii	"RTC_IRQn\000"
 3408      4952516E 
 3408      00
 3409              	.LASF177:
 3410 08c7 72746361 		.ascii	"rtcan_lld_tim_start_timer\000"
 3410      6E5F6C6C 
 3410      645F7469 
 3410      6D5F7374 
 3410      6172745F 
 3411              	.LASF52:
 3412 08e1 54494D33 		.ascii	"TIM3_IRQn\000"
 3412      5F495251 
 3412      6E00
 3413              	.LASF45:
 3414 08eb 43414E31 		.ascii	"CAN1_SCE_IRQn\000"
 3414      5F534345 
 3414      5F495251 
 3414      6E00
 3415              	.LASF157:
 3416 08f9 66696C74 		.ascii	"filters\000"
 3416      65727300 
 3417              	.LASF183:
 3418 0901 72746361 		.ascii	"rtcan_lld_tim_set_counter\000"
 3418      6E5F6C6C 
 3418      645F7469 
 3418      6D5F7365 
 3418      745F636F 
 3419              	.LASF150:
 3420 091b 6D736771 		.ascii	"msgqueue_t\000"
 3420      75657565 
 3420      5F7400
 3421              	.LASF94:
 3422 0926 41484245 		.ascii	"AHBENR\000"
 3422      4E5200
ARM GAS  /tmp/ccQucLyg.s 			page 69


 3423              	.LASF30:
 3424 092d 45585449 		.ascii	"EXTI1_IRQn\000"
 3424      315F4952 
 3424      516E00
 3425              	.LASF158:
 3426 0938 6872745F 		.ascii	"hrt_calendar\000"
 3426      63616C65 
 3426      6E646172 
 3426      00
 3427              		.ident	"GCC: (GNU Tools for ARM Embedded Processors) 4.6.2 20120613 (release) [ARM/embedded-4_6-br
ARM GAS  /tmp/ccQucLyg.s 			page 70


DEFINED SYMBOLS
                            *ABS*:00000000 rtcan_lld_tim.c
     /tmp/ccQucLyg.s:19     .text.VectorB4:00000000 $t
     /tmp/ccQucLyg.s:25     .text.VectorB4:00000000 VectorB4
     /tmp/ccQucLyg.s:60     .text.rtcan_lld_tim_init:00000000 $t
     /tmp/ccQucLyg.s:66     .text.rtcan_lld_tim_init:00000000 rtcan_lld_tim_init
     /tmp/ccQucLyg.s:85     .text.rtcan_lld_tim_start:00000000 $t
     /tmp/ccQucLyg.s:91     .text.rtcan_lld_tim_start:00000000 rtcan_lld_tim_start
     /tmp/ccQucLyg.s:153    .text.rtcan_lld_tim_stop:00000000 $t
     /tmp/ccQucLyg.s:159    .text.rtcan_lld_tim_stop:00000000 rtcan_lld_tim_stop
     /tmp/ccQucLyg.s:201    .text.rtcan_lld_tim_start_timer:00000000 $t
     /tmp/ccQucLyg.s:207    .text.rtcan_lld_tim_start_timer:00000000 rtcan_lld_tim_start_timer
     /tmp/ccQucLyg.s:241    .text.rtcan_lld_tim_stop_timer:00000000 $t
     /tmp/ccQucLyg.s:247    .text.rtcan_lld_tim_stop_timer:00000000 rtcan_lld_tim_stop_timer
     /tmp/ccQucLyg.s:271    .text.rtcan_lld_tim_set_interval:00000000 $t
     /tmp/ccQucLyg.s:277    .text.rtcan_lld_tim_set_interval:00000000 rtcan_lld_tim_set_interval
     /tmp/ccQucLyg.s:300    .text.rtcan_lld_tim_get_interval:00000000 $t
     /tmp/ccQucLyg.s:306    .text.rtcan_lld_tim_get_interval:00000000 rtcan_lld_tim_get_interval
     /tmp/ccQucLyg.s:328    .text.rtcan_lld_tim_get_counter:00000000 $t
     /tmp/ccQucLyg.s:334    .text.rtcan_lld_tim_get_counter:00000000 rtcan_lld_tim_get_counter
     /tmp/ccQucLyg.s:355    .text.rtcan_lld_tim_set_counter:00000000 $t
     /tmp/ccQucLyg.s:361    .text.rtcan_lld_tim_set_counter:00000000 rtcan_lld_tim_set_counter
                     .debug_frame:00000010 $d

UNDEFINED SYMBOLS
dbg_check_enter_isr
RTCAND1
rtcan_tim_isr_code
dbg_check_leave_isr
_port_irq_epilogue
nvicEnableVector
nvicDisableVector
