ARM GAS  /tmp/ccS7GqVD.s 			page 1


   1              		.syntax unified
   2              		.cpu cortex-m3
   3              		.fpu softvfp
   4              		.eabi_attribute 20, 1
   5              		.eabi_attribute 21, 1
   6              		.eabi_attribute 23, 3
   7              		.eabi_attribute 24, 1
   8              		.eabi_attribute 25, 1
   9              		.eabi_attribute 26, 1
  10              		.eabi_attribute 30, 2
  11              		.eabi_attribute 34, 1
  12              		.eabi_attribute 18, 4
  13              		.thumb
  14              		.file	"RTcan.cpp"
  15              		.text
  16              	.Ltext0:
  17              		.cfi_sections	.debug_frame
  18              		.section	.text._ZN5RTcan6sendcbEP11rtcan_msg_t,"ax",%progbits
  19              		.align	2
  20              		.p2align 4,,15
  21              		.global	_ZN5RTcan6sendcbEP11rtcan_msg_t
  22              		.thumb
  23              		.thumb_func
  24              		.type	_ZN5RTcan6sendcbEP11rtcan_msg_t, %function
  25              	_ZN5RTcan6sendcbEP11rtcan_msg_t:
  26              	.LFB78:
  27              		.file 1 "../../Middleware/transport/RTcan.cpp"
  28              		.loc 1 46 0
  29              		.cfi_startproc
  30              		@ args = 0, pretend = 0, frame = 0
  31              		@ frame_needed = 0, uses_anonymous_args = 0
  32              	.LVL0:
  33 0000 10B5     		push	{r4, lr}
  34              	.LCFI0:
  35              		.cfi_def_cfa_offset 8
  36              		.cfi_offset 14, -4
  37              		.cfi_offset 4, -8
  38              	.LBB9:
  39              		.loc 1 51 0
  40 0002 D0F81510 		ldr	r1, [r0, #21]	@ unaligned
  41              	.LBE9:
  42              		.loc 1 46 0
  43 0006 0446     		mov	r4, r0
  44              	.LVL1:
  45              	.LBB14:
  46              		.loc 1 51 0
  47 0008 0239     		subs	r1, r1, #2
  48              		.loc 1 47 0
  49 000a D0F80900 		ldr	r0, [r0, #9]	@ unaligned
  50              	.LVL2:
  51              		.loc 1 52 0
  52 000e FFF7FEFF 		bl	_ZN14BaseSubscriber8releaseIEP11BaseMessage
  53              	.LVL3:
  54              	.LBB10:
  55              	.LBB11:
  56              		.loc 1 20 0
  57 0012 0348     		ldr	r0, .L2
ARM GAS  /tmp/ccS7GqVD.s 			page 2


  58 0014 2146     		mov	r1, r4
  59              	.LBE11:
  60              	.LBE10:
  61              	.LBE14:
  62              		.loc 1 55 0
  63 0016 BDE81040 		pop	{r4, lr}
  64              	.LBB15:
  65              	.LBB13:
  66              	.LBB12:
  67              		.loc 1 20 0
  68 001a FFF7FEBF 		b	chPoolFreeI
  69              	.L3:
  70 001e 00BF     		.align	2
  71              	.L2:
  72 0020 40010000 		.word	.LANCHOR0+320
  73              	.LBE12:
  74              	.LBE13:
  75              	.LBE15:
  76              		.cfi_endproc
  77              	.LFE78:
  78              		.size	_ZN5RTcan6sendcbEP11rtcan_msg_t, .-_ZN5RTcan6sendcbEP11rtcan_msg_t
  79 0024 AFF30080 		.section	.text._ZN5RTcanC2Ev,"ax",%progbits
  79      AFF30080 
  79      AFF30080 
  80              		.align	2
  81              		.p2align 4,,15
  82              		.global	_ZN5RTcanC2Ev
  83              		.thumb
  84              		.thumb_func
  85              		.type	_ZN5RTcanC2Ev, %function
  86              	_ZN5RTcanC2Ev:
  87              	.LFB73:
  88              		.loc 1 10 0
  89              		.cfi_startproc
  90              		@ args = 0, pretend = 0, frame = 0
  91              		@ frame_needed = 0, uses_anonymous_args = 0
  92              	.LVL4:
  93 0000 38B5     		push	{r3, r4, r5, lr}
  94              	.LCFI1:
  95              		.cfi_def_cfa_offset 16
  96              		.cfi_offset 14, -4
  97              		.cfi_offset 5, -8
  98              		.cfi_offset 4, -12
  99              		.cfi_offset 3, -16
 100              	.LBB16:
 101              		.loc 1 11 0
 102 0002 00F5A075 		add	r5, r0, #320
 103              	.LBE16:
 104              		.loc 1 10 0
 105 0006 0446     		mov	r4, r0
 106              	.LBB17:
 107              		.loc 1 11 0
 108 0008 1E21     		movs	r1, #30
 109 000a 2846     		mov	r0, r5
 110              	.LVL5:
 111 000c 0022     		movs	r2, #0
 112 000e FFF7FEFF 		bl	chPoolInit
ARM GAS  /tmp/ccS7GqVD.s 			page 3


 113              		.loc 1 12 0
 114 0012 2846     		mov	r0, r5
 115 0014 2146     		mov	r1, r4
 116 0016 0A22     		movs	r2, #10
 117 0018 FFF7FEFF 		bl	chPoolLoadArray
 118              	.LBE17:
 119              		.loc 1 13 0
 120 001c 2046     		mov	r0, r4
 121 001e 38BD     		pop	{r3, r4, r5, pc}
 122              		.cfi_endproc
 123              	.LFE73:
 124              		.size	_ZN5RTcanC2Ev, .-_ZN5RTcanC2Ev
 125              		.section	.text._ZN5RTcan8instanceEv,"ax",%progbits
 126              		.align	2
 127              		.p2align 4,,15
 128              		.global	_ZN5RTcan8instanceEv
 129              		.thumb
 130              		.thumb_func
 131              		.type	_ZN5RTcan8instanceEv, %function
 132              	_ZN5RTcan8instanceEv:
 133              	.LFB75:
 134              		.loc 1 15 0
 135              		.cfi_startproc
 136              		@ args = 0, pretend = 0, frame = 0
 137              		@ frame_needed = 0, uses_anonymous_args = 0
 138              		@ link register save eliminated.
 139              		.loc 1 16 0
 140 0000 40F20000 		movw	r0, #:lower16:.LANCHOR0
 141 0004 C0F20000 		movt	r0, #:upper16:.LANCHOR0
 142              		.loc 1 17 0
 143 0008 7047     		bx	lr
 144              		.cfi_endproc
 145              	.LFE75:
 146              		.size	_ZN5RTcan8instanceEv, .-_ZN5RTcan8instanceEv
 147 000a 00BFAFF3 		.section	.text._ZN5RTcan4freeEP11rtcan_msg_t,"ax",%progbits
 147      0080
 148              		.align	2
 149              		.p2align 4,,15
 150              		.global	_ZN5RTcan4freeEP11rtcan_msg_t
 151              		.thumb
 152              		.thumb_func
 153              		.type	_ZN5RTcan4freeEP11rtcan_msg_t, %function
 154              	_ZN5RTcan4freeEP11rtcan_msg_t:
 155              	.LFB76:
 156              		.loc 1 19 0
 157              		.cfi_startproc
 158              		@ args = 0, pretend = 0, frame = 0
 159              		@ frame_needed = 0, uses_anonymous_args = 0
 160              		@ link register save eliminated.
 161              	.LVL6:
 162              		.loc 1 20 0
 163 0000 00F5A070 		add	r0, r0, #320
 164              	.LVL7:
 165              		.loc 1 21 0
 166              		.loc 1 20 0
 167 0004 FFF7FEBF 		b	chPoolFreeI
 168              	.LVL8:
ARM GAS  /tmp/ccS7GqVD.s 			page 4


 169              	.LVL9:
 170              		.cfi_endproc
 171              	.LFE76:
 172              		.size	_ZN5RTcan4freeEP11rtcan_msg_t, .-_ZN5RTcan4freeEP11rtcan_msg_t
 173 0008 AFF30080 		.section	.text._ZN5RTcan4sendEP16RemoteSubscriberP11BaseMessagei,"ax",%progbits
 173      AFF30080 
 174              		.align	2
 175              		.p2align 4,,15
 176              		.global	_ZN5RTcan4sendEP16RemoteSubscriberP11BaseMessagei
 177              		.thumb
 178              		.thumb_func
 179              		.type	_ZN5RTcan4sendEP16RemoteSubscriberP11BaseMessagei, %function
 180              	_ZN5RTcan4sendEP16RemoteSubscriberP11BaseMessagei:
 181              	.LFB77:
 182              		.loc 1 23 0
 183              		.cfi_startproc
 184              		@ args = 0, pretend = 0, frame = 0
 185              		@ frame_needed = 0, uses_anonymous_args = 0
 186              	.LVL10:
 187 0000 F8B5     		push	{r3, r4, r5, r6, r7, lr}
 188              	.LCFI2:
 189              		.cfi_def_cfa_offset 24
 190              		.cfi_offset 14, -4
 191              		.cfi_offset 7, -8
 192              		.cfi_offset 6, -12
 193              		.cfi_offset 5, -16
 194              		.cfi_offset 4, -20
 195              		.cfi_offset 3, -24
 196              	.LBB18:
 197              		.loc 1 26 0
 198 0002 00F5A070 		add	r0, r0, #320
 199              	.LVL11:
 200              	.LBE18:
 201              		.loc 1 23 0
 202 0006 0C46     		mov	r4, r1
 203 0008 1546     		mov	r5, r2
 204 000a 1F46     		mov	r7, r3
 205              	.LBB19:
 206              		.loc 1 26 0
 207 000c FFF7FEFF 		bl	chPoolAllocI
 208              	.LVL12:
 209 0010 0646     		mov	r6, r0
 210              	.LVL13:
 211              		.loc 1 28 0
 212 0012 C0B1     		cbz	r0, .L10
 213              		.loc 1 32 0
 214 0014 2046     		mov	r0, r4
 215              	.LVL14:
 216 0016 FFF7FEFF 		bl	_ZN16RemoteSubscriber2idEv
 217 001a A6F81100 		strh	r0, [r6, #17]	@ unaligned
 218              		.loc 1 34 0
 219 001e 0A48     		ldr	r0, .L12
 220              		.loc 1 38 0
 221 0020 0223     		movs	r3, #2
 222              		.loc 1 37 0
 223 0022 023F     		subs	r7, r7, #2
 224              	.LVL15:
ARM GAS  /tmp/ccS7GqVD.s 			page 5


 225              		.loc 1 39 0
 226 0024 0235     		adds	r5, r5, #2
 227              	.LVL16:
 228              		.loc 1 34 0
 229 0026 C6F80500 		str	r0, [r6, #5]	@ unaligned
 230              		.loc 1 35 0
 231 002a C6F80940 		str	r4, [r6, #9]	@ unaligned
 232              		.loc 1 41 0
 233 002e 0748     		ldr	r0, .L12+4
 234              		.loc 1 37 0
 235 0030 A6F81370 		strh	r7, [r6, #19]	@ unaligned
 236              		.loc 1 38 0
 237 0034 3371     		strb	r3, [r6, #4]
 238              		.loc 1 39 0
 239 0036 C6F81550 		str	r5, [r6, #21]	@ unaligned
 240              		.loc 1 41 0
 241 003a 3146     		mov	r1, r6
 242 003c 6422     		movs	r2, #100
 243 003e FFF7FEFF 		bl	rtcanTransmitI
 244              		.loc 1 43 0
 245 0042 0120     		movs	r0, #1
 246 0044 F8BD     		pop	{r3, r4, r5, r6, r7, pc}
 247              	.LVL17:
 248              	.L10:
 249              	.LBE19:
 250              		.loc 1 44 0
 251 0046 F8BD     		pop	{r3, r4, r5, r6, r7, pc}
 252              	.L13:
 253              		.align	2
 254              	.L12:
 255 0048 00000000 		.word	_ZN5RTcan6sendcbEP11rtcan_msg_t
 256 004c 00000000 		.word	RTCAND1
 257              		.cfi_endproc
 258              	.LFE77:
 259              		.size	_ZN5RTcan4sendEP16RemoteSubscriberP11BaseMessagei, .-_ZN5RTcan4sendEP16RemoteSubscriberP11Ba
 260              		.section	.text._ZN5RTcan4rxcbEP11rtcan_msg_t,"ax",%progbits
 261              		.align	2
 262              		.p2align 4,,15
 263              		.global	_ZN5RTcan4rxcbEP11rtcan_msg_t
 264              		.thumb
 265              		.thumb_func
 266              		.type	_ZN5RTcan4rxcbEP11rtcan_msg_t, %function
 267              	_ZN5RTcan4rxcbEP11rtcan_msg_t:
 268              	.LFB79:
 269              		.loc 1 57 0
 270              		.cfi_startproc
 271              		@ args = 0, pretend = 0, frame = 0
 272              		@ frame_needed = 0, uses_anonymous_args = 0
 273              		@ link register save eliminated.
 274              	.LVL18:
 275              	.LBB20:
 276              		.loc 1 62 0
 277 0000 D0F81510 		ldr	r1, [r0, #21]	@ unaligned
 278              		.loc 1 58 0
 279 0004 D0F80900 		ldr	r0, [r0, #9]	@ unaligned
 280              	.LVL19:
 281              		.loc 1 62 0
ARM GAS  /tmp/ccS7GqVD.s 			page 6


 282 0008 0239     		subs	r1, r1, #2
 283              	.LBE20:
 284              		.loc 1 64 0
 285              	.LBB21:
 286              		.loc 1 63 0
 287 000a FFF7FEBF 		b	_ZN15RemotePublisher10broadcastIEP11BaseMessage
 288              	.LBE21:
 289              		.cfi_endproc
 290              	.LFE79:
 291              		.size	_ZN5RTcan4rxcbEP11rtcan_msg_t, .-_ZN5RTcan4rxcbEP11rtcan_msg_t
 292 000e 00BF     		.section	.text.startup._GLOBAL__sub_I__ZN5RTcan9_instanceE,"ax",%progbits
 293              		.align	2
 294              		.p2align 4,,15
 295              		.thumb
 296              		.thumb_func
 297              		.type	_GLOBAL__sub_I__ZN5RTcan9_instanceE, %function
 298              	_GLOBAL__sub_I__ZN5RTcan9_instanceE:
 299              	.LFB81:
 300              		.loc 1 64 0
 301              		.cfi_startproc
 302              		@ args = 0, pretend = 0, frame = 0
 303              		@ frame_needed = 0, uses_anonymous_args = 0
 304              		@ link register save eliminated.
 305              	.LVL20:
 306              	.LBB22:
 307              	.LBB23:
 308              		.loc 1 8 0
 309 0000 40F20000 		movw	r0, #:lower16:.LANCHOR0
 310 0004 C0F20000 		movt	r0, #:upper16:.LANCHOR0
 311              	.LBE23:
 312              	.LBE22:
 313              		.loc 1 64 0
 314              	.LBB25:
 315              	.LBB24:
 316              		.loc 1 8 0
 317 0008 FFF7FEBF 		b	_ZN5RTcanC1Ev
 318              	.LBE24:
 319              	.LBE25:
 320              		.cfi_endproc
 321              	.LFE81:
 322              		.size	_GLOBAL__sub_I__ZN5RTcan9_instanceE, .-_GLOBAL__sub_I__ZN5RTcan9_instanceE
 323 000c AFF30080 		.section	.init_array,"aw",%init_array
 324              		.align	2
 325 0000 00000000 		.word	_GLOBAL__sub_I__ZN5RTcan9_instanceE(target1)
 326              		.global	_ZN5RTcan9_instanceE
 327              		.global	_ZN5RTcanC1Ev
 328              		.thumb_set _ZN5RTcanC1Ev,_ZN5RTcanC2Ev
 329              		.section	.bss._ZN5RTcan9_instanceE,"aw",%nobits
 330              		.align	3
 331              		.set	.LANCHOR0,. + 0
 332              		.type	_ZN5RTcan9_instanceE, %object
 333              		.size	_ZN5RTcan9_instanceE, 336
 334              	_ZN5RTcan9_instanceE:
 335 0000 00000000 		.space	336
 335      00000000 
 335      00000000 
 335      00000000 
ARM GAS  /tmp/ccS7GqVD.s 			page 7


 335      00000000 
 336              		.text
 337              	.Letext0:
 338              		.file 2 "/home/tino/ChibiStudio/tools/GNU Tools ARM Embedded/4.6 2012q2/bin/../lib/gcc/arm-none-ea
 339              		.file 3 "/home/tino/ChibiStudio/tools/GNU Tools ARM Embedded/4.6 2012q2/bin/../lib/gcc/arm-none-ea
 340              		.file 4 "../../ChibiOS/os/ports/GCC/ARMCMx/chtypes.h"
 341              		.file 5 "../../ChibiOS/os/kernel/include/chmemcore.h"
 342              		.file 6 "../../ChibiOS/os/kernel/include/chmempools.h"
 343              		.file 7 "../../ChibiOS/os/hal/platforms/STM32F1xx/stm32f10x.h"
 344              		.file 8 "../../Middleware/BaseMessage.hpp"
 345              		.file 9 "../../Middleware/BasePublisher.hpp"
 346              		.file 10 "../../Middleware/RemoteSubscriber.hpp"
 347              		.file 11 "../../Middleware/LocalPublisher.hpp"
 348              		.file 12 "../../Middleware/MessageQueue.hpp"
 349              		.file 13 "../../Middleware/BaseSubscriber.hpp"
 350              		.file 14 "../../RTCAN/include/rtcan.h"
 351              		.file 15 "../../RTCAN/include/msgqueue.h"
 352              		.file 16 "../../RTCAN/include/hrt.h"
 353              		.file 17 "../../Middleware/transport/RTcan.hpp"
 354              		.file 18 "../../Middleware/RemotePublisher.hpp"
 355              		.file 19 "../../ChibiOS/os/ports/common/ARMCMx/CMSIS/include/core_cm3.h"
 356              		.file 20 "../../RTCAN/platforms/STM32/rtcan_lld_can.h"
 357              		.file 21 "../../ChibiOS/os/various/cpp_wrappers/ch.hpp"