ARM GAS  /tmp/ccS7GqVD.s 			page 1


   1              		.syntax unified
   2              		.cpu cortex-m3
   3              		.fpu softvfp
   4              		.eabi_attribute 20, 1
   5              		.eabi_attribute 21, 1
   6              		.eabi_attribute 23, 3
   7              		.eabi_attribute 24, 1
   8              		.eabi_attribute 25, 1
   9              		.eabi_attribute 26, 1
  10              		.eabi_attribute 30, 2
  11              		.eabi_attribute 34, 1
  12              		.eabi_attribute 18, 4
  13              		.thumb
  14              		.file	"RTcan.cpp"
  15              		.text
  16              	.Ltext0:
  17              		.cfi_sections	.debug_frame
  18              		.section	.text._ZN5RTcan6sendcbEP11rtcan_msg_t,"ax",%progbits
  19              		.align	2
  20              		.p2align 4,,15
  21              		.global	_ZN5RTcan6sendcbEP11rtcan_msg_t
  22              		.thumb
  23              		.thumb_func
  24              		.type	_ZN5RTcan6sendcbEP11rtcan_msg_t, %function
  25              	_ZN5RTcan6sendcbEP11rtcan_msg_t:
  26              	.LFB78:
  27              		.file 1 "../../Middleware/transport/RTcan.cpp"
  28              		.loc 1 46 0
  29              		.cfi_startproc
  30              		@ args = 0, pretend = 0, frame = 0
  31              		@ frame_needed = 0, uses_anonymous_args = 0
  32              	.LVL0:
  33 0000 10B5     		push	{r4, lr}
  34              	.LCFI0:
  35              		.cfi_def_cfa_offset 8
  36              		.cfi_offset 14, -4
  37              		.cfi_offset 4, -8
  38              	.LBB9:
  39              		.loc 1 51 0
  40 0002 D0F81510 		ldr	r1, [r0, #21]	@ unaligned
  41              	.LBE9:
  42              		.loc 1 46 0
  43 0006 0446     		mov	r4, r0
  44              	.LVL1:
  45              	.LBB14:
  46              		.loc 1 51 0
  47 0008 0239     		subs	r1, r1, #2
  48              		.loc 1 47 0
  49 000a D0F80900 		ldr	r0, [r0, #9]	@ unaligned
  50              	.LVL2:
  51              		.loc 1 52 0
  52 000e FFF7FEFF 		bl	_ZN14BaseSubscriber8releaseIEP11BaseMessage
  53              	.LVL3:
  54              	.LBB10:
  55              	.LBB11:
  56              		.loc 1 20 0
  57 0012 0348     		ldr	r0, .L2
ARM GAS  /tmp/ccS7GqVD.s 			page 2


  58 0014 2146     		mov	r1, r4
  59              	.LBE11:
  60              	.LBE10:
  61              	.LBE14:
  62              		.loc 1 55 0
  63 0016 BDE81040 		pop	{r4, lr}
  64              	.LBB15:
  65              	.LBB13:
  66              	.LBB12:
  67              		.loc 1 20 0
  68 001a FFF7FEBF 		b	chPoolFreeI
  69              	.L3:
  70 001e 00BF     		.align	2
  71              	.L2:
  72 0020 40010000 		.word	.LANCHOR0+320
  73              	.LBE12:
  74              	.LBE13:
  75              	.LBE15:
  76              		.cfi_endproc
  77              	.LFE78:
  78              		.size	_ZN5RTcan6sendcbEP11rtcan_msg_t, .-_ZN5RTcan6sendcbEP11rtcan_msg_t
  79 0024 AFF30080 		.section	.text._ZN5RTcanC2Ev,"ax",%progbits
  79      AFF30080 
  79      AFF30080 
  80              		.align	2
  81              		.p2align 4,,15
  82              		.global	_ZN5RTcanC2Ev
  83              		.thumb
  84              		.thumb_func
  85              		.type	_ZN5RTcanC2Ev, %function
  86              	_ZN5RTcanC2Ev:
  87              	.LFB73:
  88              		.loc 1 10 0
  89              		.cfi_startproc
  90              		@ args = 0, pretend = 0, frame = 0
  91              		@ frame_needed = 0, uses_anonymous_args = 0
  92              	.LVL4:
  93 0000 38B5     		push	{r3, r4, r5, lr}
  94              	.LCFI1:
  95              		.cfi_def_cfa_offset 16
  96              		.cfi_offset 14, -4
  97              		.cfi_offset 5, -8
  98              		.cfi_offset 4, -12
  99              		.cfi_offset 3, -16
 100              	.LBB16:
 101              		.loc 1 11 0
 102 0002 00F5A075 		add	r5, r0, #320
 103              	.LBE16:
 104              		.loc 1 10 0
 105 0006 0446     		mov	r4, r0
 106              	.LBB17:
 107              		.loc 1 11 0
 108 0008 1E21     		movs	r1, #30
 109 000a 2846     		mov	r0, r5
 110              	.LVL5:
 111 000c 0022     		movs	r2, #0
 112 000e FFF7FEFF 		bl	chPoolInit
ARM GAS  /tmp/ccS7GqVD.s 			page 3


 113              		.loc 1 12 0
 114 0012 2846     		mov	r0, r5
 115 0014 2146     		mov	r1, r4
 116 0016 0A22     		movs	r2, #10
 117 0018 FFF7FEFF 		bl	chPoolLoadArray
 118              	.LBE17:
 119              		.loc 1 13 0
 120 001c 2046     		mov	r0, r4
 121 001e 38BD     		pop	{r3, r4, r5, pc}
 122              		.cfi_endproc
 123              	.LFE73:
 124              		.size	_ZN5RTcanC2Ev, .-_ZN5RTcanC2Ev
 125              		.section	.text._ZN5RTcan8instanceEv,"ax",%progbits
 126              		.align	2
 127              		.p2align 4,,15
 128              		.global	_ZN5RTcan8instanceEv
 129              		.thumb
 130              		.thumb_func
 131              		.type	_ZN5RTcan8instanceEv, %function
 132              	_ZN5RTcan8instanceEv:
 133              	.LFB75:
 134              		.loc 1 15 0
 135              		.cfi_startproc
 136              		@ args = 0, pretend = 0, frame = 0
 137              		@ frame_needed = 0, uses_anonymous_args = 0
 138              		@ link register save eliminated.
 139              		.loc 1 16 0
 140 0000 40F20000 		movw	r0, #:lower16:.LANCHOR0
 141 0004 C0F20000 		movt	r0, #:upper16:.LANCHOR0
 142              		.loc 1 17 0
 143 0008 7047     		bx	lr
 144              		.cfi_endproc
 145              	.LFE75:
 146              		.size	_ZN5RTcan8instanceEv, .-_ZN5RTcan8instanceEv
 147 000a 00BFAFF3 		.section	.text._ZN5RTcan4freeEP11rtcan_msg_t,"ax",%progbits
 147      0080
 148              		.align	2
 149              		.p2align 4,,15
 150              		.global	_ZN5RTcan4freeEP11rtcan_msg_t
 151              		.thumb
 152              		.thumb_func
 153              		.type	_ZN5RTcan4freeEP11rtcan_msg_t, %function
 154              	_ZN5RTcan4freeEP11rtcan_msg_t:
 155              	.LFB76:
 156              		.loc 1 19 0
 157              		.cfi_startproc
 158              		@ args = 0, pretend = 0, frame = 0
 159              		@ frame_needed = 0, uses_anonymous_args = 0
 160              		@ link register save eliminated.
 161              	.LVL6:
 162              		.loc 1 20 0
 163 0000 00F5A070 		add	r0, r0, #320
 164              	.LVL7:
 165              		.loc 1 21 0
 166              		.loc 1 20 0
 167 0004 FFF7FEBF 		b	chPoolFreeI
 168              	.LVL8:
ARM GAS  /tmp/ccS7GqVD.s 			page 4


 169              	.LVL9:
 170              		.cfi_endproc
 171              	.LFE76:
 172              		.size	_ZN5RTcan4freeEP11rtcan_msg_t, .-_ZN5RTcan4freeEP11rtcan_msg_t
 173 0008 AFF30080 		.section	.text._ZN5RTcan4sendEP16RemoteSubscriberP11BaseMessagei,"ax",%progbits
 173      AFF30080 
 174              		.align	2
 175              		.p2align 4,,15
 176              		.global	_ZN5RTcan4sendEP16RemoteSubscriberP11BaseMessagei
 177              		.thumb
 178              		.thumb_func
 179              		.type	_ZN5RTcan4sendEP16RemoteSubscriberP11BaseMessagei, %function
 180              	_ZN5RTcan4sendEP16RemoteSubscriberP11BaseMessagei:
 181              	.LFB77:
 182              		.loc 1 23 0
 183              		.cfi_startproc
 184              		@ args = 0, pretend = 0, frame = 0
 185              		@ frame_needed = 0, uses_anonymous_args = 0
 186              	.LVL10:
 187 0000 F8B5     		push	{r3, r4, r5, r6, r7, lr}
 188              	.LCFI2:
 189              		.cfi_def_cfa_offset 24
 190              		.cfi_offset 14, -4
 191              		.cfi_offset 7, -8
 192              		.cfi_offset 6, -12
 193              		.cfi_offset 5, -16
 194              		.cfi_offset 4, -20
 195              		.cfi_offset 3, -24
 196              	.LBB18:
 197              		.loc 1 26 0
 198 0002 00F5A070 		add	r0, r0, #320
 199              	.LVL11:
 200              	.LBE18:
 201              		.loc 1 23 0
 202 0006 0C46     		mov	r4, r1
 203 0008 1546     		mov	r5, r2
 204 000a 1F46     		mov	r7, r3
 205              	.LBB19:
 206              		.loc 1 26 0
 207 000c FFF7FEFF 		bl	chPoolAllocI
 208              	.LVL12:
 209 0010 0646     		mov	r6, r0
 210              	.LVL13:
 211              		.loc 1 28 0
 212 0012 C0B1     		cbz	r0, .L10
 213              		.loc 1 32 0
 214 0014 2046     		mov	r0, r4
 215              	.LVL14:
 216 0016 FFF7FEFF 		bl	_ZN16RemoteSubscriber2idEv
 217 001a A6F81100 		strh	r0, [r6, #17]	@ unaligned
 218              		.loc 1 34 0
 219 001e 0A48     		ldr	r0, .L12
 220              		.loc 1 38 0
 221 0020 0223     		movs	r3, #2
 222              		.loc 1 37 0
 223 0022 023F     		subs	r7, r7, #2
 224              	.LVL15:
ARM GAS  /tmp/ccS7GqVD.s 			page 5


 225              		.loc 1 39 0
 226 0024 0235     		adds	r5, r5, #2
 227              	.LVL16:
 228              		.loc 1 34 0
 229 0026 C6F80500 		str	r0, [r6, #5]	@ unaligned
 230              		.loc 1 35 0
 231 002a C6F80940 		str	r4, [r6, #9]	@ unaligned
 232              		.loc 1 41 0
 233 002e 0748     		ldr	r0, .L12+4
 234              		.loc 1 37 0
 235 0030 A6F81370 		strh	r7, [r6, #19]	@ unaligned
 236              		.loc 1 38 0
 237 0034 3371     		strb	r3, [r6, #4]
 238              		.loc 1 39 0
 239 0036 C6F81550 		str	r5, [r6, #21]	@ unaligned
 240              		.loc 1 41 0
 241 003a 3146     		mov	r1, r6
 242 003c 6422     		movs	r2, #100
 243 003e FFF7FEFF 		bl	rtcanTransmitI
 244              		.loc 1 43 0
 245 0042 0120     		movs	r0, #1
 246 0044 F8BD     		pop	{r3, r4, r5, r6, r7, pc}
 247              	.LVL17:
 248              	.L10:
 249              	.LBE19:
 250              		.loc 1 44 0
 251 0046 F8BD     		pop	{r3, r4, r5, r6, r7, pc}
 252              	.L13:
 253              		.align	2
 254              	.L12:
 255 0048 00000000 		.word	_ZN5RTcan6sendcbEP11rtcan_msg_t
 256 004c 00000000 		.word	RTCAND1
 257              		.cfi_endproc
 258              	.LFE77:
 259              		.size	_ZN5RTcan4sendEP16RemoteSubscriberP11BaseMessagei, .-_ZN5RTcan4sendEP16RemoteSubscriberP11Ba
 260              		.section	.text._ZN5RTcan4rxcbEP11rtcan_msg_t,"ax",%progbits
 261              		.align	2
 262              		.p2align 4,,15
 263              		.global	_ZN5RTcan4rxcbEP11rtcan_msg_t
 264              		.thumb
 265              		.thumb_func
 266              		.type	_ZN5RTcan4rxcbEP11rtcan_msg_t, %function
 267              	_ZN5RTcan4rxcbEP11rtcan_msg_t:
 268              	.LFB79:
 269              		.loc 1 57 0
 270              		.cfi_startproc
 271              		@ args = 0, pretend = 0, frame = 0
 272              		@ frame_needed = 0, uses_anonymous_args = 0
 273              		@ link register save eliminated.
 274              	.LVL18:
 275              	.LBB20:
 276              		.loc 1 62 0
 277 0000 D0F81510 		ldr	r1, [r0, #21]	@ unaligned
 278              		.loc 1 58 0
 279 0004 D0F80900 		ldr	r0, [r0, #9]	@ unaligned
 280              	.LVL19:
 281              		.loc 1 62 0
ARM GAS  /tmp/ccS7GqVD.s 			page 6


 282 0008 0239     		subs	r1, r1, #2
 283              	.LBE20:
 284              		.loc 1 64 0
 285              	.LBB21:
 286              		.loc 1 63 0
 287 000a FFF7FEBF 		b	_ZN15RemotePublisher10broadcastIEP11BaseMessage
 288              	.LBE21:
 289              		.cfi_endproc
 290              	.LFE79:
 291              		.size	_ZN5RTcan4rxcbEP11rtcan_msg_t, .-_ZN5RTcan4rxcbEP11rtcan_msg_t
 292 000e 00BF     		.section	.text.startup._GLOBAL__sub_I__ZN5RTcan9_instanceE,"ax",%progbits
 293              		.align	2
 294              		.p2align 4,,15
 295              		.thumb
 296              		.thumb_func
 297              		.type	_GLOBAL__sub_I__ZN5RTcan9_instanceE, %function
 298              	_GLOBAL__sub_I__ZN5RTcan9_instanceE:
 299              	.LFB81:
 300              		.loc 1 64 0
 301              		.cfi_startproc
 302              		@ args = 0, pretend = 0, frame = 0
 303              		@ frame_needed = 0, uses_anonymous_args = 0
 304              		@ link register save eliminated.
 305              	.LVL20:
 306              	.LBB22:
 307              	.LBB23:
 308              		.loc 1 8 0
 309 0000 40F20000 		movw	r0, #:lower16:.LANCHOR0
 310 0004 C0F20000 		movt	r0, #:upper16:.LANCHOR0
 311              	.LBE23:
 312              	.LBE22:
 313              		.loc 1 64 0
 314              	.LBB25:
 315              	.LBB24:
 316              		.loc 1 8 0
 317 0008 FFF7FEBF 		b	_ZN5RTcanC1Ev
 318              	.LBE24:
 319              	.LBE25:
 320              		.cfi_endproc
 321              	.LFE81:
 322              		.size	_GLOBAL__sub_I__ZN5RTcan9_instanceE, .-_GLOBAL__sub_I__ZN5RTcan9_instanceE
 323 000c AFF30080 		.section	.init_array,"aw",%init_array
 324              		.align	2
 325 0000 00000000 		.word	_GLOBAL__sub_I__ZN5RTcan9_instanceE(target1)
 326              		.global	_ZN5RTcan9_instanceE
 327              		.global	_ZN5RTcanC1Ev
 328              		.thumb_set _ZN5RTcanC1Ev,_ZN5RTcanC2Ev
 329              		.section	.bss._ZN5RTcan9_instanceE,"aw",%nobits
 330              		.align	3
 331              		.set	.LANCHOR0,. + 0
 332              		.type	_ZN5RTcan9_instanceE, %object
 333              		.size	_ZN5RTcan9_instanceE, 336
 334              	_ZN5RTcan9_instanceE:
 335 0000 00000000 		.space	336
 335      00000000 
 335      00000000 
 335      00000000 
ARM GAS  /tmp/ccS7GqVD.s 			page 7


 335      00000000 
 336              		.text
 337              	.Letext0:
 338              		.file 2 "/home/tino/ChibiStudio/tools/GNU Tools ARM Embedded/4.6 2012q2/bin/../lib/gcc/arm-none-ea
 339              		.file 3 "/home/tino/ChibiStudio/tools/GNU Tools ARM Embedded/4.6 2012q2/bin/../lib/gcc/arm-none-ea
 340              		.file 4 "../../ChibiOS/os/ports/GCC/ARMCMx/chtypes.h"
 341              		.file 5 "../../ChibiOS/os/kernel/include/chmemcore.h"
 342              		.file 6 "../../ChibiOS/os/kernel/include/chmempools.h"
 343              		.file 7 "../../ChibiOS/os/hal/platforms/STM32F1xx/stm32f10x.h"
 344              		.file 8 "../../Middleware/BaseMessage.hpp"
 345              		.file 9 "../../Middleware/BasePublisher.hpp"
 346              		.file 10 "../../Middleware/RemoteSubscriber.hpp"
 347              		.file 11 "../../Middleware/LocalPublisher.hpp"
 348              		.file 12 "../../Middleware/MessageQueue.hpp"
 349              		.file 13 "../../Middleware/BaseSubscriber.hpp"
 350              		.file 14 "../../RTCAN/include/rtcan.h"
 351              		.file 15 "../../RTCAN/include/msgqueue.h"
 352              		.file 16 "../../RTCAN/include/hrt.h"
 353              		.file 17 "../../Middleware/transport/RTcan.hpp"
 354              		.file 18 "../../Middleware/RemotePublisher.hpp"
 355              		.file 19 "../../ChibiOS/os/ports/common/ARMCMx/CMSIS/include/core_cm3.h"
 356              		.file 20 "../../RTCAN/platforms/STM32/rtcan_lld_can.h"
 357              		.file 21 "../../ChibiOS/os/various/cpp_wrappers/ch.hpp"
 358              		.section	.debug_info,"",%progbits
 359              	.Ldebug_info0:
 360 0000 E1160000 		.4byte	0x16e1
 361 0004 0200     		.2byte	0x2
 362 0006 00000000 		.4byte	.Ldebug_abbrev0
 363 000a 04       		.byte	0x4
 364 000b 01       		.uleb128 0x1
 365 000c 0D0F0000 		.4byte	.LASF234
 366 0010 04       		.byte	0x4
 367 0011 D5070000 		.4byte	.LASF235
 368 0015 F3000000 		.4byte	.LASF236
 369 0019 00000000 		.4byte	0
 370 001d 00000000 		.4byte	0
 371 0021 80000000 		.4byte	.Ldebug_ranges0+0x80
 372 0025 00000000 		.4byte	.Ldebug_line0
 373 0029 02       		.uleb128 0x2
 374 002a 04       		.byte	0x4
 375 002b 05       		.byte	0x5
 376 002c 696E7400 		.ascii	"int\000"
 377 0030 03       		.uleb128 0x3
 378 0031 19000000 		.4byte	.LASF2
 379 0035 02       		.byte	0x2
 380 0036 D4       		.byte	0xd4
 381 0037 3B000000 		.4byte	0x3b
 382 003b 04       		.uleb128 0x4
 383 003c 04       		.byte	0x4
 384 003d 07       		.byte	0x7
 385 003e FA070000 		.4byte	.LASF0
 386 0042 04       		.uleb128 0x4
 387 0043 01       		.byte	0x1
 388 0044 06       		.byte	0x6
 389 0045 DB020000 		.4byte	.LASF1
 390 0049 03       		.uleb128 0x3
 391 004a E7020000 		.4byte	.LASF3
ARM GAS  /tmp/ccS7GqVD.s 			page 8


 392 004e 03       		.byte	0x3
 393 004f 2A       		.byte	0x2a
 394 0050 54000000 		.4byte	0x54
 395 0054 04       		.uleb128 0x4
 396 0055 01       		.byte	0x1
 397 0056 08       		.byte	0x8
 398 0057 86030000 		.4byte	.LASF4
 399 005b 04       		.uleb128 0x4
 400 005c 02       		.byte	0x2
 401 005d 05       		.byte	0x5
 402 005e 610C0000 		.4byte	.LASF5
 403 0062 03       		.uleb128 0x3
 404 0063 1B0A0000 		.4byte	.LASF6
 405 0067 03       		.byte	0x3
 406 0068 36       		.byte	0x36
 407 0069 6D000000 		.4byte	0x6d
 408 006d 04       		.uleb128 0x4
 409 006e 02       		.byte	0x2
 410 006f 07       		.byte	0x7
 411 0070 390E0000 		.4byte	.LASF7
 412 0074 03       		.uleb128 0x3
 413 0075 7B000000 		.4byte	.LASF8
 414 0079 03       		.byte	0x3
 415 007a 4F       		.byte	0x4f
 416 007b 7F000000 		.4byte	0x7f
 417 007f 04       		.uleb128 0x4
 418 0080 04       		.byte	0x4
 419 0081 05       		.byte	0x5
 420 0082 3F020000 		.4byte	.LASF9
 421 0086 03       		.uleb128 0x3
 422 0087 C50D0000 		.4byte	.LASF10
 423 008b 03       		.byte	0x3
 424 008c 50       		.byte	0x50
 425 008d 91000000 		.4byte	0x91
 426 0091 04       		.uleb128 0x4
 427 0092 04       		.byte	0x4
 428 0093 07       		.byte	0x7
 429 0094 59060000 		.4byte	.LASF11
 430 0098 04       		.uleb128 0x4
 431 0099 08       		.byte	0x8
 432 009a 05       		.byte	0x5
 433 009b 56070000 		.4byte	.LASF12
 434 009f 04       		.uleb128 0x4
 435 00a0 08       		.byte	0x8
 436 00a1 07       		.byte	0x7
 437 00a2 EE090000 		.4byte	.LASF13
 438 00a6 03       		.uleb128 0x3
 439 00a7 BA0C0000 		.4byte	.LASF14
 440 00ab 04       		.byte	0x4
 441 00ac 24       		.byte	0x24
 442 00ad B1000000 		.4byte	0xb1
 443 00b1 04       		.uleb128 0x4
 444 00b2 01       		.byte	0x1
 445 00b3 02       		.byte	0x2
 446 00b4 0F090000 		.4byte	.LASF15
 447 00b8 05       		.uleb128 0x5
 448 00b9 04       		.byte	0x4
ARM GAS  /tmp/ccS7GqVD.s 			page 9


 449 00ba 06       		.uleb128 0x6
 450 00bb 86000000 		.4byte	0x86
 451 00bf 07       		.uleb128 0x7
 452 00c0 91000000 		.4byte	0x91
 453 00c4 CF000000 		.4byte	0xcf
 454 00c8 08       		.uleb128 0x8
 455 00c9 3B000000 		.4byte	0x3b
 456 00cd 07       		.byte	0x7
 457 00ce 00       		.byte	0
 458 00cf 07       		.uleb128 0x7
 459 00d0 91000000 		.4byte	0x91
 460 00d4 DF000000 		.4byte	0xdf
 461 00d8 08       		.uleb128 0x8
 462 00d9 3B000000 		.4byte	0x3b
 463 00dd 01       		.byte	0x1
 464 00de 00       		.byte	0
 465 00df 03       		.uleb128 0x3
 466 00e0 14090000 		.4byte	.LASF16
 467 00e4 05       		.byte	0x5
 468 00e5 25       		.byte	0x25
 469 00e6 EA000000 		.4byte	0xea
 470 00ea 09       		.uleb128 0x9
 471 00eb 04       		.byte	0x4
 472 00ec F0000000 		.4byte	0xf0
 473 00f0 0A       		.uleb128 0xa
 474 00f1 B8000000 		.4byte	0xb8
 475 00f5 FF000000 		.4byte	0xff
 476 00f9 0B       		.uleb128 0xb
 477 00fa 30000000 		.4byte	0x30
 478 00fe 00       		.byte	0
 479 00ff 0C       		.uleb128 0xc
 480 0100 F4060000 		.4byte	.LASF104
 481 0104 04       		.byte	0x4
 482 0105 06       		.byte	0x6
 483 0106 25       		.byte	0x25
 484 0107 1A010000 		.4byte	0x11a
 485 010b 0D       		.uleb128 0xd
 486 010c 94070000 		.4byte	.LASF17
 487 0110 06       		.byte	0x6
 488 0111 26       		.byte	0x26
 489 0112 1A010000 		.4byte	0x11a
 490 0116 02       		.byte	0x2
 491 0117 23       		.byte	0x23
 492 0118 00       		.uleb128 0
 493 0119 00       		.byte	0
 494 011a 09       		.uleb128 0x9
 495 011b 04       		.byte	0x4
 496 011c FF000000 		.4byte	0xff
 497 0120 0E       		.uleb128 0xe
 498 0121 0C       		.byte	0xc
 499 0122 06       		.byte	0x6
 500 0123 2D       		.byte	0x2d
 501 0124 00070000 		.4byte	.LASF184
 502 0128 57010000 		.4byte	0x157
 503 012c 0D       		.uleb128 0xd
 504 012d 7A0E0000 		.4byte	.LASF18
 505 0131 06       		.byte	0x6
ARM GAS  /tmp/ccS7GqVD.s 			page 10


 506 0132 2E       		.byte	0x2e
 507 0133 57010000 		.4byte	0x157
 508 0137 02       		.byte	0x2
 509 0138 23       		.byte	0x23
 510 0139 00       		.uleb128 0
 511 013a 0D       		.uleb128 0xd
 512 013b 320D0000 		.4byte	.LASF19
 513 013f 06       		.byte	0x6
 514 0140 2F       		.byte	0x2f
 515 0141 30000000 		.4byte	0x30
 516 0145 02       		.byte	0x2
 517 0146 23       		.byte	0x23
 518 0147 04       		.uleb128 0x4
 519 0148 0D       		.uleb128 0xd
 520 0149 F60E0000 		.4byte	.LASF20
 521 014d 06       		.byte	0x6
 522 014e 31       		.byte	0x31
 523 014f DF000000 		.4byte	0xdf
 524 0153 02       		.byte	0x2
 525 0154 23       		.byte	0x23
 526 0155 08       		.uleb128 0x8
 527 0156 00       		.byte	0
 528 0157 09       		.uleb128 0x9
 529 0158 04       		.byte	0x4
 530 0159 FF000000 		.4byte	0xff
 531 015d 03       		.uleb128 0x3
 532 015e 31010000 		.4byte	.LASF21
 533 0162 06       		.byte	0x6
 534 0163 33       		.byte	0x33
 535 0164 20010000 		.4byte	0x120
 536 0168 09       		.uleb128 0x9
 537 0169 04       		.byte	0x4
 538 016a 6E010000 		.4byte	0x16e
 539 016e 0F       		.uleb128 0xf
 540 016f 73010000 		.4byte	0x173
 541 0173 04       		.uleb128 0x4
 542 0174 01       		.byte	0x1
 543 0175 08       		.byte	0x8
 544 0176 17040000 		.4byte	.LASF22
 545 017a 09       		.uleb128 0x9
 546 017b 04       		.byte	0x4
 547 017c 49000000 		.4byte	0x49
 548 0180 06       		.uleb128 0x6
 549 0181 62000000 		.4byte	0x62
 550 0185 06       		.uleb128 0x6
 551 0186 74000000 		.4byte	0x74
 552 018a 10       		.uleb128 0x10
 553 018b 10       		.byte	0x10
 554 018c 07       		.byte	0x7
 555 018d AD02     		.2byte	0x2ad
 556 018f CE050000 		.4byte	.LASF27
 557 0193 D4010000 		.4byte	0x1d4
 558 0197 11       		.uleb128 0x11
 559 0198 54495200 		.ascii	"TIR\000"
 560 019c 07       		.byte	0x7
 561 019d AE02     		.2byte	0x2ae
 562 019f BA000000 		.4byte	0xba
ARM GAS  /tmp/ccS7GqVD.s 			page 11


 563 01a3 02       		.byte	0x2
 564 01a4 23       		.byte	0x23
 565 01a5 00       		.uleb128 0
 566 01a6 12       		.uleb128 0x12
 567 01a7 080F0000 		.4byte	.LASF23
 568 01ab 07       		.byte	0x7
 569 01ac AF02     		.2byte	0x2af
 570 01ae BA000000 		.4byte	0xba
 571 01b2 02       		.byte	0x2
 572 01b3 23       		.byte	0x23
 573 01b4 04       		.uleb128 0x4
 574 01b5 12       		.uleb128 0x12
 575 01b6 F70A0000 		.4byte	.LASF24
 576 01ba 07       		.byte	0x7
 577 01bb B002     		.2byte	0x2b0
 578 01bd BA000000 		.4byte	0xba
 579 01c1 02       		.byte	0x2
 580 01c2 23       		.byte	0x23
 581 01c3 08       		.uleb128 0x8
 582 01c4 12       		.uleb128 0x12
 583 01c5 A7080000 		.4byte	.LASF25
 584 01c9 07       		.byte	0x7
 585 01ca B102     		.2byte	0x2b1
 586 01cc BA000000 		.4byte	0xba
 587 01d0 02       		.byte	0x2
 588 01d1 23       		.byte	0x23
 589 01d2 0C       		.uleb128 0xc
 590 01d3 00       		.byte	0
 591 01d4 13       		.uleb128 0x13
 592 01d5 2C0C0000 		.4byte	.LASF26
 593 01d9 07       		.byte	0x7
 594 01da B202     		.2byte	0x2b2
 595 01dc 8A010000 		.4byte	0x18a
 596 01e0 10       		.uleb128 0x10
 597 01e1 10       		.byte	0x10
 598 01e2 07       		.byte	0x7
 599 01e3 B902     		.2byte	0x2b9
 600 01e5 AD060000 		.4byte	.LASF28
 601 01e9 2A020000 		.4byte	0x22a
 602 01ed 11       		.uleb128 0x11
 603 01ee 52495200 		.ascii	"RIR\000"
 604 01f2 07       		.byte	0x7
 605 01f3 BA02     		.2byte	0x2ba
 606 01f5 BA000000 		.4byte	0xba
 607 01f9 02       		.byte	0x2
 608 01fa 23       		.byte	0x23
 609 01fb 00       		.uleb128 0
 610 01fc 12       		.uleb128 0x12
 611 01fd F10E0000 		.4byte	.LASF29
 612 0201 07       		.byte	0x7
 613 0202 BB02     		.2byte	0x2bb
 614 0204 BA000000 		.4byte	0xba
 615 0208 02       		.byte	0x2
 616 0209 23       		.byte	0x23
 617 020a 04       		.uleb128 0x4
 618 020b 12       		.uleb128 0x12
 619 020c CD0A0000 		.4byte	.LASF30
ARM GAS  /tmp/ccS7GqVD.s 			page 12


 620 0210 07       		.byte	0x7
 621 0211 BC02     		.2byte	0x2bc
 622 0213 BA000000 		.4byte	0xba
 623 0217 02       		.byte	0x2
 624 0218 23       		.byte	0x23
 625 0219 08       		.uleb128 0x8
 626 021a 12       		.uleb128 0x12
 627 021b 7A080000 		.4byte	.LASF31
 628 021f 07       		.byte	0x7
 629 0220 BD02     		.2byte	0x2bd
 630 0222 BA000000 		.4byte	0xba
 631 0226 02       		.byte	0x2
 632 0227 23       		.byte	0x23
 633 0228 0C       		.uleb128 0xc
 634 0229 00       		.byte	0
 635 022a 13       		.uleb128 0x13
 636 022b D20A0000 		.4byte	.LASF32
 637 022f 07       		.byte	0x7
 638 0230 BE02     		.2byte	0x2be
 639 0232 E0010000 		.4byte	0x1e0
 640 0236 10       		.uleb128 0x10
 641 0237 08       		.byte	0x8
 642 0238 07       		.byte	0x7
 643 0239 C502     		.2byte	0x2c5
 644 023b F5010000 		.4byte	.LASF33
 645 023f 62020000 		.4byte	0x262
 646 0243 11       		.uleb128 0x11
 647 0244 46523100 		.ascii	"FR1\000"
 648 0248 07       		.byte	0x7
 649 0249 C602     		.2byte	0x2c6
 650 024b BA000000 		.4byte	0xba
 651 024f 02       		.byte	0x2
 652 0250 23       		.byte	0x23
 653 0251 00       		.uleb128 0
 654 0252 11       		.uleb128 0x11
 655 0253 46523200 		.ascii	"FR2\000"
 656 0257 07       		.byte	0x7
 657 0258 C702     		.2byte	0x2c7
 658 025a BA000000 		.4byte	0xba
 659 025e 02       		.byte	0x2
 660 025f 23       		.byte	0x23
 661 0260 04       		.uleb128 0x4
 662 0261 00       		.byte	0
 663 0262 13       		.uleb128 0x13
 664 0263 3E030000 		.4byte	.LASF34
 665 0267 07       		.byte	0x7
 666 0268 C802     		.2byte	0x2c8
 667 026a 36020000 		.4byte	0x236
 668 026e 14       		.uleb128 0x14
 669 026f B002     		.2byte	0x2b0
 670 0271 07       		.byte	0x7
 671 0272 CF02     		.2byte	0x2cf
 672 0274 BE0E0000 		.4byte	.LASF237
 673 0278 D4030000 		.4byte	0x3d4
 674 027c 11       		.uleb128 0x11
 675 027d 4D435200 		.ascii	"MCR\000"
 676 0281 07       		.byte	0x7
ARM GAS  /tmp/ccS7GqVD.s 			page 13


 677 0282 D002     		.2byte	0x2d0
 678 0284 BA000000 		.4byte	0xba
 679 0288 02       		.byte	0x2
 680 0289 23       		.byte	0x23
 681 028a 00       		.uleb128 0
 682 028b 11       		.uleb128 0x11
 683 028c 4D535200 		.ascii	"MSR\000"
 684 0290 07       		.byte	0x7
 685 0291 D102     		.2byte	0x2d1
 686 0293 BA000000 		.4byte	0xba
 687 0297 02       		.byte	0x2
 688 0298 23       		.byte	0x23
 689 0299 04       		.uleb128 0x4
 690 029a 11       		.uleb128 0x11
 691 029b 54535200 		.ascii	"TSR\000"
 692 029f 07       		.byte	0x7
 693 02a0 D202     		.2byte	0x2d2
 694 02a2 BA000000 		.4byte	0xba
 695 02a6 02       		.byte	0x2
 696 02a7 23       		.byte	0x23
 697 02a8 08       		.uleb128 0x8
 698 02a9 12       		.uleb128 0x12
 699 02aa CB020000 		.4byte	.LASF35
 700 02ae 07       		.byte	0x7
 701 02af D302     		.2byte	0x2d3
 702 02b1 BA000000 		.4byte	0xba
 703 02b5 02       		.byte	0x2
 704 02b6 23       		.byte	0x23
 705 02b7 0C       		.uleb128 0xc
 706 02b8 12       		.uleb128 0x12
 707 02b9 DA030000 		.4byte	.LASF36
 708 02bd 07       		.byte	0x7
 709 02be D402     		.2byte	0x2d4
 710 02c0 BA000000 		.4byte	0xba
 711 02c4 02       		.byte	0x2
 712 02c5 23       		.byte	0x23
 713 02c6 10       		.uleb128 0x10
 714 02c7 11       		.uleb128 0x11
 715 02c8 49455200 		.ascii	"IER\000"
 716 02cc 07       		.byte	0x7
 717 02cd D502     		.2byte	0x2d5
 718 02cf BA000000 		.4byte	0xba
 719 02d3 02       		.byte	0x2
 720 02d4 23       		.byte	0x23
 721 02d5 14       		.uleb128 0x14
 722 02d6 11       		.uleb128 0x11
 723 02d7 45535200 		.ascii	"ESR\000"
 724 02db 07       		.byte	0x7
 725 02dc D602     		.2byte	0x2d6
 726 02de BA000000 		.4byte	0xba
 727 02e2 02       		.byte	0x2
 728 02e3 23       		.byte	0x23
 729 02e4 18       		.uleb128 0x18
 730 02e5 11       		.uleb128 0x11
 731 02e6 42545200 		.ascii	"BTR\000"
 732 02ea 07       		.byte	0x7
 733 02eb D702     		.2byte	0x2d7
ARM GAS  /tmp/ccS7GqVD.s 			page 14


 734 02ed BA000000 		.4byte	0xba
 735 02f1 02       		.byte	0x2
 736 02f2 23       		.byte	0x23
 737 02f3 1C       		.uleb128 0x1c
 738 02f4 12       		.uleb128 0x12
 739 02f5 72030000 		.4byte	.LASF37
 740 02f9 07       		.byte	0x7
 741 02fa D802     		.2byte	0x2d8
 742 02fc D4030000 		.4byte	0x3d4
 743 0300 02       		.byte	0x2
 744 0301 23       		.byte	0x23
 745 0302 20       		.uleb128 0x20
 746 0303 12       		.uleb128 0x12
 747 0304 660E0000 		.4byte	.LASF38
 748 0308 07       		.byte	0x7
 749 0309 D902     		.2byte	0x2d9
 750 030b E4030000 		.4byte	0x3e4
 751 030f 03       		.byte	0x3
 752 0310 23       		.byte	0x23
 753 0311 8003     		.uleb128 0x180
 754 0313 12       		.uleb128 0x12
 755 0314 59030000 		.4byte	.LASF39
 756 0318 07       		.byte	0x7
 757 0319 DA02     		.2byte	0x2da
 758 031b F4030000 		.4byte	0x3f4
 759 031f 03       		.byte	0x3
 760 0320 23       		.byte	0x23
 761 0321 B003     		.uleb128 0x1b0
 762 0323 12       		.uleb128 0x12
 763 0324 7C030000 		.4byte	.LASF40
 764 0328 07       		.byte	0x7
 765 0329 DB02     		.2byte	0x2db
 766 032b 04040000 		.4byte	0x404
 767 032f 03       		.byte	0x3
 768 0330 23       		.byte	0x23
 769 0331 D003     		.uleb128 0x1d0
 770 0333 11       		.uleb128 0x11
 771 0334 464D5200 		.ascii	"FMR\000"
 772 0338 07       		.byte	0x7
 773 0339 DC02     		.2byte	0x2dc
 774 033b BA000000 		.4byte	0xba
 775 033f 03       		.byte	0x3
 776 0340 23       		.byte	0x23
 777 0341 8004     		.uleb128 0x200
 778 0343 12       		.uleb128 0x12
 779 0344 67080000 		.4byte	.LASF41
 780 0348 07       		.byte	0x7
 781 0349 DD02     		.2byte	0x2dd
 782 034b BA000000 		.4byte	0xba
 783 034f 03       		.byte	0x3
 784 0350 23       		.byte	0x23
 785 0351 8404     		.uleb128 0x204
 786 0353 12       		.uleb128 0x12
 787 0354 01040000 		.4byte	.LASF42
 788 0358 07       		.byte	0x7
 789 0359 DE02     		.2byte	0x2de
 790 035b 86000000 		.4byte	0x86
ARM GAS  /tmp/ccS7GqVD.s 			page 15


 791 035f 03       		.byte	0x3
 792 0360 23       		.byte	0x23
 793 0361 8804     		.uleb128 0x208
 794 0363 12       		.uleb128 0x12
 795 0364 910B0000 		.4byte	.LASF43
 796 0368 07       		.byte	0x7
 797 0369 DF02     		.2byte	0x2df
 798 036b BA000000 		.4byte	0xba
 799 036f 03       		.byte	0x3
 800 0370 23       		.byte	0x23
 801 0371 8C04     		.uleb128 0x20c
 802 0373 12       		.uleb128 0x12
 803 0374 94030000 		.4byte	.LASF44
 804 0378 07       		.byte	0x7
 805 0379 E002     		.2byte	0x2e0
 806 037b 86000000 		.4byte	0x86
 807 037f 03       		.byte	0x3
 808 0380 23       		.byte	0x23
 809 0381 9004     		.uleb128 0x210
 810 0383 12       		.uleb128 0x12
 811 0384 770C0000 		.4byte	.LASF45
 812 0388 07       		.byte	0x7
 813 0389 E102     		.2byte	0x2e1
 814 038b BA000000 		.4byte	0xba
 815 038f 03       		.byte	0x3
 816 0390 23       		.byte	0x23
 817 0391 9404     		.uleb128 0x214
 818 0393 12       		.uleb128 0x12
 819 0394 9E030000 		.4byte	.LASF46
 820 0398 07       		.byte	0x7
 821 0399 E202     		.2byte	0x2e2
 822 039b 86000000 		.4byte	0x86
 823 039f 03       		.byte	0x3
 824 03a0 23       		.byte	0x23
 825 03a1 9804     		.uleb128 0x218
 826 03a3 12       		.uleb128 0x12
 827 03a4 59020000 		.4byte	.LASF47
 828 03a8 07       		.byte	0x7
 829 03a9 E302     		.2byte	0x2e3
 830 03ab BA000000 		.4byte	0xba
 831 03af 03       		.byte	0x3
 832 03b0 23       		.byte	0x23
 833 03b1 9C04     		.uleb128 0x21c
 834 03b3 12       		.uleb128 0x12
 835 03b4 A8030000 		.4byte	.LASF48
 836 03b8 07       		.byte	0x7
 837 03b9 E402     		.2byte	0x2e4
 838 03bb BF000000 		.4byte	0xbf
 839 03bf 03       		.byte	0x3
 840 03c0 23       		.byte	0x23
 841 03c1 A004     		.uleb128 0x220
 842 03c3 12       		.uleb128 0x12
 843 03c4 560B0000 		.4byte	.LASF49
 844 03c8 07       		.byte	0x7
 845 03c9 E602     		.2byte	0x2e6
 846 03cb 14040000 		.4byte	0x414
 847 03cf 03       		.byte	0x3
ARM GAS  /tmp/ccS7GqVD.s 			page 16


 848 03d0 23       		.byte	0x23
 849 03d1 C004     		.uleb128 0x240
 850 03d3 00       		.byte	0
 851 03d4 07       		.uleb128 0x7
 852 03d5 91000000 		.4byte	0x91
 853 03d9 E4030000 		.4byte	0x3e4
 854 03dd 08       		.uleb128 0x8
 855 03de 3B000000 		.4byte	0x3b
 856 03e2 57       		.byte	0x57
 857 03e3 00       		.byte	0
 858 03e4 07       		.uleb128 0x7
 859 03e5 D4010000 		.4byte	0x1d4
 860 03e9 F4030000 		.4byte	0x3f4
 861 03ed 08       		.uleb128 0x8
 862 03ee 3B000000 		.4byte	0x3b
 863 03f2 02       		.byte	0x2
 864 03f3 00       		.byte	0
 865 03f4 07       		.uleb128 0x7
 866 03f5 2A020000 		.4byte	0x22a
 867 03f9 04040000 		.4byte	0x404
 868 03fd 08       		.uleb128 0x8
 869 03fe 3B000000 		.4byte	0x3b
 870 0402 01       		.byte	0x1
 871 0403 00       		.byte	0
 872 0404 07       		.uleb128 0x7
 873 0405 91000000 		.4byte	0x91
 874 0409 14040000 		.4byte	0x414
 875 040d 08       		.uleb128 0x8
 876 040e 3B000000 		.4byte	0x3b
 877 0412 0B       		.byte	0xb
 878 0413 00       		.byte	0
 879 0414 07       		.uleb128 0x7
 880 0415 62020000 		.4byte	0x262
 881 0419 24040000 		.4byte	0x424
 882 041d 08       		.uleb128 0x8
 883 041e 3B000000 		.4byte	0x3b
 884 0422 0D       		.byte	0xd
 885 0423 00       		.byte	0
 886 0424 13       		.uleb128 0x13
 887 0425 B6080000 		.4byte	.LASF50
 888 0429 07       		.byte	0x7
 889 042a EA02     		.2byte	0x2ea
 890 042c 6E020000 		.4byte	0x26e
 891 0430 10       		.uleb128 0x10
 892 0431 50       		.byte	0x50
 893 0432 07       		.byte	0x7
 894 0433 B204     		.2byte	0x4b2
 895 0435 6C080000 		.4byte	.LASF51
 896 0439 95060000 		.4byte	0x695
 897 043d 11       		.uleb128 0x11
 898 043e 43523100 		.ascii	"CR1\000"
 899 0442 07       		.byte	0x7
 900 0443 B304     		.2byte	0x4b3
 901 0445 80010000 		.4byte	0x180
 902 0449 02       		.byte	0x2
 903 044a 23       		.byte	0x23
 904 044b 00       		.uleb128 0
ARM GAS  /tmp/ccS7GqVD.s 			page 17


 905 044c 12       		.uleb128 0x12
 906 044d 72030000 		.4byte	.LASF37
 907 0451 07       		.byte	0x7
 908 0452 B404     		.2byte	0x4b4
 909 0454 62000000 		.4byte	0x62
 910 0458 02       		.byte	0x2
 911 0459 23       		.byte	0x23
 912 045a 02       		.uleb128 0x2
 913 045b 11       		.uleb128 0x11
 914 045c 43523200 		.ascii	"CR2\000"
 915 0460 07       		.byte	0x7
 916 0461 B504     		.2byte	0x4b5
 917 0463 80010000 		.4byte	0x180
 918 0467 02       		.byte	0x2
 919 0468 23       		.byte	0x23
 920 0469 04       		.uleb128 0x4
 921 046a 12       		.uleb128 0x12
 922 046b 7C030000 		.4byte	.LASF40
 923 046f 07       		.byte	0x7
 924 0470 B604     		.2byte	0x4b6
 925 0472 62000000 		.4byte	0x62
 926 0476 02       		.byte	0x2
 927 0477 23       		.byte	0x23
 928 0478 06       		.uleb128 0x6
 929 0479 12       		.uleb128 0x12
 930 047a FC0A0000 		.4byte	.LASF52
 931 047e 07       		.byte	0x7
 932 047f B704     		.2byte	0x4b7
 933 0481 80010000 		.4byte	0x180
 934 0485 02       		.byte	0x2
 935 0486 23       		.byte	0x23
 936 0487 08       		.uleb128 0x8
 937 0488 12       		.uleb128 0x12
 938 0489 01040000 		.4byte	.LASF42
 939 048d 07       		.byte	0x7
 940 048e B804     		.2byte	0x4b8
 941 0490 62000000 		.4byte	0x62
 942 0494 02       		.byte	0x2
 943 0495 23       		.byte	0x23
 944 0496 0A       		.uleb128 0xa
 945 0497 12       		.uleb128 0x12
 946 0498 7C060000 		.4byte	.LASF53
 947 049c 07       		.byte	0x7
 948 049d B904     		.2byte	0x4b9
 949 049f 80010000 		.4byte	0x180
 950 04a3 02       		.byte	0x2
 951 04a4 23       		.byte	0x23
 952 04a5 0C       		.uleb128 0xc
 953 04a6 12       		.uleb128 0x12
 954 04a7 94030000 		.4byte	.LASF44
 955 04ab 07       		.byte	0x7
 956 04ac BA04     		.2byte	0x4ba
 957 04ae 62000000 		.4byte	0x62
 958 04b2 02       		.byte	0x2
 959 04b3 23       		.byte	0x23
 960 04b4 0E       		.uleb128 0xe
 961 04b5 11       		.uleb128 0x11
ARM GAS  /tmp/ccS7GqVD.s 			page 18


 962 04b6 535200   		.ascii	"SR\000"
 963 04b9 07       		.byte	0x7
 964 04ba BB04     		.2byte	0x4bb
 965 04bc 80010000 		.4byte	0x180
 966 04c0 02       		.byte	0x2
 967 04c1 23       		.byte	0x23
 968 04c2 10       		.uleb128 0x10
 969 04c3 12       		.uleb128 0x12
 970 04c4 9E030000 		.4byte	.LASF46
 971 04c8 07       		.byte	0x7
 972 04c9 BC04     		.2byte	0x4bc
 973 04cb 62000000 		.4byte	0x62
 974 04cf 02       		.byte	0x2
 975 04d0 23       		.byte	0x23
 976 04d1 12       		.uleb128 0x12
 977 04d2 11       		.uleb128 0x11
 978 04d3 45475200 		.ascii	"EGR\000"
 979 04d7 07       		.byte	0x7
 980 04d8 BD04     		.2byte	0x4bd
 981 04da 80010000 		.4byte	0x180
 982 04de 02       		.byte	0x2
 983 04df 23       		.byte	0x23
 984 04e0 14       		.uleb128 0x14
 985 04e1 12       		.uleb128 0x12
 986 04e2 A8030000 		.4byte	.LASF48
 987 04e6 07       		.byte	0x7
 988 04e7 BE04     		.2byte	0x4be
 989 04e9 62000000 		.4byte	0x62
 990 04ed 02       		.byte	0x2
 991 04ee 23       		.byte	0x23
 992 04ef 16       		.uleb128 0x16
 993 04f0 12       		.uleb128 0x12
 994 04f1 0B040000 		.4byte	.LASF54
 995 04f5 07       		.byte	0x7
 996 04f6 BF04     		.2byte	0x4bf
 997 04f8 80010000 		.4byte	0x180
 998 04fc 02       		.byte	0x2
 999 04fd 23       		.byte	0x23
 1000 04fe 18       		.uleb128 0x18
 1001 04ff 12       		.uleb128 0x12
 1002 0500 B2030000 		.4byte	.LASF55
 1003 0504 07       		.byte	0x7
 1004 0505 C004     		.2byte	0x4c0
 1005 0507 62000000 		.4byte	0x62
 1006 050b 02       		.byte	0x2
 1007 050c 23       		.byte	0x23
 1008 050d 1A       		.uleb128 0x1a
 1009 050e 12       		.uleb128 0x12
 1010 050f 11040000 		.4byte	.LASF56
 1011 0513 07       		.byte	0x7
 1012 0514 C104     		.2byte	0x4c1
 1013 0516 80010000 		.4byte	0x180
 1014 051a 02       		.byte	0x2
 1015 051b 23       		.byte	0x23
 1016 051c 1C       		.uleb128 0x1c
 1017 051d 12       		.uleb128 0x12
 1018 051e BC030000 		.4byte	.LASF57
ARM GAS  /tmp/ccS7GqVD.s 			page 19


 1019 0522 07       		.byte	0x7
 1020 0523 C204     		.2byte	0x4c2
 1021 0525 62000000 		.4byte	0x62
 1022 0529 02       		.byte	0x2
 1023 052a 23       		.byte	0x23
 1024 052b 1E       		.uleb128 0x1e
 1025 052c 12       		.uleb128 0x12
 1026 052d 700A0000 		.4byte	.LASF58
 1027 0531 07       		.byte	0x7
 1028 0532 C304     		.2byte	0x4c3
 1029 0534 80010000 		.4byte	0x180
 1030 0538 02       		.byte	0x2
 1031 0539 23       		.byte	0x23
 1032 053a 20       		.uleb128 0x20
 1033 053b 12       		.uleb128 0x12
 1034 053c C6030000 		.4byte	.LASF59
 1035 0540 07       		.byte	0x7
 1036 0541 C404     		.2byte	0x4c4
 1037 0543 62000000 		.4byte	0x62
 1038 0547 02       		.byte	0x2
 1039 0548 23       		.byte	0x23
 1040 0549 22       		.uleb128 0x22
 1041 054a 11       		.uleb128 0x11
 1042 054b 434E5400 		.ascii	"CNT\000"
 1043 054f 07       		.byte	0x7
 1044 0550 C504     		.2byte	0x4c5
 1045 0552 80010000 		.4byte	0x180
 1046 0556 02       		.byte	0x2
 1047 0557 23       		.byte	0x23
 1048 0558 24       		.uleb128 0x24
 1049 0559 12       		.uleb128 0x12
 1050 055a D0030000 		.4byte	.LASF60
 1051 055e 07       		.byte	0x7
 1052 055f C604     		.2byte	0x4c6
 1053 0561 62000000 		.4byte	0x62
 1054 0565 02       		.byte	0x2
 1055 0566 23       		.byte	0x23
 1056 0567 26       		.uleb128 0x26
 1057 0568 11       		.uleb128 0x11
 1058 0569 50534300 		.ascii	"PSC\000"
 1059 056d 07       		.byte	0x7
 1060 056e C704     		.2byte	0x4c7
 1061 0570 80010000 		.4byte	0x180
 1062 0574 02       		.byte	0x2
 1063 0575 23       		.byte	0x23
 1064 0576 28       		.uleb128 0x28
 1065 0577 12       		.uleb128 0x12
 1066 0578 650A0000 		.4byte	.LASF61
 1067 057c 07       		.byte	0x7
 1068 057d C804     		.2byte	0x4c8
 1069 057f 62000000 		.4byte	0x62
 1070 0583 02       		.byte	0x2
 1071 0584 23       		.byte	0x23
 1072 0585 2A       		.uleb128 0x2a
 1073 0586 11       		.uleb128 0x11
 1074 0587 41525200 		.ascii	"ARR\000"
 1075 058b 07       		.byte	0x7
ARM GAS  /tmp/ccS7GqVD.s 			page 20


 1076 058c C904     		.2byte	0x4c9
 1077 058e 80010000 		.4byte	0x180
 1078 0592 02       		.byte	0x2
 1079 0593 23       		.byte	0x23
 1080 0594 2C       		.uleb128 0x2c
 1081 0595 12       		.uleb128 0x12
 1082 0596 5B0E0000 		.4byte	.LASF62
 1083 059a 07       		.byte	0x7
 1084 059b CA04     		.2byte	0x4ca
 1085 059d 62000000 		.4byte	0x62
 1086 05a1 02       		.byte	0x2
 1087 05a2 23       		.byte	0x23
 1088 05a3 2E       		.uleb128 0x2e
 1089 05a4 11       		.uleb128 0x11
 1090 05a5 52435200 		.ascii	"RCR\000"
 1091 05a9 07       		.byte	0x7
 1092 05aa CB04     		.2byte	0x4cb
 1093 05ac 80010000 		.4byte	0x180
 1094 05b0 02       		.byte	0x2
 1095 05b1 23       		.byte	0x23
 1096 05b2 30       		.uleb128 0x30
 1097 05b3 12       		.uleb128 0x12
 1098 05b4 750A0000 		.4byte	.LASF63
 1099 05b8 07       		.byte	0x7
 1100 05b9 CC04     		.2byte	0x4cc
 1101 05bb 62000000 		.4byte	0x62
 1102 05bf 02       		.byte	0x2
 1103 05c0 23       		.byte	0x23
 1104 05c1 32       		.uleb128 0x32
 1105 05c2 12       		.uleb128 0x12
 1106 05c3 DC010000 		.4byte	.LASF64
 1107 05c7 07       		.byte	0x7
 1108 05c8 CD04     		.2byte	0x4cd
 1109 05ca 80010000 		.4byte	0x180
 1110 05ce 02       		.byte	0x2
 1111 05cf 23       		.byte	0x23
 1112 05d0 34       		.uleb128 0x34
 1113 05d1 12       		.uleb128 0x12
 1114 05d2 800A0000 		.4byte	.LASF65
 1115 05d6 07       		.byte	0x7
 1116 05d7 CE04     		.2byte	0x4ce
 1117 05d9 62000000 		.4byte	0x62
 1118 05dd 02       		.byte	0x2
 1119 05de 23       		.byte	0x23
 1120 05df 36       		.uleb128 0x36
 1121 05e0 12       		.uleb128 0x12
 1122 05e1 E1010000 		.4byte	.LASF66
 1123 05e5 07       		.byte	0x7
 1124 05e6 CF04     		.2byte	0x4cf
 1125 05e8 80010000 		.4byte	0x180
 1126 05ec 02       		.byte	0x2
 1127 05ed 23       		.byte	0x23
 1128 05ee 38       		.uleb128 0x38
 1129 05ef 12       		.uleb128 0x12
 1130 05f0 8B0A0000 		.4byte	.LASF67
 1131 05f4 07       		.byte	0x7
 1132 05f5 D004     		.2byte	0x4d0
ARM GAS  /tmp/ccS7GqVD.s 			page 21


 1133 05f7 62000000 		.4byte	0x62
 1134 05fb 02       		.byte	0x2
 1135 05fc 23       		.byte	0x23
 1136 05fd 3A       		.uleb128 0x3a
 1137 05fe 12       		.uleb128 0x12
 1138 05ff E6010000 		.4byte	.LASF68
 1139 0603 07       		.byte	0x7
 1140 0604 D104     		.2byte	0x4d1
 1141 0606 80010000 		.4byte	0x180
 1142 060a 02       		.byte	0x2
 1143 060b 23       		.byte	0x23
 1144 060c 3C       		.uleb128 0x3c
 1145 060d 12       		.uleb128 0x12
 1146 060e 960A0000 		.4byte	.LASF69
 1147 0612 07       		.byte	0x7
 1148 0613 D204     		.2byte	0x4d2
 1149 0615 62000000 		.4byte	0x62
 1150 0619 02       		.byte	0x2
 1151 061a 23       		.byte	0x23
 1152 061b 3E       		.uleb128 0x3e
 1153 061c 12       		.uleb128 0x12
 1154 061d EB010000 		.4byte	.LASF70
 1155 0621 07       		.byte	0x7
 1156 0622 D304     		.2byte	0x4d3
 1157 0624 80010000 		.4byte	0x180
 1158 0628 02       		.byte	0x2
 1159 0629 23       		.byte	0x23
 1160 062a 40       		.uleb128 0x40
 1161 062b 12       		.uleb128 0x12
 1162 062c A10A0000 		.4byte	.LASF71
 1163 0630 07       		.byte	0x7
 1164 0631 D404     		.2byte	0x4d4
 1165 0633 62000000 		.4byte	0x62
 1166 0637 02       		.byte	0x2
 1167 0638 23       		.byte	0x23
 1168 0639 42       		.uleb128 0x42
 1169 063a 12       		.uleb128 0x12
 1170 063b 8C0D0000 		.4byte	.LASF72
 1171 063f 07       		.byte	0x7
 1172 0640 D504     		.2byte	0x4d5
 1173 0642 80010000 		.4byte	0x180
 1174 0646 02       		.byte	0x2
 1175 0647 23       		.byte	0x23
 1176 0648 44       		.uleb128 0x44
 1177 0649 12       		.uleb128 0x12
 1178 064a AC0A0000 		.4byte	.LASF73
 1179 064e 07       		.byte	0x7
 1180 064f D604     		.2byte	0x4d6
 1181 0651 62000000 		.4byte	0x62
 1182 0655 02       		.byte	0x2
 1183 0656 23       		.byte	0x23
 1184 0657 46       		.uleb128 0x46
 1185 0658 11       		.uleb128 0x11
 1186 0659 44435200 		.ascii	"DCR\000"
 1187 065d 07       		.byte	0x7
 1188 065e D704     		.2byte	0x4d7
 1189 0660 80010000 		.4byte	0x180
ARM GAS  /tmp/ccS7GqVD.s 			page 22


 1190 0664 02       		.byte	0x2
 1191 0665 23       		.byte	0x23
 1192 0666 48       		.uleb128 0x48
 1193 0667 12       		.uleb128 0x12
 1194 0668 B70A0000 		.4byte	.LASF74
 1195 066c 07       		.byte	0x7
 1196 066d D804     		.2byte	0x4d8
 1197 066f 62000000 		.4byte	0x62
 1198 0673 02       		.byte	0x2
 1199 0674 23       		.byte	0x23
 1200 0675 4A       		.uleb128 0x4a
 1201 0676 12       		.uleb128 0x12
 1202 0677 97010000 		.4byte	.LASF75
 1203 067b 07       		.byte	0x7
 1204 067c D904     		.2byte	0x4d9
 1205 067e 80010000 		.4byte	0x180
 1206 0682 02       		.byte	0x2
 1207 0683 23       		.byte	0x23
 1208 0684 4C       		.uleb128 0x4c
 1209 0685 12       		.uleb128 0x12
 1210 0686 C20A0000 		.4byte	.LASF76
 1211 068a 07       		.byte	0x7
 1212 068b DA04     		.2byte	0x4da
 1213 068d 62000000 		.4byte	0x62
 1214 0691 02       		.byte	0x2
 1215 0692 23       		.byte	0x23
 1216 0693 4E       		.uleb128 0x4e
 1217 0694 00       		.byte	0
 1218 0695 13       		.uleb128 0x13
 1219 0696 66030000 		.4byte	.LASF77
 1220 069a 07       		.byte	0x7
 1221 069b DB04     		.2byte	0x4db
 1222 069d 30040000 		.4byte	0x430
 1223 06a1 15       		.uleb128 0x15
 1224 06a2 D0020000 		.4byte	.LASF238
 1225 06a6 15       		.byte	0x15
 1226 06a7 21       		.byte	0x21
 1227 06a8 16       		.uleb128 0x16
 1228 06a9 030C0000 		.4byte	.LASF78
 1229 06ad 02       		.byte	0x2
 1230 06ae 08       		.byte	0x8
 1231 06af 06       		.byte	0x6
 1232 06b0 34070000 		.4byte	0x734
 1233 06b4 17       		.uleb128 0x17
 1234 06b5 C20B0000 		.4byte	.LASF81
 1235 06b9 08       		.byte	0x8
 1236 06ba 08       		.byte	0x8
 1237 06bb 62000000 		.4byte	0x62
 1238 06bf 02       		.byte	0x2
 1239 06c0 23       		.byte	0x23
 1240 06c1 00       		.uleb128 0
 1241 06c2 02       		.byte	0x2
 1242 06c3 18       		.uleb128 0x18
 1243 06c4 01       		.byte	0x1
 1244 06c5 030C0000 		.4byte	.LASF78
 1245 06c9 08       		.byte	0x8
 1246 06ca 0A       		.byte	0xa
ARM GAS  /tmp/ccS7GqVD.s 			page 23


 1247 06cb 34070000 		.4byte	0x734
 1248 06cf 01       		.byte	0x1
 1249 06d0 D8060000 		.4byte	0x6d8
 1250 06d4 DF060000 		.4byte	0x6df
 1251 06d8 19       		.uleb128 0x19
 1252 06d9 34070000 		.4byte	0x734
 1253 06dd 01       		.byte	0x1
 1254 06de 00       		.byte	0
 1255 06df 1A       		.uleb128 0x1a
 1256 06e0 01       		.byte	0x1
 1257 06e1 6B060000 		.4byte	.LASF79
 1258 06e5 08       		.byte	0x8
 1259 06e6 0B       		.byte	0xb
 1260 06e7 21090000 		.4byte	.LASF95
 1261 06eb 01       		.byte	0x1
 1262 06ec F4060000 		.4byte	0x6f4
 1263 06f0 FB060000 		.4byte	0x6fb
 1264 06f4 19       		.uleb128 0x19
 1265 06f5 34070000 		.4byte	0x734
 1266 06f9 01       		.byte	0x1
 1267 06fa 00       		.byte	0
 1268 06fb 1B       		.uleb128 0x1b
 1269 06fc 01       		.byte	0x1
 1270 06fd 410D0000 		.4byte	.LASF86
 1271 0701 08       		.byte	0x8
 1272 0702 0C       		.byte	0xc
 1273 0703 DF0D0000 		.4byte	.LASF88
 1274 0707 A6000000 		.4byte	0xa6
 1275 070b 01       		.byte	0x1
 1276 070c 14070000 		.4byte	0x714
 1277 0710 1B070000 		.4byte	0x71b
 1278 0714 19       		.uleb128 0x19
 1279 0715 34070000 		.4byte	0x734
 1280 0719 01       		.byte	0x1
 1281 071a 00       		.byte	0
 1282 071b 1C       		.uleb128 0x1c
 1283 071c 01       		.byte	0x1
 1284 071d 960B0000 		.4byte	.LASF101
 1285 0721 08       		.byte	0x8
 1286 0722 0D       		.byte	0xd
 1287 0723 9C070000 		.4byte	.LASF102
 1288 0727 01       		.byte	0x1
 1289 0728 2C070000 		.4byte	0x72c
 1290 072c 19       		.uleb128 0x19
 1291 072d 34070000 		.4byte	0x734
 1292 0731 01       		.byte	0x1
 1293 0732 00       		.byte	0
 1294 0733 00       		.byte	0
 1295 0734 09       		.uleb128 0x9
 1296 0735 04       		.byte	0x4
 1297 0736 A8060000 		.4byte	0x6a8
 1298 073a 16       		.uleb128 0x16
 1299 073b 48070000 		.4byte	.LASF80
 1300 073f 18       		.byte	0x18
 1301 0740 09       		.byte	0x9
 1302 0741 0A       		.byte	0xa
 1303 0742 89080000 		.4byte	0x889
ARM GAS  /tmp/ccS7GqVD.s 			page 24


 1304 0746 17       		.uleb128 0x17
 1305 0747 65000000 		.4byte	.LASF82
 1306 074b 09       		.byte	0x9
 1307 074c 0C       		.byte	0xc
 1308 074d 68010000 		.4byte	0x168
 1309 0751 02       		.byte	0x2
 1310 0752 23       		.byte	0x23
 1311 0753 00       		.uleb128 0
 1312 0754 02       		.byte	0x2
 1313 0755 17       		.uleb128 0x17
 1314 0756 C6090000 		.4byte	.LASF83
 1315 075a 09       		.byte	0x9
 1316 075b 0D       		.byte	0xd
 1317 075c 8F080000 		.4byte	0x88f
 1318 0760 02       		.byte	0x2
 1319 0761 23       		.byte	0x23
 1320 0762 04       		.uleb128 0x4
 1321 0763 02       		.byte	0x2
 1322 0764 17       		.uleb128 0x17
 1323 0765 22070000 		.4byte	.LASF84
 1324 0769 09       		.byte	0x9
 1325 076a 0E       		.byte	0xe
 1326 076b 1A0A0000 		.4byte	0xa1a
 1327 076f 02       		.byte	0x2
 1328 0770 23       		.byte	0x23
 1329 0771 08       		.uleb128 0x8
 1330 0772 02       		.byte	0x2
 1331 0773 17       		.uleb128 0x17
 1332 0774 42070000 		.4byte	.LASF85
 1333 0778 09       		.byte	0x9
 1334 0779 0F       		.byte	0xf
 1335 077a 5D010000 		.4byte	0x15d
 1336 077e 02       		.byte	0x2
 1337 077f 23       		.byte	0x23
 1338 0780 0C       		.uleb128 0xc
 1339 0781 02       		.byte	0x2
 1340 0782 18       		.uleb128 0x18
 1341 0783 01       		.byte	0x1
 1342 0784 48070000 		.4byte	.LASF80
 1343 0788 09       		.byte	0x9
 1344 0789 11       		.byte	0x11
 1345 078a 200A0000 		.4byte	0xa20
 1346 078e 01       		.byte	0x1
 1347 078f 97070000 		.4byte	0x797
 1348 0793 A8070000 		.4byte	0x7a8
 1349 0797 19       		.uleb128 0x19
 1350 0798 200A0000 		.4byte	0xa20
 1351 079c 01       		.byte	0x1
 1352 079d 0B       		.uleb128 0xb
 1353 079e 68010000 		.4byte	0x168
 1354 07a2 0B       		.uleb128 0xb
 1355 07a3 30000000 		.4byte	0x30
 1356 07a7 00       		.byte	0
 1357 07a8 1B       		.uleb128 0x1b
 1358 07a9 01       		.byte	0x1
 1359 07aa AB000000 		.4byte	.LASF87
 1360 07ae 09       		.byte	0x9
ARM GAS  /tmp/ccS7GqVD.s 			page 25


 1361 07af 12       		.byte	0x12
 1362 07b0 D3090000 		.4byte	.LASF89
 1363 07b4 68010000 		.4byte	0x168
 1364 07b8 01       		.byte	0x1
 1365 07b9 C1070000 		.4byte	0x7c1
 1366 07bd C8070000 		.4byte	0x7c8
 1367 07c1 19       		.uleb128 0x19
 1368 07c2 200A0000 		.4byte	0xa20
 1369 07c6 01       		.byte	0x1
 1370 07c7 00       		.byte	0
 1371 07c8 1B       		.uleb128 0x1b
 1372 07c9 01       		.byte	0x1
 1373 07ca CF070000 		.4byte	.LASF90
 1374 07ce 09       		.byte	0x9
 1375 07cf 13       		.byte	0x13
 1376 07d0 F6040000 		.4byte	.LASF91
 1377 07d4 34070000 		.4byte	0x734
 1378 07d8 01       		.byte	0x1
 1379 07d9 E1070000 		.4byte	0x7e1
 1380 07dd E8070000 		.4byte	0x7e8
 1381 07e1 19       		.uleb128 0x19
 1382 07e2 200A0000 		.4byte	0xa20
 1383 07e6 01       		.byte	0x1
 1384 07e7 00       		.byte	0
 1385 07e8 1B       		.uleb128 0x1b
 1386 07e9 01       		.byte	0x1
 1387 07ea 32080000 		.4byte	.LASF92
 1388 07ee 09       		.byte	0x9
 1389 07ef 14       		.byte	0x14
 1390 07f0 7A050000 		.4byte	.LASF93
 1391 07f4 34070000 		.4byte	0x734
 1392 07f8 01       		.byte	0x1
 1393 07f9 01080000 		.4byte	0x801
 1394 07fd 08080000 		.4byte	0x808
 1395 0801 19       		.uleb128 0x19
 1396 0802 200A0000 		.4byte	0xa20
 1397 0806 01       		.byte	0x1
 1398 0807 00       		.byte	0
 1399 0808 1A       		.uleb128 0x1a
 1400 0809 01       		.byte	0x1
 1401 080a 2C0E0000 		.4byte	.LASF94
 1402 080e 09       		.byte	0x9
 1403 080f 15       		.byte	0x15
 1404 0810 2F060000 		.4byte	.LASF96
 1405 0814 01       		.byte	0x1
 1406 0815 1D080000 		.4byte	0x81d
 1407 0819 29080000 		.4byte	0x829
 1408 081d 19       		.uleb128 0x19
 1409 081e 200A0000 		.4byte	0xa20
 1410 0822 01       		.byte	0x1
 1411 0823 0B       		.uleb128 0xb
 1412 0824 34070000 		.4byte	0x734
 1413 0828 00       		.byte	0
 1414 0829 1A       		.uleb128 0x1a
 1415 082a 01       		.byte	0x1
 1416 082b 190B0000 		.4byte	.LASF97
 1417 082f 09       		.byte	0x9
ARM GAS  /tmp/ccS7GqVD.s 			page 26


 1418 0830 16       		.byte	0x16
 1419 0831 07080000 		.4byte	.LASF98
 1420 0835 01       		.byte	0x1
 1421 0836 3E080000 		.4byte	0x83e
 1422 083a 4A080000 		.4byte	0x84a
 1423 083e 19       		.uleb128 0x19
 1424 083f 200A0000 		.4byte	0xa20
 1425 0843 01       		.byte	0x1
 1426 0844 0B       		.uleb128 0xb
 1427 0845 34070000 		.4byte	0x734
 1428 0849 00       		.byte	0
 1429 084a 1A       		.uleb128 0x1a
 1430 084b 01       		.byte	0x1
 1431 084c 6B0C0000 		.4byte	.LASF99
 1432 0850 09       		.byte	0x9
 1433 0851 17       		.byte	0x17
 1434 0852 240A0000 		.4byte	.LASF100
 1435 0856 01       		.byte	0x1
 1436 0857 5F080000 		.4byte	0x85f
 1437 085b 6B080000 		.4byte	0x86b
 1438 085f 19       		.uleb128 0x19
 1439 0860 200A0000 		.4byte	0xa20
 1440 0864 01       		.byte	0x1
 1441 0865 0B       		.uleb128 0xb
 1442 0866 1A0A0000 		.4byte	0xa1a
 1443 086a 00       		.byte	0
 1444 086b 1C       		.uleb128 0x1c
 1445 086c 01       		.byte	0x1
 1446 086d 6B0C0000 		.4byte	.LASF99
 1447 0871 09       		.byte	0x9
 1448 0872 18       		.byte	0x18
 1449 0873 B6000000 		.4byte	.LASF103
 1450 0877 01       		.byte	0x1
 1451 0878 7C080000 		.4byte	0x87c
 1452 087c 19       		.uleb128 0x19
 1453 087d 200A0000 		.4byte	0xa20
 1454 0881 01       		.byte	0x1
 1455 0882 0B       		.uleb128 0xb
 1456 0883 8F080000 		.4byte	0x88f
 1457 0887 00       		.byte	0
 1458 0888 00       		.byte	0
 1459 0889 1D       		.uleb128 0x1d
 1460 088a 85040000 		.4byte	.LASF239
 1461 088e 01       		.byte	0x1
 1462 088f 09       		.uleb128 0x9
 1463 0890 04       		.byte	0x4
 1464 0891 89080000 		.4byte	0x889
 1465 0895 0C       		.uleb128 0xc
 1466 0896 48020000 		.4byte	.LASF105
 1467 089a 34       		.byte	0x34
 1468 089b 0A       		.byte	0xa
 1469 089c 0A       		.byte	0xa
 1470 089d 1A0A0000 		.4byte	0xa1a
 1471 08a1 1E       		.uleb128 0x1e
 1472 08a2 950C0000 		.4byte	0xc95
 1473 08a6 02       		.byte	0x2
 1474 08a7 23       		.byte	0x23
ARM GAS  /tmp/ccS7GqVD.s 			page 27


 1475 08a8 00       		.uleb128 0
 1476 08a9 01       		.byte	0x1
 1477 08aa 1F       		.uleb128 0x1f
 1478 08ab 5F696400 		.ascii	"_id\000"
 1479 08af 0A       		.byte	0xa
 1480 08b0 0D       		.byte	0xd
 1481 08b1 62000000 		.4byte	0x62
 1482 08b5 02       		.byte	0x2
 1483 08b6 23       		.byte	0x23
 1484 08b7 28       		.uleb128 0x28
 1485 08b8 03       		.byte	0x3
 1486 08b9 17       		.uleb128 0x17
 1487 08ba 500B0000 		.4byte	.LASF106
 1488 08be 0A       		.byte	0xa
 1489 08bf 0F       		.byte	0xf
 1490 08c0 1B0E0000 		.4byte	0xe1b
 1491 08c4 02       		.byte	0x2
 1492 08c5 23       		.byte	0x23
 1493 08c6 2C       		.uleb128 0x2c
 1494 08c7 02       		.byte	0x2
 1495 08c8 17       		.uleb128 0x17
 1496 08c9 3E090000 		.4byte	.LASF107
 1497 08cd 0A       		.byte	0xa
 1498 08ce 10       		.byte	0x10
 1499 08cf 1B0E0000 		.4byte	0xe1b
 1500 08d3 02       		.byte	0x2
 1501 08d4 23       		.byte	0x23
 1502 08d5 30       		.uleb128 0x30
 1503 08d6 02       		.byte	0x2
 1504 08d7 18       		.uleb128 0x18
 1505 08d8 01       		.byte	0x1
 1506 08d9 48020000 		.4byte	.LASF105
 1507 08dd 0A       		.byte	0xa
 1508 08de 12       		.byte	0x12
 1509 08df 1A0A0000 		.4byte	0xa1a
 1510 08e3 01       		.byte	0x1
 1511 08e4 EC080000 		.4byte	0x8ec
 1512 08e8 0C090000 		.4byte	0x90c
 1513 08ec 19       		.uleb128 0x19
 1514 08ed 1A0A0000 		.4byte	0xa1a
 1515 08f1 01       		.byte	0x1
 1516 08f2 0B       		.uleb128 0xb
 1517 08f3 68010000 		.4byte	0x168
 1518 08f7 0B       		.uleb128 0xb
 1519 08f8 30000000 		.4byte	0x30
 1520 08fc 0B       		.uleb128 0xb
 1521 08fd 7A010000 		.4byte	0x17a
 1522 0901 0B       		.uleb128 0xb
 1523 0902 890C0000 		.4byte	0xc89
 1524 0906 0B       		.uleb128 0xb
 1525 0907 86000000 		.4byte	0x86
 1526 090b 00       		.byte	0
 1527 090c 1B       		.uleb128 0x1b
 1528 090d 01       		.byte	0x1
 1529 090e CC0E0000 		.4byte	.LASF108
 1530 0912 0A       		.byte	0xa
 1531 0913 13       		.byte	0x13
ARM GAS  /tmp/ccS7GqVD.s 			page 28


 1532 0914 0F0C0000 		.4byte	.LASF109
 1533 0918 1B0E0000 		.4byte	0xe1b
 1534 091c 01       		.byte	0x1
 1535 091d 25090000 		.4byte	0x925
 1536 0921 2C090000 		.4byte	0x92c
 1537 0925 19       		.uleb128 0x19
 1538 0926 1A0A0000 		.4byte	0xa1a
 1539 092a 01       		.byte	0x1
 1540 092b 00       		.byte	0
 1541 092c 1A       		.uleb128 0x1a
 1542 092d 01       		.byte	0x1
 1543 092e CC0E0000 		.4byte	.LASF108
 1544 0932 0A       		.byte	0xa
 1545 0933 14       		.byte	0x14
 1546 0934 CC080000 		.4byte	.LASF110
 1547 0938 01       		.byte	0x1
 1548 0939 41090000 		.4byte	0x941
 1549 093d 4D090000 		.4byte	0x94d
 1550 0941 19       		.uleb128 0x19
 1551 0942 1A0A0000 		.4byte	0xa1a
 1552 0946 01       		.byte	0x1
 1553 0947 0B       		.uleb128 0xb
 1554 0948 1B0E0000 		.4byte	0xe1b
 1555 094c 00       		.byte	0
 1556 094d 1A       		.uleb128 0x1a
 1557 094e 01       		.byte	0x1
 1558 094f C7060000 		.4byte	.LASF111
 1559 0953 0A       		.byte	0xa
 1560 0954 15       		.byte	0x15
 1561 0955 420C0000 		.4byte	.LASF112
 1562 0959 01       		.byte	0x1
 1563 095a 62090000 		.4byte	0x962
 1564 095e 6E090000 		.4byte	0x96e
 1565 0962 19       		.uleb128 0x19
 1566 0963 1A0A0000 		.4byte	0xa1a
 1567 0967 01       		.byte	0x1
 1568 0968 0B       		.uleb128 0xb
 1569 0969 1B0E0000 		.4byte	0xe1b
 1570 096d 00       		.byte	0
 1571 096e 1B       		.uleb128 0x1b
 1572 096f 01       		.byte	0x1
 1573 0970 90090000 		.4byte	.LASF113
 1574 0974 0A       		.byte	0xa
 1575 0975 16       		.byte	0x16
 1576 0976 81060000 		.4byte	.LASF114
 1577 097a 1B0E0000 		.4byte	0xe1b
 1578 097e 01       		.byte	0x1
 1579 097f 87090000 		.4byte	0x987
 1580 0983 93090000 		.4byte	0x993
 1581 0987 19       		.uleb128 0x19
 1582 0988 1A0A0000 		.4byte	0xa1a
 1583 098c 01       		.byte	0x1
 1584 098d 0B       		.uleb128 0xb
 1585 098e 34070000 		.4byte	0x734
 1586 0992 00       		.byte	0
 1587 0993 1B       		.uleb128 0x1b
 1588 0994 01       		.byte	0x1
ARM GAS  /tmp/ccS7GqVD.s 			page 29


 1589 0995 90090000 		.4byte	.LASF113
 1590 0999 0A       		.byte	0xa
 1591 099a 17       		.byte	0x17
 1592 099b 2D050000 		.4byte	.LASF115
 1593 099f 1B0E0000 		.4byte	0xe1b
 1594 09a3 01       		.byte	0x1
 1595 09a4 AC090000 		.4byte	0x9ac
 1596 09a8 BD090000 		.4byte	0x9bd
 1597 09ac 19       		.uleb128 0x19
 1598 09ad 1A0A0000 		.4byte	0xa1a
 1599 09b1 01       		.byte	0x1
 1600 09b2 0B       		.uleb128 0xb
 1601 09b3 34070000 		.4byte	0x734
 1602 09b7 0B       		.uleb128 0xb
 1603 09b8 210E0000 		.4byte	0xe21
 1604 09bc 00       		.byte	0
 1605 09bd 1A       		.uleb128 0x1a
 1606 09be 01       		.byte	0x1
 1607 09bf C2080000 		.4byte	.LASF116
 1608 09c3 0A       		.byte	0xa
 1609 09c4 18       		.byte	0x18
 1610 09c5 880C0000 		.4byte	.LASF117
 1611 09c9 01       		.byte	0x1
 1612 09ca D2090000 		.4byte	0x9d2
 1613 09ce DE090000 		.4byte	0x9de
 1614 09d2 19       		.uleb128 0x19
 1615 09d3 1A0A0000 		.4byte	0xa1a
 1616 09d7 01       		.byte	0x1
 1617 09d8 0B       		.uleb128 0xb
 1618 09d9 390B0000 		.4byte	0xb39
 1619 09dd 00       		.byte	0
 1620 09de 20       		.uleb128 0x20
 1621 09df 01       		.byte	0x1
 1622 09e0 696400   		.ascii	"id\000"
 1623 09e3 0A       		.byte	0xa
 1624 09e4 19       		.byte	0x19
 1625 09e5 95020000 		.4byte	.LASF118
 1626 09e9 01       		.byte	0x1
 1627 09ea F2090000 		.4byte	0x9f2
 1628 09ee FE090000 		.4byte	0x9fe
 1629 09f2 19       		.uleb128 0x19
 1630 09f3 1A0A0000 		.4byte	0xa1a
 1631 09f7 01       		.byte	0x1
 1632 09f8 0B       		.uleb128 0xb
 1633 09f9 62000000 		.4byte	0x62
 1634 09fd 00       		.byte	0
 1635 09fe 21       		.uleb128 0x21
 1636 09ff 01       		.byte	0x1
 1637 0a00 696400   		.ascii	"id\000"
 1638 0a03 0A       		.byte	0xa
 1639 0a04 1A       		.byte	0x1a
 1640 0a05 B0020000 		.4byte	.LASF119
 1641 0a09 62000000 		.4byte	0x62
 1642 0a0d 01       		.byte	0x1
 1643 0a0e 120A0000 		.4byte	0xa12
 1644 0a12 19       		.uleb128 0x19
 1645 0a13 1A0A0000 		.4byte	0xa1a
ARM GAS  /tmp/ccS7GqVD.s 			page 30


 1646 0a17 01       		.byte	0x1
 1647 0a18 00       		.byte	0
 1648 0a19 00       		.byte	0
 1649 0a1a 09       		.uleb128 0x9
 1650 0a1b 04       		.byte	0x4
 1651 0a1c 95080000 		.4byte	0x895
 1652 0a20 09       		.uleb128 0x9
 1653 0a21 04       		.byte	0x4
 1654 0a22 3A070000 		.4byte	0x73a
 1655 0a26 16       		.uleb128 0x16
 1656 0a27 14030000 		.4byte	.LASF120
 1657 0a2b 1C       		.byte	0x1c
 1658 0a2c 0B       		.byte	0xb
 1659 0a2d 0A       		.byte	0xa
 1660 0a2e 330B0000 		.4byte	0xb33
 1661 0a32 1E       		.uleb128 0x1e
 1662 0a33 3A070000 		.4byte	0x73a
 1663 0a37 02       		.byte	0x2
 1664 0a38 23       		.byte	0x23
 1665 0a39 00       		.uleb128 0
 1666 0a3a 01       		.byte	0x1
 1667 0a3b 17       		.uleb128 0x17
 1668 0a3c 500B0000 		.4byte	.LASF106
 1669 0a40 0B       		.byte	0xb
 1670 0a41 0C       		.byte	0xc
 1671 0a42 330B0000 		.4byte	0xb33
 1672 0a46 02       		.byte	0x2
 1673 0a47 23       		.byte	0x23
 1674 0a48 18       		.uleb128 0x18
 1675 0a49 02       		.byte	0x2
 1676 0a4a 18       		.uleb128 0x18
 1677 0a4b 01       		.byte	0x1
 1678 0a4c 14030000 		.4byte	.LASF120
 1679 0a50 0B       		.byte	0xb
 1680 0a51 0E       		.byte	0xe
 1681 0a52 390B0000 		.4byte	0xb39
 1682 0a56 01       		.byte	0x1
 1683 0a57 5F0A0000 		.4byte	0xa5f
 1684 0a5b 700A0000 		.4byte	0xa70
 1685 0a5f 19       		.uleb128 0x19
 1686 0a60 390B0000 		.4byte	0xb39
 1687 0a64 01       		.byte	0x1
 1688 0a65 0B       		.uleb128 0xb
 1689 0a66 68010000 		.4byte	0x168
 1690 0a6a 0B       		.uleb128 0xb
 1691 0a6b 30000000 		.4byte	0x30
 1692 0a6f 00       		.byte	0
 1693 0a70 1B       		.uleb128 0x1b
 1694 0a71 01       		.byte	0x1
 1695 0a72 CC0E0000 		.4byte	.LASF108
 1696 0a76 0B       		.byte	0xb
 1697 0a77 0F       		.byte	0xf
 1698 0a78 DF030000 		.4byte	.LASF121
 1699 0a7c 330B0000 		.4byte	0xb33
 1700 0a80 01       		.byte	0x1
 1701 0a81 890A0000 		.4byte	0xa89
 1702 0a85 900A0000 		.4byte	0xa90
ARM GAS  /tmp/ccS7GqVD.s 			page 31


 1703 0a89 19       		.uleb128 0x19
 1704 0a8a 390B0000 		.4byte	0xb39
 1705 0a8e 01       		.byte	0x1
 1706 0a8f 00       		.byte	0
 1707 0a90 1A       		.uleb128 0x1a
 1708 0a91 01       		.byte	0x1
 1709 0a92 CC0E0000 		.4byte	.LASF108
 1710 0a96 0B       		.byte	0xb
 1711 0a97 10       		.byte	0x10
 1712 0a98 DE0C0000 		.4byte	.LASF122
 1713 0a9c 01       		.byte	0x1
 1714 0a9d A50A0000 		.4byte	0xaa5
 1715 0aa1 B10A0000 		.4byte	0xab1
 1716 0aa5 19       		.uleb128 0x19
 1717 0aa6 390B0000 		.4byte	0xb39
 1718 0aaa 01       		.byte	0x1
 1719 0aab 0B       		.uleb128 0xb
 1720 0aac 330B0000 		.4byte	0xb33
 1721 0ab0 00       		.byte	0
 1722 0ab1 1B       		.uleb128 0x1b
 1723 0ab2 01       		.byte	0x1
 1724 0ab3 0A030000 		.4byte	.LASF123
 1725 0ab7 0B       		.byte	0xb
 1726 0ab8 11       		.byte	0x11
 1727 0ab9 FF0D0000 		.4byte	.LASF124
 1728 0abd 29000000 		.4byte	0x29
 1729 0ac1 01       		.byte	0x1
 1730 0ac2 CA0A0000 		.4byte	0xaca
 1731 0ac6 D60A0000 		.4byte	0xad6
 1732 0aca 19       		.uleb128 0x19
 1733 0acb 390B0000 		.4byte	0xb39
 1734 0acf 01       		.byte	0x1
 1735 0ad0 0B       		.uleb128 0xb
 1736 0ad1 34070000 		.4byte	0x734
 1737 0ad5 00       		.byte	0
 1738 0ad6 1A       		.uleb128 0x1a
 1739 0ad7 01       		.byte	0x1
 1740 0ad8 C2080000 		.4byte	.LASF116
 1741 0adc 0B       		.byte	0xb
 1742 0add 12       		.byte	0x12
 1743 0ade CD0B0000 		.4byte	.LASF125
 1744 0ae2 01       		.byte	0x1
 1745 0ae3 EB0A0000 		.4byte	0xaeb
 1746 0ae7 060B0000 		.4byte	0xb06
 1747 0aeb 19       		.uleb128 0x19
 1748 0aec 390B0000 		.4byte	0xb39
 1749 0af0 01       		.byte	0x1
 1750 0af1 0B       		.uleb128 0xb
 1751 0af2 8F080000 		.4byte	0x88f
 1752 0af6 0B       		.uleb128 0xb
 1753 0af7 B8000000 		.4byte	0xb8
 1754 0afb 0B       		.uleb128 0xb
 1755 0afc 30000000 		.4byte	0x30
 1756 0b00 0B       		.uleb128 0xb
 1757 0b01 3F0B0000 		.4byte	0xb3f
 1758 0b05 00       		.byte	0
 1759 0b06 1C       		.uleb128 0x1c
ARM GAS  /tmp/ccS7GqVD.s 			page 32


 1760 0b07 01       		.byte	0x1
 1761 0b08 C2080000 		.4byte	.LASF116
 1762 0b0c 0B       		.byte	0xb
 1763 0b0d 13       		.byte	0x13
 1764 0b0e 5E020000 		.4byte	.LASF126
 1765 0b12 01       		.byte	0x1
 1766 0b13 170B0000 		.4byte	0xb17
 1767 0b17 19       		.uleb128 0x19
 1768 0b18 390B0000 		.4byte	0xb39
 1769 0b1c 01       		.byte	0x1
 1770 0b1d 0B       		.uleb128 0xb
 1771 0b1e 1A0A0000 		.4byte	0xa1a
 1772 0b22 0B       		.uleb128 0xb
 1773 0b23 B8000000 		.4byte	0xb8
 1774 0b27 0B       		.uleb128 0xb
 1775 0b28 30000000 		.4byte	0x30
 1776 0b2c 0B       		.uleb128 0xb
 1777 0b2d 3F0B0000 		.4byte	0xb3f
 1778 0b31 00       		.byte	0
 1779 0b32 00       		.byte	0
 1780 0b33 09       		.uleb128 0x9
 1781 0b34 04       		.byte	0x4
 1782 0b35 260A0000 		.4byte	0xa26
 1783 0b39 09       		.uleb128 0x9
 1784 0b3a 04       		.byte	0x4
 1785 0b3b 260A0000 		.4byte	0xa26
 1786 0b3f 09       		.uleb128 0x9
 1787 0b40 04       		.byte	0x4
 1788 0b41 86000000 		.4byte	0x86
 1789 0b45 16       		.uleb128 0x16
 1790 0b46 78040000 		.4byte	.LASF127
 1791 0b4a 14       		.byte	0x14
 1792 0b4b 0C       		.byte	0xc
 1793 0b4c 07       		.byte	0x7
 1794 0b4d 890C0000 		.4byte	0xc89
 1795 0b51 17       		.uleb128 0x17
 1796 0b52 2F020000 		.4byte	.LASF128
 1797 0b56 0C       		.byte	0xc
 1798 0b57 09       		.byte	0x9
 1799 0b58 890C0000 		.4byte	0xc89
 1800 0b5c 02       		.byte	0x2
 1801 0b5d 23       		.byte	0x23
 1802 0b5e 00       		.uleb128 0
 1803 0b5f 02       		.byte	0x2
 1804 0b60 17       		.uleb128 0x17
 1805 0b61 F0010000 		.4byte	.LASF129
 1806 0b65 0C       		.byte	0xc
 1807 0b66 0A       		.byte	0xa
 1808 0b67 890C0000 		.4byte	0xc89
 1809 0b6b 02       		.byte	0x2
 1810 0b6c 23       		.byte	0x23
 1811 0b6d 04       		.uleb128 0x4
 1812 0b6e 02       		.byte	0x2
 1813 0b6f 17       		.uleb128 0x17
 1814 0b70 6C000000 		.4byte	.LASF130
 1815 0b74 0C       		.byte	0xc
 1816 0b75 0B       		.byte	0xb
ARM GAS  /tmp/ccS7GqVD.s 			page 33


 1817 0b76 890C0000 		.4byte	0xc89
 1818 0b7a 02       		.byte	0x2
 1819 0b7b 23       		.byte	0x23
 1820 0b7c 08       		.uleb128 0x8
 1821 0b7d 02       		.byte	0x2
 1822 0b7e 17       		.uleb128 0x17
 1823 0b7f 3D000000 		.4byte	.LASF131
 1824 0b83 0C       		.byte	0xc
 1825 0b84 0C       		.byte	0xc
 1826 0b85 890C0000 		.4byte	0xc89
 1827 0b89 02       		.byte	0x2
 1828 0b8a 23       		.byte	0x23
 1829 0b8b 0C       		.uleb128 0xc
 1830 0b8c 02       		.byte	0x2
 1831 0b8d 17       		.uleb128 0x17
 1832 0b8e 4B090000 		.4byte	.LASF132
 1833 0b92 0C       		.byte	0xc
 1834 0b93 0D       		.byte	0xd
 1835 0b94 86000000 		.4byte	0x86
 1836 0b98 02       		.byte	0x2
 1837 0b99 23       		.byte	0x23
 1838 0b9a 10       		.uleb128 0x10
 1839 0b9b 02       		.byte	0x2
 1840 0b9c 18       		.uleb128 0x18
 1841 0b9d 01       		.byte	0x1
 1842 0b9e 78040000 		.4byte	.LASF127
 1843 0ba2 0C       		.byte	0xc
 1844 0ba3 0F       		.byte	0xf
 1845 0ba4 8F0C0000 		.4byte	0xc8f
 1846 0ba8 01       		.byte	0x1
 1847 0ba9 B10B0000 		.4byte	0xbb1
 1848 0bad C20B0000 		.4byte	0xbc2
 1849 0bb1 19       		.uleb128 0x19
 1850 0bb2 8F0C0000 		.4byte	0xc8f
 1851 0bb6 01       		.byte	0x1
 1852 0bb7 0B       		.uleb128 0xb
 1853 0bb8 890C0000 		.4byte	0xc89
 1854 0bbc 0B       		.uleb128 0xb
 1855 0bbd 86000000 		.4byte	0x86
 1856 0bc1 00       		.byte	0
 1857 0bc2 1B       		.uleb128 0x1b
 1858 0bc3 01       		.byte	0x1
 1859 0bc4 C1090000 		.4byte	.LASF133
 1860 0bc8 0C       		.byte	0xc
 1861 0bc9 10       		.byte	0x10
 1862 0bca 00000000 		.4byte	.LASF134
 1863 0bce 86000000 		.4byte	0x86
 1864 0bd2 01       		.byte	0x1
 1865 0bd3 DB0B0000 		.4byte	0xbdb
 1866 0bd7 E20B0000 		.4byte	0xbe2
 1867 0bdb 19       		.uleb128 0x19
 1868 0bdc 8F0C0000 		.4byte	0xc8f
 1869 0be0 01       		.byte	0x1
 1870 0be1 00       		.byte	0
 1871 0be2 1B       		.uleb128 0x1b
 1872 0be3 01       		.byte	0x1
 1873 0be4 9C000000 		.4byte	.LASF135
ARM GAS  /tmp/ccS7GqVD.s 			page 34


 1874 0be8 0C       		.byte	0xc
 1875 0be9 11       		.byte	0x11
 1876 0bea 35040000 		.4byte	.LASF136
 1877 0bee 86000000 		.4byte	0x86
 1878 0bf2 01       		.byte	0x1
 1879 0bf3 FB0B0000 		.4byte	0xbfb
 1880 0bf7 020C0000 		.4byte	0xc02
 1881 0bfb 19       		.uleb128 0x19
 1882 0bfc 8F0C0000 		.4byte	0xc8f
 1883 0c00 01       		.byte	0x1
 1884 0c01 00       		.byte	0
 1885 0c02 22       		.uleb128 0x22
 1886 0c03 01       		.byte	0x1
 1887 0c04 67657400 		.ascii	"get\000"
 1888 0c08 0C       		.byte	0xc
 1889 0c09 12       		.byte	0x12
 1890 0c0a 7F080000 		.4byte	.LASF139
 1891 0c0e 34070000 		.4byte	0x734
 1892 0c12 01       		.byte	0x1
 1893 0c13 1B0C0000 		.4byte	0xc1b
 1894 0c17 220C0000 		.4byte	0xc22
 1895 0c1b 19       		.uleb128 0x19
 1896 0c1c 8F0C0000 		.4byte	0xc8f
 1897 0c20 01       		.byte	0x1
 1898 0c21 00       		.byte	0
 1899 0c22 1B       		.uleb128 0x1b
 1900 0c23 01       		.byte	0x1
 1901 0c24 95040000 		.4byte	.LASF137
 1902 0c28 0C       		.byte	0xc
 1903 0c29 13       		.byte	0x13
 1904 0c2a 1C040000 		.4byte	.LASF138
 1905 0c2e 34070000 		.4byte	0x734
 1906 0c32 01       		.byte	0x1
 1907 0c33 3B0C0000 		.4byte	0xc3b
 1908 0c37 420C0000 		.4byte	0xc42
 1909 0c3b 19       		.uleb128 0x19
 1910 0c3c 8F0C0000 		.4byte	0xc8f
 1911 0c40 01       		.byte	0x1
 1912 0c41 00       		.byte	0
 1913 0c42 22       		.uleb128 0x22
 1914 0c43 01       		.byte	0x1
 1915 0c44 70757400 		.ascii	"put\000"
 1916 0c48 0C       		.byte	0xc
 1917 0c49 14       		.byte	0x14
 1918 0c4a D1040000 		.4byte	.LASF140
 1919 0c4e A6000000 		.4byte	0xa6
 1920 0c52 01       		.byte	0x1
 1921 0c53 5B0C0000 		.4byte	0xc5b
 1922 0c57 670C0000 		.4byte	0xc67
 1923 0c5b 19       		.uleb128 0x19
 1924 0c5c 8F0C0000 		.4byte	0xc8f
 1925 0c60 01       		.byte	0x1
 1926 0c61 0B       		.uleb128 0xb
 1927 0c62 34070000 		.4byte	0x734
 1928 0c66 00       		.byte	0
 1929 0c67 23       		.uleb128 0x23
 1930 0c68 01       		.byte	0x1
ARM GAS  /tmp/ccS7GqVD.s 			page 35


 1931 0c69 B1000000 		.4byte	.LASF141
 1932 0c6d 0C       		.byte	0xc
 1933 0c6e 15       		.byte	0x15
 1934 0c6f 55010000 		.4byte	.LASF142
 1935 0c73 A6000000 		.4byte	0xa6
 1936 0c77 01       		.byte	0x1
 1937 0c78 7C0C0000 		.4byte	0xc7c
 1938 0c7c 19       		.uleb128 0x19
 1939 0c7d 8F0C0000 		.4byte	0xc8f
 1940 0c81 01       		.byte	0x1
 1941 0c82 0B       		.uleb128 0xb
 1942 0c83 34070000 		.4byte	0x734
 1943 0c87 00       		.byte	0
 1944 0c88 00       		.byte	0
 1945 0c89 09       		.uleb128 0x9
 1946 0c8a 04       		.byte	0x4
 1947 0c8b 34070000 		.4byte	0x734
 1948 0c8f 09       		.uleb128 0x9
 1949 0c90 04       		.byte	0x4
 1950 0c91 450B0000 		.4byte	0xb45
 1951 0c95 16       		.uleb128 0x16
 1952 0c96 DC060000 		.4byte	.LASF143
 1953 0c9a 28       		.byte	0x28
 1954 0c9b 0D       		.byte	0xd
 1955 0c9c 0B       		.byte	0xb
 1956 0c9d 0F0E0000 		.4byte	0xe0f
 1957 0ca1 17       		.uleb128 0x17
 1958 0ca2 65000000 		.4byte	.LASF82
 1959 0ca6 0D       		.byte	0xd
 1960 0ca7 0D       		.byte	0xd
 1961 0ca8 68010000 		.4byte	0x168
 1962 0cac 02       		.byte	0x2
 1963 0cad 23       		.byte	0x23
 1964 0cae 00       		.uleb128 0
 1965 0caf 02       		.byte	0x2
 1966 0cb0 17       		.uleb128 0x17
 1967 0cb1 AC080000 		.4byte	.LASF144
 1968 0cb5 0D       		.byte	0xd
 1969 0cb6 0E       		.byte	0xe
 1970 0cb7 86000000 		.4byte	0x86
 1971 0cbb 02       		.byte	0x2
 1972 0cbc 23       		.byte	0x23
 1973 0cbd 04       		.uleb128 0x4
 1974 0cbe 02       		.byte	0x2
 1975 0cbf 17       		.uleb128 0x17
 1976 0cc0 3C010000 		.4byte	.LASF145
 1977 0cc4 0D       		.byte	0xd
 1978 0cc5 0F       		.byte	0xf
 1979 0cc6 200A0000 		.4byte	0xa20
 1980 0cca 02       		.byte	0x2
 1981 0ccb 23       		.byte	0x23
 1982 0ccc 08       		.uleb128 0x8
 1983 0ccd 02       		.byte	0x2
 1984 0cce 17       		.uleb128 0x17
 1985 0ccf 5E0A0000 		.4byte	.LASF146
 1986 0cd3 0D       		.byte	0xd
 1987 0cd4 10       		.byte	0x10
ARM GAS  /tmp/ccS7GqVD.s 			page 36


 1988 0cd5 450B0000 		.4byte	0xb45
 1989 0cd9 02       		.byte	0x2
 1990 0cda 23       		.byte	0x23
 1991 0cdb 0C       		.uleb128 0xc
 1992 0cdc 02       		.byte	0x2
 1993 0cdd 17       		.uleb128 0x17
 1994 0cde 2F020000 		.4byte	.LASF128
 1995 0ce2 0D       		.byte	0xd
 1996 0ce3 12       		.byte	0x12
 1997 0ce4 7A010000 		.4byte	0x17a
 1998 0ce8 02       		.byte	0x2
 1999 0ce9 23       		.byte	0x23
 2000 0cea 20       		.uleb128 0x20
 2001 0ceb 02       		.byte	0x2
 2002 0cec 17       		.uleb128 0x17
 2003 0ced 4F040000 		.4byte	.LASF147
 2004 0cf1 0D       		.byte	0xd
 2005 0cf2 13       		.byte	0x13
 2006 0cf3 86000000 		.4byte	0x86
 2007 0cf7 02       		.byte	0x2
 2008 0cf8 23       		.byte	0x23
 2009 0cf9 24       		.uleb128 0x24
 2010 0cfa 02       		.byte	0x2
 2011 0cfb 18       		.uleb128 0x18
 2012 0cfc 01       		.byte	0x1
 2013 0cfd DC060000 		.4byte	.LASF143
 2014 0d01 0D       		.byte	0xd
 2015 0d02 15       		.byte	0x15
 2016 0d03 0F0E0000 		.4byte	0xe0f
 2017 0d07 01       		.byte	0x1
 2018 0d08 100D0000 		.4byte	0xd10
 2019 0d0c 300D0000 		.4byte	0xd30
 2020 0d10 19       		.uleb128 0x19
 2021 0d11 0F0E0000 		.4byte	0xe0f
 2022 0d15 01       		.byte	0x1
 2023 0d16 0B       		.uleb128 0xb
 2024 0d17 68010000 		.4byte	0x168
 2025 0d1b 0B       		.uleb128 0xb
 2026 0d1c 30000000 		.4byte	0x30
 2027 0d20 0B       		.uleb128 0xb
 2028 0d21 7A010000 		.4byte	0x17a
 2029 0d25 0B       		.uleb128 0xb
 2030 0d26 890C0000 		.4byte	0xc89
 2031 0d2a 0B       		.uleb128 0xb
 2032 0d2b 86000000 		.4byte	0x86
 2033 0d2f 00       		.byte	0
 2034 0d30 1B       		.uleb128 0x1b
 2035 0d31 01       		.byte	0x1
 2036 0d32 AB000000 		.4byte	.LASF87
 2037 0d36 0D       		.byte	0xd
 2038 0d37 17       		.byte	0x17
 2039 0d38 11050000 		.4byte	.LASF148
 2040 0d3c 68010000 		.4byte	0x168
 2041 0d40 01       		.byte	0x1
 2042 0d41 490D0000 		.4byte	0xd49
 2043 0d45 500D0000 		.4byte	0xd50
 2044 0d49 19       		.uleb128 0x19
ARM GAS  /tmp/ccS7GqVD.s 			page 37


 2045 0d4a 0F0E0000 		.4byte	0xe0f
 2046 0d4e 01       		.byte	0x1
 2047 0d4f 00       		.byte	0
 2048 0d50 1B       		.uleb128 0x1b
 2049 0d51 01       		.byte	0x1
 2050 0d52 A6040000 		.4byte	.LASF149
 2051 0d56 0D       		.byte	0xd
 2052 0d57 18       		.byte	0x18
 2053 0d58 B4010000 		.4byte	.LASF150
 2054 0d5c 200A0000 		.4byte	0xa20
 2055 0d60 01       		.byte	0x1
 2056 0d61 690D0000 		.4byte	0xd69
 2057 0d65 700D0000 		.4byte	0xd70
 2058 0d69 19       		.uleb128 0x19
 2059 0d6a 0F0E0000 		.4byte	0xe0f
 2060 0d6e 01       		.byte	0x1
 2061 0d6f 00       		.byte	0
 2062 0d70 1B       		.uleb128 0x1b
 2063 0d71 01       		.byte	0x1
 2064 0d72 580F0000 		.4byte	.LASF151
 2065 0d76 0D       		.byte	0xd
 2066 0d77 19       		.byte	0x19
 2067 0d78 D10E0000 		.4byte	.LASF152
 2068 0d7c 150E0000 		.4byte	0xe15
 2069 0d80 01       		.byte	0x1
 2070 0d81 890D0000 		.4byte	0xd89
 2071 0d85 900D0000 		.4byte	0xd90
 2072 0d89 19       		.uleb128 0x19
 2073 0d8a 0F0E0000 		.4byte	0xe0f
 2074 0d8e 01       		.byte	0x1
 2075 0d8f 00       		.byte	0
 2076 0d90 22       		.uleb128 0x22
 2077 0d91 01       		.byte	0x1
 2078 0d92 67657400 		.ascii	"get\000"
 2079 0d96 0D       		.byte	0xd
 2080 0d97 1A       		.byte	0x1a
 2081 0d98 4D080000 		.4byte	.LASF153
 2082 0d9c 34070000 		.4byte	0x734
 2083 0da0 01       		.byte	0x1
 2084 0da1 A90D0000 		.4byte	0xda9
 2085 0da5 B00D0000 		.4byte	0xdb0
 2086 0da9 19       		.uleb128 0x19
 2087 0daa 0F0E0000 		.4byte	0xe0f
 2088 0dae 01       		.byte	0x1
 2089 0daf 00       		.byte	0
 2090 0db0 1A       		.uleb128 0x1a
 2091 0db1 01       		.byte	0x1
 2092 0db2 2C0E0000 		.4byte	.LASF94
 2093 0db6 0D       		.byte	0xd
 2094 0db7 1B       		.byte	0x1b
 2095 0db8 660B0000 		.4byte	.LASF154
 2096 0dbc 01       		.byte	0x1
 2097 0dbd C50D0000 		.4byte	0xdc5
 2098 0dc1 D10D0000 		.4byte	0xdd1
 2099 0dc5 19       		.uleb128 0x19
 2100 0dc6 0F0E0000 		.4byte	0xe0f
 2101 0dca 01       		.byte	0x1
ARM GAS  /tmp/ccS7GqVD.s 			page 38


 2102 0dcb 0B       		.uleb128 0xb
 2103 0dcc 34070000 		.4byte	0x734
 2104 0dd0 00       		.byte	0
 2105 0dd1 1A       		.uleb128 0x1a
 2106 0dd2 01       		.byte	0x1
 2107 0dd3 190B0000 		.4byte	.LASF97
 2108 0dd7 0D       		.byte	0xd
 2109 0dd8 1C       		.byte	0x1c
 2110 0dd9 820E0000 		.4byte	.LASF155
 2111 0ddd 01       		.byte	0x1
 2112 0dde E60D0000 		.4byte	0xde6
 2113 0de2 F20D0000 		.4byte	0xdf2
 2114 0de6 19       		.uleb128 0x19
 2115 0de7 0F0E0000 		.4byte	0xe0f
 2116 0deb 01       		.byte	0x1
 2117 0dec 0B       		.uleb128 0xb
 2118 0ded 34070000 		.4byte	0x734
 2119 0df1 00       		.byte	0
 2120 0df2 23       		.uleb128 0x23
 2121 0df3 01       		.byte	0x1
 2122 0df4 C1090000 		.4byte	.LASF133
 2123 0df8 0D       		.byte	0xd
 2124 0df9 1D       		.byte	0x1d
 2125 0dfa EF020000 		.4byte	.LASF156
 2126 0dfe 62000000 		.4byte	0x62
 2127 0e02 01       		.byte	0x1
 2128 0e03 070E0000 		.4byte	0xe07
 2129 0e07 19       		.uleb128 0x19
 2130 0e08 0F0E0000 		.4byte	0xe0f
 2131 0e0c 01       		.byte	0x1
 2132 0e0d 00       		.byte	0
 2133 0e0e 00       		.byte	0
 2134 0e0f 09       		.uleb128 0x9
 2135 0e10 04       		.byte	0x4
 2136 0e11 950C0000 		.4byte	0xc95
 2137 0e15 09       		.uleb128 0x9
 2138 0e16 04       		.byte	0x4
 2139 0e17 950C0000 		.4byte	0xc95
 2140 0e1b 09       		.uleb128 0x9
 2141 0e1c 04       		.byte	0x4
 2142 0e1d 95080000 		.4byte	0x895
 2143 0e21 24       		.uleb128 0x24
 2144 0e22 04       		.byte	0x4
 2145 0e23 29000000 		.4byte	0x29
 2146 0e27 03       		.uleb128 0x3
 2147 0e28 A2050000 		.4byte	.LASF157
 2148 0e2c 0E       		.byte	0xe
 2149 0e2d 55       		.byte	0x55
 2150 0e2e 320E0000 		.4byte	0xe32
 2151 0e32 0C       		.uleb128 0xc
 2152 0e33 A2050000 		.4byte	.LASF157
 2153 0e37 1E       		.byte	0x1e
 2154 0e38 0E       		.byte	0xe
 2155 0e39 AB       		.byte	0xab
 2156 0e3a 160F0000 		.4byte	0xf16
 2157 0e3e 25       		.uleb128 0x25
 2158 0e3f 04       		.byte	0x4
ARM GAS  /tmp/ccS7GqVD.s 			page 39


 2159 0e40 0E       		.byte	0xe
 2160 0e41 B0       		.byte	0xb0
 2161 0e42 8D0E0000 		.4byte	0xe8d
 2162 0e46 26       		.uleb128 0x26
 2163 0e47 04       		.byte	0x4
 2164 0e48 0E       		.byte	0xe
 2165 0e49 B1       		.byte	0xb1
 2166 0e4a 5D0E0000 		.4byte	0xe5d
 2167 0e4e 0D       		.uleb128 0xd
 2168 0e4f EB060000 		.4byte	.LASF158
 2169 0e53 0E       		.byte	0xe
 2170 0e54 B2       		.byte	0xb2
 2171 0e55 86000000 		.4byte	0x86
 2172 0e59 02       		.byte	0x2
 2173 0e5a 23       		.byte	0x23
 2174 0e5b 00       		.uleb128 0
 2175 0e5c 00       		.byte	0
 2176 0e5d 26       		.uleb128 0x26
 2177 0e5e 04       		.byte	0x4
 2178 0e5f 0E       		.byte	0xe
 2179 0e60 B4       		.byte	0xb4
 2180 0e61 820E0000 		.4byte	0xe82
 2181 0e65 0D       		.uleb128 0xd
 2182 0e66 560E0000 		.4byte	.LASF159
 2183 0e6a 0E       		.byte	0xe
 2184 0e6b B5       		.byte	0xb5
 2185 0e6c 62000000 		.4byte	0x62
 2186 0e70 02       		.byte	0x2
 2187 0e71 23       		.byte	0x23
 2188 0e72 00       		.uleb128 0
 2189 0e73 0D       		.uleb128 0xd
 2190 0e74 010B0000 		.4byte	.LASF160
 2191 0e78 0E       		.byte	0xe
 2192 0e79 B6       		.byte	0xb6
 2193 0e7a 62000000 		.4byte	0x62
 2194 0e7e 02       		.byte	0x2
 2195 0e7f 23       		.byte	0x23
 2196 0e80 02       		.uleb128 0x2
 2197 0e81 00       		.byte	0
 2198 0e82 27       		.uleb128 0x27
 2199 0e83 460E0000 		.4byte	0xe46
 2200 0e87 27       		.uleb128 0x27
 2201 0e88 5D0E0000 		.4byte	0xe5d
 2202 0e8c 00       		.byte	0
 2203 0e8d 0D       		.uleb128 0xd
 2204 0e8e CC0E0000 		.4byte	.LASF108
 2205 0e92 0E       		.byte	0xe
 2206 0e93 AC       		.byte	0xac
 2207 0e94 8D110000 		.4byte	0x118d
 2208 0e98 02       		.byte	0x2
 2209 0e99 23       		.byte	0x23
 2210 0e9a 00       		.uleb128 0
 2211 0e9b 0D       		.uleb128 0xd
 2212 0e9c 75060000 		.4byte	.LASF161
 2213 0ea0 0E       		.byte	0xe
 2214 0ea1 AD       		.byte	0xad
 2215 0ea2 B10F0000 		.4byte	0xfb1
ARM GAS  /tmp/ccS7GqVD.s 			page 40


 2216 0ea6 02       		.byte	0x2
 2217 0ea7 23       		.byte	0x23
 2218 0ea8 04       		.uleb128 0x4
 2219 0ea9 0D       		.uleb128 0xd
 2220 0eaa AB010000 		.4byte	.LASF162
 2221 0eae 0E       		.byte	0xe
 2222 0eaf AE       		.byte	0xae
 2223 0eb0 160F0000 		.4byte	0xf16
 2224 0eb4 02       		.byte	0x2
 2225 0eb5 23       		.byte	0x23
 2226 0eb6 05       		.uleb128 0x5
 2227 0eb7 0D       		.uleb128 0xd
 2228 0eb8 050A0000 		.4byte	.LASF163
 2229 0ebc 0E       		.byte	0xe
 2230 0ebd AF       		.byte	0xaf
 2231 0ebe B8000000 		.4byte	0xb8
 2232 0ec2 02       		.byte	0x2
 2233 0ec3 23       		.byte	0x23
 2234 0ec4 09       		.uleb128 0x9
 2235 0ec5 28       		.uleb128 0x28
 2236 0ec6 3E0E0000 		.4byte	0xe3e
 2237 0eca 02       		.byte	0x2
 2238 0ecb 23       		.byte	0x23
 2239 0ecc 0D       		.uleb128 0xd
 2240 0ecd 29       		.uleb128 0x29
 2241 0ece 696400   		.ascii	"id\000"
 2242 0ed1 0E       		.byte	0xe
 2243 0ed2 B9       		.byte	0xb9
 2244 0ed3 62000000 		.4byte	0x62
 2245 0ed7 02       		.byte	0x2
 2246 0ed8 23       		.byte	0x23
 2247 0ed9 11       		.uleb128 0x11
 2248 0eda 0D       		.uleb128 0xd
 2249 0edb C1090000 		.4byte	.LASF133
 2250 0edf 0E       		.byte	0xe
 2251 0ee0 BA       		.byte	0xba
 2252 0ee1 62000000 		.4byte	0x62
 2253 0ee5 02       		.byte	0x2
 2254 0ee6 23       		.byte	0x23
 2255 0ee7 13       		.uleb128 0x13
 2256 0ee8 0D       		.uleb128 0xd
 2257 0ee9 EC0E0000 		.4byte	.LASF164
 2258 0eed 0E       		.byte	0xe
 2259 0eee BB       		.byte	0xbb
 2260 0eef 7A010000 		.4byte	0x17a
 2261 0ef3 02       		.byte	0x2
 2262 0ef4 23       		.byte	0x23
 2263 0ef5 15       		.uleb128 0x15
 2264 0ef6 29       		.uleb128 0x29
 2265 0ef7 70747200 		.ascii	"ptr\000"
 2266 0efb 0E       		.byte	0xe
 2267 0efc BC       		.byte	0xbc
 2268 0efd 7A010000 		.4byte	0x17a
 2269 0f01 02       		.byte	0x2
 2270 0f02 23       		.byte	0x23
 2271 0f03 19       		.uleb128 0x19
 2272 0f04 2A       		.uleb128 0x2a
ARM GAS  /tmp/ccS7GqVD.s 			page 41


 2273 0f05 710E0000 		.4byte	.LASF198
 2274 0f09 0E       		.byte	0xe
 2275 0f0a BD       		.byte	0xbd
 2276 0f0b 49000000 		.4byte	0x49
 2277 0f0f 01       		.byte	0x1
 2278 0f10 07       		.byte	0x7
 2279 0f11 01       		.byte	0x1
 2280 0f12 02       		.byte	0x2
 2281 0f13 23       		.byte	0x23
 2282 0f14 1D       		.uleb128 0x1d
 2283 0f15 00       		.byte	0
 2284 0f16 03       		.uleb128 0x3
 2285 0f17 7C090000 		.4byte	.LASF165
 2286 0f1b 0E       		.byte	0xe
 2287 0f1c 5A       		.byte	0x5a
 2288 0f1d 210F0000 		.4byte	0xf21
 2289 0f21 09       		.uleb128 0x9
 2290 0f22 04       		.byte	0x4
 2291 0f23 270F0000 		.4byte	0xf27
 2292 0f27 2B       		.uleb128 0x2b
 2293 0f28 320F0000 		.4byte	0xf32
 2294 0f2c 0B       		.uleb128 0xb
 2295 0f2d 320F0000 		.4byte	0xf32
 2296 0f31 00       		.byte	0
 2297 0f32 09       		.uleb128 0x9
 2298 0f33 04       		.byte	0x4
 2299 0f34 270E0000 		.4byte	0xe27
 2300 0f38 2C       		.uleb128 0x2c
 2301 0f39 01       		.byte	0x1
 2302 0f3a 0E       		.byte	0xe
 2303 0f3b 5F       		.byte	0x5f
 2304 0f3c BF050000 		.4byte	.LASF174
 2305 0f40 6F0F0000 		.4byte	0xf6f
 2306 0f44 2D       		.uleb128 0x2d
 2307 0f45 7B010000 		.4byte	.LASF166
 2308 0f49 00       		.sleb128 0
 2309 0f4a 2D       		.uleb128 0x2d
 2310 0f4b D1010000 		.4byte	.LASF167
 2311 0f4f 01       		.sleb128 1
 2312 0f50 2D       		.uleb128 0x2d
 2313 0f51 0C0A0000 		.4byte	.LASF168
 2314 0f55 02       		.sleb128 2
 2315 0f56 2D       		.uleb128 0x2d
 2316 0f57 9A040000 		.4byte	.LASF169
 2317 0f5b 03       		.sleb128 3
 2318 0f5c 2D       		.uleb128 0x2d
 2319 0f5d C10C0000 		.4byte	.LASF170
 2320 0f61 04       		.sleb128 4
 2321 0f62 2D       		.uleb128 0x2d
 2322 0f63 7A0D0000 		.4byte	.LASF171
 2323 0f67 05       		.sleb128 5
 2324 0f68 2D       		.uleb128 0x2d
 2325 0f69 5B050000 		.4byte	.LASF172
 2326 0f6d 06       		.sleb128 6
 2327 0f6e 00       		.byte	0
 2328 0f6f 03       		.uleb128 0x3
 2329 0f70 58000000 		.4byte	.LASF173
ARM GAS  /tmp/ccS7GqVD.s 			page 42


 2330 0f74 0E       		.byte	0xe
 2331 0f75 67       		.byte	0x67
 2332 0f76 380F0000 		.4byte	0xf38
 2333 0f7a 2C       		.uleb128 0x2c
 2334 0f7b 01       		.byte	0x1
 2335 0f7c 0E       		.byte	0xe
 2336 0f7d 6C       		.byte	0x6c
 2337 0f7e 39080000 		.4byte	.LASF175
 2338 0f82 B10F0000 		.4byte	0xfb1
 2339 0f86 2D       		.uleb128 0x2d
 2340 0f87 AE050000 		.4byte	.LASF176
 2341 0f8b 00       		.sleb128 0
 2342 0f8c 2D       		.uleb128 0x2d
 2343 0f8d 9C010000 		.4byte	.LASF177
 2344 0f91 01       		.sleb128 1
 2345 0f92 2D       		.uleb128 0x2d
 2346 0f93 97080000 		.4byte	.LASF178
 2347 0f97 02       		.sleb128 2
 2348 0f98 2D       		.uleb128 0x2d
 2349 0f99 080B0000 		.4byte	.LASF179
 2350 0f9d 03       		.sleb128 3
 2351 0f9e 2D       		.uleb128 0x2d
 2352 0f9f 400B0000 		.4byte	.LASF180
 2353 0fa3 04       		.sleb128 4
 2354 0fa4 2D       		.uleb128 0x2d
 2355 0fa5 12020000 		.4byte	.LASF181
 2356 0fa9 05       		.sleb128 5
 2357 0faa 2D       		.uleb128 0x2d
 2358 0fab AE0E0000 		.4byte	.LASF182
 2359 0faf 06       		.sleb128 6
 2360 0fb0 00       		.byte	0
 2361 0fb1 03       		.uleb128 0x3
 2362 0fb2 68050000 		.4byte	.LASF183
 2363 0fb6 0E       		.byte	0xe
 2364 0fb7 74       		.byte	0x74
 2365 0fb8 7A0F0000 		.4byte	0xf7a
 2366 0fbc 0E       		.uleb128 0xe
 2367 0fbd 04       		.byte	0x4
 2368 0fbe 0F       		.byte	0xf
 2369 0fbf 1F       		.byte	0x1f
 2370 0fc0 C2070000 		.4byte	.LASF185
 2371 0fc4 D70F0000 		.4byte	0xfd7
 2372 0fc8 0D       		.uleb128 0xd
 2373 0fc9 CC0E0000 		.4byte	.LASF108
 2374 0fcd 0F       		.byte	0xf
 2375 0fce 20       		.byte	0x20
 2376 0fcf 320F0000 		.4byte	0xf32
 2377 0fd3 02       		.byte	0x2
 2378 0fd4 23       		.byte	0x23
 2379 0fd5 00       		.uleb128 0
 2380 0fd6 00       		.byte	0
 2381 0fd7 03       		.uleb128 0x3
 2382 0fd8 24020000 		.4byte	.LASF186
 2383 0fdc 0F       		.byte	0xf
 2384 0fdd 21       		.byte	0x21
 2385 0fde BC0F0000 		.4byte	0xfbc
 2386 0fe2 03       		.uleb128 0x3
ARM GAS  /tmp/ccS7GqVD.s 			page 43


 2387 0fe3 E6050000 		.4byte	.LASF187
 2388 0fe7 10       		.byte	0x10
 2389 0fe8 21       		.byte	0x21
 2390 0fe9 ED0F0000 		.4byte	0xfed
 2391 0fed 0C       		.uleb128 0xc
 2392 0fee E6050000 		.4byte	.LASF187
 2393 0ff2 6C       		.byte	0x6c
 2394 0ff3 0E       		.byte	0xe
 2395 0ff4 D5       		.byte	0xd5
 2396 0ff5 96100000 		.4byte	0x1096
 2397 0ff9 0D       		.uleb128 0xd
 2398 0ffa 2B010000 		.4byte	.LASF188
 2399 0ffe 0E       		.byte	0xe
 2400 0fff D9       		.byte	0xd9
 2401 1000 6F0F0000 		.4byte	0xf6f
 2402 1004 02       		.byte	0x2
 2403 1005 23       		.byte	0x23
 2404 1006 00       		.uleb128 0
 2405 1007 0D       		.uleb128 0xd
 2406 1008 560E0000 		.4byte	.LASF159
 2407 100c 0E       		.byte	0xe
 2408 100d DD       		.byte	0xdd
 2409 100e 86000000 		.4byte	0x86
 2410 1012 02       		.byte	0x2
 2411 1013 23       		.byte	0x23
 2412 1014 04       		.uleb128 0x4
 2413 1015 0D       		.uleb128 0xd
 2414 1016 860D0000 		.4byte	.LASF189
 2415 101a 0E       		.byte	0xe
 2416 101b E1       		.byte	0xe1
 2417 101c 86000000 		.4byte	0x86
 2418 1020 02       		.byte	0x2
 2419 1021 23       		.byte	0x23
 2420 1022 08       		.uleb128 0x8
 2421 1023 0D       		.uleb128 0xd
 2422 1024 4C0E0000 		.4byte	.LASF190
 2423 1028 0E       		.byte	0xe
 2424 1029 E5       		.byte	0xe5
 2425 102a D70F0000 		.4byte	0xfd7
 2426 102e 02       		.byte	0x2
 2427 102f 23       		.byte	0x23
 2428 1030 0C       		.uleb128 0xc
 2429 1031 0D       		.uleb128 0xd
 2430 1032 020F0000 		.4byte	.LASF191
 2431 1036 0E       		.byte	0xe
 2432 1037 E9       		.byte	0xe9
 2433 1038 D5110000 		.4byte	0x11d5
 2434 103c 02       		.byte	0x2
 2435 103d 23       		.byte	0x23
 2436 103e 10       		.uleb128 0x10
 2437 103f 0D       		.uleb128 0xd
 2438 1040 37020000 		.4byte	.LASF192
 2439 1044 0E       		.byte	0xe
 2440 1045 ED       		.byte	0xed
 2441 1046 E5110000 		.4byte	0x11e5
 2442 104a 02       		.byte	0x2
 2443 104b 23       		.byte	0x23
ARM GAS  /tmp/ccS7GqVD.s 			page 44


 2444 104c 1C       		.uleb128 0x1c
 2445 104d 0D       		.uleb128 0xd
 2446 104e 20000000 		.4byte	.LASF193
 2447 1052 0E       		.byte	0xe
 2448 1053 F2       		.byte	0xf2
 2449 1054 82110000 		.4byte	0x1182
 2450 1058 02       		.byte	0x2
 2451 1059 23       		.byte	0x23
 2452 105a 54       		.uleb128 0x54
 2453 105b 0D       		.uleb128 0xd
 2454 105c 23030000 		.4byte	.LASF194
 2455 1060 0E       		.byte	0xe
 2456 1061 F6       		.byte	0xf6
 2457 1062 CF000000 		.4byte	0xcf
 2458 1066 02       		.byte	0x2
 2459 1067 23       		.byte	0x23
 2460 1068 58       		.uleb128 0x58
 2461 1069 0D       		.uleb128 0xd
 2462 106a 24010000 		.4byte	.LASF195
 2463 106e 0E       		.byte	0xe
 2464 106f FB       		.byte	0xfb
 2465 1070 F5110000 		.4byte	0x11f5
 2466 1074 02       		.byte	0x2
 2467 1075 23       		.byte	0x23
 2468 1076 60       		.uleb128 0x60
 2469 1077 11       		.uleb128 0x11
 2470 1078 74696D00 		.ascii	"tim\000"
 2471 107c 0E       		.byte	0xe
 2472 107d 0001     		.2byte	0x100
 2473 107f 00120000 		.4byte	0x1200
 2474 1083 02       		.byte	0x2
 2475 1084 23       		.byte	0x23
 2476 1085 64       		.uleb128 0x64
 2477 1086 11       		.uleb128 0x11
 2478 1087 63616E00 		.ascii	"can\000"
 2479 108b 0E       		.byte	0xe
 2480 108c 0501     		.2byte	0x105
 2481 108e 06120000 		.4byte	0x1206
 2482 1092 02       		.byte	0x2
 2483 1093 23       		.byte	0x23
 2484 1094 68       		.uleb128 0x68
 2485 1095 00       		.byte	0
 2486 1096 03       		.uleb128 0x3
 2487 1097 9C0B0000 		.4byte	.LASF196
 2488 109b 10       		.byte	0x10
 2489 109c 26       		.byte	0x26
 2490 109d A1100000 		.4byte	0x10a1
 2491 10a1 0C       		.uleb128 0xc
 2492 10a2 9C0B0000 		.4byte	.LASF196
 2493 10a6 1C       		.byte	0x1c
 2494 10a7 10       		.byte	0x10
 2495 10a8 30       		.byte	0x30
 2496 10a9 3F110000 		.4byte	0x113f
 2497 10ad 0D       		.uleb128 0xd
 2498 10ae CC0E0000 		.4byte	.LASF108
 2499 10b2 10       		.byte	0x10
 2500 10b3 32       		.byte	0x32
ARM GAS  /tmp/ccS7GqVD.s 			page 45


 2501 10b4 61110000 		.4byte	0x1161
 2502 10b8 02       		.byte	0x2
 2503 10b9 23       		.byte	0x23
 2504 10ba 00       		.uleb128 0
 2505 10bb 0D       		.uleb128 0xd
 2506 10bc FA030000 		.4byte	.LASF197
 2507 10c0 10       		.byte	0x10
 2508 10c1 33       		.byte	0x33
 2509 10c2 3F110000 		.4byte	0x113f
 2510 10c6 02       		.byte	0x2
 2511 10c7 23       		.byte	0x23
 2512 10c8 04       		.uleb128 0x4
 2513 10c9 0D       		.uleb128 0xd
 2514 10ca 75060000 		.4byte	.LASF161
 2515 10ce 10       		.byte	0x10
 2516 10cf 34       		.byte	0x34
 2517 10d0 B10F0000 		.4byte	0xfb1
 2518 10d4 02       		.byte	0x2
 2519 10d5 23       		.byte	0x23
 2520 10d6 08       		.uleb128 0x8
 2521 10d7 2E       		.uleb128 0x2e
 2522 10d8 696400   		.ascii	"id\000"
 2523 10db 10       		.byte	0x10
 2524 10dc 35       		.byte	0x35
 2525 10dd 62000000 		.4byte	0x62
 2526 10e1 02       		.byte	0x2
 2527 10e2 10       		.byte	0x10
 2528 10e3 00       		.byte	0
 2529 10e4 02       		.byte	0x2
 2530 10e5 23       		.byte	0x23
 2531 10e6 09       		.uleb128 0x9
 2532 10e7 0D       		.uleb128 0xd
 2533 10e8 C1090000 		.4byte	.LASF133
 2534 10ec 10       		.byte	0x10
 2535 10ed 36       		.byte	0x36
 2536 10ee 62000000 		.4byte	0x62
 2537 10f2 02       		.byte	0x2
 2538 10f3 23       		.byte	0x23
 2539 10f4 0B       		.uleb128 0xb
 2540 10f5 0D       		.uleb128 0xd
 2541 10f6 560E0000 		.4byte	.LASF159
 2542 10fa 10       		.byte	0x10
 2543 10fb 37       		.byte	0x37
 2544 10fc 86000000 		.4byte	0x86
 2545 1100 02       		.byte	0x2
 2546 1101 23       		.byte	0x23
 2547 1102 0D       		.uleb128 0xd
 2548 1103 0D       		.uleb128 0xd
 2549 1104 010B0000 		.4byte	.LASF160
 2550 1108 10       		.byte	0x10
 2551 1109 38       		.byte	0x38
 2552 110a 62000000 		.4byte	0x62
 2553 110e 02       		.byte	0x2
 2554 110f 23       		.byte	0x23
 2555 1110 11       		.uleb128 0x11
 2556 1111 0D       		.uleb128 0xd
 2557 1112 EC0E0000 		.4byte	.LASF164
ARM GAS  /tmp/ccS7GqVD.s 			page 46


 2558 1116 10       		.byte	0x10
 2559 1117 39       		.byte	0x39
 2560 1118 7A010000 		.4byte	0x17a
 2561 111c 02       		.byte	0x2
 2562 111d 23       		.byte	0x23
 2563 111e 13       		.uleb128 0x13
 2564 111f 29       		.uleb128 0x29
 2565 1120 70747200 		.ascii	"ptr\000"
 2566 1124 10       		.byte	0x10
 2567 1125 3A       		.byte	0x3a
 2568 1126 7A010000 		.4byte	0x17a
 2569 112a 02       		.byte	0x2
 2570 112b 23       		.byte	0x23
 2571 112c 17       		.uleb128 0x17
 2572 112d 2A       		.uleb128 0x2a
 2573 112e 710E0000 		.4byte	.LASF198
 2574 1132 10       		.byte	0x10
 2575 1133 3B       		.byte	0x3b
 2576 1134 49000000 		.4byte	0x49
 2577 1138 01       		.byte	0x1
 2578 1139 07       		.byte	0x7
 2579 113a 01       		.byte	0x1
 2580 113b 02       		.byte	0x2
 2581 113c 23       		.byte	0x23
 2582 113d 1B       		.uleb128 0x1b
 2583 113e 00       		.byte	0
 2584 113f 03       		.uleb128 0x3
 2585 1140 4D0D0000 		.4byte	.LASF199
 2586 1144 10       		.byte	0x10
 2587 1145 2B       		.byte	0x2b
 2588 1146 4A110000 		.4byte	0x114a
 2589 114a 09       		.uleb128 0x9
 2590 114b 04       		.byte	0x4
 2591 114c 50110000 		.4byte	0x1150
 2592 1150 2B       		.uleb128 0x2b
 2593 1151 5B110000 		.4byte	0x115b
 2594 1155 0B       		.uleb128 0xb
 2595 1156 5B110000 		.4byte	0x115b
 2596 115a 00       		.byte	0
 2597 115b 09       		.uleb128 0x9
 2598 115c 04       		.byte	0x4
 2599 115d 96100000 		.4byte	0x1096
 2600 1161 09       		.uleb128 0x9
 2601 1162 04       		.byte	0x4
 2602 1163 A1100000 		.4byte	0x10a1
 2603 1167 0E       		.uleb128 0xe
 2604 1168 04       		.byte	0x4
 2605 1169 10       		.byte	0x10
 2606 116a 41       		.byte	0x41
 2607 116b 44010000 		.4byte	.LASF200
 2608 116f 82110000 		.4byte	0x1182
 2609 1173 0D       		.uleb128 0xd
 2610 1174 CC0E0000 		.4byte	.LASF108
 2611 1178 10       		.byte	0x10
 2612 1179 42       		.byte	0x42
 2613 117a 5B110000 		.4byte	0x115b
 2614 117e 02       		.byte	0x2
ARM GAS  /tmp/ccS7GqVD.s 			page 47


 2615 117f 23       		.byte	0x23
 2616 1180 00       		.uleb128 0
 2617 1181 00       		.byte	0
 2618 1182 03       		.uleb128 0x3
 2619 1183 88010000 		.4byte	.LASF201
 2620 1187 10       		.byte	0x10
 2621 1188 43       		.byte	0x43
 2622 1189 67110000 		.4byte	0x1167
 2623 118d 09       		.uleb128 0x9
 2624 118e 04       		.byte	0x4
 2625 118f 320E0000 		.4byte	0xe32
 2626 1193 0E       		.uleb128 0xe
 2627 1194 0C       		.byte	0xc
 2628 1195 0E       		.byte	0xe
 2629 1196 C3       		.byte	0xc3
 2630 1197 83000000 		.4byte	.LASF202
 2631 119b CA110000 		.4byte	0x11ca
 2632 119f 0D       		.uleb128 0xd
 2633 11a0 D50C0000 		.4byte	.LASF203
 2634 11a4 0E       		.byte	0xe
 2635 11a5 C7       		.byte	0xc7
 2636 11a6 86000000 		.4byte	0x86
 2637 11aa 02       		.byte	0x2
 2638 11ab 23       		.byte	0x23
 2639 11ac 00       		.uleb128 0
 2640 11ad 0D       		.uleb128 0xd
 2641 11ae D6060000 		.4byte	.LASF204
 2642 11b2 0E       		.byte	0xe
 2643 11b3 CB       		.byte	0xcb
 2644 11b4 86000000 		.4byte	0x86
 2645 11b8 02       		.byte	0x2
 2646 11b9 23       		.byte	0x23
 2647 11ba 04       		.uleb128 0x4
 2648 11bb 0D       		.uleb128 0xd
 2649 11bc CF0C0000 		.4byte	.LASF205
 2650 11c0 0E       		.byte	0xe
 2651 11c1 CF       		.byte	0xcf
 2652 11c2 86000000 		.4byte	0x86
 2653 11c6 02       		.byte	0x2
 2654 11c7 23       		.byte	0x23
 2655 11c8 08       		.uleb128 0x8
 2656 11c9 00       		.byte	0
 2657 11ca 03       		.uleb128 0x3
 2658 11cb 50090000 		.4byte	.LASF206
 2659 11cf 0E       		.byte	0xe
 2660 11d0 D0       		.byte	0xd0
 2661 11d1 93110000 		.4byte	0x1193
 2662 11d5 07       		.uleb128 0x7
 2663 11d6 320F0000 		.4byte	0xf32
 2664 11da E5110000 		.4byte	0x11e5
 2665 11de 08       		.uleb128 0x8
 2666 11df 3B000000 		.4byte	0x3b
 2667 11e3 02       		.byte	0x2
 2668 11e4 00       		.byte	0
 2669 11e5 07       		.uleb128 0x7
 2670 11e6 320F0000 		.4byte	0xf32
 2671 11ea F5110000 		.4byte	0x11f5
ARM GAS  /tmp/ccS7GqVD.s 			page 48


 2672 11ee 08       		.uleb128 0x8
 2673 11ef 3B000000 		.4byte	0x3b
 2674 11f3 0D       		.byte	0xd
 2675 11f4 00       		.byte	0
 2676 11f5 09       		.uleb128 0x9
 2677 11f6 04       		.byte	0x4
 2678 11f7 FB110000 		.4byte	0x11fb
 2679 11fb 0F       		.uleb128 0xf
 2680 11fc CA110000 		.4byte	0x11ca
 2681 1200 09       		.uleb128 0x9
 2682 1201 04       		.byte	0x4
 2683 1202 95060000 		.4byte	0x695
 2684 1206 09       		.uleb128 0x9
 2685 1207 04       		.byte	0x4
 2686 1208 24040000 		.4byte	0x424
 2687 120c 2F       		.uleb128 0x2f
 2688 120d 1C070000 		.4byte	.LASF207
 2689 1211 5001     		.2byte	0x150
 2690 1213 11       		.byte	0x11
 2691 1214 0F       		.byte	0xf
 2692 1215 34130000 		.4byte	0x1334
 2693 1219 30       		.uleb128 0x30
 2694 121a E9000000 		.4byte	.LASF240
 2695 121e 11       		.byte	0x11
 2696 121f 12       		.byte	0x12
 2697 1220 0C120000 		.4byte	0x120c
 2698 1224 01       		.byte	0x1
 2699 1225 03       		.byte	0x3
 2700 1226 01       		.byte	0x1
 2701 1227 17       		.uleb128 0x17
 2702 1228 EB080000 		.4byte	.LASF208
 2703 122c 11       		.byte	0x11
 2704 122d 13       		.byte	0x13
 2705 122e 34130000 		.4byte	0x1334
 2706 1232 02       		.byte	0x2
 2707 1233 23       		.byte	0x23
 2708 1234 00       		.uleb128 0
 2709 1235 03       		.byte	0x3
 2710 1236 17       		.uleb128 0x17
 2711 1237 EA0A0000 		.4byte	.LASF209
 2712 123b 11       		.byte	0x11
 2713 123c 14       		.byte	0x14
 2714 123d 5D010000 		.4byte	0x15d
 2715 1241 03       		.byte	0x3
 2716 1242 23       		.byte	0x23
 2717 1243 C002     		.uleb128 0x140
 2718 1245 03       		.byte	0x3
 2719 1246 31       		.uleb128 0x31
 2720 1247 01       		.byte	0x1
 2721 1248 1C070000 		.4byte	.LASF207
 2722 124c 11       		.byte	0x11
 2723 124d 17       		.byte	0x17
 2724 124e 45130000 		.4byte	0x1345
 2725 1252 03       		.byte	0x3
 2726 1253 01       		.byte	0x1
 2727 1254 5C120000 		.4byte	0x125c
 2728 1258 63120000 		.4byte	0x1263
ARM GAS  /tmp/ccS7GqVD.s 			page 49


 2729 125c 19       		.uleb128 0x19
 2730 125d 45130000 		.4byte	0x1345
 2731 1261 01       		.byte	0x1
 2732 1262 00       		.byte	0
 2733 1263 31       		.uleb128 0x31
 2734 1264 01       		.byte	0x1
 2735 1265 1C070000 		.4byte	.LASF207
 2736 1269 11       		.byte	0x11
 2737 126a 18       		.byte	0x18
 2738 126b 45130000 		.4byte	0x1345
 2739 126f 03       		.byte	0x3
 2740 1270 01       		.byte	0x1
 2741 1271 79120000 		.4byte	0x1279
 2742 1275 85120000 		.4byte	0x1285
 2743 1279 19       		.uleb128 0x19
 2744 127a 45130000 		.4byte	0x1345
 2745 127e 01       		.byte	0x1
 2746 127f 0B       		.uleb128 0xb
 2747 1280 4B130000 		.4byte	0x134b
 2748 1284 00       		.byte	0
 2749 1285 32       		.uleb128 0x32
 2750 1286 01       		.byte	0x1
 2751 1287 34030000 		.4byte	.LASF210
 2752 128b 11       		.byte	0x11
 2753 128c 19       		.byte	0x19
 2754 128d CE0D0000 		.4byte	.LASF211
 2755 1291 03       		.byte	0x3
 2756 1292 01       		.byte	0x1
 2757 1293 9B120000 		.4byte	0x129b
 2758 1297 A7120000 		.4byte	0x12a7
 2759 129b 19       		.uleb128 0x19
 2760 129c 45130000 		.4byte	0x1345
 2761 12a0 01       		.byte	0x1
 2762 12a1 0B       		.uleb128 0xb
 2763 12a2 4B130000 		.4byte	0x134b
 2764 12a6 00       		.byte	0
 2765 12a7 32       		.uleb128 0x32
 2766 12a8 01       		.byte	0x1
 2767 12a9 340E0000 		.4byte	.LASF212
 2768 12ad 11       		.byte	0x11
 2769 12ae 1B       		.byte	0x1b
 2770 12af 5A040000 		.4byte	.LASF213
 2771 12b3 03       		.byte	0x3
 2772 12b4 01       		.byte	0x1
 2773 12b5 BD120000 		.4byte	0x12bd
 2774 12b9 C9120000 		.4byte	0x12c9
 2775 12bd 19       		.uleb128 0x19
 2776 12be 45130000 		.4byte	0x1345
 2777 12c2 01       		.byte	0x1
 2778 12c3 0B       		.uleb128 0xb
 2779 12c4 320F0000 		.4byte	0xf32
 2780 12c8 00       		.byte	0
 2781 12c9 33       		.uleb128 0x33
 2782 12ca 01       		.byte	0x1
 2783 12cb A2000000 		.4byte	.LASF241
 2784 12cf 11       		.byte	0x11
 2785 12d0 1D       		.byte	0x1d
ARM GAS  /tmp/ccS7GqVD.s 			page 50


 2786 12d1 43000000 		.4byte	.LASF242
 2787 12d5 56130000 		.4byte	0x1356
 2788 12d9 01       		.byte	0x1
 2789 12da 1B       		.uleb128 0x1b
 2790 12db 01       		.byte	0x1
 2791 12dc 36070000 		.4byte	.LASF214
 2792 12e0 11       		.byte	0x11
 2793 12e1 1E       		.byte	0x1e
 2794 12e2 F2050000 		.4byte	.LASF215
 2795 12e6 B1000000 		.4byte	0xb1
 2796 12ea 01       		.byte	0x1
 2797 12eb F3120000 		.4byte	0x12f3
 2798 12ef 09130000 		.4byte	0x1309
 2799 12f3 19       		.uleb128 0x19
 2800 12f4 45130000 		.4byte	0x1345
 2801 12f8 01       		.byte	0x1
 2802 12f9 0B       		.uleb128 0xb
 2803 12fa 1A0A0000 		.4byte	0xa1a
 2804 12fe 0B       		.uleb128 0xb
 2805 12ff 34070000 		.4byte	0x734
 2806 1303 0B       		.uleb128 0xb
 2807 1304 29000000 		.4byte	0x29
 2808 1308 00       		.byte	0
 2809 1309 34       		.uleb128 0x34
 2810 130a 01       		.byte	0x1
 2811 130b 3B070000 		.4byte	.LASF216
 2812 130f 11       		.byte	0x11
 2813 1310 1F       		.byte	0x1f
 2814 1311 5C090000 		.4byte	.LASF217
 2815 1315 01       		.byte	0x1
 2816 1316 20130000 		.4byte	0x1320
 2817 131a 0B       		.uleb128 0xb
 2818 131b 320F0000 		.4byte	0xf32
 2819 131f 00       		.byte	0
 2820 1320 35       		.uleb128 0x35
 2821 1321 01       		.byte	0x1
 2822 1322 D1060000 		.4byte	.LASF243
 2823 1326 11       		.byte	0x11
 2824 1327 20       		.byte	0x20
 2825 1328 5C0D0000 		.4byte	.LASF244
 2826 132c 01       		.byte	0x1
 2827 132d 0B       		.uleb128 0xb
 2828 132e 320F0000 		.4byte	0xf32
 2829 1332 00       		.byte	0
 2830 1333 00       		.byte	0
 2831 1334 07       		.uleb128 0x7
 2832 1335 54000000 		.4byte	0x54
 2833 1339 45130000 		.4byte	0x1345
 2834 133d 36       		.uleb128 0x36
 2835 133e 3B000000 		.4byte	0x3b
 2836 1342 3F01     		.2byte	0x13f
 2837 1344 00       		.byte	0
 2838 1345 09       		.uleb128 0x9
 2839 1346 04       		.byte	0x4
 2840 1347 0C120000 		.4byte	0x120c
 2841 134b 24       		.uleb128 0x24
 2842 134c 04       		.byte	0x4
ARM GAS  /tmp/ccS7GqVD.s 			page 51


 2843 134d 51130000 		.4byte	0x1351
 2844 1351 0F       		.uleb128 0xf
 2845 1352 0C120000 		.4byte	0x120c
 2846 1356 24       		.uleb128 0x24
 2847 1357 04       		.byte	0x4
 2848 1358 0C120000 		.4byte	0x120c
 2849 135c 16       		.uleb128 0x16
 2850 135d 2D000000 		.4byte	.LASF218
 2851 1361 3C       		.byte	0x3c
 2852 1362 12       		.byte	0x12
 2853 1363 0A       		.byte	0xa
 2854 1364 87140000 		.4byte	0x1487
 2855 1368 1E       		.uleb128 0x1e
 2856 1369 3A070000 		.4byte	0x73a
 2857 136d 02       		.byte	0x2
 2858 136e 23       		.byte	0x23
 2859 136f 00       		.uleb128 0
 2860 1370 01       		.byte	0x1
 2861 1371 17       		.uleb128 0x17
 2862 1372 500B0000 		.4byte	.LASF106
 2863 1376 12       		.byte	0x12
 2864 1377 0C       		.byte	0xc
 2865 1378 87140000 		.4byte	0x1487
 2866 137c 02       		.byte	0x2
 2867 137d 23       		.byte	0x23
 2868 137e 18       		.uleb128 0x18
 2869 137f 03       		.byte	0x3
 2870 1380 17       		.uleb128 0x17
 2871 1381 7D0C0000 		.4byte	.LASF219
 2872 1385 12       		.byte	0x12
 2873 1386 0D       		.byte	0xd
 2874 1387 270E0000 		.4byte	0xe27
 2875 138b 02       		.byte	0x2
 2876 138c 23       		.byte	0x23
 2877 138d 1C       		.uleb128 0x1c
 2878 138e 03       		.byte	0x3
 2879 138f 18       		.uleb128 0x18
 2880 1390 01       		.byte	0x1
 2881 1391 2D000000 		.4byte	.LASF218
 2882 1395 12       		.byte	0x12
 2883 1396 0F       		.byte	0xf
 2884 1397 8D140000 		.4byte	0x148d
 2885 139b 01       		.byte	0x1
 2886 139c A4130000 		.4byte	0x13a4
 2887 13a0 B5130000 		.4byte	0x13b5
 2888 13a4 19       		.uleb128 0x19
 2889 13a5 8D140000 		.4byte	0x148d
 2890 13a9 01       		.byte	0x1
 2891 13aa 0B       		.uleb128 0xb
 2892 13ab 68010000 		.4byte	0x168
 2893 13af 0B       		.uleb128 0xb
 2894 13b0 30000000 		.4byte	0x30
 2895 13b4 00       		.byte	0
 2896 13b5 1B       		.uleb128 0x1b
 2897 13b6 01       		.byte	0x1
 2898 13b7 CC0E0000 		.4byte	.LASF108
 2899 13bb 12       		.byte	0x12
ARM GAS  /tmp/ccS7GqVD.s 			page 52


 2900 13bc 10       		.byte	0x10
 2901 13bd A60B0000 		.4byte	.LASF220
 2902 13c1 87140000 		.4byte	0x1487
 2903 13c5 01       		.byte	0x1
 2904 13c6 CE130000 		.4byte	0x13ce
 2905 13ca D5130000 		.4byte	0x13d5
 2906 13ce 19       		.uleb128 0x19
 2907 13cf 8D140000 		.4byte	0x148d
 2908 13d3 01       		.byte	0x1
 2909 13d4 00       		.byte	0
 2910 13d5 1A       		.uleb128 0x1a
 2911 13d6 01       		.byte	0x1
 2912 13d7 CC0E0000 		.4byte	.LASF108
 2913 13db 12       		.byte	0x12
 2914 13dc 11       		.byte	0x11
 2915 13dd 220B0000 		.4byte	.LASF221
 2916 13e1 01       		.byte	0x1
 2917 13e2 EA130000 		.4byte	0x13ea
 2918 13e6 F6130000 		.4byte	0x13f6
 2919 13ea 19       		.uleb128 0x19
 2920 13eb 8D140000 		.4byte	0x148d
 2921 13ef 01       		.byte	0x1
 2922 13f0 0B       		.uleb128 0xb
 2923 13f1 87140000 		.4byte	0x1487
 2924 13f5 00       		.byte	0
 2925 13f6 1B       		.uleb128 0x1b
 2926 13f7 01       		.byte	0x1
 2927 13f8 91000000 		.4byte	.LASF222
 2928 13fc 12       		.byte	0x12
 2929 13fd 12       		.byte	0x12
 2930 13fe 64070000 		.4byte	.LASF223
 2931 1402 29000000 		.4byte	0x29
 2932 1406 01       		.byte	0x1
 2933 1407 0F140000 		.4byte	0x140f
 2934 140b 1B140000 		.4byte	0x141b
 2935 140f 19       		.uleb128 0x19
 2936 1410 8D140000 		.4byte	0x148d
 2937 1414 01       		.byte	0x1
 2938 1415 0B       		.uleb128 0xb
 2939 1416 34070000 		.4byte	0x734
 2940 141a 00       		.byte	0
 2941 141b 1A       		.uleb128 0x1a
 2942 141c 01       		.byte	0x1
 2943 141d C2080000 		.4byte	.LASF116
 2944 1421 12       		.byte	0x12
 2945 1422 13       		.byte	0x13
 2946 1423 FB0C0000 		.4byte	.LASF224
 2947 1427 01       		.byte	0x1
 2948 1428 30140000 		.4byte	0x1430
 2949 142c 4B140000 		.4byte	0x144b
 2950 1430 19       		.uleb128 0x19
 2951 1431 8D140000 		.4byte	0x148d
 2952 1435 01       		.byte	0x1
 2953 1436 0B       		.uleb128 0xb
 2954 1437 8F080000 		.4byte	0x88f
 2955 143b 0B       		.uleb128 0xb
 2956 143c B8000000 		.4byte	0xb8
ARM GAS  /tmp/ccS7GqVD.s 			page 53


 2957 1440 0B       		.uleb128 0xb
 2958 1441 30000000 		.4byte	0x30
 2959 1445 0B       		.uleb128 0xb
 2960 1446 3F0B0000 		.4byte	0xb3f
 2961 144a 00       		.byte	0
 2962 144b 20       		.uleb128 0x20
 2963 144c 01       		.byte	0x1
 2964 144d 696400   		.ascii	"id\000"
 2965 1450 12       		.byte	0x12
 2966 1451 14       		.byte	0x14
 2967 1452 910D0000 		.4byte	.LASF225
 2968 1456 01       		.byte	0x1
 2969 1457 5F140000 		.4byte	0x145f
 2970 145b 6B140000 		.4byte	0x146b
 2971 145f 19       		.uleb128 0x19
 2972 1460 8D140000 		.4byte	0x148d
 2973 1464 01       		.byte	0x1
 2974 1465 0B       		.uleb128 0xb
 2975 1466 62000000 		.4byte	0x62
 2976 146a 00       		.byte	0
 2977 146b 21       		.uleb128 0x21
 2978 146c 01       		.byte	0x1
 2979 146d 696400   		.ascii	"id\000"
 2980 1470 12       		.byte	0x12
 2981 1471 15       		.byte	0x15
 2982 1472 AB0D0000 		.4byte	.LASF226
 2983 1476 62000000 		.4byte	0x62
 2984 147a 01       		.byte	0x1
 2985 147b 7F140000 		.4byte	0x147f
 2986 147f 19       		.uleb128 0x19
 2987 1480 8D140000 		.4byte	0x148d
 2988 1484 01       		.byte	0x1
 2989 1485 00       		.byte	0
 2990 1486 00       		.byte	0
 2991 1487 09       		.uleb128 0x9
 2992 1488 04       		.byte	0x4
 2993 1489 5C130000 		.4byte	0x135c
 2994 148d 09       		.uleb128 0x9
 2995 148e 04       		.byte	0x4
 2996 148f 5C130000 		.4byte	0x135c
 2997 1493 37       		.uleb128 0x37
 2998 1494 C9120000 		.4byte	0x12c9
 2999 1498 01       		.byte	0x1
 3000 1499 0F       		.byte	0xf
 3001 149a 01       		.byte	0x1
 3002 149b 38       		.uleb128 0x38
 3003 149c A7120000 		.4byte	0x12a7
 3004 14a0 01       		.byte	0x1
 3005 14a1 13       		.byte	0x13
 3006 14a2 01       		.byte	0x1
 3007 14a3 AB140000 		.4byte	0x14ab
 3008 14a7 C1140000 		.4byte	0x14c1
 3009 14ab 39       		.uleb128 0x39
 3010 14ac CC060000 		.4byte	.LASF231
 3011 14b0 C1140000 		.4byte	0x14c1
 3012 14b4 01       		.byte	0x1
 3013 14b5 3A       		.uleb128 0x3a
ARM GAS  /tmp/ccS7GqVD.s 			page 54


 3014 14b6 96050000 		.4byte	.LASF227
 3015 14ba 01       		.byte	0x1
 3016 14bb 13       		.byte	0x13
 3017 14bc 320F0000 		.4byte	0xf32
 3018 14c0 00       		.byte	0
 3019 14c1 0F       		.uleb128 0xf
 3020 14c2 45130000 		.4byte	0x1345
 3021 14c6 3B       		.uleb128 0x3b
 3022 14c7 97090000 		.4byte	.LASF245
 3023 14cb 01       		.byte	0x1
 3024 14cc 01       		.byte	0x1
 3025 14cd E8140000 		.4byte	0x14e8
 3026 14d1 3A       		.uleb128 0x3a
 3027 14d2 0D070000 		.4byte	.LASF228
 3028 14d6 01       		.byte	0x1
 3029 14d7 40       		.byte	0x40
 3030 14d8 29000000 		.4byte	0x29
 3031 14dc 3A       		.uleb128 0x3a
 3032 14dd 24060000 		.4byte	.LASF229
 3033 14e1 01       		.byte	0x1
 3034 14e2 40       		.byte	0x40
 3035 14e3 29000000 		.4byte	0x29
 3036 14e7 00       		.byte	0
 3037 14e8 3C       		.uleb128 0x3c
 3038 14e9 09130000 		.4byte	0x1309
 3039 14ed 01       		.byte	0x1
 3040 14ee 2E       		.byte	0x2e
 3041 14ef 00000000 		.4byte	.LFB78
 3042 14f3 24000000 		.4byte	.LFE78
 3043 14f7 00000000 		.4byte	.LLST0
 3044 14fb 56150000 		.4byte	0x1556
 3045 14ff 3D       		.uleb128 0x3d
 3046 1500 96050000 		.4byte	.LASF227
 3047 1504 01       		.byte	0x1
 3048 1505 2E       		.byte	0x2e
 3049 1506 320F0000 		.4byte	0xf32
 3050 150a 20000000 		.4byte	.LLST1
 3051 150e 3E       		.uleb128 0x3e
 3052 150f 00000000 		.4byte	.Ldebug_ranges0+0
 3053 1513 3F       		.uleb128 0x3f
 3054 1514 73756200 		.ascii	"sub\000"
 3055 1518 01       		.byte	0x1
 3056 1519 2F       		.byte	0x2f
 3057 151a 1A0A0000 		.4byte	0xa1a
 3058 151e 3E000000 		.4byte	.LLST2
 3059 1522 40       		.uleb128 0x40
 3060 1523 580A0000 		.4byte	.LASF230
 3061 1527 01       		.byte	0x1
 3062 1528 31       		.byte	0x31
 3063 1529 34070000 		.4byte	0x734
 3064 152d 5E000000 		.4byte	.LLST3
 3065 1531 41       		.uleb128 0x41
 3066 1532 9B140000 		.4byte	0x149b
 3067 1536 12000000 		.4byte	.LBB10
 3068 153a 20000000 		.4byte	.Ldebug_ranges0+0x20
 3069 153e 01       		.byte	0x1
 3070 153f 36       		.byte	0x36
ARM GAS  /tmp/ccS7GqVD.s 			page 55


 3071 1540 42       		.uleb128 0x42
 3072 1541 B5140000 		.4byte	0x14b5
 3073 1545 01       		.byte	0x1
 3074 1546 54       		.byte	0x54
 3075 1547 42       		.uleb128 0x42
 3076 1548 AB140000 		.4byte	0x14ab
 3077 154c 06       		.byte	0x6
 3078 154d 03       		.byte	0x3
 3079 154e 00000000 		.4byte	_ZN5RTcan9_instanceE
 3080 1552 9F       		.byte	0x9f
 3081 1553 00       		.byte	0
 3082 1554 00       		.byte	0
 3083 1555 00       		.byte	0
 3084 1556 38       		.uleb128 0x38
 3085 1557 46120000 		.4byte	0x1246
 3086 155b 01       		.byte	0x1
 3087 155c 0A       		.byte	0xa
 3088 155d 00       		.byte	0
 3089 155e 66150000 		.4byte	0x1566
 3090 1562 71150000 		.4byte	0x1571
 3091 1566 39       		.uleb128 0x39
 3092 1567 CC060000 		.4byte	.LASF231
 3093 156b C1140000 		.4byte	0x14c1
 3094 156f 01       		.byte	0x1
 3095 1570 00       		.byte	0
 3096 1571 43       		.uleb128 0x43
 3097 1572 56150000 		.4byte	0x1556
 3098 1576 00000000 		.4byte	.LFB73
 3099 157a 20000000 		.4byte	.LFE73
 3100 157e 86000000 		.4byte	.LLST4
 3101 1582 8A150000 		.4byte	0x158a
 3102 1586 94150000 		.4byte	0x1594
 3103 158a 44       		.uleb128 0x44
 3104 158b 66150000 		.4byte	0x1566
 3105 158f A6000000 		.4byte	.LLST5
 3106 1593 00       		.byte	0
 3107 1594 45       		.uleb128 0x45
 3108 1595 93140000 		.4byte	0x1493
 3109 1599 00000000 		.4byte	.LFB75
 3110 159d 0A000000 		.4byte	.LFE75
 3111 15a1 02       		.byte	0x2
 3112 15a2 7D       		.byte	0x7d
 3113 15a3 00       		.sleb128 0
 3114 15a4 46       		.uleb128 0x46
 3115 15a5 9B140000 		.4byte	0x149b
 3116 15a9 00000000 		.4byte	.LFB76
 3117 15ad 08000000 		.4byte	.LFE76
 3118 15b1 02       		.byte	0x2
 3119 15b2 7D       		.byte	0x7d
 3120 15b3 00       		.sleb128 0
 3121 15b4 BC150000 		.4byte	0x15bc
 3122 15b8 CF150000 		.4byte	0x15cf
 3123 15bc 44       		.uleb128 0x44
 3124 15bd AB140000 		.4byte	0x14ab
 3125 15c1 C4000000 		.4byte	.LLST6
 3126 15c5 44       		.uleb128 0x44
 3127 15c6 B5140000 		.4byte	0x14b5
ARM GAS  /tmp/ccS7GqVD.s 			page 56


 3128 15ca E5000000 		.4byte	.LLST7
 3129 15ce 00       		.byte	0
 3130 15cf 47       		.uleb128 0x47
 3131 15d0 DA120000 		.4byte	0x12da
 3132 15d4 01       		.byte	0x1
 3133 15d5 17       		.byte	0x17
 3134 15d6 00000000 		.4byte	.LFB77
 3135 15da 50000000 		.4byte	.LFE77
 3136 15de F8000000 		.4byte	.LLST8
 3137 15e2 EA150000 		.4byte	0x15ea
 3138 15e6 3B160000 		.4byte	0x163b
 3139 15ea 48       		.uleb128 0x48
 3140 15eb CC060000 		.4byte	.LASF231
 3141 15ef C1140000 		.4byte	0x14c1
 3142 15f3 01       		.byte	0x1
 3143 15f4 18010000 		.4byte	.LLST9
 3144 15f8 49       		.uleb128 0x49
 3145 15f9 73756200 		.ascii	"sub\000"
 3146 15fd 01       		.byte	0x1
 3147 15fe 17       		.byte	0x17
 3148 15ff 1A0A0000 		.4byte	0xa1a
 3149 1603 39010000 		.4byte	.LLST10
 3150 1607 49       		.uleb128 0x49
 3151 1608 6D736700 		.ascii	"msg\000"
 3152 160c 01       		.byte	0x1
 3153 160d 17       		.byte	0x17
 3154 160e 34070000 		.4byte	0x734
 3155 1612 57010000 		.4byte	.LLST11
 3156 1616 3D       		.uleb128 0x3d
 3157 1617 C1090000 		.4byte	.LASF133
 3158 161b 01       		.byte	0x1
 3159 161c 17       		.byte	0x17
 3160 161d 29000000 		.4byte	0x29
 3161 1621 8D010000 		.4byte	.LLST12
 3162 1625 3E       		.uleb128 0x3e
 3163 1626 38000000 		.4byte	.Ldebug_ranges0+0x38
 3164 162a 40       		.uleb128 0x40
 3165 162b 96050000 		.4byte	.LASF227
 3166 162f 01       		.byte	0x1
 3167 1630 18       		.byte	0x18
 3168 1631 320F0000 		.4byte	0xf32
 3169 1635 C3010000 		.4byte	.LLST13
 3170 1639 00       		.byte	0
 3171 163a 00       		.byte	0
 3172 163b 4A       		.uleb128 0x4a
 3173 163c 20130000 		.4byte	0x1320
 3174 1640 01       		.byte	0x1
 3175 1641 39       		.byte	0x39
 3176 1642 00000000 		.4byte	.LFB79
 3177 1646 0E000000 		.4byte	.LFE79
 3178 164a 02       		.byte	0x2
 3179 164b 7D       		.byte	0x7d
 3180 164c 00       		.sleb128 0
 3181 164d 85160000 		.4byte	0x1685
 3182 1651 3D       		.uleb128 0x3d
 3183 1652 96050000 		.4byte	.LASF227
 3184 1656 01       		.byte	0x1
ARM GAS  /tmp/ccS7GqVD.s 			page 57


 3185 1657 39       		.byte	0x39
 3186 1658 320F0000 		.4byte	0xf32
 3187 165c E1010000 		.4byte	.LLST14
 3188 1660 3E       		.uleb128 0x3e
 3189 1661 50000000 		.4byte	.Ldebug_ranges0+0x50
 3190 1665 3F       		.uleb128 0x3f
 3191 1666 70756200 		.ascii	"pub\000"
 3192 166a 01       		.byte	0x1
 3193 166b 3A       		.byte	0x3a
 3194 166c 8D140000 		.4byte	0x148d
 3195 1670 F4010000 		.4byte	.LLST15
 3196 1674 3F       		.uleb128 0x3f
 3197 1675 6D736700 		.ascii	"msg\000"
 3198 1679 01       		.byte	0x1
 3199 167a 3C       		.byte	0x3c
 3200 167b 34070000 		.4byte	0x734
 3201 167f 08020000 		.4byte	.LLST16
 3202 1683 00       		.byte	0
 3203 1684 00       		.byte	0
 3204 1685 4B       		.uleb128 0x4b
 3205 1686 AD040000 		.4byte	.LASF246
 3206 168a 01       		.byte	0x1
 3207 168b 00000000 		.4byte	.LFB81
 3208 168f 0C000000 		.4byte	.LFE81
 3209 1693 02       		.byte	0x2
 3210 1694 7D       		.byte	0x7d
 3211 1695 00       		.sleb128 0
 3212 1696 B8160000 		.4byte	0x16b8
 3213 169a 41       		.uleb128 0x41
 3214 169b C6140000 		.4byte	0x14c6
 3215 169f 00000000 		.4byte	.LBB22
 3216 16a3 68000000 		.4byte	.Ldebug_ranges0+0x68
 3217 16a7 01       		.byte	0x1
 3218 16a8 40       		.byte	0x40
 3219 16a9 4C       		.uleb128 0x4c
 3220 16aa DC140000 		.4byte	0x14dc
 3221 16ae FFFF     		.2byte	0xffff
 3222 16b0 4D       		.uleb128 0x4d
 3223 16b1 D1140000 		.4byte	0x14d1
 3224 16b5 01       		.byte	0x1
 3225 16b6 00       		.byte	0
 3226 16b7 00       		.byte	0
 3227 16b8 4E       		.uleb128 0x4e
 3228 16b9 B5070000 		.4byte	.LASF232
 3229 16bd 13       		.byte	0x13
 3230 16be 0706     		.2byte	0x607
 3231 16c0 85010000 		.4byte	0x185
 3232 16c4 01       		.byte	0x1
 3233 16c5 01       		.byte	0x1
 3234 16c6 4F       		.uleb128 0x4f
 3235 16c7 73000000 		.4byte	.LASF233
 3236 16cb 14       		.byte	0x14
 3237 16cc 79       		.byte	0x79
 3238 16cd E20F0000 		.4byte	0xfe2
 3239 16d1 01       		.byte	0x1
 3240 16d2 01       		.byte	0x1
 3241 16d3 50       		.uleb128 0x50
ARM GAS  /tmp/ccS7GqVD.s 			page 58


 3242 16d4 19120000 		.4byte	0x1219
 3243 16d8 01       		.byte	0x1
 3244 16d9 08       		.byte	0x8
 3245 16da FA080000 		.4byte	.LASF247
 3246 16de 05       		.byte	0x5
 3247 16df 03       		.byte	0x3
 3248 16e0 00000000 		.4byte	_ZN5RTcan9_instanceE
 3249 16e4 00       		.byte	0
 3250              		.section	.debug_abbrev,"",%progbits
 3251              	.Ldebug_abbrev0:
 3252 0000 01       		.uleb128 0x1
 3253 0001 11       		.uleb128 0x11
 3254 0002 01       		.byte	0x1
 3255 0003 25       		.uleb128 0x25
 3256 0004 0E       		.uleb128 0xe
 3257 0005 13       		.uleb128 0x13
 3258 0006 0B       		.uleb128 0xb
 3259 0007 03       		.uleb128 0x3
 3260 0008 0E       		.uleb128 0xe
 3261 0009 1B       		.uleb128 0x1b
 3262 000a 0E       		.uleb128 0xe
 3263 000b 11       		.uleb128 0x11
 3264 000c 01       		.uleb128 0x1
 3265 000d 52       		.uleb128 0x52
 3266 000e 01       		.uleb128 0x1
 3267 000f 55       		.uleb128 0x55
 3268 0010 06       		.uleb128 0x6
 3269 0011 10       		.uleb128 0x10
 3270 0012 06       		.uleb128 0x6
 3271 0013 00       		.byte	0
 3272 0014 00       		.byte	0
 3273 0015 02       		.uleb128 0x2
 3274 0016 24       		.uleb128 0x24
 3275 0017 00       		.byte	0
 3276 0018 0B       		.uleb128 0xb
 3277 0019 0B       		.uleb128 0xb
 3278 001a 3E       		.uleb128 0x3e
 3279 001b 0B       		.uleb128 0xb
 3280 001c 03       		.uleb128 0x3
 3281 001d 08       		.uleb128 0x8
 3282 001e 00       		.byte	0
 3283 001f 00       		.byte	0
 3284 0020 03       		.uleb128 0x3
 3285 0021 16       		.uleb128 0x16
 3286 0022 00       		.byte	0
 3287 0023 03       		.uleb128 0x3
 3288 0024 0E       		.uleb128 0xe
 3289 0025 3A       		.uleb128 0x3a
 3290 0026 0B       		.uleb128 0xb
 3291 0027 3B       		.uleb128 0x3b
 3292 0028 0B       		.uleb128 0xb
 3293 0029 49       		.uleb128 0x49
 3294 002a 13       		.uleb128 0x13
 3295 002b 00       		.byte	0
 3296 002c 00       		.byte	0
 3297 002d 04       		.uleb128 0x4
 3298 002e 24       		.uleb128 0x24
ARM GAS  /tmp/ccS7GqVD.s 			page 59


 3299 002f 00       		.byte	0
 3300 0030 0B       		.uleb128 0xb
 3301 0031 0B       		.uleb128 0xb
 3302 0032 3E       		.uleb128 0x3e
 3303 0033 0B       		.uleb128 0xb
 3304 0034 03       		.uleb128 0x3
 3305 0035 0E       		.uleb128 0xe
 3306 0036 00       		.byte	0
 3307 0037 00       		.byte	0
 3308 0038 05       		.uleb128 0x5
 3309 0039 0F       		.uleb128 0xf
 3310 003a 00       		.byte	0
 3311 003b 0B       		.uleb128 0xb
 3312 003c 0B       		.uleb128 0xb
 3313 003d 00       		.byte	0
 3314 003e 00       		.byte	0
 3315 003f 06       		.uleb128 0x6
 3316 0040 35       		.uleb128 0x35
 3317 0041 00       		.byte	0
 3318 0042 49       		.uleb128 0x49
 3319 0043 13       		.uleb128 0x13
 3320 0044 00       		.byte	0
 3321 0045 00       		.byte	0
 3322 0046 07       		.uleb128 0x7
 3323 0047 01       		.uleb128 0x1
 3324 0048 01       		.byte	0x1
 3325 0049 49       		.uleb128 0x49
 3326 004a 13       		.uleb128 0x13
 3327 004b 01       		.uleb128 0x1
 3328 004c 13       		.uleb128 0x13
 3329 004d 00       		.byte	0
 3330 004e 00       		.byte	0
 3331 004f 08       		.uleb128 0x8
 3332 0050 21       		.uleb128 0x21
 3333 0051 00       		.byte	0
 3334 0052 49       		.uleb128 0x49
 3335 0053 13       		.uleb128 0x13
 3336 0054 2F       		.uleb128 0x2f
 3337 0055 0B       		.uleb128 0xb
 3338 0056 00       		.byte	0
 3339 0057 00       		.byte	0
 3340 0058 09       		.uleb128 0x9
 3341 0059 0F       		.uleb128 0xf
 3342 005a 00       		.byte	0
 3343 005b 0B       		.uleb128 0xb
 3344 005c 0B       		.uleb128 0xb
 3345 005d 49       		.uleb128 0x49
 3346 005e 13       		.uleb128 0x13
 3347 005f 00       		.byte	0
 3348 0060 00       		.byte	0
 3349 0061 0A       		.uleb128 0xa
 3350 0062 15       		.uleb128 0x15
 3351 0063 01       		.byte	0x1
 3352 0064 49       		.uleb128 0x49
 3353 0065 13       		.uleb128 0x13
 3354 0066 01       		.uleb128 0x1
 3355 0067 13       		.uleb128 0x13
ARM GAS  /tmp/ccS7GqVD.s 			page 60


 3356 0068 00       		.byte	0
 3357 0069 00       		.byte	0
 3358 006a 0B       		.uleb128 0xb
 3359 006b 05       		.uleb128 0x5
 3360 006c 00       		.byte	0
 3361 006d 49       		.uleb128 0x49
 3362 006e 13       		.uleb128 0x13
 3363 006f 00       		.byte	0
 3364 0070 00       		.byte	0
 3365 0071 0C       		.uleb128 0xc
 3366 0072 13       		.uleb128 0x13
 3367 0073 01       		.byte	0x1
 3368 0074 03       		.uleb128 0x3
 3369 0075 0E       		.uleb128 0xe
 3370 0076 0B       		.uleb128 0xb
 3371 0077 0B       		.uleb128 0xb
 3372 0078 3A       		.uleb128 0x3a
 3373 0079 0B       		.uleb128 0xb
 3374 007a 3B       		.uleb128 0x3b
 3375 007b 0B       		.uleb128 0xb
 3376 007c 01       		.uleb128 0x1
 3377 007d 13       		.uleb128 0x13
 3378 007e 00       		.byte	0
 3379 007f 00       		.byte	0
 3380 0080 0D       		.uleb128 0xd
 3381 0081 0D       		.uleb128 0xd
 3382 0082 00       		.byte	0
 3383 0083 03       		.uleb128 0x3
 3384 0084 0E       		.uleb128 0xe
 3385 0085 3A       		.uleb128 0x3a
 3386 0086 0B       		.uleb128 0xb
 3387 0087 3B       		.uleb128 0x3b
 3388 0088 0B       		.uleb128 0xb
 3389 0089 49       		.uleb128 0x49
 3390 008a 13       		.uleb128 0x13
 3391 008b 38       		.uleb128 0x38
 3392 008c 0A       		.uleb128 0xa
 3393 008d 00       		.byte	0
 3394 008e 00       		.byte	0
 3395 008f 0E       		.uleb128 0xe
 3396 0090 13       		.uleb128 0x13
 3397 0091 01       		.byte	0x1
 3398 0092 0B       		.uleb128 0xb
 3399 0093 0B       		.uleb128 0xb
 3400 0094 3A       		.uleb128 0x3a
 3401 0095 0B       		.uleb128 0xb
 3402 0096 3B       		.uleb128 0x3b
 3403 0097 0B       		.uleb128 0xb
 3404 0098 8740     		.uleb128 0x2007
 3405 009a 0E       		.uleb128 0xe
 3406 009b 01       		.uleb128 0x1
 3407 009c 13       		.uleb128 0x13
 3408 009d 00       		.byte	0
 3409 009e 00       		.byte	0
 3410 009f 0F       		.uleb128 0xf
 3411 00a0 26       		.uleb128 0x26
 3412 00a1 00       		.byte	0
ARM GAS  /tmp/ccS7GqVD.s 			page 61


 3413 00a2 49       		.uleb128 0x49
 3414 00a3 13       		.uleb128 0x13
 3415 00a4 00       		.byte	0
 3416 00a5 00       		.byte	0
 3417 00a6 10       		.uleb128 0x10
 3418 00a7 13       		.uleb128 0x13
 3419 00a8 01       		.byte	0x1
 3420 00a9 0B       		.uleb128 0xb
 3421 00aa 0B       		.uleb128 0xb
 3422 00ab 3A       		.uleb128 0x3a
 3423 00ac 0B       		.uleb128 0xb
 3424 00ad 3B       		.uleb128 0x3b
 3425 00ae 05       		.uleb128 0x5
 3426 00af 8740     		.uleb128 0x2007
 3427 00b1 0E       		.uleb128 0xe
 3428 00b2 01       		.uleb128 0x1
 3429 00b3 13       		.uleb128 0x13
 3430 00b4 00       		.byte	0
 3431 00b5 00       		.byte	0
 3432 00b6 11       		.uleb128 0x11
 3433 00b7 0D       		.uleb128 0xd
 3434 00b8 00       		.byte	0
 3435 00b9 03       		.uleb128 0x3
 3436 00ba 08       		.uleb128 0x8
 3437 00bb 3A       		.uleb128 0x3a
 3438 00bc 0B       		.uleb128 0xb
 3439 00bd 3B       		.uleb128 0x3b
 3440 00be 05       		.uleb128 0x5
 3441 00bf 49       		.uleb128 0x49
 3442 00c0 13       		.uleb128 0x13
 3443 00c1 38       		.uleb128 0x38
 3444 00c2 0A       		.uleb128 0xa
 3445 00c3 00       		.byte	0
 3446 00c4 00       		.byte	0
 3447 00c5 12       		.uleb128 0x12
 3448 00c6 0D       		.uleb128 0xd
 3449 00c7 00       		.byte	0
 3450 00c8 03       		.uleb128 0x3
 3451 00c9 0E       		.uleb128 0xe
 3452 00ca 3A       		.uleb128 0x3a
 3453 00cb 0B       		.uleb128 0xb
 3454 00cc 3B       		.uleb128 0x3b
 3455 00cd 05       		.uleb128 0x5
 3456 00ce 49       		.uleb128 0x49
 3457 00cf 13       		.uleb128 0x13
 3458 00d0 38       		.uleb128 0x38
 3459 00d1 0A       		.uleb128 0xa
 3460 00d2 00       		.byte	0
 3461 00d3 00       		.byte	0
 3462 00d4 13       		.uleb128 0x13
 3463 00d5 16       		.uleb128 0x16
 3464 00d6 00       		.byte	0
 3465 00d7 03       		.uleb128 0x3
 3466 00d8 0E       		.uleb128 0xe
 3467 00d9 3A       		.uleb128 0x3a
 3468 00da 0B       		.uleb128 0xb
 3469 00db 3B       		.uleb128 0x3b
ARM GAS  /tmp/ccS7GqVD.s 			page 62


 3470 00dc 05       		.uleb128 0x5
 3471 00dd 49       		.uleb128 0x49
 3472 00de 13       		.uleb128 0x13
 3473 00df 00       		.byte	0
 3474 00e0 00       		.byte	0
 3475 00e1 14       		.uleb128 0x14
 3476 00e2 13       		.uleb128 0x13
 3477 00e3 01       		.byte	0x1
 3478 00e4 0B       		.uleb128 0xb
 3479 00e5 05       		.uleb128 0x5
 3480 00e6 3A       		.uleb128 0x3a
 3481 00e7 0B       		.uleb128 0xb
 3482 00e8 3B       		.uleb128 0x3b
 3483 00e9 05       		.uleb128 0x5
 3484 00ea 8740     		.uleb128 0x2007
 3485 00ec 0E       		.uleb128 0xe
 3486 00ed 01       		.uleb128 0x1
 3487 00ee 13       		.uleb128 0x13
 3488 00ef 00       		.byte	0
 3489 00f0 00       		.byte	0
 3490 00f1 15       		.uleb128 0x15
 3491 00f2 39       		.uleb128 0x39
 3492 00f3 00       		.byte	0
 3493 00f4 03       		.uleb128 0x3
 3494 00f5 0E       		.uleb128 0xe
 3495 00f6 3A       		.uleb128 0x3a
 3496 00f7 0B       		.uleb128 0xb
 3497 00f8 3B       		.uleb128 0x3b
 3498 00f9 0B       		.uleb128 0xb
 3499 00fa 00       		.byte	0
 3500 00fb 00       		.byte	0
 3501 00fc 16       		.uleb128 0x16
 3502 00fd 02       		.uleb128 0x2
 3503 00fe 01       		.byte	0x1
 3504 00ff 03       		.uleb128 0x3
 3505 0100 0E       		.uleb128 0xe
 3506 0101 0B       		.uleb128 0xb
 3507 0102 0B       		.uleb128 0xb
 3508 0103 3A       		.uleb128 0x3a
 3509 0104 0B       		.uleb128 0xb
 3510 0105 3B       		.uleb128 0x3b
 3511 0106 0B       		.uleb128 0xb
 3512 0107 01       		.uleb128 0x1
 3513 0108 13       		.uleb128 0x13
 3514 0109 00       		.byte	0
 3515 010a 00       		.byte	0
 3516 010b 17       		.uleb128 0x17
 3517 010c 0D       		.uleb128 0xd
 3518 010d 00       		.byte	0
 3519 010e 03       		.uleb128 0x3
 3520 010f 0E       		.uleb128 0xe
 3521 0110 3A       		.uleb128 0x3a
 3522 0111 0B       		.uleb128 0xb
 3523 0112 3B       		.uleb128 0x3b
 3524 0113 0B       		.uleb128 0xb
 3525 0114 49       		.uleb128 0x49
 3526 0115 13       		.uleb128 0x13
ARM GAS  /tmp/ccS7GqVD.s 			page 63


 3527 0116 38       		.uleb128 0x38
 3528 0117 0A       		.uleb128 0xa
 3529 0118 32       		.uleb128 0x32
 3530 0119 0B       		.uleb128 0xb
 3531 011a 00       		.byte	0
 3532 011b 00       		.byte	0
 3533 011c 18       		.uleb128 0x18
 3534 011d 2E       		.uleb128 0x2e
 3535 011e 01       		.byte	0x1
 3536 011f 3F       		.uleb128 0x3f
 3537 0120 0C       		.uleb128 0xc
 3538 0121 03       		.uleb128 0x3
 3539 0122 0E       		.uleb128 0xe
 3540 0123 3A       		.uleb128 0x3a
 3541 0124 0B       		.uleb128 0xb
 3542 0125 3B       		.uleb128 0x3b
 3543 0126 0B       		.uleb128 0xb
 3544 0127 49       		.uleb128 0x49
 3545 0128 13       		.uleb128 0x13
 3546 0129 3C       		.uleb128 0x3c
 3547 012a 0C       		.uleb128 0xc
 3548 012b 64       		.uleb128 0x64
 3549 012c 13       		.uleb128 0x13
 3550 012d 01       		.uleb128 0x1
 3551 012e 13       		.uleb128 0x13
 3552 012f 00       		.byte	0
 3553 0130 00       		.byte	0
 3554 0131 19       		.uleb128 0x19
 3555 0132 05       		.uleb128 0x5
 3556 0133 00       		.byte	0
 3557 0134 49       		.uleb128 0x49
 3558 0135 13       		.uleb128 0x13
 3559 0136 34       		.uleb128 0x34
 3560 0137 0C       		.uleb128 0xc
 3561 0138 00       		.byte	0
 3562 0139 00       		.byte	0
 3563 013a 1A       		.uleb128 0x1a
 3564 013b 2E       		.uleb128 0x2e
 3565 013c 01       		.byte	0x1
 3566 013d 3F       		.uleb128 0x3f
 3567 013e 0C       		.uleb128 0xc
 3568 013f 03       		.uleb128 0x3
 3569 0140 0E       		.uleb128 0xe
 3570 0141 3A       		.uleb128 0x3a
 3571 0142 0B       		.uleb128 0xb
 3572 0143 3B       		.uleb128 0x3b
 3573 0144 0B       		.uleb128 0xb
 3574 0145 8740     		.uleb128 0x2007
 3575 0147 0E       		.uleb128 0xe
 3576 0148 3C       		.uleb128 0x3c
 3577 0149 0C       		.uleb128 0xc
 3578 014a 64       		.uleb128 0x64
 3579 014b 13       		.uleb128 0x13
 3580 014c 01       		.uleb128 0x1
 3581 014d 13       		.uleb128 0x13
 3582 014e 00       		.byte	0
 3583 014f 00       		.byte	0
ARM GAS  /tmp/ccS7GqVD.s 			page 64


 3584 0150 1B       		.uleb128 0x1b
 3585 0151 2E       		.uleb128 0x2e
 3586 0152 01       		.byte	0x1
 3587 0153 3F       		.uleb128 0x3f
 3588 0154 0C       		.uleb128 0xc
 3589 0155 03       		.uleb128 0x3
 3590 0156 0E       		.uleb128 0xe
 3591 0157 3A       		.uleb128 0x3a
 3592 0158 0B       		.uleb128 0xb
 3593 0159 3B       		.uleb128 0x3b
 3594 015a 0B       		.uleb128 0xb
 3595 015b 8740     		.uleb128 0x2007
 3596 015d 0E       		.uleb128 0xe
 3597 015e 49       		.uleb128 0x49
 3598 015f 13       		.uleb128 0x13
 3599 0160 3C       		.uleb128 0x3c
 3600 0161 0C       		.uleb128 0xc
 3601 0162 64       		.uleb128 0x64
 3602 0163 13       		.uleb128 0x13
 3603 0164 01       		.uleb128 0x1
 3604 0165 13       		.uleb128 0x13
 3605 0166 00       		.byte	0
 3606 0167 00       		.byte	0
 3607 0168 1C       		.uleb128 0x1c
 3608 0169 2E       		.uleb128 0x2e
 3609 016a 01       		.byte	0x1
 3610 016b 3F       		.uleb128 0x3f
 3611 016c 0C       		.uleb128 0xc
 3612 016d 03       		.uleb128 0x3
 3613 016e 0E       		.uleb128 0xe
 3614 016f 3A       		.uleb128 0x3a
 3615 0170 0B       		.uleb128 0xb
 3616 0171 3B       		.uleb128 0x3b
 3617 0172 0B       		.uleb128 0xb
 3618 0173 8740     		.uleb128 0x2007
 3619 0175 0E       		.uleb128 0xe
 3620 0176 3C       		.uleb128 0x3c
 3621 0177 0C       		.uleb128 0xc
 3622 0178 64       		.uleb128 0x64
 3623 0179 13       		.uleb128 0x13
 3624 017a 00       		.byte	0
 3625 017b 00       		.byte	0
 3626 017c 1D       		.uleb128 0x1d
 3627 017d 13       		.uleb128 0x13
 3628 017e 00       		.byte	0
 3629 017f 03       		.uleb128 0x3
 3630 0180 0E       		.uleb128 0xe
 3631 0181 3C       		.uleb128 0x3c
 3632 0182 0C       		.uleb128 0xc
 3633 0183 00       		.byte	0
 3634 0184 00       		.byte	0
 3635 0185 1E       		.uleb128 0x1e
 3636 0186 1C       		.uleb128 0x1c
 3637 0187 00       		.byte	0
 3638 0188 49       		.uleb128 0x49
 3639 0189 13       		.uleb128 0x13
 3640 018a 38       		.uleb128 0x38
ARM GAS  /tmp/ccS7GqVD.s 			page 65


 3641 018b 0A       		.uleb128 0xa
 3642 018c 32       		.uleb128 0x32
 3643 018d 0B       		.uleb128 0xb
 3644 018e 00       		.byte	0
 3645 018f 00       		.byte	0
 3646 0190 1F       		.uleb128 0x1f
 3647 0191 0D       		.uleb128 0xd
 3648 0192 00       		.byte	0
 3649 0193 03       		.uleb128 0x3
 3650 0194 08       		.uleb128 0x8
 3651 0195 3A       		.uleb128 0x3a
 3652 0196 0B       		.uleb128 0xb
 3653 0197 3B       		.uleb128 0x3b
 3654 0198 0B       		.uleb128 0xb
 3655 0199 49       		.uleb128 0x49
 3656 019a 13       		.uleb128 0x13
 3657 019b 38       		.uleb128 0x38
 3658 019c 0A       		.uleb128 0xa
 3659 019d 32       		.uleb128 0x32
 3660 019e 0B       		.uleb128 0xb
 3661 019f 00       		.byte	0
 3662 01a0 00       		.byte	0
 3663 01a1 20       		.uleb128 0x20
 3664 01a2 2E       		.uleb128 0x2e
 3665 01a3 01       		.byte	0x1
 3666 01a4 3F       		.uleb128 0x3f
 3667 01a5 0C       		.uleb128 0xc
 3668 01a6 03       		.uleb128 0x3
 3669 01a7 08       		.uleb128 0x8
 3670 01a8 3A       		.uleb128 0x3a
 3671 01a9 0B       		.uleb128 0xb
 3672 01aa 3B       		.uleb128 0x3b
 3673 01ab 0B       		.uleb128 0xb
 3674 01ac 8740     		.uleb128 0x2007
 3675 01ae 0E       		.uleb128 0xe
 3676 01af 3C       		.uleb128 0x3c
 3677 01b0 0C       		.uleb128 0xc
 3678 01b1 64       		.uleb128 0x64
 3679 01b2 13       		.uleb128 0x13
 3680 01b3 01       		.uleb128 0x1
 3681 01b4 13       		.uleb128 0x13
 3682 01b5 00       		.byte	0
 3683 01b6 00       		.byte	0
 3684 01b7 21       		.uleb128 0x21
 3685 01b8 2E       		.uleb128 0x2e
 3686 01b9 01       		.byte	0x1
 3687 01ba 3F       		.uleb128 0x3f
 3688 01bb 0C       		.uleb128 0xc
 3689 01bc 03       		.uleb128 0x3
 3690 01bd 08       		.uleb128 0x8
 3691 01be 3A       		.uleb128 0x3a
 3692 01bf 0B       		.uleb128 0xb
 3693 01c0 3B       		.uleb128 0x3b
 3694 01c1 0B       		.uleb128 0xb
 3695 01c2 8740     		.uleb128 0x2007
 3696 01c4 0E       		.uleb128 0xe
 3697 01c5 49       		.uleb128 0x49
ARM GAS  /tmp/ccS7GqVD.s 			page 66


 3698 01c6 13       		.uleb128 0x13
 3699 01c7 3C       		.uleb128 0x3c
 3700 01c8 0C       		.uleb128 0xc
 3701 01c9 64       		.uleb128 0x64
 3702 01ca 13       		.uleb128 0x13
 3703 01cb 00       		.byte	0
 3704 01cc 00       		.byte	0
 3705 01cd 22       		.uleb128 0x22
 3706 01ce 2E       		.uleb128 0x2e
 3707 01cf 01       		.byte	0x1
 3708 01d0 3F       		.uleb128 0x3f
 3709 01d1 0C       		.uleb128 0xc
 3710 01d2 03       		.uleb128 0x3
 3711 01d3 08       		.uleb128 0x8
 3712 01d4 3A       		.uleb128 0x3a
 3713 01d5 0B       		.uleb128 0xb
 3714 01d6 3B       		.uleb128 0x3b
 3715 01d7 0B       		.uleb128 0xb
 3716 01d8 8740     		.uleb128 0x2007
 3717 01da 0E       		.uleb128 0xe
 3718 01db 49       		.uleb128 0x49
 3719 01dc 13       		.uleb128 0x13
 3720 01dd 3C       		.uleb128 0x3c
 3721 01de 0C       		.uleb128 0xc
 3722 01df 64       		.uleb128 0x64
 3723 01e0 13       		.uleb128 0x13
 3724 01e1 01       		.uleb128 0x1
 3725 01e2 13       		.uleb128 0x13
 3726 01e3 00       		.byte	0
 3727 01e4 00       		.byte	0
 3728 01e5 23       		.uleb128 0x23
 3729 01e6 2E       		.uleb128 0x2e
 3730 01e7 01       		.byte	0x1
 3731 01e8 3F       		.uleb128 0x3f
 3732 01e9 0C       		.uleb128 0xc
 3733 01ea 03       		.uleb128 0x3
 3734 01eb 0E       		.uleb128 0xe
 3735 01ec 3A       		.uleb128 0x3a
 3736 01ed 0B       		.uleb128 0xb
 3737 01ee 3B       		.uleb128 0x3b
 3738 01ef 0B       		.uleb128 0xb
 3739 01f0 8740     		.uleb128 0x2007
 3740 01f2 0E       		.uleb128 0xe
 3741 01f3 49       		.uleb128 0x49
 3742 01f4 13       		.uleb128 0x13
 3743 01f5 3C       		.uleb128 0x3c
 3744 01f6 0C       		.uleb128 0xc
 3745 01f7 64       		.uleb128 0x64
 3746 01f8 13       		.uleb128 0x13
 3747 01f9 00       		.byte	0
 3748 01fa 00       		.byte	0
 3749 01fb 24       		.uleb128 0x24
 3750 01fc 10       		.uleb128 0x10
 3751 01fd 00       		.byte	0
 3752 01fe 0B       		.uleb128 0xb
 3753 01ff 0B       		.uleb128 0xb
 3754 0200 49       		.uleb128 0x49
ARM GAS  /tmp/ccS7GqVD.s 			page 67


 3755 0201 13       		.uleb128 0x13
 3756 0202 00       		.byte	0
 3757 0203 00       		.byte	0
 3758 0204 25       		.uleb128 0x25
 3759 0205 17       		.uleb128 0x17
 3760 0206 01       		.byte	0x1
 3761 0207 0B       		.uleb128 0xb
 3762 0208 0B       		.uleb128 0xb
 3763 0209 3A       		.uleb128 0x3a
 3764 020a 0B       		.uleb128 0xb
 3765 020b 3B       		.uleb128 0x3b
 3766 020c 0B       		.uleb128 0xb
 3767 020d 01       		.uleb128 0x1
 3768 020e 13       		.uleb128 0x13
 3769 020f 00       		.byte	0
 3770 0210 00       		.byte	0
 3771 0211 26       		.uleb128 0x26
 3772 0212 13       		.uleb128 0x13
 3773 0213 01       		.byte	0x1
 3774 0214 0B       		.uleb128 0xb
 3775 0215 0B       		.uleb128 0xb
 3776 0216 3A       		.uleb128 0x3a
 3777 0217 0B       		.uleb128 0xb
 3778 0218 3B       		.uleb128 0x3b
 3779 0219 0B       		.uleb128 0xb
 3780 021a 01       		.uleb128 0x1
 3781 021b 13       		.uleb128 0x13
 3782 021c 00       		.byte	0
 3783 021d 00       		.byte	0
 3784 021e 27       		.uleb128 0x27
 3785 021f 0D       		.uleb128 0xd
 3786 0220 00       		.byte	0
 3787 0221 49       		.uleb128 0x49
 3788 0222 13       		.uleb128 0x13
 3789 0223 00       		.byte	0
 3790 0224 00       		.byte	0
 3791 0225 28       		.uleb128 0x28
 3792 0226 0D       		.uleb128 0xd
 3793 0227 00       		.byte	0
 3794 0228 49       		.uleb128 0x49
 3795 0229 13       		.uleb128 0x13
 3796 022a 38       		.uleb128 0x38
 3797 022b 0A       		.uleb128 0xa
 3798 022c 00       		.byte	0
 3799 022d 00       		.byte	0
 3800 022e 29       		.uleb128 0x29
 3801 022f 0D       		.uleb128 0xd
 3802 0230 00       		.byte	0
 3803 0231 03       		.uleb128 0x3
 3804 0232 08       		.uleb128 0x8
 3805 0233 3A       		.uleb128 0x3a
 3806 0234 0B       		.uleb128 0xb
 3807 0235 3B       		.uleb128 0x3b
 3808 0236 0B       		.uleb128 0xb
 3809 0237 49       		.uleb128 0x49
 3810 0238 13       		.uleb128 0x13
 3811 0239 38       		.uleb128 0x38
ARM GAS  /tmp/ccS7GqVD.s 			page 68


 3812 023a 0A       		.uleb128 0xa
 3813 023b 00       		.byte	0
 3814 023c 00       		.byte	0
 3815 023d 2A       		.uleb128 0x2a
 3816 023e 0D       		.uleb128 0xd
 3817 023f 00       		.byte	0
 3818 0240 03       		.uleb128 0x3
 3819 0241 0E       		.uleb128 0xe
 3820 0242 3A       		.uleb128 0x3a
 3821 0243 0B       		.uleb128 0xb
 3822 0244 3B       		.uleb128 0x3b
 3823 0245 0B       		.uleb128 0xb
 3824 0246 49       		.uleb128 0x49
 3825 0247 13       		.uleb128 0x13
 3826 0248 0B       		.uleb128 0xb
 3827 0249 0B       		.uleb128 0xb
 3828 024a 0D       		.uleb128 0xd
 3829 024b 0B       		.uleb128 0xb
 3830 024c 0C       		.uleb128 0xc
 3831 024d 0B       		.uleb128 0xb
 3832 024e 38       		.uleb128 0x38
 3833 024f 0A       		.uleb128 0xa
 3834 0250 00       		.byte	0
 3835 0251 00       		.byte	0
 3836 0252 2B       		.uleb128 0x2b
 3837 0253 15       		.uleb128 0x15
 3838 0254 01       		.byte	0x1
 3839 0255 01       		.uleb128 0x1
 3840 0256 13       		.uleb128 0x13
 3841 0257 00       		.byte	0
 3842 0258 00       		.byte	0
 3843 0259 2C       		.uleb128 0x2c
 3844 025a 04       		.uleb128 0x4
 3845 025b 01       		.byte	0x1
 3846 025c 0B       		.uleb128 0xb
 3847 025d 0B       		.uleb128 0xb
 3848 025e 3A       		.uleb128 0x3a
 3849 025f 0B       		.uleb128 0xb
 3850 0260 3B       		.uleb128 0x3b
 3851 0261 0B       		.uleb128 0xb
 3852 0262 8740     		.uleb128 0x2007
 3853 0264 0E       		.uleb128 0xe
 3854 0265 01       		.uleb128 0x1
 3855 0266 13       		.uleb128 0x13
 3856 0267 00       		.byte	0
 3857 0268 00       		.byte	0
 3858 0269 2D       		.uleb128 0x2d
 3859 026a 28       		.uleb128 0x28
 3860 026b 00       		.byte	0
 3861 026c 03       		.uleb128 0x3
 3862 026d 0E       		.uleb128 0xe
 3863 026e 1C       		.uleb128 0x1c
 3864 026f 0D       		.uleb128 0xd
 3865 0270 00       		.byte	0
 3866 0271 00       		.byte	0
 3867 0272 2E       		.uleb128 0x2e
 3868 0273 0D       		.uleb128 0xd
ARM GAS  /tmp/ccS7GqVD.s 			page 69


 3869 0274 00       		.byte	0
 3870 0275 03       		.uleb128 0x3
 3871 0276 08       		.uleb128 0x8
 3872 0277 3A       		.uleb128 0x3a
 3873 0278 0B       		.uleb128 0xb
 3874 0279 3B       		.uleb128 0x3b
 3875 027a 0B       		.uleb128 0xb
 3876 027b 49       		.uleb128 0x49
 3877 027c 13       		.uleb128 0x13
 3878 027d 0B       		.uleb128 0xb
 3879 027e 0B       		.uleb128 0xb
 3880 027f 0D       		.uleb128 0xd
 3881 0280 0B       		.uleb128 0xb
 3882 0281 0C       		.uleb128 0xc
 3883 0282 0B       		.uleb128 0xb
 3884 0283 38       		.uleb128 0x38
 3885 0284 0A       		.uleb128 0xa
 3886 0285 00       		.byte	0
 3887 0286 00       		.byte	0
 3888 0287 2F       		.uleb128 0x2f
 3889 0288 02       		.uleb128 0x2
 3890 0289 01       		.byte	0x1
 3891 028a 03       		.uleb128 0x3
 3892 028b 0E       		.uleb128 0xe
 3893 028c 0B       		.uleb128 0xb
 3894 028d 05       		.uleb128 0x5
 3895 028e 3A       		.uleb128 0x3a
 3896 028f 0B       		.uleb128 0xb
 3897 0290 3B       		.uleb128 0x3b
 3898 0291 0B       		.uleb128 0xb
 3899 0292 01       		.uleb128 0x1
 3900 0293 13       		.uleb128 0x13
 3901 0294 00       		.byte	0
 3902 0295 00       		.byte	0
 3903 0296 30       		.uleb128 0x30
 3904 0297 0D       		.uleb128 0xd
 3905 0298 00       		.byte	0
 3906 0299 03       		.uleb128 0x3
 3907 029a 0E       		.uleb128 0xe
 3908 029b 3A       		.uleb128 0x3a
 3909 029c 0B       		.uleb128 0xb
 3910 029d 3B       		.uleb128 0x3b
 3911 029e 0B       		.uleb128 0xb
 3912 029f 49       		.uleb128 0x49
 3913 02a0 13       		.uleb128 0x13
 3914 02a1 3F       		.uleb128 0x3f
 3915 02a2 0C       		.uleb128 0xc
 3916 02a3 32       		.uleb128 0x32
 3917 02a4 0B       		.uleb128 0xb
 3918 02a5 3C       		.uleb128 0x3c
 3919 02a6 0C       		.uleb128 0xc
 3920 02a7 00       		.byte	0
 3921 02a8 00       		.byte	0
 3922 02a9 31       		.uleb128 0x31
 3923 02aa 2E       		.uleb128 0x2e
 3924 02ab 01       		.byte	0x1
 3925 02ac 3F       		.uleb128 0x3f
ARM GAS  /tmp/ccS7GqVD.s 			page 70


 3926 02ad 0C       		.uleb128 0xc
 3927 02ae 03       		.uleb128 0x3
 3928 02af 0E       		.uleb128 0xe
 3929 02b0 3A       		.uleb128 0x3a
 3930 02b1 0B       		.uleb128 0xb
 3931 02b2 3B       		.uleb128 0x3b
 3932 02b3 0B       		.uleb128 0xb
 3933 02b4 49       		.uleb128 0x49
 3934 02b5 13       		.uleb128 0x13
 3935 02b6 32       		.uleb128 0x32
 3936 02b7 0B       		.uleb128 0xb
 3937 02b8 3C       		.uleb128 0x3c
 3938 02b9 0C       		.uleb128 0xc
 3939 02ba 64       		.uleb128 0x64
 3940 02bb 13       		.uleb128 0x13
 3941 02bc 01       		.uleb128 0x1
 3942 02bd 13       		.uleb128 0x13
 3943 02be 00       		.byte	0
 3944 02bf 00       		.byte	0
 3945 02c0 32       		.uleb128 0x32
 3946 02c1 2E       		.uleb128 0x2e
 3947 02c2 01       		.byte	0x1
 3948 02c3 3F       		.uleb128 0x3f
 3949 02c4 0C       		.uleb128 0xc
 3950 02c5 03       		.uleb128 0x3
 3951 02c6 0E       		.uleb128 0xe
 3952 02c7 3A       		.uleb128 0x3a
 3953 02c8 0B       		.uleb128 0xb
 3954 02c9 3B       		.uleb128 0x3b
 3955 02ca 0B       		.uleb128 0xb
 3956 02cb 8740     		.uleb128 0x2007
 3957 02cd 0E       		.uleb128 0xe
 3958 02ce 32       		.uleb128 0x32
 3959 02cf 0B       		.uleb128 0xb
 3960 02d0 3C       		.uleb128 0x3c
 3961 02d1 0C       		.uleb128 0xc
 3962 02d2 64       		.uleb128 0x64
 3963 02d3 13       		.uleb128 0x13
 3964 02d4 01       		.uleb128 0x1
 3965 02d5 13       		.uleb128 0x13
 3966 02d6 00       		.byte	0
 3967 02d7 00       		.byte	0
 3968 02d8 33       		.uleb128 0x33
 3969 02d9 2E       		.uleb128 0x2e
 3970 02da 00       		.byte	0
 3971 02db 3F       		.uleb128 0x3f
 3972 02dc 0C       		.uleb128 0xc
 3973 02dd 03       		.uleb128 0x3
 3974 02de 0E       		.uleb128 0xe
 3975 02df 3A       		.uleb128 0x3a
 3976 02e0 0B       		.uleb128 0xb
 3977 02e1 3B       		.uleb128 0x3b
 3978 02e2 0B       		.uleb128 0xb
 3979 02e3 8740     		.uleb128 0x2007
 3980 02e5 0E       		.uleb128 0xe
 3981 02e6 49       		.uleb128 0x49
 3982 02e7 13       		.uleb128 0x13
ARM GAS  /tmp/ccS7GqVD.s 			page 71


 3983 02e8 3C       		.uleb128 0x3c
 3984 02e9 0C       		.uleb128 0xc
 3985 02ea 00       		.byte	0
 3986 02eb 00       		.byte	0
 3987 02ec 34       		.uleb128 0x34
 3988 02ed 2E       		.uleb128 0x2e
 3989 02ee 01       		.byte	0x1
 3990 02ef 3F       		.uleb128 0x3f
 3991 02f0 0C       		.uleb128 0xc
 3992 02f1 03       		.uleb128 0x3
 3993 02f2 0E       		.uleb128 0xe
 3994 02f3 3A       		.uleb128 0x3a
 3995 02f4 0B       		.uleb128 0xb
 3996 02f5 3B       		.uleb128 0x3b
 3997 02f6 0B       		.uleb128 0xb
 3998 02f7 8740     		.uleb128 0x2007
 3999 02f9 0E       		.uleb128 0xe
 4000 02fa 3C       		.uleb128 0x3c
 4001 02fb 0C       		.uleb128 0xc
 4002 02fc 01       		.uleb128 0x1
 4003 02fd 13       		.uleb128 0x13
 4004 02fe 00       		.byte	0
 4005 02ff 00       		.byte	0
 4006 0300 35       		.uleb128 0x35
 4007 0301 2E       		.uleb128 0x2e
 4008 0302 01       		.byte	0x1
 4009 0303 3F       		.uleb128 0x3f
 4010 0304 0C       		.uleb128 0xc
 4011 0305 03       		.uleb128 0x3
 4012 0306 0E       		.uleb128 0xe
 4013 0307 3A       		.uleb128 0x3a
 4014 0308 0B       		.uleb128 0xb
 4015 0309 3B       		.uleb128 0x3b
 4016 030a 0B       		.uleb128 0xb
 4017 030b 8740     		.uleb128 0x2007
 4018 030d 0E       		.uleb128 0xe
 4019 030e 3C       		.uleb128 0x3c
 4020 030f 0C       		.uleb128 0xc
 4021 0310 00       		.byte	0
 4022 0311 00       		.byte	0
 4023 0312 36       		.uleb128 0x36
 4024 0313 21       		.uleb128 0x21
 4025 0314 00       		.byte	0
 4026 0315 49       		.uleb128 0x49
 4027 0316 13       		.uleb128 0x13
 4028 0317 2F       		.uleb128 0x2f
 4029 0318 05       		.uleb128 0x5
 4030 0319 00       		.byte	0
 4031 031a 00       		.byte	0
 4032 031b 37       		.uleb128 0x37
 4033 031c 2E       		.uleb128 0x2e
 4034 031d 00       		.byte	0
 4035 031e 47       		.uleb128 0x47
 4036 031f 13       		.uleb128 0x13
 4037 0320 3A       		.uleb128 0x3a
 4038 0321 0B       		.uleb128 0xb
 4039 0322 3B       		.uleb128 0x3b
ARM GAS  /tmp/ccS7GqVD.s 			page 72


 4040 0323 0B       		.uleb128 0xb
 4041 0324 20       		.uleb128 0x20
 4042 0325 0B       		.uleb128 0xb
 4043 0326 00       		.byte	0
 4044 0327 00       		.byte	0
 4045 0328 38       		.uleb128 0x38
 4046 0329 2E       		.uleb128 0x2e
 4047 032a 01       		.byte	0x1
 4048 032b 47       		.uleb128 0x47
 4049 032c 13       		.uleb128 0x13
 4050 032d 3A       		.uleb128 0x3a
 4051 032e 0B       		.uleb128 0xb
 4052 032f 3B       		.uleb128 0x3b
 4053 0330 0B       		.uleb128 0xb
 4054 0331 20       		.uleb128 0x20
 4055 0332 0B       		.uleb128 0xb
 4056 0333 64       		.uleb128 0x64
 4057 0334 13       		.uleb128 0x13
 4058 0335 01       		.uleb128 0x1
 4059 0336 13       		.uleb128 0x13
 4060 0337 00       		.byte	0
 4061 0338 00       		.byte	0
 4062 0339 39       		.uleb128 0x39
 4063 033a 05       		.uleb128 0x5
 4064 033b 00       		.byte	0
 4065 033c 03       		.uleb128 0x3
 4066 033d 0E       		.uleb128 0xe
 4067 033e 49       		.uleb128 0x49
 4068 033f 13       		.uleb128 0x13
 4069 0340 34       		.uleb128 0x34
 4070 0341 0C       		.uleb128 0xc
 4071 0342 00       		.byte	0
 4072 0343 00       		.byte	0
 4073 0344 3A       		.uleb128 0x3a
 4074 0345 05       		.uleb128 0x5
 4075 0346 00       		.byte	0
 4076 0347 03       		.uleb128 0x3
 4077 0348 0E       		.uleb128 0xe
 4078 0349 3A       		.uleb128 0x3a
 4079 034a 0B       		.uleb128 0xb
 4080 034b 3B       		.uleb128 0x3b
 4081 034c 0B       		.uleb128 0xb
 4082 034d 49       		.uleb128 0x49
 4083 034e 13       		.uleb128 0x13
 4084 034f 00       		.byte	0
 4085 0350 00       		.byte	0
 4086 0351 3B       		.uleb128 0x3b
 4087 0352 2E       		.uleb128 0x2e
 4088 0353 01       		.byte	0x1
 4089 0354 03       		.uleb128 0x3
 4090 0355 0E       		.uleb128 0xe
 4091 0356 34       		.uleb128 0x34
 4092 0357 0C       		.uleb128 0xc
 4093 0358 20       		.uleb128 0x20
 4094 0359 0B       		.uleb128 0xb
 4095 035a 01       		.uleb128 0x1
 4096 035b 13       		.uleb128 0x13
ARM GAS  /tmp/ccS7GqVD.s 			page 73


 4097 035c 00       		.byte	0
 4098 035d 00       		.byte	0
 4099 035e 3C       		.uleb128 0x3c
 4100 035f 2E       		.uleb128 0x2e
 4101 0360 01       		.byte	0x1
 4102 0361 47       		.uleb128 0x47
 4103 0362 13       		.uleb128 0x13
 4104 0363 3A       		.uleb128 0x3a
 4105 0364 0B       		.uleb128 0xb
 4106 0365 3B       		.uleb128 0x3b
 4107 0366 0B       		.uleb128 0xb
 4108 0367 11       		.uleb128 0x11
 4109 0368 01       		.uleb128 0x1
 4110 0369 12       		.uleb128 0x12
 4111 036a 01       		.uleb128 0x1
 4112 036b 40       		.uleb128 0x40
 4113 036c 06       		.uleb128 0x6
 4114 036d 01       		.uleb128 0x1
 4115 036e 13       		.uleb128 0x13
 4116 036f 00       		.byte	0
 4117 0370 00       		.byte	0
 4118 0371 3D       		.uleb128 0x3d
 4119 0372 05       		.uleb128 0x5
 4120 0373 00       		.byte	0
 4121 0374 03       		.uleb128 0x3
 4122 0375 0E       		.uleb128 0xe
 4123 0376 3A       		.uleb128 0x3a
 4124 0377 0B       		.uleb128 0xb
 4125 0378 3B       		.uleb128 0x3b
 4126 0379 0B       		.uleb128 0xb
 4127 037a 49       		.uleb128 0x49
 4128 037b 13       		.uleb128 0x13
 4129 037c 02       		.uleb128 0x2
 4130 037d 06       		.uleb128 0x6
 4131 037e 00       		.byte	0
 4132 037f 00       		.byte	0
 4133 0380 3E       		.uleb128 0x3e
 4134 0381 0B       		.uleb128 0xb
 4135 0382 01       		.byte	0x1
 4136 0383 55       		.uleb128 0x55
 4137 0384 06       		.uleb128 0x6
 4138 0385 00       		.byte	0
 4139 0386 00       		.byte	0
 4140 0387 3F       		.uleb128 0x3f
 4141 0388 34       		.uleb128 0x34
 4142 0389 00       		.byte	0
 4143 038a 03       		.uleb128 0x3
 4144 038b 08       		.uleb128 0x8
 4145 038c 3A       		.uleb128 0x3a
 4146 038d 0B       		.uleb128 0xb
 4147 038e 3B       		.uleb128 0x3b
 4148 038f 0B       		.uleb128 0xb
 4149 0390 49       		.uleb128 0x49
 4150 0391 13       		.uleb128 0x13
 4151 0392 02       		.uleb128 0x2
 4152 0393 06       		.uleb128 0x6
 4153 0394 00       		.byte	0
ARM GAS  /tmp/ccS7GqVD.s 			page 74


 4154 0395 00       		.byte	0
 4155 0396 40       		.uleb128 0x40
 4156 0397 34       		.uleb128 0x34
 4157 0398 00       		.byte	0
 4158 0399 03       		.uleb128 0x3
 4159 039a 0E       		.uleb128 0xe
 4160 039b 3A       		.uleb128 0x3a
 4161 039c 0B       		.uleb128 0xb
 4162 039d 3B       		.uleb128 0x3b
 4163 039e 0B       		.uleb128 0xb
 4164 039f 49       		.uleb128 0x49
 4165 03a0 13       		.uleb128 0x13
 4166 03a1 02       		.uleb128 0x2
 4167 03a2 06       		.uleb128 0x6
 4168 03a3 00       		.byte	0
 4169 03a4 00       		.byte	0
 4170 03a5 41       		.uleb128 0x41
 4171 03a6 1D       		.uleb128 0x1d
 4172 03a7 01       		.byte	0x1
 4173 03a8 31       		.uleb128 0x31
 4174 03a9 13       		.uleb128 0x13
 4175 03aa 52       		.uleb128 0x52
 4176 03ab 01       		.uleb128 0x1
 4177 03ac 55       		.uleb128 0x55
 4178 03ad 06       		.uleb128 0x6
 4179 03ae 58       		.uleb128 0x58
 4180 03af 0B       		.uleb128 0xb
 4181 03b0 59       		.uleb128 0x59
 4182 03b1 0B       		.uleb128 0xb
 4183 03b2 00       		.byte	0
 4184 03b3 00       		.byte	0
 4185 03b4 42       		.uleb128 0x42
 4186 03b5 05       		.uleb128 0x5
 4187 03b6 00       		.byte	0
 4188 03b7 31       		.uleb128 0x31
 4189 03b8 13       		.uleb128 0x13
 4190 03b9 02       		.uleb128 0x2
 4191 03ba 0A       		.uleb128 0xa
 4192 03bb 00       		.byte	0
 4193 03bc 00       		.byte	0
 4194 03bd 43       		.uleb128 0x43
 4195 03be 2E       		.uleb128 0x2e
 4196 03bf 01       		.byte	0x1
 4197 03c0 31       		.uleb128 0x31
 4198 03c1 13       		.uleb128 0x13
 4199 03c2 11       		.uleb128 0x11
 4200 03c3 01       		.uleb128 0x1
 4201 03c4 12       		.uleb128 0x12
 4202 03c5 01       		.uleb128 0x1
 4203 03c6 40       		.uleb128 0x40
 4204 03c7 06       		.uleb128 0x6
 4205 03c8 64       		.uleb128 0x64
 4206 03c9 13       		.uleb128 0x13
 4207 03ca 01       		.uleb128 0x1
 4208 03cb 13       		.uleb128 0x13
 4209 03cc 00       		.byte	0
 4210 03cd 00       		.byte	0
ARM GAS  /tmp/ccS7GqVD.s 			page 75


 4211 03ce 44       		.uleb128 0x44
 4212 03cf 05       		.uleb128 0x5
 4213 03d0 00       		.byte	0
 4214 03d1 31       		.uleb128 0x31
 4215 03d2 13       		.uleb128 0x13
 4216 03d3 02       		.uleb128 0x2
 4217 03d4 06       		.uleb128 0x6
 4218 03d5 00       		.byte	0
 4219 03d6 00       		.byte	0
 4220 03d7 45       		.uleb128 0x45
 4221 03d8 2E       		.uleb128 0x2e
 4222 03d9 00       		.byte	0
 4223 03da 31       		.uleb128 0x31
 4224 03db 13       		.uleb128 0x13
 4225 03dc 11       		.uleb128 0x11
 4226 03dd 01       		.uleb128 0x1
 4227 03de 12       		.uleb128 0x12
 4228 03df 01       		.uleb128 0x1
 4229 03e0 40       		.uleb128 0x40
 4230 03e1 0A       		.uleb128 0xa
 4231 03e2 00       		.byte	0
 4232 03e3 00       		.byte	0
 4233 03e4 46       		.uleb128 0x46
 4234 03e5 2E       		.uleb128 0x2e
 4235 03e6 01       		.byte	0x1
 4236 03e7 31       		.uleb128 0x31
 4237 03e8 13       		.uleb128 0x13
 4238 03e9 11       		.uleb128 0x11
 4239 03ea 01       		.uleb128 0x1
 4240 03eb 12       		.uleb128 0x12
 4241 03ec 01       		.uleb128 0x1
 4242 03ed 40       		.uleb128 0x40
 4243 03ee 0A       		.uleb128 0xa
 4244 03ef 64       		.uleb128 0x64
 4245 03f0 13       		.uleb128 0x13
 4246 03f1 01       		.uleb128 0x1
 4247 03f2 13       		.uleb128 0x13
 4248 03f3 00       		.byte	0
 4249 03f4 00       		.byte	0
 4250 03f5 47       		.uleb128 0x47
 4251 03f6 2E       		.uleb128 0x2e
 4252 03f7 01       		.byte	0x1
 4253 03f8 47       		.uleb128 0x47
 4254 03f9 13       		.uleb128 0x13
 4255 03fa 3A       		.uleb128 0x3a
 4256 03fb 0B       		.uleb128 0xb
 4257 03fc 3B       		.uleb128 0x3b
 4258 03fd 0B       		.uleb128 0xb
 4259 03fe 11       		.uleb128 0x11
 4260 03ff 01       		.uleb128 0x1
 4261 0400 12       		.uleb128 0x12
 4262 0401 01       		.uleb128 0x1
 4263 0402 40       		.uleb128 0x40
 4264 0403 06       		.uleb128 0x6
 4265 0404 64       		.uleb128 0x64
 4266 0405 13       		.uleb128 0x13
 4267 0406 01       		.uleb128 0x1
ARM GAS  /tmp/ccS7GqVD.s 			page 76


 4268 0407 13       		.uleb128 0x13
 4269 0408 00       		.byte	0
 4270 0409 00       		.byte	0
 4271 040a 48       		.uleb128 0x48
 4272 040b 05       		.uleb128 0x5
 4273 040c 00       		.byte	0
 4274 040d 03       		.uleb128 0x3
 4275 040e 0E       		.uleb128 0xe
 4276 040f 49       		.uleb128 0x49
 4277 0410 13       		.uleb128 0x13
 4278 0411 34       		.uleb128 0x34
 4279 0412 0C       		.uleb128 0xc
 4280 0413 02       		.uleb128 0x2
 4281 0414 06       		.uleb128 0x6
 4282 0415 00       		.byte	0
 4283 0416 00       		.byte	0
 4284 0417 49       		.uleb128 0x49
 4285 0418 05       		.uleb128 0x5
 4286 0419 00       		.byte	0
 4287 041a 03       		.uleb128 0x3
 4288 041b 08       		.uleb128 0x8
 4289 041c 3A       		.uleb128 0x3a
 4290 041d 0B       		.uleb128 0xb
 4291 041e 3B       		.uleb128 0x3b
 4292 041f 0B       		.uleb128 0xb
 4293 0420 49       		.uleb128 0x49
 4294 0421 13       		.uleb128 0x13
 4295 0422 02       		.uleb128 0x2
 4296 0423 06       		.uleb128 0x6
 4297 0424 00       		.byte	0
 4298 0425 00       		.byte	0
 4299 0426 4A       		.uleb128 0x4a
 4300 0427 2E       		.uleb128 0x2e
 4301 0428 01       		.byte	0x1
 4302 0429 47       		.uleb128 0x47
 4303 042a 13       		.uleb128 0x13
 4304 042b 3A       		.uleb128 0x3a
 4305 042c 0B       		.uleb128 0xb
 4306 042d 3B       		.uleb128 0x3b
 4307 042e 0B       		.uleb128 0xb
 4308 042f 11       		.uleb128 0x11
 4309 0430 01       		.uleb128 0x1
 4310 0431 12       		.uleb128 0x12
 4311 0432 01       		.uleb128 0x1
 4312 0433 40       		.uleb128 0x40
 4313 0434 0A       		.uleb128 0xa
 4314 0435 01       		.uleb128 0x1
 4315 0436 13       		.uleb128 0x13
 4316 0437 00       		.byte	0
 4317 0438 00       		.byte	0
 4318 0439 4B       		.uleb128 0x4b
 4319 043a 2E       		.uleb128 0x2e
 4320 043b 01       		.byte	0x1
 4321 043c 03       		.uleb128 0x3
 4322 043d 0E       		.uleb128 0xe
 4323 043e 34       		.uleb128 0x34
 4324 043f 0C       		.uleb128 0xc
ARM GAS  /tmp/ccS7GqVD.s 			page 77


 4325 0440 11       		.uleb128 0x11
 4326 0441 01       		.uleb128 0x1
 4327 0442 12       		.uleb128 0x12
 4328 0443 01       		.uleb128 0x1
 4329 0444 40       		.uleb128 0x40
 4330 0445 0A       		.uleb128 0xa
 4331 0446 01       		.uleb128 0x1
 4332 0447 13       		.uleb128 0x13
 4333 0448 00       		.byte	0
 4334 0449 00       		.byte	0
 4335 044a 4C       		.uleb128 0x4c
 4336 044b 05       		.uleb128 0x5
 4337 044c 00       		.byte	0
 4338 044d 31       		.uleb128 0x31
 4339 044e 13       		.uleb128 0x13
 4340 044f 1C       		.uleb128 0x1c
 4341 0450 05       		.uleb128 0x5
 4342 0451 00       		.byte	0
 4343 0452 00       		.byte	0
 4344 0453 4D       		.uleb128 0x4d
 4345 0454 05       		.uleb128 0x5
 4346 0455 00       		.byte	0
 4347 0456 31       		.uleb128 0x31
 4348 0457 13       		.uleb128 0x13
 4349 0458 1C       		.uleb128 0x1c
 4350 0459 0B       		.uleb128 0xb
 4351 045a 00       		.byte	0
 4352 045b 00       		.byte	0
 4353 045c 4E       		.uleb128 0x4e
 4354 045d 34       		.uleb128 0x34
 4355 045e 00       		.byte	0
 4356 045f 03       		.uleb128 0x3
 4357 0460 0E       		.uleb128 0xe
 4358 0461 3A       		.uleb128 0x3a
 4359 0462 0B       		.uleb128 0xb
 4360 0463 3B       		.uleb128 0x3b
 4361 0464 05       		.uleb128 0x5
 4362 0465 49       		.uleb128 0x49
 4363 0466 13       		.uleb128 0x13
 4364 0467 3F       		.uleb128 0x3f
 4365 0468 0C       		.uleb128 0xc
 4366 0469 3C       		.uleb128 0x3c
 4367 046a 0C       		.uleb128 0xc
 4368 046b 00       		.byte	0
 4369 046c 00       		.byte	0
 4370 046d 4F       		.uleb128 0x4f
 4371 046e 34       		.uleb128 0x34
 4372 046f 00       		.byte	0
 4373 0470 03       		.uleb128 0x3
 4374 0471 0E       		.uleb128 0xe
 4375 0472 3A       		.uleb128 0x3a
 4376 0473 0B       		.uleb128 0xb
 4377 0474 3B       		.uleb128 0x3b
 4378 0475 0B       		.uleb128 0xb
 4379 0476 49       		.uleb128 0x49
 4380 0477 13       		.uleb128 0x13
 4381 0478 3F       		.uleb128 0x3f
ARM GAS  /tmp/ccS7GqVD.s 			page 78


 4382 0479 0C       		.uleb128 0xc
 4383 047a 3C       		.uleb128 0x3c
 4384 047b 0C       		.uleb128 0xc
 4385 047c 00       		.byte	0
 4386 047d 00       		.byte	0
 4387 047e 50       		.uleb128 0x50
 4388 047f 34       		.uleb128 0x34
 4389 0480 00       		.byte	0
 4390 0481 47       		.uleb128 0x47
 4391 0482 13       		.uleb128 0x13
 4392 0483 3A       		.uleb128 0x3a
 4393 0484 0B       		.uleb128 0xb
 4394 0485 3B       		.uleb128 0x3b
 4395 0486 0B       		.uleb128 0xb
 4396 0487 8740     		.uleb128 0x2007
 4397 0489 0E       		.uleb128 0xe
 4398 048a 02       		.uleb128 0x2
 4399 048b 0A       		.uleb128 0xa
 4400 048c 00       		.byte	0
 4401 048d 00       		.byte	0
 4402 048e 00       		.byte	0
 4403              		.section	.debug_loc,"",%progbits
 4404              	.Ldebug_loc0:
 4405              	.LLST0:
 4406 0000 00000000 		.4byte	.LFB78
 4407 0004 02000000 		.4byte	.LCFI0
 4408 0008 0200     		.2byte	0x2
 4409 000a 7D       		.byte	0x7d
 4410 000b 00       		.sleb128 0
 4411 000c 02000000 		.4byte	.LCFI0
 4412 0010 24000000 		.4byte	.LFE78
 4413 0014 0200     		.2byte	0x2
 4414 0016 7D       		.byte	0x7d
 4415 0017 08       		.sleb128 8
 4416 0018 00000000 		.4byte	0
 4417 001c 00000000 		.4byte	0
 4418              	.LLST1:
 4419 0020 00000000 		.4byte	.LVL0
 4420 0024 0E000000 		.4byte	.LVL2
 4421 0028 0100     		.2byte	0x1
 4422 002a 50       		.byte	0x50
 4423 002b 0E000000 		.4byte	.LVL2
 4424 002f 24000000 		.4byte	.LFE78
 4425 0033 0100     		.2byte	0x1
 4426 0035 54       		.byte	0x54
 4427 0036 00000000 		.4byte	0
 4428 003a 00000000 		.4byte	0
 4429              	.LLST2:
 4430 003e 08000000 		.4byte	.LVL1
 4431 0042 0E000000 		.4byte	.LVL2
 4432 0046 0200     		.2byte	0x2
 4433 0048 70       		.byte	0x70
 4434 0049 09       		.sleb128 9
 4435 004a 0E000000 		.4byte	.LVL2
 4436 004e 11000000 		.4byte	.LVL3-1
 4437 0052 0200     		.2byte	0x2
 4438 0054 74       		.byte	0x74
ARM GAS  /tmp/ccS7GqVD.s 			page 79


 4439 0055 09       		.sleb128 9
 4440 0056 00000000 		.4byte	0
 4441 005a 00000000 		.4byte	0
 4442              	.LLST3:
 4443 005e 08000000 		.4byte	.LVL1
 4444 0062 0E000000 		.4byte	.LVL2
 4445 0066 0600     		.2byte	0x6
 4446 0068 70       		.byte	0x70
 4447 0069 15       		.sleb128 21
 4448 006a 06       		.byte	0x6
 4449 006b 32       		.byte	0x32
 4450 006c 1C       		.byte	0x1c
 4451 006d 9F       		.byte	0x9f
 4452 006e 0E000000 		.4byte	.LVL2
 4453 0072 11000000 		.4byte	.LVL3-1
 4454 0076 0600     		.2byte	0x6
 4455 0078 74       		.byte	0x74
 4456 0079 15       		.sleb128 21
 4457 007a 06       		.byte	0x6
 4458 007b 32       		.byte	0x32
 4459 007c 1C       		.byte	0x1c
 4460 007d 9F       		.byte	0x9f
 4461 007e 00000000 		.4byte	0
 4462 0082 00000000 		.4byte	0
 4463              	.LLST4:
 4464 0086 00000000 		.4byte	.LFB73
 4465 008a 02000000 		.4byte	.LCFI1
 4466 008e 0200     		.2byte	0x2
 4467 0090 7D       		.byte	0x7d
 4468 0091 00       		.sleb128 0
 4469 0092 02000000 		.4byte	.LCFI1
 4470 0096 20000000 		.4byte	.LFE73
 4471 009a 0200     		.2byte	0x2
 4472 009c 7D       		.byte	0x7d
 4473 009d 10       		.sleb128 16
 4474 009e 00000000 		.4byte	0
 4475 00a2 00000000 		.4byte	0
 4476              	.LLST5:
 4477 00a6 00000000 		.4byte	.LVL4
 4478 00aa 0C000000 		.4byte	.LVL5
 4479 00ae 0100     		.2byte	0x1
 4480 00b0 50       		.byte	0x50
 4481 00b1 0C000000 		.4byte	.LVL5
 4482 00b5 20000000 		.4byte	.LFE73
 4483 00b9 0100     		.2byte	0x1
 4484 00bb 54       		.byte	0x54
 4485 00bc 00000000 		.4byte	0
 4486 00c0 00000000 		.4byte	0
 4487              	.LLST6:
 4488 00c4 00000000 		.4byte	.LVL6
 4489 00c8 04000000 		.4byte	.LVL7
 4490 00cc 0100     		.2byte	0x1
 4491 00ce 50       		.byte	0x50
 4492 00cf 04000000 		.4byte	.LVL7
 4493 00d3 07000000 		.4byte	.LVL9-1
 4494 00d7 0400     		.2byte	0x4
 4495 00d9 70       		.byte	0x70
ARM GAS  /tmp/ccS7GqVD.s 			page 80


 4496 00da C07D     		.sleb128 -320
 4497 00dc 9F       		.byte	0x9f
 4498 00dd 00000000 		.4byte	0
 4499 00e1 00000000 		.4byte	0
 4500              	.LLST7:
 4501 00e5 00000000 		.4byte	.LVL6
 4502 00e9 07000000 		.4byte	.LVL8-1
 4503 00ed 0100     		.2byte	0x1
 4504 00ef 51       		.byte	0x51
 4505 00f0 00000000 		.4byte	0
 4506 00f4 00000000 		.4byte	0
 4507              	.LLST8:
 4508 00f8 00000000 		.4byte	.LFB77
 4509 00fc 02000000 		.4byte	.LCFI2
 4510 0100 0200     		.2byte	0x2
 4511 0102 7D       		.byte	0x7d
 4512 0103 00       		.sleb128 0
 4513 0104 02000000 		.4byte	.LCFI2
 4514 0108 50000000 		.4byte	.LFE77
 4515 010c 0200     		.2byte	0x2
 4516 010e 7D       		.byte	0x7d
 4517 010f 18       		.sleb128 24
 4518 0110 00000000 		.4byte	0
 4519 0114 00000000 		.4byte	0
 4520              	.LLST9:
 4521 0118 00000000 		.4byte	.LVL10
 4522 011c 06000000 		.4byte	.LVL11
 4523 0120 0100     		.2byte	0x1
 4524 0122 50       		.byte	0x50
 4525 0123 06000000 		.4byte	.LVL11
 4526 0127 0F000000 		.4byte	.LVL12-1
 4527 012b 0400     		.2byte	0x4
 4528 012d 70       		.byte	0x70
 4529 012e C07D     		.sleb128 -320
 4530 0130 9F       		.byte	0x9f
 4531 0131 00000000 		.4byte	0
 4532 0135 00000000 		.4byte	0
 4533              	.LLST10:
 4534 0139 00000000 		.4byte	.LVL10
 4535 013d 0F000000 		.4byte	.LVL12-1
 4536 0141 0100     		.2byte	0x1
 4537 0143 51       		.byte	0x51
 4538 0144 0F000000 		.4byte	.LVL12-1
 4539 0148 50000000 		.4byte	.LFE77
 4540 014c 0100     		.2byte	0x1
 4541 014e 54       		.byte	0x54
 4542 014f 00000000 		.4byte	0
 4543 0153 00000000 		.4byte	0
 4544              	.LLST11:
 4545 0157 00000000 		.4byte	.LVL10
 4546 015b 0F000000 		.4byte	.LVL12-1
 4547 015f 0100     		.2byte	0x1
 4548 0161 52       		.byte	0x52
 4549 0162 0F000000 		.4byte	.LVL12-1
 4550 0166 26000000 		.4byte	.LVL16
 4551 016a 0100     		.2byte	0x1
 4552 016c 55       		.byte	0x55
ARM GAS  /tmp/ccS7GqVD.s 			page 81


 4553 016d 26000000 		.4byte	.LVL16
 4554 0171 46000000 		.4byte	.LVL17
 4555 0175 0300     		.2byte	0x3
 4556 0177 75       		.byte	0x75
 4557 0178 7E       		.sleb128 -2
 4558 0179 9F       		.byte	0x9f
 4559 017a 46000000 		.4byte	.LVL17
 4560 017e 50000000 		.4byte	.LFE77
 4561 0182 0100     		.2byte	0x1
 4562 0184 55       		.byte	0x55
 4563 0185 00000000 		.4byte	0
 4564 0189 00000000 		.4byte	0
 4565              	.LLST12:
 4566 018d 00000000 		.4byte	.LVL10
 4567 0191 0F000000 		.4byte	.LVL12-1
 4568 0195 0100     		.2byte	0x1
 4569 0197 53       		.byte	0x53
 4570 0198 0F000000 		.4byte	.LVL12-1
 4571 019c 24000000 		.4byte	.LVL15
 4572 01a0 0100     		.2byte	0x1
 4573 01a2 57       		.byte	0x57
 4574 01a3 24000000 		.4byte	.LVL15
 4575 01a7 46000000 		.4byte	.LVL17
 4576 01ab 0300     		.2byte	0x3
 4577 01ad 77       		.byte	0x77
 4578 01ae 02       		.sleb128 2
 4579 01af 9F       		.byte	0x9f
 4580 01b0 46000000 		.4byte	.LVL17
 4581 01b4 50000000 		.4byte	.LFE77
 4582 01b8 0100     		.2byte	0x1
 4583 01ba 57       		.byte	0x57
 4584 01bb 00000000 		.4byte	0
 4585 01bf 00000000 		.4byte	0
 4586              	.LLST13:
 4587 01c3 12000000 		.4byte	.LVL13
 4588 01c7 16000000 		.4byte	.LVL14
 4589 01cb 0100     		.2byte	0x1
 4590 01cd 50       		.byte	0x50
 4591 01ce 16000000 		.4byte	.LVL14
 4592 01d2 50000000 		.4byte	.LFE77
 4593 01d6 0100     		.2byte	0x1
 4594 01d8 56       		.byte	0x56
 4595 01d9 00000000 		.4byte	0
 4596 01dd 00000000 		.4byte	0
 4597              	.LLST14:
 4598 01e1 00000000 		.4byte	.LVL18
 4599 01e5 08000000 		.4byte	.LVL19
 4600 01e9 0100     		.2byte	0x1
 4601 01eb 50       		.byte	0x50
 4602 01ec 00000000 		.4byte	0
 4603 01f0 00000000 		.4byte	0
 4604              	.LLST15:
 4605 01f4 00000000 		.4byte	.LVL18
 4606 01f8 08000000 		.4byte	.LVL19
 4607 01fc 0200     		.2byte	0x2
 4608 01fe 70       		.byte	0x70
 4609 01ff 09       		.sleb128 9
ARM GAS  /tmp/ccS7GqVD.s 			page 82


 4610 0200 00000000 		.4byte	0
 4611 0204 00000000 		.4byte	0
 4612              	.LLST16:
 4613 0208 00000000 		.4byte	.LVL18
 4614 020c 08000000 		.4byte	.LVL19
 4615 0210 0600     		.2byte	0x6
 4616 0212 70       		.byte	0x70
 4617 0213 15       		.sleb128 21
 4618 0214 06       		.byte	0x6
 4619 0215 32       		.byte	0x32
 4620 0216 1C       		.byte	0x1c
 4621 0217 9F       		.byte	0x9f
 4622 0218 00000000 		.4byte	0
 4623 021c 00000000 		.4byte	0
 4624              		.section	.debug_aranges,"",%progbits
 4625 0000 4C000000 		.4byte	0x4c
 4626 0004 0200     		.2byte	0x2
 4627 0006 00000000 		.4byte	.Ldebug_info0
 4628 000a 04       		.byte	0x4
 4629 000b 00       		.byte	0
 4630 000c 0000     		.2byte	0
 4631 000e 0000     		.2byte	0
 4632 0010 00000000 		.4byte	.LFB78
 4633 0014 24000000 		.4byte	.LFE78-.LFB78
 4634 0018 00000000 		.4byte	.LFB73
 4635 001c 20000000 		.4byte	.LFE73-.LFB73
 4636 0020 00000000 		.4byte	.LFB75
 4637 0024 0A000000 		.4byte	.LFE75-.LFB75
 4638 0028 00000000 		.4byte	.LFB76
 4639 002c 08000000 		.4byte	.LFE76-.LFB76
 4640 0030 00000000 		.4byte	.LFB77
 4641 0034 50000000 		.4byte	.LFE77-.LFB77
 4642 0038 00000000 		.4byte	.LFB79
 4643 003c 0E000000 		.4byte	.LFE79-.LFB79
 4644 0040 00000000 		.4byte	.LFB81
 4645 0044 0C000000 		.4byte	.LFE81-.LFB81
 4646 0048 00000000 		.4byte	0
 4647 004c 00000000 		.4byte	0
 4648              		.section	.debug_ranges,"",%progbits
 4649              	.Ldebug_ranges0:
 4650 0000 02000000 		.4byte	.LBB9
 4651 0004 06000000 		.4byte	.LBE9
 4652 0008 08000000 		.4byte	.LBB14
 4653 000c 16000000 		.4byte	.LBE14
 4654 0010 1A000000 		.4byte	.LBB15
 4655 0014 24000000 		.4byte	.LBE15
 4656 0018 00000000 		.4byte	0
 4657 001c 00000000 		.4byte	0
 4658 0020 12000000 		.4byte	.LBB10
 4659 0024 16000000 		.4byte	.LBE10
 4660 0028 1A000000 		.4byte	.LBB13
 4661 002c 24000000 		.4byte	.LBE13
 4662 0030 00000000 		.4byte	0
 4663 0034 00000000 		.4byte	0
 4664 0038 02000000 		.4byte	.LBB18
 4665 003c 06000000 		.4byte	.LBE18
 4666 0040 0C000000 		.4byte	.LBB19
ARM GAS  /tmp/ccS7GqVD.s 			page 83


 4667 0044 46000000 		.4byte	.LBE19
 4668 0048 00000000 		.4byte	0
 4669 004c 00000000 		.4byte	0
 4670 0050 00000000 		.4byte	.LBB20
 4671 0054 0A000000 		.4byte	.LBE20
 4672 0058 0A000000 		.4byte	.LBB21
 4673 005c 0E000000 		.4byte	.LBE21
 4674 0060 00000000 		.4byte	0
 4675 0064 00000000 		.4byte	0
 4676 0068 00000000 		.4byte	.LBB22
 4677 006c 08000000 		.4byte	.LBE22
 4678 0070 08000000 		.4byte	.LBB25
 4679 0074 0C000000 		.4byte	.LBE25
 4680 0078 00000000 		.4byte	0
 4681 007c 00000000 		.4byte	0
 4682 0080 00000000 		.4byte	.LFB78
 4683 0084 24000000 		.4byte	.LFE78
 4684 0088 00000000 		.4byte	.LFB73
 4685 008c 20000000 		.4byte	.LFE73
 4686 0090 00000000 		.4byte	.LFB75
 4687 0094 0A000000 		.4byte	.LFE75
 4688 0098 00000000 		.4byte	.LFB76
 4689 009c 08000000 		.4byte	.LFE76
 4690 00a0 00000000 		.4byte	.LFB77
 4691 00a4 50000000 		.4byte	.LFE77
 4692 00a8 00000000 		.4byte	.LFB79
 4693 00ac 0E000000 		.4byte	.LFE79
 4694 00b0 00000000 		.4byte	.LFB81
 4695 00b4 0C000000 		.4byte	.LFE81
 4696 00b8 00000000 		.4byte	0
 4697 00bc 00000000 		.4byte	0
 4698              		.section	.debug_line,"",%progbits
 4699              	.Ldebug_line0:
 4700 0000 19040000 		.section	.debug_str,"MS",%progbits,1
 4700      02007203 
 4700      00000201 
 4700      FB0E0D00 
 4700      01010101 
 4701              	.LASF134:
 4702 0000 5F5A4E31 		.ascii	"_ZN12MessageQueue4sizeEv\000"
 4702      324D6573 
 4702      73616765 
 4702      51756575 
 4702      65347369 
 4703              	.LASF2:
 4704 0019 73697A65 		.ascii	"size_t\000"
 4704      5F7400
 4705              	.LASF193:
 4706 0020 6872745F 		.ascii	"hrt_calendar\000"
 4706      63616C65 
 4706      6E646172 
 4706      00
 4707              	.LASF218:
 4708 002d 52656D6F 		.ascii	"RemotePublisher\000"
 4708      74655075 
 4708      626C6973 
 4708      68657200 
ARM GAS  /tmp/ccS7GqVD.s 			page 84


 4709              	.LASF131:
 4710 003d 5F726561 		.ascii	"_read\000"
 4710      6400
 4711              	.LASF242:
 4712 0043 5F5A4E35 		.ascii	"_ZN5RTcan8instanceEv\000"
 4712      52546361 
 4712      6E38696E 
 4712      7374616E 
 4712      63654576 
 4713              	.LASF173:
 4714 0058 72746361 		.ascii	"rtcanstate_t\000"
 4714      6E737461 
 4714      74655F74 
 4714      00
 4715              	.LASF82:
 4716 0065 5F746F70 		.ascii	"_topic\000"
 4716      696300
 4717              	.LASF130:
 4718 006c 5F777269 		.ascii	"_write\000"
 4718      746500
 4719              	.LASF233:
 4720 0073 52544341 		.ascii	"RTCAND1\000"
 4720      4E443100 
 4721              	.LASF8:
 4722 007b 696E7433 		.ascii	"int32_t\000"
 4722      325F7400 
 4723              	.LASF202:
 4724 0083 31315254 		.ascii	"11RTCANConfig\000"
 4724      43414E43 
 4724      6F6E6669 
 4724      6700
 4725              	.LASF222:
 4726 0091 62726F61 		.ascii	"broadcastI\000"
 4726      64636173 
 4726      744900
 4727              	.LASF135:
 4728 009c 73697A65 		.ascii	"sizeI\000"
 4728      4900
 4729              	.LASF241:
 4730 00a2 696E7374 		.ascii	"instance\000"
 4730      616E6365 
 4730      00
 4731              	.LASF87:
 4732 00ab 746F7069 		.ascii	"topic\000"
 4732      6300
 4733              	.LASF141:
 4734 00b1 70757449 		.ascii	"putI\000"
 4734      00
 4735              	.LASF103:
 4736 00b6 5F5A4E31 		.ascii	"_ZN13BasePublisher11unsubscribeEP15LocalSubscriber\000"
 4736      33426173 
 4736      65507562 
 4736      6C697368 
 4736      65723131 
 4737              	.LASF240:
 4738 00e9 5F696E73 		.ascii	"_instance\000"
 4738      74616E63 
ARM GAS  /tmp/ccS7GqVD.s 			page 85


 4738      6500
 4739              	.LASF236:
 4740 00f3 2F686F6D 		.ascii	"/home/tino/workspace/openrobots/R2P_IR_module/fw\000"
 4740      652F7469 
 4740      6E6F2F77 
 4740      6F726B73 
 4740      70616365 
 4741              	.LASF195:
 4742 0124 636F6E66 		.ascii	"config\000"
 4742      696700
 4743              	.LASF188:
 4744 012b 73746174 		.ascii	"state\000"
 4744      6500
 4745              	.LASF21:
 4746 0131 4D656D6F 		.ascii	"MemoryPool\000"
 4746      7279506F 
 4746      6F6C00
 4747              	.LASF145:
 4748 013c 5F736F75 		.ascii	"_source\000"
 4748      72636500 
 4749              	.LASF200:
 4750 0144 31346872 		.ascii	"14hrt_calendar_t\000"
 4750      745F6361 
 4750      6C656E64 
 4750      61725F74 
 4750      00
 4751              	.LASF142:
 4752 0155 5F5A4E31 		.ascii	"_ZN12MessageQueue4putIEP11BaseMessage\000"
 4752      324D6573 
 4752      73616765 
 4752      51756575 
 4752      65347075 
 4753              	.LASF166:
 4754 017b 52544341 		.ascii	"RTCAN_UNINIT\000"
 4754      4E5F554E 
 4754      494E4954 
 4754      00
 4755              	.LASF201:
 4756 0188 6872745F 		.ascii	"hrt_calendar_t\000"
 4756      63616C65 
 4756      6E646172 
 4756      5F7400
 4757              	.LASF75:
 4758 0197 444D4152 		.ascii	"DMAR\000"
 4758      00
 4759              	.LASF177:
 4760 019c 52544341 		.ascii	"RTCAN_MSG_BUSY\000"
 4760      4E5F4D53 
 4760      475F4255 
 4760      535900
 4761              	.LASF162:
 4762 01ab 63616C6C 		.ascii	"callback\000"
 4762      6261636B 
 4762      00
 4763              	.LASF150:
 4764 01b4 5F5A4E31 		.ascii	"_ZN14BaseSubscriber6sourceEv\000"
 4764      34426173 
ARM GAS  /tmp/ccS7GqVD.s 			page 86


 4764      65537562 
 4764      73637269 
 4764      62657236 
 4765              	.LASF167:
 4766 01d1 52544341 		.ascii	"RTCAN_STOP\000"
 4766      4E5F5354 
 4766      4F5000
 4767              	.LASF64:
 4768 01dc 43435231 		.ascii	"CCR1\000"
 4768      00
 4769              	.LASF66:
 4770 01e1 43435232 		.ascii	"CCR2\000"
 4770      00
 4771              	.LASF68:
 4772 01e6 43435233 		.ascii	"CCR3\000"
 4772      00
 4773              	.LASF70:
 4774 01eb 43435234 		.ascii	"CCR4\000"
 4774      00
 4775              	.LASF129:
 4776 01f0 5F746F70 		.ascii	"_top\000"
 4776      00
 4777              	.LASF33:
 4778 01f5 32364341 		.ascii	"26CAN_FilterRegister_TypeDef\000"
 4778      4E5F4669 
 4778      6C746572 
 4778      52656769 
 4778      73746572 
 4779              	.LASF181:
 4780 0212 52544341 		.ascii	"RTCAN_MSG_TIMEOUT\000"
 4780      4E5F4D53 
 4780      475F5449 
 4780      4D454F55 
 4780      5400
 4781              	.LASF186:
 4782 0224 6D736771 		.ascii	"msgqueue_t\000"
 4782      75657565 
 4782      5F7400
 4783              	.LASF128:
 4784 022f 5F627566 		.ascii	"_buffer\000"
 4784      66657200 
 4785              	.LASF192:
 4786 0237 66696C74 		.ascii	"filters\000"
 4786      65727300 
 4787              	.LASF9:
 4788 023f 6C6F6E67 		.ascii	"long int\000"
 4788      20696E74 
 4788      00
 4789              	.LASF105:
 4790 0248 52656D6F 		.ascii	"RemoteSubscriber\000"
 4790      74655375 
 4790      62736372 
 4790      69626572 
 4790      00
 4791              	.LASF47:
 4792 0259 46413152 		.ascii	"FA1R\000"
 4792      00
ARM GAS  /tmp/ccS7GqVD.s 			page 87


 4793              	.LASF126:
 4794 025e 5F5A4E31 		.ascii	"_ZN14LocalPublisher9subscribeEP16RemoteSubscriberPv"
 4794      344C6F63 
 4794      616C5075 
 4794      626C6973 
 4794      68657239 
 4795 0291 6A506D00 		.ascii	"jPm\000"
 4796              	.LASF118:
 4797 0295 5F5A4E31 		.ascii	"_ZN16RemoteSubscriber2idEt\000"
 4797      3652656D 
 4797      6F746553 
 4797      75627363 
 4797      72696265 
 4798              	.LASF119:
 4799 02b0 5F5A4E31 		.ascii	"_ZN16RemoteSubscriber2idEv\000"
 4799      3652656D 
 4799      6F746553 
 4799      75627363 
 4799      72696265 
 4800              	.LASF35:
 4801 02cb 52463052 		.ascii	"RF0R\000"
 4801      00
 4802              	.LASF238:
 4803 02d0 63686962 		.ascii	"chibios_rt\000"
 4803      696F735F 
 4803      727400
 4804              	.LASF1:
 4805 02db 7369676E 		.ascii	"signed char\000"
 4805      65642063 
 4805      68617200 
 4806              	.LASF3:
 4807 02e7 75696E74 		.ascii	"uint8_t\000"
 4807      385F7400 
 4808              	.LASF156:
 4809 02ef 5F5A4E31 		.ascii	"_ZN14BaseSubscriber4sizeEv\000"
 4809      34426173 
 4809      65537562 
 4809      73637269 
 4809      62657234 
 4810              	.LASF123:
 4811 030a 62726F61 		.ascii	"broadcast\000"
 4811      64636173 
 4811      7400
 4812              	.LASF120:
 4813 0314 4C6F6361 		.ascii	"LocalPublisher\000"
 4813      6C507562 
 4813      6C697368 
 4813      657200
 4814              	.LASF194:
 4815 0323 72657365 		.ascii	"reservation_mask\000"
 4815      72766174 
 4815      696F6E5F 
 4815      6D61736B 
 4815      00
 4816              	.LASF210:
 4817 0334 6F706572 		.ascii	"operator=\000"
 4817      61746F72 
ARM GAS  /tmp/ccS7GqVD.s 			page 88


 4817      3D00
 4818              	.LASF34:
 4819 033e 43414E5F 		.ascii	"CAN_FilterRegister_TypeDef\000"
 4819      46696C74 
 4819      65725265 
 4819      67697374 
 4819      65725F54 
 4820              	.LASF39:
 4821 0359 73464946 		.ascii	"sFIFOMailBox\000"
 4821      4F4D6169 
 4821      6C426F78 
 4821      00
 4822              	.LASF77:
 4823 0366 54494D5F 		.ascii	"TIM_TypeDef\000"
 4823      54797065 
 4823      44656600 
 4824              	.LASF37:
 4825 0372 52455345 		.ascii	"RESERVED0\000"
 4825      52564544 
 4825      3000
 4826              	.LASF40:
 4827 037c 52455345 		.ascii	"RESERVED1\000"
 4827      52564544 
 4827      3100
 4828              	.LASF4:
 4829 0386 756E7369 		.ascii	"unsigned char\000"
 4829      676E6564 
 4829      20636861 
 4829      7200
 4830              	.LASF44:
 4831 0394 52455345 		.ascii	"RESERVED3\000"
 4831      52564544 
 4831      3300
 4832              	.LASF46:
 4833 039e 52455345 		.ascii	"RESERVED4\000"
 4833      52564544 
 4833      3400
 4834              	.LASF48:
 4835 03a8 52455345 		.ascii	"RESERVED5\000"
 4835      52564544 
 4835      3500
 4836              	.LASF55:
 4837 03b2 52455345 		.ascii	"RESERVED6\000"
 4837      52564544 
 4837      3600
 4838              	.LASF57:
 4839 03bc 52455345 		.ascii	"RESERVED7\000"
 4839      52564544 
 4839      3700
 4840              	.LASF59:
 4841 03c6 52455345 		.ascii	"RESERVED8\000"
 4841      52564544 
 4841      3800
 4842              	.LASF60:
 4843 03d0 52455345 		.ascii	"RESERVED9\000"
 4843      52564544 
 4843      3900
ARM GAS  /tmp/ccS7GqVD.s 			page 89


 4844              	.LASF36:
 4845 03da 52463152 		.ascii	"RF1R\000"
 4845      00
 4846              	.LASF121:
 4847 03df 5F5A4E31 		.ascii	"_ZN14LocalPublisher4nextEv\000"
 4847      344C6F63 
 4847      616C5075 
 4847      626C6973 
 4847      68657234 
 4848              	.LASF197:
 4849 03fa 75706461 		.ascii	"update\000"
 4849      746500
 4850              	.LASF42:
 4851 0401 52455345 		.ascii	"RESERVED2\000"
 4851      52564544 
 4851      3200
 4852              	.LASF54:
 4853 040b 43434D52 		.ascii	"CCMR1\000"
 4853      3100
 4854              	.LASF56:
 4855 0411 43434D52 		.ascii	"CCMR2\000"
 4855      3200
 4856              	.LASF22:
 4857 0417 63686172 		.ascii	"char\000"
 4857      00
 4858              	.LASF138:
 4859 041c 5F5A4E31 		.ascii	"_ZN12MessageQueue4getIEv\000"
 4859      324D6573 
 4859      73616765 
 4859      51756575 
 4859      65346765 
 4860              	.LASF136:
 4861 0435 5F5A4E31 		.ascii	"_ZN12MessageQueue5sizeIEv\000"
 4861      324D6573 
 4861      73616765 
 4861      51756575 
 4861      65357369 
 4862              	.LASF147:
 4863 044f 616C6C6F 		.ascii	"alloc_flag\000"
 4863      635F666C 
 4863      616700
 4864              	.LASF213:
 4865 045a 5F5A4E35 		.ascii	"_ZN5RTcan4freeEP11rtcan_msg_t\000"
 4865      52546361 
 4865      6E346672 
 4865      65654550 
 4865      31317274 
 4866              	.LASF127:
 4867 0478 4D657373 		.ascii	"MessageQueue\000"
 4867      61676551 
 4867      75657565 
 4867      00
 4868              	.LASF239:
 4869 0485 4C6F6361 		.ascii	"LocalSubscriber\000"
 4869      6C537562 
 4869      73637269 
 4869      62657200 
ARM GAS  /tmp/ccS7GqVD.s 			page 90


 4870              	.LASF137:
 4871 0495 67657449 		.ascii	"getI\000"
 4871      00
 4872              	.LASF169:
 4873 049a 52544341 		.ascii	"RTCAN_ERROR\000"
 4873      4E5F4552 
 4873      524F5200 
 4874              	.LASF149:
 4875 04a6 736F7572 		.ascii	"source\000"
 4875      636500
 4876              	.LASF246:
 4877 04ad 5F474C4F 		.ascii	"_GLOBAL__sub_I__ZN5RTcan9_instanceE\000"
 4877      42414C5F 
 4877      5F737562 
 4877      5F495F5F 
 4877      5A4E3552 
 4878              	.LASF140:
 4879 04d1 5F5A4E31 		.ascii	"_ZN12MessageQueue3putEP11BaseMessage\000"
 4879      324D6573 
 4879      73616765 
 4879      51756575 
 4879      65337075 
 4880              	.LASF91:
 4881 04f6 5F5A4E31 		.ascii	"_ZN13BasePublisher5allocEv\000"
 4881      33426173 
 4881      65507562 
 4881      6C697368 
 4881      65723561 
 4882              	.LASF148:
 4883 0511 5F5A4E31 		.ascii	"_ZN14BaseSubscriber5topicEv\000"
 4883      34426173 
 4883      65537562 
 4883      73637269 
 4883      62657235 
 4884              	.LASF115:
 4885 052d 5F5A4E31 		.ascii	"_ZN16RemoteSubscriber6notifyEP11BaseMessageRi\000"
 4885      3652656D 
 4885      6F746553 
 4885      75627363 
 4885      72696265 
 4886              	.LASF172:
 4887 055b 52544341 		.ascii	"RTCAN_MASTER\000"
 4887      4E5F4D41 
 4887      53544552 
 4887      00
 4888              	.LASF183:
 4889 0568 72746361 		.ascii	"rtcan_msgstatus_t\000"
 4889      6E5F6D73 
 4889      67737461 
 4889      7475735F 
 4889      7400
 4890              	.LASF93:
 4891 057a 5F5A4E31 		.ascii	"_ZN13BasePublisher6allocIEv\000"
 4891      33426173 
 4891      65507562 
 4891      6C697368 
 4891      65723661 
ARM GAS  /tmp/ccS7GqVD.s 			page 91


 4892              	.LASF227:
 4893 0596 72746361 		.ascii	"rtcan_msg_p\000"
 4893      6E5F6D73 
 4893      675F7000 
 4894              	.LASF157:
 4895 05a2 72746361 		.ascii	"rtcan_msg_t\000"
 4895      6E5F6D73 
 4895      675F7400 
 4896              	.LASF176:
 4897 05ae 52544341 		.ascii	"RTCAN_MSG_UNINIT\000"
 4897      4E5F4D53 
 4897      475F554E 
 4897      494E4954 
 4897      00
 4898              	.LASF174:
 4899 05bf 31327274 		.ascii	"12rtcanstate_t\000"
 4899      63616E73 
 4899      74617465 
 4899      5F7400
 4900              	.LASF27:
 4901 05ce 32314341 		.ascii	"21CAN_TxMailBox_TypeDef\000"
 4901      4E5F5478 
 4901      4D61696C 
 4901      426F785F 
 4901      54797065 
 4902              	.LASF187:
 4903 05e6 52544341 		.ascii	"RTCANDriver\000"
 4903      4E447269 
 4903      76657200 
 4904              	.LASF215:
 4905 05f2 5F5A4E35 		.ascii	"_ZN5RTcan4sendEP16RemoteSubscriberP11BaseMessagei\000"
 4905      52546361 
 4905      6E347365 
 4905      6E644550 
 4905      31365265 
 4906              	.LASF229:
 4907 0624 5F5F7072 		.ascii	"__priority\000"
 4907      696F7269 
 4907      747900
 4908              	.LASF96:
 4909 062f 5F5A4E31 		.ascii	"_ZN13BasePublisher7releaseEP11BaseMessage\000"
 4909      33426173 
 4909      65507562 
 4909      6C697368 
 4909      65723772 
 4910              	.LASF11:
 4911 0659 6C6F6E67 		.ascii	"long unsigned int\000"
 4911      20756E73 
 4911      69676E65 
 4911      6420696E 
 4911      7400
 4912              	.LASF79:
 4913 066b 72656665 		.ascii	"reference\000"
 4913      72656E63 
 4913      6500
 4914              	.LASF161:
 4915 0675 73746174 		.ascii	"status\000"
ARM GAS  /tmp/ccS7GqVD.s 			page 92


 4915      757300
 4916              	.LASF53:
 4917 067c 44494552 		.ascii	"DIER\000"
 4917      00
 4918              	.LASF114:
 4919 0681 5F5A4E31 		.ascii	"_ZN16RemoteSubscriber6notifyEP11BaseMessage\000"
 4919      3652656D 
 4919      6F746553 
 4919      75627363 
 4919      72696265 
 4920              	.LASF28:
 4921 06ad 32334341 		.ascii	"23CAN_FIFOMailBox_TypeDef\000"
 4921      4E5F4649 
 4921      464F4D61 
 4921      696C426F 
 4921      785F5479 
 4922              	.LASF111:
 4923 06c7 6C696E6B 		.ascii	"link\000"
 4923      00
 4924              	.LASF231:
 4925 06cc 74686973 		.ascii	"this\000"
 4925      00
 4926              	.LASF243:
 4927 06d1 72786362 		.ascii	"rxcb\000"
 4927      00
 4928              	.LASF204:
 4929 06d6 636C6F63 		.ascii	"clock\000"
 4929      6B00
 4930              	.LASF143:
 4931 06dc 42617365 		.ascii	"BaseSubscriber\000"
 4931      53756273 
 4931      63726962 
 4931      657200
 4932              	.LASF158:
 4933 06eb 64656164 		.ascii	"deadline\000"
 4933      6C696E65 
 4933      00
 4934              	.LASF104:
 4935 06f4 706F6F6C 		.ascii	"pool_header\000"
 4935      5F686561 
 4935      64657200 
 4936              	.LASF184:
 4937 0700 31304D65 		.ascii	"10MemoryPool\000"
 4937      6D6F7279 
 4937      506F6F6C 
 4937      00
 4938              	.LASF228:
 4939 070d 5F5F696E 		.ascii	"__initialize_p\000"
 4939      69746961 
 4939      6C697A65 
 4939      5F7000
 4940              	.LASF207:
 4941 071c 52546361 		.ascii	"RTcan\000"
 4941      6E00
 4942              	.LASF84:
 4943 0722 5F72656D 		.ascii	"_remote_subscribers\000"
 4943      6F74655F 
ARM GAS  /tmp/ccS7GqVD.s 			page 93


 4943      73756273 
 4943      63726962 
 4943      65727300 
 4944              	.LASF214:
 4945 0736 73656E64 		.ascii	"send\000"
 4945      00
 4946              	.LASF216:
 4947 073b 73656E64 		.ascii	"sendcb\000"
 4947      636200
 4948              	.LASF85:
 4949 0742 5F706F6F 		.ascii	"_pool\000"
 4949      6C00
 4950              	.LASF80:
 4951 0748 42617365 		.ascii	"BasePublisher\000"
 4951      5075626C 
 4951      69736865 
 4951      7200
 4952              	.LASF12:
 4953 0756 6C6F6E67 		.ascii	"long long int\000"
 4953      206C6F6E 
 4953      6720696E 
 4953      7400
 4954              	.LASF223:
 4955 0764 5F5A4E31 		.ascii	"_ZN15RemotePublisher10broadcastIEP11BaseMessage\000"
 4955      3552656D 
 4955      6F746550 
 4955      75626C69 
 4955      73686572 
 4956              	.LASF17:
 4957 0794 70685F6E 		.ascii	"ph_next\000"
 4957      65787400 
 4958              	.LASF102:
 4959 079c 5F5A4E31 		.ascii	"_ZN11BaseMessage5resetEv\000"
 4959      31426173 
 4959      654D6573 
 4959      73616765 
 4959      35726573 
 4960              	.LASF232:
 4961 07b5 49544D5F 		.ascii	"ITM_RxBuffer\000"
 4961      52784275 
 4961      66666572 
 4961      00
 4962              	.LASF185:
 4963 07c2 31306D73 		.ascii	"10msgqueue_t\000"
 4963      67717565 
 4963      75655F74 
 4963      00
 4964              	.LASF90:
 4965 07cf 616C6C6F 		.ascii	"alloc\000"
 4965      6300
 4966              	.LASF235:
 4967 07d5 2E2E2F2E 		.ascii	"../../Middleware/transport/RTcan.cpp\000"
 4967      2E2F4D69 
 4967      64646C65 
 4967      77617265 
 4967      2F747261 
 4968              	.LASF0:
ARM GAS  /tmp/ccS7GqVD.s 			page 94


 4969 07fa 756E7369 		.ascii	"unsigned int\000"
 4969      676E6564 
 4969      20696E74 
 4969      00
 4970              	.LASF98:
 4971 0807 5F5A4E31 		.ascii	"_ZN13BasePublisher8releaseIEP11BaseMessage\000"
 4971      33426173 
 4971      65507562 
 4971      6C697368 
 4971      65723872 
 4972              	.LASF92:
 4973 0832 616C6C6F 		.ascii	"allocI\000"
 4973      634900
 4974              	.LASF175:
 4975 0839 31377274 		.ascii	"17rtcan_msgstatus_t\000"
 4975      63616E5F 
 4975      6D736773 
 4975      74617475 
 4975      735F7400 
 4976              	.LASF153:
 4977 084d 5F5A4E31 		.ascii	"_ZN14BaseSubscriber3getEv\000"
 4977      34426173 
 4977      65537562 
 4977      73637269 
 4977      62657233 
 4978              	.LASF41:
 4979 0867 464D3152 		.ascii	"FM1R\000"
 4979      00
 4980              	.LASF51:
 4981 086c 31315449 		.ascii	"11TIM_TypeDef\000"
 4981      4D5F5479 
 4981      70654465 
 4981      6600
 4982              	.LASF31:
 4983 087a 52444852 		.ascii	"RDHR\000"
 4983      00
 4984              	.LASF139:
 4985 087f 5F5A4E31 		.ascii	"_ZN12MessageQueue3getEv\000"
 4985      324D6573 
 4985      73616765 
 4985      51756575 
 4985      65336765 
 4986              	.LASF178:
 4987 0897 52544341 		.ascii	"RTCAN_MSG_READY\000"
 4987      4E5F4D53 
 4987      475F5245 
 4987      41445900 
 4988              	.LASF25:
 4989 08a7 54444852 		.ascii	"TDHR\000"
 4989      00
 4990              	.LASF144:
 4991 08ac 5F6D7367 		.ascii	"_msg_size\000"
 4991      5F73697A 
 4991      6500
 4992              	.LASF50:
 4993 08b6 43414E5F 		.ascii	"CAN_TypeDef\000"
 4993      54797065 
ARM GAS  /tmp/ccS7GqVD.s 			page 95


 4993      44656600 
 4994              	.LASF116:
 4995 08c2 73756273 		.ascii	"subscribe\000"
 4995      63726962 
 4995      6500
 4996              	.LASF110:
 4997 08cc 5F5A4E31 		.ascii	"_ZN16RemoteSubscriber4nextEPS_\000"
 4997      3652656D 
 4997      6F746553 
 4997      75627363 
 4997      72696265 
 4998              	.LASF208:
 4999 08eb 5F686561 		.ascii	"_header_buffer\000"
 4999      6465725F 
 4999      62756666 
 4999      657200
 5000              	.LASF247:
 5001 08fa 5F5A4E35 		.ascii	"_ZN5RTcan9_instanceE\000"
 5001      52546361 
 5001      6E395F69 
 5001      6E737461 
 5001      6E636545 
 5002              	.LASF15:
 5003 090f 626F6F6C 		.ascii	"bool\000"
 5003      00
 5004              	.LASF16:
 5005 0914 6D656D67 		.ascii	"memgetfunc_t\000"
 5005      65746675 
 5005      6E635F74 
 5005      00
 5006              	.LASF95:
 5007 0921 5F5A4E31 		.ascii	"_ZN11BaseMessage9referenceEv\000"
 5007      31426173 
 5007      654D6573 
 5007      73616765 
 5007      39726566 
 5008              	.LASF107:
 5009 093e 5F6E6578 		.ascii	"_next_notify\000"
 5009      745F6E6F 
 5009      74696679 
 5009      00
 5010              	.LASF132:
 5011 094b 5F636E74 		.ascii	"_cnt\000"
 5011      00
 5012              	.LASF206:
 5013 0950 52544341 		.ascii	"RTCANConfig\000"
 5013      4E436F6E 
 5013      66696700 
 5014              	.LASF217:
 5015 095c 5F5A4E35 		.ascii	"_ZN5RTcan6sendcbEP11rtcan_msg_t\000"
 5015      52546361 
 5015      6E367365 
 5015      6E646362 
 5015      45503131 
 5016              	.LASF165:
 5017 097c 72746361 		.ascii	"rtcan_msgcallback_t\000"
 5017      6E5F6D73 
ARM GAS  /tmp/ccS7GqVD.s 			page 96


 5017      6763616C 
 5017      6C626163 
 5017      6B5F7400 
 5018              	.LASF113:
 5019 0990 6E6F7469 		.ascii	"notify\000"
 5019      667900
 5020              	.LASF245:
 5021 0997 5F5F7374 		.ascii	"__static_initialization_and_destruction_0\000"
 5021      61746963 
 5021      5F696E69 
 5021      7469616C 
 5021      697A6174 
 5022              	.LASF133:
 5023 09c1 73697A65 		.ascii	"size\000"
 5023      00
 5024              	.LASF83:
 5025 09c6 5F737562 		.ascii	"_subscribers\000"
 5025      73637269 
 5025      62657273 
 5025      00
 5026              	.LASF89:
 5027 09d3 5F5A4E31 		.ascii	"_ZN13BasePublisher5topicEv\000"
 5027      33426173 
 5027      65507562 
 5027      6C697368 
 5027      65723574 
 5028              	.LASF13:
 5029 09ee 6C6F6E67 		.ascii	"long long unsigned int\000"
 5029      206C6F6E 
 5029      6720756E 
 5029      7369676E 
 5029      65642069 
 5030              	.LASF163:
 5031 0a05 70617261 		.ascii	"params\000"
 5031      6D7300
 5032              	.LASF168:
 5033 0a0c 52544341 		.ascii	"RTCAN_STARTING\000"
 5033      4E5F5354 
 5033      41525449 
 5033      4E4700
 5034              	.LASF6:
 5035 0a1b 75696E74 		.ascii	"uint16_t\000"
 5035      31365F74 
 5035      00
 5036              	.LASF100:
 5037 0a24 5F5A4E31 		.ascii	"_ZN13BasePublisher11unsubscribeEP16RemoteSubscriber"
 5037      33426173 
 5037      65507562 
 5037      6C697368 
 5037      65723131 
 5038 0a57 00       		.ascii	"\000"
 5039              	.LASF230:
 5040 0a58 6D73675F 		.ascii	"msg_p\000"
 5040      7000
 5041              	.LASF146:
 5042 0a5e 5F717565 		.ascii	"_queue\000"
 5042      756500
ARM GAS  /tmp/ccS7GqVD.s 			page 97


 5043              	.LASF61:
 5044 0a65 52455345 		.ascii	"RESERVED10\000"
 5044      52564544 
 5044      313000
 5045              	.LASF58:
 5046 0a70 43434552 		.ascii	"CCER\000"
 5046      00
 5047              	.LASF63:
 5048 0a75 52455345 		.ascii	"RESERVED12\000"
 5048      52564544 
 5048      313200
 5049              	.LASF65:
 5050 0a80 52455345 		.ascii	"RESERVED13\000"
 5050      52564544 
 5050      313300
 5051              	.LASF67:
 5052 0a8b 52455345 		.ascii	"RESERVED14\000"
 5052      52564544 
 5052      313400
 5053              	.LASF69:
 5054 0a96 52455345 		.ascii	"RESERVED15\000"
 5054      52564544 
 5054      313500
 5055              	.LASF71:
 5056 0aa1 52455345 		.ascii	"RESERVED16\000"
 5056      52564544 
 5056      313600
 5057              	.LASF73:
 5058 0aac 52455345 		.ascii	"RESERVED17\000"
 5058      52564544 
 5058      313700
 5059              	.LASF74:
 5060 0ab7 52455345 		.ascii	"RESERVED18\000"
 5060      52564544 
 5060      313800
 5061              	.LASF76:
 5062 0ac2 52455345 		.ascii	"RESERVED19\000"
 5062      52564544 
 5062      313900
 5063              	.LASF30:
 5064 0acd 52444C52 		.ascii	"RDLR\000"
 5064      00
 5065              	.LASF32:
 5066 0ad2 43414E5F 		.ascii	"CAN_FIFOMailBox_TypeDef\000"
 5066      4649464F 
 5066      4D61696C 
 5066      426F785F 
 5066      54797065 
 5067              	.LASF209:
 5068 0aea 5F686561 		.ascii	"_header_pool\000"
 5068      6465725F 
 5068      706F6F6C 
 5068      00
 5069              	.LASF24:
 5070 0af7 54444C52 		.ascii	"TDLR\000"
 5070      00
 5071              	.LASF52:
ARM GAS  /tmp/ccS7GqVD.s 			page 98


 5072 0afc 534D4352 		.ascii	"SMCR\000"
 5072      00
 5073              	.LASF160:
 5074 0b01 70657269 		.ascii	"period\000"
 5074      6F6400
 5075              	.LASF179:
 5076 0b08 52544341 		.ascii	"RTCAN_MSG_QUEUED\000"
 5076      4E5F4D53 
 5076      475F5155 
 5076      45554544 
 5076      00
 5077              	.LASF97:
 5078 0b19 72656C65 		.ascii	"releaseI\000"
 5078      61736549 
 5078      00
 5079              	.LASF221:
 5080 0b22 5F5A4E31 		.ascii	"_ZN15RemotePublisher4nextEPS_\000"
 5080      3552656D 
 5080      6F746550 
 5080      75626C69 
 5080      73686572 
 5081              	.LASF180:
 5082 0b40 52544341 		.ascii	"RTCAN_MSG_ONAIR\000"
 5082      4E5F4D53 
 5082      475F4F4E 
 5082      41495200 
 5083              	.LASF106:
 5084 0b50 5F6E6578 		.ascii	"_next\000"
 5084      7400
 5085              	.LASF49:
 5086 0b56 7346696C 		.ascii	"sFilterRegister\000"
 5086      74657252 
 5086      65676973 
 5086      74657200 
 5087              	.LASF154:
 5088 0b66 5F5A4E31 		.ascii	"_ZN14BaseSubscriber7releaseEP11BaseMessage\000"
 5088      34426173 
 5088      65537562 
 5088      73637269 
 5088      62657237 
 5089              	.LASF43:
 5090 0b91 46533152 		.ascii	"FS1R\000"
 5090      00
 5091              	.LASF101:
 5092 0b96 72657365 		.ascii	"reset\000"
 5092      7400
 5093              	.LASF196:
 5094 0b9c 6872745F 		.ascii	"hrt_msg_t\000"
 5094      6D73675F 
 5094      7400
 5095              	.LASF220:
 5096 0ba6 5F5A4E31 		.ascii	"_ZN15RemotePublisher4nextEv\000"
 5096      3552656D 
 5096      6F746550 
 5096      75626C69 
 5096      73686572 
 5097              	.LASF81:
ARM GAS  /tmp/ccS7GqVD.s 			page 99


 5098 0bc2 5F726566 		.ascii	"_ref_count\000"
 5098      5F636F75 
 5098      6E7400
 5099              	.LASF125:
 5100 0bcd 5F5A4E31 		.ascii	"_ZN14LocalPublisher9subscribeEP15LocalSubscriberPvj"
 5100      344C6F63 
 5100      616C5075 
 5100      626C6973 
 5100      68657239 
 5101 0c00 506D00   		.ascii	"Pm\000"
 5102              	.LASF78:
 5103 0c03 42617365 		.ascii	"BaseMessage\000"
 5103      4D657373 
 5103      61676500 
 5104              	.LASF109:
 5105 0c0f 5F5A4E31 		.ascii	"_ZN16RemoteSubscriber4nextEv\000"
 5105      3652656D 
 5105      6F746553 
 5105      75627363 
 5105      72696265 
 5106              	.LASF26:
 5107 0c2c 43414E5F 		.ascii	"CAN_TxMailBox_TypeDef\000"
 5107      54784D61 
 5107      696C426F 
 5107      785F5479 
 5107      70654465 
 5108              	.LASF112:
 5109 0c42 5F5A4E31 		.ascii	"_ZN16RemoteSubscriber4linkEPS_\000"
 5109      3652656D 
 5109      6F746553 
 5109      75627363 
 5109      72696265 
 5110              	.LASF5:
 5111 0c61 73686F72 		.ascii	"short int\000"
 5111      7420696E 
 5111      7400
 5112              	.LASF99:
 5113 0c6b 756E7375 		.ascii	"unsubscribe\000"
 5113      62736372 
 5113      69626500 
 5114              	.LASF45:
 5115 0c77 46464131 		.ascii	"FFA1R\000"
 5115      5200
 5116              	.LASF219:
 5117 0c7d 5F727463 		.ascii	"_rtcan_msg\000"
 5117      616E5F6D 
 5117      736700
 5118              	.LASF117:
 5119 0c88 5F5A4E31 		.ascii	"_ZN16RemoteSubscriber9subscribeEP14LocalPublisher\000"
 5119      3652656D 
 5119      6F746553 
 5119      75627363 
 5119      72696265 
 5120              	.LASF14:
 5121 0cba 626F6F6C 		.ascii	"bool_t\000"
 5121      5F7400
 5122              	.LASF170:
ARM GAS  /tmp/ccS7GqVD.s 			page 100


 5123 0cc1 52544341 		.ascii	"RTCAN_SYNCING\000"
 5123      4E5F5359 
 5123      4E43494E 
 5123      4700
 5124              	.LASF205:
 5125 0ccf 736C6F74 		.ascii	"slots\000"
 5125      7300
 5126              	.LASF203:
 5127 0cd5 62617564 		.ascii	"baudrate\000"
 5127      72617465 
 5127      00
 5128              	.LASF122:
 5129 0cde 5F5A4E31 		.ascii	"_ZN14LocalPublisher4nextEPS_\000"
 5129      344C6F63 
 5129      616C5075 
 5129      626C6973 
 5129      68657234 
 5130              	.LASF224:
 5131 0cfb 5F5A4E31 		.ascii	"_ZN15RemotePublisher9subscribeEP15LocalSubscriberPv"
 5131      3552656D 
 5131      6F746550 
 5131      75626C69 
 5131      73686572 
 5132 0d2e 6A506D00 		.ascii	"jPm\000"
 5133              	.LASF19:
 5134 0d32 6D705F6F 		.ascii	"mp_object_size\000"
 5134      626A6563 
 5134      745F7369 
 5134      7A6500
 5135              	.LASF86:
 5136 0d41 64657265 		.ascii	"dereference\000"
 5136      66657265 
 5136      6E636500 
 5137              	.LASF199:
 5138 0d4d 6872745F 		.ascii	"hrt_updatecb_t\000"
 5138      75706461 
 5138      74656362 
 5138      5F7400
 5139              	.LASF244:
 5140 0d5c 5F5A4E35 		.ascii	"_ZN5RTcan4rxcbEP11rtcan_msg_t\000"
 5140      52546361 
 5140      6E347278 
 5140      63624550 
 5140      31317274 
 5141              	.LASF171:
 5142 0d7a 52544341 		.ascii	"RTCAN_SLAVE\000"
 5142      4E5F534C 
 5142      41564500 
 5143              	.LASF189:
 5144 0d86 6379636C 		.ascii	"cycle\000"
 5144      6500
 5145              	.LASF72:
 5146 0d8c 42445452 		.ascii	"BDTR\000"
 5146      00
 5147              	.LASF225:
 5148 0d91 5F5A4E31 		.ascii	"_ZN15RemotePublisher2idEt\000"
 5148      3552656D 
ARM GAS  /tmp/ccS7GqVD.s 			page 101


 5148      6F746550 
 5148      75626C69 
 5148      73686572 
 5149              	.LASF226:
 5150 0dab 5F5A4E31 		.ascii	"_ZN15RemotePublisher2idEv\000"
 5150      3552656D 
 5150      6F746550 
 5150      75626C69 
 5150      73686572 
 5151              	.LASF10:
 5152 0dc5 75696E74 		.ascii	"uint32_t\000"
 5152      33325F74 
 5152      00
 5153              	.LASF211:
 5154 0dce 5F5A4E35 		.ascii	"_ZN5RTcanaSERKS_\000"
 5154      52546361 
 5154      6E615345 
 5154      524B535F 
 5154      00
 5155              	.LASF88:
 5156 0ddf 5F5A4E31 		.ascii	"_ZN11BaseMessage11dereferenceEv\000"
 5156      31426173 
 5156      654D6573 
 5156      73616765 
 5156      31316465 
 5157              	.LASF124:
 5158 0dff 5F5A4E31 		.ascii	"_ZN14LocalPublisher9broadcastEP11BaseMessage\000"
 5158      344C6F63 
 5158      616C5075 
 5158      626C6973 
 5158      68657239 
 5159              	.LASF94:
 5160 0e2c 72656C65 		.ascii	"release\000"
 5160      61736500 
 5161              	.LASF212:
 5162 0e34 66726565 		.ascii	"free\000"
 5162      00
 5163              	.LASF7:
 5164 0e39 73686F72 		.ascii	"short unsigned int\000"
 5164      7420756E 
 5164      7369676E 
 5164      65642069 
 5164      6E7400
 5165              	.LASF190:
 5166 0e4c 7372745F 		.ascii	"srt_queue\000"
 5166      71756575 
 5166      6500
 5167              	.LASF159:
 5168 0e56 736C6F74 		.ascii	"slot\000"
 5168      00
 5169              	.LASF62:
 5170 0e5b 52455345 		.ascii	"RESERVED11\000"
 5170      52564544 
 5170      313100
 5171              	.LASF38:
 5172 0e66 7354784D 		.ascii	"sTxMailBox\000"
 5172      61696C42 
ARM GAS  /tmp/ccS7GqVD.s 			page 102


 5172      6F7800
 5173              	.LASF198:
 5174 0e71 66726167 		.ascii	"fragment\000"
 5174      6D656E74 
 5174      00
 5175              	.LASF18:
 5176 0e7a 6D705F6E 		.ascii	"mp_next\000"
 5176      65787400 
 5177              	.LASF155:
 5178 0e82 5F5A4E31 		.ascii	"_ZN14BaseSubscriber8releaseIEP11BaseMessage\000"
 5178      34426173 
 5178      65537562 
 5178      73637269 
 5178      62657238 
 5179              	.LASF182:
 5180 0eae 52544341 		.ascii	"RTCAN_MSG_ERROR\000"
 5180      4E5F4D53 
 5180      475F4552 
 5180      524F5200 
 5181              	.LASF237:
 5182 0ebe 31314341 		.ascii	"11CAN_TypeDef\000"
 5182      4E5F5479 
 5182      70654465 
 5182      6600
 5183              	.LASF108:
 5184 0ecc 6E657874 		.ascii	"next\000"
 5184      00
 5185              	.LASF152:
 5186 0ed1 5F5A4E31 		.ascii	"_ZN14BaseSubscriber4lastEv\000"
 5186      34426173 
 5186      65537562 
 5186      73637269 
 5186      62657234 
 5187              	.LASF164:
 5188 0eec 64617461 		.ascii	"data\000"
 5188      00
 5189              	.LASF29:
 5190 0ef1 52445452 		.ascii	"RDTR\000"
 5190      00
 5191              	.LASF20:
 5192 0ef6 6D705F70 		.ascii	"mp_provider\000"
 5192      726F7669 
 5192      64657200 
 5193              	.LASF191:
 5194 0f02 6F6E6169 		.ascii	"onair\000"
 5194      7200
 5195              	.LASF23:
 5196 0f08 54445452 		.ascii	"TDTR\000"
 5196      00
 5197              	.LASF234:
 5198 0f0d 474E5520 		.ascii	"GNU C++ 4.6.2 20120613 (release) [ARM/embedded-4_6-"
 5198      432B2B20 
 5198      342E362E 
 5198      32203230 
 5198      31323036 
 5199 0f40 6272616E 		.ascii	"branch revision 188521]\000"
 5199      63682072 
ARM GAS  /tmp/ccS7GqVD.s 			page 103


 5199      65766973 
 5199      696F6E20 
 5199      31383835 
 5200              	.LASF151:
 5201 0f58 6C617374 		.ascii	"last\000"
 5201      00
 5202              		.ident	"GCC: (GNU Tools for ARM Embedded Processors) 4.6.2 20120613 (release) [ARM/embedded-4_6-br
ARM GAS  /tmp/ccS7GqVD.s 			page 104


DEFINED SYMBOLS
                            *ABS*:00000000 RTcan.cpp
     /tmp/ccS7GqVD.s:19     .text._ZN5RTcan6sendcbEP11rtcan_msg_t:00000000 $t
     /tmp/ccS7GqVD.s:25     .text._ZN5RTcan6sendcbEP11rtcan_msg_t:00000000 _ZN5RTcan6sendcbEP11rtcan_msg_t
     /tmp/ccS7GqVD.s:72     .text._ZN5RTcan6sendcbEP11rtcan_msg_t:00000020 $d
     /tmp/ccS7GqVD.s:80     .text._ZN5RTcanC2Ev:00000000 $t
     /tmp/ccS7GqVD.s:86     .text._ZN5RTcanC2Ev:00000000 _ZN5RTcanC2Ev
     /tmp/ccS7GqVD.s:126    .text._ZN5RTcan8instanceEv:00000000 $t
     /tmp/ccS7GqVD.s:132    .text._ZN5RTcan8instanceEv:00000000 _ZN5RTcan8instanceEv
     /tmp/ccS7GqVD.s:331    .bss._ZN5RTcan9_instanceE:00000000 .LANCHOR0
     /tmp/ccS7GqVD.s:148    .text._ZN5RTcan4freeEP11rtcan_msg_t:00000000 $t
     /tmp/ccS7GqVD.s:154    .text._ZN5RTcan4freeEP11rtcan_msg_t:00000000 _ZN5RTcan4freeEP11rtcan_msg_t
     /tmp/ccS7GqVD.s:174    .text._ZN5RTcan4sendEP16RemoteSubscriberP11BaseMessagei:00000000 $t
     /tmp/ccS7GqVD.s:180    .text._ZN5RTcan4sendEP16RemoteSubscriberP11BaseMessagei:00000000 _ZN5RTcan4sendEP16RemoteSubscriberP11BaseMessagei
     /tmp/ccS7GqVD.s:255    .text._ZN5RTcan4sendEP16RemoteSubscriberP11BaseMessagei:00000048 $d
     /tmp/ccS7GqVD.s:261    .text._ZN5RTcan4rxcbEP11rtcan_msg_t:00000000 $t
     /tmp/ccS7GqVD.s:267    .text._ZN5RTcan4rxcbEP11rtcan_msg_t:00000000 _ZN5RTcan4rxcbEP11rtcan_msg_t
     /tmp/ccS7GqVD.s:293    .text.startup._GLOBAL__sub_I__ZN5RTcan9_instanceE:00000000 $t
     /tmp/ccS7GqVD.s:298    .text.startup._GLOBAL__sub_I__ZN5RTcan9_instanceE:00000000 _GLOBAL__sub_I__ZN5RTcan9_instanceE
     /tmp/ccS7GqVD.s:86     .text._ZN5RTcanC2Ev:00000000 _ZN5RTcanC1Ev
     /tmp/ccS7GqVD.s:324    .init_array:00000000 $d
     /tmp/ccS7GqVD.s:334    .bss._ZN5RTcan9_instanceE:00000000 _ZN5RTcan9_instanceE
     /tmp/ccS7GqVD.s:330    .bss._ZN5RTcan9_instanceE:00000000 $d
                     .debug_frame:00000010 $d
     /tmp/ccS7GqVD.s:79     .text._ZN5RTcan6sendcbEP11rtcan_msg_t:00000024 $t

UNDEFINED SYMBOLS
_ZN14BaseSubscriber8releaseIEP11BaseMessage
chPoolFreeI
chPoolInit
chPoolLoadArray
chPoolAllocI
_ZN16RemoteSubscriber2idEv
rtcanTransmitI
RTCAND1
_ZN15RemotePublisher10broadcastIEP11BaseMessage
