ARM GAS  /tmp/ccQucLyg.s 			page 1


   1              		.syntax unified
   2              		.cpu cortex-m3
   3              		.fpu softvfp
   4              		.eabi_attribute 20, 1
   5              		.eabi_attribute 21, 1
   6              		.eabi_attribute 23, 3
   7              		.eabi_attribute 24, 1
   8              		.eabi_attribute 25, 1
   9              		.eabi_attribute 26, 1
  10              		.eabi_attribute 30, 2
  11              		.eabi_attribute 34, 1
  12              		.eabi_attribute 18, 4
  13              		.thumb
  14              		.file	"rtcan_lld_tim.c"
  15              		.text
  16              	.Ltext0:
  17              		.cfi_sections	.debug_frame
  18              		.section	.text.VectorB4,"ax",%progbits
  19              		.align	2
  20              		.p2align 4,,15
  21              		.global	VectorB4
  22              		.thumb
  23              		.thumb_func
  24              		.type	VectorB4, %function
  25              	VectorB4:
  26              	.LFB63:
  27              		.file 1 "../../RTCAN/platforms/STM32/rtcan_lld_tim.c"
  28              		.loc 1 40 0
  29              		.cfi_startproc
  30              		@ args = 0, pretend = 0, frame = 0
  31              		@ frame_needed = 0, uses_anonymous_args = 0
  32 0000 08B5     		push	{r3, lr}
  33              	.LCFI0:
  34              		.cfi_def_cfa_offset 8
  35              		.cfi_offset 14, -4
  36              		.cfi_offset 3, -8
  37              		.loc 1 42 0
  38 0002 FFF7FEFF 		bl	dbg_check_enter_isr
  39              		.loc 1 44 0
  40 0006 4FF48063 		mov	r3, #1024
  41 000a C4F20003 		movt	r3, 16384
  42 000e 0022     		movs	r2, #0
  43              		.loc 1 45 0
  44 0010 40F20000 		movw	r0, #:lower16:RTCAND1
  45 0014 C0F20000 		movt	r0, #:upper16:RTCAND1
  46              		.loc 1 44 0
  47 0018 1A82     		strh	r2, [r3, #16]	@ movhi
  48              		.loc 1 45 0
  49 001a FFF7FEFF 		bl	rtcan_tim_isr_code
  50              		.loc 1 47 0
  51 001e FFF7FEFF 		bl	dbg_check_leave_isr
  52              		.loc 1 48 0
  53 0022 BDE80840 		pop	{r3, lr}
  54              		.loc 1 47 0
  55 0026 FFF7FEBF 		b	_port_irq_epilogue
  56              		.cfi_endproc
  57              	.LFE63:
ARM GAS  /tmp/ccQucLyg.s 			page 2


  58              		.size	VectorB4, .-VectorB4
  59 002a 00BFAFF3 		.section	.text.rtcan_lld_tim_init,"ax",%progbits
  59      0080
  60              		.align	2
  61              		.p2align 4,,15
  62              		.global	rtcan_lld_tim_init
  63              		.thumb
  64              		.thumb_func
  65              		.type	rtcan_lld_tim_init, %function
  66              	rtcan_lld_tim_init:
  67              	.LFB64:
  68              		.loc 1 59 0
  69              		.cfi_startproc
  70              		@ args = 0, pretend = 0, frame = 0
  71              		@ frame_needed = 0, uses_anonymous_args = 0
  72              		@ link register save eliminated.
  73              		.loc 1 62 0
  74 0000 40F20003 		movw	r3, #:lower16:RTCAND1
  75 0004 4FF48062 		mov	r2, #1024
  76 0008 C0F20003 		movt	r3, #:upper16:RTCAND1
  77 000c C4F20002 		movt	r2, 16384
  78 0010 5A66     		str	r2, [r3, #100]
  79              		.loc 1 68 0
  80 0012 7047     		bx	lr
  81              		.cfi_endproc
  82              	.LFE64:
  83              		.size	rtcan_lld_tim_init, .-rtcan_lld_tim_init
  84 0014 AFF30080 		.section	.text.rtcan_lld_tim_start,"ax",%progbits
  84      AFF30080 
  84      AFF30080 
  85              		.align	2
  86              		.p2align 4,,15
  87              		.global	rtcan_lld_tim_start
  88              		.thumb
  89              		.thumb_func
  90              		.type	rtcan_lld_tim_start, %function
  91              	rtcan_lld_tim_start:
  92              	.LFB65:
  93              		.loc 1 77 0
  94              		.cfi_startproc
  95              		@ args = 0, pretend = 0, frame = 0
  96              		@ frame_needed = 0, uses_anonymous_args = 0
  97              	.LVL0:
  98 0000 70B5     		push	{r4, r5, r6, lr}
  99              	.LCFI1:
 100              		.cfi_def_cfa_offset 16
 101              		.cfi_offset 14, -4
 102              		.cfi_offset 6, -8
 103              		.cfi_offset 5, -12
 104              		.cfi_offset 4, -16
 105              		.loc 1 85 0
 106 0002 4FF4805E 		mov	lr, #4096
 107 0006 C4F2020E 		movt	lr, 16386
 108 000a DEF81C40 		ldr	r4, [lr, #28]
 109              		.loc 1 77 0
 110 000e 0646     		mov	r6, r0
 111              		.loc 1 85 0
ARM GAS  /tmp/ccQucLyg.s 			page 3


 112 0010 44F00205 		orr	r5, r4, #2
 113              		.loc 1 78 0
 114 0014 446E     		ldr	r4, [r0, #100]
 115              	.LVL1:
 116              		.loc 1 85 0
 117 0016 CEF81C50 		str	r5, [lr, #28]
 118              		.loc 1 86 0
 119 001a DEF81010 		ldr	r1, [lr, #16]
 120 001e 0025     		movs	r5, #0
 121 0020 41F00200 		orr	r0, r1, #2
 122              	.LVL2:
 123 0024 CEF81000 		str	r0, [lr, #16]
 124              		.loc 1 87 0
 125 0028 3021     		movs	r1, #48
 126 002a 1D20     		movs	r0, #29
 127              		.loc 1 86 0
 128 002c CEF81050 		str	r5, [lr, #16]
 129              		.loc 1 87 0
 130 0030 FFF7FEFF 		bl	nvicEnableVector
 131              	.LVL3:
 132              		.loc 1 100 0
 133 0034 336E     		ldr	r3, [r6, #96]
 134 0036 4FF4224C 		mov	ip, #41472
 135 003a 1A68     		ldr	r2, [r3, #0]
 136 003c C0F24A4C 		movt	ip, 1098
 137 0040 BCFBF2F1 		udiv	r1, ip, r2
 138 0044 481E     		subs	r0, r1, #1
 139 0046 83B2     		uxth	r3, r0
 140              	.LVL4:
 141              		.loc 1 103 0
 142 0048 2580     		strh	r5, [r4, #0]	@ movhi
 143              		.loc 1 104 0
 144 004a 2385     		strh	r3, [r4, #40]	@ movhi
 145              		.loc 1 105 0
 146 004c A581     		strh	r5, [r4, #12]	@ movhi
 147              		.loc 1 106 0
 148 004e 70BD     		pop	{r4, r5, r6, pc}
 149              		.cfi_endproc
 150              	.LFE65:
 151              		.size	rtcan_lld_tim_start, .-rtcan_lld_tim_start
 152              		.section	.text.rtcan_lld_tim_stop,"ax",%progbits
 153              		.align	2
 154              		.p2align 4,,15
 155              		.global	rtcan_lld_tim_stop
 156              		.thumb
 157              		.thumb_func
 158              		.type	rtcan_lld_tim_stop, %function
 159              	rtcan_lld_tim_stop:
 160              	.LFB66:
 161              		.loc 1 115 0
 162              		.cfi_startproc
 163              		@ args = 0, pretend = 0, frame = 0
 164              		@ frame_needed = 0, uses_anonymous_args = 0
 165              	.LVL5:
 166              		.loc 1 116 0
 167 0000 426E     		ldr	r2, [r0, #100]
 168              	.LVL6:
ARM GAS  /tmp/ccQucLyg.s 			page 4


 169              		.loc 1 118 0
 170 0002 0021     		movs	r1, #0
 171              		.loc 1 115 0
 172 0004 08B5     		push	{r3, lr}
 173              	.LCFI2:
 174              		.cfi_def_cfa_offset 8
 175              		.cfi_offset 14, -4
 176              		.cfi_offset 3, -8
 177              		.loc 1 125 0
 178 0006 1D20     		movs	r0, #29
 179              	.LVL7:
 180              		.loc 1 118 0
 181 0008 1180     		strh	r1, [r2, #0]	@ movhi
 182              		.loc 1 119 0
 183 000a 9181     		strh	r1, [r2, #12]	@ movhi
 184              		.loc 1 120 0
 185 000c 1182     		strh	r1, [r2, #16]	@ movhi
 186              		.loc 1 125 0
 187 000e FFF7FEFF 		bl	nvicDisableVector
 188              	.LVL8:
 189              		.loc 1 126 0
 190 0012 4FF48053 		mov	r3, #4096
 191 0016 C4F20203 		movt	r3, 16386
 192 001a D869     		ldr	r0, [r3, #28]
 193 001c 20F00202 		bic	r2, r0, #2
 194 0020 DA61     		str	r2, [r3, #28]
 195              		.loc 1 133 0
 196 0022 08BD     		pop	{r3, pc}
 197              		.cfi_endproc
 198              	.LFE66:
 199              		.size	rtcan_lld_tim_stop, .-rtcan_lld_tim_stop
 200 0024 AFF30080 		.section	.text.rtcan_lld_tim_start_timer,"ax",%progbits
 200      AFF30080 
 200      AFF30080 
 201              		.align	2
 202              		.p2align 4,,15
 203              		.global	rtcan_lld_tim_start_timer
 204              		.thumb
 205              		.thumb_func
 206              		.type	rtcan_lld_tim_start_timer, %function
 207              	rtcan_lld_tim_start_timer:
 208              	.LFB67:
 209              		.loc 1 143 0
 210              		.cfi_startproc
 211              		@ args = 0, pretend = 0, frame = 0
 212              		@ frame_needed = 0, uses_anonymous_args = 0
 213              		@ link register save eliminated.
 214              	.LVL9:
 215              		.loc 1 144 0
 216 0000 436E     		ldr	r3, [r0, #100]
 217              	.LVL10:
 218              		.loc 1 146 0
 219 0002 0021     		movs	r1, #0
 220              		.loc 1 145 0
 221 0004 0120     		movs	r0, #1
 222              	.LVL11:
 223              		.loc 1 149 0
ARM GAS  /tmp/ccQucLyg.s 			page 5


 224 0006 0522     		movs	r2, #5
 225              		.loc 1 145 0
 226 0008 9882     		strh	r0, [r3, #20]	@ movhi
 227              		.loc 1 146 0
 228 000a 9984     		strh	r1, [r3, #36]	@ movhi
 229              		.loc 1 147 0
 230 000c 1982     		strh	r1, [r3, #16]	@ movhi
 231              		.loc 1 148 0
 232 000e 9881     		strh	r0, [r3, #12]	@ movhi
 233              		.loc 1 149 0
 234 0010 1A80     		strh	r2, [r3, #0]	@ movhi
 235              		.loc 1 150 0
 236 0012 7047     		bx	lr
 237              		.cfi_endproc
 238              	.LFE67:
 239              		.size	rtcan_lld_tim_start_timer, .-rtcan_lld_tim_start_timer
 240 0014 AFF30080 		.section	.text.rtcan_lld_tim_stop_timer,"ax",%progbits
 240      AFF30080 
 240      AFF30080 
 241              		.align	2
 242              		.p2align 4,,15
 243              		.global	rtcan_lld_tim_stop_timer
 244              		.thumb
 245              		.thumb_func
 246              		.type	rtcan_lld_tim_stop_timer, %function
 247              	rtcan_lld_tim_stop_timer:
 248              	.LFB68:
 249              		.loc 1 159 0
 250              		.cfi_startproc
 251              		@ args = 0, pretend = 0, frame = 0
 252              		@ frame_needed = 0, uses_anonymous_args = 0
 253              		@ link register save eliminated.
 254              	.LVL12:
 255              		.loc 1 160 0
 256 0000 436E     		ldr	r3, [r0, #100]
 257              	.LVL13:
 258              		.loc 1 162 0
 259 0002 0022     		movs	r2, #0
 260 0004 1A80     		strh	r2, [r3, #0]	@ movhi
 261              		.loc 1 163 0
 262 0006 1A82     		strh	r2, [r3, #16]	@ movhi
 263              		.loc 1 164 0
 264 0008 9A81     		strh	r2, [r3, #12]	@ movhi
 265              		.loc 1 165 0
 266 000a 7047     		bx	lr
 267              		.cfi_endproc
 268              	.LFE68:
 269              		.size	rtcan_lld_tim_stop_timer, .-rtcan_lld_tim_stop_timer
 270 000c AFF30080 		.section	.text.rtcan_lld_tim_set_interval,"ax",%progbits
 271              		.align	2
 272              		.p2align 4,,15
 273              		.global	rtcan_lld_tim_set_interval
 274              		.thumb
 275              		.thumb_func
 276              		.type	rtcan_lld_tim_set_interval, %function
 277              	rtcan_lld_tim_set_interval:
 278              	.LFB69:
ARM GAS  /tmp/ccQucLyg.s 			page 6


 279              		.loc 1 168 0
 280              		.cfi_startproc
 281              		@ args = 0, pretend = 0, frame = 0
 282              		@ frame_needed = 0, uses_anonymous_args = 0
 283              		@ link register save eliminated.
 284              	.LVL14:
 285              		.loc 1 169 0
 286 0000 436E     		ldr	r3, [r0, #100]
 287              	.LVL15:
 288              		.loc 1 171 0
 289 0002 481E     		subs	r0, r1, #1
 290              	.LVL16:
 291 0004 81B2     		uxth	r1, r0
 292              	.LVL17:
 293 0006 9985     		strh	r1, [r3, #44]	@ movhi
 294              		.loc 1 172 0
 295 0008 7047     		bx	lr
 296              		.cfi_endproc
 297              	.LFE69:
 298              		.size	rtcan_lld_tim_set_interval, .-rtcan_lld_tim_set_interval
 299 000a 00BFAFF3 		.section	.text.rtcan_lld_tim_get_interval,"ax",%progbits
 299      0080
 300              		.align	2
 301              		.p2align 4,,15
 302              		.global	rtcan_lld_tim_get_interval
 303              		.thumb
 304              		.thumb_func
 305              		.type	rtcan_lld_tim_get_interval, %function
 306              	rtcan_lld_tim_get_interval:
 307              	.LFB70:
 308              		.loc 1 175 0
 309              		.cfi_startproc
 310              		@ args = 0, pretend = 0, frame = 0
 311              		@ frame_needed = 0, uses_anonymous_args = 0
 312              		@ link register save eliminated.
 313              	.LVL18:
 314              		.loc 1 176 0
 315 0000 436E     		ldr	r3, [r0, #100]
 316              	.LVL19:
 317              		.loc 1 178 0
 318 0002 998D     		ldrh	r1, [r3, #44]
 319 0004 481C     		adds	r0, r1, #1
 320              	.LVL20:
 321 0006 80B2     		uxth	r0, r0
 322              		.loc 1 179 0
 323 0008 7047     		bx	lr
 324              		.cfi_endproc
 325              	.LFE70:
 326              		.size	rtcan_lld_tim_get_interval, .-rtcan_lld_tim_get_interval
 327 000a 00BFAFF3 		.section	.text.rtcan_lld_tim_get_counter,"ax",%progbits
 327      0080
 328              		.align	2
 329              		.p2align 4,,15
 330              		.global	rtcan_lld_tim_get_counter
 331              		.thumb
 332              		.thumb_func
 333              		.type	rtcan_lld_tim_get_counter, %function
ARM GAS  /tmp/ccQucLyg.s 			page 7


 334              	rtcan_lld_tim_get_counter:
 335              	.LFB71:
 336              		.loc 1 181 0
 337              		.cfi_startproc
 338              		@ args = 0, pretend = 0, frame = 0
 339              		@ frame_needed = 0, uses_anonymous_args = 0
 340              		@ link register save eliminated.
 341              	.LVL21:
 342              		.loc 1 182 0
 343 0000 436E     		ldr	r3, [r0, #100]
 344              	.LVL22:
 345              		.loc 1 184 0
 346 0002 988C     		ldrh	r0, [r3, #36]
 347              	.LVL23:
 348 0004 80B2     		uxth	r0, r0
 349              		.loc 1 185 0
 350 0006 7047     		bx	lr
 351              		.cfi_endproc
 352              	.LFE71:
 353              		.size	rtcan_lld_tim_get_counter, .-rtcan_lld_tim_get_counter
 354 0008 AFF30080 		.section	.text.rtcan_lld_tim_set_counter,"ax",%progbits
 354      AFF30080 
 355              		.align	2
 356              		.p2align 4,,15
 357              		.global	rtcan_lld_tim_set_counter
 358              		.thumb
 359              		.thumb_func
 360              		.type	rtcan_lld_tim_set_counter, %function
 361              	rtcan_lld_tim_set_counter:
 362              	.LFB72:
 363              		.loc 1 187 0
 364              		.cfi_startproc
 365              		@ args = 0, pretend = 0, frame = 0
 366              		@ frame_needed = 0, uses_anonymous_args = 0
 367              		@ link register save eliminated.
 368              	.LVL24:
 369              		.loc 1 188 0
 370 0000 436E     		ldr	r3, [r0, #100]
 371              	.LVL25:
 372              		.loc 1 190 0
 373 0002 9984     		strh	r1, [r3, #36]	@ movhi
 374              		.loc 1 191 0
 375 0004 7047     		bx	lr
 376              		.cfi_endproc
 377              	.LFE72:
 378              		.size	rtcan_lld_tim_set_counter, .-rtcan_lld_tim_set_counter
 379 0006 00BFAFF3 		.text
 379      0080AFF3 
 379      0080
 380              	.Letext0:
 381              		.file 2 "/home/tino/ChibiStudio/tools/GNU Tools ARM Embedded/4.6 2012q2/bin/../lib/gcc/arm-none-ea
 382              		.file 3 "../../ChibiOS/os/hal/platforms/STM32F1xx/stm32f10x.h"
 383              		.file 4 "../../RTCAN/include/rtcan.h"
 384              		.file 5 "../../RTCAN/include/msgqueue.h"
 385              		.file 6 "../../RTCAN/include/hrt.h"
 386              		.file 7 "../../ChibiOS/os/ports/common/ARMCMx/CMSIS/include/core_cm3.h"
 387              		.file 8 "../../RTCAN/platforms/STM32/rtcan_lld_can.h"
ARM GAS  /tmp/ccQucLyg.s 			page 8

