ARM GAS  /tmp/cc2y9FDt.s 			page 1


   1              		.syntax unified
   2              		.cpu cortex-m3
   3              		.fpu softvfp
   4              		.eabi_attribute 20, 1
   5              		.eabi_attribute 21, 1
   6              		.eabi_attribute 23, 3
   7              		.eabi_attribute 24, 1
   8              		.eabi_attribute 25, 1
   9              		.eabi_attribute 26, 1
  10              		.eabi_attribute 30, 2
  11              		.eabi_attribute 34, 1
  12              		.eabi_attribute 18, 4
  13              		.thumb
  14              		.file	"serial_lld.c"
  15              		.text
  16              	.Ltext0:
  17              		.cfi_sections	.debug_frame
  18              		.section	.text.notify1,"ax",%progbits
  19              		.align	2
  20              		.p2align 4,,15
  21              		.thumb
  22              		.thumb_func
  23              		.type	notify1, %function
  24              	notify1:
  25              	.LFB67:
  26              		.file 1 "../../ChibiOS/os/hal/platforms/STM32/USARTv1/serial_lld.c"
  27              		.loc 1 202 0
  28              		.cfi_startproc
  29              		@ args = 0, pretend = 0, frame = 0
  30              		@ frame_needed = 0, uses_anonymous_args = 0
  31              		@ link register save eliminated.
  32              	.LVL0:
  33              		.loc 1 205 0
  34 0000 4FF46053 		mov	r3, #14336
  35 0004 C4F20103 		movt	r3, 16385
  36 0008 9989     		ldrh	r1, [r3, #12]
  37 000a 88B2     		uxth	r0, r1
  38              	.LVL1:
  39 000c 40F08002 		orr	r2, r0, #128
  40 0010 9A81     		strh	r2, [r3, #12]	@ movhi
  41              		.loc 1 206 0
  42 0012 7047     		bx	lr
  43              		.cfi_endproc
  44              	.LFE67:
  45              		.size	notify1, .-notify1
  46 0014 AFF30080 		.section	.text.notify3,"ax",%progbits
  46      AFF30080 
  46      AFF30080 
  47              		.align	2
  48              		.p2align 4,,15
  49              		.thumb
  50              		.thumb_func
  51              		.type	notify3, %function
  52              	notify3:
  53              	.LFB68:
  54              		.loc 1 218 0
  55              		.cfi_startproc
ARM GAS  /tmp/cc2y9FDt.s 			page 2


  56              		@ args = 0, pretend = 0, frame = 0
  57              		@ frame_needed = 0, uses_anonymous_args = 0
  58              		@ link register save eliminated.
  59              	.LVL2:
  60              		.loc 1 221 0
  61 0000 4FF49043 		mov	r3, #18432
  62 0004 C4F20003 		movt	r3, 16384
  63 0008 9989     		ldrh	r1, [r3, #12]
  64 000a 88B2     		uxth	r0, r1
  65              	.LVL3:
  66 000c 40F08002 		orr	r2, r0, #128
  67 0010 9A81     		strh	r2, [r3, #12]	@ movhi
  68              		.loc 1 222 0
  69 0012 7047     		bx	lr
  70              		.cfi_endproc
  71              	.LFE68:
  72              		.size	notify3, .-notify3
  73 0014 AFF30080 		.section	.text.serve_interrupt,"ax",%progbits
  73      AFF30080 
  73      AFF30080 
  74              		.align	2
  75              		.p2align 4,,15
  76              		.thumb
  77              		.thumb_func
  78              		.type	serve_interrupt, %function
  79              	serve_interrupt:
  80              	.LFB66:
  81              		.loc 1 156 0
  82              		.cfi_startproc
  83              		@ args = 0, pretend = 0, frame = 0
  84              		@ frame_needed = 0, uses_anonymous_args = 0
  85              	.LVL4:
  86 0000 2DE9F047 		push	{r4, r5, r6, r7, r8, r9, sl, lr}
  87              	.LCFI0:
  88              		.cfi_def_cfa_offset 32
  89              		.cfi_offset 14, -4
  90              		.cfi_offset 10, -8
  91              		.cfi_offset 9, -12
  92              		.cfi_offset 8, -16
  93              		.cfi_offset 7, -20
  94              		.cfi_offset 6, -24
  95              		.cfi_offset 5, -28
  96              		.cfi_offset 4, -32
  97              		.loc 1 157 0
  98 0004 D0F85452 		ldr	r5, [r0, #596]
  99              	.LVL5:
 100              		.loc 1 156 0
 101 0008 0646     		mov	r6, r0
 102              		.loc 1 158 0
 103 000a AF89     		ldrh	r7, [r5, #12]
 104              		.loc 1 159 0
 105 000c 2C88     		ldrh	r4, [r5, #0]
 106              		.loc 1 160 0
 107 000e A888     		ldrh	r0, [r5, #4]
 108              	.LVL6:
 109              		.loc 1 159 0
 110 0010 A4B2     		uxth	r4, r4
ARM GAS  /tmp/cc2y9FDt.s 			page 3


 111              		.loc 1 163 0
 112 0012 2307     		lsls	r3, r4, #28
 113              		.loc 1 158 0
 114 0014 BFB2     		uxth	r7, r7
 115              	.LVL7:
 116              		.loc 1 160 0
 117 0016 1FFA80F8 		uxth	r8, r0
 118              	.LVL8:
 119              		.loc 1 163 0
 120 001a 41D0     		beq	.L4
 121              	.LVL9:
 122              	.LBB19:
 123              	.LBB20:
 124              		.loc 1 138 0
 125 001c 04F00803 		and	r3, r4, #8
 126 0020 002B     		cmp	r3, #0
 127 0022 0CBF     		ite	eq
 128 0024 4FF48079 		moveq	r9, #256
 129 0028 4FF4C079 		movne	r9, #384
 130 002c 0CBF     		ite	eq
 131 002e 4FF4A071 		moveq	r1, #320
 132 0032 4FF4E071 		movne	r1, #448
 133 0036 0CBF     		ite	eq
 134 0038 4022     		moveq	r2, #64
 135 003a C022     		movne	r2, #192
 136 003c 0CBF     		ite	eq
 137 003e 4FF4907A 		moveq	sl, #288
 138 0042 4FF4D07A 		movne	sl, #416
 139 0046 0CBF     		ite	eq
 140 0048 4FF4B07C 		moveq	ip, #352
 141 004c 4FF4F07C 		movne	ip, #480
 142 0050 0CBF     		ite	eq
 143 0052 4FF0600E 		moveq	lr, #96
 144 0056 4FF0E00E 		movne	lr, #224
 145 005a 0CBF     		ite	eq
 146 005c 2020     		moveq	r0, #32
 147 005e A020     		movne	r0, #160
 148 0060 18BF     		it	ne
 149 0062 8023     		movne	r3, #128
 150              	.LVL10:
 151              		.loc 1 140 0
 152 0064 14F0010F 		tst	r4, #1
 153 0068 3FD1     		bne	.L17
 154              	.L6:
 155              		.loc 1 142 0
 156 006a 04F0020C 		and	ip, r4, #2
 157 006e BCF1000F 		cmp	ip, #0
 158 0072 18BF     		it	ne
 159 0074 1346     		movne	r3, r2
 160              	.LVL11:
 161 0076 08BF     		it	eq
 162 0078 4946     		moveq	r1, r9
 163              		.loc 1 145 0
 164 007a 14F0040F 		tst	r4, #4
 165 007e 0CBF     		ite	eq
 166 0080 9946     		moveq	r9, r3
 167 0082 8946     		movne	r9, r1
ARM GAS  /tmp/cc2y9FDt.s 			page 4


 168              	.LBB21:
 169              		.loc 1 146 0
 170 0084 2023     		movs	r3, #32
 171              	.LVL12:
 172              	@ 146 "../../ChibiOS/os/hal/platforms/STM32/USARTv1/serial_lld.c" 1
 173 0086 83F31188 		msr     BASEPRI, r3
 174              	@ 0 "" 2
 175              	.LVL13:
 176              		.thumb
 177              	.LBE21:
 178 008a FFF7FEFF 		bl	dbg_check_lock_from_isr
 179              	.LVL14:
 180              		.loc 1 147 0
 181 008e 301D     		adds	r0, r6, #4
 182 0090 4946     		mov	r1, r9
 183 0092 FFF7FEFF 		bl	chEvtBroadcastFlagsI
 184              		.loc 1 148 0
 185 0096 FFF7FEFF 		bl	dbg_check_unlock_from_isr
 186              	.LBB22:
 187 009a 0023     		movs	r3, #0
 188              	.LVL15:
 189              	@ 148 "../../ChibiOS/os/hal/platforms/STM32/USARTv1/serial_lld.c" 1
 190 009c 83F31188 		msr     BASEPRI, r3
 191              	@ 0 "" 2
 192              	.LVL16:
 193              		.thumb
 194              	.L4:
 195              	.LBE22:
 196              	.LBE20:
 197              	.LBE19:
 198              		.loc 1 166 0
 199 00a0 E305     		lsls	r3, r4, #23
 200              	.LVL17:
 201 00a2 27D4     		bmi	.L18
 202              		.loc 1 173 0
 203 00a4 A006     		lsls	r0, r4, #26
 204 00a6 3CD4     		bmi	.L19
 205              	.LVL18:
 206              	.L10:
 207              		.loc 1 179 0
 208 00a8 3906     		lsls	r1, r7, #24
 209 00aa 01D5     		bpl	.L11
 210              		.loc 1 179 0 is_stmt 0 discriminator 1
 211 00ac 2206     		lsls	r2, r4, #24
 212 00ae 48D4     		bmi	.L20
 213              	.LVL19:
 214              	.L11:
 215              		.loc 1 192 0 is_stmt 1
 216 00b0 6306     		lsls	r3, r4, #25
 217              	.LVL20:
 218 00b2 18D5     		bpl	.L3
 219              	.LBB24:
 220              		.loc 1 193 0
 221 00b4 2023     		movs	r3, #32
 222              	.LVL21:
 223              	@ 193 "../../ChibiOS/os/hal/platforms/STM32/USARTv1/serial_lld.c" 1
 224 00b6 83F31188 		msr     BASEPRI, r3
ARM GAS  /tmp/cc2y9FDt.s 			page 5


 225              	@ 0 "" 2
 226              	.LVL22:
 227              		.thumb
 228              	.LBE24:
 229 00ba FFF7FEFF 		bl	dbg_check_lock_from_isr
 230              	.LVL23:
 231              		.loc 1 194 0
 232 00be 301D     		adds	r0, r6, #4
 233 00c0 1021     		movs	r1, #16
 234 00c2 FFF7FEFF 		bl	chEvtBroadcastFlagsI
 235              		.loc 1 195 0
 236 00c6 FFF7FEFF 		bl	dbg_check_unlock_from_isr
 237              	.LBB25:
 238 00ca 0023     		movs	r3, #0
 239              	.LVL24:
 240              	@ 195 "../../ChibiOS/os/hal/platforms/STM32/USARTv1/serial_lld.c" 1
 241 00cc 83F31188 		msr     BASEPRI, r3
 242              	@ 0 "" 2
 243              	.LVL25:
 244              		.thumb
 245              	.LBE25:
 246              		.loc 1 196 0
 247 00d0 4FF6BF70 		movw	r0, #65471
 248 00d4 07EA0002 		and	r2, r7, r0
 249 00d8 AA81     		strh	r2, [r5, #12]	@ movhi
 250              		.loc 1 197 0
 251 00da 2988     		ldrh	r1, [r5, #0]
 252 00dc 21F04003 		bic	r3, r1, #64
 253              	.LVL26:
 254 00e0 1804     		lsls	r0, r3, #16
 255 00e2 020C     		lsrs	r2, r0, #16
 256 00e4 2A80     		strh	r2, [r5, #0]	@ movhi
 257              	.L3:
 258 00e6 BDE8F087 		pop	{r4, r5, r6, r7, r8, r9, sl, pc}
 259              	.LVL27:
 260              	.L17:
 261              	.LBB26:
 262              	.LBB23:
 263              		.loc 1 140 0
 264 00ea D146     		mov	r9, sl
 265 00ec 6146     		mov	r1, ip
 266 00ee 7246     		mov	r2, lr
 267              		.loc 1 141 0
 268 00f0 0346     		mov	r3, r0
 269 00f2 BAE7     		b	.L6
 270              	.LVL28:
 271              	.L18:
 272              	.LBE23:
 273              	.LBE26:
 274              	.LBB27:
 275              		.loc 1 167 0
 276 00f4 2023     		movs	r3, #32
 277              	.LVL29:
 278              	@ 167 "../../ChibiOS/os/hal/platforms/STM32/USARTv1/serial_lld.c" 1
 279 00f6 83F31188 		msr     BASEPRI, r3
 280              	@ 0 "" 2
 281              	.LVL30:
ARM GAS  /tmp/cc2y9FDt.s 			page 6


 282              		.thumb
 283              	.LBE27:
 284 00fa FFF7FEFF 		bl	dbg_check_lock_from_isr
 285              	.LVL31:
 286              		.loc 1 168 0
 287 00fe 301D     		adds	r0, r6, #4
 288 0100 4FF40071 		mov	r1, #512
 289 0104 FFF7FEFF 		bl	chEvtBroadcastFlagsI
 290              		.loc 1 169 0
 291 0108 FFF7FEFF 		bl	dbg_check_unlock_from_isr
 292              	.LBB28:
 293 010c 0023     		movs	r3, #0
 294              	.LVL32:
 295              	@ 169 "../../ChibiOS/os/hal/platforms/STM32/USARTv1/serial_lld.c" 1
 296 010e 83F31188 		msr     BASEPRI, r3
 297              	@ 0 "" 2
 298              	.LVL33:
 299              		.thumb
 300              	.LBE28:
 301              		.loc 1 170 0
 302 0112 2888     		ldrh	r0, [r5, #0]
 303 0114 20F48072 		bic	r2, r0, #256
 304 0118 1104     		lsls	r1, r2, #16
 305 011a 0B0C     		lsrs	r3, r1, #16
 306              	.LVL34:
 307              		.loc 1 173 0
 308 011c A006     		lsls	r0, r4, #26
 309              		.loc 1 170 0
 310 011e 2B80     		strh	r3, [r5, #0]	@ movhi
 311              		.loc 1 173 0
 312 0120 C2D5     		bpl	.L10
 313              	.L19:
 314              	.LBB29:
 315              		.loc 1 174 0
 316 0122 2023     		movs	r3, #32
 317              	.LVL35:
 318              	@ 174 "../../ChibiOS/os/hal/platforms/STM32/USARTv1/serial_lld.c" 1
 319 0124 83F31188 		msr     BASEPRI, r3
 320              	@ 0 "" 2
 321              	.LVL36:
 322              		.thumb
 323              	.LBE29:
 324 0128 FFF7FEFF 		bl	dbg_check_lock_from_isr
 325              	.LVL37:
 326              		.loc 1 175 0
 327 012c 5FFA88F1 		uxtb	r1, r8
 328 0130 3046     		mov	r0, r6
 329 0132 FFF7FEFF 		bl	sdIncomingDataI
 330              		.loc 1 176 0
 331 0136 FFF7FEFF 		bl	dbg_check_unlock_from_isr
 332              	.LBB30:
 333 013a 0023     		movs	r3, #0
 334              	@ 176 "../../ChibiOS/os/hal/platforms/STM32/USARTv1/serial_lld.c" 1
 335 013c 83F31188 		msr     BASEPRI, r3
 336              	@ 0 "" 2
 337              	.LVL38:
 338              		.thumb
ARM GAS  /tmp/cc2y9FDt.s 			page 7


 339 0140 B2E7     		b	.L10
 340              	.L20:
 341              	.LBE30:
 342              	.LBB31:
 343              	.LBB32:
 344              		.loc 1 181 0
 345 0142 2023     		movs	r3, #32
 346              	.LVL39:
 347              	@ 181 "../../ChibiOS/os/hal/platforms/STM32/USARTv1/serial_lld.c" 1
 348 0144 83F31188 		msr     BASEPRI, r3
 349              	@ 0 "" 2
 350              	.LVL40:
 351              		.thumb
 352              	.LBE32:
 353 0148 FFF7FEFF 		bl	dbg_check_lock_from_isr
 354              	.LVL41:
 355              		.loc 1 182 0
 356 014c 06F13000 		add	r0, r6, #48
 357 0150 FFF7FEFF 		bl	chOQGetI
 358              	.LVL42:
 359              		.loc 1 183 0
 360 0154 0028     		cmp	r0, #0
 361 0156 07DB     		blt	.L21
 362              		.loc 1 188 0
 363 0158 81B2     		uxth	r1, r0
 364 015a A980     		strh	r1, [r5, #4]	@ movhi
 365              	.LVL43:
 366              	.L13:
 367              		.loc 1 189 0
 368 015c FFF7FEFF 		bl	dbg_check_unlock_from_isr
 369              	.LBB33:
 370 0160 0023     		movs	r3, #0
 371              	@ 189 "../../ChibiOS/os/hal/platforms/STM32/USARTv1/serial_lld.c" 1
 372 0162 83F31188 		msr     BASEPRI, r3
 373              	@ 0 "" 2
 374              	.LVL44:
 375              		.thumb
 376 0166 A3E7     		b	.L11
 377              	.LVL45:
 378              	.L21:
 379              	.LBE33:
 380              		.loc 1 184 0
 381 0168 301D     		adds	r0, r6, #4
 382              	.LVL46:
 383 016a 0821     		movs	r1, #8
 384 016c FFF7FEFF 		bl	chEvtBroadcastFlagsI
 385              		.loc 1 185 0
 386 0170 27F0C003 		bic	r3, r7, #192
 387 0174 43F0400C 		orr	ip, r3, #64
 388 0178 A5F80CC0 		strh	ip, [r5, #12]	@ movhi
 389 017c EEE7     		b	.L13
 390              	.LBE31:
 391              		.cfi_endproc
 392              	.LFE66:
 393              		.size	serve_interrupt, .-serve_interrupt
 394 017e 00BF     		.section	.text.VectorD4,"ax",%progbits
 395              		.align	2
ARM GAS  /tmp/cc2y9FDt.s 			page 8


 396              		.p2align 4,,15
 397              		.global	VectorD4
 398              		.thumb
 399              		.thumb_func
 400              		.type	VectorD4, %function
 401              	VectorD4:
 402              	.LFB69:
 403              		.loc 1 262 0
 404              		.cfi_startproc
 405              		@ args = 0, pretend = 0, frame = 0
 406              		@ frame_needed = 0, uses_anonymous_args = 0
 407 0000 08B5     		push	{r3, lr}
 408              	.LCFI1:
 409              		.cfi_def_cfa_offset 8
 410              		.cfi_offset 14, -4
 411              		.cfi_offset 3, -8
 412              		.loc 1 264 0
 413 0002 FFF7FEFF 		bl	dbg_check_enter_isr
 414              		.loc 1 266 0
 415 0006 40F20000 		movw	r0, #:lower16:.LANCHOR0
 416 000a C0F20000 		movt	r0, #:upper16:.LANCHOR0
 417 000e FFF7FEFF 		bl	serve_interrupt
 418              		.loc 1 268 0
 419 0012 FFF7FEFF 		bl	dbg_check_leave_isr
 420              		.loc 1 269 0
 421 0016 BDE80840 		pop	{r3, lr}
 422              		.loc 1 268 0
 423 001a FFF7FEBF 		b	_port_irq_epilogue
 424              		.cfi_endproc
 425              	.LFE69:
 426              		.size	VectorD4, .-VectorD4
 427 001e 00BF     		.section	.text.VectorDC,"ax",%progbits
 428              		.align	2
 429              		.p2align 4,,15
 430              		.global	VectorDC
 431              		.thumb
 432              		.thumb_func
 433              		.type	VectorDC, %function
 434              	VectorDC:
 435              	.LFB70:
 436              		.loc 1 300 0
 437              		.cfi_startproc
 438              		@ args = 0, pretend = 0, frame = 0
 439              		@ frame_needed = 0, uses_anonymous_args = 0
 440 0000 08B5     		push	{r3, lr}
 441              	.LCFI2:
 442              		.cfi_def_cfa_offset 8
 443              		.cfi_offset 14, -4
 444              		.cfi_offset 3, -8
 445              		.loc 1 302 0
 446 0002 FFF7FEFF 		bl	dbg_check_enter_isr
 447              		.loc 1 304 0
 448 0006 40F20000 		movw	r0, #:lower16:.LANCHOR1
 449 000a C0F20000 		movt	r0, #:upper16:.LANCHOR1
 450 000e FFF7FEFF 		bl	serve_interrupt
 451              		.loc 1 306 0
 452 0012 FFF7FEFF 		bl	dbg_check_leave_isr
ARM GAS  /tmp/cc2y9FDt.s 			page 9


 453              		.loc 1 307 0
 454 0016 BDE80840 		pop	{r3, lr}
 455              		.loc 1 306 0
 456 001a FFF7FEBF 		b	_port_irq_epilogue
 457              		.cfi_endproc
 458              	.LFE70:
 459              		.size	VectorDC, .-VectorDC
 460 001e 00BF     		.section	.text.sd_lld_init,"ax",%progbits
 461              		.align	2
 462              		.p2align 4,,15
 463              		.global	sd_lld_init
 464              		.thumb
 465              		.thumb_func
 466              		.type	sd_lld_init, %function
 467              	sd_lld_init:
 468              	.LFB71:
 469              		.loc 1 376 0
 470              		.cfi_startproc
 471              		@ args = 0, pretend = 0, frame = 0
 472              		@ frame_needed = 0, uses_anonymous_args = 0
 473 0000 38B5     		push	{r3, r4, r5, lr}
 474              	.LCFI3:
 475              		.cfi_def_cfa_offset 16
 476              		.cfi_offset 14, -4
 477              		.cfi_offset 5, -8
 478              		.cfi_offset 4, -12
 479              		.cfi_offset 3, -16
 480              		.loc 1 379 0
 481 0002 40F20005 		movw	r5, #:lower16:.LANCHOR0
 482 0006 C0F20005 		movt	r5, #:upper16:.LANCHOR0
 483 000a 40F20002 		movw	r2, #:lower16:notify1
 484 000e C0F20002 		movt	r2, #:upper16:notify1
 485 0012 2846     		mov	r0, r5
 486 0014 0021     		movs	r1, #0
 487              		.loc 1 389 0
 488 0016 40F20004 		movw	r4, #:lower16:.LANCHOR1
 489              		.loc 1 379 0
 490 001a FFF7FEFF 		bl	sdObjectInit
 491              		.loc 1 389 0
 492 001e C0F20004 		movt	r4, #:upper16:.LANCHOR1
 493 0022 40F20002 		movw	r2, #:lower16:notify3
 494              		.loc 1 380 0
 495 0026 4FF46053 		mov	r3, #14336
 496 002a C4F20103 		movt	r3, 16385
 497              		.loc 1 389 0
 498 002e C0F20002 		movt	r2, #:upper16:notify3
 499 0032 2046     		mov	r0, r4
 500 0034 0021     		movs	r1, #0
 501              		.loc 1 380 0
 502 0036 C5F85432 		str	r3, [r5, #596]
 503              		.loc 1 389 0
 504 003a FFF7FEFF 		bl	sdObjectInit
 505              		.loc 1 390 0
 506 003e 4FF49043 		mov	r3, #18432
 507 0042 C4F20003 		movt	r3, 16384
 508 0046 C4F85432 		str	r3, [r4, #596]
 509              		.loc 1 407 0
ARM GAS  /tmp/cc2y9FDt.s 			page 10


 510 004a 38BD     		pop	{r3, r4, r5, pc}
 511              		.cfi_endproc
 512              	.LFE71:
 513              		.size	sd_lld_init, .-sd_lld_init
 514 004c AFF30080 		.section	.text.sd_lld_start,"ax",%progbits
 515              		.align	2
 516              		.p2align 4,,15
 517              		.global	sd_lld_start
 518              		.thumb
 519              		.thumb_func
 520              		.type	sd_lld_start, %function
 521              	sd_lld_start:
 522              	.LFB72:
 523              		.loc 1 419 0
 524              		.cfi_startproc
 525              		@ args = 0, pretend = 0, frame = 0
 526              		@ frame_needed = 0, uses_anonymous_args = 0
 527              	.LVL47:
 528 0000 38B5     		push	{r3, r4, r5, lr}
 529              	.LCFI4:
 530              		.cfi_def_cfa_offset 16
 531              		.cfi_offset 14, -4
 532              		.cfi_offset 5, -8
 533              		.cfi_offset 4, -12
 534              		.cfi_offset 3, -16
 535              		.loc 1 424 0
 536 0002 037A     		ldrb	r3, [r0, #8]	@ zero_extendqisi2
 537              		.loc 1 422 0
 538 0004 264C     		ldr	r4, .L34
 539              		.loc 1 419 0
 540 0006 0546     		mov	r5, r0
 541              		.loc 1 422 0
 542 0008 0029     		cmp	r1, #0
 543 000a 18BF     		it	ne
 544 000c 0C46     		movne	r4, r1
 545              		.loc 1 424 0
 546 000e 012B     		cmp	r3, #1
 547 0010 24D0     		beq	.L32
 548              	.LVL48:
 549              	.L27:
 550              	.LBB34:
 551              	.LBB35:
 552              		.loc 1 101 0
 553 0012 2268     		ldr	r2, [r4, #0]
 554 0014 4FF4A240 		mov	r0, #20736
 555 0018 C0F22520 		movt	r0, 549
 556              		.loc 1 93 0
 557 001c D5F85432 		ldr	r3, [r5, #596]
 558              	.LVL49:
 559              		.loc 1 101 0
 560 0020 B0FBF2F1 		udiv	r1, r0, r2
 561 0024 8AB2     		uxth	r2, r1
 562 0026 1A81     		strh	r2, [r3, #8]	@ movhi
 563              		.loc 1 108 0
 564 0028 B4F804C0 		ldrh	ip, [r4, #4]
 565              		.loc 1 106 0
 566 002c E088     		ldrh	r0, [r4, #6]
ARM GAS  /tmp/cc2y9FDt.s 			page 11


 567              		.loc 1 107 0
 568 002e 2189     		ldrh	r1, [r4, #8]
 569              		.loc 1 108 0
 570 0030 4CF40452 		orr	r2, ip, #8448
 571              		.loc 1 106 0
 572 0034 40F0400C 		orr	ip, r0, #64
 573 0038 1FFA8CF0 		uxth	r0, ip
 574              		.loc 1 107 0
 575 003c 41F00101 		orr	r1, r1, #1
 576              		.loc 1 108 0
 577 0040 42F02C02 		orr	r2, r2, #44
 578              		.loc 1 106 0
 579 0044 1882     		strh	r0, [r3, #16]	@ movhi
 580              		.loc 1 108 0
 581 0046 92B2     		uxth	r2, r2
 582              		.loc 1 107 0
 583 0048 1FFA81FC 		uxth	ip, r1
 584              		.loc 1 111 0
 585 004c 0020     		movs	r0, #0
 586              		.loc 1 107 0
 587 004e A3F814C0 		strh	ip, [r3, #20]	@ movhi
 588              		.loc 1 108 0
 589 0052 9A81     		strh	r2, [r3, #12]	@ movhi
 590              		.loc 1 111 0
 591 0054 1880     		strh	r0, [r3, #0]	@ movhi
 592              		.loc 1 112 0
 593 0056 1A88     		ldrh	r2, [r3, #0]
 594              		.loc 1 113 0
 595 0058 9B88     		ldrh	r3, [r3, #4]
 596              	.LBE35:
 597              	.LBE34:
 598              		.loc 1 469 0
 599 005a 38BD     		pop	{r3, r4, r5, pc}
 600              	.LVL50:
 601              	.L32:
 602              		.loc 1 426 0
 603 005c 1148     		ldr	r0, .L34+4
 604 005e 8542     		cmp	r5, r0
 605 0060 11D0     		beq	.L33
 606              		.loc 1 440 0
 607 0062 1148     		ldr	r0, .L34+8
 608 0064 8542     		cmp	r5, r0
 609 0066 D4D1     		bne	.L27
 610              		.loc 1 441 0
 611 0068 4FF4805C 		mov	ip, #4096
 612 006c C4F2020C 		movt	ip, 16386
 613 0070 DCF81C10 		ldr	r1, [ip, #28]
 614              	.LVL51:
 615              		.loc 1 442 0
 616 0074 2720     		movs	r0, #39
 617              		.loc 1 441 0
 618 0076 41F48022 		orr	r2, r1, #262144
 619 007a CCF81C20 		str	r2, [ip, #28]
 620              		.loc 1 442 0
 621 007e C021     		movs	r1, #192
 622 0080 FFF7FEFF 		bl	nvicEnableVector
 623 0084 C5E7     		b	.L27
ARM GAS  /tmp/cc2y9FDt.s 			page 12


 624              	.LVL52:
 625              	.L33:
 626              		.loc 1 427 0
 627 0086 4FF48051 		mov	r1, #4096
 628              	.LVL53:
 629 008a C4F20201 		movt	r1, 16386
 630 008e 8B69     		ldr	r3, [r1, #24]
 631              		.loc 1 428 0
 632 0090 2520     		movs	r0, #37
 633              		.loc 1 427 0
 634 0092 43F48042 		orr	r2, r3, #16384
 635 0096 8A61     		str	r2, [r1, #24]
 636              		.loc 1 428 0
 637 0098 C021     		movs	r1, #192
 638 009a FFF7FEFF 		bl	nvicEnableVector
 639 009e B8E7     		b	.L27
 640              	.L35:
 641              		.align	2
 642              	.L34:
 643 00a0 00000000 		.word	.LANCHOR2
 644 00a4 00000000 		.word	.LANCHOR0
 645 00a8 00000000 		.word	.LANCHOR1
 646              		.cfi_endproc
 647              	.LFE72:
 648              		.size	sd_lld_start, .-sd_lld_start
 649 00ac AFF30080 		.section	.text.sd_lld_stop,"ax",%progbits
 650              		.align	2
 651              		.p2align 4,,15
 652              		.global	sd_lld_stop
 653              		.thumb
 654              		.thumb_func
 655              		.type	sd_lld_stop, %function
 656              	sd_lld_stop:
 657              	.LFB73:
 658              		.loc 1 480 0
 659              		.cfi_startproc
 660              		@ args = 0, pretend = 0, frame = 0
 661              		@ frame_needed = 0, uses_anonymous_args = 0
 662              		@ link register save eliminated.
 663              	.LVL54:
 664              		.loc 1 482 0
 665 0000 037A     		ldrb	r3, [r0, #8]	@ zero_extendqisi2
 666 0002 022B     		cmp	r3, #2
 667 0004 00D0     		beq	.L39
 668              	.L36:
 669 0006 7047     		bx	lr
 670              	.LVL55:
 671              	.L39:
 672              		.loc 1 485 0
 673 0008 1149     		ldr	r1, .L41
 674              	.LVL56:
 675              		.loc 1 483 0
 676 000a D0F85432 		ldr	r3, [r0, #596]
 677              	.LVL57:
 678              	.LBB36:
 679              	.LBB37:
 680              		.loc 1 124 0
ARM GAS  /tmp/cc2y9FDt.s 			page 13


 681 000e 0022     		movs	r2, #0
 682              	.LBE37:
 683              	.LBE36:
 684              		.loc 1 485 0
 685 0010 8842     		cmp	r0, r1
 686              	.LBB39:
 687              	.LBB38:
 688              		.loc 1 124 0
 689 0012 9A81     		strh	r2, [r3, #12]	@ movhi
 690              		.loc 1 125 0
 691 0014 1A82     		strh	r2, [r3, #16]	@ movhi
 692              		.loc 1 126 0
 693 0016 9A82     		strh	r2, [r3, #20]	@ movhi
 694              	.LBE38:
 695              	.LBE39:
 696              		.loc 1 485 0
 697 0018 0DD0     		beq	.L40
 698              		.loc 1 499 0
 699 001a 0E4A     		ldr	r2, .L41+4
 700 001c 9042     		cmp	r0, r2
 701 001e F2D1     		bne	.L36
 702              		.loc 1 500 0
 703 0020 4FF48053 		mov	r3, #4096
 704 0024 C4F20203 		movt	r3, 16386
 705 0028 D969     		ldr	r1, [r3, #28]
 706 002a 21F48020 		bic	r0, r1, #262144
 707              	.LVL58:
 708 002e D861     		str	r0, [r3, #28]
 709              		.loc 1 501 0
 710 0030 2720     		movs	r0, #39
 711              		.loc 1 527 0
 712              		.loc 1 501 0
 713 0032 FFF7FEBF 		b	nvicDisableVector
 714              	.LVL59:
 715              	.L40:
 716              		.loc 1 486 0
 717 0036 4FF4805C 		mov	ip, #4096
 718 003a C4F2020C 		movt	ip, 16386
 719 003e DCF81810 		ldr	r1, [ip, #24]
 720 0042 21F48040 		bic	r0, r1, #16384
 721              	.LVL60:
 722 0046 CCF81800 		str	r0, [ip, #24]
 723              		.loc 1 487 0
 724 004a 2520     		movs	r0, #37
 725              		.loc 1 527 0
 726              		.loc 1 487 0
 727 004c FFF7FEBF 		b	nvicDisableVector
 728              	.LVL61:
 729              	.L42:
 730              		.align	2
 731              	.L41:
 732 0050 00000000 		.word	.LANCHOR0
 733 0054 00000000 		.word	.LANCHOR1
 734              		.cfi_endproc
 735              	.LFE73:
 736              		.size	sd_lld_stop, .-sd_lld_stop
 737              		.global	SD3
ARM GAS  /tmp/cc2y9FDt.s 			page 14


 738              		.global	SD1
 739 0058 AFF30080 		.section	.rodata.default_config,"a",%progbits
 739      AFF30080 
 740              		.align	2
 741              		.set	.LANCHOR2,. + 0
 742              		.type	default_config, %object
 743              		.size	default_config, 12
 744              	default_config:
 745 0000 00C20100 		.word	115200
 746 0004 0000     		.short	0
 747 0006 0040     		.short	16384
 748 0008 0000     		.short	0
 749 000a 0000     		.space	2
 750              		.section	.bss.SD1,"aw",%nobits
 751              		.align	2
 752              		.set	.LANCHOR0,. + 0
 753              		.type	SD1, %object
 754              		.size	SD1, 600
 755              	SD1:
 756 0000 00000000 		.space	600
 756      00000000 
 756      00000000 
 756      00000000 
 756      00000000 
 757              		.section	.bss.SD3,"aw",%nobits
 758              		.align	2
 759              		.set	.LANCHOR1,. + 0
 760              		.type	SD3, %object
 761              		.size	SD3, 600
 762              	SD3:
 763 0000 00000000 		.space	600
 763      00000000 
 763      00000000 
 763      00000000 
 763      00000000 
 764              		.text
 765              	.Letext0:
 766              		.file 2 "/home/tino/ChibiStudio/tools/GNU Tools ARM Embedded/4.6 2012q2/bin/../lib/gcc/arm-none-ea
 767              		.file 3 "/home/tino/ChibiStudio/tools/GNU Tools ARM Embedded/4.6 2012q2/bin/../lib/gcc/arm-none-ea
 768              		.file 4 "../../ChibiOS/os/ports/GCC/ARMCMx/chtypes.h"
 769              		.file 5 "../../ChibiOS/os/kernel/include/chlists.h"
 770              		.file 6 "../../ChibiOS/os/kernel/include/chthreads.h"
 771              		.file 7 "../../ChibiOS/os/ports/GCC/ARMCMx/chcore_v7m.h"
 772              		.file 8 "../../ChibiOS/os/kernel/include/chmtx.h"
 773              		.file 9 "../../ChibiOS/os/kernel/include/chevents.h"
 774              		.file 10 "../../ChibiOS/os/kernel/include/chqueues.h"
 775              		.file 11 "../../ChibiOS/os/hal/platforms/STM32F1xx/stm32f10x.h"
 776              		.file 12 "../../ChibiOS/os/hal/include/serial.h"
 777              		.file 13 "../../ChibiOS/os/hal/platforms/STM32/USARTv1/serial_lld.h"
 778              		.file 14 "../../ChibiOS/os/ports/common/ARMCMx/CMSIS/include/core_cm3.h"