ARM GAS  /tmp/cc2y9FDt.s 			page 1


   1              		.syntax unified
   2              		.cpu cortex-m3
   3              		.fpu softvfp
   4              		.eabi_attribute 20, 1
   5              		.eabi_attribute 21, 1
   6              		.eabi_attribute 23, 3
   7              		.eabi_attribute 24, 1
   8              		.eabi_attribute 25, 1
   9              		.eabi_attribute 26, 1
  10              		.eabi_attribute 30, 2
  11              		.eabi_attribute 34, 1
  12              		.eabi_attribute 18, 4
  13              		.thumb
  14              		.file	"serial_lld.c"
  15              		.text
  16              	.Ltext0:
  17              		.cfi_sections	.debug_frame
  18              		.section	.text.notify1,"ax",%progbits
  19              		.align	2
  20              		.p2align 4,,15
  21              		.thumb
  22              		.thumb_func
  23              		.type	notify1, %function
  24              	notify1:
  25              	.LFB67:
  26              		.file 1 "../../ChibiOS/os/hal/platforms/STM32/USARTv1/serial_lld.c"
  27              		.loc 1 202 0
  28              		.cfi_startproc
  29              		@ args = 0, pretend = 0, frame = 0
  30              		@ frame_needed = 0, uses_anonymous_args = 0
  31              		@ link register save eliminated.
  32              	.LVL0:
  33              		.loc 1 205 0
  34 0000 4FF46053 		mov	r3, #14336
  35 0004 C4F20103 		movt	r3, 16385
  36 0008 9989     		ldrh	r1, [r3, #12]
  37 000a 88B2     		uxth	r0, r1
  38              	.LVL1:
  39 000c 40F08002 		orr	r2, r0, #128
  40 0010 9A81     		strh	r2, [r3, #12]	@ movhi
  41              		.loc 1 206 0
  42 0012 7047     		bx	lr
  43              		.cfi_endproc
  44              	.LFE67:
  45              		.size	notify1, .-notify1
  46 0014 AFF30080 		.section	.text.notify3,"ax",%progbits
  46      AFF30080 
  46      AFF30080 
  47              		.align	2
  48              		.p2align 4,,15
  49              		.thumb
  50              		.thumb_func
  51              		.type	notify3, %function
  52              	notify3:
  53              	.LFB68:
  54              		.loc 1 218 0
  55              		.cfi_startproc
ARM GAS  /tmp/cc2y9FDt.s 			page 2


  56              		@ args = 0, pretend = 0, frame = 0
  57              		@ frame_needed = 0, uses_anonymous_args = 0
  58              		@ link register save eliminated.
  59              	.LVL2:
  60              		.loc 1 221 0
  61 0000 4FF49043 		mov	r3, #18432
  62 0004 C4F20003 		movt	r3, 16384
  63 0008 9989     		ldrh	r1, [r3, #12]
  64 000a 88B2     		uxth	r0, r1
  65              	.LVL3:
  66 000c 40F08002 		orr	r2, r0, #128
  67 0010 9A81     		strh	r2, [r3, #12]	@ movhi
  68              		.loc 1 222 0
  69 0012 7047     		bx	lr
  70              		.cfi_endproc
  71              	.LFE68:
  72              		.size	notify3, .-notify3
  73 0014 AFF30080 		.section	.text.serve_interrupt,"ax",%progbits
  73      AFF30080 
  73      AFF30080 
  74              		.align	2
  75              		.p2align 4,,15
  76              		.thumb
  77              		.thumb_func
  78              		.type	serve_interrupt, %function
  79              	serve_interrupt:
  80              	.LFB66:
  81              		.loc 1 156 0
  82              		.cfi_startproc
  83              		@ args = 0, pretend = 0, frame = 0
  84              		@ frame_needed = 0, uses_anonymous_args = 0
  85              	.LVL4:
  86 0000 2DE9F047 		push	{r4, r5, r6, r7, r8, r9, sl, lr}
  87              	.LCFI0:
  88              		.cfi_def_cfa_offset 32
  89              		.cfi_offset 14, -4
  90              		.cfi_offset 10, -8
  91              		.cfi_offset 9, -12
  92              		.cfi_offset 8, -16
  93              		.cfi_offset 7, -20
  94              		.cfi_offset 6, -24
  95              		.cfi_offset 5, -28
  96              		.cfi_offset 4, -32
  97              		.loc 1 157 0
  98 0004 D0F85452 		ldr	r5, [r0, #596]
  99              	.LVL5:
 100              		.loc 1 156 0
 101 0008 0646     		mov	r6, r0
 102              		.loc 1 158 0
 103 000a AF89     		ldrh	r7, [r5, #12]
 104              		.loc 1 159 0
 105 000c 2C88     		ldrh	r4, [r5, #0]
 106              		.loc 1 160 0
 107 000e A888     		ldrh	r0, [r5, #4]
 108              	.LVL6:
 109              		.loc 1 159 0
 110 0010 A4B2     		uxth	r4, r4
ARM GAS  /tmp/cc2y9FDt.s 			page 3


 111              		.loc 1 163 0
 112 0012 2307     		lsls	r3, r4, #28
 113              		.loc 1 158 0
 114 0014 BFB2     		uxth	r7, r7
 115              	.LVL7:
 116              		.loc 1 160 0
 117 0016 1FFA80F8 		uxth	r8, r0
 118              	.LVL8:
 119              		.loc 1 163 0
 120 001a 41D0     		beq	.L4
 121              	.LVL9:
 122              	.LBB19:
 123              	.LBB20:
 124              		.loc 1 138 0
 125 001c 04F00803 		and	r3, r4, #8
 126 0020 002B     		cmp	r3, #0
 127 0022 0CBF     		ite	eq
 128 0024 4FF48079 		moveq	r9, #256
 129 0028 4FF4C079 		movne	r9, #384
 130 002c 0CBF     		ite	eq
 131 002e 4FF4A071 		moveq	r1, #320
 132 0032 4FF4E071 		movne	r1, #448
 133 0036 0CBF     		ite	eq
 134 0038 4022     		moveq	r2, #64
 135 003a C022     		movne	r2, #192
 136 003c 0CBF     		ite	eq
 137 003e 4FF4907A 		moveq	sl, #288
 138 0042 4FF4D07A 		movne	sl, #416
 139 0046 0CBF     		ite	eq
 140 0048 4FF4B07C 		moveq	ip, #352
 141 004c 4FF4F07C 		movne	ip, #480
 142 0050 0CBF     		ite	eq
 143 0052 4FF0600E 		moveq	lr, #96
 144 0056 4FF0E00E 		movne	lr, #224
 145 005a 0CBF     		ite	eq
 146 005c 2020     		moveq	r0, #32
 147 005e A020     		movne	r0, #160
 148 0060 18BF     		it	ne
 149 0062 8023     		movne	r3, #128
 150              	.LVL10:
 151              		.loc 1 140 0
 152 0064 14F0010F 		tst	r4, #1
 153 0068 3FD1     		bne	.L17
 154              	.L6:
 155              		.loc 1 142 0
 156 006a 04F0020C 		and	ip, r4, #2
 157 006e BCF1000F 		cmp	ip, #0
 158 0072 18BF     		it	ne
 159 0074 1346     		movne	r3, r2
 160              	.LVL11:
 161 0076 08BF     		it	eq
 162 0078 4946     		moveq	r1, r9
 163              		.loc 1 145 0
 164 007a 14F0040F 		tst	r4, #4
 165 007e 0CBF     		ite	eq
 166 0080 9946     		moveq	r9, r3
 167 0082 8946     		movne	r9, r1
ARM GAS  /tmp/cc2y9FDt.s 			page 4


 168              	.LBB21:
 169              		.loc 1 146 0
 170 0084 2023     		movs	r3, #32
 171              	.LVL12:
 172              	@ 146 "../../ChibiOS/os/hal/platforms/STM32/USARTv1/serial_lld.c" 1
 173 0086 83F31188 		msr     BASEPRI, r3
 174              	@ 0 "" 2
 175              	.LVL13:
 176              		.thumb
 177              	.LBE21:
 178 008a FFF7FEFF 		bl	dbg_check_lock_from_isr
 179              	.LVL14:
 180              		.loc 1 147 0
 181 008e 301D     		adds	r0, r6, #4
 182 0090 4946     		mov	r1, r9
 183 0092 FFF7FEFF 		bl	chEvtBroadcastFlagsI
 184              		.loc 1 148 0
 185 0096 FFF7FEFF 		bl	dbg_check_unlock_from_isr
 186              	.LBB22:
 187 009a 0023     		movs	r3, #0
 188              	.LVL15:
 189              	@ 148 "../../ChibiOS/os/hal/platforms/STM32/USARTv1/serial_lld.c" 1
 190 009c 83F31188 		msr     BASEPRI, r3
 191              	@ 0 "" 2
 192              	.LVL16:
 193              		.thumb
 194              	.L4:
 195              	.LBE22:
 196              	.LBE20:
 197              	.LBE19:
 198              		.loc 1 166 0
 199 00a0 E305     		lsls	r3, r4, #23
 200              	.LVL17:
 201 00a2 27D4     		bmi	.L18
 202              		.loc 1 173 0
 203 00a4 A006     		lsls	r0, r4, #26
 204 00a6 3CD4     		bmi	.L19
 205              	.LVL18:
 206              	.L10:
 207              		.loc 1 179 0
 208 00a8 3906     		lsls	r1, r7, #24
 209 00aa 01D5     		bpl	.L11
 210              		.loc 1 179 0 is_stmt 0 discriminator 1
 211 00ac 2206     		lsls	r2, r4, #24
 212 00ae 48D4     		bmi	.L20
 213              	.LVL19:
 214              	.L11:
 215              		.loc 1 192 0 is_stmt 1
 216 00b0 6306     		lsls	r3, r4, #25
 217              	.LVL20:
 218 00b2 18D5     		bpl	.L3
 219              	.LBB24:
 220              		.loc 1 193 0
 221 00b4 2023     		movs	r3, #32
 222              	.LVL21:
 223              	@ 193 "../../ChibiOS/os/hal/platforms/STM32/USARTv1/serial_lld.c" 1
 224 00b6 83F31188 		msr     BASEPRI, r3
ARM GAS  /tmp/cc2y9FDt.s 			page 5


 225              	@ 0 "" 2
 226              	.LVL22:
 227              		.thumb
 228              	.LBE24:
 229 00ba FFF7FEFF 		bl	dbg_check_lock_from_isr
 230              	.LVL23:
 231              		.loc 1 194 0
 232 00be 301D     		adds	r0, r6, #4
 233 00c0 1021     		movs	r1, #16
 234 00c2 FFF7FEFF 		bl	chEvtBroadcastFlagsI
 235              		.loc 1 195 0
 236 00c6 FFF7FEFF 		bl	dbg_check_unlock_from_isr
 237              	.LBB25:
 238 00ca 0023     		movs	r3, #0
 239              	.LVL24:
 240              	@ 195 "../../ChibiOS/os/hal/platforms/STM32/USARTv1/serial_lld.c" 1
 241 00cc 83F31188 		msr     BASEPRI, r3
 242              	@ 0 "" 2
 243              	.LVL25:
 244              		.thumb
 245              	.LBE25:
 246              		.loc 1 196 0
 247 00d0 4FF6BF70 		movw	r0, #65471
 248 00d4 07EA0002 		and	r2, r7, r0
 249 00d8 AA81     		strh	r2, [r5, #12]	@ movhi
 250              		.loc 1 197 0
 251 00da 2988     		ldrh	r1, [r5, #0]
 252 00dc 21F04003 		bic	r3, r1, #64
 253              	.LVL26:
 254 00e0 1804     		lsls	r0, r3, #16
 255 00e2 020C     		lsrs	r2, r0, #16
 256 00e4 2A80     		strh	r2, [r5, #0]	@ movhi
 257              	.L3:
 258 00e6 BDE8F087 		pop	{r4, r5, r6, r7, r8, r9, sl, pc}
 259              	.LVL27:
 260              	.L17:
 261              	.LBB26:
 262              	.LBB23:
 263              		.loc 1 140 0
 264 00ea D146     		mov	r9, sl
 265 00ec 6146     		mov	r1, ip
 266 00ee 7246     		mov	r2, lr
 267              		.loc 1 141 0
 268 00f0 0346     		mov	r3, r0
 269 00f2 BAE7     		b	.L6
 270              	.LVL28:
 271              	.L18:
 272              	.LBE23:
 273              	.LBE26:
 274              	.LBB27:
 275              		.loc 1 167 0
 276 00f4 2023     		movs	r3, #32
 277              	.LVL29:
 278              	@ 167 "../../ChibiOS/os/hal/platforms/STM32/USARTv1/serial_lld.c" 1
 279 00f6 83F31188 		msr     BASEPRI, r3
 280              	@ 0 "" 2
 281              	.LVL30:
ARM GAS  /tmp/cc2y9FDt.s 			page 6


 282              		.thumb
 283              	.LBE27:
 284 00fa FFF7FEFF 		bl	dbg_check_lock_from_isr
 285              	.LVL31:
 286              		.loc 1 168 0
 287 00fe 301D     		adds	r0, r6, #4
 288 0100 4FF40071 		mov	r1, #512
 289 0104 FFF7FEFF 		bl	chEvtBroadcastFlagsI
 290              		.loc 1 169 0
 291 0108 FFF7FEFF 		bl	dbg_check_unlock_from_isr
 292              	.LBB28:
 293 010c 0023     		movs	r3, #0
 294              	.LVL32:
 295              	@ 169 "../../ChibiOS/os/hal/platforms/STM32/USARTv1/serial_lld.c" 1
 296 010e 83F31188 		msr     BASEPRI, r3
 297              	@ 0 "" 2
 298              	.LVL33:
 299              		.thumb
 300              	.LBE28:
 301              		.loc 1 170 0
 302 0112 2888     		ldrh	r0, [r5, #0]
 303 0114 20F48072 		bic	r2, r0, #256
 304 0118 1104     		lsls	r1, r2, #16
 305 011a 0B0C     		lsrs	r3, r1, #16
 306              	.LVL34:
 307              		.loc 1 173 0
 308 011c A006     		lsls	r0, r4, #26
 309              		.loc 1 170 0
 310 011e 2B80     		strh	r3, [r5, #0]	@ movhi
 311              		.loc 1 173 0
 312 0120 C2D5     		bpl	.L10
 313              	.L19:
 314              	.LBB29:
 315              		.loc 1 174 0
 316 0122 2023     		movs	r3, #32
 317              	.LVL35:
 318              	@ 174 "../../ChibiOS/os/hal/platforms/STM32/USARTv1/serial_lld.c" 1
 319 0124 83F31188 		msr     BASEPRI, r3
 320              	@ 0 "" 2
 321              	.LVL36:
 322              		.thumb
 323              	.LBE29:
 324 0128 FFF7FEFF 		bl	dbg_check_lock_from_isr
 325              	.LVL37:
 326              		.loc 1 175 0
 327 012c 5FFA88F1 		uxtb	r1, r8
 328 0130 3046     		mov	r0, r6
 329 0132 FFF7FEFF 		bl	sdIncomingDataI
 330              		.loc 1 176 0
 331 0136 FFF7FEFF 		bl	dbg_check_unlock_from_isr
 332              	.LBB30:
 333 013a 0023     		movs	r3, #0
 334              	@ 176 "../../ChibiOS/os/hal/platforms/STM32/USARTv1/serial_lld.c" 1
 335 013c 83F31188 		msr     BASEPRI, r3
 336              	@ 0 "" 2
 337              	.LVL38:
 338              		.thumb
ARM GAS  /tmp/cc2y9FDt.s 			page 7


 339 0140 B2E7     		b	.L10
 340              	.L20:
 341              	.LBE30:
 342              	.LBB31:
 343              	.LBB32:
 344              		.loc 1 181 0
 345 0142 2023     		movs	r3, #32
 346              	.LVL39:
 347              	@ 181 "../../ChibiOS/os/hal/platforms/STM32/USARTv1/serial_lld.c" 1
 348 0144 83F31188 		msr     BASEPRI, r3
 349              	@ 0 "" 2
 350              	.LVL40:
 351              		.thumb
 352              	.LBE32:
 353 0148 FFF7FEFF 		bl	dbg_check_lock_from_isr
 354              	.LVL41:
 355              		.loc 1 182 0
 356 014c 06F13000 		add	r0, r6, #48
 357 0150 FFF7FEFF 		bl	chOQGetI
 358              	.LVL42:
 359              		.loc 1 183 0
 360 0154 0028     		cmp	r0, #0
 361 0156 07DB     		blt	.L21
 362              		.loc 1 188 0
 363 0158 81B2     		uxth	r1, r0
 364 015a A980     		strh	r1, [r5, #4]	@ movhi
 365              	.LVL43:
 366              	.L13:
 367              		.loc 1 189 0
 368 015c FFF7FEFF 		bl	dbg_check_unlock_from_isr
 369              	.LBB33:
 370 0160 0023     		movs	r3, #0
 371              	@ 189 "../../ChibiOS/os/hal/platforms/STM32/USARTv1/serial_lld.c" 1
 372 0162 83F31188 		msr     BASEPRI, r3
 373              	@ 0 "" 2
 374              	.LVL44:
 375              		.thumb
 376 0166 A3E7     		b	.L11
 377              	.LVL45:
 378              	.L21:
 379              	.LBE33:
 380              		.loc 1 184 0
 381 0168 301D     		adds	r0, r6, #4
 382              	.LVL46:
 383 016a 0821     		movs	r1, #8
 384 016c FFF7FEFF 		bl	chEvtBroadcastFlagsI
 385              		.loc 1 185 0
 386 0170 27F0C003 		bic	r3, r7, #192
 387 0174 43F0400C 		orr	ip, r3, #64
 388 0178 A5F80CC0 		strh	ip, [r5, #12]	@ movhi
 389 017c EEE7     		b	.L13
 390              	.LBE31:
 391              		.cfi_endproc
 392              	.LFE66:
 393              		.size	serve_interrupt, .-serve_interrupt
 394 017e 00BF     		.section	.text.VectorD4,"ax",%progbits
 395              		.align	2
ARM GAS  /tmp/cc2y9FDt.s 			page 8


 396              		.p2align 4,,15
 397              		.global	VectorD4
 398              		.thumb
 399              		.thumb_func
 400              		.type	VectorD4, %function
 401              	VectorD4:
 402              	.LFB69:
 403              		.loc 1 262 0
 404              		.cfi_startproc
 405              		@ args = 0, pretend = 0, frame = 0
 406              		@ frame_needed = 0, uses_anonymous_args = 0
 407 0000 08B5     		push	{r3, lr}
 408              	.LCFI1:
 409              		.cfi_def_cfa_offset 8
 410              		.cfi_offset 14, -4
 411              		.cfi_offset 3, -8
 412              		.loc 1 264 0
 413 0002 FFF7FEFF 		bl	dbg_check_enter_isr
 414              		.loc 1 266 0
 415 0006 40F20000 		movw	r0, #:lower16:.LANCHOR0
 416 000a C0F20000 		movt	r0, #:upper16:.LANCHOR0
 417 000e FFF7FEFF 		bl	serve_interrupt
 418              		.loc 1 268 0
 419 0012 FFF7FEFF 		bl	dbg_check_leave_isr
 420              		.loc 1 269 0
 421 0016 BDE80840 		pop	{r3, lr}
 422              		.loc 1 268 0
 423 001a FFF7FEBF 		b	_port_irq_epilogue
 424              		.cfi_endproc
 425              	.LFE69:
 426              		.size	VectorD4, .-VectorD4
 427 001e 00BF     		.section	.text.VectorDC,"ax",%progbits
 428              		.align	2
 429              		.p2align 4,,15
 430              		.global	VectorDC
 431              		.thumb
 432              		.thumb_func
 433              		.type	VectorDC, %function
 434              	VectorDC:
 435              	.LFB70:
 436              		.loc 1 300 0
 437              		.cfi_startproc
 438              		@ args = 0, pretend = 0, frame = 0
 439              		@ frame_needed = 0, uses_anonymous_args = 0
 440 0000 08B5     		push	{r3, lr}
 441              	.LCFI2:
 442              		.cfi_def_cfa_offset 8
 443              		.cfi_offset 14, -4
 444              		.cfi_offset 3, -8
 445              		.loc 1 302 0
 446 0002 FFF7FEFF 		bl	dbg_check_enter_isr
 447              		.loc 1 304 0
 448 0006 40F20000 		movw	r0, #:lower16:.LANCHOR1
 449 000a C0F20000 		movt	r0, #:upper16:.LANCHOR1
 450 000e FFF7FEFF 		bl	serve_interrupt
 451              		.loc 1 306 0
 452 0012 FFF7FEFF 		bl	dbg_check_leave_isr
ARM GAS  /tmp/cc2y9FDt.s 			page 9


 453              		.loc 1 307 0
 454 0016 BDE80840 		pop	{r3, lr}
 455              		.loc 1 306 0
 456 001a FFF7FEBF 		b	_port_irq_epilogue
 457              		.cfi_endproc
 458              	.LFE70:
 459              		.size	VectorDC, .-VectorDC
 460 001e 00BF     		.section	.text.sd_lld_init,"ax",%progbits
 461              		.align	2
 462              		.p2align 4,,15
 463              		.global	sd_lld_init
 464              		.thumb
 465              		.thumb_func
 466              		.type	sd_lld_init, %function
 467              	sd_lld_init:
 468              	.LFB71:
 469              		.loc 1 376 0
 470              		.cfi_startproc
 471              		@ args = 0, pretend = 0, frame = 0
 472              		@ frame_needed = 0, uses_anonymous_args = 0
 473 0000 38B5     		push	{r3, r4, r5, lr}
 474              	.LCFI3:
 475              		.cfi_def_cfa_offset 16
 476              		.cfi_offset 14, -4
 477              		.cfi_offset 5, -8
 478              		.cfi_offset 4, -12
 479              		.cfi_offset 3, -16
 480              		.loc 1 379 0
 481 0002 40F20005 		movw	r5, #:lower16:.LANCHOR0
 482 0006 C0F20005 		movt	r5, #:upper16:.LANCHOR0
 483 000a 40F20002 		movw	r2, #:lower16:notify1
 484 000e C0F20002 		movt	r2, #:upper16:notify1
 485 0012 2846     		mov	r0, r5
 486 0014 0021     		movs	r1, #0
 487              		.loc 1 389 0
 488 0016 40F20004 		movw	r4, #:lower16:.LANCHOR1
 489              		.loc 1 379 0
 490 001a FFF7FEFF 		bl	sdObjectInit
 491              		.loc 1 389 0
 492 001e C0F20004 		movt	r4, #:upper16:.LANCHOR1
 493 0022 40F20002 		movw	r2, #:lower16:notify3
 494              		.loc 1 380 0
 495 0026 4FF46053 		mov	r3, #14336
 496 002a C4F20103 		movt	r3, 16385
 497              		.loc 1 389 0
 498 002e C0F20002 		movt	r2, #:upper16:notify3
 499 0032 2046     		mov	r0, r4
 500 0034 0021     		movs	r1, #0
 501              		.loc 1 380 0
 502 0036 C5F85432 		str	r3, [r5, #596]
 503              		.loc 1 389 0
 504 003a FFF7FEFF 		bl	sdObjectInit
 505              		.loc 1 390 0
 506 003e 4FF49043 		mov	r3, #18432
 507 0042 C4F20003 		movt	r3, 16384
 508 0046 C4F85432 		str	r3, [r4, #596]
 509              		.loc 1 407 0
ARM GAS  /tmp/cc2y9FDt.s 			page 10


 510 004a 38BD     		pop	{r3, r4, r5, pc}
 511              		.cfi_endproc
 512              	.LFE71:
 513              		.size	sd_lld_init, .-sd_lld_init
 514 004c AFF30080 		.section	.text.sd_lld_start,"ax",%progbits
 515              		.align	2
 516              		.p2align 4,,15
 517              		.global	sd_lld_start
 518              		.thumb
 519              		.thumb_func
 520              		.type	sd_lld_start, %function
 521              	sd_lld_start:
 522              	.LFB72:
 523              		.loc 1 419 0
 524              		.cfi_startproc
 525              		@ args = 0, pretend = 0, frame = 0
 526              		@ frame_needed = 0, uses_anonymous_args = 0
 527              	.LVL47:
 528 0000 38B5     		push	{r3, r4, r5, lr}
 529              	.LCFI4:
 530              		.cfi_def_cfa_offset 16
 531              		.cfi_offset 14, -4
 532              		.cfi_offset 5, -8
 533              		.cfi_offset 4, -12
 534              		.cfi_offset 3, -16
 535              		.loc 1 424 0
 536 0002 037A     		ldrb	r3, [r0, #8]	@ zero_extendqisi2
 537              		.loc 1 422 0
 538 0004 264C     		ldr	r4, .L34
 539              		.loc 1 419 0
 540 0006 0546     		mov	r5, r0
 541              		.loc 1 422 0
 542 0008 0029     		cmp	r1, #0
 543 000a 18BF     		it	ne
 544 000c 0C46     		movne	r4, r1
 545              		.loc 1 424 0
 546 000e 012B     		cmp	r3, #1
 547 0010 24D0     		beq	.L32
 548              	.LVL48:
 549              	.L27:
 550              	.LBB34:
 551              	.LBB35:
 552              		.loc 1 101 0
 553 0012 2268     		ldr	r2, [r4, #0]
 554 0014 4FF4A240 		mov	r0, #20736
 555 0018 C0F22520 		movt	r0, 549
 556              		.loc 1 93 0
 557 001c D5F85432 		ldr	r3, [r5, #596]
 558              	.LVL49:
 559              		.loc 1 101 0
 560 0020 B0FBF2F1 		udiv	r1, r0, r2
 561 0024 8AB2     		uxth	r2, r1
 562 0026 1A81     		strh	r2, [r3, #8]	@ movhi
 563              		.loc 1 108 0
 564 0028 B4F804C0 		ldrh	ip, [r4, #4]
 565              		.loc 1 106 0
 566 002c E088     		ldrh	r0, [r4, #6]
ARM GAS  /tmp/cc2y9FDt.s 			page 11


 567              		.loc 1 107 0
 568 002e 2189     		ldrh	r1, [r4, #8]
 569              		.loc 1 108 0
 570 0030 4CF40452 		orr	r2, ip, #8448
 571              		.loc 1 106 0
 572 0034 40F0400C 		orr	ip, r0, #64
 573 0038 1FFA8CF0 		uxth	r0, ip
 574              		.loc 1 107 0
 575 003c 41F00101 		orr	r1, r1, #1
 576              		.loc 1 108 0
 577 0040 42F02C02 		orr	r2, r2, #44
 578              		.loc 1 106 0
 579 0044 1882     		strh	r0, [r3, #16]	@ movhi
 580              		.loc 1 108 0
 581 0046 92B2     		uxth	r2, r2
 582              		.loc 1 107 0
 583 0048 1FFA81FC 		uxth	ip, r1
 584              		.loc 1 111 0
 585 004c 0020     		movs	r0, #0
 586              		.loc 1 107 0
 587 004e A3F814C0 		strh	ip, [r3, #20]	@ movhi
 588              		.loc 1 108 0
 589 0052 9A81     		strh	r2, [r3, #12]	@ movhi
 590              		.loc 1 111 0
 591 0054 1880     		strh	r0, [r3, #0]	@ movhi
 592              		.loc 1 112 0
 593 0056 1A88     		ldrh	r2, [r3, #0]
 594              		.loc 1 113 0
 595 0058 9B88     		ldrh	r3, [r3, #4]
 596              	.LBE35:
 597              	.LBE34:
 598              		.loc 1 469 0
 599 005a 38BD     		pop	{r3, r4, r5, pc}
 600              	.LVL50:
 601              	.L32:
 602              		.loc 1 426 0
 603 005c 1148     		ldr	r0, .L34+4
 604 005e 8542     		cmp	r5, r0
 605 0060 11D0     		beq	.L33
 606              		.loc 1 440 0
 607 0062 1148     		ldr	r0, .L34+8
 608 0064 8542     		cmp	r5, r0
 609 0066 D4D1     		bne	.L27
 610              		.loc 1 441 0
 611 0068 4FF4805C 		mov	ip, #4096
 612 006c C4F2020C 		movt	ip, 16386
 613 0070 DCF81C10 		ldr	r1, [ip, #28]
 614              	.LVL51:
 615              		.loc 1 442 0
 616 0074 2720     		movs	r0, #39
 617              		.loc 1 441 0
 618 0076 41F48022 		orr	r2, r1, #262144
 619 007a CCF81C20 		str	r2, [ip, #28]
 620              		.loc 1 442 0
 621 007e C021     		movs	r1, #192
 622 0080 FFF7FEFF 		bl	nvicEnableVector
 623 0084 C5E7     		b	.L27
ARM GAS  /tmp/cc2y9FDt.s 			page 12


 624              	.LVL52:
 625              	.L33:
 626              		.loc 1 427 0
 627 0086 4FF48051 		mov	r1, #4096
 628              	.LVL53:
 629 008a C4F20201 		movt	r1, 16386
 630 008e 8B69     		ldr	r3, [r1, #24]
 631              		.loc 1 428 0
 632 0090 2520     		movs	r0, #37
 633              		.loc 1 427 0
 634 0092 43F48042 		orr	r2, r3, #16384
 635 0096 8A61     		str	r2, [r1, #24]
 636              		.loc 1 428 0
 637 0098 C021     		movs	r1, #192
 638 009a FFF7FEFF 		bl	nvicEnableVector
 639 009e B8E7     		b	.L27
 640              	.L35:
 641              		.align	2
 642              	.L34:
 643 00a0 00000000 		.word	.LANCHOR2
 644 00a4 00000000 		.word	.LANCHOR0
 645 00a8 00000000 		.word	.LANCHOR1
 646              		.cfi_endproc
 647              	.LFE72:
 648              		.size	sd_lld_start, .-sd_lld_start
 649 00ac AFF30080 		.section	.text.sd_lld_stop,"ax",%progbits
 650              		.align	2
 651              		.p2align 4,,15
 652              		.global	sd_lld_stop
 653              		.thumb
 654              		.thumb_func
 655              		.type	sd_lld_stop, %function
 656              	sd_lld_stop:
 657              	.LFB73:
 658              		.loc 1 480 0
 659              		.cfi_startproc
 660              		@ args = 0, pretend = 0, frame = 0
 661              		@ frame_needed = 0, uses_anonymous_args = 0
 662              		@ link register save eliminated.
 663              	.LVL54:
 664              		.loc 1 482 0
 665 0000 037A     		ldrb	r3, [r0, #8]	@ zero_extendqisi2
 666 0002 022B     		cmp	r3, #2
 667 0004 00D0     		beq	.L39
 668              	.L36:
 669 0006 7047     		bx	lr
 670              	.LVL55:
 671              	.L39:
 672              		.loc 1 485 0
 673 0008 1149     		ldr	r1, .L41
 674              	.LVL56:
 675              		.loc 1 483 0
 676 000a D0F85432 		ldr	r3, [r0, #596]
 677              	.LVL57:
 678              	.LBB36:
 679              	.LBB37:
 680              		.loc 1 124 0
ARM GAS  /tmp/cc2y9FDt.s 			page 13


 681 000e 0022     		movs	r2, #0
 682              	.LBE37:
 683              	.LBE36:
 684              		.loc 1 485 0
 685 0010 8842     		cmp	r0, r1
 686              	.LBB39:
 687              	.LBB38:
 688              		.loc 1 124 0
 689 0012 9A81     		strh	r2, [r3, #12]	@ movhi
 690              		.loc 1 125 0
 691 0014 1A82     		strh	r2, [r3, #16]	@ movhi
 692              		.loc 1 126 0
 693 0016 9A82     		strh	r2, [r3, #20]	@ movhi
 694              	.LBE38:
 695              	.LBE39:
 696              		.loc 1 485 0
 697 0018 0DD0     		beq	.L40
 698              		.loc 1 499 0
 699 001a 0E4A     		ldr	r2, .L41+4
 700 001c 9042     		cmp	r0, r2
 701 001e F2D1     		bne	.L36
 702              		.loc 1 500 0
 703 0020 4FF48053 		mov	r3, #4096
 704 0024 C4F20203 		movt	r3, 16386
 705 0028 D969     		ldr	r1, [r3, #28]
 706 002a 21F48020 		bic	r0, r1, #262144
 707              	.LVL58:
 708 002e D861     		str	r0, [r3, #28]
 709              		.loc 1 501 0
 710 0030 2720     		movs	r0, #39
 711              		.loc 1 527 0
 712              		.loc 1 501 0
 713 0032 FFF7FEBF 		b	nvicDisableVector
 714              	.LVL59:
 715              	.L40:
 716              		.loc 1 486 0
 717 0036 4FF4805C 		mov	ip, #4096
 718 003a C4F2020C 		movt	ip, 16386
 719 003e DCF81810 		ldr	r1, [ip, #24]
 720 0042 21F48040 		bic	r0, r1, #16384
 721              	.LVL60:
 722 0046 CCF81800 		str	r0, [ip, #24]
 723              		.loc 1 487 0
 724 004a 2520     		movs	r0, #37
 725              		.loc 1 527 0
 726              		.loc 1 487 0
 727 004c FFF7FEBF 		b	nvicDisableVector
 728              	.LVL61:
 729              	.L42:
 730              		.align	2
 731              	.L41:
 732 0050 00000000 		.word	.LANCHOR0
 733 0054 00000000 		.word	.LANCHOR1
 734              		.cfi_endproc
 735              	.LFE73:
 736              		.size	sd_lld_stop, .-sd_lld_stop
 737              		.global	SD3
ARM GAS  /tmp/cc2y9FDt.s 			page 14


 738              		.global	SD1
 739 0058 AFF30080 		.section	.rodata.default_config,"a",%progbits
 739      AFF30080 
 740              		.align	2
 741              		.set	.LANCHOR2,. + 0
 742              		.type	default_config, %object
 743              		.size	default_config, 12
 744              	default_config:
 745 0000 00C20100 		.word	115200
 746 0004 0000     		.short	0
 747 0006 0040     		.short	16384
 748 0008 0000     		.short	0
 749 000a 0000     		.space	2
 750              		.section	.bss.SD1,"aw",%nobits
 751              		.align	2
 752              		.set	.LANCHOR0,. + 0
 753              		.type	SD1, %object
 754              		.size	SD1, 600
 755              	SD1:
 756 0000 00000000 		.space	600
 756      00000000 
 756      00000000 
 756      00000000 
 756      00000000 
 757              		.section	.bss.SD3,"aw",%nobits
 758              		.align	2
 759              		.set	.LANCHOR1,. + 0
 760              		.type	SD3, %object
 761              		.size	SD3, 600
 762              	SD3:
 763 0000 00000000 		.space	600
 763      00000000 
 763      00000000 
 763      00000000 
 763      00000000 
 764              		.text
 765              	.Letext0:
 766              		.file 2 "/home/tino/ChibiStudio/tools/GNU Tools ARM Embedded/4.6 2012q2/bin/../lib/gcc/arm-none-ea
 767              		.file 3 "/home/tino/ChibiStudio/tools/GNU Tools ARM Embedded/4.6 2012q2/bin/../lib/gcc/arm-none-ea
 768              		.file 4 "../../ChibiOS/os/ports/GCC/ARMCMx/chtypes.h"
 769              		.file 5 "../../ChibiOS/os/kernel/include/chlists.h"
 770              		.file 6 "../../ChibiOS/os/kernel/include/chthreads.h"
 771              		.file 7 "../../ChibiOS/os/ports/GCC/ARMCMx/chcore_v7m.h"
 772              		.file 8 "../../ChibiOS/os/kernel/include/chmtx.h"
 773              		.file 9 "../../ChibiOS/os/kernel/include/chevents.h"
 774              		.file 10 "../../ChibiOS/os/kernel/include/chqueues.h"
 775              		.file 11 "../../ChibiOS/os/hal/platforms/STM32F1xx/stm32f10x.h"
 776              		.file 12 "../../ChibiOS/os/hal/include/serial.h"
 777              		.file 13 "../../ChibiOS/os/hal/platforms/STM32/USARTv1/serial_lld.h"
 778              		.file 14 "../../ChibiOS/os/ports/common/ARMCMx/CMSIS/include/core_cm3.h"
 779              		.section	.debug_info,"",%progbits
 780              	.Ldebug_info0:
 781 0000 D40E0000 		.4byte	0xed4
 782 0004 0200     		.2byte	0x2
 783 0006 00000000 		.4byte	.Ldebug_abbrev0
 784 000a 04       		.byte	0x4
 785 000b 01       		.uleb128 0x1
ARM GAS  /tmp/cc2y9FDt.s 			page 15


 786 000c 59010000 		.4byte	.LASF184
 787 0010 01       		.byte	0x1
 788 0011 ED030000 		.4byte	.LASF185
 789 0015 A2010000 		.4byte	.LASF186
 790 0019 00000000 		.4byte	0
 791 001d 00000000 		.4byte	0
 792 0021 48000000 		.4byte	.Ldebug_ranges0+0x48
 793 0025 00000000 		.4byte	.Ldebug_line0
 794 0029 02       		.uleb128 0x2
 795 002a 04       		.byte	0x4
 796 002b 05       		.byte	0x5
 797 002c 696E7400 		.ascii	"int\000"
 798 0030 03       		.uleb128 0x3
 799 0031 12000000 		.4byte	.LASF2
 800 0035 02       		.byte	0x2
 801 0036 D4       		.byte	0xd4
 802 0037 3B000000 		.4byte	0x3b
 803 003b 04       		.uleb128 0x4
 804 003c 04       		.byte	0x4
 805 003d 07       		.byte	0x7
 806 003e 6A020000 		.4byte	.LASF0
 807 0042 04       		.uleb128 0x4
 808 0043 01       		.byte	0x1
 809 0044 06       		.byte	0x6
 810 0045 FC000000 		.4byte	.LASF1
 811 0049 03       		.uleb128 0x3
 812 004a 92070000 		.4byte	.LASF3
 813 004e 03       		.byte	0x3
 814 004f 2A       		.byte	0x2a
 815 0050 54000000 		.4byte	0x54
 816 0054 04       		.uleb128 0x4
 817 0055 01       		.byte	0x1
 818 0056 08       		.byte	0x8
 819 0057 39050000 		.4byte	.LASF4
 820 005b 04       		.uleb128 0x4
 821 005c 02       		.byte	0x2
 822 005d 05       		.byte	0x5
 823 005e 9B050000 		.4byte	.LASF5
 824 0062 03       		.uleb128 0x3
 825 0063 77020000 		.4byte	.LASF6
 826 0067 03       		.byte	0x3
 827 0068 36       		.byte	0x36
 828 0069 6D000000 		.4byte	0x6d
 829 006d 04       		.uleb128 0x4
 830 006e 02       		.byte	0x2
 831 006f 07       		.byte	0x7
 832 0070 F5020000 		.4byte	.LASF7
 833 0074 03       		.uleb128 0x3
 834 0075 31050000 		.4byte	.LASF8
 835 0079 03       		.byte	0x3
 836 007a 4F       		.byte	0x4f
 837 007b 7F000000 		.4byte	0x7f
 838 007f 04       		.uleb128 0x4
 839 0080 04       		.byte	0x4
 840 0081 05       		.byte	0x5
 841 0082 50010000 		.4byte	.LASF9
 842 0086 03       		.uleb128 0x3
ARM GAS  /tmp/cc2y9FDt.s 			page 16


 843 0087 3D060000 		.4byte	.LASF10
 844 008b 03       		.byte	0x3
 845 008c 50       		.byte	0x50
 846 008d 91000000 		.4byte	0x91
 847 0091 04       		.uleb128 0x4
 848 0092 04       		.byte	0x4
 849 0093 07       		.byte	0x7
 850 0094 6F060000 		.4byte	.LASF11
 851 0098 04       		.uleb128 0x4
 852 0099 08       		.byte	0x8
 853 009a 05       		.byte	0x5
 854 009b EE000000 		.4byte	.LASF12
 855 009f 03       		.uleb128 0x3
 856 00a0 20000000 		.4byte	.LASF13
 857 00a4 03       		.byte	0x3
 858 00a5 78       		.byte	0x78
 859 00a6 AA000000 		.4byte	0xaa
 860 00aa 04       		.uleb128 0x4
 861 00ab 08       		.byte	0x8
 862 00ac 07       		.byte	0x7
 863 00ad 69000000 		.4byte	.LASF14
 864 00b1 04       		.uleb128 0x4
 865 00b2 01       		.byte	0x1
 866 00b3 02       		.byte	0x2
 867 00b4 2B050000 		.4byte	.LASF15
 868 00b8 03       		.uleb128 0x3
 869 00b9 55030000 		.4byte	.LASF16
 870 00bd 04       		.byte	0x4
 871 00be 25       		.byte	0x25
 872 00bf 49000000 		.4byte	0x49
 873 00c3 03       		.uleb128 0x3
 874 00c4 D3010000 		.4byte	.LASF17
 875 00c8 04       		.byte	0x4
 876 00c9 26       		.byte	0x26
 877 00ca 49000000 		.4byte	0x49
 878 00ce 03       		.uleb128 0x3
 879 00cf C4040000 		.4byte	.LASF18
 880 00d3 04       		.byte	0x4
 881 00d4 27       		.byte	0x27
 882 00d5 49000000 		.4byte	0x49
 883 00d9 03       		.uleb128 0x3
 884 00da 25010000 		.4byte	.LASF19
 885 00de 04       		.byte	0x4
 886 00df 28       		.byte	0x28
 887 00e0 49000000 		.4byte	0x49
 888 00e4 03       		.uleb128 0x3
 889 00e5 0F050000 		.4byte	.LASF20
 890 00e9 04       		.byte	0x4
 891 00ea 29       		.byte	0x29
 892 00eb 86000000 		.4byte	0x86
 893 00ef 03       		.uleb128 0x3
 894 00f0 1A030000 		.4byte	.LASF21
 895 00f4 04       		.byte	0x4
 896 00f5 2A       		.byte	0x2a
 897 00f6 74000000 		.4byte	0x74
 898 00fa 03       		.uleb128 0x3
 899 00fb 69030000 		.4byte	.LASF22
ARM GAS  /tmp/cc2y9FDt.s 			page 17


 900 00ff 04       		.byte	0x4
 901 0100 2C       		.byte	0x2c
 902 0101 86000000 		.4byte	0x86
 903 0105 03       		.uleb128 0x3
 904 0106 80000000 		.4byte	.LASF23
 905 010a 04       		.byte	0x4
 906 010b 2D       		.byte	0x2d
 907 010c 86000000 		.4byte	0x86
 908 0110 03       		.uleb128 0x3
 909 0111 C3060000 		.4byte	.LASF24
 910 0115 04       		.byte	0x4
 911 0116 2E       		.byte	0x2e
 912 0117 86000000 		.4byte	0x86
 913 011b 03       		.uleb128 0x3
 914 011c FC050000 		.4byte	.LASF25
 915 0120 05       		.byte	0x5
 916 0121 23       		.byte	0x23
 917 0122 26010000 		.4byte	0x126
 918 0126 05       		.uleb128 0x5
 919 0127 FC050000 		.4byte	.LASF25
 920 012b 4C       		.byte	0x4c
 921 012c 06       		.byte	0x6
 922 012d 57       		.byte	0x57
 923 012e 59020000 		.4byte	0x259
 924 0132 06       		.uleb128 0x6
 925 0133 37040000 		.4byte	.LASF26
 926 0137 06       		.byte	0x6
 927 0138 58       		.byte	0x58
 928 0139 7E020000 		.4byte	0x27e
 929 013d 02       		.byte	0x2
 930 013e 23       		.byte	0x23
 931 013f 00       		.uleb128 0
 932 0140 06       		.uleb128 0x6
 933 0141 FE040000 		.4byte	.LASF27
 934 0145 06       		.byte	0x6
 935 0146 5A       		.byte	0x5a
 936 0147 7E020000 		.4byte	0x27e
 937 014b 02       		.byte	0x2
 938 014c 23       		.byte	0x23
 939 014d 04       		.uleb128 0x4
 940 014e 06       		.uleb128 0x6
 941 014f D7000000 		.4byte	.LASF28
 942 0153 06       		.byte	0x6
 943 0154 5C       		.byte	0x5c
 944 0155 E4000000 		.4byte	0xe4
 945 0159 02       		.byte	0x2
 946 015a 23       		.byte	0x23
 947 015b 08       		.uleb128 0x8
 948 015c 06       		.uleb128 0x6
 949 015d 34080000 		.4byte	.LASF29
 950 0161 06       		.byte	0x6
 951 0162 5D       		.byte	0x5d
 952 0163 57030000 		.4byte	0x357
 953 0167 02       		.byte	0x2
 954 0168 23       		.byte	0x23
 955 0169 0C       		.uleb128 0xc
 956 016a 06       		.uleb128 0x6
ARM GAS  /tmp/cc2y9FDt.s 			page 18


 957 016b 0D020000 		.4byte	.LASF30
 958 016f 06       		.byte	0x6
 959 0170 5F       		.byte	0x5f
 960 0171 7E020000 		.4byte	0x27e
 961 0175 02       		.byte	0x2
 962 0176 23       		.byte	0x23
 963 0177 10       		.uleb128 0x10
 964 0178 06       		.uleb128 0x6
 965 0179 AF050000 		.4byte	.LASF31
 966 017d 06       		.byte	0x6
 967 017e 60       		.byte	0x60
 968 017f 7E020000 		.4byte	0x27e
 969 0183 02       		.byte	0x2
 970 0184 23       		.byte	0x23
 971 0185 14       		.uleb128 0x14
 972 0186 06       		.uleb128 0x6
 973 0187 F4060000 		.4byte	.LASF32
 974 018b 06       		.byte	0x6
 975 018c 67       		.byte	0x67
 976 018d 7D040000 		.4byte	0x47d
 977 0191 02       		.byte	0x2
 978 0192 23       		.byte	0x23
 979 0193 18       		.uleb128 0x18
 980 0194 06       		.uleb128 0x6
 981 0195 67040000 		.4byte	.LASF33
 982 0199 06       		.byte	0x6
 983 019a 6D       		.byte	0x6d
 984 019b 8F040000 		.4byte	0x48f
 985 019f 02       		.byte	0x2
 986 01a0 23       		.byte	0x23
 987 01a1 1C       		.uleb128 0x1c
 988 01a2 06       		.uleb128 0x6
 989 01a3 0D010000 		.4byte	.LASF34
 990 01a7 06       		.byte	0x6
 991 01a8 72       		.byte	0x72
 992 01a9 C3000000 		.4byte	0xc3
 993 01ad 02       		.byte	0x2
 994 01ae 23       		.byte	0x23
 995 01af 20       		.uleb128 0x20
 996 01b0 06       		.uleb128 0x6
 997 01b1 D1050000 		.4byte	.LASF35
 998 01b5 06       		.byte	0x6
 999 01b6 76       		.byte	0x76
 1000 01b7 B8000000 		.4byte	0xb8
 1001 01bb 02       		.byte	0x2
 1002 01bc 23       		.byte	0x23
 1003 01bd 21       		.uleb128 0x21
 1004 01be 06       		.uleb128 0x6
 1005 01bf E9010000 		.4byte	.LASF36
 1006 01c3 06       		.byte	0x6
 1007 01c4 7B       		.byte	0x7b
 1008 01c5 CE000000 		.4byte	0xce
 1009 01c9 02       		.byte	0x2
 1010 01ca 23       		.byte	0x23
 1011 01cb 22       		.uleb128 0x22
 1012 01cc 06       		.uleb128 0x6
 1013 01cd A5050000 		.4byte	.LASF37
ARM GAS  /tmp/cc2y9FDt.s 			page 19


 1014 01d1 06       		.byte	0x6
 1015 01d2 81       		.byte	0x81
 1016 01d3 D9000000 		.4byte	0xd9
 1017 01d7 02       		.byte	0x2
 1018 01d8 23       		.byte	0x23
 1019 01d9 23       		.uleb128 0x23
 1020 01da 06       		.uleb128 0x6
 1021 01db 90020000 		.4byte	.LASF38
 1022 01df 06       		.byte	0x6
 1023 01e0 88       		.byte	0x88
 1024 01e1 7F030000 		.4byte	0x37f
 1025 01e5 02       		.byte	0x2
 1026 01e6 23       		.byte	0x23
 1027 01e7 24       		.uleb128 0x24
 1028 01e8 07       		.uleb128 0x7
 1029 01e9 705F7500 		.ascii	"p_u\000"
 1030 01ed 06       		.byte	0x6
 1031 01ee AD       		.byte	0xad
 1032 01ef 48040000 		.4byte	0x448
 1033 01f3 02       		.byte	0x2
 1034 01f4 23       		.byte	0x23
 1035 01f5 28       		.uleb128 0x28
 1036 01f6 06       		.uleb128 0x6
 1037 01f7 3A080000 		.4byte	.LASF39
 1038 01fb 06       		.byte	0x6
 1039 01fc B2       		.byte	0xb2
 1040 01fd A6020000 		.4byte	0x2a6
 1041 0201 02       		.byte	0x2
 1042 0202 23       		.byte	0x23
 1043 0203 2C       		.uleb128 0x2c
 1044 0204 06       		.uleb128 0x6
 1045 0205 C0020000 		.4byte	.LASF40
 1046 0209 06       		.byte	0x6
 1047 020a B8       		.byte	0xb8
 1048 020b 84020000 		.4byte	0x284
 1049 020f 02       		.byte	0x2
 1050 0210 23       		.byte	0x23
 1051 0211 30       		.uleb128 0x30
 1052 0212 06       		.uleb128 0x6
 1053 0213 E7070000 		.4byte	.LASF41
 1054 0217 06       		.byte	0x6
 1055 0218 BC       		.byte	0xbc
 1056 0219 EF000000 		.4byte	0xef
 1057 021d 02       		.byte	0x2
 1058 021e 23       		.byte	0x23
 1059 021f 38       		.uleb128 0x38
 1060 0220 06       		.uleb128 0x6
 1061 0221 1E060000 		.4byte	.LASF42
 1062 0225 06       		.byte	0x6
 1063 0226 C2       		.byte	0xc2
 1064 0227 FA000000 		.4byte	0xfa
 1065 022b 02       		.byte	0x2
 1066 022c 23       		.byte	0x23
 1067 022d 3C       		.uleb128 0x3c
 1068 022e 06       		.uleb128 0x6
 1069 022f 91050000 		.4byte	.LASF43
 1070 0233 06       		.byte	0x6
ARM GAS  /tmp/cc2y9FDt.s 			page 20


 1071 0234 C9       		.byte	0xc9
 1072 0235 95040000 		.4byte	0x495
 1073 0239 02       		.byte	0x2
 1074 023a 23       		.byte	0x23
 1075 023b 40       		.uleb128 0x40
 1076 023c 06       		.uleb128 0x6
 1077 023d 2E020000 		.4byte	.LASF44
 1078 0241 06       		.byte	0x6
 1079 0242 CD       		.byte	0xcd
 1080 0243 E4000000 		.4byte	0xe4
 1081 0247 02       		.byte	0x2
 1082 0248 23       		.byte	0x23
 1083 0249 44       		.uleb128 0x44
 1084 024a 06       		.uleb128 0x6
 1085 024b 15010000 		.4byte	.LASF45
 1086 024f 06       		.byte	0x6
 1087 0250 D3       		.byte	0xd3
 1088 0251 BC020000 		.4byte	0x2bc
 1089 0255 02       		.byte	0x2
 1090 0256 23       		.byte	0x23
 1091 0257 48       		.uleb128 0x48
 1092 0258 00       		.byte	0
 1093 0259 08       		.uleb128 0x8
 1094 025a 08       		.byte	0x8
 1095 025b 05       		.byte	0x5
 1096 025c 5A       		.byte	0x5a
 1097 025d 7E020000 		.4byte	0x27e
 1098 0261 06       		.uleb128 0x6
 1099 0262 37040000 		.4byte	.LASF26
 1100 0266 05       		.byte	0x5
 1101 0267 5B       		.byte	0x5b
 1102 0268 7E020000 		.4byte	0x27e
 1103 026c 02       		.byte	0x2
 1104 026d 23       		.byte	0x23
 1105 026e 00       		.uleb128 0
 1106 026f 06       		.uleb128 0x6
 1107 0270 FE040000 		.4byte	.LASF27
 1108 0274 05       		.byte	0x5
 1109 0275 5D       		.byte	0x5d
 1110 0276 7E020000 		.4byte	0x27e
 1111 027a 02       		.byte	0x2
 1112 027b 23       		.byte	0x23
 1113 027c 04       		.uleb128 0x4
 1114 027d 00       		.byte	0
 1115 027e 09       		.uleb128 0x9
 1116 027f 04       		.byte	0x4
 1117 0280 1B010000 		.4byte	0x11b
 1118 0284 03       		.uleb128 0x3
 1119 0285 5A040000 		.4byte	.LASF46
 1120 0289 05       		.byte	0x5
 1121 028a 5F       		.byte	0x5f
 1122 028b 59020000 		.4byte	0x259
 1123 028f 08       		.uleb128 0x8
 1124 0290 04       		.byte	0x4
 1125 0291 05       		.byte	0x5
 1126 0292 64       		.byte	0x64
 1127 0293 A6020000 		.4byte	0x2a6
ARM GAS  /tmp/cc2y9FDt.s 			page 21


 1128 0297 06       		.uleb128 0x6
 1129 0298 37040000 		.4byte	.LASF26
 1130 029c 05       		.byte	0x5
 1131 029d 66       		.byte	0x66
 1132 029e 7E020000 		.4byte	0x27e
 1133 02a2 02       		.byte	0x2
 1134 02a3 23       		.byte	0x23
 1135 02a4 00       		.uleb128 0
 1136 02a5 00       		.byte	0
 1137 02a6 03       		.uleb128 0x3
 1138 02a7 5D030000 		.4byte	.LASF47
 1139 02ab 05       		.byte	0x5
 1140 02ac 69       		.byte	0x69
 1141 02ad 8F020000 		.4byte	0x28f
 1142 02b1 03       		.uleb128 0x3
 1143 02b2 39020000 		.4byte	.LASF48
 1144 02b6 07       		.byte	0x7
 1145 02b7 DE       		.byte	0xde
 1146 02b8 BC020000 		.4byte	0x2bc
 1147 02bc 0A       		.uleb128 0xa
 1148 02bd 04       		.byte	0x4
 1149 02be 03       		.uleb128 0x3
 1150 02bf AB030000 		.4byte	.LASF49
 1151 02c3 07       		.byte	0x7
 1152 02c4 E4       		.byte	0xe4
 1153 02c5 9F000000 		.4byte	0x9f
 1154 02c9 0B       		.uleb128 0xb
 1155 02ca 17070000 		.4byte	.LASF50
 1156 02ce 24       		.byte	0x24
 1157 02cf 07       		.byte	0x7
 1158 02d0 0501     		.2byte	0x105
 1159 02d2 57030000 		.4byte	0x357
 1160 02d6 0C       		.uleb128 0xc
 1161 02d7 723400   		.ascii	"r4\000"
 1162 02da 07       		.byte	0x7
 1163 02db 1801     		.2byte	0x118
 1164 02dd B1020000 		.4byte	0x2b1
 1165 02e1 02       		.byte	0x2
 1166 02e2 23       		.byte	0x23
 1167 02e3 00       		.uleb128 0
 1168 02e4 0C       		.uleb128 0xc
 1169 02e5 723500   		.ascii	"r5\000"
 1170 02e8 07       		.byte	0x7
 1171 02e9 1901     		.2byte	0x119
 1172 02eb B1020000 		.4byte	0x2b1
 1173 02ef 02       		.byte	0x2
 1174 02f0 23       		.byte	0x23
 1175 02f1 04       		.uleb128 0x4
 1176 02f2 0C       		.uleb128 0xc
 1177 02f3 723600   		.ascii	"r6\000"
 1178 02f6 07       		.byte	0x7
 1179 02f7 1A01     		.2byte	0x11a
 1180 02f9 B1020000 		.4byte	0x2b1
 1181 02fd 02       		.byte	0x2
 1182 02fe 23       		.byte	0x23
 1183 02ff 08       		.uleb128 0x8
 1184 0300 0C       		.uleb128 0xc
ARM GAS  /tmp/cc2y9FDt.s 			page 22


 1185 0301 723700   		.ascii	"r7\000"
 1186 0304 07       		.byte	0x7
 1187 0305 1B01     		.2byte	0x11b
 1188 0307 B1020000 		.4byte	0x2b1
 1189 030b 02       		.byte	0x2
 1190 030c 23       		.byte	0x23
 1191 030d 0C       		.uleb128 0xc
 1192 030e 0C       		.uleb128 0xc
 1193 030f 723800   		.ascii	"r8\000"
 1194 0312 07       		.byte	0x7
 1195 0313 1C01     		.2byte	0x11c
 1196 0315 B1020000 		.4byte	0x2b1
 1197 0319 02       		.byte	0x2
 1198 031a 23       		.byte	0x23
 1199 031b 10       		.uleb128 0x10
 1200 031c 0C       		.uleb128 0xc
 1201 031d 723900   		.ascii	"r9\000"
 1202 0320 07       		.byte	0x7
 1203 0321 1D01     		.2byte	0x11d
 1204 0323 B1020000 		.4byte	0x2b1
 1205 0327 02       		.byte	0x2
 1206 0328 23       		.byte	0x23
 1207 0329 14       		.uleb128 0x14
 1208 032a 0C       		.uleb128 0xc
 1209 032b 72313000 		.ascii	"r10\000"
 1210 032f 07       		.byte	0x7
 1211 0330 1E01     		.2byte	0x11e
 1212 0332 B1020000 		.4byte	0x2b1
 1213 0336 02       		.byte	0x2
 1214 0337 23       		.byte	0x23
 1215 0338 18       		.uleb128 0x18
 1216 0339 0C       		.uleb128 0xc
 1217 033a 72313100 		.ascii	"r11\000"
 1218 033e 07       		.byte	0x7
 1219 033f 1F01     		.2byte	0x11f
 1220 0341 B1020000 		.4byte	0x2b1
 1221 0345 02       		.byte	0x2
 1222 0346 23       		.byte	0x23
 1223 0347 1C       		.uleb128 0x1c
 1224 0348 0C       		.uleb128 0xc
 1225 0349 6C7200   		.ascii	"lr\000"
 1226 034c 07       		.byte	0x7
 1227 034d 2001     		.2byte	0x120
 1228 034f B1020000 		.4byte	0x2b1
 1229 0353 02       		.byte	0x2
 1230 0354 23       		.byte	0x23
 1231 0355 20       		.uleb128 0x20
 1232 0356 00       		.byte	0
 1233 0357 0B       		.uleb128 0xb
 1234 0358 0F070000 		.4byte	.LASF51
 1235 035c 04       		.byte	0x4
 1236 035d 07       		.byte	0x7
 1237 035e 2A01     		.2byte	0x12a
 1238 0360 74030000 		.4byte	0x374
 1239 0364 0C       		.uleb128 0xc
 1240 0365 72313300 		.ascii	"r13\000"
 1241 0369 07       		.byte	0x7
ARM GAS  /tmp/cc2y9FDt.s 			page 23


 1242 036a 2B01     		.2byte	0x12b
 1243 036c 74030000 		.4byte	0x374
 1244 0370 02       		.byte	0x2
 1245 0371 23       		.byte	0x23
 1246 0372 00       		.uleb128 0
 1247 0373 00       		.byte	0
 1248 0374 09       		.uleb128 0x9
 1249 0375 04       		.byte	0x4
 1250 0376 C9020000 		.4byte	0x2c9
 1251 037a 0D       		.uleb128 0xd
 1252 037b 86000000 		.4byte	0x86
 1253 037f 0D       		.uleb128 0xd
 1254 0380 10010000 		.4byte	0x110
 1255 0384 05       		.uleb128 0x5
 1256 0385 31040000 		.4byte	.LASF52
 1257 0389 10       		.byte	0x10
 1258 038a 08       		.byte	0x8
 1259 038b 25       		.byte	0x25
 1260 038c BB030000 		.4byte	0x3bb
 1261 0390 06       		.uleb128 0x6
 1262 0391 1D010000 		.4byte	.LASF53
 1263 0395 08       		.byte	0x8
 1264 0396 26       		.byte	0x26
 1265 0397 84020000 		.4byte	0x284
 1266 039b 02       		.byte	0x2
 1267 039c 23       		.byte	0x23
 1268 039d 00       		.uleb128 0
 1269 039e 06       		.uleb128 0x6
 1270 039f 22080000 		.4byte	.LASF54
 1271 03a3 08       		.byte	0x8
 1272 03a4 28       		.byte	0x28
 1273 03a5 7E020000 		.4byte	0x27e
 1274 03a9 02       		.byte	0x2
 1275 03aa 23       		.byte	0x23
 1276 03ab 08       		.uleb128 0x8
 1277 03ac 06       		.uleb128 0x6
 1278 03ad BC060000 		.4byte	.LASF55
 1279 03b1 08       		.byte	0x8
 1280 03b2 2A       		.byte	0x2a
 1281 03b3 BB030000 		.4byte	0x3bb
 1282 03b7 02       		.byte	0x2
 1283 03b8 23       		.byte	0x23
 1284 03b9 0C       		.uleb128 0xc
 1285 03ba 00       		.byte	0
 1286 03bb 09       		.uleb128 0x9
 1287 03bc 04       		.byte	0x4
 1288 03bd 84030000 		.4byte	0x384
 1289 03c1 03       		.uleb128 0x3
 1290 03c2 31040000 		.4byte	.LASF52
 1291 03c6 08       		.byte	0x8
 1292 03c7 2C       		.byte	0x2c
 1293 03c8 84030000 		.4byte	0x384
 1294 03cc 03       		.uleb128 0x3
 1295 03cd AE070000 		.4byte	.LASF56
 1296 03d1 09       		.byte	0x9
 1297 03d2 25       		.byte	0x25
 1298 03d3 D7030000 		.4byte	0x3d7
ARM GAS  /tmp/cc2y9FDt.s 			page 24


 1299 03d7 05       		.uleb128 0x5
 1300 03d8 AE070000 		.4byte	.LASF56
 1301 03dc 10       		.byte	0x10
 1302 03dd 09       		.byte	0x9
 1303 03de 2A       		.byte	0x2a
 1304 03df 1C040000 		.4byte	0x41c
 1305 03e3 06       		.uleb128 0x6
 1306 03e4 D9050000 		.4byte	.LASF57
 1307 03e8 09       		.byte	0x9
 1308 03e9 2B       		.byte	0x2b
 1309 03ea 1C040000 		.4byte	0x41c
 1310 03ee 02       		.byte	0x2
 1311 03ef 23       		.byte	0x23
 1312 03f0 00       		.uleb128 0
 1313 03f1 06       		.uleb128 0x6
 1314 03f2 97020000 		.4byte	.LASF58
 1315 03f6 09       		.byte	0x9
 1316 03f7 2E       		.byte	0x2e
 1317 03f8 7E020000 		.4byte	0x27e
 1318 03fc 02       		.byte	0x2
 1319 03fd 23       		.byte	0x23
 1320 03fe 04       		.uleb128 0x4
 1321 03ff 06       		.uleb128 0x6
 1322 0400 8C040000 		.4byte	.LASF59
 1323 0404 09       		.byte	0x9
 1324 0405 30       		.byte	0x30
 1325 0406 FA000000 		.4byte	0xfa
 1326 040a 02       		.byte	0x2
 1327 040b 23       		.byte	0x23
 1328 040c 08       		.uleb128 0x8
 1329 040d 06       		.uleb128 0x6
 1330 040e 7D050000 		.4byte	.LASF60
 1331 0412 09       		.byte	0x9
 1332 0413 33       		.byte	0x33
 1333 0414 05010000 		.4byte	0x105
 1334 0418 02       		.byte	0x2
 1335 0419 23       		.byte	0x23
 1336 041a 0C       		.uleb128 0xc
 1337 041b 00       		.byte	0
 1338 041c 09       		.uleb128 0x9
 1339 041d 04       		.byte	0x4
 1340 041e CC030000 		.4byte	0x3cc
 1341 0422 05       		.uleb128 0x5
 1342 0423 58020000 		.4byte	.LASF61
 1343 0427 04       		.byte	0x4
 1344 0428 09       		.byte	0x9
 1345 0429 3A       		.byte	0x3a
 1346 042a 3D040000 		.4byte	0x43d
 1347 042e 06       		.uleb128 0x6
 1348 042f 65070000 		.4byte	.LASF62
 1349 0433 09       		.byte	0x9
 1350 0434 3B       		.byte	0x3b
 1351 0435 1C040000 		.4byte	0x41c
 1352 0439 02       		.byte	0x2
 1353 043a 23       		.byte	0x23
 1354 043b 00       		.uleb128 0
 1355 043c 00       		.byte	0
ARM GAS  /tmp/cc2y9FDt.s 			page 25


 1356 043d 03       		.uleb128 0x3
 1357 043e 58020000 		.4byte	.LASF61
 1358 0442 09       		.byte	0x9
 1359 0443 3E       		.byte	0x3e
 1360 0444 22040000 		.4byte	0x422
 1361 0448 0E       		.uleb128 0xe
 1362 0449 04       		.byte	0x4
 1363 044a 06       		.byte	0x6
 1364 044b 8F       		.byte	0x8f
 1365 044c 7D040000 		.4byte	0x47d
 1366 0450 0F       		.uleb128 0xf
 1367 0451 19000000 		.4byte	.LASF63
 1368 0455 06       		.byte	0x6
 1369 0456 96       		.byte	0x96
 1370 0457 EF000000 		.4byte	0xef
 1371 045b 0F       		.uleb128 0xf
 1372 045c 8C000000 		.4byte	.LASF64
 1373 0460 06       		.byte	0x6
 1374 0461 9D       		.byte	0x9d
 1375 0462 EF000000 		.4byte	0xef
 1376 0466 0F       		.uleb128 0xf
 1377 0467 BC070000 		.4byte	.LASF65
 1378 046b 06       		.byte	0x6
 1379 046c A4       		.byte	0xa4
 1380 046d BC020000 		.4byte	0x2bc
 1381 0471 0F       		.uleb128 0xf
 1382 0472 CA050000 		.4byte	.LASF66
 1383 0476 06       		.byte	0x6
 1384 0477 AB       		.byte	0xab
 1385 0478 FA000000 		.4byte	0xfa
 1386 047c 00       		.byte	0
 1387 047d 09       		.uleb128 0x9
 1388 047e 04       		.byte	0x4
 1389 047f 83040000 		.4byte	0x483
 1390 0483 10       		.uleb128 0x10
 1391 0484 88040000 		.4byte	0x488
 1392 0488 04       		.uleb128 0x4
 1393 0489 01       		.byte	0x1
 1394 048a 08       		.byte	0x8
 1395 048b 86060000 		.4byte	.LASF67
 1396 048f 09       		.uleb128 0x9
 1397 0490 04       		.byte	0x4
 1398 0491 BE020000 		.4byte	0x2be
 1399 0495 09       		.uleb128 0x9
 1400 0496 04       		.byte	0x4
 1401 0497 C1030000 		.4byte	0x3c1
 1402 049b 09       		.uleb128 0x9
 1403 049c 04       		.byte	0x4
 1404 049d A1040000 		.4byte	0x4a1
 1405 04a1 11       		.uleb128 0x11
 1406 04a2 01       		.byte	0x1
 1407 04a3 EF000000 		.4byte	0xef
 1408 04a7 B1040000 		.4byte	0x4b1
 1409 04ab 12       		.uleb128 0x12
 1410 04ac BC020000 		.4byte	0x2bc
 1411 04b0 00       		.byte	0
 1412 04b1 03       		.uleb128 0x3
ARM GAS  /tmp/cc2y9FDt.s 			page 26


 1413 04b2 15020000 		.4byte	.LASF68
 1414 04b6 0A       		.byte	0xa
 1415 04b7 30       		.byte	0x30
 1416 04b8 BC040000 		.4byte	0x4bc
 1417 04bc 05       		.uleb128 0x5
 1418 04bd 15020000 		.4byte	.LASF68
 1419 04c1 24       		.byte	0x24
 1420 04c2 0A       		.byte	0xa
 1421 04c3 3E       		.byte	0x3e
 1422 04c4 39050000 		.4byte	0x539
 1423 04c8 06       		.uleb128 0x6
 1424 04c9 E4000000 		.4byte	.LASF69
 1425 04cd 0A       		.byte	0xa
 1426 04ce 3F       		.byte	0x3f
 1427 04cf 84020000 		.4byte	0x284
 1428 04d3 02       		.byte	0x2
 1429 04d4 23       		.byte	0x23
 1430 04d5 00       		.uleb128 0
 1431 04d6 06       		.uleb128 0x6
 1432 04d7 27040000 		.4byte	.LASF70
 1433 04db 0A       		.byte	0xa
 1434 04dc 40       		.byte	0x40
 1435 04dd 30000000 		.4byte	0x30
 1436 04e1 02       		.byte	0x2
 1437 04e2 23       		.byte	0x23
 1438 04e3 08       		.uleb128 0x8
 1439 04e4 06       		.uleb128 0x6
 1440 04e5 F0010000 		.4byte	.LASF71
 1441 04e9 0A       		.byte	0xa
 1442 04ea 41       		.byte	0x41
 1443 04eb 5C050000 		.4byte	0x55c
 1444 04ef 02       		.byte	0x2
 1445 04f0 23       		.byte	0x23
 1446 04f1 0C       		.uleb128 0xc
 1447 04f2 06       		.uleb128 0x6
 1448 04f3 54070000 		.4byte	.LASF72
 1449 04f7 0A       		.byte	0xa
 1450 04f8 42       		.byte	0x42
 1451 04f9 5C050000 		.4byte	0x55c
 1452 04fd 02       		.byte	0x2
 1453 04fe 23       		.byte	0x23
 1454 04ff 10       		.uleb128 0x10
 1455 0500 06       		.uleb128 0x6
 1456 0501 F9010000 		.4byte	.LASF73
 1457 0505 0A       		.byte	0xa
 1458 0506 44       		.byte	0x44
 1459 0507 5C050000 		.4byte	0x55c
 1460 050b 02       		.byte	0x2
 1461 050c 23       		.byte	0x23
 1462 050d 14       		.uleb128 0x14
 1463 050e 06       		.uleb128 0x6
 1464 050f 17050000 		.4byte	.LASF74
 1465 0513 0A       		.byte	0xa
 1466 0514 45       		.byte	0x45
 1467 0515 5C050000 		.4byte	0x55c
 1468 0519 02       		.byte	0x2
 1469 051a 23       		.byte	0x23
ARM GAS  /tmp/cc2y9FDt.s 			page 27


 1470 051b 18       		.uleb128 0x18
 1471 051c 06       		.uleb128 0x6
 1472 051d 7E070000 		.4byte	.LASF75
 1473 0521 0A       		.byte	0xa
 1474 0522 46       		.byte	0x46
 1475 0523 39050000 		.4byte	0x539
 1476 0527 02       		.byte	0x2
 1477 0528 23       		.byte	0x23
 1478 0529 1C       		.uleb128 0x1c
 1479 052a 06       		.uleb128 0x6
 1480 052b 11080000 		.4byte	.LASF76
 1481 052f 0A       		.byte	0xa
 1482 0530 47       		.byte	0x47
 1483 0531 BC020000 		.4byte	0x2bc
 1484 0535 02       		.byte	0x2
 1485 0536 23       		.byte	0x23
 1486 0537 20       		.uleb128 0x20
 1487 0538 00       		.byte	0
 1488 0539 03       		.uleb128 0x3
 1489 053a 2A080000 		.4byte	.LASF77
 1490 053e 0A       		.byte	0xa
 1491 053f 33       		.byte	0x33
 1492 0540 44050000 		.4byte	0x544
 1493 0544 09       		.uleb128 0x9
 1494 0545 04       		.byte	0x4
 1495 0546 4A050000 		.4byte	0x54a
 1496 054a 13       		.uleb128 0x13
 1497 054b 01       		.byte	0x1
 1498 054c 56050000 		.4byte	0x556
 1499 0550 12       		.uleb128 0x12
 1500 0551 56050000 		.4byte	0x556
 1501 0555 00       		.byte	0
 1502 0556 09       		.uleb128 0x9
 1503 0557 04       		.byte	0x4
 1504 0558 B1040000 		.4byte	0x4b1
 1505 055c 09       		.uleb128 0x9
 1506 055d 04       		.byte	0x4
 1507 055e 49000000 		.4byte	0x49
 1508 0562 03       		.uleb128 0x3
 1509 0563 9A070000 		.4byte	.LASF78
 1510 0567 0A       		.byte	0xa
 1511 0568 7B       		.byte	0x7b
 1512 0569 B1040000 		.4byte	0x4b1
 1513 056d 03       		.uleb128 0x3
 1514 056e 29000000 		.4byte	.LASF79
 1515 0572 0A       		.byte	0xa
 1516 0573 EE       		.byte	0xee
 1517 0574 B1040000 		.4byte	0x4b1
 1518 0578 11       		.uleb128 0x11
 1519 0579 01       		.byte	0x1
 1520 057a 30000000 		.4byte	0x30
 1521 057e 92050000 		.4byte	0x592
 1522 0582 12       		.uleb128 0x12
 1523 0583 BC020000 		.4byte	0x2bc
 1524 0587 12       		.uleb128 0x12
 1525 0588 92050000 		.4byte	0x592
 1526 058c 12       		.uleb128 0x12
ARM GAS  /tmp/cc2y9FDt.s 			page 28


 1527 058d 30000000 		.4byte	0x30
 1528 0591 00       		.byte	0
 1529 0592 09       		.uleb128 0x9
 1530 0593 04       		.byte	0x4
 1531 0594 98050000 		.4byte	0x598
 1532 0598 10       		.uleb128 0x10
 1533 0599 49000000 		.4byte	0x49
 1534 059d 09       		.uleb128 0x9
 1535 059e 04       		.byte	0x4
 1536 059f 78050000 		.4byte	0x578
 1537 05a3 11       		.uleb128 0x11
 1538 05a4 01       		.byte	0x1
 1539 05a5 30000000 		.4byte	0x30
 1540 05a9 BD050000 		.4byte	0x5bd
 1541 05ad 12       		.uleb128 0x12
 1542 05ae BC020000 		.4byte	0x2bc
 1543 05b2 12       		.uleb128 0x12
 1544 05b3 5C050000 		.4byte	0x55c
 1545 05b7 12       		.uleb128 0x12
 1546 05b8 30000000 		.4byte	0x30
 1547 05bc 00       		.byte	0
 1548 05bd 09       		.uleb128 0x9
 1549 05be 04       		.byte	0x4
 1550 05bf A3050000 		.4byte	0x5a3
 1551 05c3 11       		.uleb128 0x11
 1552 05c4 01       		.byte	0x1
 1553 05c5 EF000000 		.4byte	0xef
 1554 05c9 D8050000 		.4byte	0x5d8
 1555 05cd 12       		.uleb128 0x12
 1556 05ce BC020000 		.4byte	0x2bc
 1557 05d2 12       		.uleb128 0x12
 1558 05d3 49000000 		.4byte	0x49
 1559 05d7 00       		.byte	0
 1560 05d8 09       		.uleb128 0x9
 1561 05d9 04       		.byte	0x4
 1562 05da C3050000 		.4byte	0x5c3
 1563 05de 14       		.uleb128 0x14
 1564 05df C5030000 		.4byte	.LASF187
 1565 05e3 01       		.byte	0x1
 1566 05e4 0B       		.byte	0xb
 1567 05e5 A9       		.byte	0xa9
 1568 05e6 1D070000 		.4byte	0x71d
 1569 05ea 15       		.uleb128 0x15
 1570 05eb CD060000 		.4byte	.LASF80
 1571 05ef 72       		.sleb128 -14
 1572 05f0 15       		.uleb128 0x15
 1573 05f1 A3020000 		.4byte	.LASF81
 1574 05f5 74       		.sleb128 -12
 1575 05f6 15       		.uleb128 0x15
 1576 05f7 8B060000 		.4byte	.LASF82
 1577 05fb 75       		.sleb128 -11
 1578 05fc 15       		.uleb128 0x15
 1579 05fd 52060000 		.4byte	.LASF83
 1580 0601 76       		.sleb128 -10
 1581 0602 15       		.uleb128 0x15
 1582 0603 1F050000 		.4byte	.LASF84
 1583 0607 7B       		.sleb128 -5
ARM GAS  /tmp/cc2y9FDt.s 			page 29


 1584 0608 15       		.uleb128 0x15
 1585 0609 3E040000 		.4byte	.LASF85
 1586 060d 7C       		.sleb128 -4
 1587 060e 15       		.uleb128 0x15
 1588 060f 22020000 		.4byte	.LASF86
 1589 0613 7E       		.sleb128 -2
 1590 0614 15       		.uleb128 0x15
 1591 0615 91030000 		.4byte	.LASF87
 1592 0619 7F       		.sleb128 -1
 1593 061a 15       		.uleb128 0x15
 1594 061b C6000000 		.4byte	.LASF88
 1595 061f 00       		.sleb128 0
 1596 0620 15       		.uleb128 0x15
 1597 0621 00000000 		.4byte	.LASF89
 1598 0625 01       		.sleb128 1
 1599 0626 15       		.uleb128 0x15
 1600 0627 03070000 		.4byte	.LASF90
 1601 062b 02       		.sleb128 2
 1602 062c 15       		.uleb128 0x15
 1603 062d 08080000 		.4byte	.LASF91
 1604 0631 03       		.sleb128 3
 1605 0632 15       		.uleb128 0x15
 1606 0633 13060000 		.4byte	.LASF92
 1607 0637 04       		.sleb128 4
 1608 0638 15       		.uleb128 0x15
 1609 0639 A5070000 		.4byte	.LASF93
 1610 063d 05       		.sleb128 5
 1611 063e 15       		.uleb128 0x15
 1612 063f 5A070000 		.4byte	.LASF94
 1613 0643 06       		.sleb128 6
 1614 0644 15       		.uleb128 0x15
 1615 0645 4B080000 		.4byte	.LASF95
 1616 0649 07       		.sleb128 7
 1617 064a 15       		.uleb128 0x15
 1618 064b E1050000 		.4byte	.LASF96
 1619 064f 08       		.sleb128 8
 1620 0650 15       		.uleb128 0x15
 1621 0651 87070000 		.4byte	.LASF97
 1622 0655 09       		.sleb128 9
 1623 0656 15       		.uleb128 0x15
 1624 0657 86050000 		.4byte	.LASF98
 1625 065b 0A       		.sleb128 10
 1626 065c 15       		.uleb128 0x15
 1627 065d B1040000 		.4byte	.LASF99
 1628 0661 0B       		.sleb128 11
 1629 0662 15       		.uleb128 0x15
 1630 0663 DA030000 		.4byte	.LASF100
 1631 0667 0C       		.sleb128 12
 1632 0668 15       		.uleb128 0x15
 1633 0669 B7050000 		.4byte	.LASF101
 1634 066d 0D       		.sleb128 13
 1635 066e 15       		.uleb128 0x15
 1636 066f 7E030000 		.4byte	.LASF102
 1637 0673 0E       		.sleb128 14
 1638 0674 15       		.uleb128 0x15
 1639 0675 E2020000 		.4byte	.LASF103
 1640 0679 0F       		.sleb128 15
ARM GAS  /tmp/cc2y9FDt.s 			page 30


 1641 067a 15       		.uleb128 0x15
 1642 067b E1060000 		.4byte	.LASF104
 1643 067f 10       		.sleb128 16
 1644 0680 15       		.uleb128 0x15
 1645 0681 C3070000 		.4byte	.LASF105
 1646 0685 11       		.sleb128 17
 1647 0686 15       		.uleb128 0x15
 1648 0687 01020000 		.4byte	.LASF106
 1649 068b 12       		.sleb128 18
 1650 068c 15       		.uleb128 0x15
 1651 068d 69050000 		.4byte	.LASF107
 1652 0691 13       		.sleb128 19
 1653 0692 15       		.uleb128 0x15
 1654 0693 47050000 		.4byte	.LASF108
 1655 0697 14       		.sleb128 20
 1656 0698 15       		.uleb128 0x15
 1657 0699 5B000000 		.4byte	.LASF109
 1658 069d 15       		.sleb128 21
 1659 069e 15       		.uleb128 0x15
 1660 069f AE060000 		.4byte	.LASF110
 1661 06a3 16       		.sleb128 22
 1662 06a4 15       		.uleb128 0x15
 1663 06a5 DC010000 		.4byte	.LASF111
 1664 06a9 17       		.sleb128 23
 1665 06aa 15       		.uleb128 0x15
 1666 06ab A0060000 		.4byte	.LASF112
 1667 06af 18       		.sleb128 24
 1668 06b0 15       		.uleb128 0x15
 1669 06b1 B9000000 		.4byte	.LASF113
 1670 06b5 19       		.sleb128 25
 1671 06b6 15       		.uleb128 0x15
 1672 06b7 08030000 		.4byte	.LASF114
 1673 06bb 1A       		.sleb128 26
 1674 06bc 15       		.uleb128 0x15
 1675 06bd 9E030000 		.4byte	.LASF115
 1676 06c1 1B       		.sleb128 27
 1677 06c2 15       		.uleb128 0x15
 1678 06c3 4A070000 		.4byte	.LASF116
 1679 06c7 1C       		.sleb128 28
 1680 06c8 15       		.uleb128 0x15
 1681 06c9 18080000 		.4byte	.LASF117
 1682 06cd 1D       		.sleb128 29
 1683 06ce 15       		.uleb128 0x15
 1684 06cf A2000000 		.4byte	.LASF118
 1685 06d3 1E       		.sleb128 30
 1686 06d4 15       		.uleb128 0x15
 1687 06d5 35000000 		.4byte	.LASF119
 1688 06d9 1F       		.sleb128 31
 1689 06da 15       		.uleb128 0x15
 1690 06db ED070000 		.4byte	.LASF120
 1691 06df 20       		.sleb128 32
 1692 06e0 15       		.uleb128 0x15
 1693 06e1 27070000 		.4byte	.LASF121
 1694 06e5 21       		.sleb128 33
 1695 06e6 15       		.uleb128 0x15
 1696 06e7 95000000 		.4byte	.LASF122
 1697 06eb 22       		.sleb128 34
ARM GAS  /tmp/cc2y9FDt.s 			page 31


 1698 06ec 15       		.uleb128 0x15
 1699 06ed 36030000 		.4byte	.LASF123
 1700 06f1 23       		.sleb128 35
 1701 06f2 15       		.uleb128 0x15
 1702 06f3 50040000 		.4byte	.LASF124
 1703 06f7 24       		.sleb128 36
 1704 06f8 15       		.uleb128 0x15
 1705 06f9 6D070000 		.4byte	.LASF125
 1706 06fd 25       		.sleb128 37
 1707 06fe 15       		.uleb128 0x15
 1708 06ff 46060000 		.4byte	.LASF126
 1709 0703 26       		.sleb128 38
 1710 0704 15       		.uleb128 0x15
 1711 0705 34070000 		.4byte	.LASF127
 1712 0709 27       		.sleb128 39
 1713 070a 15       		.uleb128 0x15
 1714 070b 27030000 		.4byte	.LASF128
 1715 070f 28       		.sleb128 40
 1716 0710 15       		.uleb128 0x15
 1717 0711 42000000 		.4byte	.LASF129
 1718 0715 29       		.sleb128 41
 1719 0716 15       		.uleb128 0x15
 1720 0717 72040000 		.4byte	.LASF130
 1721 071b 2A       		.sleb128 42
 1722 071c 00       		.byte	0
 1723 071d 0D       		.uleb128 0xd
 1724 071e 62000000 		.4byte	0x62
 1725 0722 0D       		.uleb128 0xd
 1726 0723 74000000 		.4byte	0x74
 1727 0727 16       		.uleb128 0x16
 1728 0728 28       		.byte	0x28
 1729 0729 0B       		.byte	0xb
 1730 072a 4304     		.2byte	0x443
 1731 072c C6070000 		.4byte	0x7c6
 1732 0730 0C       		.uleb128 0xc
 1733 0731 435200   		.ascii	"CR\000"
 1734 0734 0B       		.byte	0xb
 1735 0735 4504     		.2byte	0x445
 1736 0737 7A030000 		.4byte	0x37a
 1737 073b 02       		.byte	0x2
 1738 073c 23       		.byte	0x23
 1739 073d 00       		.uleb128 0
 1740 073e 17       		.uleb128 0x17
 1741 073f E2070000 		.4byte	.LASF131
 1742 0743 0B       		.byte	0xb
 1743 0744 4604     		.2byte	0x446
 1744 0746 7A030000 		.4byte	0x37a
 1745 074a 02       		.byte	0x2
 1746 074b 23       		.byte	0x23
 1747 074c 04       		.uleb128 0x4
 1748 074d 0C       		.uleb128 0xc
 1749 074e 43495200 		.ascii	"CIR\000"
 1750 0752 0B       		.byte	0xb
 1751 0753 4704     		.2byte	0x447
 1752 0755 7A030000 		.4byte	0x37a
 1753 0759 02       		.byte	0x2
 1754 075a 23       		.byte	0x23
ARM GAS  /tmp/cc2y9FDt.s 			page 32


 1755 075b 08       		.uleb128 0x8
 1756 075c 17       		.uleb128 0x17
 1757 075d 42020000 		.4byte	.LASF132
 1758 0761 0B       		.byte	0xb
 1759 0762 4804     		.2byte	0x448
 1760 0764 7A030000 		.4byte	0x37a
 1761 0768 02       		.byte	0x2
 1762 0769 23       		.byte	0x23
 1763 076a 0C       		.uleb128 0xc
 1764 076b 17       		.uleb128 0x17
 1765 076c 83040000 		.4byte	.LASF133
 1766 0770 0B       		.byte	0xb
 1767 0771 4904     		.2byte	0x449
 1768 0773 7A030000 		.4byte	0x37a
 1769 0777 02       		.byte	0x2
 1770 0778 23       		.byte	0x23
 1771 0779 10       		.uleb128 0x10
 1772 077a 17       		.uleb128 0x17
 1773 077b 44080000 		.4byte	.LASF134
 1774 077f 0B       		.byte	0xb
 1775 0780 4A04     		.2byte	0x44a
 1776 0782 7A030000 		.4byte	0x37a
 1777 0786 02       		.byte	0x2
 1778 0787 23       		.byte	0x23
 1779 0788 14       		.uleb128 0x14
 1780 0789 17       		.uleb128 0x17
 1781 078a F4050000 		.4byte	.LASF135
 1782 078e 0B       		.byte	0xb
 1783 078f 4B04     		.2byte	0x44b
 1784 0791 7A030000 		.4byte	0x37a
 1785 0795 02       		.byte	0x2
 1786 0796 23       		.byte	0x23
 1787 0797 18       		.uleb128 0x18
 1788 0798 17       		.uleb128 0x17
 1789 0799 FB060000 		.4byte	.LASF136
 1790 079d 0B       		.byte	0xb
 1791 079e 4C04     		.2byte	0x44c
 1792 07a0 7A030000 		.4byte	0x37a
 1793 07a4 02       		.byte	0x2
 1794 07a5 23       		.byte	0x23
 1795 07a6 1C       		.uleb128 0x1c
 1796 07a7 17       		.uleb128 0x17
 1797 07a8 79070000 		.4byte	.LASF137
 1798 07ac 0B       		.byte	0xb
 1799 07ad 4D04     		.2byte	0x44d
 1800 07af 7A030000 		.4byte	0x37a
 1801 07b3 02       		.byte	0x2
 1802 07b4 23       		.byte	0x23
 1803 07b5 20       		.uleb128 0x20
 1804 07b6 0C       		.uleb128 0xc
 1805 07b7 43535200 		.ascii	"CSR\000"
 1806 07bb 0B       		.byte	0xb
 1807 07bc 4E04     		.2byte	0x44e
 1808 07be 7A030000 		.4byte	0x37a
 1809 07c2 02       		.byte	0x2
 1810 07c3 23       		.byte	0x23
 1811 07c4 24       		.uleb128 0x24
ARM GAS  /tmp/cc2y9FDt.s 			page 33


 1812 07c5 00       		.byte	0
 1813 07c6 18       		.uleb128 0x18
 1814 07c7 2F010000 		.4byte	.LASF138
 1815 07cb 0B       		.byte	0xb
 1816 07cc 5904     		.2byte	0x459
 1817 07ce 27070000 		.4byte	0x727
 1818 07d2 16       		.uleb128 0x16
 1819 07d3 1C       		.byte	0x1c
 1820 07d4 0B       		.byte	0xb
 1821 07d5 E104     		.2byte	0x4e1
 1822 07d7 AC080000 		.4byte	0x8ac
 1823 07db 0C       		.uleb128 0xc
 1824 07dc 535200   		.ascii	"SR\000"
 1825 07df 0B       		.byte	0xb
 1826 07e0 E304     		.2byte	0x4e3
 1827 07e2 1D070000 		.4byte	0x71d
 1828 07e6 02       		.byte	0x2
 1829 07e7 23       		.byte	0x23
 1830 07e8 00       		.uleb128 0
 1831 07e9 17       		.uleb128 0x17
 1832 07ea CC040000 		.4byte	.LASF139
 1833 07ee 0B       		.byte	0xb
 1834 07ef E404     		.2byte	0x4e4
 1835 07f1 62000000 		.4byte	0x62
 1836 07f5 02       		.byte	0x2
 1837 07f6 23       		.byte	0x23
 1838 07f7 02       		.uleb128 0x2
 1839 07f8 0C       		.uleb128 0xc
 1840 07f9 445200   		.ascii	"DR\000"
 1841 07fc 0B       		.byte	0xb
 1842 07fd E504     		.2byte	0x4e5
 1843 07ff 1D070000 		.4byte	0x71d
 1844 0803 02       		.byte	0x2
 1845 0804 23       		.byte	0x23
 1846 0805 04       		.uleb128 0x4
 1847 0806 17       		.uleb128 0x17
 1848 0807 D6040000 		.4byte	.LASF140
 1849 080b 0B       		.byte	0xb
 1850 080c E604     		.2byte	0x4e6
 1851 080e 62000000 		.4byte	0x62
 1852 0812 02       		.byte	0x2
 1853 0813 23       		.byte	0x23
 1854 0814 06       		.uleb128 0x6
 1855 0815 0C       		.uleb128 0xc
 1856 0816 42525200 		.ascii	"BRR\000"
 1857 081a 0B       		.byte	0xb
 1858 081b E704     		.2byte	0x4e7
 1859 081d 1D070000 		.4byte	0x71d
 1860 0821 02       		.byte	0x2
 1861 0822 23       		.byte	0x23
 1862 0823 08       		.uleb128 0x8
 1863 0824 17       		.uleb128 0x17
 1864 0825 E0040000 		.4byte	.LASF141
 1865 0829 0B       		.byte	0xb
 1866 082a E804     		.2byte	0x4e8
 1867 082c 62000000 		.4byte	0x62
 1868 0830 02       		.byte	0x2
ARM GAS  /tmp/cc2y9FDt.s 			page 34


 1869 0831 23       		.byte	0x23
 1870 0832 0A       		.uleb128 0xa
 1871 0833 0C       		.uleb128 0xc
 1872 0834 43523100 		.ascii	"CR1\000"
 1873 0838 0B       		.byte	0xb
 1874 0839 E904     		.2byte	0x4e9
 1875 083b 1D070000 		.4byte	0x71d
 1876 083f 02       		.byte	0x2
 1877 0840 23       		.byte	0x23
 1878 0841 0C       		.uleb128 0xc
 1879 0842 17       		.uleb128 0x17
 1880 0843 EA040000 		.4byte	.LASF142
 1881 0847 0B       		.byte	0xb
 1882 0848 EA04     		.2byte	0x4ea
 1883 084a 62000000 		.4byte	0x62
 1884 084e 02       		.byte	0x2
 1885 084f 23       		.byte	0x23
 1886 0850 0E       		.uleb128 0xe
 1887 0851 0C       		.uleb128 0xc
 1888 0852 43523200 		.ascii	"CR2\000"
 1889 0856 0B       		.byte	0xb
 1890 0857 EB04     		.2byte	0x4eb
 1891 0859 1D070000 		.4byte	0x71d
 1892 085d 02       		.byte	0x2
 1893 085e 23       		.byte	0x23
 1894 085f 10       		.uleb128 0x10
 1895 0860 17       		.uleb128 0x17
 1896 0861 F4040000 		.4byte	.LASF143
 1897 0865 0B       		.byte	0xb
 1898 0866 EC04     		.2byte	0x4ec
 1899 0868 62000000 		.4byte	0x62
 1900 086c 02       		.byte	0x2
 1901 086d 23       		.byte	0x23
 1902 086e 12       		.uleb128 0x12
 1903 086f 0C       		.uleb128 0xc
 1904 0870 43523300 		.ascii	"CR3\000"
 1905 0874 0B       		.byte	0xb
 1906 0875 ED04     		.2byte	0x4ed
 1907 0877 1D070000 		.4byte	0x71d
 1908 087b 02       		.byte	0x2
 1909 087c 23       		.byte	0x23
 1910 087d 14       		.uleb128 0x14
 1911 087e 17       		.uleb128 0x17
 1912 087f 33060000 		.4byte	.LASF144
 1913 0883 0B       		.byte	0xb
 1914 0884 EE04     		.2byte	0x4ee
 1915 0886 62000000 		.4byte	0x62
 1916 088a 02       		.byte	0x2
 1917 088b 23       		.byte	0x23
 1918 088c 16       		.uleb128 0x16
 1919 088d 17       		.uleb128 0x17
 1920 088e 08010000 		.4byte	.LASF145
 1921 0892 0B       		.byte	0xb
 1922 0893 EF04     		.2byte	0x4ef
 1923 0895 1D070000 		.4byte	0x71d
 1924 0899 02       		.byte	0x2
 1925 089a 23       		.byte	0x23
ARM GAS  /tmp/cc2y9FDt.s 			page 35


 1926 089b 18       		.uleb128 0x18
 1927 089c 17       		.uleb128 0x17
 1928 089d 05050000 		.4byte	.LASF146
 1929 08a1 0B       		.byte	0xb
 1930 08a2 F004     		.2byte	0x4f0
 1931 08a4 62000000 		.4byte	0x62
 1932 08a8 02       		.byte	0x2
 1933 08a9 23       		.byte	0x23
 1934 08aa 1A       		.uleb128 0x1a
 1935 08ab 00       		.byte	0
 1936 08ac 18       		.uleb128 0x18
 1937 08ad 40030000 		.4byte	.LASF147
 1938 08b1 0B       		.byte	0xb
 1939 08b2 F104     		.2byte	0x4f1
 1940 08b4 D2070000 		.4byte	0x7d2
 1941 08b8 11       		.uleb128 0x11
 1942 08b9 01       		.byte	0x1
 1943 08ba EF000000 		.4byte	0xef
 1944 08be D2080000 		.4byte	0x8d2
 1945 08c2 12       		.uleb128 0x12
 1946 08c3 BC020000 		.4byte	0x2bc
 1947 08c7 12       		.uleb128 0x12
 1948 08c8 49000000 		.4byte	0x49
 1949 08cc 12       		.uleb128 0x12
 1950 08cd 10010000 		.4byte	0x110
 1951 08d1 00       		.byte	0
 1952 08d2 09       		.uleb128 0x9
 1953 08d3 04       		.byte	0x4
 1954 08d4 B8080000 		.4byte	0x8b8
 1955 08d8 11       		.uleb128 0x11
 1956 08d9 01       		.byte	0x1
 1957 08da EF000000 		.4byte	0xef
 1958 08de ED080000 		.4byte	0x8ed
 1959 08e2 12       		.uleb128 0x12
 1960 08e3 BC020000 		.4byte	0x2bc
 1961 08e7 12       		.uleb128 0x12
 1962 08e8 10010000 		.4byte	0x110
 1963 08ec 00       		.byte	0
 1964 08ed 09       		.uleb128 0x9
 1965 08ee 04       		.byte	0x4
 1966 08ef D8080000 		.4byte	0x8d8
 1967 08f3 11       		.uleb128 0x11
 1968 08f4 01       		.byte	0x1
 1969 08f5 30000000 		.4byte	0x30
 1970 08f9 12090000 		.4byte	0x912
 1971 08fd 12       		.uleb128 0x12
 1972 08fe BC020000 		.4byte	0x2bc
 1973 0902 12       		.uleb128 0x12
 1974 0903 92050000 		.4byte	0x592
 1975 0907 12       		.uleb128 0x12
 1976 0908 30000000 		.4byte	0x30
 1977 090c 12       		.uleb128 0x12
 1978 090d 10010000 		.4byte	0x110
 1979 0911 00       		.byte	0
 1980 0912 09       		.uleb128 0x9
 1981 0913 04       		.byte	0x4
 1982 0914 F3080000 		.4byte	0x8f3
ARM GAS  /tmp/cc2y9FDt.s 			page 36


 1983 0918 11       		.uleb128 0x11
 1984 0919 01       		.byte	0x1
 1985 091a 30000000 		.4byte	0x30
 1986 091e 37090000 		.4byte	0x937
 1987 0922 12       		.uleb128 0x12
 1988 0923 BC020000 		.4byte	0x2bc
 1989 0927 12       		.uleb128 0x12
 1990 0928 5C050000 		.4byte	0x55c
 1991 092c 12       		.uleb128 0x12
 1992 092d 30000000 		.4byte	0x30
 1993 0931 12       		.uleb128 0x12
 1994 0932 10010000 		.4byte	0x110
 1995 0936 00       		.byte	0
 1996 0937 09       		.uleb128 0x9
 1997 0938 04       		.byte	0x4
 1998 0939 18090000 		.4byte	0x918
 1999 093d 19       		.uleb128 0x19
 2000 093e 01       		.byte	0x1
 2001 093f 0C       		.byte	0xc
 2002 0940 5D       		.byte	0x5d
 2003 0941 58090000 		.4byte	0x958
 2004 0945 15       		.uleb128 0x15
 2005 0946 29060000 		.4byte	.LASF148
 2006 094a 00       		.sleb128 0
 2007 094b 15       		.uleb128 0x15
 2008 094c EC050000 		.4byte	.LASF149
 2009 0950 01       		.sleb128 1
 2010 0951 15       		.uleb128 0x15
 2011 0952 1E070000 		.4byte	.LASF150
 2012 0956 02       		.sleb128 2
 2013 0957 00       		.byte	0
 2014 0958 03       		.uleb128 0x3
 2015 0959 40070000 		.4byte	.LASF151
 2016 095d 0C       		.byte	0xc
 2017 095e 61       		.byte	0x61
 2018 095f 3D090000 		.4byte	0x93d
 2019 0963 03       		.uleb128 0x3
 2020 0964 62060000 		.4byte	.LASF152
 2021 0968 0C       		.byte	0xc
 2022 0969 66       		.byte	0x66
 2023 096a 6E090000 		.4byte	0x96e
 2024 096e 1A       		.uleb128 0x1a
 2025 096f 62060000 		.4byte	.LASF152
 2026 0973 5802     		.2byte	0x258
 2027 0975 0C       		.byte	0xc
 2028 0976 80       		.byte	0x80
 2029 0977 EC090000 		.4byte	0x9ec
 2030 097b 07       		.uleb128 0x7
 2031 097c 766D7400 		.ascii	"vmt\000"
 2032 0980 0C       		.byte	0xc
 2033 0981 82       		.byte	0x82
 2034 0982 B50A0000 		.4byte	0xab5
 2035 0986 02       		.byte	0x2
 2036 0987 23       		.byte	0x23
 2037 0988 00       		.uleb128 0
 2038 0989 06       		.uleb128 0x6
 2039 098a DC020000 		.4byte	.LASF153
ARM GAS  /tmp/cc2y9FDt.s 			page 37


 2040 098e 0C       		.byte	0xc
 2041 098f 83       		.byte	0x83
 2042 0990 3D040000 		.4byte	0x43d
 2043 0994 02       		.byte	0x2
 2044 0995 23       		.byte	0x23
 2045 0996 04       		.uleb128 0x4
 2046 0997 06       		.uleb128 0x6
 2047 0998 4A010000 		.4byte	.LASF154
 2048 099c 0C       		.byte	0xc
 2049 099d 83       		.byte	0x83
 2050 099e 58090000 		.4byte	0x958
 2051 09a2 02       		.byte	0x2
 2052 09a3 23       		.byte	0x23
 2053 09a4 08       		.uleb128 0x8
 2054 09a5 06       		.uleb128 0x6
 2055 09a6 B9020000 		.4byte	.LASF155
 2056 09aa 0C       		.byte	0xc
 2057 09ab 83       		.byte	0x83
 2058 09ac 62050000 		.4byte	0x562
 2059 09b0 02       		.byte	0x2
 2060 09b1 23       		.byte	0x23
 2061 09b2 0C       		.uleb128 0xc
 2062 09b3 06       		.uleb128 0x6
 2063 09b4 20030000 		.4byte	.LASF156
 2064 09b8 0C       		.byte	0xc
 2065 09b9 83       		.byte	0x83
 2066 09ba 6D050000 		.4byte	0x56d
 2067 09be 02       		.byte	0x2
 2068 09bf 23       		.byte	0x23
 2069 09c0 30       		.uleb128 0x30
 2070 09c1 07       		.uleb128 0x7
 2071 09c2 696200   		.ascii	"ib\000"
 2072 09c5 0C       		.byte	0xc
 2073 09c6 83       		.byte	0x83
 2074 09c7 C00A0000 		.4byte	0xac0
 2075 09cb 02       		.byte	0x2
 2076 09cc 23       		.byte	0x23
 2077 09cd 54       		.uleb128 0x54
 2078 09ce 07       		.uleb128 0x7
 2079 09cf 6F6200   		.ascii	"ob\000"
 2080 09d2 0C       		.byte	0xc
 2081 09d3 83       		.byte	0x83
 2082 09d4 C00A0000 		.4byte	0xac0
 2083 09d8 03       		.byte	0x3
 2084 09d9 23       		.byte	0x23
 2085 09da D402     		.uleb128 0x154
 2086 09dc 06       		.uleb128 0x6
 2087 09dd 64020000 		.4byte	.LASF157
 2088 09e1 0C       		.byte	0xc
 2089 09e2 83       		.byte	0x83
 2090 09e3 D00A0000 		.4byte	0xad0
 2091 09e7 03       		.byte	0x3
 2092 09e8 23       		.byte	0x23
 2093 09e9 D404     		.uleb128 0x254
 2094 09eb 00       		.byte	0
 2095 09ec 08       		.uleb128 0x8
 2096 09ed 0C       		.byte	0xc
ARM GAS  /tmp/cc2y9FDt.s 			page 38


 2097 09ee 0D       		.byte	0xd
 2098 09ef D7       		.byte	0xd7
 2099 09f0 2D0A0000 		.4byte	0xa2d
 2100 09f4 06       		.uleb128 0x6
 2101 09f5 09000000 		.4byte	.LASF158
 2102 09f9 0D       		.byte	0xd
 2103 09fa DB       		.byte	0xdb
 2104 09fb 86000000 		.4byte	0x86
 2105 09ff 02       		.byte	0x2
 2106 0a00 23       		.byte	0x23
 2107 0a01 00       		.uleb128 0
 2108 0a02 06       		.uleb128 0x6
 2109 0a03 D0000000 		.4byte	.LASF159
 2110 0a07 0D       		.byte	0xd
 2111 0a08 E0       		.byte	0xe0
 2112 0a09 62000000 		.4byte	0x62
 2113 0a0d 02       		.byte	0x2
 2114 0a0e 23       		.byte	0x23
 2115 0a0f 04       		.uleb128 0x4
 2116 0a10 06       		.uleb128 0x6
 2117 0a11 FA070000 		.4byte	.LASF160
 2118 0a15 0D       		.byte	0xd
 2119 0a16 E4       		.byte	0xe4
 2120 0a17 62000000 		.4byte	0x62
 2121 0a1b 02       		.byte	0x2
 2122 0a1c 23       		.byte	0x23
 2123 0a1d 06       		.uleb128 0x6
 2124 0a1e 06       		.uleb128 0x6
 2125 0a1f 01080000 		.4byte	.LASF161
 2126 0a23 0D       		.byte	0xd
 2127 0a24 E8       		.byte	0xe8
 2128 0a25 62000000 		.4byte	0x62
 2129 0a29 02       		.byte	0x2
 2130 0a2a 23       		.byte	0x23
 2131 0a2b 08       		.uleb128 0x8
 2132 0a2c 00       		.byte	0
 2133 0a2d 03       		.uleb128 0x3
 2134 0a2e 94040000 		.4byte	.LASF162
 2135 0a32 0D       		.byte	0xd
 2136 0a33 E9       		.byte	0xe9
 2137 0a34 EC090000 		.4byte	0x9ec
 2138 0a38 05       		.uleb128 0x5
 2139 0a39 80020000 		.4byte	.LASF163
 2140 0a3d 20       		.byte	0x20
 2141 0a3e 0C       		.byte	0xc
 2142 0a3f 75       		.byte	0x75
 2143 0a40 B50A0000 		.4byte	0xab5
 2144 0a44 06       		.uleb128 0x6
 2145 0a45 BF030000 		.4byte	.LASF164
 2146 0a49 0C       		.byte	0xc
 2147 0a4a 76       		.byte	0x76
 2148 0a4b 9D050000 		.4byte	0x59d
 2149 0a4f 02       		.byte	0x2
 2150 0a50 23       		.byte	0x23
 2151 0a51 00       		.uleb128 0
 2152 0a52 06       		.uleb128 0x6
 2153 0a53 81060000 		.4byte	.LASF165
ARM GAS  /tmp/cc2y9FDt.s 			page 39


 2154 0a57 0C       		.byte	0xc
 2155 0a58 76       		.byte	0x76
 2156 0a59 BD050000 		.4byte	0x5bd
 2157 0a5d 02       		.byte	0x2
 2158 0a5e 23       		.byte	0x23
 2159 0a5f 04       		.uleb128 0x4
 2160 0a60 07       		.uleb128 0x7
 2161 0a61 70757400 		.ascii	"put\000"
 2162 0a65 0C       		.byte	0xc
 2163 0a66 76       		.byte	0x76
 2164 0a67 D8050000 		.4byte	0x5d8
 2165 0a6b 02       		.byte	0x2
 2166 0a6c 23       		.byte	0x23
 2167 0a6d 08       		.uleb128 0x8
 2168 0a6e 07       		.uleb128 0x7
 2169 0a6f 67657400 		.ascii	"get\000"
 2170 0a73 0C       		.byte	0xc
 2171 0a74 76       		.byte	0x76
 2172 0a75 9B040000 		.4byte	0x49b
 2173 0a79 02       		.byte	0x2
 2174 0a7a 23       		.byte	0x23
 2175 0a7b 0C       		.uleb128 0xc
 2176 0a7c 06       		.uleb128 0x6
 2177 0a7d CA030000 		.4byte	.LASF166
 2178 0a81 0C       		.byte	0xc
 2179 0a82 76       		.byte	0x76
 2180 0a83 D2080000 		.4byte	0x8d2
 2181 0a87 02       		.byte	0x2
 2182 0a88 23       		.byte	0x23
 2183 0a89 10       		.uleb128 0x10
 2184 0a8a 06       		.uleb128 0x6
 2185 0a8b D7020000 		.4byte	.LASF167
 2186 0a8f 0C       		.byte	0xc
 2187 0a90 76       		.byte	0x76
 2188 0a91 ED080000 		.4byte	0x8ed
 2189 0a95 02       		.byte	0x2
 2190 0a96 23       		.byte	0x23
 2191 0a97 14       		.uleb128 0x14
 2192 0a98 06       		.uleb128 0x6
 2193 0a99 4E030000 		.4byte	.LASF168
 2194 0a9d 0C       		.byte	0xc
 2195 0a9e 76       		.byte	0x76
 2196 0a9f 12090000 		.4byte	0x912
 2197 0aa3 02       		.byte	0x2
 2198 0aa4 23       		.byte	0x23
 2199 0aa5 18       		.uleb128 0x18
 2200 0aa6 06       		.uleb128 0x6
 2201 0aa7 DE000000 		.4byte	.LASF169
 2202 0aab 0C       		.byte	0xc
 2203 0aac 76       		.byte	0x76
 2204 0aad 37090000 		.4byte	0x937
 2205 0ab1 02       		.byte	0x2
 2206 0ab2 23       		.byte	0x23
 2207 0ab3 1C       		.uleb128 0x1c
 2208 0ab4 00       		.byte	0
 2209 0ab5 09       		.uleb128 0x9
 2210 0ab6 04       		.byte	0x4
ARM GAS  /tmp/cc2y9FDt.s 			page 40


 2211 0ab7 BB0A0000 		.4byte	0xabb
 2212 0abb 10       		.uleb128 0x10
 2213 0abc 380A0000 		.4byte	0xa38
 2214 0ac0 1B       		.uleb128 0x1b
 2215 0ac1 49000000 		.4byte	0x49
 2216 0ac5 D00A0000 		.4byte	0xad0
 2217 0ac9 1C       		.uleb128 0x1c
 2218 0aca 3B000000 		.4byte	0x3b
 2219 0ace FF       		.byte	0xff
 2220 0acf 00       		.byte	0
 2221 0ad0 09       		.uleb128 0x9
 2222 0ad1 04       		.byte	0x4
 2223 0ad2 AC080000 		.4byte	0x8ac
 2224 0ad6 1D       		.uleb128 0x1d
 2225 0ad7 51000000 		.4byte	.LASF170
 2226 0adb 01       		.byte	0x1
 2227 0adc 87       		.byte	0x87
 2228 0add 01       		.byte	0x1
 2229 0ade 01       		.byte	0x1
 2230 0adf 220B0000 		.4byte	0xb22
 2231 0ae3 1E       		.uleb128 0x1e
 2232 0ae4 73647000 		.ascii	"sdp\000"
 2233 0ae8 01       		.byte	0x1
 2234 0ae9 87       		.byte	0x87
 2235 0aea 220B0000 		.4byte	0xb22
 2236 0aee 1E       		.uleb128 0x1e
 2237 0aef 737200   		.ascii	"sr\000"
 2238 0af2 01       		.byte	0x1
 2239 0af3 87       		.byte	0x87
 2240 0af4 62000000 		.4byte	0x62
 2241 0af8 1F       		.uleb128 0x1f
 2242 0af9 73747300 		.ascii	"sts\000"
 2243 0afd 01       		.byte	0x1
 2244 0afe 88       		.byte	0x88
 2245 0aff 05010000 		.4byte	0x105
 2246 0b03 20       		.uleb128 0x20
 2247 0b04 140B0000 		.4byte	0xb14
 2248 0b08 1F       		.uleb128 0x1f
 2249 0b09 746D7000 		.ascii	"tmp\000"
 2250 0b0d 01       		.byte	0x1
 2251 0b0e 92       		.byte	0x92
 2252 0b0f 86000000 		.4byte	0x86
 2253 0b13 00       		.byte	0
 2254 0b14 21       		.uleb128 0x21
 2255 0b15 1F       		.uleb128 0x1f
 2256 0b16 746D7000 		.ascii	"tmp\000"
 2257 0b1a 01       		.byte	0x1
 2258 0b1b 94       		.byte	0x94
 2259 0b1c 86000000 		.4byte	0x86
 2260 0b20 00       		.byte	0
 2261 0b21 00       		.byte	0
 2262 0b22 09       		.uleb128 0x9
 2263 0b23 04       		.byte	0x4
 2264 0b24 63090000 		.4byte	0x963
 2265 0b28 1D       		.uleb128 0x1d
 2266 0b29 CF030000 		.4byte	.LASF171
 2267 0b2d 01       		.byte	0x1
ARM GAS  /tmp/cc2y9FDt.s 			page 41


 2268 0b2e 5C       		.byte	0x5c
 2269 0b2f 01       		.byte	0x1
 2270 0b30 01       		.byte	0x1
 2271 0b31 550B0000 		.4byte	0xb55
 2272 0b35 1E       		.uleb128 0x1e
 2273 0b36 73647000 		.ascii	"sdp\000"
 2274 0b3a 01       		.byte	0x1
 2275 0b3b 5C       		.byte	0x5c
 2276 0b3c 220B0000 		.4byte	0xb22
 2277 0b40 22       		.uleb128 0x22
 2278 0b41 99060000 		.4byte	.LASF172
 2279 0b45 01       		.byte	0x1
 2280 0b46 5C       		.byte	0x5c
 2281 0b47 550B0000 		.4byte	0xb55
 2282 0b4b 1F       		.uleb128 0x1f
 2283 0b4c 7500     		.ascii	"u\000"
 2284 0b4e 01       		.byte	0x1
 2285 0b4f 5D       		.byte	0x5d
 2286 0b50 D00A0000 		.4byte	0xad0
 2287 0b54 00       		.byte	0
 2288 0b55 09       		.uleb128 0x9
 2289 0b56 04       		.byte	0x4
 2290 0b57 5B0B0000 		.4byte	0xb5b
 2291 0b5b 10       		.uleb128 0x10
 2292 0b5c 2D0A0000 		.4byte	0xa2d
 2293 0b60 1D       		.uleb128 0x1d
 2294 0b61 4B020000 		.4byte	.LASF173
 2295 0b65 01       		.byte	0x1
 2296 0b66 7A       		.byte	0x7a
 2297 0b67 01       		.byte	0x1
 2298 0b68 01       		.byte	0x1
 2299 0b69 770B0000 		.4byte	0xb77
 2300 0b6d 1E       		.uleb128 0x1e
 2301 0b6e 7500     		.ascii	"u\000"
 2302 0b70 01       		.byte	0x1
 2303 0b71 7A       		.byte	0x7a
 2304 0b72 D00A0000 		.4byte	0xad0
 2305 0b76 00       		.byte	0
 2306 0b77 23       		.uleb128 0x23
 2307 0b78 A1040000 		.4byte	.LASF174
 2308 0b7c 01       		.byte	0x1
 2309 0b7d CA       		.byte	0xca
 2310 0b7e 01       		.byte	0x1
 2311 0b7f 00000000 		.4byte	.LFB67
 2312 0b83 14000000 		.4byte	.LFE67
 2313 0b87 02       		.byte	0x2
 2314 0b88 7D       		.byte	0x7d
 2315 0b89 00       		.sleb128 0
 2316 0b8a 9D0B0000 		.4byte	0xb9d
 2317 0b8e 24       		.uleb128 0x24
 2318 0b8f 717000   		.ascii	"qp\000"
 2319 0b92 01       		.byte	0x1
 2320 0b93 CA       		.byte	0xca
 2321 0b94 56050000 		.4byte	0x556
 2322 0b98 00000000 		.4byte	.LLST0
 2323 0b9c 00       		.byte	0
 2324 0b9d 23       		.uleb128 0x23
ARM GAS  /tmp/cc2y9FDt.s 			page 42


 2325 0b9e A9040000 		.4byte	.LASF175
 2326 0ba2 01       		.byte	0x1
 2327 0ba3 DA       		.byte	0xda
 2328 0ba4 01       		.byte	0x1
 2329 0ba5 00000000 		.4byte	.LFB68
 2330 0ba9 14000000 		.4byte	.LFE68
 2331 0bad 02       		.byte	0x2
 2332 0bae 7D       		.byte	0x7d
 2333 0baf 00       		.sleb128 0
 2334 0bb0 C30B0000 		.4byte	0xbc3
 2335 0bb4 24       		.uleb128 0x24
 2336 0bb5 717000   		.ascii	"qp\000"
 2337 0bb8 01       		.byte	0x1
 2338 0bb9 DA       		.byte	0xda
 2339 0bba 56050000 		.4byte	0x556
 2340 0bbe 13000000 		.4byte	.LLST1
 2341 0bc2 00       		.byte	0
 2342 0bc3 25       		.uleb128 0x25
 2343 0bc4 03060000 		.4byte	.LASF176
 2344 0bc8 01       		.byte	0x1
 2345 0bc9 9C       		.byte	0x9c
 2346 0bca 01       		.byte	0x1
 2347 0bcb 00000000 		.4byte	.LFB66
 2348 0bcf 7E010000 		.4byte	.LFE66
 2349 0bd3 26000000 		.4byte	.LLST2
 2350 0bd7 770D0000 		.4byte	0xd77
 2351 0bdb 24       		.uleb128 0x24
 2352 0bdc 73647000 		.ascii	"sdp\000"
 2353 0be0 01       		.byte	0x1
 2354 0be1 9C       		.byte	0x9c
 2355 0be2 220B0000 		.4byte	0xb22
 2356 0be6 46000000 		.4byte	.LLST3
 2357 0bea 26       		.uleb128 0x26
 2358 0beb 7500     		.ascii	"u\000"
 2359 0bed 01       		.byte	0x1
 2360 0bee 9D       		.byte	0x9d
 2361 0bef D00A0000 		.4byte	0xad0
 2362 0bf3 64000000 		.4byte	.LLST4
 2363 0bf7 27       		.uleb128 0x27
 2364 0bf8 63723100 		.ascii	"cr1\000"
 2365 0bfc 01       		.byte	0x1
 2366 0bfd 9E       		.byte	0x9e
 2367 0bfe 62000000 		.4byte	0x62
 2368 0c02 01       		.byte	0x1
 2369 0c03 57       		.byte	0x57
 2370 0c04 27       		.uleb128 0x27
 2371 0c05 737200   		.ascii	"sr\000"
 2372 0c08 01       		.byte	0x1
 2373 0c09 9F       		.byte	0x9f
 2374 0c0a 62000000 		.4byte	0x62
 2375 0c0e 01       		.byte	0x1
 2376 0c0f 54       		.byte	0x54
 2377 0c10 27       		.uleb128 0x27
 2378 0c11 647200   		.ascii	"dr\000"
 2379 0c14 01       		.byte	0x1
 2380 0c15 A0       		.byte	0xa0
 2381 0c16 62000000 		.4byte	0x62
ARM GAS  /tmp/cc2y9FDt.s 			page 43


 2382 0c1a 01       		.byte	0x1
 2383 0c1b 58       		.byte	0x58
 2384 0c1c 28       		.uleb128 0x28
 2385 0c1d D60A0000 		.4byte	0xad6
 2386 0c21 1C000000 		.4byte	.LBB19
 2387 0c25 00000000 		.4byte	.Ldebug_ranges0+0
 2388 0c29 01       		.byte	0x1
 2389 0c2a A4       		.byte	0xa4
 2390 0c2b 7B0C0000 		.4byte	0xc7b
 2391 0c2f 29       		.uleb128 0x29
 2392 0c30 EE0A0000 		.4byte	0xaee
 2393 0c34 91000000 		.4byte	.LLST5
 2394 0c38 29       		.uleb128 0x29
 2395 0c39 E30A0000 		.4byte	0xae3
 2396 0c3d AF000000 		.4byte	.LLST6
 2397 0c41 2A       		.uleb128 0x2a
 2398 0c42 18000000 		.4byte	.Ldebug_ranges0+0x18
 2399 0c46 2B       		.uleb128 0x2b
 2400 0c47 F80A0000 		.4byte	0xaf8
 2401 0c4b CD000000 		.4byte	.LLST7
 2402 0c4f 2C       		.uleb128 0x2c
 2403 0c50 84000000 		.4byte	.LBB21
 2404 0c54 8A000000 		.4byte	.LBE21
 2405 0c58 660C0000 		.4byte	0xc66
 2406 0c5c 2B       		.uleb128 0x2b
 2407 0c5d 080B0000 		.4byte	0xb08
 2408 0c61 F7000000 		.4byte	.LLST8
 2409 0c65 00       		.byte	0
 2410 0c66 2D       		.uleb128 0x2d
 2411 0c67 9A000000 		.4byte	.LBB22
 2412 0c6b A0000000 		.4byte	.LBE22
 2413 0c6f 2B       		.uleb128 0x2b
 2414 0c70 150B0000 		.4byte	0xb15
 2415 0c74 0A010000 		.4byte	.LLST9
 2416 0c78 00       		.byte	0
 2417 0c79 00       		.byte	0
 2418 0c7a 00       		.byte	0
 2419 0c7b 2C       		.uleb128 0x2c
 2420 0c7c B4000000 		.4byte	.LBB24
 2421 0c80 BA000000 		.4byte	.LBE24
 2422 0c84 980C0000 		.4byte	0xc98
 2423 0c88 26       		.uleb128 0x26
 2424 0c89 746D7000 		.ascii	"tmp\000"
 2425 0c8d 01       		.byte	0x1
 2426 0c8e C1       		.byte	0xc1
 2427 0c8f 86000000 		.4byte	0x86
 2428 0c93 1D010000 		.4byte	.LLST10
 2429 0c97 00       		.byte	0
 2430 0c98 2C       		.uleb128 0x2c
 2431 0c99 CA000000 		.4byte	.LBB25
 2432 0c9d D0000000 		.4byte	.LBE25
 2433 0ca1 B50C0000 		.4byte	0xcb5
 2434 0ca5 26       		.uleb128 0x26
 2435 0ca6 746D7000 		.ascii	"tmp\000"
 2436 0caa 01       		.byte	0x1
 2437 0cab C3       		.byte	0xc3
 2438 0cac 86000000 		.4byte	0x86
ARM GAS  /tmp/cc2y9FDt.s 			page 44


 2439 0cb0 30010000 		.4byte	.LLST11
 2440 0cb4 00       		.byte	0
 2441 0cb5 2C       		.uleb128 0x2c
 2442 0cb6 F4000000 		.4byte	.LBB27
 2443 0cba FA000000 		.4byte	.LBE27
 2444 0cbe D20C0000 		.4byte	0xcd2
 2445 0cc2 26       		.uleb128 0x26
 2446 0cc3 746D7000 		.ascii	"tmp\000"
 2447 0cc7 01       		.byte	0x1
 2448 0cc8 A7       		.byte	0xa7
 2449 0cc9 86000000 		.4byte	0x86
 2450 0ccd 43010000 		.4byte	.LLST12
 2451 0cd1 00       		.byte	0
 2452 0cd2 2C       		.uleb128 0x2c
 2453 0cd3 0C010000 		.4byte	.LBB28
 2454 0cd7 12010000 		.4byte	.LBE28
 2455 0cdb EF0C0000 		.4byte	0xcef
 2456 0cdf 26       		.uleb128 0x26
 2457 0ce0 746D7000 		.ascii	"tmp\000"
 2458 0ce4 01       		.byte	0x1
 2459 0ce5 A9       		.byte	0xa9
 2460 0ce6 86000000 		.4byte	0x86
 2461 0cea 56010000 		.4byte	.LLST13
 2462 0cee 00       		.byte	0
 2463 0cef 2C       		.uleb128 0x2c
 2464 0cf0 22010000 		.4byte	.LBB29
 2465 0cf4 28010000 		.4byte	.LBE29
 2466 0cf8 0C0D0000 		.4byte	0xd0c
 2467 0cfc 26       		.uleb128 0x26
 2468 0cfd 746D7000 		.ascii	"tmp\000"
 2469 0d01 01       		.byte	0x1
 2470 0d02 AE       		.byte	0xae
 2471 0d03 86000000 		.4byte	0x86
 2472 0d07 69010000 		.4byte	.LLST14
 2473 0d0b 00       		.byte	0
 2474 0d0c 2C       		.uleb128 0x2c
 2475 0d0d 3A010000 		.4byte	.LBB30
 2476 0d11 42010000 		.4byte	.LBE30
 2477 0d15 290D0000 		.4byte	0xd29
 2478 0d19 26       		.uleb128 0x26
 2479 0d1a 746D7000 		.ascii	"tmp\000"
 2480 0d1e 01       		.byte	0x1
 2481 0d1f B0       		.byte	0xb0
 2482 0d20 86000000 		.4byte	0x86
 2483 0d24 7C010000 		.4byte	.LLST15
 2484 0d28 00       		.byte	0
 2485 0d29 2D       		.uleb128 0x2d
 2486 0d2a 42010000 		.4byte	.LBB31
 2487 0d2e 7E010000 		.4byte	.LBE31
 2488 0d32 26       		.uleb128 0x26
 2489 0d33 6200     		.ascii	"b\000"
 2490 0d35 01       		.byte	0x1
 2491 0d36 B4       		.byte	0xb4
 2492 0d37 EF000000 		.4byte	0xef
 2493 0d3b 9A010000 		.4byte	.LLST16
 2494 0d3f 2C       		.uleb128 0x2c
 2495 0d40 42010000 		.4byte	.LBB32
ARM GAS  /tmp/cc2y9FDt.s 			page 45


 2496 0d44 48010000 		.4byte	.LBE32
 2497 0d48 5C0D0000 		.4byte	0xd5c
 2498 0d4c 26       		.uleb128 0x26
 2499 0d4d 746D7000 		.ascii	"tmp\000"
 2500 0d51 01       		.byte	0x1
 2501 0d52 B5       		.byte	0xb5
 2502 0d53 86000000 		.4byte	0x86
 2503 0d57 B8010000 		.4byte	.LLST17
 2504 0d5b 00       		.byte	0
 2505 0d5c 2D       		.uleb128 0x2d
 2506 0d5d 60010000 		.4byte	.LBB33
 2507 0d61 68010000 		.4byte	.LBE33
 2508 0d65 26       		.uleb128 0x26
 2509 0d66 746D7000 		.ascii	"tmp\000"
 2510 0d6a 01       		.byte	0x1
 2511 0d6b BD       		.byte	0xbd
 2512 0d6c 86000000 		.4byte	0x86
 2513 0d70 CB010000 		.4byte	.LLST18
 2514 0d74 00       		.byte	0
 2515 0d75 00       		.byte	0
 2516 0d76 00       		.byte	0
 2517 0d77 2E       		.uleb128 0x2e
 2518 0d78 01       		.byte	0x1
 2519 0d79 75030000 		.4byte	.LASF177
 2520 0d7d 01       		.byte	0x1
 2521 0d7e 0601     		.2byte	0x106
 2522 0d80 01       		.byte	0x1
 2523 0d81 00000000 		.4byte	.LFB69
 2524 0d85 1E000000 		.4byte	.LFE69
 2525 0d89 E9010000 		.4byte	.LLST19
 2526 0d8d 2E       		.uleb128 0x2e
 2527 0d8e 01       		.byte	0x1
 2528 0d8f B6030000 		.4byte	.LASF178
 2529 0d93 01       		.byte	0x1
 2530 0d94 2C01     		.2byte	0x12c
 2531 0d96 01       		.byte	0x1
 2532 0d97 00000000 		.4byte	.LFB70
 2533 0d9b 1E000000 		.4byte	.LFE70
 2534 0d9f 09020000 		.4byte	.LLST20
 2535 0da3 2E       		.uleb128 0x2e
 2536 0da4 01       		.byte	0x1
 2537 0da5 CB020000 		.4byte	.LASF179
 2538 0da9 01       		.byte	0x1
 2539 0daa 7801     		.2byte	0x178
 2540 0dac 01       		.byte	0x1
 2541 0dad 00000000 		.4byte	.LFB71
 2542 0db1 4C000000 		.4byte	.LFE71
 2543 0db5 29020000 		.4byte	.LLST21
 2544 0db9 2F       		.uleb128 0x2f
 2545 0dba 01       		.byte	0x1
 2546 0dbb 5C050000 		.4byte	.LASF180
 2547 0dbf 01       		.byte	0x1
 2548 0dc0 A301     		.2byte	0x1a3
 2549 0dc2 01       		.byte	0x1
 2550 0dc3 00000000 		.4byte	.LFB72
 2551 0dc7 AC000000 		.4byte	.LFE72
 2552 0dcb 49020000 		.4byte	.LLST22
ARM GAS  /tmp/cc2y9FDt.s 			page 46


 2553 0dcf 260E0000 		.4byte	0xe26
 2554 0dd3 30       		.uleb128 0x30
 2555 0dd4 73647000 		.ascii	"sdp\000"
 2556 0dd8 01       		.byte	0x1
 2557 0dd9 A301     		.2byte	0x1a3
 2558 0ddb 220B0000 		.4byte	0xb22
 2559 0ddf 69020000 		.4byte	.LLST23
 2560 0de3 31       		.uleb128 0x31
 2561 0de4 99060000 		.4byte	.LASF172
 2562 0de8 01       		.byte	0x1
 2563 0de9 A301     		.2byte	0x1a3
 2564 0deb 550B0000 		.4byte	0xb55
 2565 0def 87020000 		.4byte	.LLST24
 2566 0df3 32       		.uleb128 0x32
 2567 0df4 280B0000 		.4byte	0xb28
 2568 0df8 12000000 		.4byte	.LBB34
 2569 0dfc 5A000000 		.4byte	.LBE34
 2570 0e00 01       		.byte	0x1
 2571 0e01 D401     		.2byte	0x1d4
 2572 0e03 33       		.uleb128 0x33
 2573 0e04 400B0000 		.4byte	0xb40
 2574 0e08 29       		.uleb128 0x29
 2575 0e09 350B0000 		.4byte	0xb35
 2576 0e0d B0020000 		.4byte	.LLST25
 2577 0e11 2D       		.uleb128 0x2d
 2578 0e12 12000000 		.4byte	.LBB35
 2579 0e16 5A000000 		.4byte	.LBE35
 2580 0e1a 2B       		.uleb128 0x2b
 2581 0e1b 4B0B0000 		.4byte	0xb4b
 2582 0e1f C3020000 		.4byte	.LLST26
 2583 0e23 00       		.byte	0
 2584 0e24 00       		.byte	0
 2585 0e25 00       		.byte	0
 2586 0e26 34       		.uleb128 0x34
 2587 0e27 01       		.byte	0x1
 2588 0e28 D6070000 		.4byte	.LASF181
 2589 0e2c 01       		.byte	0x1
 2590 0e2d E001     		.2byte	0x1e0
 2591 0e2f 01       		.byte	0x1
 2592 0e30 00000000 		.4byte	.LFB73
 2593 0e34 58000000 		.4byte	.LFE73
 2594 0e38 02       		.byte	0x2
 2595 0e39 7D       		.byte	0x7d
 2596 0e3a 00       		.sleb128 0
 2597 0e3b 6A0E0000 		.4byte	0xe6a
 2598 0e3f 30       		.uleb128 0x30
 2599 0e40 73647000 		.ascii	"sdp\000"
 2600 0e44 01       		.byte	0x1
 2601 0e45 E001     		.2byte	0x1e0
 2602 0e47 220B0000 		.4byte	0xb22
 2603 0e4b D8020000 		.4byte	.LLST27
 2604 0e4f 35       		.uleb128 0x35
 2605 0e50 600B0000 		.4byte	0xb60
 2606 0e54 0E000000 		.4byte	.LBB36
 2607 0e58 30000000 		.4byte	.Ldebug_ranges0+0x30
 2608 0e5c 01       		.byte	0x1
 2609 0e5d E301     		.2byte	0x1e3
ARM GAS  /tmp/cc2y9FDt.s 			page 47


 2610 0e5f 29       		.uleb128 0x29
 2611 0e60 6D0B0000 		.4byte	0xb6d
 2612 0e64 01030000 		.4byte	.LLST28
 2613 0e68 00       		.byte	0
 2614 0e69 00       		.byte	0
 2615 0e6a 36       		.uleb128 0x36
 2616 0e6b AC000000 		.4byte	.LASF182
 2617 0e6f 0E       		.byte	0xe
 2618 0e70 0706     		.2byte	0x607
 2619 0e72 22070000 		.4byte	0x722
 2620 0e76 01       		.byte	0x1
 2621 0e77 01       		.byte	0x1
 2622 0e78 37       		.uleb128 0x37
 2623 0e79 53443100 		.ascii	"SD1\000"
 2624 0e7d 0D       		.byte	0xd
 2625 0e7e 0F01     		.2byte	0x10f
 2626 0e80 63090000 		.4byte	0x963
 2627 0e84 01       		.byte	0x1
 2628 0e85 01       		.byte	0x1
 2629 0e86 37       		.uleb128 0x37
 2630 0e87 53443300 		.ascii	"SD3\000"
 2631 0e8b 0D       		.byte	0xd
 2632 0e8c 1501     		.2byte	0x115
 2633 0e8e 63090000 		.4byte	0x963
 2634 0e92 01       		.byte	0x1
 2635 0e93 01       		.byte	0x1
 2636 0e94 38       		.uleb128 0x38
 2637 0e95 3B010000 		.4byte	.LASF183
 2638 0e99 01       		.byte	0x1
 2639 0e9a 49       		.byte	0x49
 2640 0e9b 5B0B0000 		.4byte	0xb5b
 2641 0e9f 05       		.byte	0x5
 2642 0ea0 03       		.byte	0x3
 2643 0ea1 00000000 		.4byte	default_config
 2644 0ea5 36       		.uleb128 0x36
 2645 0ea6 AC000000 		.4byte	.LASF182
 2646 0eaa 0E       		.byte	0xe
 2647 0eab 0706     		.2byte	0x607
 2648 0ead 22070000 		.4byte	0x722
 2649 0eb1 01       		.byte	0x1
 2650 0eb2 01       		.byte	0x1
 2651 0eb3 39       		.uleb128 0x39
 2652 0eb4 53443100 		.ascii	"SD1\000"
 2653 0eb8 01       		.byte	0x1
 2654 0eb9 28       		.byte	0x28
 2655 0eba 63090000 		.4byte	0x963
 2656 0ebe 01       		.byte	0x1
 2657 0ebf 05       		.byte	0x5
 2658 0ec0 03       		.byte	0x3
 2659 0ec1 00000000 		.4byte	SD1
 2660 0ec5 39       		.uleb128 0x39
 2661 0ec6 53443300 		.ascii	"SD3\000"
 2662 0eca 01       		.byte	0x1
 2663 0ecb 32       		.byte	0x32
 2664 0ecc 63090000 		.4byte	0x963
 2665 0ed0 01       		.byte	0x1
 2666 0ed1 05       		.byte	0x5
ARM GAS  /tmp/cc2y9FDt.s 			page 48


 2667 0ed2 03       		.byte	0x3
 2668 0ed3 00000000 		.4byte	SD3
 2669 0ed7 00       		.byte	0
 2670              		.section	.debug_abbrev,"",%progbits
 2671              	.Ldebug_abbrev0:
 2672 0000 01       		.uleb128 0x1
 2673 0001 11       		.uleb128 0x11
 2674 0002 01       		.byte	0x1
 2675 0003 25       		.uleb128 0x25
 2676 0004 0E       		.uleb128 0xe
 2677 0005 13       		.uleb128 0x13
 2678 0006 0B       		.uleb128 0xb
 2679 0007 03       		.uleb128 0x3
 2680 0008 0E       		.uleb128 0xe
 2681 0009 1B       		.uleb128 0x1b
 2682 000a 0E       		.uleb128 0xe
 2683 000b 11       		.uleb128 0x11
 2684 000c 01       		.uleb128 0x1
 2685 000d 52       		.uleb128 0x52
 2686 000e 01       		.uleb128 0x1
 2687 000f 55       		.uleb128 0x55
 2688 0010 06       		.uleb128 0x6
 2689 0011 10       		.uleb128 0x10
 2690 0012 06       		.uleb128 0x6
 2691 0013 00       		.byte	0
 2692 0014 00       		.byte	0
 2693 0015 02       		.uleb128 0x2
 2694 0016 24       		.uleb128 0x24
 2695 0017 00       		.byte	0
 2696 0018 0B       		.uleb128 0xb
 2697 0019 0B       		.uleb128 0xb
 2698 001a 3E       		.uleb128 0x3e
 2699 001b 0B       		.uleb128 0xb
 2700 001c 03       		.uleb128 0x3
 2701 001d 08       		.uleb128 0x8
 2702 001e 00       		.byte	0
 2703 001f 00       		.byte	0
 2704 0020 03       		.uleb128 0x3
 2705 0021 16       		.uleb128 0x16
 2706 0022 00       		.byte	0
 2707 0023 03       		.uleb128 0x3
 2708 0024 0E       		.uleb128 0xe
 2709 0025 3A       		.uleb128 0x3a
 2710 0026 0B       		.uleb128 0xb
 2711 0027 3B       		.uleb128 0x3b
 2712 0028 0B       		.uleb128 0xb
 2713 0029 49       		.uleb128 0x49
 2714 002a 13       		.uleb128 0x13
 2715 002b 00       		.byte	0
 2716 002c 00       		.byte	0
 2717 002d 04       		.uleb128 0x4
 2718 002e 24       		.uleb128 0x24
 2719 002f 00       		.byte	0
 2720 0030 0B       		.uleb128 0xb
 2721 0031 0B       		.uleb128 0xb
 2722 0032 3E       		.uleb128 0x3e
 2723 0033 0B       		.uleb128 0xb
ARM GAS  /tmp/cc2y9FDt.s 			page 49


 2724 0034 03       		.uleb128 0x3
 2725 0035 0E       		.uleb128 0xe
 2726 0036 00       		.byte	0
 2727 0037 00       		.byte	0
 2728 0038 05       		.uleb128 0x5
 2729 0039 13       		.uleb128 0x13
 2730 003a 01       		.byte	0x1
 2731 003b 03       		.uleb128 0x3
 2732 003c 0E       		.uleb128 0xe
 2733 003d 0B       		.uleb128 0xb
 2734 003e 0B       		.uleb128 0xb
 2735 003f 3A       		.uleb128 0x3a
 2736 0040 0B       		.uleb128 0xb
 2737 0041 3B       		.uleb128 0x3b
 2738 0042 0B       		.uleb128 0xb
 2739 0043 01       		.uleb128 0x1
 2740 0044 13       		.uleb128 0x13
 2741 0045 00       		.byte	0
 2742 0046 00       		.byte	0
 2743 0047 06       		.uleb128 0x6
 2744 0048 0D       		.uleb128 0xd
 2745 0049 00       		.byte	0
 2746 004a 03       		.uleb128 0x3
 2747 004b 0E       		.uleb128 0xe
 2748 004c 3A       		.uleb128 0x3a
 2749 004d 0B       		.uleb128 0xb
 2750 004e 3B       		.uleb128 0x3b
 2751 004f 0B       		.uleb128 0xb
 2752 0050 49       		.uleb128 0x49
 2753 0051 13       		.uleb128 0x13
 2754 0052 38       		.uleb128 0x38
 2755 0053 0A       		.uleb128 0xa
 2756 0054 00       		.byte	0
 2757 0055 00       		.byte	0
 2758 0056 07       		.uleb128 0x7
 2759 0057 0D       		.uleb128 0xd
 2760 0058 00       		.byte	0
 2761 0059 03       		.uleb128 0x3
 2762 005a 08       		.uleb128 0x8
 2763 005b 3A       		.uleb128 0x3a
 2764 005c 0B       		.uleb128 0xb
 2765 005d 3B       		.uleb128 0x3b
 2766 005e 0B       		.uleb128 0xb
 2767 005f 49       		.uleb128 0x49
 2768 0060 13       		.uleb128 0x13
 2769 0061 38       		.uleb128 0x38
 2770 0062 0A       		.uleb128 0xa
 2771 0063 00       		.byte	0
 2772 0064 00       		.byte	0
 2773 0065 08       		.uleb128 0x8
 2774 0066 13       		.uleb128 0x13
 2775 0067 01       		.byte	0x1
 2776 0068 0B       		.uleb128 0xb
 2777 0069 0B       		.uleb128 0xb
 2778 006a 3A       		.uleb128 0x3a
 2779 006b 0B       		.uleb128 0xb
 2780 006c 3B       		.uleb128 0x3b
ARM GAS  /tmp/cc2y9FDt.s 			page 50


 2781 006d 0B       		.uleb128 0xb
 2782 006e 01       		.uleb128 0x1
 2783 006f 13       		.uleb128 0x13
 2784 0070 00       		.byte	0
 2785 0071 00       		.byte	0
 2786 0072 09       		.uleb128 0x9
 2787 0073 0F       		.uleb128 0xf
 2788 0074 00       		.byte	0
 2789 0075 0B       		.uleb128 0xb
 2790 0076 0B       		.uleb128 0xb
 2791 0077 49       		.uleb128 0x49
 2792 0078 13       		.uleb128 0x13
 2793 0079 00       		.byte	0
 2794 007a 00       		.byte	0
 2795 007b 0A       		.uleb128 0xa
 2796 007c 0F       		.uleb128 0xf
 2797 007d 00       		.byte	0
 2798 007e 0B       		.uleb128 0xb
 2799 007f 0B       		.uleb128 0xb
 2800 0080 00       		.byte	0
 2801 0081 00       		.byte	0
 2802 0082 0B       		.uleb128 0xb
 2803 0083 13       		.uleb128 0x13
 2804 0084 01       		.byte	0x1
 2805 0085 03       		.uleb128 0x3
 2806 0086 0E       		.uleb128 0xe
 2807 0087 0B       		.uleb128 0xb
 2808 0088 0B       		.uleb128 0xb
 2809 0089 3A       		.uleb128 0x3a
 2810 008a 0B       		.uleb128 0xb
 2811 008b 3B       		.uleb128 0x3b
 2812 008c 05       		.uleb128 0x5
 2813 008d 01       		.uleb128 0x1
 2814 008e 13       		.uleb128 0x13
 2815 008f 00       		.byte	0
 2816 0090 00       		.byte	0
 2817 0091 0C       		.uleb128 0xc
 2818 0092 0D       		.uleb128 0xd
 2819 0093 00       		.byte	0
 2820 0094 03       		.uleb128 0x3
 2821 0095 08       		.uleb128 0x8
 2822 0096 3A       		.uleb128 0x3a
 2823 0097 0B       		.uleb128 0xb
 2824 0098 3B       		.uleb128 0x3b
 2825 0099 05       		.uleb128 0x5
 2826 009a 49       		.uleb128 0x49
 2827 009b 13       		.uleb128 0x13
 2828 009c 38       		.uleb128 0x38
 2829 009d 0A       		.uleb128 0xa
 2830 009e 00       		.byte	0
 2831 009f 00       		.byte	0
 2832 00a0 0D       		.uleb128 0xd
 2833 00a1 35       		.uleb128 0x35
 2834 00a2 00       		.byte	0
 2835 00a3 49       		.uleb128 0x49
 2836 00a4 13       		.uleb128 0x13
 2837 00a5 00       		.byte	0
ARM GAS  /tmp/cc2y9FDt.s 			page 51


 2838 00a6 00       		.byte	0
 2839 00a7 0E       		.uleb128 0xe
 2840 00a8 17       		.uleb128 0x17
 2841 00a9 01       		.byte	0x1
 2842 00aa 0B       		.uleb128 0xb
 2843 00ab 0B       		.uleb128 0xb
 2844 00ac 3A       		.uleb128 0x3a
 2845 00ad 0B       		.uleb128 0xb
 2846 00ae 3B       		.uleb128 0x3b
 2847 00af 0B       		.uleb128 0xb
 2848 00b0 01       		.uleb128 0x1
 2849 00b1 13       		.uleb128 0x13
 2850 00b2 00       		.byte	0
 2851 00b3 00       		.byte	0
 2852 00b4 0F       		.uleb128 0xf
 2853 00b5 0D       		.uleb128 0xd
 2854 00b6 00       		.byte	0
 2855 00b7 03       		.uleb128 0x3
 2856 00b8 0E       		.uleb128 0xe
 2857 00b9 3A       		.uleb128 0x3a
 2858 00ba 0B       		.uleb128 0xb
 2859 00bb 3B       		.uleb128 0x3b
 2860 00bc 0B       		.uleb128 0xb
 2861 00bd 49       		.uleb128 0x49
 2862 00be 13       		.uleb128 0x13
 2863 00bf 00       		.byte	0
 2864 00c0 00       		.byte	0
 2865 00c1 10       		.uleb128 0x10
 2866 00c2 26       		.uleb128 0x26
 2867 00c3 00       		.byte	0
 2868 00c4 49       		.uleb128 0x49
 2869 00c5 13       		.uleb128 0x13
 2870 00c6 00       		.byte	0
 2871 00c7 00       		.byte	0
 2872 00c8 11       		.uleb128 0x11
 2873 00c9 15       		.uleb128 0x15
 2874 00ca 01       		.byte	0x1
 2875 00cb 27       		.uleb128 0x27
 2876 00cc 0C       		.uleb128 0xc
 2877 00cd 49       		.uleb128 0x49
 2878 00ce 13       		.uleb128 0x13
 2879 00cf 01       		.uleb128 0x1
 2880 00d0 13       		.uleb128 0x13
 2881 00d1 00       		.byte	0
 2882 00d2 00       		.byte	0
 2883 00d3 12       		.uleb128 0x12
 2884 00d4 05       		.uleb128 0x5
 2885 00d5 00       		.byte	0
 2886 00d6 49       		.uleb128 0x49
 2887 00d7 13       		.uleb128 0x13
 2888 00d8 00       		.byte	0
 2889 00d9 00       		.byte	0
 2890 00da 13       		.uleb128 0x13
 2891 00db 15       		.uleb128 0x15
 2892 00dc 01       		.byte	0x1
 2893 00dd 27       		.uleb128 0x27
 2894 00de 0C       		.uleb128 0xc
ARM GAS  /tmp/cc2y9FDt.s 			page 52


 2895 00df 01       		.uleb128 0x1
 2896 00e0 13       		.uleb128 0x13
 2897 00e1 00       		.byte	0
 2898 00e2 00       		.byte	0
 2899 00e3 14       		.uleb128 0x14
 2900 00e4 04       		.uleb128 0x4
 2901 00e5 01       		.byte	0x1
 2902 00e6 03       		.uleb128 0x3
 2903 00e7 0E       		.uleb128 0xe
 2904 00e8 0B       		.uleb128 0xb
 2905 00e9 0B       		.uleb128 0xb
 2906 00ea 3A       		.uleb128 0x3a
 2907 00eb 0B       		.uleb128 0xb
 2908 00ec 3B       		.uleb128 0x3b
 2909 00ed 0B       		.uleb128 0xb
 2910 00ee 01       		.uleb128 0x1
 2911 00ef 13       		.uleb128 0x13
 2912 00f0 00       		.byte	0
 2913 00f1 00       		.byte	0
 2914 00f2 15       		.uleb128 0x15
 2915 00f3 28       		.uleb128 0x28
 2916 00f4 00       		.byte	0
 2917 00f5 03       		.uleb128 0x3
 2918 00f6 0E       		.uleb128 0xe
 2919 00f7 1C       		.uleb128 0x1c
 2920 00f8 0D       		.uleb128 0xd
 2921 00f9 00       		.byte	0
 2922 00fa 00       		.byte	0
 2923 00fb 16       		.uleb128 0x16
 2924 00fc 13       		.uleb128 0x13
 2925 00fd 01       		.byte	0x1
 2926 00fe 0B       		.uleb128 0xb
 2927 00ff 0B       		.uleb128 0xb
 2928 0100 3A       		.uleb128 0x3a
 2929 0101 0B       		.uleb128 0xb
 2930 0102 3B       		.uleb128 0x3b
 2931 0103 05       		.uleb128 0x5
 2932 0104 01       		.uleb128 0x1
 2933 0105 13       		.uleb128 0x13
 2934 0106 00       		.byte	0
 2935 0107 00       		.byte	0
 2936 0108 17       		.uleb128 0x17
 2937 0109 0D       		.uleb128 0xd
 2938 010a 00       		.byte	0
 2939 010b 03       		.uleb128 0x3
 2940 010c 0E       		.uleb128 0xe
 2941 010d 3A       		.uleb128 0x3a
 2942 010e 0B       		.uleb128 0xb
 2943 010f 3B       		.uleb128 0x3b
 2944 0110 05       		.uleb128 0x5
 2945 0111 49       		.uleb128 0x49
 2946 0112 13       		.uleb128 0x13
 2947 0113 38       		.uleb128 0x38
 2948 0114 0A       		.uleb128 0xa
 2949 0115 00       		.byte	0
 2950 0116 00       		.byte	0
 2951 0117 18       		.uleb128 0x18
ARM GAS  /tmp/cc2y9FDt.s 			page 53


 2952 0118 16       		.uleb128 0x16
 2953 0119 00       		.byte	0
 2954 011a 03       		.uleb128 0x3
 2955 011b 0E       		.uleb128 0xe
 2956 011c 3A       		.uleb128 0x3a
 2957 011d 0B       		.uleb128 0xb
 2958 011e 3B       		.uleb128 0x3b
 2959 011f 05       		.uleb128 0x5
 2960 0120 49       		.uleb128 0x49
 2961 0121 13       		.uleb128 0x13
 2962 0122 00       		.byte	0
 2963 0123 00       		.byte	0
 2964 0124 19       		.uleb128 0x19
 2965 0125 04       		.uleb128 0x4
 2966 0126 01       		.byte	0x1
 2967 0127 0B       		.uleb128 0xb
 2968 0128 0B       		.uleb128 0xb
 2969 0129 3A       		.uleb128 0x3a
 2970 012a 0B       		.uleb128 0xb
 2971 012b 3B       		.uleb128 0x3b
 2972 012c 0B       		.uleb128 0xb
 2973 012d 01       		.uleb128 0x1
 2974 012e 13       		.uleb128 0x13
 2975 012f 00       		.byte	0
 2976 0130 00       		.byte	0
 2977 0131 1A       		.uleb128 0x1a
 2978 0132 13       		.uleb128 0x13
 2979 0133 01       		.byte	0x1
 2980 0134 03       		.uleb128 0x3
 2981 0135 0E       		.uleb128 0xe
 2982 0136 0B       		.uleb128 0xb
 2983 0137 05       		.uleb128 0x5
 2984 0138 3A       		.uleb128 0x3a
 2985 0139 0B       		.uleb128 0xb
 2986 013a 3B       		.uleb128 0x3b
 2987 013b 0B       		.uleb128 0xb
 2988 013c 01       		.uleb128 0x1
 2989 013d 13       		.uleb128 0x13
 2990 013e 00       		.byte	0
 2991 013f 00       		.byte	0
 2992 0140 1B       		.uleb128 0x1b
 2993 0141 01       		.uleb128 0x1
 2994 0142 01       		.byte	0x1
 2995 0143 49       		.uleb128 0x49
 2996 0144 13       		.uleb128 0x13
 2997 0145 01       		.uleb128 0x1
 2998 0146 13       		.uleb128 0x13
 2999 0147 00       		.byte	0
 3000 0148 00       		.byte	0
 3001 0149 1C       		.uleb128 0x1c
 3002 014a 21       		.uleb128 0x21
 3003 014b 00       		.byte	0
 3004 014c 49       		.uleb128 0x49
 3005 014d 13       		.uleb128 0x13
 3006 014e 2F       		.uleb128 0x2f
 3007 014f 0B       		.uleb128 0xb
 3008 0150 00       		.byte	0
ARM GAS  /tmp/cc2y9FDt.s 			page 54


 3009 0151 00       		.byte	0
 3010 0152 1D       		.uleb128 0x1d
 3011 0153 2E       		.uleb128 0x2e
 3012 0154 01       		.byte	0x1
 3013 0155 03       		.uleb128 0x3
 3014 0156 0E       		.uleb128 0xe
 3015 0157 3A       		.uleb128 0x3a
 3016 0158 0B       		.uleb128 0xb
 3017 0159 3B       		.uleb128 0x3b
 3018 015a 0B       		.uleb128 0xb
 3019 015b 27       		.uleb128 0x27
 3020 015c 0C       		.uleb128 0xc
 3021 015d 20       		.uleb128 0x20
 3022 015e 0B       		.uleb128 0xb
 3023 015f 01       		.uleb128 0x1
 3024 0160 13       		.uleb128 0x13
 3025 0161 00       		.byte	0
 3026 0162 00       		.byte	0
 3027 0163 1E       		.uleb128 0x1e
 3028 0164 05       		.uleb128 0x5
 3029 0165 00       		.byte	0
 3030 0166 03       		.uleb128 0x3
 3031 0167 08       		.uleb128 0x8
 3032 0168 3A       		.uleb128 0x3a
 3033 0169 0B       		.uleb128 0xb
 3034 016a 3B       		.uleb128 0x3b
 3035 016b 0B       		.uleb128 0xb
 3036 016c 49       		.uleb128 0x49
 3037 016d 13       		.uleb128 0x13
 3038 016e 00       		.byte	0
 3039 016f 00       		.byte	0
 3040 0170 1F       		.uleb128 0x1f
 3041 0171 34       		.uleb128 0x34
 3042 0172 00       		.byte	0
 3043 0173 03       		.uleb128 0x3
 3044 0174 08       		.uleb128 0x8
 3045 0175 3A       		.uleb128 0x3a
 3046 0176 0B       		.uleb128 0xb
 3047 0177 3B       		.uleb128 0x3b
 3048 0178 0B       		.uleb128 0xb
 3049 0179 49       		.uleb128 0x49
 3050 017a 13       		.uleb128 0x13
 3051 017b 00       		.byte	0
 3052 017c 00       		.byte	0
 3053 017d 20       		.uleb128 0x20
 3054 017e 0B       		.uleb128 0xb
 3055 017f 01       		.byte	0x1
 3056 0180 01       		.uleb128 0x1
 3057 0181 13       		.uleb128 0x13
 3058 0182 00       		.byte	0
 3059 0183 00       		.byte	0
 3060 0184 21       		.uleb128 0x21
 3061 0185 0B       		.uleb128 0xb
 3062 0186 01       		.byte	0x1
 3063 0187 00       		.byte	0
 3064 0188 00       		.byte	0
 3065 0189 22       		.uleb128 0x22
ARM GAS  /tmp/cc2y9FDt.s 			page 55


 3066 018a 05       		.uleb128 0x5
 3067 018b 00       		.byte	0
 3068 018c 03       		.uleb128 0x3
 3069 018d 0E       		.uleb128 0xe
 3070 018e 3A       		.uleb128 0x3a
 3071 018f 0B       		.uleb128 0xb
 3072 0190 3B       		.uleb128 0x3b
 3073 0191 0B       		.uleb128 0xb
 3074 0192 49       		.uleb128 0x49
 3075 0193 13       		.uleb128 0x13
 3076 0194 00       		.byte	0
 3077 0195 00       		.byte	0
 3078 0196 23       		.uleb128 0x23
 3079 0197 2E       		.uleb128 0x2e
 3080 0198 01       		.byte	0x1
 3081 0199 03       		.uleb128 0x3
 3082 019a 0E       		.uleb128 0xe
 3083 019b 3A       		.uleb128 0x3a
 3084 019c 0B       		.uleb128 0xb
 3085 019d 3B       		.uleb128 0x3b
 3086 019e 0B       		.uleb128 0xb
 3087 019f 27       		.uleb128 0x27
 3088 01a0 0C       		.uleb128 0xc
 3089 01a1 11       		.uleb128 0x11
 3090 01a2 01       		.uleb128 0x1
 3091 01a3 12       		.uleb128 0x12
 3092 01a4 01       		.uleb128 0x1
 3093 01a5 40       		.uleb128 0x40
 3094 01a6 0A       		.uleb128 0xa
 3095 01a7 01       		.uleb128 0x1
 3096 01a8 13       		.uleb128 0x13
 3097 01a9 00       		.byte	0
 3098 01aa 00       		.byte	0
 3099 01ab 24       		.uleb128 0x24
 3100 01ac 05       		.uleb128 0x5
 3101 01ad 00       		.byte	0
 3102 01ae 03       		.uleb128 0x3
 3103 01af 08       		.uleb128 0x8
 3104 01b0 3A       		.uleb128 0x3a
 3105 01b1 0B       		.uleb128 0xb
 3106 01b2 3B       		.uleb128 0x3b
 3107 01b3 0B       		.uleb128 0xb
 3108 01b4 49       		.uleb128 0x49
 3109 01b5 13       		.uleb128 0x13
 3110 01b6 02       		.uleb128 0x2
 3111 01b7 06       		.uleb128 0x6
 3112 01b8 00       		.byte	0
 3113 01b9 00       		.byte	0
 3114 01ba 25       		.uleb128 0x25
 3115 01bb 2E       		.uleb128 0x2e
 3116 01bc 01       		.byte	0x1
 3117 01bd 03       		.uleb128 0x3
 3118 01be 0E       		.uleb128 0xe
 3119 01bf 3A       		.uleb128 0x3a
 3120 01c0 0B       		.uleb128 0xb
 3121 01c1 3B       		.uleb128 0x3b
 3122 01c2 0B       		.uleb128 0xb
ARM GAS  /tmp/cc2y9FDt.s 			page 56


 3123 01c3 27       		.uleb128 0x27
 3124 01c4 0C       		.uleb128 0xc
 3125 01c5 11       		.uleb128 0x11
 3126 01c6 01       		.uleb128 0x1
 3127 01c7 12       		.uleb128 0x12
 3128 01c8 01       		.uleb128 0x1
 3129 01c9 40       		.uleb128 0x40
 3130 01ca 06       		.uleb128 0x6
 3131 01cb 01       		.uleb128 0x1
 3132 01cc 13       		.uleb128 0x13
 3133 01cd 00       		.byte	0
 3134 01ce 00       		.byte	0
 3135 01cf 26       		.uleb128 0x26
 3136 01d0 34       		.uleb128 0x34
 3137 01d1 00       		.byte	0
 3138 01d2 03       		.uleb128 0x3
 3139 01d3 08       		.uleb128 0x8
 3140 01d4 3A       		.uleb128 0x3a
 3141 01d5 0B       		.uleb128 0xb
 3142 01d6 3B       		.uleb128 0x3b
 3143 01d7 0B       		.uleb128 0xb
 3144 01d8 49       		.uleb128 0x49
 3145 01d9 13       		.uleb128 0x13
 3146 01da 02       		.uleb128 0x2
 3147 01db 06       		.uleb128 0x6
 3148 01dc 00       		.byte	0
 3149 01dd 00       		.byte	0
 3150 01de 27       		.uleb128 0x27
 3151 01df 34       		.uleb128 0x34
 3152 01e0 00       		.byte	0
 3153 01e1 03       		.uleb128 0x3
 3154 01e2 08       		.uleb128 0x8
 3155 01e3 3A       		.uleb128 0x3a
 3156 01e4 0B       		.uleb128 0xb
 3157 01e5 3B       		.uleb128 0x3b
 3158 01e6 0B       		.uleb128 0xb
 3159 01e7 49       		.uleb128 0x49
 3160 01e8 13       		.uleb128 0x13
 3161 01e9 02       		.uleb128 0x2
 3162 01ea 0A       		.uleb128 0xa
 3163 01eb 00       		.byte	0
 3164 01ec 00       		.byte	0
 3165 01ed 28       		.uleb128 0x28
 3166 01ee 1D       		.uleb128 0x1d
 3167 01ef 01       		.byte	0x1
 3168 01f0 31       		.uleb128 0x31
 3169 01f1 13       		.uleb128 0x13
 3170 01f2 52       		.uleb128 0x52
 3171 01f3 01       		.uleb128 0x1
 3172 01f4 55       		.uleb128 0x55
 3173 01f5 06       		.uleb128 0x6
 3174 01f6 58       		.uleb128 0x58
 3175 01f7 0B       		.uleb128 0xb
 3176 01f8 59       		.uleb128 0x59
 3177 01f9 0B       		.uleb128 0xb
 3178 01fa 01       		.uleb128 0x1
 3179 01fb 13       		.uleb128 0x13
ARM GAS  /tmp/cc2y9FDt.s 			page 57


 3180 01fc 00       		.byte	0
 3181 01fd 00       		.byte	0
 3182 01fe 29       		.uleb128 0x29
 3183 01ff 05       		.uleb128 0x5
 3184 0200 00       		.byte	0
 3185 0201 31       		.uleb128 0x31
 3186 0202 13       		.uleb128 0x13
 3187 0203 02       		.uleb128 0x2
 3188 0204 06       		.uleb128 0x6
 3189 0205 00       		.byte	0
 3190 0206 00       		.byte	0
 3191 0207 2A       		.uleb128 0x2a
 3192 0208 0B       		.uleb128 0xb
 3193 0209 01       		.byte	0x1
 3194 020a 55       		.uleb128 0x55
 3195 020b 06       		.uleb128 0x6
 3196 020c 00       		.byte	0
 3197 020d 00       		.byte	0
 3198 020e 2B       		.uleb128 0x2b
 3199 020f 34       		.uleb128 0x34
 3200 0210 00       		.byte	0
 3201 0211 31       		.uleb128 0x31
 3202 0212 13       		.uleb128 0x13
 3203 0213 02       		.uleb128 0x2
 3204 0214 06       		.uleb128 0x6
 3205 0215 00       		.byte	0
 3206 0216 00       		.byte	0
 3207 0217 2C       		.uleb128 0x2c
 3208 0218 0B       		.uleb128 0xb
 3209 0219 01       		.byte	0x1
 3210 021a 11       		.uleb128 0x11
 3211 021b 01       		.uleb128 0x1
 3212 021c 12       		.uleb128 0x12
 3213 021d 01       		.uleb128 0x1
 3214 021e 01       		.uleb128 0x1
 3215 021f 13       		.uleb128 0x13
 3216 0220 00       		.byte	0
 3217 0221 00       		.byte	0
 3218 0222 2D       		.uleb128 0x2d
 3219 0223 0B       		.uleb128 0xb
 3220 0224 01       		.byte	0x1
 3221 0225 11       		.uleb128 0x11
 3222 0226 01       		.uleb128 0x1
 3223 0227 12       		.uleb128 0x12
 3224 0228 01       		.uleb128 0x1
 3225 0229 00       		.byte	0
 3226 022a 00       		.byte	0
 3227 022b 2E       		.uleb128 0x2e
 3228 022c 2E       		.uleb128 0x2e
 3229 022d 00       		.byte	0
 3230 022e 3F       		.uleb128 0x3f
 3231 022f 0C       		.uleb128 0xc
 3232 0230 03       		.uleb128 0x3
 3233 0231 0E       		.uleb128 0xe
 3234 0232 3A       		.uleb128 0x3a
 3235 0233 0B       		.uleb128 0xb
 3236 0234 3B       		.uleb128 0x3b
ARM GAS  /tmp/cc2y9FDt.s 			page 58


 3237 0235 05       		.uleb128 0x5
 3238 0236 27       		.uleb128 0x27
 3239 0237 0C       		.uleb128 0xc
 3240 0238 11       		.uleb128 0x11
 3241 0239 01       		.uleb128 0x1
 3242 023a 12       		.uleb128 0x12
 3243 023b 01       		.uleb128 0x1
 3244 023c 40       		.uleb128 0x40
 3245 023d 06       		.uleb128 0x6
 3246 023e 00       		.byte	0
 3247 023f 00       		.byte	0
 3248 0240 2F       		.uleb128 0x2f
 3249 0241 2E       		.uleb128 0x2e
 3250 0242 01       		.byte	0x1
 3251 0243 3F       		.uleb128 0x3f
 3252 0244 0C       		.uleb128 0xc
 3253 0245 03       		.uleb128 0x3
 3254 0246 0E       		.uleb128 0xe
 3255 0247 3A       		.uleb128 0x3a
 3256 0248 0B       		.uleb128 0xb
 3257 0249 3B       		.uleb128 0x3b
 3258 024a 05       		.uleb128 0x5
 3259 024b 27       		.uleb128 0x27
 3260 024c 0C       		.uleb128 0xc
 3261 024d 11       		.uleb128 0x11
 3262 024e 01       		.uleb128 0x1
 3263 024f 12       		.uleb128 0x12
 3264 0250 01       		.uleb128 0x1
 3265 0251 40       		.uleb128 0x40
 3266 0252 06       		.uleb128 0x6
 3267 0253 01       		.uleb128 0x1
 3268 0254 13       		.uleb128 0x13
 3269 0255 00       		.byte	0
 3270 0256 00       		.byte	0
 3271 0257 30       		.uleb128 0x30
 3272 0258 05       		.uleb128 0x5
 3273 0259 00       		.byte	0
 3274 025a 03       		.uleb128 0x3
 3275 025b 08       		.uleb128 0x8
 3276 025c 3A       		.uleb128 0x3a
 3277 025d 0B       		.uleb128 0xb
 3278 025e 3B       		.uleb128 0x3b
 3279 025f 05       		.uleb128 0x5
 3280 0260 49       		.uleb128 0x49
 3281 0261 13       		.uleb128 0x13
 3282 0262 02       		.uleb128 0x2
 3283 0263 06       		.uleb128 0x6
 3284 0264 00       		.byte	0
 3285 0265 00       		.byte	0
 3286 0266 31       		.uleb128 0x31
 3287 0267 05       		.uleb128 0x5
 3288 0268 00       		.byte	0
 3289 0269 03       		.uleb128 0x3
 3290 026a 0E       		.uleb128 0xe
 3291 026b 3A       		.uleb128 0x3a
 3292 026c 0B       		.uleb128 0xb
 3293 026d 3B       		.uleb128 0x3b
ARM GAS  /tmp/cc2y9FDt.s 			page 59


 3294 026e 05       		.uleb128 0x5
 3295 026f 49       		.uleb128 0x49
 3296 0270 13       		.uleb128 0x13
 3297 0271 02       		.uleb128 0x2
 3298 0272 06       		.uleb128 0x6
 3299 0273 00       		.byte	0
 3300 0274 00       		.byte	0
 3301 0275 32       		.uleb128 0x32
 3302 0276 1D       		.uleb128 0x1d
 3303 0277 01       		.byte	0x1
 3304 0278 31       		.uleb128 0x31
 3305 0279 13       		.uleb128 0x13
 3306 027a 11       		.uleb128 0x11
 3307 027b 01       		.uleb128 0x1
 3308 027c 12       		.uleb128 0x12
 3309 027d 01       		.uleb128 0x1
 3310 027e 58       		.uleb128 0x58
 3311 027f 0B       		.uleb128 0xb
 3312 0280 59       		.uleb128 0x59
 3313 0281 05       		.uleb128 0x5
 3314 0282 00       		.byte	0
 3315 0283 00       		.byte	0
 3316 0284 33       		.uleb128 0x33
 3317 0285 05       		.uleb128 0x5
 3318 0286 00       		.byte	0
 3319 0287 31       		.uleb128 0x31
 3320 0288 13       		.uleb128 0x13
 3321 0289 00       		.byte	0
 3322 028a 00       		.byte	0
 3323 028b 34       		.uleb128 0x34
 3324 028c 2E       		.uleb128 0x2e
 3325 028d 01       		.byte	0x1
 3326 028e 3F       		.uleb128 0x3f
 3327 028f 0C       		.uleb128 0xc
 3328 0290 03       		.uleb128 0x3
 3329 0291 0E       		.uleb128 0xe
 3330 0292 3A       		.uleb128 0x3a
 3331 0293 0B       		.uleb128 0xb
 3332 0294 3B       		.uleb128 0x3b
 3333 0295 05       		.uleb128 0x5
 3334 0296 27       		.uleb128 0x27
 3335 0297 0C       		.uleb128 0xc
 3336 0298 11       		.uleb128 0x11
 3337 0299 01       		.uleb128 0x1
 3338 029a 12       		.uleb128 0x12
 3339 029b 01       		.uleb128 0x1
 3340 029c 40       		.uleb128 0x40
 3341 029d 0A       		.uleb128 0xa
 3342 029e 01       		.uleb128 0x1
 3343 029f 13       		.uleb128 0x13
 3344 02a0 00       		.byte	0
 3345 02a1 00       		.byte	0
 3346 02a2 35       		.uleb128 0x35
 3347 02a3 1D       		.uleb128 0x1d
 3348 02a4 01       		.byte	0x1
 3349 02a5 31       		.uleb128 0x31
 3350 02a6 13       		.uleb128 0x13
ARM GAS  /tmp/cc2y9FDt.s 			page 60


 3351 02a7 52       		.uleb128 0x52
 3352 02a8 01       		.uleb128 0x1
 3353 02a9 55       		.uleb128 0x55
 3354 02aa 06       		.uleb128 0x6
 3355 02ab 58       		.uleb128 0x58
 3356 02ac 0B       		.uleb128 0xb
 3357 02ad 59       		.uleb128 0x59
 3358 02ae 05       		.uleb128 0x5
 3359 02af 00       		.byte	0
 3360 02b0 00       		.byte	0
 3361 02b1 36       		.uleb128 0x36
 3362 02b2 34       		.uleb128 0x34
 3363 02b3 00       		.byte	0
 3364 02b4 03       		.uleb128 0x3
 3365 02b5 0E       		.uleb128 0xe
 3366 02b6 3A       		.uleb128 0x3a
 3367 02b7 0B       		.uleb128 0xb
 3368 02b8 3B       		.uleb128 0x3b
 3369 02b9 05       		.uleb128 0x5
 3370 02ba 49       		.uleb128 0x49
 3371 02bb 13       		.uleb128 0x13
 3372 02bc 3F       		.uleb128 0x3f
 3373 02bd 0C       		.uleb128 0xc
 3374 02be 3C       		.uleb128 0x3c
 3375 02bf 0C       		.uleb128 0xc
 3376 02c0 00       		.byte	0
 3377 02c1 00       		.byte	0
 3378 02c2 37       		.uleb128 0x37
 3379 02c3 34       		.uleb128 0x34
 3380 02c4 00       		.byte	0
 3381 02c5 03       		.uleb128 0x3
 3382 02c6 08       		.uleb128 0x8
 3383 02c7 3A       		.uleb128 0x3a
 3384 02c8 0B       		.uleb128 0xb
 3385 02c9 3B       		.uleb128 0x3b
 3386 02ca 05       		.uleb128 0x5
 3387 02cb 49       		.uleb128 0x49
 3388 02cc 13       		.uleb128 0x13
 3389 02cd 3F       		.uleb128 0x3f
 3390 02ce 0C       		.uleb128 0xc
 3391 02cf 3C       		.uleb128 0x3c
 3392 02d0 0C       		.uleb128 0xc
 3393 02d1 00       		.byte	0
 3394 02d2 00       		.byte	0
 3395 02d3 38       		.uleb128 0x38
 3396 02d4 34       		.uleb128 0x34
 3397 02d5 00       		.byte	0
 3398 02d6 03       		.uleb128 0x3
 3399 02d7 0E       		.uleb128 0xe
 3400 02d8 3A       		.uleb128 0x3a
 3401 02d9 0B       		.uleb128 0xb
 3402 02da 3B       		.uleb128 0x3b
 3403 02db 0B       		.uleb128 0xb
 3404 02dc 49       		.uleb128 0x49
 3405 02dd 13       		.uleb128 0x13
 3406 02de 02       		.uleb128 0x2
 3407 02df 0A       		.uleb128 0xa
ARM GAS  /tmp/cc2y9FDt.s 			page 61


 3408 02e0 00       		.byte	0
 3409 02e1 00       		.byte	0
 3410 02e2 39       		.uleb128 0x39
 3411 02e3 34       		.uleb128 0x34
 3412 02e4 00       		.byte	0
 3413 02e5 03       		.uleb128 0x3
 3414 02e6 08       		.uleb128 0x8
 3415 02e7 3A       		.uleb128 0x3a
 3416 02e8 0B       		.uleb128 0xb
 3417 02e9 3B       		.uleb128 0x3b
 3418 02ea 0B       		.uleb128 0xb
 3419 02eb 49       		.uleb128 0x49
 3420 02ec 13       		.uleb128 0x13
 3421 02ed 3F       		.uleb128 0x3f
 3422 02ee 0C       		.uleb128 0xc
 3423 02ef 02       		.uleb128 0x2
 3424 02f0 0A       		.uleb128 0xa
 3425 02f1 00       		.byte	0
 3426 02f2 00       		.byte	0
 3427 02f3 00       		.byte	0
 3428              		.section	.debug_loc,"",%progbits
 3429              	.Ldebug_loc0:
 3430              	.LLST0:
 3431 0000 00000000 		.4byte	.LVL0
 3432 0004 0C000000 		.4byte	.LVL1
 3433 0008 0100     		.2byte	0x1
 3434 000a 50       		.byte	0x50
 3435 000b 00000000 		.4byte	0
 3436 000f 00000000 		.4byte	0
 3437              	.LLST1:
 3438 0013 00000000 		.4byte	.LVL2
 3439 0017 0C000000 		.4byte	.LVL3
 3440 001b 0100     		.2byte	0x1
 3441 001d 50       		.byte	0x50
 3442 001e 00000000 		.4byte	0
 3443 0022 00000000 		.4byte	0
 3444              	.LLST2:
 3445 0026 00000000 		.4byte	.LFB66
 3446 002a 04000000 		.4byte	.LCFI0
 3447 002e 0200     		.2byte	0x2
 3448 0030 7D       		.byte	0x7d
 3449 0031 00       		.sleb128 0
 3450 0032 04000000 		.4byte	.LCFI0
 3451 0036 7E010000 		.4byte	.LFE66
 3452 003a 0200     		.2byte	0x2
 3453 003c 7D       		.byte	0x7d
 3454 003d 20       		.sleb128 32
 3455 003e 00000000 		.4byte	0
 3456 0042 00000000 		.4byte	0
 3457              	.LLST3:
 3458 0046 00000000 		.4byte	.LVL4
 3459 004a 10000000 		.4byte	.LVL6
 3460 004e 0100     		.2byte	0x1
 3461 0050 50       		.byte	0x50
 3462 0051 10000000 		.4byte	.LVL6
 3463 0055 7E010000 		.4byte	.LFE66
 3464 0059 0100     		.2byte	0x1
ARM GAS  /tmp/cc2y9FDt.s 			page 62


 3465 005b 56       		.byte	0x56
 3466 005c 00000000 		.4byte	0
 3467 0060 00000000 		.4byte	0
 3468              	.LLST4:
 3469 0064 08000000 		.4byte	.LVL5
 3470 0068 10000000 		.4byte	.LVL6
 3471 006c 0300     		.2byte	0x3
 3472 006e 70       		.byte	0x70
 3473 006f D404     		.sleb128 596
 3474 0071 10000000 		.4byte	.LVL6
 3475 0075 8D000000 		.4byte	.LVL14-1
 3476 0079 0300     		.2byte	0x3
 3477 007b 76       		.byte	0x76
 3478 007c D404     		.sleb128 596
 3479 007e 8D000000 		.4byte	.LVL14-1
 3480 0082 7E010000 		.4byte	.LFE66
 3481 0086 0100     		.2byte	0x1
 3482 0088 55       		.byte	0x55
 3483 0089 00000000 		.4byte	0
 3484 008d 00000000 		.4byte	0
 3485              	.LLST5:
 3486 0091 1C000000 		.4byte	.LVL9
 3487 0095 A0000000 		.4byte	.LVL16
 3488 0099 0100     		.2byte	0x1
 3489 009b 54       		.byte	0x54
 3490 009c EA000000 		.4byte	.LVL27
 3491 00a0 F4000000 		.4byte	.LVL28
 3492 00a4 0100     		.2byte	0x1
 3493 00a6 54       		.byte	0x54
 3494 00a7 00000000 		.4byte	0
 3495 00ab 00000000 		.4byte	0
 3496              	.LLST6:
 3497 00af 1C000000 		.4byte	.LVL9
 3498 00b3 A0000000 		.4byte	.LVL16
 3499 00b7 0100     		.2byte	0x1
 3500 00b9 56       		.byte	0x56
 3501 00ba EA000000 		.4byte	.LVL27
 3502 00be F4000000 		.4byte	.LVL28
 3503 00c2 0100     		.2byte	0x1
 3504 00c4 56       		.byte	0x56
 3505 00c5 00000000 		.4byte	0
 3506 00c9 00000000 		.4byte	0
 3507              	.LLST7:
 3508 00cd 1C000000 		.4byte	.LVL9
 3509 00d1 64000000 		.4byte	.LVL10
 3510 00d5 0200     		.2byte	0x2
 3511 00d7 30       		.byte	0x30
 3512 00d8 9F       		.byte	0x9f
 3513 00d9 64000000 		.4byte	.LVL10
 3514 00dd 76000000 		.4byte	.LVL11
 3515 00e1 0100     		.2byte	0x1
 3516 00e3 53       		.byte	0x53
 3517 00e4 EA000000 		.4byte	.LVL27
 3518 00e8 F4000000 		.4byte	.LVL28
 3519 00ec 0100     		.2byte	0x1
 3520 00ee 50       		.byte	0x50
 3521 00ef 00000000 		.4byte	0
ARM GAS  /tmp/cc2y9FDt.s 			page 63


 3522 00f3 00000000 		.4byte	0
 3523              	.LLST8:
 3524 00f7 8A000000 		.4byte	.LVL13
 3525 00fb 8D000000 		.4byte	.LVL14-1
 3526 00ff 0100     		.2byte	0x1
 3527 0101 53       		.byte	0x53
 3528 0102 00000000 		.4byte	0
 3529 0106 00000000 		.4byte	0
 3530              	.LLST9:
 3531 010a A0000000 		.4byte	.LVL16
 3532 010e A2000000 		.4byte	.LVL17
 3533 0112 0100     		.2byte	0x1
 3534 0114 53       		.byte	0x53
 3535 0115 00000000 		.4byte	0
 3536 0119 00000000 		.4byte	0
 3537              	.LLST10:
 3538 011d BA000000 		.4byte	.LVL22
 3539 0121 BD000000 		.4byte	.LVL23-1
 3540 0125 0100     		.2byte	0x1
 3541 0127 53       		.byte	0x53
 3542 0128 00000000 		.4byte	0
 3543 012c 00000000 		.4byte	0
 3544              	.LLST11:
 3545 0130 D0000000 		.4byte	.LVL25
 3546 0134 E0000000 		.4byte	.LVL26
 3547 0138 0100     		.2byte	0x1
 3548 013a 53       		.byte	0x53
 3549 013b 00000000 		.4byte	0
 3550 013f 00000000 		.4byte	0
 3551              	.LLST12:
 3552 0143 FA000000 		.4byte	.LVL30
 3553 0147 FD000000 		.4byte	.LVL31-1
 3554 014b 0100     		.2byte	0x1
 3555 014d 53       		.byte	0x53
 3556 014e 00000000 		.4byte	0
 3557 0152 00000000 		.4byte	0
 3558              	.LLST13:
 3559 0156 12010000 		.4byte	.LVL33
 3560 015a 1C010000 		.4byte	.LVL34
 3561 015e 0100     		.2byte	0x1
 3562 0160 53       		.byte	0x53
 3563 0161 00000000 		.4byte	0
 3564 0165 00000000 		.4byte	0
 3565              	.LLST14:
 3566 0169 28010000 		.4byte	.LVL36
 3567 016d 2B010000 		.4byte	.LVL37-1
 3568 0171 0100     		.2byte	0x1
 3569 0173 53       		.byte	0x53
 3570 0174 00000000 		.4byte	0
 3571 0178 00000000 		.4byte	0
 3572              	.LLST15:
 3573 017c A8000000 		.4byte	.LVL18
 3574 0180 B2000000 		.4byte	.LVL20
 3575 0184 0100     		.2byte	0x1
 3576 0186 53       		.byte	0x53
 3577 0187 40010000 		.4byte	.LVL38
 3578 018b 44010000 		.4byte	.LVL39
ARM GAS  /tmp/cc2y9FDt.s 			page 64


 3579 018f 0100     		.2byte	0x1
 3580 0191 53       		.byte	0x53
 3581 0192 00000000 		.4byte	0
 3582 0196 00000000 		.4byte	0
 3583              	.LLST16:
 3584 019a 54010000 		.4byte	.LVL42
 3585 019e 5C010000 		.4byte	.LVL43
 3586 01a2 0100     		.2byte	0x1
 3587 01a4 50       		.byte	0x50
 3588 01a5 68010000 		.4byte	.LVL45
 3589 01a9 6A010000 		.4byte	.LVL46
 3590 01ad 0100     		.2byte	0x1
 3591 01af 50       		.byte	0x50
 3592 01b0 00000000 		.4byte	0
 3593 01b4 00000000 		.4byte	0
 3594              	.LLST17:
 3595 01b8 48010000 		.4byte	.LVL40
 3596 01bc 4B010000 		.4byte	.LVL41-1
 3597 01c0 0100     		.2byte	0x1
 3598 01c2 53       		.byte	0x53
 3599 01c3 00000000 		.4byte	0
 3600 01c7 00000000 		.4byte	0
 3601              	.LLST18:
 3602 01cb B0000000 		.4byte	.LVL19
 3603 01cf B2000000 		.4byte	.LVL20
 3604 01d3 0100     		.2byte	0x1
 3605 01d5 53       		.byte	0x53
 3606 01d6 66010000 		.4byte	.LVL44
 3607 01da 68010000 		.4byte	.LVL45
 3608 01de 0100     		.2byte	0x1
 3609 01e0 53       		.byte	0x53
 3610 01e1 00000000 		.4byte	0
 3611 01e5 00000000 		.4byte	0
 3612              	.LLST19:
 3613 01e9 00000000 		.4byte	.LFB69
 3614 01ed 02000000 		.4byte	.LCFI1
 3615 01f1 0200     		.2byte	0x2
 3616 01f3 7D       		.byte	0x7d
 3617 01f4 00       		.sleb128 0
 3618 01f5 02000000 		.4byte	.LCFI1
 3619 01f9 1E000000 		.4byte	.LFE69
 3620 01fd 0200     		.2byte	0x2
 3621 01ff 7D       		.byte	0x7d
 3622 0200 08       		.sleb128 8
 3623 0201 00000000 		.4byte	0
 3624 0205 00000000 		.4byte	0
 3625              	.LLST20:
 3626 0209 00000000 		.4byte	.LFB70
 3627 020d 02000000 		.4byte	.LCFI2
 3628 0211 0200     		.2byte	0x2
 3629 0213 7D       		.byte	0x7d
 3630 0214 00       		.sleb128 0
 3631 0215 02000000 		.4byte	.LCFI2
 3632 0219 1E000000 		.4byte	.LFE70
 3633 021d 0200     		.2byte	0x2
 3634 021f 7D       		.byte	0x7d
 3635 0220 08       		.sleb128 8
ARM GAS  /tmp/cc2y9FDt.s 			page 65


 3636 0221 00000000 		.4byte	0
 3637 0225 00000000 		.4byte	0
 3638              	.LLST21:
 3639 0229 00000000 		.4byte	.LFB71
 3640 022d 02000000 		.4byte	.LCFI3
 3641 0231 0200     		.2byte	0x2
 3642 0233 7D       		.byte	0x7d
 3643 0234 00       		.sleb128 0
 3644 0235 02000000 		.4byte	.LCFI3
 3645 0239 4C000000 		.4byte	.LFE71
 3646 023d 0200     		.2byte	0x2
 3647 023f 7D       		.byte	0x7d
 3648 0240 10       		.sleb128 16
 3649 0241 00000000 		.4byte	0
 3650 0245 00000000 		.4byte	0
 3651              	.LLST22:
 3652 0249 00000000 		.4byte	.LFB72
 3653 024d 02000000 		.4byte	.LCFI4
 3654 0251 0200     		.2byte	0x2
 3655 0253 7D       		.byte	0x7d
 3656 0254 00       		.sleb128 0
 3657 0255 02000000 		.4byte	.LCFI4
 3658 0259 AC000000 		.4byte	.LFE72
 3659 025d 0200     		.2byte	0x2
 3660 025f 7D       		.byte	0x7d
 3661 0260 10       		.sleb128 16
 3662 0261 00000000 		.4byte	0
 3663 0265 00000000 		.4byte	0
 3664              	.LLST23:
 3665 0269 00000000 		.4byte	.LVL47
 3666 026d 12000000 		.4byte	.LVL48
 3667 0271 0100     		.2byte	0x1
 3668 0273 50       		.byte	0x50
 3669 0274 12000000 		.4byte	.LVL48
 3670 0278 AC000000 		.4byte	.LFE72
 3671 027c 0100     		.2byte	0x1
 3672 027e 55       		.byte	0x55
 3673 027f 00000000 		.4byte	0
 3674 0283 00000000 		.4byte	0
 3675              	.LLST24:
 3676 0287 00000000 		.4byte	.LVL47
 3677 028b 12000000 		.4byte	.LVL48
 3678 028f 0100     		.2byte	0x1
 3679 0291 51       		.byte	0x51
 3680 0292 5C000000 		.4byte	.LVL50
 3681 0296 74000000 		.4byte	.LVL51
 3682 029a 0100     		.2byte	0x1
 3683 029c 51       		.byte	0x51
 3684 029d 86000000 		.4byte	.LVL52
 3685 02a1 8A000000 		.4byte	.LVL53
 3686 02a5 0100     		.2byte	0x1
 3687 02a7 51       		.byte	0x51
 3688 02a8 00000000 		.4byte	0
 3689 02ac 00000000 		.4byte	0
 3690              	.LLST25:
 3691 02b0 12000000 		.4byte	.LVL48
 3692 02b4 5C000000 		.4byte	.LVL50
ARM GAS  /tmp/cc2y9FDt.s 			page 66


 3693 02b8 0100     		.2byte	0x1
 3694 02ba 55       		.byte	0x55
 3695 02bb 00000000 		.4byte	0
 3696 02bf 00000000 		.4byte	0
 3697              	.LLST26:
 3698 02c3 20000000 		.4byte	.LVL49
 3699 02c7 5C000000 		.4byte	.LVL50
 3700 02cb 0300     		.2byte	0x3
 3701 02cd 75       		.byte	0x75
 3702 02ce D404     		.sleb128 596
 3703 02d0 00000000 		.4byte	0
 3704 02d4 00000000 		.4byte	0
 3705              	.LLST27:
 3706 02d8 00000000 		.4byte	.LVL54
 3707 02dc 08000000 		.4byte	.LVL55
 3708 02e0 0100     		.2byte	0x1
 3709 02e2 50       		.byte	0x50
 3710 02e3 0A000000 		.4byte	.LVL56
 3711 02e7 2E000000 		.4byte	.LVL58
 3712 02eb 0100     		.2byte	0x1
 3713 02ed 50       		.byte	0x50
 3714 02ee 36000000 		.4byte	.LVL59
 3715 02f2 46000000 		.4byte	.LVL60
 3716 02f6 0100     		.2byte	0x1
 3717 02f8 50       		.byte	0x50
 3718 02f9 00000000 		.4byte	0
 3719 02fd 00000000 		.4byte	0
 3720              	.LLST28:
 3721 0301 0E000000 		.4byte	.LVL57
 3722 0305 2E000000 		.4byte	.LVL58
 3723 0309 0300     		.2byte	0x3
 3724 030b 70       		.byte	0x70
 3725 030c D404     		.sleb128 596
 3726 030e 36000000 		.4byte	.LVL59
 3727 0312 4F000000 		.4byte	.LVL61-1
 3728 0316 0100     		.2byte	0x1
 3729 0318 53       		.byte	0x53
 3730 0319 00000000 		.4byte	0
 3731 031d 00000000 		.4byte	0
 3732              		.section	.debug_aranges,"",%progbits
 3733 0000 54000000 		.4byte	0x54
 3734 0004 0200     		.2byte	0x2
 3735 0006 00000000 		.4byte	.Ldebug_info0
 3736 000a 04       		.byte	0x4
 3737 000b 00       		.byte	0
 3738 000c 0000     		.2byte	0
 3739 000e 0000     		.2byte	0
 3740 0010 00000000 		.4byte	.LFB67
 3741 0014 14000000 		.4byte	.LFE67-.LFB67
 3742 0018 00000000 		.4byte	.LFB68
 3743 001c 14000000 		.4byte	.LFE68-.LFB68
 3744 0020 00000000 		.4byte	.LFB66
 3745 0024 7E010000 		.4byte	.LFE66-.LFB66
 3746 0028 00000000 		.4byte	.LFB69
 3747 002c 1E000000 		.4byte	.LFE69-.LFB69
 3748 0030 00000000 		.4byte	.LFB70
 3749 0034 1E000000 		.4byte	.LFE70-.LFB70
ARM GAS  /tmp/cc2y9FDt.s 			page 67


 3750 0038 00000000 		.4byte	.LFB71
 3751 003c 4C000000 		.4byte	.LFE71-.LFB71
 3752 0040 00000000 		.4byte	.LFB72
 3753 0044 AC000000 		.4byte	.LFE72-.LFB72
 3754 0048 00000000 		.4byte	.LFB73
 3755 004c 58000000 		.4byte	.LFE73-.LFB73
 3756 0050 00000000 		.4byte	0
 3757 0054 00000000 		.4byte	0
 3758              		.section	.debug_ranges,"",%progbits
 3759              	.Ldebug_ranges0:
 3760 0000 1C000000 		.4byte	.LBB19
 3761 0004 A0000000 		.4byte	.LBE19
 3762 0008 EA000000 		.4byte	.LBB26
 3763 000c F4000000 		.4byte	.LBE26
 3764 0010 00000000 		.4byte	0
 3765 0014 00000000 		.4byte	0
 3766 0018 1C000000 		.4byte	.LBB20
 3767 001c A0000000 		.4byte	.LBE20
 3768 0020 EA000000 		.4byte	.LBB23
 3769 0024 F4000000 		.4byte	.LBE23
 3770 0028 00000000 		.4byte	0
 3771 002c 00000000 		.4byte	0
 3772 0030 0E000000 		.4byte	.LBB36
 3773 0034 10000000 		.4byte	.LBE36
 3774 0038 12000000 		.4byte	.LBB39
 3775 003c 18000000 		.4byte	.LBE39
 3776 0040 00000000 		.4byte	0
 3777 0044 00000000 		.4byte	0
 3778 0048 00000000 		.4byte	.LFB67
 3779 004c 14000000 		.4byte	.LFE67
 3780 0050 00000000 		.4byte	.LFB68
 3781 0054 14000000 		.4byte	.LFE68
 3782 0058 00000000 		.4byte	.LFB66
 3783 005c 7E010000 		.4byte	.LFE66
 3784 0060 00000000 		.4byte	.LFB69
 3785 0064 1E000000 		.4byte	.LFE69
 3786 0068 00000000 		.4byte	.LFB70
 3787 006c 1E000000 		.4byte	.LFE70
 3788 0070 00000000 		.4byte	.LFB71
 3789 0074 4C000000 		.4byte	.LFE71
 3790 0078 00000000 		.4byte	.LFB72
 3791 007c AC000000 		.4byte	.LFE72
 3792 0080 00000000 		.4byte	.LFB73
 3793 0084 58000000 		.4byte	.LFE73
 3794 0088 00000000 		.4byte	0
 3795 008c 00000000 		.4byte	0
 3796              		.section	.debug_line,"",%progbits
 3797              	.Ldebug_line0:
 3798 0000 F3030000 		.section	.debug_str,"MS",%progbits,1
 3798      0200AA02 
 3798      00000201 
 3798      FB0E0D00 
 3798      01010101 
 3799              	.LASF89:
 3800 0000 5056445F 		.ascii	"PVD_IRQn\000"
 3800      4952516E 
 3800      00
ARM GAS  /tmp/cc2y9FDt.s 			page 68


 3801              	.LASF158:
 3802 0009 73635F73 		.ascii	"sc_speed\000"
 3802      70656564 
 3802      00
 3803              	.LASF2:
 3804 0012 73697A65 		.ascii	"size_t\000"
 3804      5F7400
 3805              	.LASF63:
 3806 0019 7264796D 		.ascii	"rdymsg\000"
 3806      736700
 3807              	.LASF13:
 3808 0020 75696E74 		.ascii	"uint64_t\000"
 3808      36345F74 
 3808      00
 3809              	.LASF79:
 3810 0029 4F757470 		.ascii	"OutputQueue\000"
 3810      75745175 
 3810      65756500 
 3811              	.LASF119:
 3812 0035 49324331 		.ascii	"I2C1_EV_IRQn\000"
 3812      5F45565F 
 3812      4952516E 
 3812      00
 3813              	.LASF129:
 3814 0042 5254435F 		.ascii	"RTC_Alarm_IRQn\000"
 3814      416C6172 
 3814      6D5F4952 
 3814      516E00
 3815              	.LASF170:
 3816 0051 7365745F 		.ascii	"set_error\000"
 3816      6572726F 
 3816      7200
 3817              	.LASF109:
 3818 005b 43414E31 		.ascii	"CAN1_RX1_IRQn\000"
 3818      5F525831 
 3818      5F495251 
 3818      6E00
 3819              	.LASF14:
 3820 0069 6C6F6E67 		.ascii	"long long unsigned int\000"
 3820      206C6F6E 
 3820      6720756E 
 3820      7369676E 
 3820      65642069 
 3821              	.LASF23:
 3822 0080 666C6167 		.ascii	"flagsmask_t\000"
 3822      736D6173 
 3822      6B5F7400 
 3823              	.LASF64:
 3824 008c 65786974 		.ascii	"exitcode\000"
 3824      636F6465 
 3824      00
 3825              	.LASF122:
 3826 0095 49324332 		.ascii	"I2C2_ER_IRQn\000"
 3826      5F45525F 
 3826      4952516E 
 3826      00
 3827              	.LASF118:
ARM GAS  /tmp/cc2y9FDt.s 			page 69


 3828 00a2 54494D34 		.ascii	"TIM4_IRQn\000"
 3828      5F495251 
 3828      6E00
 3829              	.LASF182:
 3830 00ac 49544D5F 		.ascii	"ITM_RxBuffer\000"
 3830      52784275 
 3830      66666572 
 3830      00
 3831              	.LASF113:
 3832 00b9 54494D31 		.ascii	"TIM1_UP_IRQn\000"
 3832      5F55505F 
 3832      4952516E 
 3832      00
 3833              	.LASF88:
 3834 00c6 57574447 		.ascii	"WWDG_IRQn\000"
 3834      5F495251 
 3834      6E00
 3835              	.LASF159:
 3836 00d0 73635F63 		.ascii	"sc_cr1\000"
 3836      723100
 3837              	.LASF28:
 3838 00d7 705F7072 		.ascii	"p_prio\000"
 3838      696F00
 3839              	.LASF169:
 3840 00de 72656164 		.ascii	"readt\000"
 3840      7400
 3841              	.LASF69:
 3842 00e4 715F7761 		.ascii	"q_waiting\000"
 3842      6974696E 
 3842      6700
 3843              	.LASF12:
 3844 00ee 6C6F6E67 		.ascii	"long long int\000"
 3844      206C6F6E 
 3844      6720696E 
 3844      7400
 3845              	.LASF1:
 3846 00fc 7369676E 		.ascii	"signed char\000"
 3846      65642063 
 3846      68617200 
 3847              	.LASF145:
 3848 0108 47545052 		.ascii	"GTPR\000"
 3848      00
 3849              	.LASF34:
 3850 010d 705F7374 		.ascii	"p_state\000"
 3850      61746500 
 3851              	.LASF45:
 3852 0115 705F6D70 		.ascii	"p_mpool\000"
 3852      6F6F6C00 
 3853              	.LASF53:
 3854 011d 6D5F7175 		.ascii	"m_queue\000"
 3854      65756500 
 3855              	.LASF19:
 3856 0125 74736C69 		.ascii	"tslices_t\000"
 3856      6365735F 
 3856      7400
 3857              	.LASF138:
 3858 012f 5243435F 		.ascii	"RCC_TypeDef\000"
ARM GAS  /tmp/cc2y9FDt.s 			page 70


 3858      54797065 
 3858      44656600 
 3859              	.LASF183:
 3860 013b 64656661 		.ascii	"default_config\000"
 3860      756C745F 
 3860      636F6E66 
 3860      696700
 3861              	.LASF154:
 3862 014a 73746174 		.ascii	"state\000"
 3862      6500
 3863              	.LASF9:
 3864 0150 6C6F6E67 		.ascii	"long int\000"
 3864      20696E74 
 3864      00
 3865              	.LASF184:
 3866 0159 474E5520 		.ascii	"GNU C 4.6.2 20120613 (release) [ARM/embedded-4_6-br"
 3866      4320342E 
 3866      362E3220 
 3866      32303132 
 3866      30363133 
 3867 018c 616E6368 		.ascii	"anch revision 188521]\000"
 3867      20726576 
 3867      6973696F 
 3867      6E203138 
 3867      38353231 
 3868              	.LASF186:
 3869 01a2 2F686F6D 		.ascii	"/home/tino/workspace/openrobots/R2P_IR_module/fw\000"
 3869      652F7469 
 3869      6E6F2F77 
 3869      6F726B73 
 3869      70616365 
 3870              	.LASF17:
 3871 01d3 74737461 		.ascii	"tstate_t\000"
 3871      74655F74 
 3871      00
 3872              	.LASF111:
 3873 01dc 45585449 		.ascii	"EXTI9_5_IRQn\000"
 3873      395F355F 
 3873      4952516E 
 3873      00
 3874              	.LASF36:
 3875 01e9 705F7265 		.ascii	"p_refs\000"
 3875      667300
 3876              	.LASF71:
 3877 01f0 715F6275 		.ascii	"q_buffer\000"
 3877      66666572 
 3877      00
 3878              	.LASF73:
 3879 01f9 715F7772 		.ascii	"q_wrptr\000"
 3879      70747200 
 3880              	.LASF106:
 3881 0201 41444331 		.ascii	"ADC1_2_IRQn\000"
 3881      5F325F49 
 3881      52516E00 
 3882              	.LASF30:
 3883 020d 705F6E65 		.ascii	"p_newer\000"
 3883      77657200 
ARM GAS  /tmp/cc2y9FDt.s 			page 71


 3884              	.LASF68:
 3885 0215 47656E65 		.ascii	"GenericQueue\000"
 3885      72696351 
 3885      75657565 
 3885      00
 3886              	.LASF86:
 3887 0222 50656E64 		.ascii	"PendSV_IRQn\000"
 3887      53565F49 
 3887      52516E00 
 3888              	.LASF44:
 3889 022e 705F7265 		.ascii	"p_realprio\000"
 3889      616C7072 
 3889      696F00
 3890              	.LASF48:
 3891 0239 72656761 		.ascii	"regarm_t\000"
 3891      726D5F74 
 3891      00
 3892              	.LASF132:
 3893 0242 41504232 		.ascii	"APB2RSTR\000"
 3893      52535452 
 3893      00
 3894              	.LASF173:
 3895 024b 75736172 		.ascii	"usart_deinit\000"
 3895      745F6465 
 3895      696E6974 
 3895      00
 3896              	.LASF61:
 3897 0258 4576656E 		.ascii	"EventSource\000"
 3897      74536F75 
 3897      72636500 
 3898              	.LASF157:
 3899 0264 75736172 		.ascii	"usart\000"
 3899      7400
 3900              	.LASF0:
 3901 026a 756E7369 		.ascii	"unsigned int\000"
 3901      676E6564 
 3901      20696E74 
 3901      00
 3902              	.LASF6:
 3903 0277 75696E74 		.ascii	"uint16_t\000"
 3903      31365F74 
 3903      00
 3904              	.LASF163:
 3905 0280 53657269 		.ascii	"SerialDriverVMT\000"
 3905      616C4472 
 3905      69766572 
 3905      564D5400 
 3906              	.LASF38:
 3907 0290 705F7469 		.ascii	"p_time\000"
 3907      6D6500
 3908              	.LASF58:
 3909 0297 656C5F6C 		.ascii	"el_listener\000"
 3909      69737465 
 3909      6E657200 
 3910              	.LASF81:
 3911 02a3 4D656D6F 		.ascii	"MemoryManagement_IRQn\000"
 3911      72794D61 
ARM GAS  /tmp/cc2y9FDt.s 			page 72


 3911      6E616765 
 3911      6D656E74 
 3911      5F495251 
 3912              	.LASF155:
 3913 02b9 69717565 		.ascii	"iqueue\000"
 3913      756500
 3914              	.LASF40:
 3915 02c0 705F6D73 		.ascii	"p_msgqueue\000"
 3915      67717565 
 3915      756500
 3916              	.LASF179:
 3917 02cb 73645F6C 		.ascii	"sd_lld_init\000"
 3917      6C645F69 
 3917      6E697400 
 3918              	.LASF167:
 3919 02d7 67657474 		.ascii	"gett\000"
 3919      00
 3920              	.LASF153:
 3921 02dc 6576656E 		.ascii	"event\000"
 3921      7400
 3922              	.LASF103:
 3923 02e2 444D4131 		.ascii	"DMA1_Channel5_IRQn\000"
 3923      5F436861 
 3923      6E6E656C 
 3923      355F4952 
 3923      516E00
 3924              	.LASF7:
 3925 02f5 73686F72 		.ascii	"short unsigned int\000"
 3925      7420756E 
 3925      7369676E 
 3925      65642069 
 3925      6E7400
 3926              	.LASF114:
 3927 0308 54494D31 		.ascii	"TIM1_TRG_COM_IRQn\000"
 3927      5F545247 
 3927      5F434F4D 
 3927      5F495251 
 3927      6E00
 3928              	.LASF21:
 3929 031a 6D73675F 		.ascii	"msg_t\000"
 3929      7400
 3930              	.LASF156:
 3931 0320 6F717565 		.ascii	"oqueue\000"
 3931      756500
 3932              	.LASF128:
 3933 0327 45585449 		.ascii	"EXTI15_10_IRQn\000"
 3933      31355F31 
 3933      305F4952 
 3933      516E00
 3934              	.LASF123:
 3935 0336 53504931 		.ascii	"SPI1_IRQn\000"
 3935      5F495251 
 3935      6E00
 3936              	.LASF147:
 3937 0340 55534152 		.ascii	"USART_TypeDef\000"
 3937      545F5479 
 3937      70654465 
ARM GAS  /tmp/cc2y9FDt.s 			page 73


 3937      6600
 3938              	.LASF168:
 3939 034e 77726974 		.ascii	"writet\000"
 3939      657400
 3940              	.LASF16:
 3941 0355 746D6F64 		.ascii	"tmode_t\000"
 3941      655F7400 
 3942              	.LASF47:
 3943 035d 54687265 		.ascii	"ThreadsList\000"
 3943      6164734C 
 3943      69737400 
 3944              	.LASF22:
 3945 0369 6576656E 		.ascii	"eventmask_t\000"
 3945      746D6173 
 3945      6B5F7400 
 3946              	.LASF177:
 3947 0375 56656374 		.ascii	"VectorD4\000"
 3947      6F724434 
 3947      00
 3948              	.LASF102:
 3949 037e 444D4131 		.ascii	"DMA1_Channel4_IRQn\000"
 3949      5F436861 
 3949      6E6E656C 
 3949      345F4952 
 3949      516E00
 3950              	.LASF87:
 3951 0391 53797354 		.ascii	"SysTick_IRQn\000"
 3951      69636B5F 
 3951      4952516E 
 3951      00
 3952              	.LASF115:
 3953 039e 54494D31 		.ascii	"TIM1_CC_IRQn\000"
 3953      5F43435F 
 3953      4952516E 
 3953      00
 3954              	.LASF49:
 3955 03ab 73746B61 		.ascii	"stkalign_t\000"
 3955      6C69676E 
 3955      5F7400
 3956              	.LASF178:
 3957 03b6 56656374 		.ascii	"VectorDC\000"
 3957      6F724443 
 3957      00
 3958              	.LASF164:
 3959 03bf 77726974 		.ascii	"write\000"
 3959      6500
 3960              	.LASF187:
 3961 03c5 4952516E 		.ascii	"IRQn\000"
 3961      00
 3962              	.LASF166:
 3963 03ca 70757474 		.ascii	"putt\000"
 3963      00
 3964              	.LASF171:
 3965 03cf 75736172 		.ascii	"usart_init\000"
 3965      745F696E 
 3965      697400
 3966              	.LASF100:
ARM GAS  /tmp/cc2y9FDt.s 			page 74


 3967 03da 444D4131 		.ascii	"DMA1_Channel2_IRQn\000"
 3967      5F436861 
 3967      6E6E656C 
 3967      325F4952 
 3967      516E00
 3968              	.LASF185:
 3969 03ed 2E2E2F2E 		.ascii	"../../ChibiOS/os/hal/platforms/STM32/USARTv1/serial"
 3969      2E2F4368 
 3969      6962694F 
 3969      532F6F73 
 3969      2F68616C 
 3970 0420 5F6C6C64 		.ascii	"_lld.c\000"
 3970      2E6300
 3971              	.LASF70:
 3972 0427 715F636F 		.ascii	"q_counter\000"
 3972      756E7465 
 3972      7200
 3973              	.LASF52:
 3974 0431 4D757465 		.ascii	"Mutex\000"
 3974      7800
 3975              	.LASF26:
 3976 0437 705F6E65 		.ascii	"p_next\000"
 3976      787400
 3977              	.LASF85:
 3978 043e 44656275 		.ascii	"DebugMonitor_IRQn\000"
 3978      674D6F6E 
 3978      69746F72 
 3978      5F495251 
 3978      6E00
 3979              	.LASF124:
 3980 0450 53504932 		.ascii	"SPI2_IRQn\000"
 3980      5F495251 
 3980      6E00
 3981              	.LASF46:
 3982 045a 54687265 		.ascii	"ThreadsQueue\000"
 3982      61647351 
 3982      75657565 
 3982      00
 3983              	.LASF33:
 3984 0467 705F7374 		.ascii	"p_stklimit\000"
 3984      6B6C696D 
 3984      697400
 3985              	.LASF130:
 3986 0472 5553425F 		.ascii	"USB_FS_WKUP_IRQn\000"
 3986      46535F57 
 3986      4B55505F 
 3986      4952516E 
 3986      00
 3987              	.LASF133:
 3988 0483 41504231 		.ascii	"APB1RSTR\000"
 3988      52535452 
 3988      00
 3989              	.LASF59:
 3990 048c 656C5F6D 		.ascii	"el_mask\000"
 3990      61736B00 
 3991              	.LASF162:
 3992 0494 53657269 		.ascii	"SerialConfig\000"
ARM GAS  /tmp/cc2y9FDt.s 			page 75


 3992      616C436F 
 3992      6E666967 
 3992      00
 3993              	.LASF174:
 3994 04a1 6E6F7469 		.ascii	"notify1\000"
 3994      66793100 
 3995              	.LASF175:
 3996 04a9 6E6F7469 		.ascii	"notify3\000"
 3996      66793300 
 3997              	.LASF99:
 3998 04b1 444D4131 		.ascii	"DMA1_Channel1_IRQn\000"
 3998      5F436861 
 3998      6E6E656C 
 3998      315F4952 
 3998      516E00
 3999              	.LASF18:
 4000 04c4 74726566 		.ascii	"trefs_t\000"
 4000      735F7400 
 4001              	.LASF139:
 4002 04cc 52455345 		.ascii	"RESERVED0\000"
 4002      52564544 
 4002      3000
 4003              	.LASF140:
 4004 04d6 52455345 		.ascii	"RESERVED1\000"
 4004      52564544 
 4004      3100
 4005              	.LASF141:
 4006 04e0 52455345 		.ascii	"RESERVED2\000"
 4006      52564544 
 4006      3200
 4007              	.LASF142:
 4008 04ea 52455345 		.ascii	"RESERVED3\000"
 4008      52564544 
 4008      3300
 4009              	.LASF143:
 4010 04f4 52455345 		.ascii	"RESERVED4\000"
 4010      52564544 
 4010      3400
 4011              	.LASF27:
 4012 04fe 705F7072 		.ascii	"p_prev\000"
 4012      657600
 4013              	.LASF146:
 4014 0505 52455345 		.ascii	"RESERVED6\000"
 4014      52564544 
 4014      3600
 4015              	.LASF20:
 4016 050f 74707269 		.ascii	"tprio_t\000"
 4016      6F5F7400 
 4017              	.LASF74:
 4018 0517 715F7264 		.ascii	"q_rdptr\000"
 4018      70747200 
 4019              	.LASF84:
 4020 051f 53564361 		.ascii	"SVCall_IRQn\000"
 4020      6C6C5F49 
 4020      52516E00 
 4021              	.LASF15:
 4022 052b 5F426F6F 		.ascii	"_Bool\000"
ARM GAS  /tmp/cc2y9FDt.s 			page 76


 4022      6C00
 4023              	.LASF8:
 4024 0531 696E7433 		.ascii	"int32_t\000"
 4024      325F7400 
 4025              	.LASF4:
 4026 0539 756E7369 		.ascii	"unsigned char\000"
 4026      676E6564 
 4026      20636861 
 4026      7200
 4027              	.LASF108:
 4028 0547 5553425F 		.ascii	"USB_LP_CAN1_RX0_IRQn\000"
 4028      4C505F43 
 4028      414E315F 
 4028      5258305F 
 4028      4952516E 
 4029              	.LASF180:
 4030 055c 73645F6C 		.ascii	"sd_lld_start\000"
 4030      6C645F73 
 4030      74617274 
 4030      00
 4031              	.LASF107:
 4032 0569 5553425F 		.ascii	"USB_HP_CAN1_TX_IRQn\000"
 4032      48505F43 
 4032      414E315F 
 4032      54585F49 
 4032      52516E00 
 4033              	.LASF60:
 4034 057d 656C5F66 		.ascii	"el_flags\000"
 4034      6C616773 
 4034      00
 4035              	.LASF98:
 4036 0586 45585449 		.ascii	"EXTI4_IRQn\000"
 4036      345F4952 
 4036      516E00
 4037              	.LASF43:
 4038 0591 705F6D74 		.ascii	"p_mtxlist\000"
 4038      786C6973 
 4038      7400
 4039              	.LASF5:
 4040 059b 73686F72 		.ascii	"short int\000"
 4040      7420696E 
 4040      7400
 4041              	.LASF37:
 4042 05a5 705F7072 		.ascii	"p_preempt\000"
 4042      65656D70 
 4042      7400
 4043              	.LASF31:
 4044 05af 705F6F6C 		.ascii	"p_older\000"
 4044      64657200 
 4045              	.LASF101:
 4046 05b7 444D4131 		.ascii	"DMA1_Channel3_IRQn\000"
 4046      5F436861 
 4046      6E6E656C 
 4046      335F4952 
 4046      516E00
 4047              	.LASF66:
 4048 05ca 65776D61 		.ascii	"ewmask\000"
ARM GAS  /tmp/cc2y9FDt.s 			page 77


 4048      736B00
 4049              	.LASF35:
 4050 05d1 705F666C 		.ascii	"p_flags\000"
 4050      61677300 
 4051              	.LASF57:
 4052 05d9 656C5F6E 		.ascii	"el_next\000"
 4052      65787400 
 4053              	.LASF96:
 4054 05e1 45585449 		.ascii	"EXTI2_IRQn\000"
 4054      325F4952 
 4054      516E00
 4055              	.LASF149:
 4056 05ec 53445F53 		.ascii	"SD_STOP\000"
 4056      544F5000 
 4057              	.LASF135:
 4058 05f4 41504232 		.ascii	"APB2ENR\000"
 4058      454E5200 
 4059              	.LASF25:
 4060 05fc 54687265 		.ascii	"Thread\000"
 4060      616400
 4061              	.LASF176:
 4062 0603 73657276 		.ascii	"serve_interrupt\000"
 4062      655F696E 
 4062      74657272 
 4062      75707400 
 4063              	.LASF92:
 4064 0613 464C4153 		.ascii	"FLASH_IRQn\000"
 4064      485F4952 
 4064      516E00
 4065              	.LASF42:
 4066 061e 705F6570 		.ascii	"p_epending\000"
 4066      656E6469 
 4066      6E6700
 4067              	.LASF148:
 4068 0629 53445F55 		.ascii	"SD_UNINIT\000"
 4068      4E494E49 
 4068      5400
 4069              	.LASF144:
 4070 0633 52455345 		.ascii	"RESERVED5\000"
 4070      52564544 
 4070      3500
 4071              	.LASF10:
 4072 063d 75696E74 		.ascii	"uint32_t\000"
 4072      33325F74 
 4072      00
 4073              	.LASF126:
 4074 0646 55534152 		.ascii	"USART2_IRQn\000"
 4074      54325F49 
 4074      52516E00 
 4075              	.LASF83:
 4076 0652 55736167 		.ascii	"UsageFault_IRQn\000"
 4076      65466175 
 4076      6C745F49 
 4076      52516E00 
 4077              	.LASF152:
 4078 0662 53657269 		.ascii	"SerialDriver\000"
 4078      616C4472 
ARM GAS  /tmp/cc2y9FDt.s 			page 78


 4078      69766572 
 4078      00
 4079              	.LASF11:
 4080 066f 6C6F6E67 		.ascii	"long unsigned int\000"
 4080      20756E73 
 4080      69676E65 
 4080      6420696E 
 4080      7400
 4081              	.LASF165:
 4082 0681 72656164 		.ascii	"read\000"
 4082      00
 4083              	.LASF67:
 4084 0686 63686172 		.ascii	"char\000"
 4084      00
 4085              	.LASF82:
 4086 068b 42757346 		.ascii	"BusFault_IRQn\000"
 4086      61756C74 
 4086      5F495251 
 4086      6E00
 4087              	.LASF172:
 4088 0699 636F6E66 		.ascii	"config\000"
 4088      696700
 4089              	.LASF112:
 4090 06a0 54494D31 		.ascii	"TIM1_BRK_IRQn\000"
 4090      5F42524B 
 4090      5F495251 
 4090      6E00
 4091              	.LASF110:
 4092 06ae 43414E31 		.ascii	"CAN1_SCE_IRQn\000"
 4092      5F534345 
 4092      5F495251 
 4092      6E00
 4093              	.LASF55:
 4094 06bc 6D5F6E65 		.ascii	"m_next\000"
 4094      787400
 4095              	.LASF24:
 4096 06c3 73797374 		.ascii	"systime_t\000"
 4096      696D655F 
 4096      7400
 4097              	.LASF80:
 4098 06cd 4E6F6E4D 		.ascii	"NonMaskableInt_IRQn\000"
 4098      61736B61 
 4098      626C6549 
 4098      6E745F49 
 4098      52516E00 
 4099              	.LASF104:
 4100 06e1 444D4131 		.ascii	"DMA1_Channel6_IRQn\000"
 4100      5F436861 
 4100      6E6E656C 
 4100      365F4952 
 4100      516E00
 4101              	.LASF32:
 4102 06f4 705F6E61 		.ascii	"p_name\000"
 4102      6D6500
 4103              	.LASF136:
 4104 06fb 41504231 		.ascii	"APB1ENR\000"
 4104      454E5200 
ARM GAS  /tmp/cc2y9FDt.s 			page 79


 4105              	.LASF90:
 4106 0703 54414D50 		.ascii	"TAMPER_IRQn\000"
 4106      45525F49 
 4106      52516E00 
 4107              	.LASF51:
 4108 070f 636F6E74 		.ascii	"context\000"
 4108      65787400 
 4109              	.LASF50:
 4110 0717 696E7463 		.ascii	"intctx\000"
 4110      747800
 4111              	.LASF150:
 4112 071e 53445F52 		.ascii	"SD_READY\000"
 4112      45414459 
 4112      00
 4113              	.LASF121:
 4114 0727 49324332 		.ascii	"I2C2_EV_IRQn\000"
 4114      5F45565F 
 4114      4952516E 
 4114      00
 4115              	.LASF127:
 4116 0734 55534152 		.ascii	"USART3_IRQn\000"
 4116      54335F49 
 4116      52516E00 
 4117              	.LASF151:
 4118 0740 73647374 		.ascii	"sdstate_t\000"
 4118      6174655F 
 4118      7400
 4119              	.LASF116:
 4120 074a 54494D32 		.ascii	"TIM2_IRQn\000"
 4120      5F495251 
 4120      6E00
 4121              	.LASF72:
 4122 0754 715F746F 		.ascii	"q_top\000"
 4122      7000
 4123              	.LASF94:
 4124 075a 45585449 		.ascii	"EXTI0_IRQn\000"
 4124      305F4952 
 4124      516E00
 4125              	.LASF62:
 4126 0765 65735F6E 		.ascii	"es_next\000"
 4126      65787400 
 4127              	.LASF125:
 4128 076d 55534152 		.ascii	"USART1_IRQn\000"
 4128      54315F49 
 4128      52516E00 
 4129              	.LASF137:
 4130 0779 42444352 		.ascii	"BDCR\000"
 4130      00
 4131              	.LASF75:
 4132 077e 715F6E6F 		.ascii	"q_notify\000"
 4132      74696679 
 4132      00
 4133              	.LASF97:
 4134 0787 45585449 		.ascii	"EXTI3_IRQn\000"
 4134      335F4952 
 4134      516E00
 4135              	.LASF3:
ARM GAS  /tmp/cc2y9FDt.s 			page 80


 4136 0792 75696E74 		.ascii	"uint8_t\000"
 4136      385F7400 
 4137              	.LASF78:
 4138 079a 496E7075 		.ascii	"InputQueue\000"
 4138      74517565 
 4138      756500
 4139              	.LASF93:
 4140 07a5 5243435F 		.ascii	"RCC_IRQn\000"
 4140      4952516E 
 4140      00
 4141              	.LASF56:
 4142 07ae 4576656E 		.ascii	"EventListener\000"
 4142      744C6973 
 4142      74656E65 
 4142      7200
 4143              	.LASF65:
 4144 07bc 77746F62 		.ascii	"wtobjp\000"
 4144      6A7000
 4145              	.LASF105:
 4146 07c3 444D4131 		.ascii	"DMA1_Channel7_IRQn\000"
 4146      5F436861 
 4146      6E6E656C 
 4146      375F4952 
 4146      516E00
 4147              	.LASF181:
 4148 07d6 73645F6C 		.ascii	"sd_lld_stop\000"
 4148      6C645F73 
 4148      746F7000 
 4149              	.LASF131:
 4150 07e2 43464752 		.ascii	"CFGR\000"
 4150      00
 4151              	.LASF41:
 4152 07e7 705F6D73 		.ascii	"p_msg\000"
 4152      6700
 4153              	.LASF120:
 4154 07ed 49324331 		.ascii	"I2C1_ER_IRQn\000"
 4154      5F45525F 
 4154      4952516E 
 4154      00
 4155              	.LASF160:
 4156 07fa 73635F63 		.ascii	"sc_cr2\000"
 4156      723200
 4157              	.LASF161:
 4158 0801 73635F63 		.ascii	"sc_cr3\000"
 4158      723300
 4159              	.LASF91:
 4160 0808 5254435F 		.ascii	"RTC_IRQn\000"
 4160      4952516E 
 4160      00
 4161              	.LASF76:
 4162 0811 715F6C69 		.ascii	"q_link\000"
 4162      6E6B00
 4163              	.LASF117:
 4164 0818 54494D33 		.ascii	"TIM3_IRQn\000"
 4164      5F495251 
 4164      6E00
 4165              	.LASF54:
ARM GAS  /tmp/cc2y9FDt.s 			page 81


 4166 0822 6D5F6F77 		.ascii	"m_owner\000"
 4166      6E657200 
 4167              	.LASF77:
 4168 082a 716E6F74 		.ascii	"qnotify_t\000"
 4168      6966795F 
 4168      7400
 4169              	.LASF29:
 4170 0834 705F6374 		.ascii	"p_ctx\000"
 4170      7800
 4171              	.LASF39:
 4172 083a 705F7761 		.ascii	"p_waiting\000"
 4172      6974696E 
 4172      6700
 4173              	.LASF134:
 4174 0844 41484245 		.ascii	"AHBENR\000"
 4174      4E5200
 4175              	.LASF95:
 4176 084b 45585449 		.ascii	"EXTI1_IRQn\000"
 4176      315F4952 
 4176      516E00
 4177              		.ident	"GCC: (GNU Tools for ARM Embedded Processors) 4.6.2 20120613 (release) [ARM/embedded-4_6-br
ARM GAS  /tmp/cc2y9FDt.s 			page 82


DEFINED SYMBOLS
                            *ABS*:00000000 serial_lld.c
     /tmp/cc2y9FDt.s:19     .text.notify1:00000000 $t
     /tmp/cc2y9FDt.s:24     .text.notify1:00000000 notify1
     /tmp/cc2y9FDt.s:47     .text.notify3:00000000 $t
     /tmp/cc2y9FDt.s:52     .text.notify3:00000000 notify3
     /tmp/cc2y9FDt.s:74     .text.serve_interrupt:00000000 $t
     /tmp/cc2y9FDt.s:79     .text.serve_interrupt:00000000 serve_interrupt
     /tmp/cc2y9FDt.s:395    .text.VectorD4:00000000 $t
     /tmp/cc2y9FDt.s:401    .text.VectorD4:00000000 VectorD4
     /tmp/cc2y9FDt.s:752    .bss.SD1:00000000 .LANCHOR0
     /tmp/cc2y9FDt.s:428    .text.VectorDC:00000000 $t
     /tmp/cc2y9FDt.s:434    .text.VectorDC:00000000 VectorDC
     /tmp/cc2y9FDt.s:759    .bss.SD3:00000000 .LANCHOR1
     /tmp/cc2y9FDt.s:461    .text.sd_lld_init:00000000 $t
     /tmp/cc2y9FDt.s:467    .text.sd_lld_init:00000000 sd_lld_init
     /tmp/cc2y9FDt.s:515    .text.sd_lld_start:00000000 $t
     /tmp/cc2y9FDt.s:521    .text.sd_lld_start:00000000 sd_lld_start
     /tmp/cc2y9FDt.s:643    .text.sd_lld_start:000000a0 $d
     /tmp/cc2y9FDt.s:650    .text.sd_lld_stop:00000000 $t
     /tmp/cc2y9FDt.s:656    .text.sd_lld_stop:00000000 sd_lld_stop
     /tmp/cc2y9FDt.s:732    .text.sd_lld_stop:00000050 $d
     /tmp/cc2y9FDt.s:762    .bss.SD3:00000000 SD3
     /tmp/cc2y9FDt.s:755    .bss.SD1:00000000 SD1
     /tmp/cc2y9FDt.s:740    .rodata.default_config:00000000 $d
     /tmp/cc2y9FDt.s:744    .rodata.default_config:00000000 default_config
     /tmp/cc2y9FDt.s:751    .bss.SD1:00000000 $d
     /tmp/cc2y9FDt.s:758    .bss.SD3:00000000 $d
                     .debug_frame:00000010 $d
     /tmp/cc2y9FDt.s:649    .text.sd_lld_start:000000ac $t
     /tmp/cc2y9FDt.s:739    .text.sd_lld_stop:00000058 $t

UNDEFINED SYMBOLS
dbg_check_lock_from_isr
chEvtBroadcastFlagsI
dbg_check_unlock_from_isr
sdIncomingDataI
chOQGetI
dbg_check_enter_isr
dbg_check_leave_isr
_port_irq_epilogue
sdObjectInit
nvicEnableVector
nvicDisableVector
