ARM GAS  /tmp/ccENSE6T.s 			page 1


   1              		.syntax unified
   2              		.cpu cortex-m3
   3              		.fpu softvfp
   4              		.eabi_attribute 20, 1
   5              		.eabi_attribute 21, 1
   6              		.eabi_attribute 23, 3
   7              		.eabi_attribute 24, 1
   8              		.eabi_attribute 25, 1
   9              		.eabi_attribute 26, 1
  10              		.eabi_attribute 30, 2
  11              		.eabi_attribute 34, 1
  12              		.eabi_attribute 18, 4
  13              		.thumb
  14              		.file	"shell.c"
  15              		.text
  16              	.Ltext0:
  17              		.cfi_sections	.debug_frame
  18              		.section	.text.cmd_systime,"ax",%progbits
  19              		.align	2
  20              		.p2align 4,,15
  21              		.thumb
  22              		.thumb_func
  23              		.type	cmd_systime, %function
  24              	cmd_systime:
  25              	.LFB67:
  26              		.file 1 "../../ChibiOS/os/various/shell.c"
  27              		.loc 1 99 0
  28              		.cfi_startproc
  29              		@ args = 0, pretend = 0, frame = 0
  30              		@ frame_needed = 0, uses_anonymous_args = 0
  31              		@ link register save eliminated.
  32              	.LVL0:
  33              		.loc 1 102 0
  34 0000 0029     		cmp	r1, #0
  35 0002 03DD     		ble	.L2
  36              	.LVL1:
  37              	.LBB30:
  38              	.LBB31:
  39              		.loc 1 56 0
  40 0004 0449     		ldr	r1, .L4
  41              	.LVL2:
  42 0006 054A     		ldr	r2, .L4+4
  43              	.LVL3:
  44              	.LBE31:
  45              	.LBE30:
  46              		.loc 1 107 0
  47              	.LBB33:
  48              	.LBB32:
  49              		.loc 1 56 0
  50 0008 FFF7FEBF 		b	chprintf
  51              	.LVL4:
  52              	.L2:
  53              	.LBE32:
  54              	.LBE33:
  55              	.LBB34:
  56              	.LBB35:
  57              		.loc 1 106 0
ARM GAS  /tmp/ccENSE6T.s 			page 2


  58 000c 044B     		ldr	r3, .L4+8
  59 000e 0549     		ldr	r1, .L4+12
  60              	.LVL5:
  61 0010 DA68     		ldr	r2, [r3, #12]
  62              	.LVL6:
  63              	.LBE35:
  64              	.LBE34:
  65              		.loc 1 107 0
  66              	.LBB37:
  67              	.LBB36:
  68              		.loc 1 106 0
  69 0012 FFF7FEBF 		b	chprintf
  70              	.LVL7:
  71              	.L5:
  72 0016 00BF     		.align	2
  73              	.L4:
  74 0018 00000000 		.word	.LC0
  75 001c 0C000000 		.word	.LC1
  76 0020 00000000 		.word	vtlist
  77 0024 14000000 		.word	.LC2
  78              	.LBE36:
  79              	.LBE37:
  80              		.cfi_endproc
  81              	.LFE67:
  82              		.size	cmd_systime, .-cmd_systime
  83 0028 AFF30080 		.section	.text.cmd_info,"ax",%progbits
  83      AFF30080 
  84              		.align	2
  85              		.p2align 4,,15
  86              		.thumb
  87              		.thumb_func
  88              		.type	cmd_info, %function
  89              	cmd_info:
  90              	.LFB66:
  91              		.loc 1 67 0
  92              		.cfi_startproc
  93              		@ args = 0, pretend = 0, frame = 0
  94              		@ frame_needed = 0, uses_anonymous_args = 0
  95              	.LVL8:
  96 0000 10B5     		push	{r4, lr}
  97              	.LCFI0:
  98              		.cfi_def_cfa_offset 8
  99              		.cfi_offset 14, -4
 100              		.cfi_offset 4, -8
 101              		.loc 1 70 0
 102 0002 0029     		cmp	r1, #0
 103              		.loc 1 67 0
 104 0004 82B0     		sub	sp, sp, #8
 105              	.LCFI1:
 106              		.cfi_def_cfa_offset 16
 107              		.loc 1 67 0
 108 0006 0446     		mov	r4, r0
 109              		.loc 1 70 0
 110 0008 06DD     		ble	.L7
 111              	.LVL9:
 112              	.LBB44:
 113              	.LBB45:
ARM GAS  /tmp/ccENSE6T.s 			page 3


 114              		.loc 1 56 0
 115 000a 1949     		ldr	r1, .L8
 116              	.LVL10:
 117 000c 194A     		ldr	r2, .L8+4
 118              	.LVL11:
 119              	.LBE45:
 120              	.LBE44:
 121              		.loc 1 97 0
 122 000e 02B0     		add	sp, sp, #8
 123 0010 BDE81040 		pop	{r4, lr}
 124              	.LBB47:
 125              	.LBB46:
 126              		.loc 1 56 0
 127 0014 FFF7FEBF 		b	chprintf
 128              	.LVL12:
 129              	.L7:
 130              	.LBE46:
 131              	.LBE47:
 132              	.LBB48:
 133              	.LBB49:
 134              		.loc 1 75 0
 135 0018 1749     		ldr	r1, .L8+8
 136              	.LVL13:
 137 001a 184A     		ldr	r2, .L8+12
 138              	.LVL14:
 139 001c FFF7FEFF 		bl	chprintf
 140              		.loc 1 77 0
 141 0020 2046     		mov	r0, r4
 142 0022 1749     		ldr	r1, .L8+16
 143 0024 174A     		ldr	r2, .L8+20
 144 0026 FFF7FEFF 		bl	chprintf
 145              		.loc 1 79 0
 146 002a 2046     		mov	r0, r4
 147 002c 1649     		ldr	r1, .L8+24
 148 002e 174A     		ldr	r2, .L8+28
 149 0030 FFF7FEFF 		bl	chprintf
 150              		.loc 1 81 0
 151 0034 2046     		mov	r0, r4
 152 0036 1649     		ldr	r1, .L8+32
 153 0038 164A     		ldr	r2, .L8+36
 154 003a FFF7FEFF 		bl	chprintf
 155              		.loc 1 84 0
 156 003e 2046     		mov	r0, r4
 157 0040 1549     		ldr	r1, .L8+40
 158 0042 164A     		ldr	r2, .L8+44
 159 0044 FFF7FEFF 		bl	chprintf
 160              		.loc 1 87 0
 161 0048 2046     		mov	r0, r4
 162 004a 1549     		ldr	r1, .L8+48
 163 004c 154A     		ldr	r2, .L8+52
 164 004e FFF7FEFF 		bl	chprintf
 165              		.loc 1 90 0
 166 0052 2046     		mov	r0, r4
 167 0054 1449     		ldr	r1, .L8+56
 168 0056 154A     		ldr	r2, .L8+60
 169 0058 FFF7FEFF 		bl	chprintf
 170              		.loc 1 94 0
ARM GAS  /tmp/ccENSE6T.s 			page 4


 171 005c 144B     		ldr	r3, .L8+64
 172 005e 2046     		mov	r0, r4
 173 0060 0093     		str	r3, [sp, #0]
 174 0062 1449     		ldr	r1, .L8+68
 175 0064 144A     		ldr	r2, .L8+72
 176 0066 154B     		ldr	r3, .L8+76
 177 0068 FFF7FEFF 		bl	chprintf
 178              	.LBE49:
 179              	.LBE48:
 180              		.loc 1 97 0
 181 006c 02B0     		add	sp, sp, #8
 182 006e 10BD     		pop	{r4, pc}
 183              	.L9:
 184              		.align	2
 185              	.L8:
 186 0070 00000000 		.word	.LC0
 187 0074 1C000000 		.word	.LC3
 188 0078 24000000 		.word	.LC4
 189 007c 38000000 		.word	.LC5
 190 0080 48000000 		.word	.LC6
 191 0084 5C000000 		.word	.LC7
 192 0088 A4000000 		.word	.LC8
 193 008c B8000000 		.word	.LC9
 194 0090 C0000000 		.word	.LC10
 195 0094 D4000000 		.word	.LC11
 196 0098 E0000000 		.word	.LC12
 197 009c F4000000 		.word	.LC13
 198 00a0 0C010000 		.word	.LC14
 199 00a4 20010000 		.word	.LC15
 200 00a8 4C010000 		.word	.LC16
 201 00ac 60010000 		.word	.LC17
 202 00b0 98010000 		.word	.LC21
 203 00b4 70010000 		.word	.LC18
 204 00b8 88010000 		.word	.LC19
 205 00bc 94010000 		.word	.LC20
 206              		.cfi_endproc
 207              	.LFE66:
 208              		.size	cmd_info, .-cmd_info
 209              		.section	.text.shell_thread,"ax",%progbits
 210              		.align	2
 211              		.p2align 4,,15
 212              		.thumb
 213              		.thumb_func
 214              		.type	shell_thread, %function
 215              	shell_thread:
 216              	.LFB69:
 217              		.loc 1 139 0
 218              		.cfi_startproc
 219              		@ args = 0, pretend = 0, frame = 96
 220              		@ frame_needed = 0, uses_anonymous_args = 0
 221              	.LVL15:
 222 0000 2DE9F04F 		push	{r4, r5, r6, r7, r8, r9, sl, fp, lr}
 223              	.LCFI2:
 224              		.cfi_def_cfa_offset 36
 225              		.cfi_offset 14, -4
 226              		.cfi_offset 11, -8
 227              		.cfi_offset 10, -12
ARM GAS  /tmp/ccENSE6T.s 			page 5


 228              		.cfi_offset 9, -16
 229              		.cfi_offset 8, -20
 230              		.cfi_offset 7, -24
 231              		.cfi_offset 6, -28
 232              		.cfi_offset 5, -32
 233              		.cfi_offset 4, -36
 234              		.loc 1 147 0
 235 0004 9849     		ldr	r1, .L77
 236              		.loc 1 142 0
 237 0006 0468     		ldr	r4, [r0, #0]
 238              	.LVL16:
 239              		.loc 1 147 0
 240 0008 8B69     		ldr	r3, [r1, #24]
 241              		.loc 1 143 0
 242 000a 4068     		ldr	r0, [r0, #4]
 243              	.LVL17:
 244              		.loc 1 147 0
 245 000c 974A     		ldr	r2, .L77+4
 246              		.loc 1 139 0
 247 000e 99B0     		sub	sp, sp, #100
 248              	.LCFI3:
 249              		.cfi_def_cfa_offset 136
 250              		.loc 1 143 0
 251 0010 0190     		str	r0, [sp, #4]
 252              	.LVL18:
 253              		.loc 1 147 0
 254 0012 9A61     		str	r2, [r3, #24]
 255              		.loc 1 148 0
 256 0014 2046     		mov	r0, r4
 257              	.LVL19:
 258 0016 9649     		ldr	r1, .L77+8
 259 0018 FFF7FEFF 		bl	chprintf
 260              	.LBB70:
 261              	.LBB71:
 262              		.loc 1 61 0
 263 001c DFF87C82 		ldr	r8, .L77+52
 264 0020 02AE     		add	r6, sp, #8
 265              	.LBE71:
 266              	.LBE70:
 267              	.LBB73:
 268              	.LBB74:
 269              		.loc 1 139 0
 270 0022 08F10809 		add	r9, r8, #8
 271              	.LVL20:
 272              	.L70:
 273              	.LBE74:
 274              	.LBE73:
 275              		.loc 1 150 0
 276 0026 2046     		mov	r0, r4
 277 0028 9249     		ldr	r1, .L77+12
 278 002a FFF7FEFF 		bl	chprintf
 279              	.LVL21:
 280              		.loc 1 151 0
 281 002e 3546     		mov	r5, r6
 282              	.LBB76:
 283              	.LBB77:
 284              	.LBB78:
ARM GAS  /tmp/ccENSE6T.s 			page 6


 285              		.loc 1 279 0
 286 0030 0DF14707 		add	r7, sp, #71
 287              	.L69:
 288              	.LVL22:
 289              		.loc 1 257 0
 290 0034 2068     		ldr	r0, [r4, #0]
 291 0036 0122     		movs	r2, #1
 292 0038 4368     		ldr	r3, [r0, #4]
 293 003a 17A9     		add	r1, sp, #92
 294 003c 2046     		mov	r0, r4
 295 003e 9847     		blx	r3
 296 0040 D8B1     		cbz	r0, .L14
 297              	.L76:
 298              		.loc 1 259 0
 299 0042 9DF85C10 		ldrb	r1, [sp, #92]	@ zero_extendqisi2
 300 0046 0429     		cmp	r1, #4
 301 0048 3ED0     		beq	.L73
 302              		.loc 1 263 0
 303 004a 0829     		cmp	r1, #8
 304 004c 29D0     		beq	.L74
 305              		.loc 1 272 0
 306 004e 0D29     		cmp	r1, #13
 307 0050 3FD0     		beq	.L75
 308              		.loc 1 277 0
 309 0052 1F29     		cmp	r1, #31
 310 0054 EED9     		bls	.L69
 311              		.loc 1 279 0
 312 0056 BD42     		cmp	r5, r7
 313 0058 ECD2     		bcs	.L69
 314              		.loc 1 280 0
 315 005a 2268     		ldr	r2, [r4, #0]
 316 005c 2046     		mov	r0, r4
 317 005e 9368     		ldr	r3, [r2, #8]
 318 0060 9847     		blx	r3
 319              		.loc 1 281 0
 320 0062 9DF85C10 		ldrb	r1, [sp, #92]	@ zero_extendqisi2
 321              	.LVL23:
 322              		.loc 1 257 0
 323 0066 0122     		movs	r2, #1
 324              	.LVL24:
 325              		.loc 1 281 0
 326 0068 05F8011B 		strb	r1, [r5], #1
 327              	.LVL25:
 328              		.loc 1 257 0
 329 006c 2068     		ldr	r0, [r4, #0]
 330 006e 17A9     		add	r1, sp, #92
 331              	.LVL26:
 332 0070 4368     		ldr	r3, [r0, #4]
 333 0072 2046     		mov	r0, r4
 334 0074 9847     		blx	r3
 335 0076 0028     		cmp	r0, #0
 336 0078 E3D1     		bne	.L76
 337              	.LVL27:
 338              	.L14:
 339              	.LBE78:
 340              	.LBE77:
 341              	.LBE76:
ARM GAS  /tmp/ccENSE6T.s 			page 7


 342              		.loc 1 152 0
 343 007a 2046     		mov	r0, r4
 344 007c 7E49     		ldr	r1, .L77+16
 345 007e FFF7FEFF 		bl	chprintf
 346              	.LVL28:
 347              	.L21:
 348              	.LBB83:
 349              		.loc 1 195 0
 350 0082 2023     		movs	r3, #32
 351              	.LVL29:
 352              	@ 195 "../../ChibiOS/os/various/shell.c" 1
 353 0084 83F31188 		msr     BASEPRI, r3
 354              	@ 0 "" 2
 355              	.LVL30:
 356              		.thumb
 357              	.LBE83:
 358 0088 FFF7FEFF 		bl	dbg_check_lock
 359              	.LVL31:
 360              		.loc 1 196 0
 361 008c 0021     		movs	r1, #0
 362 008e 7B48     		ldr	r0, .L77+20
 363 0090 FFF7FEFF 		bl	chEvtBroadcastFlagsI
 364              		.loc 1 197 0
 365 0094 0020     		movs	r0, #0
 366 0096 FFF7FEFF 		bl	chThdExitS
 367              		.loc 1 199 0
 368 009a 0020     		movs	r0, #0
 369 009c 19B0     		add	sp, sp, #100
 370 009e BDE8F08F 		pop	{r4, r5, r6, r7, r8, r9, sl, fp, pc}
 371              	.LVL32:
 372              	.L74:
 373              	.LBB84:
 374              	.LBB81:
 375              	.LBB79:
 376              		.loc 1 264 0
 377 00a2 B542     		cmp	r5, r6
 378 00a4 C6D0     		beq	.L69
 379              		.loc 1 265 0
 380 00a6 2268     		ldr	r2, [r4, #0]
 381 00a8 2046     		mov	r0, r4
 382 00aa 9368     		ldr	r3, [r2, #8]
 383 00ac 9847     		blx	r3
 384              		.loc 1 266 0
 385 00ae 2068     		ldr	r0, [r4, #0]
 386 00b0 2021     		movs	r1, #32
 387 00b2 8268     		ldr	r2, [r0, #8]
 388 00b4 2046     		mov	r0, r4
 389 00b6 9047     		blx	r2
 390              		.loc 1 267 0
 391 00b8 2368     		ldr	r3, [r4, #0]
 392 00ba 9DF85C10 		ldrb	r1, [sp, #92]	@ zero_extendqisi2
 393              	.LVL33:
 394 00be 9A68     		ldr	r2, [r3, #8]
 395 00c0 2046     		mov	r0, r4
 396 00c2 9047     		blx	r2
 397              		.loc 1 268 0
 398 00c4 013D     		subs	r5, r5, #1
ARM GAS  /tmp/ccENSE6T.s 			page 8


 399              	.LVL34:
 400 00c6 B5E7     		b	.L69
 401              	.LVL35:
 402              	.L73:
 403              		.loc 1 260 0
 404 00c8 2046     		mov	r0, r4
 405 00ca 6D49     		ldr	r1, .L77+24
 406 00cc FFF7FEFF 		bl	chprintf
 407 00d0 D3E7     		b	.L14
 408              	.L75:
 409              		.loc 1 273 0
 410 00d2 2046     		mov	r0, r4
 411 00d4 6B49     		ldr	r1, .L77+28
 412              		.loc 1 274 0
 413 00d6 4FF0000A 		mov	sl, #0
 414              		.loc 1 273 0
 415 00da FFF7FEFF 		bl	chprintf
 416              	.LBE79:
 417              	.LBE81:
 418              	.LBE84:
 419              	.LBB85:
 420              	.LBB86:
 421              		.loc 1 46 0
 422 00de 6A49     		ldr	r1, .L77+32
 423              	.LBE86:
 424              	.LBE85:
 425              	.LBB90:
 426              	.LBB82:
 427              	.LBB80:
 428              		.loc 1 274 0
 429 00e0 85F800A0 		strb	sl, [r5, #0]
 430              	.LVL36:
 431              	.LBE80:
 432              	.LBE82:
 433              	.LBE90:
 434              	.LBB91:
 435              	.LBB87:
 436              		.loc 1 46 0
 437 00e4 3046     		mov	r0, r6
 438 00e6 FFF7FEFF 		bl	strspn
 439 00ea 3718     		adds	r7, r6, r0
 440              	.LVL37:
 441 00ec 8346     		mov	fp, r0
 442              		.loc 1 47 0
 443 00ee 6649     		ldr	r1, .L77+32
 444 00f0 3846     		mov	r0, r7
 445 00f2 FFF7FEFF 		bl	strpbrk
 446 00f6 0546     		mov	r5, r0
 447              	.LVL38:
 448              		.loc 1 48 0
 449 00f8 08B1     		cbz	r0, .L20
 450              		.loc 1 49 0
 451 00fa 05F801AB 		strb	sl, [r5], #1
 452              	.LVL39:
 453              	.L20:
 454              		.loc 1 51 0
 455 00fe 16F80B00 		ldrb	r0, [r6, fp]	@ zero_extendqisi2
ARM GAS  /tmp/ccENSE6T.s 			page 9


 456 0102 0028     		cmp	r0, #0
 457 0104 08BF     		it	eq
 458 0106 0027     		moveq	r7, #0
 459              	.LVL40:
 460              	.LBE87:
 461              	.LBE91:
 462              	.LBB92:
 463              	.LBB93:
 464              		.loc 1 43 0
 465 0108 8DB1     		cbz	r5, .L23
 466              		.loc 1 46 0
 467 010a 5F49     		ldr	r1, .L77+32
 468 010c 2846     		mov	r0, r5
 469 010e FFF7FEFF 		bl	strspn
 470 0112 05EB000A 		add	sl, r5, r0
 471              	.LVL41:
 472              		.loc 1 47 0
 473 0116 5046     		mov	r0, sl
 474 0118 5B49     		ldr	r1, .L77+32
 475 011a FFF7FEFF 		bl	strpbrk
 476 011e 0546     		mov	r5, r0
 477              	.LVL42:
 478              		.loc 1 48 0
 479 0120 10B1     		cbz	r0, .L26
 480              		.loc 1 49 0
 481 0122 0023     		movs	r3, #0
 482 0124 05F8013B 		strb	r3, [r5], #1
 483              	.LVL43:
 484              	.L26:
 485              		.loc 1 51 0
 486 0128 9AF80010 		ldrb	r1, [sl, #0]	@ zero_extendqisi2
 487 012c C1B9     		cbnz	r1, .L25
 488              	.LVL44:
 489              	.L23:
 490              	.LBE93:
 491              	.LBE92:
 492              	.LBB98:
 493              	.LBB88:
 494              		.loc 1 157 0
 495 012e 0025     		movs	r5, #0
 496              	.LVL45:
 497              	.L59:
 498              	.LBE88:
 499              	.LBE98:
 500              		.loc 1 166 0
 501 0130 0DF1600E 		add	lr, sp, #96
 502 0134 0EEB850C 		add	ip, lr, r5, lsl #2
 503 0138 0022     		movs	r2, #0
 504 013a 4CF8182C 		str	r2, [ip, #-24]
 505              		.loc 1 167 0
 506 013e 002F     		cmp	r7, #0
 507 0140 3FF471AF 		beq	.L70
 508              		.loc 1 168 0
 509 0144 3846     		mov	r0, r7
 510 0146 5149     		ldr	r1, .L77+36
 511 0148 FFF7FEFF 		bl	strcasecmp
 512 014c 0028     		cmp	r0, #0
ARM GAS  /tmp/ccENSE6T.s 			page 10


 513 014e 69D1     		bne	.L44
 514              		.loc 1 169 0
 515 0150 002D     		cmp	r5, #0
 516 0152 96D0     		beq	.L21
 517              	.LVL46:
 518              	.LBB99:
 519              	.LBB100:
 520              		.loc 1 56 0
 521 0154 2046     		mov	r0, r4
 522 0156 4E49     		ldr	r1, .L77+40
 523 0158 4C4A     		ldr	r2, .L77+36
 524 015a FFF7FEFF 		bl	chprintf
 525              	.LBE100:
 526              	.LBE99:
 527              		.loc 1 171 0
 528 015e 62E7     		b	.L70
 529              	.LVL47:
 530              	.L25:
 531              		.loc 1 164 0
 532 0160 CDF848A0 		str	sl, [sp, #72]
 533              	.LVL48:
 534              	.LBB101:
 535              	.LBB94:
 536              		.loc 1 43 0
 537 0164 002D     		cmp	r5, #0
 538 0166 55D0     		beq	.L27
 539              		.loc 1 46 0
 540 0168 4749     		ldr	r1, .L77+32
 541 016a 2846     		mov	r0, r5
 542 016c FFF7FEFF 		bl	strspn
 543 0170 05EB000A 		add	sl, r5, r0
 544              	.LVL49:
 545              		.loc 1 47 0
 546 0174 5046     		mov	r0, sl
 547 0176 4449     		ldr	r1, .L77+32
 548 0178 FFF7FEFF 		bl	strpbrk
 549 017c 0546     		mov	r5, r0
 550              	.LVL50:
 551              		.loc 1 48 0
 552 017e 10B1     		cbz	r0, .L30
 553              		.loc 1 49 0
 554 0180 0020     		movs	r0, #0
 555              	.LVL51:
 556 0182 05F8010B 		strb	r0, [r5], #1
 557              	.LVL52:
 558              	.L30:
 559              		.loc 1 51 0
 560 0186 9AF80020 		ldrb	r2, [sl, #0]	@ zero_extendqisi2
 561 018a 002A     		cmp	r2, #0
 562 018c 42D0     		beq	.L27
 563              	.LBE94:
 564              	.LBE101:
 565              		.loc 1 164 0
 566 018e CDF84CA0 		str	sl, [sp, #76]
 567              	.LVL53:
 568              	.LBB102:
 569              	.LBB95:
ARM GAS  /tmp/ccENSE6T.s 			page 11


 570              		.loc 1 43 0
 571 0192 002D     		cmp	r5, #0
 572 0194 40D0     		beq	.L31
 573              		.loc 1 46 0
 574 0196 3C49     		ldr	r1, .L77+32
 575 0198 2846     		mov	r0, r5
 576 019a FFF7FEFF 		bl	strspn
 577 019e 05EB000A 		add	sl, r5, r0
 578              	.LVL54:
 579              		.loc 1 47 0
 580 01a2 5046     		mov	r0, sl
 581 01a4 3849     		ldr	r1, .L77+32
 582 01a6 FFF7FEFF 		bl	strpbrk
 583 01aa 0546     		mov	r5, r0
 584              	.LVL55:
 585              		.loc 1 48 0
 586 01ac 10B1     		cbz	r0, .L34
 587              		.loc 1 49 0
 588 01ae 0023     		movs	r3, #0
 589 01b0 05F8013B 		strb	r3, [r5], #1
 590              	.LVL56:
 591              	.L34:
 592              		.loc 1 51 0
 593 01b4 9AF80010 		ldrb	r1, [sl, #0]	@ zero_extendqisi2
 594 01b8 71B3     		cbz	r1, .L31
 595              	.LBE95:
 596              	.LBE102:
 597              		.loc 1 164 0
 598 01ba CDF850A0 		str	sl, [sp, #80]
 599              	.LVL57:
 600              	.LBB103:
 601              	.LBB96:
 602              		.loc 1 43 0
 603 01be 6DB3     		cbz	r5, .L35
 604              		.loc 1 46 0
 605 01c0 3149     		ldr	r1, .L77+32
 606 01c2 2846     		mov	r0, r5
 607 01c4 FFF7FEFF 		bl	strspn
 608 01c8 05EB000A 		add	sl, r5, r0
 609              	.LVL58:
 610              		.loc 1 47 0
 611 01cc 5046     		mov	r0, sl
 612 01ce 2E49     		ldr	r1, .L77+32
 613 01d0 FFF7FEFF 		bl	strpbrk
 614 01d4 0546     		mov	r5, r0
 615              	.LVL59:
 616              		.loc 1 48 0
 617 01d6 10B1     		cbz	r0, .L38
 618              		.loc 1 49 0
 619 01d8 0020     		movs	r0, #0
 620              	.LVL60:
 621 01da 05F8010B 		strb	r0, [r5], #1
 622              	.LVL61:
 623              	.L38:
 624              		.loc 1 51 0
 625 01de 9AF80020 		ldrb	r2, [sl, #0]	@ zero_extendqisi2
 626 01e2 DAB1     		cbz	r2, .L35
ARM GAS  /tmp/ccENSE6T.s 			page 12


 627              	.LBE96:
 628              	.LBE103:
 629              		.loc 1 164 0
 630 01e4 CDF854A0 		str	sl, [sp, #84]
 631              	.LVL62:
 632              	.LBB104:
 633              	.LBB97:
 634              		.loc 1 43 0
 635 01e8 D5B1     		cbz	r5, .L39
 636              		.loc 1 46 0
 637 01ea 2749     		ldr	r1, .L77+32
 638 01ec 2846     		mov	r0, r5
 639 01ee FFF7FEFF 		bl	strspn
 640 01f2 2D18     		adds	r5, r5, r0
 641              	.LVL63:
 642              		.loc 1 47 0
 643 01f4 2846     		mov	r0, r5
 644 01f6 2449     		ldr	r1, .L77+32
 645 01f8 FFF7FEFF 		bl	strpbrk
 646              	.LVL64:
 647              		.loc 1 48 0
 648 01fc 08B1     		cbz	r0, .L42
 649              		.loc 1 49 0
 650 01fe 0021     		movs	r1, #0
 651 0200 0170     		strb	r1, [r0, #0]
 652              	.LVL65:
 653              	.L42:
 654              		.loc 1 51 0
 655 0202 2B78     		ldrb	r3, [r5, #0]	@ zero_extendqisi2
 656 0204 63B1     		cbz	r3, .L39
 657              	.LBE97:
 658              	.LBE104:
 659              		.loc 1 160 0
 660 0206 2046     		mov	r0, r4
 661 0208 2249     		ldr	r1, .L77+44
 662              		.loc 1 166 0
 663 020a 0025     		movs	r5, #0
 664              	.LVL66:
 665              		.loc 1 160 0
 666 020c FFF7FEFF 		bl	chprintf
 667              	.LVL67:
 668              		.loc 1 166 0
 669 0210 1695     		str	r5, [sp, #88]
 670 0212 08E7     		b	.L70
 671              	.LVL68:
 672              	.L27:
 673              	.LBB105:
 674              	.LBB89:
 675              		.loc 1 164 0
 676 0214 0125     		movs	r5, #1
 677 0216 8BE7     		b	.L59
 678              	.LVL69:
 679              	.L31:
 680 0218 0225     		movs	r5, #2
 681 021a 89E7     		b	.L59
 682              	.LVL70:
 683              	.L35:
ARM GAS  /tmp/ccENSE6T.s 			page 13


 684 021c 0325     		movs	r5, #3
 685 021e 87E7     		b	.L59
 686              	.LVL71:
 687              	.L39:
 688              		.loc 1 51 0
 689 0220 0425     		movs	r5, #4
 690              	.LVL72:
 691 0222 85E7     		b	.L59
 692              	.LVL73:
 693              	.L44:
 694              	.LBE89:
 695              	.LBE105:
 696              		.loc 1 175 0
 697 0224 3846     		mov	r0, r7
 698 0226 1C49     		ldr	r1, .L77+48
 699 0228 FFF7FEFF 		bl	strcasecmp
 700 022c 0028     		cmp	r0, #0
 701 022e 37D0     		beq	.L46
 702              	.LVL74:
 703              	.LBB106:
 704              	.LBB75:
 705              		.loc 1 121 0
 706 0230 D8F80000 		ldr	r0, [r8, #0]
 707 0234 0028     		cmp	r0, #0
 708 0236 3AD0     		beq	.L48
 709 0238 DFF860A0 		ldr	sl, .L77+52
 710 023c 08E0     		b	.L55
 711              	.LVL75:
 712              	.L54:
 713              		.loc 1 123 0
 714 023e 0AF1080A 		add	sl, sl, #8
 715              	.LVL76:
 716              		.loc 1 139 0
 717 0242 C8EB0A01 		rsb	r1, r8, sl
 718 0246 09EB010C 		add	ip, r9, r1
 719              		.loc 1 121 0
 720 024a 5CF8080C 		ldr	r0, [ip, #-8]
 721 024e 70B3     		cbz	r0, .L48
 722              	.LVL77:
 723              	.L55:
 724              		.loc 1 122 0
 725 0250 3946     		mov	r1, r7
 726 0252 FFF7FEFF 		bl	strcasecmp
 727 0256 0028     		cmp	r0, #0
 728 0258 F1D1     		bne	.L54
 729              	.L72:
 730              	.LBE75:
 731              	.LBE106:
 732              	.LBB107:
 733              	.LBB108:
 734              		.loc 1 123 0
 735 025a DAF80470 		ldr	r7, [sl, #4]
 736 025e 2046     		mov	r0, r4
 737 0260 2946     		mov	r1, r5
 738 0262 12AA     		add	r2, sp, #72
 739 0264 B847     		blx	r7
 740 0266 DEE6     		b	.L70
ARM GAS  /tmp/ccENSE6T.s 			page 14


 741              	.L78:
 742              		.align	2
 743              	.L77:
 744 0268 00000000 		.word	rlist
 745 026c A4010000 		.word	.LC22
 746 0270 AC010000 		.word	.LC23
 747 0274 C4010000 		.word	.LC24
 748 0278 D8010000 		.word	.LC28
 749 027c 00000000 		.word	.LANCHOR1
 750 0280 CC010000 		.word	.LC25
 751 0284 D0010000 		.word	.LC26
 752 0288 D4010000 		.word	.LC27
 753 028c FC010000 		.word	.LC30
 754 0290 00000000 		.word	.LC0
 755 0294 E4010000 		.word	.LC29
 756 0298 04020000 		.word	.LC31
 757 029c 00000000 		.word	.LANCHOR0
 758              	.L46:
 759              	.LBE108:
 760              	.LBE107:
 761              	.LBB110:
 762              	.LBB111:
 763              		.loc 1 56 0
 764 02a0 2046     		mov	r0, r4
 765              	.LBE111:
 766              	.LBE110:
 767              		.loc 1 176 0
 768 02a2 FDB1     		cbz	r5, .L49
 769              	.LVL78:
 770              	.LBB113:
 771              	.LBB112:
 772              		.loc 1 56 0
 773 02a4 2A49     		ldr	r1, .L79
 774 02a6 2B4A     		ldr	r2, .L79+4
 775 02a8 FFF7FEFF 		bl	chprintf
 776              	.LBE112:
 777              	.LBE113:
 778              		.loc 1 178 0
 779 02ac BBE6     		b	.L70
 780              	.LVL79:
 781              	.L48:
 782              		.loc 1 186 0
 783 02ae 019B     		ldr	r3, [sp, #4]
 784 02b0 002B     		cmp	r3, #0
 785 02b2 43D0     		beq	.L58
 786              	.LVL80:
 787              	.LBB114:
 788              	.LBB109:
 789              		.loc 1 121 0
 790 02b4 1868     		ldr	r0, [r3, #0]
 791 02b6 0028     		cmp	r0, #0
 792 02b8 40D0     		beq	.L58
 793 02ba 9A46     		mov	sl, r3
 794              		.loc 1 139 0
 795 02bc 03F1080B 		add	fp, r3, #8
 796 02c0 0AE0     		b	.L57
 797              	.LVL81:
ARM GAS  /tmp/ccENSE6T.s 			page 15


 798              	.L56:
 799 02c2 019A     		ldr	r2, [sp, #4]
 800              		.loc 1 123 0
 801 02c4 0AF1080A 		add	sl, sl, #8
 802              	.LVL82:
 803              		.loc 1 139 0
 804 02c8 C2EB0A03 		rsb	r3, r2, sl
 805 02cc 0BEB030E 		add	lr, fp, r3
 806              		.loc 1 121 0
 807 02d0 5EF8080C 		ldr	r0, [lr, #-8]
 808 02d4 0028     		cmp	r0, #0
 809 02d6 31D0     		beq	.L58
 810              	.LVL83:
 811              	.L57:
 812              		.loc 1 122 0
 813 02d8 3946     		mov	r1, r7
 814 02da FFF7FEFF 		bl	strcasecmp
 815 02de 0028     		cmp	r0, #0
 816 02e0 EFD1     		bne	.L56
 817 02e2 BAE7     		b	.L72
 818              	.L49:
 819              	.LBE109:
 820              	.LBE114:
 821              		.loc 1 180 0
 822 02e4 1C49     		ldr	r1, .L79+8
 823 02e6 FFF7FEFF 		bl	chprintf
 824              	.LVL84:
 825              	.LBB115:
 826              	.LBB72:
 827              		.loc 1 61 0
 828 02ea D8F80020 		ldr	r2, [r8, #0]
 829 02ee 6AB1     		cbz	r2, .L50
 830 02f0 1A4D     		ldr	r5, .L79+12
 831              	.LVL85:
 832              	.L51:
 833              		.loc 1 62 0
 834 02f2 2046     		mov	r0, r4
 835 02f4 1A49     		ldr	r1, .L79+16
 836 02f6 FFF7FEFF 		bl	chprintf
 837 02fa 0835     		adds	r5, r5, #8
 838              		.loc 1 139 0
 839 02fc 1949     		ldr	r1, .L79+20
 840 02fe C8EB0500 		rsb	r0, r8, r5
 841 0302 0F18     		adds	r7, r1, r0
 842              		.loc 1 61 0
 843 0304 57F8082C 		ldr	r2, [r7, #-8]
 844 0308 002A     		cmp	r2, #0
 845 030a F2D1     		bne	.L51
 846              	.L50:
 847              	.LBE72:
 848              	.LBE115:
 849              		.loc 1 182 0
 850 030c 019B     		ldr	r3, [sp, #4]
 851 030e 83B1     		cbz	r3, .L52
 852              	.LVL86:
 853              	.LBB116:
 854              	.LBB117:
ARM GAS  /tmp/ccENSE6T.s 			page 16


 855              		.loc 1 61 0
 856 0310 1A68     		ldr	r2, [r3, #0]
 857 0312 72B1     		cbz	r2, .L52
 858 0314 1D46     		mov	r5, r3
 859 0316 03F10807 		add	r7, r3, #8
 860              	.LVL87:
 861              	.L53:
 862              		.loc 1 62 0
 863 031a 2046     		mov	r0, r4
 864 031c 1049     		ldr	r1, .L79+16
 865 031e FFF7FEFF 		bl	chprintf
 866              		.loc 1 139 0
 867 0322 0198     		ldr	r0, [sp, #4]
 868              		.loc 1 62 0
 869 0324 0835     		adds	r5, r5, #8
 870              		.loc 1 139 0
 871 0326 2A1A     		subs	r2, r5, r0
 872 0328 BB18     		adds	r3, r7, r2
 873              		.loc 1 61 0
 874 032a 53F8082C 		ldr	r2, [r3, #-8]
 875 032e 002A     		cmp	r2, #0
 876 0330 F3D1     		bne	.L53
 877              	.L52:
 878              	.LBE117:
 879              	.LBE116:
 880              		.loc 1 184 0
 881 0332 2046     		mov	r0, r4
 882 0334 0C49     		ldr	r1, .L79+24
 883 0336 FFF7FEFF 		bl	chprintf
 884 033a 74E6     		b	.L70
 885              	.LVL88:
 886              	.L58:
 887              		.loc 1 188 0
 888 033c 2046     		mov	r0, r4
 889 033e 0B49     		ldr	r1, .L79+28
 890 0340 3A46     		mov	r2, r7
 891 0342 FFF7FEFF 		bl	chprintf
 892              		.loc 1 189 0
 893 0346 2046     		mov	r0, r4
 894 0348 0949     		ldr	r1, .L79+32
 895 034a FFF7FEFF 		bl	chprintf
 896 034e 6AE6     		b	.L70
 897              	.L80:
 898              		.align	2
 899              	.L79:
 900 0350 00000000 		.word	.LC0
 901 0354 04020000 		.word	.LC31
 902 0358 0C020000 		.word	.LC32
 903 035c 00000000 		.word	.LANCHOR0
 904 0360 24020000 		.word	.LC33
 905 0364 08000000 		.word	.LANCHOR0+8
 906 0368 D0010000 		.word	.LC26
 907 036c 28020000 		.word	.LC34
 908 0370 2C020000 		.word	.LC35
 909              		.cfi_endproc
 910              	.LFE69:
 911              		.size	shell_thread, .-shell_thread
ARM GAS  /tmp/ccENSE6T.s 			page 17


 912 0374 AFF30080 		.section	.text.shellInit,"ax",%progbits
 912      AFF30080 
 912      AFF30080 
 913              		.align	2
 914              		.p2align 4,,15
 915              		.global	shellInit
 916              		.thumb
 917              		.thumb_func
 918              		.type	shellInit, %function
 919              	shellInit:
 920              	.LFB70:
 921              		.loc 1 204 0
 922              		.cfi_startproc
 923              		@ args = 0, pretend = 0, frame = 0
 924              		@ frame_needed = 0, uses_anonymous_args = 0
 925              		@ link register save eliminated.
 926              		.loc 1 206 0
 927 0000 40F20003 		movw	r3, #:lower16:.LANCHOR1
 928 0004 C0F20003 		movt	r3, #:upper16:.LANCHOR1
 929 0008 1B60     		str	r3, [r3, #0]
 930              		.loc 1 207 0
 931 000a 7047     		bx	lr
 932              		.cfi_endproc
 933              	.LFE70:
 934              		.size	shellInit, .-shellInit
 935 000c AFF30080 		.section	.text.shellCreate,"ax",%progbits
 936              		.align	2
 937              		.p2align 4,,15
 938              		.global	shellCreate
 939              		.thumb
 940              		.thumb_func
 941              		.type	shellCreate, %function
 942              	shellCreate:
 943              	.LFB71:
 944              		.loc 1 220 0
 945              		.cfi_startproc
 946              		@ args = 0, pretend = 0, frame = 0
 947              		@ frame_needed = 0, uses_anonymous_args = 0
 948              	.LVL89:
 949 0000 10B5     		push	{r4, lr}
 950              	.LCFI4:
 951              		.cfi_def_cfa_offset 8
 952              		.cfi_offset 14, -4
 953              		.cfi_offset 4, -8
 954              		.loc 1 222 0
 955 0002 40F20003 		movw	r3, #:lower16:shell_thread
 956              		.loc 1 220 0
 957 0006 0446     		mov	r4, r0
 958 0008 82B0     		sub	sp, sp, #8
 959              	.LCFI5:
 960              		.cfi_def_cfa_offset 16
 961              		.loc 1 222 0
 962 000a C0F20003 		movt	r3, #:upper16:shell_thread
 963 000e 0020     		movs	r0, #0
 964              	.LVL90:
 965 0010 0094     		str	r4, [sp, #0]
 966 0012 FFF7FEFF 		bl	chThdCreateFromHeap
ARM GAS  /tmp/ccENSE6T.s 			page 18


 967              	.LVL91:
 968              		.loc 1 223 0
 969 0016 02B0     		add	sp, sp, #8
 970 0018 10BD     		pop	{r4, pc}
 971              		.cfi_endproc
 972              	.LFE71:
 973              		.size	shellCreate, .-shellCreate
 974 001a 00BFAFF3 		.section	.text.shellCreateStatic,"ax",%progbits
 974      0080
 975              		.align	2
 976              		.p2align 4,,15
 977              		.global	shellCreateStatic
 978              		.thumb
 979              		.thumb_func
 980              		.type	shellCreateStatic, %function
 981              	shellCreateStatic:
 982              	.LFB72:
 983              		.loc 1 236 0
 984              		.cfi_startproc
 985              		@ args = 0, pretend = 0, frame = 0
 986              		@ frame_needed = 0, uses_anonymous_args = 0
 987              	.LVL92:
 988 0000 70B5     		push	{r4, r5, r6, lr}
 989              	.LCFI6:
 990              		.cfi_def_cfa_offset 16
 991              		.cfi_offset 14, -4
 992              		.cfi_offset 6, -8
 993              		.cfi_offset 5, -12
 994              		.cfi_offset 4, -16
 995              		.loc 1 238 0
 996 0002 40F20004 		movw	r4, #:lower16:shell_thread
 997              		.loc 1 236 0
 998 0006 0E46     		mov	r6, r1
 999              		.loc 1 238 0
 1000 0008 C0F20004 		movt	r4, #:upper16:shell_thread
 1001              		.loc 1 236 0
 1002 000c 0546     		mov	r5, r0
 1003 000e 82B0     		sub	sp, sp, #8
 1004              	.LCFI7:
 1005              		.cfi_def_cfa_offset 24
 1006              		.loc 1 238 0
 1007 0010 1146     		mov	r1, r2
 1008              	.LVL93:
 1009 0012 3046     		mov	r0, r6
 1010              	.LVL94:
 1011 0014 1A46     		mov	r2, r3
 1012              	.LVL95:
 1013 0016 2346     		mov	r3, r4
 1014              	.LVL96:
 1015 0018 0095     		str	r5, [sp, #0]
 1016 001a FFF7FEFF 		bl	chThdCreateStatic
 1017              	.LVL97:
 1018              		.loc 1 239 0
 1019 001e 02B0     		add	sp, sp, #8
 1020 0020 70BD     		pop	{r4, r5, r6, pc}
 1021              		.cfi_endproc
 1022              	.LFE72:
ARM GAS  /tmp/ccENSE6T.s 			page 19


 1023              		.size	shellCreateStatic, .-shellCreateStatic
 1024 0022 00BFAFF3 		.section	.text.shellGetLine,"ax",%progbits
 1024      0080AFF3 
 1024      0080AFF3 
 1024      0080
 1025              		.align	2
 1026              		.p2align 4,,15
 1027              		.global	shellGetLine
 1028              		.thumb
 1029              		.thumb_func
 1030              		.type	shellGetLine, %function
 1031              	shellGetLine:
 1032              	.LFB73:
 1033              		.loc 1 251 0
 1034              		.cfi_startproc
 1035              		@ args = 0, pretend = 0, frame = 8
 1036              		@ frame_needed = 0, uses_anonymous_args = 0
 1037              	.LVL98:
 1038 0000 F0B5     		push	{r4, r5, r6, r7, lr}
 1039              	.LCFI8:
 1040              		.cfi_def_cfa_offset 20
 1041              		.cfi_offset 14, -4
 1042              		.cfi_offset 7, -8
 1043              		.cfi_offset 6, -12
 1044              		.cfi_offset 5, -16
 1045              		.cfi_offset 4, -20
 1046              	.LBB118:
 1047              		.loc 1 279 0
 1048 0002 571E     		subs	r7, r2, #1
 1049              	.LBE118:
 1050              		.loc 1 251 0
 1051 0004 83B0     		sub	sp, sp, #12
 1052              	.LCFI9:
 1053              		.cfi_def_cfa_offset 32
 1054              		.loc 1 251 0
 1055 0006 0E46     		mov	r6, r1
 1056              	.LVL99:
 1057 0008 0446     		mov	r4, r0
 1058              		.loc 1 252 0
 1059 000a 0D46     		mov	r5, r1
 1060              	.LBB119:
 1061              		.loc 1 279 0
 1062 000c CF19     		adds	r7, r1, r7
 1063              	.LVL100:
 1064              	.L94:
 1065              		.loc 1 257 0
 1066 000e 2068     		ldr	r0, [r4, #0]
 1067 0010 0122     		movs	r2, #1
 1068 0012 4368     		ldr	r3, [r0, #4]
 1069 0014 01A9     		add	r1, sp, #4
 1070 0016 2046     		mov	r0, r4
 1071 0018 9847     		blx	r3
 1072 001a D8B1     		cbz	r0, .L91
 1073              	.L98:
 1074              		.loc 1 259 0
 1075 001c 9DF80410 		ldrb	r1, [sp, #4]	@ zero_extendqisi2
 1076 0020 0429     		cmp	r1, #4
ARM GAS  /tmp/ccENSE6T.s 			page 20


 1077 0022 2DD0     		beq	.L95
 1078              		.loc 1 263 0
 1079 0024 0829     		cmp	r1, #8
 1080 0026 18D0     		beq	.L96
 1081              		.loc 1 272 0
 1082 0028 0D29     		cmp	r1, #13
 1083 002a 2FD0     		beq	.L97
 1084              		.loc 1 277 0
 1085 002c 1F29     		cmp	r1, #31
 1086 002e EED9     		bls	.L94
 1087              		.loc 1 279 0
 1088 0030 BD42     		cmp	r5, r7
 1089 0032 ECD2     		bcs	.L94
 1090              		.loc 1 280 0
 1091 0034 2268     		ldr	r2, [r4, #0]
 1092 0036 2046     		mov	r0, r4
 1093 0038 9368     		ldr	r3, [r2, #8]
 1094 003a 9847     		blx	r3
 1095              		.loc 1 281 0
 1096 003c 9DF80410 		ldrb	r1, [sp, #4]	@ zero_extendqisi2
 1097              	.LVL101:
 1098              		.loc 1 257 0
 1099 0040 0122     		movs	r2, #1
 1100              	.LVL102:
 1101              		.loc 1 281 0
 1102 0042 05F8011B 		strb	r1, [r5], #1
 1103              	.LVL103:
 1104              		.loc 1 257 0
 1105 0046 2068     		ldr	r0, [r4, #0]
 1106 0048 01A9     		add	r1, sp, #4
 1107              	.LVL104:
 1108 004a 4368     		ldr	r3, [r0, #4]
 1109 004c 2046     		mov	r0, r4
 1110 004e 9847     		blx	r3
 1111 0050 0028     		cmp	r0, #0
 1112 0052 E3D1     		bne	.L98
 1113              	.LVL105:
 1114              	.L91:
 1115              		.loc 1 258 0
 1116 0054 0120     		movs	r0, #1
 1117              	.L86:
 1118              	.LBE119:
 1119              		.loc 1 284 0
 1120 0056 03B0     		add	sp, sp, #12
 1121 0058 F0BD     		pop	{r4, r5, r6, r7, pc}
 1122              	.L96:
 1123              	.LBB120:
 1124              		.loc 1 264 0
 1125 005a B542     		cmp	r5, r6
 1126 005c D7D0     		beq	.L94
 1127              		.loc 1 265 0
 1128 005e 2268     		ldr	r2, [r4, #0]
 1129 0060 2046     		mov	r0, r4
 1130 0062 9368     		ldr	r3, [r2, #8]
 1131 0064 9847     		blx	r3
 1132              		.loc 1 266 0
 1133 0066 2068     		ldr	r0, [r4, #0]
ARM GAS  /tmp/ccENSE6T.s 			page 21


 1134 0068 2021     		movs	r1, #32
 1135 006a 8268     		ldr	r2, [r0, #8]
 1136 006c 2046     		mov	r0, r4
 1137 006e 9047     		blx	r2
 1138              		.loc 1 267 0
 1139 0070 2368     		ldr	r3, [r4, #0]
 1140 0072 9DF80410 		ldrb	r1, [sp, #4]	@ zero_extendqisi2
 1141              	.LVL106:
 1142 0076 9A68     		ldr	r2, [r3, #8]
 1143 0078 2046     		mov	r0, r4
 1144 007a 9047     		blx	r2
 1145              		.loc 1 268 0
 1146 007c 013D     		subs	r5, r5, #1
 1147              	.LVL107:
 1148 007e C6E7     		b	.L94
 1149              	.LVL108:
 1150              	.L95:
 1151              		.loc 1 260 0
 1152 0080 2046     		mov	r0, r4
 1153 0082 0649     		ldr	r1, .L99
 1154 0084 FFF7FEFF 		bl	chprintf
 1155              		.loc 1 261 0
 1156 0088 0120     		movs	r0, #1
 1157 008a E4E7     		b	.L86
 1158              	.L97:
 1159              		.loc 1 273 0
 1160 008c 2046     		mov	r0, r4
 1161 008e 0449     		ldr	r1, .L99+4
 1162 0090 FFF7FEFF 		bl	chprintf
 1163              		.loc 1 274 0
 1164 0094 0020     		movs	r0, #0
 1165 0096 2870     		strb	r0, [r5, #0]
 1166              		.loc 1 275 0
 1167 0098 DDE7     		b	.L86
 1168              	.L100:
 1169 009a 00BF     		.align	2
 1170              	.L99:
 1171 009c CC010000 		.word	.LC25
 1172 00a0 D0010000 		.word	.LC26
 1173              	.LBE120:
 1174              		.cfi_endproc
 1175              	.LFE73:
 1176              		.size	shellGetLine, .-shellGetLine
 1177              		.global	shell_terminated
 1178 00a4 AFF30080 		.section	.data.local_commands,"aw",%progbits
 1178      AFF30080 
 1178      AFF30080 
 1179              		.align	2
 1180              		.set	.LANCHOR0,. + 0
 1181              		.type	local_commands, %object
 1182              		.size	local_commands, 24
 1183              	local_commands:
 1184 0000 1C000000 		.word	.LC3
 1185 0004 00000000 		.word	cmd_info
 1186 0008 0C000000 		.word	.LC1
 1187 000c 00000000 		.word	cmd_systime
 1188 0010 00000000 		.word	0
ARM GAS  /tmp/ccENSE6T.s 			page 22


 1189 0014 00000000 		.word	0
 1190              		.section	.rodata.str1.4,"aMS",%progbits,1
 1191              		.align	2
 1192              	.LC0:
 1193 0000 55736167 		.ascii	"Usage: %s\015\012\000"
 1193      653A2025 
 1193      730D0A00 
 1194              	.LC1:
 1195 000c 73797374 		.ascii	"systime\000"
 1195      696D6500 
 1196              	.LC2:
 1197 0014 256C750D 		.ascii	"%lu\015\012\000"
 1197      0A00
 1198 001a 0000     		.space	2
 1199              	.LC3:
 1200 001c 696E666F 		.ascii	"info\000"
 1200      00
 1201 0021 000000   		.space	3
 1202              	.LC4:
 1203 0024 4B65726E 		.ascii	"Kernel:       %s\015\012\000"
 1203      656C3A20 
 1203      20202020 
 1203      20202573 
 1203      0D0A00
 1204 0037 00       		.space	1
 1205              	.LC5:
 1206 0038 322E352E 		.ascii	"2.5.2unstable\000"
 1206      32756E73 
 1206      7461626C 
 1206      6500
 1207 0046 0000     		.space	2
 1208              	.LC6:
 1209 0048 436F6D70 		.ascii	"Compiler:     %s\015\012\000"
 1209      696C6572 
 1209      3A202020 
 1209      20202573 
 1209      0D0A00
 1210 005b 00       		.space	1
 1211              	.LC7:
 1212 005c 47434320 		.ascii	"GCC 4.6.2 20120613 (release) [ARM/embedded-4_6-bran"
 1212      342E362E 
 1212      32203230 
 1212      31323036 
 1212      31332028 
 1213 008f 63682072 		.ascii	"ch revision 188521]\000"
 1213      65766973 
 1213      696F6E20 
 1213      31383835 
 1213      32315D00 
 1214 00a3 00       		.space	1
 1215              	.LC8:
 1216 00a4 41726368 		.ascii	"Architecture: %s\015\012\000"
 1216      69746563 
 1216      74757265 
 1216      3A202573 
 1216      0D0A00
 1217 00b7 00       		.space	1
ARM GAS  /tmp/ccENSE6T.s 			page 23


 1218              	.LC9:
 1219 00b8 41524D76 		.ascii	"ARMv7-M\000"
 1219      372D4D00 
 1220              	.LC10:
 1221 00c0 436F7265 		.ascii	"Core Variant: %s\015\012\000"
 1221      20566172 
 1221      69616E74 
 1221      3A202573 
 1221      0D0A00
 1222 00d3 00       		.space	1
 1223              	.LC11:
 1224 00d4 436F7274 		.ascii	"Cortex-M3\000"
 1224      65782D4D 
 1224      3300
 1225 00de 0000     		.space	2
 1226              	.LC12:
 1227 00e0 506F7274 		.ascii	"Port Info:    %s\015\012\000"
 1227      20496E66 
 1227      6F3A2020 
 1227      20202573 
 1227      0D0A00
 1228 00f3 00       		.space	1
 1229              	.LC13:
 1230 00f4 41647661 		.ascii	"Advanced kernel mode\000"
 1230      6E636564 
 1230      206B6572 
 1230      6E656C20 
 1230      6D6F6465 
 1231 0109 000000   		.space	3
 1232              	.LC14:
 1233 010c 506C6174 		.ascii	"Platform:     %s\015\012\000"
 1233      666F726D 
 1233      3A202020 
 1233      20202573 
 1233      0D0A00
 1234 011f 00       		.space	1
 1235              	.LC15:
 1236 0120 53544D33 		.ascii	"STM32F10x Performance Line Medium Density\000"
 1236      32463130 
 1236      78205065 
 1236      72666F72 
 1236      6D616E63 
 1237 014a 0000     		.space	2
 1238              	.LC16:
 1239 014c 426F6172 		.ascii	"Board:        %s\015\012\000"
 1239      643A2020 
 1239      20202020 
 1239      20202573 
 1239      0D0A00
 1240 015f 00       		.space	1
 1241              	.LC17:
 1242 0160 52325020 		.ascii	"R2P IR module\000"
 1242      4952206D 
 1242      6F64756C 
 1242      6500
 1243 016e 0000     		.space	2
 1244              	.LC18:
ARM GAS  /tmp/ccENSE6T.s 			page 24


 1245 0170 4275696C 		.ascii	"Build time:   %s%s%s\015\012\000"
 1245      64207469 
 1245      6D653A20 
 1245      20202573 
 1245      25732573 
 1246 0187 00       		.space	1
 1247              	.LC19:
 1248 0188 4A756E20 		.ascii	"Jun 27 2013\000"
 1248      32372032 
 1248      30313300 
 1249              	.LC20:
 1250 0194 202D2000 		.ascii	" - \000"
 1251              	.LC21:
 1252 0198 31343A31 		.ascii	"14:16:45\000"
 1252      363A3435 
 1252      00
 1253 01a1 000000   		.space	3
 1254              	.LC22:
 1255 01a4 7368656C 		.ascii	"shell\000"
 1255      6C00
 1256 01aa 0000     		.space	2
 1257              	.LC23:
 1258 01ac 0D0A4368 		.ascii	"\015\012ChibiOS/RT Shell\015\012\000"
 1258      6962694F 
 1258      532F5254 
 1258      20536865 
 1258      6C6C0D0A 
 1259 01c1 000000   		.space	3
 1260              	.LC24:
 1261 01c4 63683E20 		.ascii	"ch> \000"
 1261      00
 1262 01c9 000000   		.space	3
 1263              	.LC25:
 1264 01cc 5E4400   		.ascii	"^D\000"
 1265 01cf 00       		.space	1
 1266              	.LC26:
 1267 01d0 0D0A00   		.ascii	"\015\012\000"
 1268 01d3 00       		.space	1
 1269              	.LC27:
 1270 01d4 200900   		.ascii	" \011\000"
 1271 01d7 00       		.space	1
 1272              	.LC28:
 1273 01d8 0D0A6C6F 		.ascii	"\015\012logout\000"
 1273      676F7574 
 1273      00
 1274 01e1 000000   		.space	3
 1275              	.LC29:
 1276 01e4 746F6F20 		.ascii	"too many arguments\015\012\000"
 1276      6D616E79 
 1276      20617267 
 1276      756D656E 
 1276      74730D0A 
 1277 01f9 000000   		.space	3
 1278              	.LC30:
 1279 01fc 65786974 		.ascii	"exit\000"
 1279      00
 1280 0201 000000   		.space	3
ARM GAS  /tmp/ccENSE6T.s 			page 25


 1281              	.LC31:
 1282 0204 68656C70 		.ascii	"help\000"
 1282      00
 1283 0209 000000   		.space	3
 1284              	.LC32:
 1285 020c 436F6D6D 		.ascii	"Commands: help exit \000"
 1285      616E6473 
 1285      3A206865 
 1285      6C702065 
 1285      78697420 
 1286 0221 000000   		.space	3
 1287              	.LC33:
 1288 0224 25732000 		.ascii	"%s \000"
 1289              	.LC34:
 1290 0228 257300   		.ascii	"%s\000"
 1291 022b 00       		.space	1
 1292              	.LC35:
 1293 022c 203F0D0A 		.ascii	" ?\015\012\000"
 1293      00
 1294 0231 000000   		.section	.bss.shell_terminated,"aw",%nobits
 1295              		.align	2
 1296              		.set	.LANCHOR1,. + 0
 1297              		.type	shell_terminated, %object
 1298              		.size	shell_terminated, 4
 1299              	shell_terminated:
 1300 0000 00000000 		.space	4
 1301              		.text
 1302              	.Letext0:
 1303              		.file 2 "/home/tino/ChibiStudio/tools/GNU Tools ARM Embedded/4.6 2012q2/bin/../lib/gcc/arm-none-ea
 1304              		.file 3 "/home/tino/ChibiStudio/tools/GNU Tools ARM Embedded/4.6 2012q2/bin/../lib/gcc/arm-none-ea
 1305              		.file 4 "../../ChibiOS/os/ports/GCC/ARMCMx/chtypes.h"
 1306              		.file 5 "../../ChibiOS/os/kernel/include/chlists.h"
 1307              		.file 6 "../../ChibiOS/os/kernel/include/chthreads.h"
 1308              		.file 7 "../../ChibiOS/os/ports/GCC/ARMCMx/chcore_v7m.h"
 1309              		.file 8 "../../ChibiOS/os/kernel/include/chvt.h"
 1310              		.file 9 "../../ChibiOS/os/kernel/include/chschd.h"
 1311              		.file 10 "../../ChibiOS/os/kernel/include/chmtx.h"
 1312              		.file 11 "../../ChibiOS/os/kernel/include/chevents.h"
 1313              		.file 12 "../../ChibiOS/os/kernel/include/chstreams.h"
 1314              		.file 13 "../../ChibiOS/os/various/shell.h"
 1315              		.file 14 "../../ChibiOS/os/ports/common/ARMCMx/CMSIS/include/core_cm3.h"