ARM GAS  /tmp/ccENSE6T.s 			page 1


   1              		.syntax unified
   2              		.cpu cortex-m3
   3              		.fpu softvfp
   4              		.eabi_attribute 20, 1
   5              		.eabi_attribute 21, 1
   6              		.eabi_attribute 23, 3
   7              		.eabi_attribute 24, 1
   8              		.eabi_attribute 25, 1
   9              		.eabi_attribute 26, 1
  10              		.eabi_attribute 30, 2
  11              		.eabi_attribute 34, 1
  12              		.eabi_attribute 18, 4
  13              		.thumb
  14              		.file	"shell.c"
  15              		.text
  16              	.Ltext0:
  17              		.cfi_sections	.debug_frame
  18              		.section	.text.cmd_systime,"ax",%progbits
  19              		.align	2
  20              		.p2align 4,,15
  21              		.thumb
  22              		.thumb_func
  23              		.type	cmd_systime, %function
  24              	cmd_systime:
  25              	.LFB67:
  26              		.file 1 "../../ChibiOS/os/various/shell.c"
  27              		.loc 1 99 0
  28              		.cfi_startproc
  29              		@ args = 0, pretend = 0, frame = 0
  30              		@ frame_needed = 0, uses_anonymous_args = 0
  31              		@ link register save eliminated.
  32              	.LVL0:
  33              		.loc 1 102 0
  34 0000 0029     		cmp	r1, #0
  35 0002 03DD     		ble	.L2
  36              	.LVL1:
  37              	.LBB30:
  38              	.LBB31:
  39              		.loc 1 56 0
  40 0004 0449     		ldr	r1, .L4
  41              	.LVL2:
  42 0006 054A     		ldr	r2, .L4+4
  43              	.LVL3:
  44              	.LBE31:
  45              	.LBE30:
  46              		.loc 1 107 0
  47              	.LBB33:
  48              	.LBB32:
  49              		.loc 1 56 0
  50 0008 FFF7FEBF 		b	chprintf
  51              	.LVL4:
  52              	.L2:
  53              	.LBE32:
  54              	.LBE33:
  55              	.LBB34:
  56              	.LBB35:
  57              		.loc 1 106 0
ARM GAS  /tmp/ccENSE6T.s 			page 2


  58 000c 044B     		ldr	r3, .L4+8
  59 000e 0549     		ldr	r1, .L4+12
  60              	.LVL5:
  61 0010 DA68     		ldr	r2, [r3, #12]
  62              	.LVL6:
  63              	.LBE35:
  64              	.LBE34:
  65              		.loc 1 107 0
  66              	.LBB37:
  67              	.LBB36:
  68              		.loc 1 106 0
  69 0012 FFF7FEBF 		b	chprintf
  70              	.LVL7:
  71              	.L5:
  72 0016 00BF     		.align	2
  73              	.L4:
  74 0018 00000000 		.word	.LC0
  75 001c 0C000000 		.word	.LC1
  76 0020 00000000 		.word	vtlist
  77 0024 14000000 		.word	.LC2
  78              	.LBE36:
  79              	.LBE37:
  80              		.cfi_endproc
  81              	.LFE67:
  82              		.size	cmd_systime, .-cmd_systime
  83 0028 AFF30080 		.section	.text.cmd_info,"ax",%progbits
  83      AFF30080 
  84              		.align	2
  85              		.p2align 4,,15
  86              		.thumb
  87              		.thumb_func
  88              		.type	cmd_info, %function
  89              	cmd_info:
  90              	.LFB66:
  91              		.loc 1 67 0
  92              		.cfi_startproc
  93              		@ args = 0, pretend = 0, frame = 0
  94              		@ frame_needed = 0, uses_anonymous_args = 0
  95              	.LVL8:
  96 0000 10B5     		push	{r4, lr}
  97              	.LCFI0:
  98              		.cfi_def_cfa_offset 8
  99              		.cfi_offset 14, -4
 100              		.cfi_offset 4, -8
 101              		.loc 1 70 0
 102 0002 0029     		cmp	r1, #0
 103              		.loc 1 67 0
 104 0004 82B0     		sub	sp, sp, #8
 105              	.LCFI1:
 106              		.cfi_def_cfa_offset 16
 107              		.loc 1 67 0
 108 0006 0446     		mov	r4, r0
 109              		.loc 1 70 0
 110 0008 06DD     		ble	.L7
 111              	.LVL9:
 112              	.LBB44:
 113              	.LBB45:
ARM GAS  /tmp/ccENSE6T.s 			page 3


 114              		.loc 1 56 0
 115 000a 1949     		ldr	r1, .L8
 116              	.LVL10:
 117 000c 194A     		ldr	r2, .L8+4
 118              	.LVL11:
 119              	.LBE45:
 120              	.LBE44:
 121              		.loc 1 97 0
 122 000e 02B0     		add	sp, sp, #8
 123 0010 BDE81040 		pop	{r4, lr}
 124              	.LBB47:
 125              	.LBB46:
 126              		.loc 1 56 0
 127 0014 FFF7FEBF 		b	chprintf
 128              	.LVL12:
 129              	.L7:
 130              	.LBE46:
 131              	.LBE47:
 132              	.LBB48:
 133              	.LBB49:
 134              		.loc 1 75 0
 135 0018 1749     		ldr	r1, .L8+8
 136              	.LVL13:
 137 001a 184A     		ldr	r2, .L8+12
 138              	.LVL14:
 139 001c FFF7FEFF 		bl	chprintf
 140              		.loc 1 77 0
 141 0020 2046     		mov	r0, r4
 142 0022 1749     		ldr	r1, .L8+16
 143 0024 174A     		ldr	r2, .L8+20
 144 0026 FFF7FEFF 		bl	chprintf
 145              		.loc 1 79 0
 146 002a 2046     		mov	r0, r4
 147 002c 1649     		ldr	r1, .L8+24
 148 002e 174A     		ldr	r2, .L8+28
 149 0030 FFF7FEFF 		bl	chprintf
 150              		.loc 1 81 0
 151 0034 2046     		mov	r0, r4
 152 0036 1649     		ldr	r1, .L8+32
 153 0038 164A     		ldr	r2, .L8+36
 154 003a FFF7FEFF 		bl	chprintf
 155              		.loc 1 84 0
 156 003e 2046     		mov	r0, r4
 157 0040 1549     		ldr	r1, .L8+40
 158 0042 164A     		ldr	r2, .L8+44
 159 0044 FFF7FEFF 		bl	chprintf
 160              		.loc 1 87 0
 161 0048 2046     		mov	r0, r4
 162 004a 1549     		ldr	r1, .L8+48
 163 004c 154A     		ldr	r2, .L8+52
 164 004e FFF7FEFF 		bl	chprintf
 165              		.loc 1 90 0
 166 0052 2046     		mov	r0, r4
 167 0054 1449     		ldr	r1, .L8+56
 168 0056 154A     		ldr	r2, .L8+60
 169 0058 FFF7FEFF 		bl	chprintf
 170              		.loc 1 94 0
ARM GAS  /tmp/ccENSE6T.s 			page 4


 171 005c 144B     		ldr	r3, .L8+64
 172 005e 2046     		mov	r0, r4
 173 0060 0093     		str	r3, [sp, #0]
 174 0062 1449     		ldr	r1, .L8+68
 175 0064 144A     		ldr	r2, .L8+72
 176 0066 154B     		ldr	r3, .L8+76
 177 0068 FFF7FEFF 		bl	chprintf
 178              	.LBE49:
 179              	.LBE48:
 180              		.loc 1 97 0
 181 006c 02B0     		add	sp, sp, #8
 182 006e 10BD     		pop	{r4, pc}
 183              	.L9:
 184              		.align	2
 185              	.L8:
 186 0070 00000000 		.word	.LC0
 187 0074 1C000000 		.word	.LC3
 188 0078 24000000 		.word	.LC4
 189 007c 38000000 		.word	.LC5
 190 0080 48000000 		.word	.LC6
 191 0084 5C000000 		.word	.LC7
 192 0088 A4000000 		.word	.LC8
 193 008c B8000000 		.word	.LC9
 194 0090 C0000000 		.word	.LC10
 195 0094 D4000000 		.word	.LC11
 196 0098 E0000000 		.word	.LC12
 197 009c F4000000 		.word	.LC13
 198 00a0 0C010000 		.word	.LC14
 199 00a4 20010000 		.word	.LC15
 200 00a8 4C010000 		.word	.LC16
 201 00ac 60010000 		.word	.LC17
 202 00b0 98010000 		.word	.LC21
 203 00b4 70010000 		.word	.LC18
 204 00b8 88010000 		.word	.LC19
 205 00bc 94010000 		.word	.LC20
 206              		.cfi_endproc
 207              	.LFE66:
 208              		.size	cmd_info, .-cmd_info
 209              		.section	.text.shell_thread,"ax",%progbits
 210              		.align	2
 211              		.p2align 4,,15
 212              		.thumb
 213              		.thumb_func
 214              		.type	shell_thread, %function
 215              	shell_thread:
 216              	.LFB69:
 217              		.loc 1 139 0
 218              		.cfi_startproc
 219              		@ args = 0, pretend = 0, frame = 96
 220              		@ frame_needed = 0, uses_anonymous_args = 0
 221              	.LVL15:
 222 0000 2DE9F04F 		push	{r4, r5, r6, r7, r8, r9, sl, fp, lr}
 223              	.LCFI2:
 224              		.cfi_def_cfa_offset 36
 225              		.cfi_offset 14, -4
 226              		.cfi_offset 11, -8
 227              		.cfi_offset 10, -12
ARM GAS  /tmp/ccENSE6T.s 			page 5


 228              		.cfi_offset 9, -16
 229              		.cfi_offset 8, -20
 230              		.cfi_offset 7, -24
 231              		.cfi_offset 6, -28
 232              		.cfi_offset 5, -32
 233              		.cfi_offset 4, -36
 234              		.loc 1 147 0
 235 0004 9849     		ldr	r1, .L77
 236              		.loc 1 142 0
 237 0006 0468     		ldr	r4, [r0, #0]
 238              	.LVL16:
 239              		.loc 1 147 0
 240 0008 8B69     		ldr	r3, [r1, #24]
 241              		.loc 1 143 0
 242 000a 4068     		ldr	r0, [r0, #4]
 243              	.LVL17:
 244              		.loc 1 147 0
 245 000c 974A     		ldr	r2, .L77+4
 246              		.loc 1 139 0
 247 000e 99B0     		sub	sp, sp, #100
 248              	.LCFI3:
 249              		.cfi_def_cfa_offset 136
 250              		.loc 1 143 0
 251 0010 0190     		str	r0, [sp, #4]
 252              	.LVL18:
 253              		.loc 1 147 0
 254 0012 9A61     		str	r2, [r3, #24]
 255              		.loc 1 148 0
 256 0014 2046     		mov	r0, r4
 257              	.LVL19:
 258 0016 9649     		ldr	r1, .L77+8
 259 0018 FFF7FEFF 		bl	chprintf
 260              	.LBB70:
 261              	.LBB71:
 262              		.loc 1 61 0
 263 001c DFF87C82 		ldr	r8, .L77+52
 264 0020 02AE     		add	r6, sp, #8
 265              	.LBE71:
 266              	.LBE70:
 267              	.LBB73:
 268              	.LBB74:
 269              		.loc 1 139 0
 270 0022 08F10809 		add	r9, r8, #8
 271              	.LVL20:
 272              	.L70:
 273              	.LBE74:
 274              	.LBE73:
 275              		.loc 1 150 0
 276 0026 2046     		mov	r0, r4
 277 0028 9249     		ldr	r1, .L77+12
 278 002a FFF7FEFF 		bl	chprintf
 279              	.LVL21:
 280              		.loc 1 151 0
 281 002e 3546     		mov	r5, r6
 282              	.LBB76:
 283              	.LBB77:
 284              	.LBB78:
ARM GAS  /tmp/ccENSE6T.s 			page 6


 285              		.loc 1 279 0
 286 0030 0DF14707 		add	r7, sp, #71
 287              	.L69:
 288              	.LVL22:
 289              		.loc 1 257 0
 290 0034 2068     		ldr	r0, [r4, #0]
 291 0036 0122     		movs	r2, #1
 292 0038 4368     		ldr	r3, [r0, #4]
 293 003a 17A9     		add	r1, sp, #92
 294 003c 2046     		mov	r0, r4
 295 003e 9847     		blx	r3
 296 0040 D8B1     		cbz	r0, .L14
 297              	.L76:
 298              		.loc 1 259 0
 299 0042 9DF85C10 		ldrb	r1, [sp, #92]	@ zero_extendqisi2
 300 0046 0429     		cmp	r1, #4
 301 0048 3ED0     		beq	.L73
 302              		.loc 1 263 0
 303 004a 0829     		cmp	r1, #8
 304 004c 29D0     		beq	.L74
 305              		.loc 1 272 0
 306 004e 0D29     		cmp	r1, #13
 307 0050 3FD0     		beq	.L75
 308              		.loc 1 277 0
 309 0052 1F29     		cmp	r1, #31
 310 0054 EED9     		bls	.L69
 311              		.loc 1 279 0
 312 0056 BD42     		cmp	r5, r7
 313 0058 ECD2     		bcs	.L69
 314              		.loc 1 280 0
 315 005a 2268     		ldr	r2, [r4, #0]
 316 005c 2046     		mov	r0, r4
 317 005e 9368     		ldr	r3, [r2, #8]
 318 0060 9847     		blx	r3
 319              		.loc 1 281 0
 320 0062 9DF85C10 		ldrb	r1, [sp, #92]	@ zero_extendqisi2
 321              	.LVL23:
 322              		.loc 1 257 0
 323 0066 0122     		movs	r2, #1
 324              	.LVL24:
 325              		.loc 1 281 0
 326 0068 05F8011B 		strb	r1, [r5], #1
 327              	.LVL25:
 328              		.loc 1 257 0
 329 006c 2068     		ldr	r0, [r4, #0]
 330 006e 17A9     		add	r1, sp, #92
 331              	.LVL26:
 332 0070 4368     		ldr	r3, [r0, #4]
 333 0072 2046     		mov	r0, r4
 334 0074 9847     		blx	r3
 335 0076 0028     		cmp	r0, #0
 336 0078 E3D1     		bne	.L76
 337              	.LVL27:
 338              	.L14:
 339              	.LBE78:
 340              	.LBE77:
 341              	.LBE76:
ARM GAS  /tmp/ccENSE6T.s 			page 7


 342              		.loc 1 152 0
 343 007a 2046     		mov	r0, r4
 344 007c 7E49     		ldr	r1, .L77+16
 345 007e FFF7FEFF 		bl	chprintf
 346              	.LVL28:
 347              	.L21:
 348              	.LBB83:
 349              		.loc 1 195 0
 350 0082 2023     		movs	r3, #32
 351              	.LVL29:
 352              	@ 195 "../../ChibiOS/os/various/shell.c" 1
 353 0084 83F31188 		msr     BASEPRI, r3
 354              	@ 0 "" 2
 355              	.LVL30:
 356              		.thumb
 357              	.LBE83:
 358 0088 FFF7FEFF 		bl	dbg_check_lock
 359              	.LVL31:
 360              		.loc 1 196 0
 361 008c 0021     		movs	r1, #0
 362 008e 7B48     		ldr	r0, .L77+20
 363 0090 FFF7FEFF 		bl	chEvtBroadcastFlagsI
 364              		.loc 1 197 0
 365 0094 0020     		movs	r0, #0
 366 0096 FFF7FEFF 		bl	chThdExitS
 367              		.loc 1 199 0
 368 009a 0020     		movs	r0, #0
 369 009c 19B0     		add	sp, sp, #100
 370 009e BDE8F08F 		pop	{r4, r5, r6, r7, r8, r9, sl, fp, pc}
 371              	.LVL32:
 372              	.L74:
 373              	.LBB84:
 374              	.LBB81:
 375              	.LBB79:
 376              		.loc 1 264 0
 377 00a2 B542     		cmp	r5, r6
 378 00a4 C6D0     		beq	.L69
 379              		.loc 1 265 0
 380 00a6 2268     		ldr	r2, [r4, #0]
 381 00a8 2046     		mov	r0, r4
 382 00aa 9368     		ldr	r3, [r2, #8]
 383 00ac 9847     		blx	r3
 384              		.loc 1 266 0
 385 00ae 2068     		ldr	r0, [r4, #0]
 386 00b0 2021     		movs	r1, #32
 387 00b2 8268     		ldr	r2, [r0, #8]
 388 00b4 2046     		mov	r0, r4
 389 00b6 9047     		blx	r2
 390              		.loc 1 267 0
 391 00b8 2368     		ldr	r3, [r4, #0]
 392 00ba 9DF85C10 		ldrb	r1, [sp, #92]	@ zero_extendqisi2
 393              	.LVL33:
 394 00be 9A68     		ldr	r2, [r3, #8]
 395 00c0 2046     		mov	r0, r4
 396 00c2 9047     		blx	r2
 397              		.loc 1 268 0
 398 00c4 013D     		subs	r5, r5, #1
ARM GAS  /tmp/ccENSE6T.s 			page 8


 399              	.LVL34:
 400 00c6 B5E7     		b	.L69
 401              	.LVL35:
 402              	.L73:
 403              		.loc 1 260 0
 404 00c8 2046     		mov	r0, r4
 405 00ca 6D49     		ldr	r1, .L77+24
 406 00cc FFF7FEFF 		bl	chprintf
 407 00d0 D3E7     		b	.L14
 408              	.L75:
 409              		.loc 1 273 0
 410 00d2 2046     		mov	r0, r4
 411 00d4 6B49     		ldr	r1, .L77+28
 412              		.loc 1 274 0
 413 00d6 4FF0000A 		mov	sl, #0
 414              		.loc 1 273 0
 415 00da FFF7FEFF 		bl	chprintf
 416              	.LBE79:
 417              	.LBE81:
 418              	.LBE84:
 419              	.LBB85:
 420              	.LBB86:
 421              		.loc 1 46 0
 422 00de 6A49     		ldr	r1, .L77+32
 423              	.LBE86:
 424              	.LBE85:
 425              	.LBB90:
 426              	.LBB82:
 427              	.LBB80:
 428              		.loc 1 274 0
 429 00e0 85F800A0 		strb	sl, [r5, #0]
 430              	.LVL36:
 431              	.LBE80:
 432              	.LBE82:
 433              	.LBE90:
 434              	.LBB91:
 435              	.LBB87:
 436              		.loc 1 46 0
 437 00e4 3046     		mov	r0, r6
 438 00e6 FFF7FEFF 		bl	strspn
 439 00ea 3718     		adds	r7, r6, r0
 440              	.LVL37:
 441 00ec 8346     		mov	fp, r0
 442              		.loc 1 47 0
 443 00ee 6649     		ldr	r1, .L77+32
 444 00f0 3846     		mov	r0, r7
 445 00f2 FFF7FEFF 		bl	strpbrk
 446 00f6 0546     		mov	r5, r0
 447              	.LVL38:
 448              		.loc 1 48 0
 449 00f8 08B1     		cbz	r0, .L20
 450              		.loc 1 49 0
 451 00fa 05F801AB 		strb	sl, [r5], #1
 452              	.LVL39:
 453              	.L20:
 454              		.loc 1 51 0
 455 00fe 16F80B00 		ldrb	r0, [r6, fp]	@ zero_extendqisi2
ARM GAS  /tmp/ccENSE6T.s 			page 9


 456 0102 0028     		cmp	r0, #0
 457 0104 08BF     		it	eq
 458 0106 0027     		moveq	r7, #0
 459              	.LVL40:
 460              	.LBE87:
 461              	.LBE91:
 462              	.LBB92:
 463              	.LBB93:
 464              		.loc 1 43 0
 465 0108 8DB1     		cbz	r5, .L23
 466              		.loc 1 46 0
 467 010a 5F49     		ldr	r1, .L77+32
 468 010c 2846     		mov	r0, r5
 469 010e FFF7FEFF 		bl	strspn
 470 0112 05EB000A 		add	sl, r5, r0
 471              	.LVL41:
 472              		.loc 1 47 0
 473 0116 5046     		mov	r0, sl
 474 0118 5B49     		ldr	r1, .L77+32
 475 011a FFF7FEFF 		bl	strpbrk
 476 011e 0546     		mov	r5, r0
 477              	.LVL42:
 478              		.loc 1 48 0
 479 0120 10B1     		cbz	r0, .L26
 480              		.loc 1 49 0
 481 0122 0023     		movs	r3, #0
 482 0124 05F8013B 		strb	r3, [r5], #1
 483              	.LVL43:
 484              	.L26:
 485              		.loc 1 51 0
 486 0128 9AF80010 		ldrb	r1, [sl, #0]	@ zero_extendqisi2
 487 012c C1B9     		cbnz	r1, .L25
 488              	.LVL44:
 489              	.L23:
 490              	.LBE93:
 491              	.LBE92:
 492              	.LBB98:
 493              	.LBB88:
 494              		.loc 1 157 0
 495 012e 0025     		movs	r5, #0
 496              	.LVL45:
 497              	.L59:
 498              	.LBE88:
 499              	.LBE98:
 500              		.loc 1 166 0
 501 0130 0DF1600E 		add	lr, sp, #96
 502 0134 0EEB850C 		add	ip, lr, r5, lsl #2
 503 0138 0022     		movs	r2, #0
 504 013a 4CF8182C 		str	r2, [ip, #-24]
 505              		.loc 1 167 0
 506 013e 002F     		cmp	r7, #0
 507 0140 3FF471AF 		beq	.L70
 508              		.loc 1 168 0
 509 0144 3846     		mov	r0, r7
 510 0146 5149     		ldr	r1, .L77+36
 511 0148 FFF7FEFF 		bl	strcasecmp
 512 014c 0028     		cmp	r0, #0
ARM GAS  /tmp/ccENSE6T.s 			page 10


 513 014e 69D1     		bne	.L44
 514              		.loc 1 169 0
 515 0150 002D     		cmp	r5, #0
 516 0152 96D0     		beq	.L21
 517              	.LVL46:
 518              	.LBB99:
 519              	.LBB100:
 520              		.loc 1 56 0
 521 0154 2046     		mov	r0, r4
 522 0156 4E49     		ldr	r1, .L77+40
 523 0158 4C4A     		ldr	r2, .L77+36
 524 015a FFF7FEFF 		bl	chprintf
 525              	.LBE100:
 526              	.LBE99:
 527              		.loc 1 171 0
 528 015e 62E7     		b	.L70
 529              	.LVL47:
 530              	.L25:
 531              		.loc 1 164 0
 532 0160 CDF848A0 		str	sl, [sp, #72]
 533              	.LVL48:
 534              	.LBB101:
 535              	.LBB94:
 536              		.loc 1 43 0
 537 0164 002D     		cmp	r5, #0
 538 0166 55D0     		beq	.L27
 539              		.loc 1 46 0
 540 0168 4749     		ldr	r1, .L77+32
 541 016a 2846     		mov	r0, r5
 542 016c FFF7FEFF 		bl	strspn
 543 0170 05EB000A 		add	sl, r5, r0
 544              	.LVL49:
 545              		.loc 1 47 0
 546 0174 5046     		mov	r0, sl
 547 0176 4449     		ldr	r1, .L77+32
 548 0178 FFF7FEFF 		bl	strpbrk
 549 017c 0546     		mov	r5, r0
 550              	.LVL50:
 551              		.loc 1 48 0
 552 017e 10B1     		cbz	r0, .L30
 553              		.loc 1 49 0
 554 0180 0020     		movs	r0, #0
 555              	.LVL51:
 556 0182 05F8010B 		strb	r0, [r5], #1
 557              	.LVL52:
 558              	.L30:
 559              		.loc 1 51 0
 560 0186 9AF80020 		ldrb	r2, [sl, #0]	@ zero_extendqisi2
 561 018a 002A     		cmp	r2, #0
 562 018c 42D0     		beq	.L27
 563              	.LBE94:
 564              	.LBE101:
 565              		.loc 1 164 0
 566 018e CDF84CA0 		str	sl, [sp, #76]
 567              	.LVL53:
 568              	.LBB102:
 569              	.LBB95:
ARM GAS  /tmp/ccENSE6T.s 			page 11


 570              		.loc 1 43 0
 571 0192 002D     		cmp	r5, #0
 572 0194 40D0     		beq	.L31
 573              		.loc 1 46 0
 574 0196 3C49     		ldr	r1, .L77+32
 575 0198 2846     		mov	r0, r5
 576 019a FFF7FEFF 		bl	strspn
 577 019e 05EB000A 		add	sl, r5, r0
 578              	.LVL54:
 579              		.loc 1 47 0
 580 01a2 5046     		mov	r0, sl
 581 01a4 3849     		ldr	r1, .L77+32
 582 01a6 FFF7FEFF 		bl	strpbrk
 583 01aa 0546     		mov	r5, r0
 584              	.LVL55:
 585              		.loc 1 48 0
 586 01ac 10B1     		cbz	r0, .L34
 587              		.loc 1 49 0
 588 01ae 0023     		movs	r3, #0
 589 01b0 05F8013B 		strb	r3, [r5], #1
 590              	.LVL56:
 591              	.L34:
 592              		.loc 1 51 0
 593 01b4 9AF80010 		ldrb	r1, [sl, #0]	@ zero_extendqisi2
 594 01b8 71B3     		cbz	r1, .L31
 595              	.LBE95:
 596              	.LBE102:
 597              		.loc 1 164 0
 598 01ba CDF850A0 		str	sl, [sp, #80]
 599              	.LVL57:
 600              	.LBB103:
 601              	.LBB96:
 602              		.loc 1 43 0
 603 01be 6DB3     		cbz	r5, .L35
 604              		.loc 1 46 0
 605 01c0 3149     		ldr	r1, .L77+32
 606 01c2 2846     		mov	r0, r5
 607 01c4 FFF7FEFF 		bl	strspn
 608 01c8 05EB000A 		add	sl, r5, r0
 609              	.LVL58:
 610              		.loc 1 47 0
 611 01cc 5046     		mov	r0, sl
 612 01ce 2E49     		ldr	r1, .L77+32
 613 01d0 FFF7FEFF 		bl	strpbrk
 614 01d4 0546     		mov	r5, r0
 615              	.LVL59:
 616              		.loc 1 48 0
 617 01d6 10B1     		cbz	r0, .L38
 618              		.loc 1 49 0
 619 01d8 0020     		movs	r0, #0
 620              	.LVL60:
 621 01da 05F8010B 		strb	r0, [r5], #1
 622              	.LVL61:
 623              	.L38:
 624              		.loc 1 51 0
 625 01de 9AF80020 		ldrb	r2, [sl, #0]	@ zero_extendqisi2
 626 01e2 DAB1     		cbz	r2, .L35
ARM GAS  /tmp/ccENSE6T.s 			page 12


 627              	.LBE96:
 628              	.LBE103:
 629              		.loc 1 164 0
 630 01e4 CDF854A0 		str	sl, [sp, #84]
 631              	.LVL62:
 632              	.LBB104:
 633              	.LBB97:
 634              		.loc 1 43 0
 635 01e8 D5B1     		cbz	r5, .L39
 636              		.loc 1 46 0
 637 01ea 2749     		ldr	r1, .L77+32
 638 01ec 2846     		mov	r0, r5
 639 01ee FFF7FEFF 		bl	strspn
 640 01f2 2D18     		adds	r5, r5, r0
 641              	.LVL63:
 642              		.loc 1 47 0
 643 01f4 2846     		mov	r0, r5
 644 01f6 2449     		ldr	r1, .L77+32
 645 01f8 FFF7FEFF 		bl	strpbrk
 646              	.LVL64:
 647              		.loc 1 48 0
 648 01fc 08B1     		cbz	r0, .L42
 649              		.loc 1 49 0
 650 01fe 0021     		movs	r1, #0
 651 0200 0170     		strb	r1, [r0, #0]
 652              	.LVL65:
 653              	.L42:
 654              		.loc 1 51 0
 655 0202 2B78     		ldrb	r3, [r5, #0]	@ zero_extendqisi2
 656 0204 63B1     		cbz	r3, .L39
 657              	.LBE97:
 658              	.LBE104:
 659              		.loc 1 160 0
 660 0206 2046     		mov	r0, r4
 661 0208 2249     		ldr	r1, .L77+44
 662              		.loc 1 166 0
 663 020a 0025     		movs	r5, #0
 664              	.LVL66:
 665              		.loc 1 160 0
 666 020c FFF7FEFF 		bl	chprintf
 667              	.LVL67:
 668              		.loc 1 166 0
 669 0210 1695     		str	r5, [sp, #88]
 670 0212 08E7     		b	.L70
 671              	.LVL68:
 672              	.L27:
 673              	.LBB105:
 674              	.LBB89:
 675              		.loc 1 164 0
 676 0214 0125     		movs	r5, #1
 677 0216 8BE7     		b	.L59
 678              	.LVL69:
 679              	.L31:
 680 0218 0225     		movs	r5, #2
 681 021a 89E7     		b	.L59
 682              	.LVL70:
 683              	.L35:
ARM GAS  /tmp/ccENSE6T.s 			page 13


 684 021c 0325     		movs	r5, #3
 685 021e 87E7     		b	.L59
 686              	.LVL71:
 687              	.L39:
 688              		.loc 1 51 0
 689 0220 0425     		movs	r5, #4
 690              	.LVL72:
 691 0222 85E7     		b	.L59
 692              	.LVL73:
 693              	.L44:
 694              	.LBE89:
 695              	.LBE105:
 696              		.loc 1 175 0
 697 0224 3846     		mov	r0, r7
 698 0226 1C49     		ldr	r1, .L77+48
 699 0228 FFF7FEFF 		bl	strcasecmp
 700 022c 0028     		cmp	r0, #0
 701 022e 37D0     		beq	.L46
 702              	.LVL74:
 703              	.LBB106:
 704              	.LBB75:
 705              		.loc 1 121 0
 706 0230 D8F80000 		ldr	r0, [r8, #0]
 707 0234 0028     		cmp	r0, #0
 708 0236 3AD0     		beq	.L48
 709 0238 DFF860A0 		ldr	sl, .L77+52
 710 023c 08E0     		b	.L55
 711              	.LVL75:
 712              	.L54:
 713              		.loc 1 123 0
 714 023e 0AF1080A 		add	sl, sl, #8
 715              	.LVL76:
 716              		.loc 1 139 0
 717 0242 C8EB0A01 		rsb	r1, r8, sl
 718 0246 09EB010C 		add	ip, r9, r1
 719              		.loc 1 121 0
 720 024a 5CF8080C 		ldr	r0, [ip, #-8]
 721 024e 70B3     		cbz	r0, .L48
 722              	.LVL77:
 723              	.L55:
 724              		.loc 1 122 0
 725 0250 3946     		mov	r1, r7
 726 0252 FFF7FEFF 		bl	strcasecmp
 727 0256 0028     		cmp	r0, #0
 728 0258 F1D1     		bne	.L54
 729              	.L72:
 730              	.LBE75:
 731              	.LBE106:
 732              	.LBB107:
 733              	.LBB108:
 734              		.loc 1 123 0
 735 025a DAF80470 		ldr	r7, [sl, #4]
 736 025e 2046     		mov	r0, r4
 737 0260 2946     		mov	r1, r5
 738 0262 12AA     		add	r2, sp, #72
 739 0264 B847     		blx	r7
 740 0266 DEE6     		b	.L70
ARM GAS  /tmp/ccENSE6T.s 			page 14


 741              	.L78:
 742              		.align	2
 743              	.L77:
 744 0268 00000000 		.word	rlist
 745 026c A4010000 		.word	.LC22
 746 0270 AC010000 		.word	.LC23
 747 0274 C4010000 		.word	.LC24
 748 0278 D8010000 		.word	.LC28
 749 027c 00000000 		.word	.LANCHOR1
 750 0280 CC010000 		.word	.LC25
 751 0284 D0010000 		.word	.LC26
 752 0288 D4010000 		.word	.LC27
 753 028c FC010000 		.word	.LC30
 754 0290 00000000 		.word	.LC0
 755 0294 E4010000 		.word	.LC29
 756 0298 04020000 		.word	.LC31
 757 029c 00000000 		.word	.LANCHOR0
 758              	.L46:
 759              	.LBE108:
 760              	.LBE107:
 761              	.LBB110:
 762              	.LBB111:
 763              		.loc 1 56 0
 764 02a0 2046     		mov	r0, r4
 765              	.LBE111:
 766              	.LBE110:
 767              		.loc 1 176 0
 768 02a2 FDB1     		cbz	r5, .L49
 769              	.LVL78:
 770              	.LBB113:
 771              	.LBB112:
 772              		.loc 1 56 0
 773 02a4 2A49     		ldr	r1, .L79
 774 02a6 2B4A     		ldr	r2, .L79+4
 775 02a8 FFF7FEFF 		bl	chprintf
 776              	.LBE112:
 777              	.LBE113:
 778              		.loc 1 178 0
 779 02ac BBE6     		b	.L70
 780              	.LVL79:
 781              	.L48:
 782              		.loc 1 186 0
 783 02ae 019B     		ldr	r3, [sp, #4]
 784 02b0 002B     		cmp	r3, #0
 785 02b2 43D0     		beq	.L58
 786              	.LVL80:
 787              	.LBB114:
 788              	.LBB109:
 789              		.loc 1 121 0
 790 02b4 1868     		ldr	r0, [r3, #0]
 791 02b6 0028     		cmp	r0, #0
 792 02b8 40D0     		beq	.L58
 793 02ba 9A46     		mov	sl, r3
 794              		.loc 1 139 0
 795 02bc 03F1080B 		add	fp, r3, #8
 796 02c0 0AE0     		b	.L57
 797              	.LVL81:
ARM GAS  /tmp/ccENSE6T.s 			page 15


 798              	.L56:
 799 02c2 019A     		ldr	r2, [sp, #4]
 800              		.loc 1 123 0
 801 02c4 0AF1080A 		add	sl, sl, #8
 802              	.LVL82:
 803              		.loc 1 139 0
 804 02c8 C2EB0A03 		rsb	r3, r2, sl
 805 02cc 0BEB030E 		add	lr, fp, r3
 806              		.loc 1 121 0
 807 02d0 5EF8080C 		ldr	r0, [lr, #-8]
 808 02d4 0028     		cmp	r0, #0
 809 02d6 31D0     		beq	.L58
 810              	.LVL83:
 811              	.L57:
 812              		.loc 1 122 0
 813 02d8 3946     		mov	r1, r7
 814 02da FFF7FEFF 		bl	strcasecmp
 815 02de 0028     		cmp	r0, #0
 816 02e0 EFD1     		bne	.L56
 817 02e2 BAE7     		b	.L72
 818              	.L49:
 819              	.LBE109:
 820              	.LBE114:
 821              		.loc 1 180 0
 822 02e4 1C49     		ldr	r1, .L79+8
 823 02e6 FFF7FEFF 		bl	chprintf
 824              	.LVL84:
 825              	.LBB115:
 826              	.LBB72:
 827              		.loc 1 61 0
 828 02ea D8F80020 		ldr	r2, [r8, #0]
 829 02ee 6AB1     		cbz	r2, .L50
 830 02f0 1A4D     		ldr	r5, .L79+12
 831              	.LVL85:
 832              	.L51:
 833              		.loc 1 62 0
 834 02f2 2046     		mov	r0, r4
 835 02f4 1A49     		ldr	r1, .L79+16
 836 02f6 FFF7FEFF 		bl	chprintf
 837 02fa 0835     		adds	r5, r5, #8
 838              		.loc 1 139 0
 839 02fc 1949     		ldr	r1, .L79+20
 840 02fe C8EB0500 		rsb	r0, r8, r5
 841 0302 0F18     		adds	r7, r1, r0
 842              		.loc 1 61 0
 843 0304 57F8082C 		ldr	r2, [r7, #-8]
 844 0308 002A     		cmp	r2, #0
 845 030a F2D1     		bne	.L51
 846              	.L50:
 847              	.LBE72:
 848              	.LBE115:
 849              		.loc 1 182 0
 850 030c 019B     		ldr	r3, [sp, #4]
 851 030e 83B1     		cbz	r3, .L52
 852              	.LVL86:
 853              	.LBB116:
 854              	.LBB117:
ARM GAS  /tmp/ccENSE6T.s 			page 16


 855              		.loc 1 61 0
 856 0310 1A68     		ldr	r2, [r3, #0]
 857 0312 72B1     		cbz	r2, .L52
 858 0314 1D46     		mov	r5, r3
 859 0316 03F10807 		add	r7, r3, #8
 860              	.LVL87:
 861              	.L53:
 862              		.loc 1 62 0
 863 031a 2046     		mov	r0, r4
 864 031c 1049     		ldr	r1, .L79+16
 865 031e FFF7FEFF 		bl	chprintf
 866              		.loc 1 139 0
 867 0322 0198     		ldr	r0, [sp, #4]
 868              		.loc 1 62 0
 869 0324 0835     		adds	r5, r5, #8
 870              		.loc 1 139 0
 871 0326 2A1A     		subs	r2, r5, r0
 872 0328 BB18     		adds	r3, r7, r2
 873              		.loc 1 61 0
 874 032a 53F8082C 		ldr	r2, [r3, #-8]
 875 032e 002A     		cmp	r2, #0
 876 0330 F3D1     		bne	.L53
 877              	.L52:
 878              	.LBE117:
 879              	.LBE116:
 880              		.loc 1 184 0
 881 0332 2046     		mov	r0, r4
 882 0334 0C49     		ldr	r1, .L79+24
 883 0336 FFF7FEFF 		bl	chprintf
 884 033a 74E6     		b	.L70
 885              	.LVL88:
 886              	.L58:
 887              		.loc 1 188 0
 888 033c 2046     		mov	r0, r4
 889 033e 0B49     		ldr	r1, .L79+28
 890 0340 3A46     		mov	r2, r7
 891 0342 FFF7FEFF 		bl	chprintf
 892              		.loc 1 189 0
 893 0346 2046     		mov	r0, r4
 894 0348 0949     		ldr	r1, .L79+32
 895 034a FFF7FEFF 		bl	chprintf
 896 034e 6AE6     		b	.L70
 897              	.L80:
 898              		.align	2
 899              	.L79:
 900 0350 00000000 		.word	.LC0
 901 0354 04020000 		.word	.LC31
 902 0358 0C020000 		.word	.LC32
 903 035c 00000000 		.word	.LANCHOR0
 904 0360 24020000 		.word	.LC33
 905 0364 08000000 		.word	.LANCHOR0+8
 906 0368 D0010000 		.word	.LC26
 907 036c 28020000 		.word	.LC34
 908 0370 2C020000 		.word	.LC35
 909              		.cfi_endproc
 910              	.LFE69:
 911              		.size	shell_thread, .-shell_thread
ARM GAS  /tmp/ccENSE6T.s 			page 17


 912 0374 AFF30080 		.section	.text.shellInit,"ax",%progbits
 912      AFF30080 
 912      AFF30080 
 913              		.align	2
 914              		.p2align 4,,15
 915              		.global	shellInit
 916              		.thumb
 917              		.thumb_func
 918              		.type	shellInit, %function
 919              	shellInit:
 920              	.LFB70:
 921              		.loc 1 204 0
 922              		.cfi_startproc
 923              		@ args = 0, pretend = 0, frame = 0
 924              		@ frame_needed = 0, uses_anonymous_args = 0
 925              		@ link register save eliminated.
 926              		.loc 1 206 0
 927 0000 40F20003 		movw	r3, #:lower16:.LANCHOR1
 928 0004 C0F20003 		movt	r3, #:upper16:.LANCHOR1
 929 0008 1B60     		str	r3, [r3, #0]
 930              		.loc 1 207 0
 931 000a 7047     		bx	lr
 932              		.cfi_endproc
 933              	.LFE70:
 934              		.size	shellInit, .-shellInit
 935 000c AFF30080 		.section	.text.shellCreate,"ax",%progbits
 936              		.align	2
 937              		.p2align 4,,15
 938              		.global	shellCreate
 939              		.thumb
 940              		.thumb_func
 941              		.type	shellCreate, %function
 942              	shellCreate:
 943              	.LFB71:
 944              		.loc 1 220 0
 945              		.cfi_startproc
 946              		@ args = 0, pretend = 0, frame = 0
 947              		@ frame_needed = 0, uses_anonymous_args = 0
 948              	.LVL89:
 949 0000 10B5     		push	{r4, lr}
 950              	.LCFI4:
 951              		.cfi_def_cfa_offset 8
 952              		.cfi_offset 14, -4
 953              		.cfi_offset 4, -8
 954              		.loc 1 222 0
 955 0002 40F20003 		movw	r3, #:lower16:shell_thread
 956              		.loc 1 220 0
 957 0006 0446     		mov	r4, r0
 958 0008 82B0     		sub	sp, sp, #8
 959              	.LCFI5:
 960              		.cfi_def_cfa_offset 16
 961              		.loc 1 222 0
 962 000a C0F20003 		movt	r3, #:upper16:shell_thread
 963 000e 0020     		movs	r0, #0
 964              	.LVL90:
 965 0010 0094     		str	r4, [sp, #0]
 966 0012 FFF7FEFF 		bl	chThdCreateFromHeap
ARM GAS  /tmp/ccENSE6T.s 			page 18


 967              	.LVL91:
 968              		.loc 1 223 0
 969 0016 02B0     		add	sp, sp, #8
 970 0018 10BD     		pop	{r4, pc}
 971              		.cfi_endproc
 972              	.LFE71:
 973              		.size	shellCreate, .-shellCreate
 974 001a 00BFAFF3 		.section	.text.shellCreateStatic,"ax",%progbits
 974      0080
 975              		.align	2
 976              		.p2align 4,,15
 977              		.global	shellCreateStatic
 978              		.thumb
 979              		.thumb_func
 980              		.type	shellCreateStatic, %function
 981              	shellCreateStatic:
 982              	.LFB72:
 983              		.loc 1 236 0
 984              		.cfi_startproc
 985              		@ args = 0, pretend = 0, frame = 0
 986              		@ frame_needed = 0, uses_anonymous_args = 0
 987              	.LVL92:
 988 0000 70B5     		push	{r4, r5, r6, lr}
 989              	.LCFI6:
 990              		.cfi_def_cfa_offset 16
 991              		.cfi_offset 14, -4
 992              		.cfi_offset 6, -8
 993              		.cfi_offset 5, -12
 994              		.cfi_offset 4, -16
 995              		.loc 1 238 0
 996 0002 40F20004 		movw	r4, #:lower16:shell_thread
 997              		.loc 1 236 0
 998 0006 0E46     		mov	r6, r1
 999              		.loc 1 238 0
 1000 0008 C0F20004 		movt	r4, #:upper16:shell_thread
 1001              		.loc 1 236 0
 1002 000c 0546     		mov	r5, r0
 1003 000e 82B0     		sub	sp, sp, #8
 1004              	.LCFI7:
 1005              		.cfi_def_cfa_offset 24
 1006              		.loc 1 238 0
 1007 0010 1146     		mov	r1, r2
 1008              	.LVL93:
 1009 0012 3046     		mov	r0, r6
 1010              	.LVL94:
 1011 0014 1A46     		mov	r2, r3
 1012              	.LVL95:
 1013 0016 2346     		mov	r3, r4
 1014              	.LVL96:
 1015 0018 0095     		str	r5, [sp, #0]
 1016 001a FFF7FEFF 		bl	chThdCreateStatic
 1017              	.LVL97:
 1018              		.loc 1 239 0
 1019 001e 02B0     		add	sp, sp, #8
 1020 0020 70BD     		pop	{r4, r5, r6, pc}
 1021              		.cfi_endproc
 1022              	.LFE72:
ARM GAS  /tmp/ccENSE6T.s 			page 19


 1023              		.size	shellCreateStatic, .-shellCreateStatic
 1024 0022 00BFAFF3 		.section	.text.shellGetLine,"ax",%progbits
 1024      0080AFF3 
 1024      0080AFF3 
 1024      0080
 1025              		.align	2
 1026              		.p2align 4,,15
 1027              		.global	shellGetLine
 1028              		.thumb
 1029              		.thumb_func
 1030              		.type	shellGetLine, %function
 1031              	shellGetLine:
 1032              	.LFB73:
 1033              		.loc 1 251 0
 1034              		.cfi_startproc
 1035              		@ args = 0, pretend = 0, frame = 8
 1036              		@ frame_needed = 0, uses_anonymous_args = 0
 1037              	.LVL98:
 1038 0000 F0B5     		push	{r4, r5, r6, r7, lr}
 1039              	.LCFI8:
 1040              		.cfi_def_cfa_offset 20
 1041              		.cfi_offset 14, -4
 1042              		.cfi_offset 7, -8
 1043              		.cfi_offset 6, -12
 1044              		.cfi_offset 5, -16
 1045              		.cfi_offset 4, -20
 1046              	.LBB118:
 1047              		.loc 1 279 0
 1048 0002 571E     		subs	r7, r2, #1
 1049              	.LBE118:
 1050              		.loc 1 251 0
 1051 0004 83B0     		sub	sp, sp, #12
 1052              	.LCFI9:
 1053              		.cfi_def_cfa_offset 32
 1054              		.loc 1 251 0
 1055 0006 0E46     		mov	r6, r1
 1056              	.LVL99:
 1057 0008 0446     		mov	r4, r0
 1058              		.loc 1 252 0
 1059 000a 0D46     		mov	r5, r1
 1060              	.LBB119:
 1061              		.loc 1 279 0
 1062 000c CF19     		adds	r7, r1, r7
 1063              	.LVL100:
 1064              	.L94:
 1065              		.loc 1 257 0
 1066 000e 2068     		ldr	r0, [r4, #0]
 1067 0010 0122     		movs	r2, #1
 1068 0012 4368     		ldr	r3, [r0, #4]
 1069 0014 01A9     		add	r1, sp, #4
 1070 0016 2046     		mov	r0, r4
 1071 0018 9847     		blx	r3
 1072 001a D8B1     		cbz	r0, .L91
 1073              	.L98:
 1074              		.loc 1 259 0
 1075 001c 9DF80410 		ldrb	r1, [sp, #4]	@ zero_extendqisi2
 1076 0020 0429     		cmp	r1, #4
ARM GAS  /tmp/ccENSE6T.s 			page 20


 1077 0022 2DD0     		beq	.L95
 1078              		.loc 1 263 0
 1079 0024 0829     		cmp	r1, #8
 1080 0026 18D0     		beq	.L96
 1081              		.loc 1 272 0
 1082 0028 0D29     		cmp	r1, #13
 1083 002a 2FD0     		beq	.L97
 1084              		.loc 1 277 0
 1085 002c 1F29     		cmp	r1, #31
 1086 002e EED9     		bls	.L94
 1087              		.loc 1 279 0
 1088 0030 BD42     		cmp	r5, r7
 1089 0032 ECD2     		bcs	.L94
 1090              		.loc 1 280 0
 1091 0034 2268     		ldr	r2, [r4, #0]
 1092 0036 2046     		mov	r0, r4
 1093 0038 9368     		ldr	r3, [r2, #8]
 1094 003a 9847     		blx	r3
 1095              		.loc 1 281 0
 1096 003c 9DF80410 		ldrb	r1, [sp, #4]	@ zero_extendqisi2
 1097              	.LVL101:
 1098              		.loc 1 257 0
 1099 0040 0122     		movs	r2, #1
 1100              	.LVL102:
 1101              		.loc 1 281 0
 1102 0042 05F8011B 		strb	r1, [r5], #1
 1103              	.LVL103:
 1104              		.loc 1 257 0
 1105 0046 2068     		ldr	r0, [r4, #0]
 1106 0048 01A9     		add	r1, sp, #4
 1107              	.LVL104:
 1108 004a 4368     		ldr	r3, [r0, #4]
 1109 004c 2046     		mov	r0, r4
 1110 004e 9847     		blx	r3
 1111 0050 0028     		cmp	r0, #0
 1112 0052 E3D1     		bne	.L98
 1113              	.LVL105:
 1114              	.L91:
 1115              		.loc 1 258 0
 1116 0054 0120     		movs	r0, #1
 1117              	.L86:
 1118              	.LBE119:
 1119              		.loc 1 284 0
 1120 0056 03B0     		add	sp, sp, #12
 1121 0058 F0BD     		pop	{r4, r5, r6, r7, pc}
 1122              	.L96:
 1123              	.LBB120:
 1124              		.loc 1 264 0
 1125 005a B542     		cmp	r5, r6
 1126 005c D7D0     		beq	.L94
 1127              		.loc 1 265 0
 1128 005e 2268     		ldr	r2, [r4, #0]
 1129 0060 2046     		mov	r0, r4
 1130 0062 9368     		ldr	r3, [r2, #8]
 1131 0064 9847     		blx	r3
 1132              		.loc 1 266 0
 1133 0066 2068     		ldr	r0, [r4, #0]
ARM GAS  /tmp/ccENSE6T.s 			page 21


 1134 0068 2021     		movs	r1, #32
 1135 006a 8268     		ldr	r2, [r0, #8]
 1136 006c 2046     		mov	r0, r4
 1137 006e 9047     		blx	r2
 1138              		.loc 1 267 0
 1139 0070 2368     		ldr	r3, [r4, #0]
 1140 0072 9DF80410 		ldrb	r1, [sp, #4]	@ zero_extendqisi2
 1141              	.LVL106:
 1142 0076 9A68     		ldr	r2, [r3, #8]
 1143 0078 2046     		mov	r0, r4
 1144 007a 9047     		blx	r2
 1145              		.loc 1 268 0
 1146 007c 013D     		subs	r5, r5, #1
 1147              	.LVL107:
 1148 007e C6E7     		b	.L94
 1149              	.LVL108:
 1150              	.L95:
 1151              		.loc 1 260 0
 1152 0080 2046     		mov	r0, r4
 1153 0082 0649     		ldr	r1, .L99
 1154 0084 FFF7FEFF 		bl	chprintf
 1155              		.loc 1 261 0
 1156 0088 0120     		movs	r0, #1
 1157 008a E4E7     		b	.L86
 1158              	.L97:
 1159              		.loc 1 273 0
 1160 008c 2046     		mov	r0, r4
 1161 008e 0449     		ldr	r1, .L99+4
 1162 0090 FFF7FEFF 		bl	chprintf
 1163              		.loc 1 274 0
 1164 0094 0020     		movs	r0, #0
 1165 0096 2870     		strb	r0, [r5, #0]
 1166              		.loc 1 275 0
 1167 0098 DDE7     		b	.L86
 1168              	.L100:
 1169 009a 00BF     		.align	2
 1170              	.L99:
 1171 009c CC010000 		.word	.LC25
 1172 00a0 D0010000 		.word	.LC26
 1173              	.LBE120:
 1174              		.cfi_endproc
 1175              	.LFE73:
 1176              		.size	shellGetLine, .-shellGetLine
 1177              		.global	shell_terminated
 1178 00a4 AFF30080 		.section	.data.local_commands,"aw",%progbits
 1178      AFF30080 
 1178      AFF30080 
 1179              		.align	2
 1180              		.set	.LANCHOR0,. + 0
 1181              		.type	local_commands, %object
 1182              		.size	local_commands, 24
 1183              	local_commands:
 1184 0000 1C000000 		.word	.LC3
 1185 0004 00000000 		.word	cmd_info
 1186 0008 0C000000 		.word	.LC1
 1187 000c 00000000 		.word	cmd_systime
 1188 0010 00000000 		.word	0
ARM GAS  /tmp/ccENSE6T.s 			page 22


 1189 0014 00000000 		.word	0
 1190              		.section	.rodata.str1.4,"aMS",%progbits,1
 1191              		.align	2
 1192              	.LC0:
 1193 0000 55736167 		.ascii	"Usage: %s\015\012\000"
 1193      653A2025 
 1193      730D0A00 
 1194              	.LC1:
 1195 000c 73797374 		.ascii	"systime\000"
 1195      696D6500 
 1196              	.LC2:
 1197 0014 256C750D 		.ascii	"%lu\015\012\000"
 1197      0A00
 1198 001a 0000     		.space	2
 1199              	.LC3:
 1200 001c 696E666F 		.ascii	"info\000"
 1200      00
 1201 0021 000000   		.space	3
 1202              	.LC4:
 1203 0024 4B65726E 		.ascii	"Kernel:       %s\015\012\000"
 1203      656C3A20 
 1203      20202020 
 1203      20202573 
 1203      0D0A00
 1204 0037 00       		.space	1
 1205              	.LC5:
 1206 0038 322E352E 		.ascii	"2.5.2unstable\000"
 1206      32756E73 
 1206      7461626C 
 1206      6500
 1207 0046 0000     		.space	2
 1208              	.LC6:
 1209 0048 436F6D70 		.ascii	"Compiler:     %s\015\012\000"
 1209      696C6572 
 1209      3A202020 
 1209      20202573 
 1209      0D0A00
 1210 005b 00       		.space	1
 1211              	.LC7:
 1212 005c 47434320 		.ascii	"GCC 4.6.2 20120613 (release) [ARM/embedded-4_6-bran"
 1212      342E362E 
 1212      32203230 
 1212      31323036 
 1212      31332028 
 1213 008f 63682072 		.ascii	"ch revision 188521]\000"
 1213      65766973 
 1213      696F6E20 
 1213      31383835 
 1213      32315D00 
 1214 00a3 00       		.space	1
 1215              	.LC8:
 1216 00a4 41726368 		.ascii	"Architecture: %s\015\012\000"
 1216      69746563 
 1216      74757265 
 1216      3A202573 
 1216      0D0A00
 1217 00b7 00       		.space	1
ARM GAS  /tmp/ccENSE6T.s 			page 23


 1218              	.LC9:
 1219 00b8 41524D76 		.ascii	"ARMv7-M\000"
 1219      372D4D00 
 1220              	.LC10:
 1221 00c0 436F7265 		.ascii	"Core Variant: %s\015\012\000"
 1221      20566172 
 1221      69616E74 
 1221      3A202573 
 1221      0D0A00
 1222 00d3 00       		.space	1
 1223              	.LC11:
 1224 00d4 436F7274 		.ascii	"Cortex-M3\000"
 1224      65782D4D 
 1224      3300
 1225 00de 0000     		.space	2
 1226              	.LC12:
 1227 00e0 506F7274 		.ascii	"Port Info:    %s\015\012\000"
 1227      20496E66 
 1227      6F3A2020 
 1227      20202573 
 1227      0D0A00
 1228 00f3 00       		.space	1
 1229              	.LC13:
 1230 00f4 41647661 		.ascii	"Advanced kernel mode\000"
 1230      6E636564 
 1230      206B6572 
 1230      6E656C20 
 1230      6D6F6465 
 1231 0109 000000   		.space	3
 1232              	.LC14:
 1233 010c 506C6174 		.ascii	"Platform:     %s\015\012\000"
 1233      666F726D 
 1233      3A202020 
 1233      20202573 
 1233      0D0A00
 1234 011f 00       		.space	1
 1235              	.LC15:
 1236 0120 53544D33 		.ascii	"STM32F10x Performance Line Medium Density\000"
 1236      32463130 
 1236      78205065 
 1236      72666F72 
 1236      6D616E63 
 1237 014a 0000     		.space	2
 1238              	.LC16:
 1239 014c 426F6172 		.ascii	"Board:        %s\015\012\000"
 1239      643A2020 
 1239      20202020 
 1239      20202573 
 1239      0D0A00
 1240 015f 00       		.space	1
 1241              	.LC17:
 1242 0160 52325020 		.ascii	"R2P IR module\000"
 1242      4952206D 
 1242      6F64756C 
 1242      6500
 1243 016e 0000     		.space	2
 1244              	.LC18:
ARM GAS  /tmp/ccENSE6T.s 			page 24


 1245 0170 4275696C 		.ascii	"Build time:   %s%s%s\015\012\000"
 1245      64207469 
 1245      6D653A20 
 1245      20202573 
 1245      25732573 
 1246 0187 00       		.space	1
 1247              	.LC19:
 1248 0188 4A756E20 		.ascii	"Jun 27 2013\000"
 1248      32372032 
 1248      30313300 
 1249              	.LC20:
 1250 0194 202D2000 		.ascii	" - \000"
 1251              	.LC21:
 1252 0198 31343A31 		.ascii	"14:16:45\000"
 1252      363A3435 
 1252      00
 1253 01a1 000000   		.space	3
 1254              	.LC22:
 1255 01a4 7368656C 		.ascii	"shell\000"
 1255      6C00
 1256 01aa 0000     		.space	2
 1257              	.LC23:
 1258 01ac 0D0A4368 		.ascii	"\015\012ChibiOS/RT Shell\015\012\000"
 1258      6962694F 
 1258      532F5254 
 1258      20536865 
 1258      6C6C0D0A 
 1259 01c1 000000   		.space	3
 1260              	.LC24:
 1261 01c4 63683E20 		.ascii	"ch> \000"
 1261      00
 1262 01c9 000000   		.space	3
 1263              	.LC25:
 1264 01cc 5E4400   		.ascii	"^D\000"
 1265 01cf 00       		.space	1
 1266              	.LC26:
 1267 01d0 0D0A00   		.ascii	"\015\012\000"
 1268 01d3 00       		.space	1
 1269              	.LC27:
 1270 01d4 200900   		.ascii	" \011\000"
 1271 01d7 00       		.space	1
 1272              	.LC28:
 1273 01d8 0D0A6C6F 		.ascii	"\015\012logout\000"
 1273      676F7574 
 1273      00
 1274 01e1 000000   		.space	3
 1275              	.LC29:
 1276 01e4 746F6F20 		.ascii	"too many arguments\015\012\000"
 1276      6D616E79 
 1276      20617267 
 1276      756D656E 
 1276      74730D0A 
 1277 01f9 000000   		.space	3
 1278              	.LC30:
 1279 01fc 65786974 		.ascii	"exit\000"
 1279      00
 1280 0201 000000   		.space	3
ARM GAS  /tmp/ccENSE6T.s 			page 25


 1281              	.LC31:
 1282 0204 68656C70 		.ascii	"help\000"
 1282      00
 1283 0209 000000   		.space	3
 1284              	.LC32:
 1285 020c 436F6D6D 		.ascii	"Commands: help exit \000"
 1285      616E6473 
 1285      3A206865 
 1285      6C702065 
 1285      78697420 
 1286 0221 000000   		.space	3
 1287              	.LC33:
 1288 0224 25732000 		.ascii	"%s \000"
 1289              	.LC34:
 1290 0228 257300   		.ascii	"%s\000"
 1291 022b 00       		.space	1
 1292              	.LC35:
 1293 022c 203F0D0A 		.ascii	" ?\015\012\000"
 1293      00
 1294 0231 000000   		.section	.bss.shell_terminated,"aw",%nobits
 1295              		.align	2
 1296              		.set	.LANCHOR1,. + 0
 1297              		.type	shell_terminated, %object
 1298              		.size	shell_terminated, 4
 1299              	shell_terminated:
 1300 0000 00000000 		.space	4
 1301              		.text
 1302              	.Letext0:
 1303              		.file 2 "/home/tino/ChibiStudio/tools/GNU Tools ARM Embedded/4.6 2012q2/bin/../lib/gcc/arm-none-ea
 1304              		.file 3 "/home/tino/ChibiStudio/tools/GNU Tools ARM Embedded/4.6 2012q2/bin/../lib/gcc/arm-none-ea
 1305              		.file 4 "../../ChibiOS/os/ports/GCC/ARMCMx/chtypes.h"
 1306              		.file 5 "../../ChibiOS/os/kernel/include/chlists.h"
 1307              		.file 6 "../../ChibiOS/os/kernel/include/chthreads.h"
 1308              		.file 7 "../../ChibiOS/os/ports/GCC/ARMCMx/chcore_v7m.h"
 1309              		.file 8 "../../ChibiOS/os/kernel/include/chvt.h"
 1310              		.file 9 "../../ChibiOS/os/kernel/include/chschd.h"
 1311              		.file 10 "../../ChibiOS/os/kernel/include/chmtx.h"
 1312              		.file 11 "../../ChibiOS/os/kernel/include/chevents.h"
 1313              		.file 12 "../../ChibiOS/os/kernel/include/chstreams.h"
 1314              		.file 13 "../../ChibiOS/os/various/shell.h"
 1315              		.file 14 "../../ChibiOS/os/ports/common/ARMCMx/CMSIS/include/core_cm3.h"
 1316              		.section	.debug_info,"",%progbits
 1317              	.Ldebug_info0:
 1318 0000 140E0000 		.4byte	0xe14
 1319 0004 0200     		.2byte	0x2
 1320 0006 00000000 		.4byte	.Ldebug_abbrev0
 1321 000a 04       		.byte	0x4
 1322 000b 01       		.uleb128 0x1
 1323 000c AD000000 		.4byte	.LASF119
 1324 0010 01       		.byte	0x1
 1325 0011 1A020000 		.4byte	.LASF120
 1326 0015 F6000000 		.4byte	.LASF121
 1327 0019 00000000 		.4byte	0
 1328 001d 00000000 		.4byte	0
 1329 0021 F0010000 		.4byte	.Ldebug_ranges0+0x1f0
 1330 0025 00000000 		.4byte	.Ldebug_line0
 1331 0029 02       		.uleb128 0x2
ARM GAS  /tmp/ccENSE6T.s 			page 26


 1332 002a 01       		.byte	0x1
 1333 002b 06       		.byte	0x6
 1334 002c 6C000000 		.4byte	.LASF0
 1335 0030 02       		.uleb128 0x2
 1336 0031 01       		.byte	0x1
 1337 0032 08       		.byte	0x8
 1338 0033 1B030000 		.4byte	.LASF1
 1339 0037 02       		.uleb128 0x2
 1340 0038 02       		.byte	0x2
 1341 0039 05       		.byte	0x5
 1342 003a 48030000 		.4byte	.LASF2
 1343 003e 02       		.uleb128 0x2
 1344 003f 02       		.byte	0x2
 1345 0040 07       		.byte	0x7
 1346 0041 F9010000 		.4byte	.LASF3
 1347 0045 03       		.uleb128 0x3
 1348 0046 04       		.byte	0x4
 1349 0047 05       		.byte	0x5
 1350 0048 696E7400 		.ascii	"int\000"
 1351 004c 02       		.uleb128 0x2
 1352 004d 04       		.byte	0x4
 1353 004e 07       		.byte	0x7
 1354 004f AA010000 		.4byte	.LASF4
 1355 0053 02       		.uleb128 0x2
 1356 0054 08       		.byte	0x8
 1357 0055 05       		.byte	0x5
 1358 0056 5E000000 		.4byte	.LASF5
 1359 005a 02       		.uleb128 0x2
 1360 005b 08       		.byte	0x8
 1361 005c 07       		.byte	0x7
 1362 005d 21000000 		.4byte	.LASF6
 1363 0061 02       		.uleb128 0x2
 1364 0062 04       		.byte	0x4
 1365 0063 05       		.byte	0x5
 1366 0064 A4000000 		.4byte	.LASF7
 1367 0068 04       		.uleb128 0x4
 1368 0069 04       		.byte	0x4
 1369 006a 02       		.uleb128 0x2
 1370 006b 04       		.byte	0x4
 1371 006c 07       		.byte	0x7
 1372 006d D5030000 		.4byte	.LASF8
 1373 0071 05       		.uleb128 0x5
 1374 0072 04       		.byte	0x4
 1375 0073 77000000 		.4byte	0x77
 1376 0077 02       		.uleb128 0x2
 1377 0078 01       		.byte	0x1
 1378 0079 08       		.byte	0x8
 1379 007a F6030000 		.4byte	.LASF9
 1380 007e 05       		.uleb128 0x5
 1381 007f 04       		.byte	0x4
 1382 0080 84000000 		.4byte	0x84
 1383 0084 06       		.uleb128 0x6
 1384 0085 77000000 		.4byte	0x77
 1385 0089 07       		.uleb128 0x7
 1386 008a 00000000 		.4byte	.LASF10
 1387 008e 02       		.byte	0x2
 1388 008f D4       		.byte	0xd4
ARM GAS  /tmp/ccENSE6T.s 			page 27


 1389 0090 4C000000 		.4byte	0x4c
 1390 0094 07       		.uleb128 0x7
 1391 0095 B1040000 		.4byte	.LASF11
 1392 0099 03       		.byte	0x3
 1393 009a 2A       		.byte	0x2a
 1394 009b 30000000 		.4byte	0x30
 1395 009f 07       		.uleb128 0x7
 1396 00a0 13030000 		.4byte	.LASF12
 1397 00a4 03       		.byte	0x3
 1398 00a5 4F       		.byte	0x4f
 1399 00a6 61000000 		.4byte	0x61
 1400 00aa 07       		.uleb128 0x7
 1401 00ab B9030000 		.4byte	.LASF13
 1402 00af 03       		.byte	0x3
 1403 00b0 50       		.byte	0x50
 1404 00b1 6A000000 		.4byte	0x6a
 1405 00b5 07       		.uleb128 0x7
 1406 00b6 07000000 		.4byte	.LASF14
 1407 00ba 03       		.byte	0x3
 1408 00bb 78       		.byte	0x78
 1409 00bc 5A000000 		.4byte	0x5a
 1410 00c0 07       		.uleb128 0x7
 1411 00c1 80000000 		.4byte	.LASF15
 1412 00c5 04       		.byte	0x4
 1413 00c6 24       		.byte	0x24
 1414 00c7 CB000000 		.4byte	0xcb
 1415 00cb 02       		.uleb128 0x2
 1416 00cc 01       		.byte	0x1
 1417 00cd 02       		.byte	0x2
 1418 00ce 0D030000 		.4byte	.LASF16
 1419 00d2 07       		.uleb128 0x7
 1420 00d3 3B020000 		.4byte	.LASF17
 1421 00d7 04       		.byte	0x4
 1422 00d8 25       		.byte	0x25
 1423 00d9 94000000 		.4byte	0x94
 1424 00dd 07       		.uleb128 0x7
 1425 00de 27010000 		.4byte	.LASF18
 1426 00e2 04       		.byte	0x4
 1427 00e3 26       		.byte	0x26
 1428 00e4 94000000 		.4byte	0x94
 1429 00e8 07       		.uleb128 0x7
 1430 00e9 E6020000 		.4byte	.LASF19
 1431 00ed 04       		.byte	0x4
 1432 00ee 27       		.byte	0x27
 1433 00ef 94000000 		.4byte	0x94
 1434 00f3 07       		.uleb128 0x7
 1435 00f4 9A000000 		.4byte	.LASF20
 1436 00f8 04       		.byte	0x4
 1437 00f9 28       		.byte	0x28
 1438 00fa 94000000 		.4byte	0x94
 1439 00fe 07       		.uleb128 0x7
 1440 00ff FD020000 		.4byte	.LASF21
 1441 0103 04       		.byte	0x4
 1442 0104 29       		.byte	0x29
 1443 0105 AA000000 		.4byte	0xaa
 1444 0109 07       		.uleb128 0x7
 1445 010a 0C020000 		.4byte	.LASF22
ARM GAS  /tmp/ccENSE6T.s 			page 28


 1446 010e 04       		.byte	0x4
 1447 010f 2A       		.byte	0x2a
 1448 0110 9F000000 		.4byte	0x9f
 1449 0114 07       		.uleb128 0x7
 1450 0115 4F020000 		.4byte	.LASF23
 1451 0119 04       		.byte	0x4
 1452 011a 2C       		.byte	0x2c
 1453 011b AA000000 		.4byte	0xaa
 1454 011f 07       		.uleb128 0x7
 1455 0120 83040000 		.4byte	.LASF24
 1456 0124 04       		.byte	0x4
 1457 0125 2D       		.byte	0x2d
 1458 0126 AA000000 		.4byte	0xaa
 1459 012a 07       		.uleb128 0x7
 1460 012b 1D040000 		.4byte	.LASF25
 1461 012f 04       		.byte	0x4
 1462 0130 2E       		.byte	0x2e
 1463 0131 AA000000 		.4byte	0xaa
 1464 0135 07       		.uleb128 0x7
 1465 0136 A7030000 		.4byte	.LASF26
 1466 013a 05       		.byte	0x5
 1467 013b 23       		.byte	0x23
 1468 013c 40010000 		.4byte	0x140
 1469 0140 08       		.uleb128 0x8
 1470 0141 A7030000 		.4byte	.LASF26
 1471 0145 4C       		.byte	0x4c
 1472 0146 06       		.byte	0x6
 1473 0147 57       		.byte	0x57
 1474 0148 73020000 		.4byte	0x273
 1475 014c 09       		.uleb128 0x9
 1476 014d 7A030000 		.4byte	.LASF27
 1477 0151 06       		.byte	0x6
 1478 0152 58       		.byte	0x58
 1479 0153 98020000 		.4byte	0x298
 1480 0157 02       		.byte	0x2
 1481 0158 23       		.byte	0x23
 1482 0159 00       		.uleb128 0
 1483 015a 09       		.uleb128 0x9
 1484 015b F6020000 		.4byte	.LASF28
 1485 015f 06       		.byte	0x6
 1486 0160 5A       		.byte	0x5a
 1487 0161 98020000 		.4byte	0x298
 1488 0165 02       		.byte	0x2
 1489 0166 23       		.byte	0x23
 1490 0167 04       		.uleb128 0x4
 1491 0168 09       		.uleb128 0x9
 1492 0169 57000000 		.4byte	.LASF29
 1493 016d 06       		.byte	0x6
 1494 016e 5C       		.byte	0x5c
 1495 016f FE000000 		.4byte	0xfe
 1496 0173 02       		.byte	0x2
 1497 0174 23       		.byte	0x23
 1498 0175 08       		.uleb128 0x8
 1499 0176 09       		.uleb128 0x9
 1500 0177 0C050000 		.4byte	.LASF30
 1501 017b 06       		.byte	0x6
 1502 017c 5D       		.byte	0x5d
ARM GAS  /tmp/ccENSE6T.s 			page 29


 1503 017d 6F030000 		.4byte	0x36f
 1504 0181 02       		.byte	0x2
 1505 0182 23       		.byte	0x23
 1506 0183 0C       		.uleb128 0xc
 1507 0184 09       		.uleb128 0x9
 1508 0185 43010000 		.4byte	.LASF31
 1509 0189 06       		.byte	0x6
 1510 018a 5F       		.byte	0x5f
 1511 018b 98020000 		.4byte	0x298
 1512 018f 02       		.byte	0x2
 1513 0190 23       		.byte	0x23
 1514 0191 10       		.uleb128 0x10
 1515 0192 09       		.uleb128 0x9
 1516 0193 97020000 		.4byte	.LASF32
 1517 0197 06       		.byte	0x6
 1518 0198 60       		.byte	0x60
 1519 0199 98020000 		.4byte	0x298
 1520 019d 02       		.byte	0x2
 1521 019e 23       		.byte	0x23
 1522 019f 14       		.uleb128 0x14
 1523 01a0 09       		.uleb128 0x9
 1524 01a1 47040000 		.4byte	.LASF33
 1525 01a5 06       		.byte	0x6
 1526 01a6 67       		.byte	0x67
 1527 01a7 7E000000 		.4byte	0x7e
 1528 01ab 02       		.byte	0x2
 1529 01ac 23       		.byte	0x23
 1530 01ad 18       		.uleb128 0x18
 1531 01ae 09       		.uleb128 0x9
 1532 01af 9F010000 		.4byte	.LASF34
 1533 01b3 06       		.byte	0x6
 1534 01b4 6D       		.byte	0x6d
 1535 01b5 C5050000 		.4byte	0x5c5
 1536 01b9 02       		.byte	0x2
 1537 01ba 23       		.byte	0x23
 1538 01bb 1C       		.uleb128 0x1c
 1539 01bc 09       		.uleb128 0x9
 1540 01bd 52030000 		.4byte	.LASF35
 1541 01c1 06       		.byte	0x6
 1542 01c2 72       		.byte	0x72
 1543 01c3 DD000000 		.4byte	0xdd
 1544 01c7 02       		.byte	0x2
 1545 01c8 23       		.byte	0x23
 1546 01c9 20       		.uleb128 0x20
 1547 01ca 09       		.uleb128 0x9
 1548 01cb 9F030000 		.4byte	.LASF36
 1549 01cf 06       		.byte	0x6
 1550 01d0 76       		.byte	0x76
 1551 01d1 D2000000 		.4byte	0xd2
 1552 01d5 02       		.byte	0x2
 1553 01d6 23       		.byte	0x23
 1554 01d7 21       		.uleb128 0x21
 1555 01d8 09       		.uleb128 0x9
 1556 01d9 30010000 		.4byte	.LASF37
 1557 01dd 06       		.byte	0x6
 1558 01de 7B       		.byte	0x7b
 1559 01df E8000000 		.4byte	0xe8
ARM GAS  /tmp/ccENSE6T.s 			page 30


 1560 01e3 02       		.byte	0x2
 1561 01e4 23       		.byte	0x23
 1562 01e5 22       		.uleb128 0x22
 1563 01e6 09       		.uleb128 0x9
 1564 01e7 5A030000 		.4byte	.LASF38
 1565 01eb 06       		.byte	0x6
 1566 01ec 81       		.byte	0x81
 1567 01ed F3000000 		.4byte	0xf3
 1568 01f1 02       		.byte	0x2
 1569 01f2 23       		.byte	0x23
 1570 01f3 23       		.uleb128 0x23
 1571 01f4 09       		.uleb128 0x9
 1572 01f5 37010000 		.4byte	.LASF39
 1573 01f9 06       		.byte	0x6
 1574 01fa 88       		.byte	0x88
 1575 01fb 54040000 		.4byte	0x454
 1576 01ff 02       		.byte	0x2
 1577 0200 23       		.byte	0x23
 1578 0201 24       		.uleb128 0x24
 1579 0202 0A       		.uleb128 0xa
 1580 0203 705F7500 		.ascii	"p_u\000"
 1581 0207 06       		.byte	0x6
 1582 0208 AD       		.byte	0xad
 1583 0209 90050000 		.4byte	0x590
 1584 020d 02       		.byte	0x2
 1585 020e 23       		.byte	0x23
 1586 020f 28       		.uleb128 0x28
 1587 0210 09       		.uleb128 0x9
 1588 0211 74020000 		.4byte	.LASF40
 1589 0215 06       		.byte	0x6
 1590 0216 B2       		.byte	0xb2
 1591 0217 C0020000 		.4byte	0x2c0
 1592 021b 02       		.byte	0x2
 1593 021c 23       		.byte	0x23
 1594 021d 2C       		.uleb128 0x2c
 1595 021e 09       		.uleb128 0x9
 1596 021f CB010000 		.4byte	.LASF41
 1597 0223 06       		.byte	0x6
 1598 0224 B8       		.byte	0xb8
 1599 0225 9E020000 		.4byte	0x29e
 1600 0229 02       		.byte	0x2
 1601 022a 23       		.byte	0x23
 1602 022b 30       		.uleb128 0x30
 1603 022c 09       		.uleb128 0x9
 1604 022d ED040000 		.4byte	.LASF42
 1605 0231 06       		.byte	0x6
 1606 0232 BC       		.byte	0xbc
 1607 0233 09010000 		.4byte	0x109
 1608 0237 02       		.byte	0x2
 1609 0238 23       		.byte	0x23
 1610 0239 38       		.uleb128 0x38
 1611 023a 09       		.uleb128 0x9
 1612 023b AE030000 		.4byte	.LASF43
 1613 023f 06       		.byte	0x6
 1614 0240 C2       		.byte	0xc2
 1615 0241 14010000 		.4byte	0x114
 1616 0245 02       		.byte	0x2
ARM GAS  /tmp/ccENSE6T.s 			page 31


 1617 0246 23       		.byte	0x23
 1618 0247 3C       		.uleb128 0x3c
 1619 0248 09       		.uleb128 0x9
 1620 0249 3E030000 		.4byte	.LASF44
 1621 024d 06       		.byte	0x6
 1622 024e C9       		.byte	0xc9
 1623 024f CB050000 		.4byte	0x5cb
 1624 0253 02       		.byte	0x2
 1625 0254 23       		.byte	0x23
 1626 0255 40       		.uleb128 0x40
 1627 0256 09       		.uleb128 0x9
 1628 0257 27040000 		.4byte	.LASF45
 1629 025b 06       		.byte	0x6
 1630 025c CD       		.byte	0xcd
 1631 025d FE000000 		.4byte	0xfe
 1632 0261 02       		.byte	0x2
 1633 0262 23       		.byte	0x23
 1634 0263 44       		.uleb128 0x44
 1635 0264 09       		.uleb128 0x9
 1636 0265 78000000 		.4byte	.LASF46
 1637 0269 06       		.byte	0x6
 1638 026a D3       		.byte	0xd3
 1639 026b 68000000 		.4byte	0x68
 1640 026f 02       		.byte	0x2
 1641 0270 23       		.byte	0x23
 1642 0271 48       		.uleb128 0x48
 1643 0272 00       		.byte	0
 1644 0273 0B       		.uleb128 0xb
 1645 0274 08       		.byte	0x8
 1646 0275 05       		.byte	0x5
 1647 0276 5A       		.byte	0x5a
 1648 0277 98020000 		.4byte	0x298
 1649 027b 09       		.uleb128 0x9
 1650 027c 7A030000 		.4byte	.LASF27
 1651 0280 05       		.byte	0x5
 1652 0281 5B       		.byte	0x5b
 1653 0282 98020000 		.4byte	0x298
 1654 0286 02       		.byte	0x2
 1655 0287 23       		.byte	0x23
 1656 0288 00       		.uleb128 0
 1657 0289 09       		.uleb128 0x9
 1658 028a F6020000 		.4byte	.LASF28
 1659 028e 05       		.byte	0x5
 1660 028f 5D       		.byte	0x5d
 1661 0290 98020000 		.4byte	0x298
 1662 0294 02       		.byte	0x2
 1663 0295 23       		.byte	0x23
 1664 0296 04       		.uleb128 0x4
 1665 0297 00       		.byte	0
 1666 0298 05       		.uleb128 0x5
 1667 0299 04       		.byte	0x4
 1668 029a 35010000 		.4byte	0x135
 1669 029e 07       		.uleb128 0x7
 1670 029f B7020000 		.4byte	.LASF47
 1671 02a3 05       		.byte	0x5
 1672 02a4 5F       		.byte	0x5f
 1673 02a5 73020000 		.4byte	0x273
ARM GAS  /tmp/ccENSE6T.s 			page 32


 1674 02a9 0B       		.uleb128 0xb
 1675 02aa 04       		.byte	0x4
 1676 02ab 05       		.byte	0x5
 1677 02ac 64       		.byte	0x64
 1678 02ad C0020000 		.4byte	0x2c0
 1679 02b1 09       		.uleb128 0x9
 1680 02b2 7A030000 		.4byte	.LASF27
 1681 02b6 05       		.byte	0x5
 1682 02b7 66       		.byte	0x66
 1683 02b8 98020000 		.4byte	0x298
 1684 02bc 02       		.byte	0x2
 1685 02bd 23       		.byte	0x23
 1686 02be 00       		.uleb128 0
 1687 02bf 00       		.byte	0
 1688 02c0 07       		.uleb128 0x7
 1689 02c1 43020000 		.4byte	.LASF48
 1690 02c5 05       		.byte	0x5
 1691 02c6 69       		.byte	0x69
 1692 02c7 A9020000 		.4byte	0x2a9
 1693 02cb 07       		.uleb128 0x7
 1694 02cc 58010000 		.4byte	.LASF49
 1695 02d0 07       		.byte	0x7
 1696 02d1 DE       		.byte	0xde
 1697 02d2 68000000 		.4byte	0x68
 1698 02d6 07       		.uleb128 0x7
 1699 02d7 5B020000 		.4byte	.LASF50
 1700 02db 07       		.byte	0x7
 1701 02dc E4       		.byte	0xe4
 1702 02dd B5000000 		.4byte	0xb5
 1703 02e1 0C       		.uleb128 0xc
 1704 02e2 62040000 		.4byte	.LASF51
 1705 02e6 24       		.byte	0x24
 1706 02e7 07       		.byte	0x7
 1707 02e8 0501     		.2byte	0x105
 1708 02ea 6F030000 		.4byte	0x36f
 1709 02ee 0D       		.uleb128 0xd
 1710 02ef 723400   		.ascii	"r4\000"
 1711 02f2 07       		.byte	0x7
 1712 02f3 1801     		.2byte	0x118
 1713 02f5 CB020000 		.4byte	0x2cb
 1714 02f9 02       		.byte	0x2
 1715 02fa 23       		.byte	0x23
 1716 02fb 00       		.uleb128 0
 1717 02fc 0D       		.uleb128 0xd
 1718 02fd 723500   		.ascii	"r5\000"
 1719 0300 07       		.byte	0x7
 1720 0301 1901     		.2byte	0x119
 1721 0303 CB020000 		.4byte	0x2cb
 1722 0307 02       		.byte	0x2
 1723 0308 23       		.byte	0x23
 1724 0309 04       		.uleb128 0x4
 1725 030a 0D       		.uleb128 0xd
 1726 030b 723600   		.ascii	"r6\000"
 1727 030e 07       		.byte	0x7
 1728 030f 1A01     		.2byte	0x11a
 1729 0311 CB020000 		.4byte	0x2cb
 1730 0315 02       		.byte	0x2
ARM GAS  /tmp/ccENSE6T.s 			page 33


 1731 0316 23       		.byte	0x23
 1732 0317 08       		.uleb128 0x8
 1733 0318 0D       		.uleb128 0xd
 1734 0319 723700   		.ascii	"r7\000"
 1735 031c 07       		.byte	0x7
 1736 031d 1B01     		.2byte	0x11b
 1737 031f CB020000 		.4byte	0x2cb
 1738 0323 02       		.byte	0x2
 1739 0324 23       		.byte	0x23
 1740 0325 0C       		.uleb128 0xc
 1741 0326 0D       		.uleb128 0xd
 1742 0327 723800   		.ascii	"r8\000"
 1743 032a 07       		.byte	0x7
 1744 032b 1C01     		.2byte	0x11c
 1745 032d CB020000 		.4byte	0x2cb
 1746 0331 02       		.byte	0x2
 1747 0332 23       		.byte	0x23
 1748 0333 10       		.uleb128 0x10
 1749 0334 0D       		.uleb128 0xd
 1750 0335 723900   		.ascii	"r9\000"
 1751 0338 07       		.byte	0x7
 1752 0339 1D01     		.2byte	0x11d
 1753 033b CB020000 		.4byte	0x2cb
 1754 033f 02       		.byte	0x2
 1755 0340 23       		.byte	0x23
 1756 0341 14       		.uleb128 0x14
 1757 0342 0D       		.uleb128 0xd
 1758 0343 72313000 		.ascii	"r10\000"
 1759 0347 07       		.byte	0x7
 1760 0348 1E01     		.2byte	0x11e
 1761 034a CB020000 		.4byte	0x2cb
 1762 034e 02       		.byte	0x2
 1763 034f 23       		.byte	0x23
 1764 0350 18       		.uleb128 0x18
 1765 0351 0D       		.uleb128 0xd
 1766 0352 72313100 		.ascii	"r11\000"
 1767 0356 07       		.byte	0x7
 1768 0357 1F01     		.2byte	0x11f
 1769 0359 CB020000 		.4byte	0x2cb
 1770 035d 02       		.byte	0x2
 1771 035e 23       		.byte	0x23
 1772 035f 1C       		.uleb128 0x1c
 1773 0360 0D       		.uleb128 0xd
 1774 0361 6C7200   		.ascii	"lr\000"
 1775 0364 07       		.byte	0x7
 1776 0365 2001     		.2byte	0x120
 1777 0367 CB020000 		.4byte	0x2cb
 1778 036b 02       		.byte	0x2
 1779 036c 23       		.byte	0x23
 1780 036d 20       		.uleb128 0x20
 1781 036e 00       		.byte	0
 1782 036f 0C       		.uleb128 0xc
 1783 0370 4E040000 		.4byte	.LASF52
 1784 0374 04       		.byte	0x4
 1785 0375 07       		.byte	0x7
 1786 0376 2A01     		.2byte	0x12a
 1787 0378 8C030000 		.4byte	0x38c
ARM GAS  /tmp/ccENSE6T.s 			page 34


 1788 037c 0D       		.uleb128 0xd
 1789 037d 72313300 		.ascii	"r13\000"
 1790 0381 07       		.byte	0x7
 1791 0382 2B01     		.2byte	0x12b
 1792 0384 8C030000 		.4byte	0x38c
 1793 0388 02       		.byte	0x2
 1794 0389 23       		.byte	0x23
 1795 038a 00       		.uleb128 0
 1796 038b 00       		.byte	0
 1797 038c 05       		.uleb128 0x5
 1798 038d 04       		.byte	0x4
 1799 038e E1020000 		.4byte	0x2e1
 1800 0392 07       		.uleb128 0x7
 1801 0393 32040000 		.4byte	.LASF53
 1802 0397 08       		.byte	0x8
 1803 0398 4E       		.byte	0x4e
 1804 0399 9D030000 		.4byte	0x39d
 1805 039d 05       		.uleb128 0x5
 1806 039e 04       		.byte	0x4
 1807 039f A3030000 		.4byte	0x3a3
 1808 03a3 0E       		.uleb128 0xe
 1809 03a4 01       		.byte	0x1
 1810 03a5 AF030000 		.4byte	0x3af
 1811 03a9 0F       		.uleb128 0xf
 1812 03aa 68000000 		.4byte	0x68
 1813 03ae 00       		.byte	0
 1814 03af 07       		.uleb128 0x7
 1815 03b0 DB010000 		.4byte	.LASF54
 1816 03b4 08       		.byte	0x8
 1817 03b5 53       		.byte	0x53
 1818 03b6 BA030000 		.4byte	0x3ba
 1819 03ba 08       		.uleb128 0x8
 1820 03bb DB010000 		.4byte	.LASF54
 1821 03bf 14       		.byte	0x14
 1822 03c0 08       		.byte	0x8
 1823 03c1 5A       		.byte	0x5a
 1824 03c2 0D040000 		.4byte	0x40d
 1825 03c6 09       		.uleb128 0x9
 1826 03c7 B7010000 		.4byte	.LASF55
 1827 03cb 08       		.byte	0x8
 1828 03cc 5B       		.byte	0x5b
 1829 03cd 0D040000 		.4byte	0x40d
 1830 03d1 02       		.byte	0x2
 1831 03d2 23       		.byte	0x23
 1832 03d3 00       		.uleb128 0
 1833 03d4 09       		.uleb128 0x9
 1834 03d5 61010000 		.4byte	.LASF56
 1835 03d9 08       		.byte	0x8
 1836 03da 5D       		.byte	0x5d
 1837 03db 0D040000 		.4byte	0x40d
 1838 03df 02       		.byte	0x2
 1839 03e0 23       		.byte	0x23
 1840 03e1 04       		.uleb128 0x4
 1841 03e2 09       		.uleb128 0x9
 1842 03e3 6C020000 		.4byte	.LASF57
 1843 03e7 08       		.byte	0x8
 1844 03e8 5F       		.byte	0x5f
ARM GAS  /tmp/ccENSE6T.s 			page 35


 1845 03e9 2A010000 		.4byte	0x12a
 1846 03ed 02       		.byte	0x2
 1847 03ee 23       		.byte	0x23
 1848 03ef 08       		.uleb128 0x8
 1849 03f0 09       		.uleb128 0x9
 1850 03f1 12050000 		.4byte	.LASF58
 1851 03f5 08       		.byte	0x8
 1852 03f6 60       		.byte	0x60
 1853 03f7 92030000 		.4byte	0x392
 1854 03fb 02       		.byte	0x2
 1855 03fc 23       		.byte	0x23
 1856 03fd 0C       		.uleb128 0xc
 1857 03fe 09       		.uleb128 0x9
 1858 03ff 7C040000 		.4byte	.LASF59
 1859 0403 08       		.byte	0x8
 1860 0404 62       		.byte	0x62
 1861 0405 68000000 		.4byte	0x68
 1862 0409 02       		.byte	0x2
 1863 040a 23       		.byte	0x23
 1864 040b 10       		.uleb128 0x10
 1865 040c 00       		.byte	0
 1866 040d 05       		.uleb128 0x5
 1867 040e 04       		.byte	0x4
 1868 040f AF030000 		.4byte	0x3af
 1869 0413 0B       		.uleb128 0xb
 1870 0414 10       		.byte	0x10
 1871 0415 08       		.byte	0x8
 1872 0416 6C       		.byte	0x6c
 1873 0417 54040000 		.4byte	0x454
 1874 041b 09       		.uleb128 0x9
 1875 041c B7010000 		.4byte	.LASF55
 1876 0420 08       		.byte	0x8
 1877 0421 6D       		.byte	0x6d
 1878 0422 0D040000 		.4byte	0x40d
 1879 0426 02       		.byte	0x2
 1880 0427 23       		.byte	0x23
 1881 0428 00       		.uleb128 0
 1882 0429 09       		.uleb128 0x9
 1883 042a 61010000 		.4byte	.LASF56
 1884 042e 08       		.byte	0x8
 1885 042f 6F       		.byte	0x6f
 1886 0430 0D040000 		.4byte	0x40d
 1887 0434 02       		.byte	0x2
 1888 0435 23       		.byte	0x23
 1889 0436 04       		.uleb128 0x4
 1890 0437 09       		.uleb128 0x9
 1891 0438 6C020000 		.4byte	.LASF57
 1892 043c 08       		.byte	0x8
 1893 043d 71       		.byte	0x71
 1894 043e 2A010000 		.4byte	0x12a
 1895 0442 02       		.byte	0x2
 1896 0443 23       		.byte	0x23
 1897 0444 08       		.uleb128 0x8
 1898 0445 09       		.uleb128 0x9
 1899 0446 CA030000 		.4byte	.LASF60
 1900 044a 08       		.byte	0x8
 1901 044b 72       		.byte	0x72
ARM GAS  /tmp/ccENSE6T.s 			page 36


 1902 044c 54040000 		.4byte	0x454
 1903 0450 02       		.byte	0x2
 1904 0451 23       		.byte	0x23
 1905 0452 0C       		.uleb128 0xc
 1906 0453 00       		.byte	0
 1907 0454 10       		.uleb128 0x10
 1908 0455 2A010000 		.4byte	0x12a
 1909 0459 07       		.uleb128 0x7
 1910 045a F3040000 		.4byte	.LASF61
 1911 045e 08       		.byte	0x8
 1912 045f 73       		.byte	0x73
 1913 0460 13040000 		.4byte	0x413
 1914 0464 0B       		.uleb128 0xb
 1915 0465 1C       		.byte	0x1c
 1916 0466 09       		.byte	0x9
 1917 0467 57       		.byte	0x57
 1918 0468 C1040000 		.4byte	0x4c1
 1919 046c 09       		.uleb128 0x9
 1920 046d C2030000 		.4byte	.LASF62
 1921 0471 09       		.byte	0x9
 1922 0472 58       		.byte	0x58
 1923 0473 9E020000 		.4byte	0x29e
 1924 0477 02       		.byte	0x2
 1925 0478 23       		.byte	0x23
 1926 0479 00       		.uleb128 0
 1927 047a 09       		.uleb128 0x9
 1928 047b 6C030000 		.4byte	.LASF63
 1929 047f 09       		.byte	0x9
 1930 0480 59       		.byte	0x59
 1931 0481 FE000000 		.4byte	0xfe
 1932 0485 02       		.byte	0x2
 1933 0486 23       		.byte	0x23
 1934 0487 08       		.uleb128 0x8
 1935 0488 09       		.uleb128 0x9
 1936 0489 9F020000 		.4byte	.LASF64
 1937 048d 09       		.byte	0x9
 1938 048e 5B       		.byte	0x5b
 1939 048f 6F030000 		.4byte	0x36f
 1940 0493 02       		.byte	0x2
 1941 0494 23       		.byte	0x23
 1942 0495 0C       		.uleb128 0xc
 1943 0496 09       		.uleb128 0x9
 1944 0497 50010000 		.4byte	.LASF65
 1945 049b 09       		.byte	0x9
 1946 049c 5E       		.byte	0x5e
 1947 049d 98020000 		.4byte	0x298
 1948 04a1 02       		.byte	0x2
 1949 04a2 23       		.byte	0x23
 1950 04a3 10       		.uleb128 0x10
 1951 04a4 09       		.uleb128 0x9
 1952 04a5 D8020000 		.4byte	.LASF66
 1953 04a9 09       		.byte	0x9
 1954 04aa 5F       		.byte	0x5f
 1955 04ab 98020000 		.4byte	0x298
 1956 04af 02       		.byte	0x2
 1957 04b0 23       		.byte	0x23
 1958 04b1 14       		.uleb128 0x14
ARM GAS  /tmp/ccENSE6T.s 			page 37


 1959 04b2 09       		.uleb128 0x9
 1960 04b3 E7030000 		.4byte	.LASF67
 1961 04b7 09       		.byte	0x9
 1962 04b8 62       		.byte	0x62
 1963 04b9 98020000 		.4byte	0x298
 1964 04bd 02       		.byte	0x2
 1965 04be 23       		.byte	0x23
 1966 04bf 18       		.uleb128 0x18
 1967 04c0 00       		.byte	0
 1968 04c1 07       		.uleb128 0x7
 1969 04c2 17000000 		.4byte	.LASF68
 1970 04c6 09       		.byte	0x9
 1971 04c7 64       		.byte	0x64
 1972 04c8 64040000 		.4byte	0x464
 1973 04cc 08       		.uleb128 0x8
 1974 04cd 7E020000 		.4byte	.LASF69
 1975 04d1 10       		.byte	0x10
 1976 04d2 0A       		.byte	0xa
 1977 04d3 25       		.byte	0x25
 1978 04d4 03050000 		.4byte	0x503
 1979 04d8 09       		.uleb128 0x9
 1980 04d9 87000000 		.4byte	.LASF70
 1981 04dd 0A       		.byte	0xa
 1982 04de 26       		.byte	0x26
 1983 04df 9E020000 		.4byte	0x29e
 1984 04e3 02       		.byte	0x2
 1985 04e4 23       		.byte	0x23
 1986 04e5 00       		.uleb128 0
 1987 04e6 09       		.uleb128 0x9
 1988 04e7 04050000 		.4byte	.LASF71
 1989 04eb 0A       		.byte	0xa
 1990 04ec 28       		.byte	0x28
 1991 04ed 98020000 		.4byte	0x298
 1992 04f1 02       		.byte	0x2
 1993 04f2 23       		.byte	0x23
 1994 04f3 08       		.uleb128 0x8
 1995 04f4 09       		.uleb128 0x9
 1996 04f5 16040000 		.4byte	.LASF72
 1997 04f9 0A       		.byte	0xa
 1998 04fa 2A       		.byte	0x2a
 1999 04fb 03050000 		.4byte	0x503
 2000 04ff 02       		.byte	0x2
 2001 0500 23       		.byte	0x23
 2002 0501 0C       		.uleb128 0xc
 2003 0502 00       		.byte	0
 2004 0503 05       		.uleb128 0x5
 2005 0504 04       		.byte	0x4
 2006 0505 CC040000 		.4byte	0x4cc
 2007 0509 07       		.uleb128 0x7
 2008 050a 7E020000 		.4byte	.LASF69
 2009 050e 0A       		.byte	0xa
 2010 050f 2C       		.byte	0x2c
 2011 0510 CC040000 		.4byte	0x4cc
 2012 0514 07       		.uleb128 0x7
 2013 0515 C5040000 		.4byte	.LASF73
 2014 0519 0B       		.byte	0xb
 2015 051a 25       		.byte	0x25
ARM GAS  /tmp/ccENSE6T.s 			page 38


 2016 051b 1F050000 		.4byte	0x51f
 2017 051f 08       		.uleb128 0x8
 2018 0520 C5040000 		.4byte	.LASF73
 2019 0524 10       		.byte	0x10
 2020 0525 0B       		.byte	0xb
 2021 0526 2A       		.byte	0x2a
 2022 0527 64050000 		.4byte	0x564
 2023 052b 09       		.uleb128 0x9
 2024 052c 12020000 		.4byte	.LASF74
 2025 0530 0B       		.byte	0xb
 2026 0531 2B       		.byte	0x2b
 2027 0532 64050000 		.4byte	0x564
 2028 0536 02       		.byte	0x2
 2029 0537 23       		.byte	0x23
 2030 0538 00       		.uleb128 0
 2031 0539 09       		.uleb128 0x9
 2032 053a 29030000 		.4byte	.LASF75
 2033 053e 0B       		.byte	0xb
 2034 053f 2E       		.byte	0x2e
 2035 0540 98020000 		.4byte	0x298
 2036 0544 02       		.byte	0x2
 2037 0545 23       		.byte	0x23
 2038 0546 04       		.uleb128 0x4
 2039 0547 09       		.uleb128 0x9
 2040 0548 8F020000 		.4byte	.LASF76
 2041 054c 0B       		.byte	0xb
 2042 054d 30       		.byte	0x30
 2043 054e 14010000 		.4byte	0x114
 2044 0552 02       		.byte	0x2
 2045 0553 23       		.byte	0x23
 2046 0554 08       		.uleb128 0x8
 2047 0555 09       		.uleb128 0x9
 2048 0556 35030000 		.4byte	.LASF77
 2049 055a 0B       		.byte	0xb
 2050 055b 33       		.byte	0x33
 2051 055c 1F010000 		.4byte	0x11f
 2052 0560 02       		.byte	0x2
 2053 0561 23       		.byte	0x23
 2054 0562 0C       		.uleb128 0xc
 2055 0563 00       		.byte	0
 2056 0564 05       		.uleb128 0x5
 2057 0565 04       		.byte	0x4
 2058 0566 14050000 		.4byte	0x514
 2059 056a 08       		.uleb128 0x8
 2060 056b 7E010000 		.4byte	.LASF78
 2061 056f 04       		.byte	0x4
 2062 0570 0B       		.byte	0xb
 2063 0571 3A       		.byte	0x3a
 2064 0572 85050000 		.4byte	0x585
 2065 0576 09       		.uleb128 0x9
 2066 0577 96040000 		.4byte	.LASF79
 2067 057b 0B       		.byte	0xb
 2068 057c 3B       		.byte	0x3b
 2069 057d 64050000 		.4byte	0x564
 2070 0581 02       		.byte	0x2
 2071 0582 23       		.byte	0x23
 2072 0583 00       		.uleb128 0
ARM GAS  /tmp/ccENSE6T.s 			page 39


 2073 0584 00       		.byte	0
 2074 0585 07       		.uleb128 0x7
 2075 0586 7E010000 		.4byte	.LASF78
 2076 058a 0B       		.byte	0xb
 2077 058b 3E       		.byte	0x3e
 2078 058c 6A050000 		.4byte	0x56a
 2079 0590 11       		.uleb128 0x11
 2080 0591 04       		.byte	0x4
 2081 0592 06       		.byte	0x6
 2082 0593 8F       		.byte	0x8f
 2083 0594 C5050000 		.4byte	0x5c5
 2084 0598 12       		.uleb128 0x12
 2085 0599 8F040000 		.4byte	.LASF80
 2086 059d 06       		.byte	0x6
 2087 059e 96       		.byte	0x96
 2088 059f 09010000 		.4byte	0x109
 2089 05a3 12       		.uleb128 0x12
 2090 05a4 38000000 		.4byte	.LASF81
 2091 05a8 06       		.byte	0x6
 2092 05a9 9D       		.byte	0x9d
 2093 05aa 09010000 		.4byte	0x109
 2094 05ae 12       		.uleb128 0x12
 2095 05af D3040000 		.4byte	.LASF82
 2096 05b3 06       		.byte	0x6
 2097 05b4 A4       		.byte	0xa4
 2098 05b5 68000000 		.4byte	0x68
 2099 05b9 12       		.uleb128 0x12
 2100 05ba 73030000 		.4byte	.LASF83
 2101 05be 06       		.byte	0x6
 2102 05bf AB       		.byte	0xab
 2103 05c0 14010000 		.4byte	0x114
 2104 05c4 00       		.byte	0
 2105 05c5 05       		.uleb128 0x5
 2106 05c6 04       		.byte	0x4
 2107 05c7 D6020000 		.4byte	0x2d6
 2108 05cb 05       		.uleb128 0x5
 2109 05cc 04       		.byte	0x4
 2110 05cd 09050000 		.4byte	0x509
 2111 05d1 05       		.uleb128 0x5
 2112 05d2 04       		.byte	0x4
 2113 05d3 D7050000 		.4byte	0x5d7
 2114 05d7 13       		.uleb128 0x13
 2115 05d8 01       		.byte	0x1
 2116 05d9 09010000 		.4byte	0x109
 2117 05dd E7050000 		.4byte	0x5e7
 2118 05e1 0F       		.uleb128 0xf
 2119 05e2 68000000 		.4byte	0x68
 2120 05e6 00       		.byte	0
 2121 05e7 05       		.uleb128 0x5
 2122 05e8 04       		.byte	0x4
 2123 05e9 94000000 		.4byte	0x94
 2124 05ed 08       		.uleb128 0x8
 2125 05ee 87030000 		.4byte	.LASF84
 2126 05f2 10       		.byte	0x10
 2127 05f3 0C       		.byte	0xc
 2128 05f4 41       		.byte	0x41
 2129 05f5 32060000 		.4byte	0x632
ARM GAS  /tmp/ccENSE6T.s 			page 40


 2130 05f9 09       		.uleb128 0x9
 2131 05fa 66020000 		.4byte	.LASF85
 2132 05fe 0C       		.byte	0xc
 2133 05ff 42       		.byte	0x42
 2134 0600 57060000 		.4byte	0x657
 2135 0604 02       		.byte	0x2
 2136 0605 23       		.byte	0x23
 2137 0606 00       		.uleb128 0
 2138 0607 09       		.uleb128 0x9
 2139 0608 F1030000 		.4byte	.LASF86
 2140 060c 0C       		.byte	0xc
 2141 060d 42       		.byte	0x42
 2142 060e 77060000 		.4byte	0x677
 2143 0612 02       		.byte	0x2
 2144 0613 23       		.byte	0x23
 2145 0614 04       		.uleb128 0x4
 2146 0615 0A       		.uleb128 0xa
 2147 0616 70757400 		.ascii	"put\000"
 2148 061a 0C       		.byte	0xc
 2149 061b 42       		.byte	0x42
 2150 061c 92060000 		.4byte	0x692
 2151 0620 02       		.byte	0x2
 2152 0621 23       		.byte	0x23
 2153 0622 08       		.uleb128 0x8
 2154 0623 0A       		.uleb128 0xa
 2155 0624 67657400 		.ascii	"get\000"
 2156 0628 0C       		.byte	0xc
 2157 0629 42       		.byte	0x42
 2158 062a D1050000 		.4byte	0x5d1
 2159 062e 02       		.byte	0x2
 2160 062f 23       		.byte	0x23
 2161 0630 0C       		.uleb128 0xc
 2162 0631 00       		.byte	0
 2163 0632 13       		.uleb128 0x13
 2164 0633 01       		.byte	0x1
 2165 0634 89000000 		.4byte	0x89
 2166 0638 4C060000 		.4byte	0x64c
 2167 063c 0F       		.uleb128 0xf
 2168 063d 68000000 		.4byte	0x68
 2169 0641 0F       		.uleb128 0xf
 2170 0642 4C060000 		.4byte	0x64c
 2171 0646 0F       		.uleb128 0xf
 2172 0647 89000000 		.4byte	0x89
 2173 064b 00       		.byte	0
 2174 064c 05       		.uleb128 0x5
 2175 064d 04       		.byte	0x4
 2176 064e 52060000 		.4byte	0x652
 2177 0652 06       		.uleb128 0x6
 2178 0653 94000000 		.4byte	0x94
 2179 0657 05       		.uleb128 0x5
 2180 0658 04       		.byte	0x4
 2181 0659 32060000 		.4byte	0x632
 2182 065d 13       		.uleb128 0x13
 2183 065e 01       		.byte	0x1
 2184 065f 89000000 		.4byte	0x89
 2185 0663 77060000 		.4byte	0x677
 2186 0667 0F       		.uleb128 0xf
ARM GAS  /tmp/ccENSE6T.s 			page 41


 2187 0668 68000000 		.4byte	0x68
 2188 066c 0F       		.uleb128 0xf
 2189 066d E7050000 		.4byte	0x5e7
 2190 0671 0F       		.uleb128 0xf
 2191 0672 89000000 		.4byte	0x89
 2192 0676 00       		.byte	0
 2193 0677 05       		.uleb128 0x5
 2194 0678 04       		.byte	0x4
 2195 0679 5D060000 		.4byte	0x65d
 2196 067d 13       		.uleb128 0x13
 2197 067e 01       		.byte	0x1
 2198 067f 09010000 		.4byte	0x109
 2199 0683 92060000 		.4byte	0x692
 2200 0687 0F       		.uleb128 0xf
 2201 0688 68000000 		.4byte	0x68
 2202 068c 0F       		.uleb128 0xf
 2203 068d 94000000 		.4byte	0x94
 2204 0691 00       		.byte	0
 2205 0692 05       		.uleb128 0x5
 2206 0693 04       		.byte	0x4
 2207 0694 7D060000 		.4byte	0x67d
 2208 0698 0B       		.uleb128 0xb
 2209 0699 04       		.byte	0x4
 2210 069a 0C       		.byte	0xc
 2211 069b 4A       		.byte	0x4a
 2212 069c AF060000 		.4byte	0x6af
 2213 06a0 0A       		.uleb128 0xa
 2214 06a1 766D7400 		.ascii	"vmt\000"
 2215 06a5 0C       		.byte	0xc
 2216 06a6 4C       		.byte	0x4c
 2217 06a7 AF060000 		.4byte	0x6af
 2218 06ab 02       		.byte	0x2
 2219 06ac 23       		.byte	0x23
 2220 06ad 00       		.uleb128 0
 2221 06ae 00       		.byte	0
 2222 06af 05       		.uleb128 0x5
 2223 06b0 04       		.byte	0x4
 2224 06b1 B5060000 		.4byte	0x6b5
 2225 06b5 06       		.uleb128 0x6
 2226 06b6 ED050000 		.4byte	0x5ed
 2227 06ba 07       		.uleb128 0x7
 2228 06bb 8A010000 		.4byte	.LASF87
 2229 06bf 0C       		.byte	0xc
 2230 06c0 4E       		.byte	0x4e
 2231 06c1 98060000 		.4byte	0x698
 2232 06c5 10       		.uleb128 0x10
 2233 06c6 9F000000 		.4byte	0x9f
 2234 06ca 07       		.uleb128 0x7
 2235 06cb 84020000 		.4byte	.LASF88
 2236 06cf 0D       		.byte	0xd
 2237 06d0 2D       		.byte	0x2d
 2238 06d1 D5060000 		.4byte	0x6d5
 2239 06d5 05       		.uleb128 0x5
 2240 06d6 04       		.byte	0x4
 2241 06d7 DB060000 		.4byte	0x6db
 2242 06db 0E       		.uleb128 0xe
 2243 06dc 01       		.byte	0x1
ARM GAS  /tmp/ccENSE6T.s 			page 42


 2244 06dd F1060000 		.4byte	0x6f1
 2245 06e1 0F       		.uleb128 0xf
 2246 06e2 F1060000 		.4byte	0x6f1
 2247 06e6 0F       		.uleb128 0xf
 2248 06e7 45000000 		.4byte	0x45
 2249 06eb 0F       		.uleb128 0xf
 2250 06ec F7060000 		.4byte	0x6f7
 2251 06f0 00       		.byte	0
 2252 06f1 05       		.uleb128 0x5
 2253 06f2 04       		.byte	0x4
 2254 06f3 BA060000 		.4byte	0x6ba
 2255 06f7 05       		.uleb128 0x5
 2256 06f8 04       		.byte	0x4
 2257 06f9 71000000 		.4byte	0x71
 2258 06fd 0B       		.uleb128 0xb
 2259 06fe 08       		.byte	0x8
 2260 06ff 0D       		.byte	0xd
 2261 0700 32       		.byte	0x32
 2262 0701 22070000 		.4byte	0x722
 2263 0705 09       		.uleb128 0x9
 2264 0706 76010000 		.4byte	.LASF89
 2265 070a 0D       		.byte	0xd
 2266 070b 33       		.byte	0x33
 2267 070c 7E000000 		.4byte	0x7e
 2268 0710 02       		.byte	0x2
 2269 0711 23       		.byte	0x23
 2270 0712 00       		.uleb128 0
 2271 0713 09       		.uleb128 0x9
 2272 0714 B9040000 		.4byte	.LASF90
 2273 0718 0D       		.byte	0xd
 2274 0719 34       		.byte	0x34
 2275 071a CA060000 		.4byte	0x6ca
 2276 071e 02       		.byte	0x2
 2277 071f 23       		.byte	0x23
 2278 0720 04       		.uleb128 0x4
 2279 0721 00       		.byte	0
 2280 0722 07       		.uleb128 0x7
 2281 0723 6F040000 		.4byte	.LASF91
 2282 0727 0D       		.byte	0xd
 2283 0728 35       		.byte	0x35
 2284 0729 FD060000 		.4byte	0x6fd
 2285 072d 0B       		.uleb128 0xb
 2286 072e 08       		.byte	0x8
 2287 072f 0D       		.byte	0xd
 2288 0730 3A       		.byte	0x3a
 2289 0731 52070000 		.4byte	0x752
 2290 0735 09       		.uleb128 0x9
 2291 0736 8F000000 		.4byte	.LASF92
 2292 073a 0D       		.byte	0xd
 2293 073b 3B       		.byte	0x3b
 2294 073c F1060000 		.4byte	0x6f1
 2295 0740 02       		.byte	0x2
 2296 0741 23       		.byte	0x23
 2297 0742 00       		.uleb128 0
 2298 0743 09       		.uleb128 0x9
 2299 0744 BF010000 		.4byte	.LASF93
 2300 0748 0D       		.byte	0xd
ARM GAS  /tmp/ccENSE6T.s 			page 43


 2301 0749 3D       		.byte	0x3d
 2302 074a 52070000 		.4byte	0x752
 2303 074e 02       		.byte	0x2
 2304 074f 23       		.byte	0x23
 2305 0750 04       		.uleb128 0x4
 2306 0751 00       		.byte	0
 2307 0752 05       		.uleb128 0x5
 2308 0753 04       		.byte	0x4
 2309 0754 58070000 		.4byte	0x758
 2310 0758 06       		.uleb128 0x6
 2311 0759 22070000 		.4byte	0x722
 2312 075d 07       		.uleb128 0x7
 2313 075e 3B040000 		.4byte	.LASF94
 2314 0762 0D       		.byte	0xd
 2315 0763 3F       		.byte	0x3f
 2316 0764 2D070000 		.4byte	0x72d
 2317 0768 14       		.uleb128 0x14
 2318 0769 69040000 		.4byte	.LASF95
 2319 076d 01       		.byte	0x1
 2320 076e 36       		.byte	0x36
 2321 076f 01       		.byte	0x1
 2322 0770 01       		.byte	0x1
 2323 0771 8A070000 		.4byte	0x78a
 2324 0775 15       		.uleb128 0x15
 2325 0776 63687000 		.ascii	"chp\000"
 2326 077a 01       		.byte	0x1
 2327 077b 36       		.byte	0x36
 2328 077c F1060000 		.4byte	0x6f1
 2329 0780 15       		.uleb128 0x15
 2330 0781 7000     		.ascii	"p\000"
 2331 0783 01       		.byte	0x1
 2332 0784 36       		.byte	0x36
 2333 0785 71000000 		.4byte	0x71
 2334 0789 00       		.byte	0
 2335 078a 14       		.uleb128 0x14
 2336 078b 56040000 		.4byte	.LASF96
 2337 078f 01       		.byte	0x1
 2338 0790 63       		.byte	0x63
 2339 0791 01       		.byte	0x1
 2340 0792 01       		.byte	0x1
 2341 0793 B9070000 		.4byte	0x7b9
 2342 0797 15       		.uleb128 0x15
 2343 0798 63687000 		.ascii	"chp\000"
 2344 079c 01       		.byte	0x1
 2345 079d 63       		.byte	0x63
 2346 079e F1060000 		.4byte	0x6f1
 2347 07a2 16       		.uleb128 0x16
 2348 07a3 DA040000 		.4byte	.LASF97
 2349 07a7 01       		.byte	0x1
 2350 07a8 63       		.byte	0x63
 2351 07a9 45000000 		.4byte	0x45
 2352 07ad 16       		.uleb128 0x16
 2353 07ae FF040000 		.4byte	.LASF98
 2354 07b2 01       		.byte	0x1
 2355 07b3 63       		.byte	0x63
 2356 07b4 F7060000 		.4byte	0x6f7
 2357 07b8 00       		.byte	0
ARM GAS  /tmp/ccENSE6T.s 			page 44


 2358 07b9 14       		.uleb128 0x14
 2359 07ba 4E000000 		.4byte	.LASF99
 2360 07be 01       		.byte	0x1
 2361 07bf 43       		.byte	0x43
 2362 07c0 01       		.byte	0x1
 2363 07c1 01       		.byte	0x1
 2364 07c2 E8070000 		.4byte	0x7e8
 2365 07c6 15       		.uleb128 0x15
 2366 07c7 63687000 		.ascii	"chp\000"
 2367 07cb 01       		.byte	0x1
 2368 07cc 43       		.byte	0x43
 2369 07cd F1060000 		.4byte	0x6f1
 2370 07d1 16       		.uleb128 0x16
 2371 07d2 DA040000 		.4byte	.LASF97
 2372 07d6 01       		.byte	0x1
 2373 07d7 43       		.byte	0x43
 2374 07d8 45000000 		.4byte	0x45
 2375 07dc 16       		.uleb128 0x16
 2376 07dd FF040000 		.4byte	.LASF98
 2377 07e1 01       		.byte	0x1
 2378 07e2 43       		.byte	0x43
 2379 07e3 F7060000 		.4byte	0x6f7
 2380 07e7 00       		.byte	0
 2381 07e8 14       		.uleb128 0x14
 2382 07e9 DF040000 		.4byte	.LASF100
 2383 07ed 01       		.byte	0x1
 2384 07ee 3B       		.byte	0x3b
 2385 07ef 01       		.byte	0x1
 2386 07f0 01       		.byte	0x1
 2387 07f1 0C080000 		.4byte	0x80c
 2388 07f5 15       		.uleb128 0x15
 2389 07f6 63687000 		.ascii	"chp\000"
 2390 07fa 01       		.byte	0x1
 2391 07fb 3B       		.byte	0x3b
 2392 07fc F1060000 		.4byte	0x6f1
 2393 0800 15       		.uleb128 0x15
 2394 0801 73637000 		.ascii	"scp\000"
 2395 0805 01       		.byte	0x1
 2396 0806 3B       		.byte	0x3b
 2397 0807 52070000 		.4byte	0x752
 2398 080b 00       		.byte	0
 2399 080c 17       		.uleb128 0x17
 2400 080d 64030000 		.4byte	.LASF104
 2401 0811 01       		.byte	0x1
 2402 0812 76       		.byte	0x76
 2403 0813 01       		.byte	0x1
 2404 0814 C0000000 		.4byte	0xc0
 2405 0818 01       		.byte	0x1
 2406 0819 55080000 		.4byte	0x855
 2407 081d 15       		.uleb128 0x15
 2408 081e 73637000 		.ascii	"scp\000"
 2409 0822 01       		.byte	0x1
 2410 0823 76       		.byte	0x76
 2411 0824 52070000 		.4byte	0x752
 2412 0828 15       		.uleb128 0x15
 2413 0829 63687000 		.ascii	"chp\000"
 2414 082d 01       		.byte	0x1
ARM GAS  /tmp/ccENSE6T.s 			page 45


 2415 082e 76       		.byte	0x76
 2416 082f F1060000 		.4byte	0x6f1
 2417 0833 16       		.uleb128 0x16
 2418 0834 D6010000 		.4byte	.LASF101
 2419 0838 01       		.byte	0x1
 2420 0839 77       		.byte	0x77
 2421 083a 71000000 		.4byte	0x71
 2422 083e 16       		.uleb128 0x16
 2423 083f DA040000 		.4byte	.LASF97
 2424 0843 01       		.byte	0x1
 2425 0844 77       		.byte	0x77
 2426 0845 45000000 		.4byte	0x45
 2427 0849 16       		.uleb128 0x16
 2428 084a FF040000 		.4byte	.LASF98
 2429 084e 01       		.byte	0x1
 2430 084f 77       		.byte	0x77
 2431 0850 F7060000 		.4byte	0x6f7
 2432 0854 00       		.byte	0
 2433 0855 18       		.uleb128 0x18
 2434 0856 01       		.byte	0x1
 2435 0857 69010000 		.4byte	.LASF122
 2436 085b 01       		.byte	0x1
 2437 085c FB       		.byte	0xfb
 2438 085d 01       		.byte	0x1
 2439 085e C0000000 		.4byte	0xc0
 2440 0862 01       		.byte	0x1
 2441 0863 9D080000 		.4byte	0x89d
 2442 0867 15       		.uleb128 0x15
 2443 0868 63687000 		.ascii	"chp\000"
 2444 086c 01       		.byte	0x1
 2445 086d FB       		.byte	0xfb
 2446 086e F1060000 		.4byte	0x6f1
 2447 0872 16       		.uleb128 0x16
 2448 0873 4B010000 		.4byte	.LASF102
 2449 0877 01       		.byte	0x1
 2450 0878 FB       		.byte	0xfb
 2451 0879 71000000 		.4byte	0x71
 2452 087d 16       		.uleb128 0x16
 2453 087e F4010000 		.4byte	.LASF103
 2454 0882 01       		.byte	0x1
 2455 0883 FB       		.byte	0xfb
 2456 0884 4C000000 		.4byte	0x4c
 2457 0888 19       		.uleb128 0x19
 2458 0889 7000     		.ascii	"p\000"
 2459 088b 01       		.byte	0x1
 2460 088c FC       		.byte	0xfc
 2461 088d 71000000 		.4byte	0x71
 2462 0891 1A       		.uleb128 0x1a
 2463 0892 19       		.uleb128 0x19
 2464 0893 6300     		.ascii	"c\000"
 2465 0895 01       		.byte	0x1
 2466 0896 FF       		.byte	0xff
 2467 0897 77000000 		.4byte	0x77
 2468 089b 00       		.byte	0
 2469 089c 00       		.byte	0
 2470 089d 17       		.uleb128 0x17
 2471 089e 05030000 		.4byte	.LASF105
ARM GAS  /tmp/ccENSE6T.s 			page 46


 2472 08a2 01       		.byte	0x1
 2473 08a3 25       		.byte	0x25
 2474 08a4 01       		.byte	0x1
 2475 08a5 71000000 		.4byte	0x71
 2476 08a9 01       		.byte	0x1
 2477 08aa DB080000 		.4byte	0x8db
 2478 08ae 15       		.uleb128 0x15
 2479 08af 73747200 		.ascii	"str\000"
 2480 08b3 01       		.byte	0x1
 2481 08b4 25       		.byte	0x25
 2482 08b5 71000000 		.4byte	0x71
 2483 08b9 16       		.uleb128 0x16
 2484 08ba 81030000 		.4byte	.LASF106
 2485 08be 01       		.byte	0x1
 2486 08bf 25       		.byte	0x25
 2487 08c0 7E000000 		.4byte	0x7e
 2488 08c4 16       		.uleb128 0x16
 2489 08c5 EE020000 		.4byte	.LASF107
 2490 08c9 01       		.byte	0x1
 2491 08ca 25       		.byte	0x25
 2492 08cb F7060000 		.4byte	0x6f7
 2493 08cf 1B       		.uleb128 0x1b
 2494 08d0 E0020000 		.4byte	.LASF108
 2495 08d4 01       		.byte	0x1
 2496 08d5 26       		.byte	0x26
 2497 08d6 71000000 		.4byte	0x71
 2498 08da 00       		.byte	0
 2499 08db 1C       		.uleb128 0x1c
 2500 08dc 8A070000 		.4byte	0x78a
 2501 08e0 00000000 		.4byte	.LFB67
 2502 08e4 28000000 		.4byte	.LFE67
 2503 08e8 02       		.byte	0x2
 2504 08e9 7D       		.byte	0x7d
 2505 08ea 00       		.sleb128 0
 2506 08eb 5A090000 		.4byte	0x95a
 2507 08ef 1D       		.uleb128 0x1d
 2508 08f0 97070000 		.4byte	0x797
 2509 08f4 00000000 		.4byte	.LLST0
 2510 08f8 1D       		.uleb128 0x1d
 2511 08f9 A2070000 		.4byte	0x7a2
 2512 08fd 1E000000 		.4byte	.LLST1
 2513 0901 1D       		.uleb128 0x1d
 2514 0902 AD070000 		.4byte	0x7ad
 2515 0906 3C000000 		.4byte	.LLST2
 2516 090a 1E       		.uleb128 0x1e
 2517 090b 68070000 		.4byte	0x768
 2518 090f 04000000 		.4byte	.LBB30
 2519 0913 00000000 		.4byte	.Ldebug_ranges0+0
 2520 0917 01       		.byte	0x1
 2521 0918 67       		.byte	0x67
 2522 0919 30090000 		.4byte	0x930
 2523 091d 1D       		.uleb128 0x1d
 2524 091e 80070000 		.4byte	0x780
 2525 0922 5A000000 		.4byte	.LLST3
 2526 0926 1D       		.uleb128 0x1d
 2527 0927 75070000 		.4byte	0x775
 2528 092b 72000000 		.4byte	.LLST4
ARM GAS  /tmp/ccENSE6T.s 			page 47


 2529 092f 00       		.byte	0
 2530 0930 1F       		.uleb128 0x1f
 2531 0931 8A070000 		.4byte	0x78a
 2532 0935 0C000000 		.4byte	.LBB34
 2533 0939 18000000 		.4byte	.Ldebug_ranges0+0x18
 2534 093d 01       		.byte	0x1
 2535 093e 63       		.byte	0x63
 2536 093f 1D       		.uleb128 0x1d
 2537 0940 97070000 		.4byte	0x797
 2538 0944 85000000 		.4byte	.LLST5
 2539 0948 20       		.uleb128 0x20
 2540 0949 30000000 		.4byte	.Ldebug_ranges0+0x30
 2541 094d 21       		.uleb128 0x21
 2542 094e AD070000 		.4byte	0x7ad
 2543 0952 21       		.uleb128 0x21
 2544 0953 A2070000 		.4byte	0x7a2
 2545 0957 00       		.byte	0
 2546 0958 00       		.byte	0
 2547 0959 00       		.byte	0
 2548 095a 22       		.uleb128 0x22
 2549 095b B9070000 		.4byte	0x7b9
 2550 095f 00000000 		.4byte	.LFB66
 2551 0963 C0000000 		.4byte	.LFE66
 2552 0967 98000000 		.4byte	.LLST6
 2553 096b DC090000 		.4byte	0x9dc
 2554 096f 1D       		.uleb128 0x1d
 2555 0970 C6070000 		.4byte	0x7c6
 2556 0974 C4000000 		.4byte	.LLST7
 2557 0978 1D       		.uleb128 0x1d
 2558 0979 D1070000 		.4byte	0x7d1
 2559 097d E2000000 		.4byte	.LLST8
 2560 0981 1D       		.uleb128 0x1d
 2561 0982 DC070000 		.4byte	0x7dc
 2562 0986 00010000 		.4byte	.LLST9
 2563 098a 1E       		.uleb128 0x1e
 2564 098b 68070000 		.4byte	0x768
 2565 098f 0A000000 		.4byte	.LBB44
 2566 0993 48000000 		.4byte	.Ldebug_ranges0+0x48
 2567 0997 01       		.byte	0x1
 2568 0998 47       		.byte	0x47
 2569 0999 B0090000 		.4byte	0x9b0
 2570 099d 1D       		.uleb128 0x1d
 2571 099e 80070000 		.4byte	0x780
 2572 09a2 1E010000 		.4byte	.LLST10
 2573 09a6 1D       		.uleb128 0x1d
 2574 09a7 75070000 		.4byte	0x775
 2575 09ab 36010000 		.4byte	.LLST11
 2576 09af 00       		.byte	0
 2577 09b0 23       		.uleb128 0x23
 2578 09b1 B9070000 		.4byte	0x7b9
 2579 09b5 18000000 		.4byte	.LBB48
 2580 09b9 6C000000 		.4byte	.LBE48
 2581 09bd 01       		.byte	0x1
 2582 09be 43       		.byte	0x43
 2583 09bf 24       		.uleb128 0x24
 2584 09c0 C6070000 		.4byte	0x7c6
 2585 09c4 01       		.byte	0x1
ARM GAS  /tmp/ccENSE6T.s 			page 48


 2586 09c5 54       		.byte	0x54
 2587 09c6 25       		.uleb128 0x25
 2588 09c7 18000000 		.4byte	.LBB49
 2589 09cb 6C000000 		.4byte	.LBE49
 2590 09cf 21       		.uleb128 0x21
 2591 09d0 DC070000 		.4byte	0x7dc
 2592 09d4 21       		.uleb128 0x21
 2593 09d5 D1070000 		.4byte	0x7d1
 2594 09d9 00       		.byte	0
 2595 09da 00       		.byte	0
 2596 09db 00       		.byte	0
 2597 09dc 26       		.uleb128 0x26
 2598 09dd 9E040000 		.4byte	.LASF123
 2599 09e1 01       		.byte	0x1
 2600 09e2 8B       		.byte	0x8b
 2601 09e3 01       		.byte	0x1
 2602 09e4 09010000 		.4byte	0x109
 2603 09e8 00000000 		.4byte	.LFB69
 2604 09ec 74030000 		.4byte	.LFE69
 2605 09f0 54010000 		.4byte	.LLST12
 2606 09f4 5A0C0000 		.4byte	0xc5a
 2607 09f8 27       		.uleb128 0x27
 2608 09f9 7000     		.ascii	"p\000"
 2609 09fb 01       		.byte	0x1
 2610 09fc 8B       		.byte	0x8b
 2611 09fd 68000000 		.4byte	0x68
 2612 0a01 81010000 		.4byte	.LLST13
 2613 0a05 28       		.uleb128 0x28
 2614 0a06 6E00     		.ascii	"n\000"
 2615 0a08 01       		.byte	0x1
 2616 0a09 8C       		.byte	0x8c
 2617 0a0a 45000000 		.4byte	0x45
 2618 0a0e 94010000 		.4byte	.LLST14
 2619 0a12 29       		.uleb128 0x29
 2620 0a13 6D736700 		.ascii	"msg\000"
 2621 0a17 01       		.byte	0x1
 2622 0a18 8D       		.byte	0x8d
 2623 0a19 09010000 		.4byte	0x109
 2624 0a1d 00       		.byte	0
 2625 0a1e 28       		.uleb128 0x28
 2626 0a1f 63687000 		.ascii	"chp\000"
 2627 0a23 01       		.byte	0x1
 2628 0a24 8E       		.byte	0x8e
 2629 0a25 F1060000 		.4byte	0x6f1
 2630 0a29 14020000 		.4byte	.LLST15
 2631 0a2d 28       		.uleb128 0x28
 2632 0a2e 73637000 		.ascii	"scp\000"
 2633 0a32 01       		.byte	0x1
 2634 0a33 8F       		.byte	0x8f
 2635 0a34 52070000 		.4byte	0x752
 2636 0a38 33020000 		.4byte	.LLST16
 2637 0a3c 19       		.uleb128 0x19
 2638 0a3d 6C7000   		.ascii	"lp\000"
 2639 0a40 01       		.byte	0x1
 2640 0a41 90       		.byte	0x90
 2641 0a42 71000000 		.4byte	0x71
 2642 0a46 28       		.uleb128 0x28
ARM GAS  /tmp/ccENSE6T.s 			page 49


 2643 0a47 636D6400 		.ascii	"cmd\000"
 2644 0a4b 01       		.byte	0x1
 2645 0a4c 90       		.byte	0x90
 2646 0a4d 71000000 		.4byte	0x71
 2647 0a51 53020000 		.4byte	.LLST17
 2648 0a55 2A       		.uleb128 0x2a
 2649 0a56 3E010000 		.4byte	.LASF109
 2650 0a5a 01       		.byte	0x1
 2651 0a5b 90       		.byte	0x90
 2652 0a5c 71000000 		.4byte	0x71
 2653 0a60 67020000 		.4byte	.LLST18
 2654 0a64 2B       		.uleb128 0x2b
 2655 0a65 4B010000 		.4byte	.LASF102
 2656 0a69 01       		.byte	0x1
 2657 0a6a 90       		.byte	0x90
 2658 0a6b 5A0C0000 		.4byte	0xc5a
 2659 0a6f 03       		.byte	0x3
 2660 0a70 91       		.byte	0x91
 2661 0a71 807F     		.sleb128 -128
 2662 0a73 2B       		.uleb128 0x2b
 2663 0a74 FA040000 		.4byte	.LASF110
 2664 0a78 01       		.byte	0x1
 2665 0a79 91       		.byte	0x91
 2666 0a7a 6A0C0000 		.4byte	0xc6a
 2667 0a7e 02       		.byte	0x2
 2668 0a7f 91       		.byte	0x91
 2669 0a80 40       		.sleb128 -64
 2670 0a81 1E       		.uleb128 0x1e
 2671 0a82 E8070000 		.4byte	0x7e8
 2672 0a86 1C000000 		.4byte	.LBB70
 2673 0a8a 60000000 		.4byte	.Ldebug_ranges0+0x60
 2674 0a8e 01       		.byte	0x1
 2675 0a8f B5       		.byte	0xb5
 2676 0a90 A70A0000 		.4byte	0xaa7
 2677 0a94 1D       		.uleb128 0x1d
 2678 0a95 00080000 		.4byte	0x800
 2679 0a99 FE020000 		.4byte	.LLST19
 2680 0a9d 1D       		.uleb128 0x1d
 2681 0a9e F5070000 		.4byte	0x7f5
 2682 0aa2 16030000 		.4byte	.LLST20
 2683 0aa6 00       		.byte	0
 2684 0aa7 1E       		.uleb128 0x1e
 2685 0aa8 0C080000 		.4byte	0x80c
 2686 0aac 22000000 		.4byte	.LBB73
 2687 0ab0 78000000 		.4byte	.Ldebug_ranges0+0x78
 2688 0ab4 01       		.byte	0x1
 2689 0ab5 BA       		.byte	0xba
 2690 0ab6 D80A0000 		.4byte	0xad8
 2691 0aba 21       		.uleb128 0x21
 2692 0abb 49080000 		.4byte	0x849
 2693 0abf 21       		.uleb128 0x21
 2694 0ac0 3E080000 		.4byte	0x83e
 2695 0ac4 21       		.uleb128 0x21
 2696 0ac5 33080000 		.4byte	0x833
 2697 0ac9 21       		.uleb128 0x21
 2698 0aca 28080000 		.4byte	0x828
 2699 0ace 1D       		.uleb128 0x1d
ARM GAS  /tmp/ccENSE6T.s 			page 50


 2700 0acf 1D080000 		.4byte	0x81d
 2701 0ad3 29030000 		.4byte	.LLST21
 2702 0ad7 00       		.byte	0
 2703 0ad8 1E       		.uleb128 0x1e
 2704 0ad9 55080000 		.4byte	0x855
 2705 0add 30000000 		.4byte	.LBB76
 2706 0ae1 90000000 		.4byte	.Ldebug_ranges0+0x90
 2707 0ae5 01       		.byte	0x1
 2708 0ae6 97       		.byte	0x97
 2709 0ae7 1E0B0000 		.4byte	0xb1e
 2710 0aeb 24       		.uleb128 0x24
 2711 0aec 72080000 		.4byte	0x872
 2712 0af0 01       		.byte	0x1
 2713 0af1 56       		.byte	0x56
 2714 0af2 24       		.uleb128 0x24
 2715 0af3 67080000 		.4byte	0x867
 2716 0af7 01       		.byte	0x1
 2717 0af8 54       		.byte	0x54
 2718 0af9 20       		.uleb128 0x20
 2719 0afa B0000000 		.4byte	.Ldebug_ranges0+0xb0
 2720 0afe 2C       		.uleb128 0x2c
 2721 0aff 88080000 		.4byte	0x888
 2722 0b03 59030000 		.4byte	.LLST22
 2723 0b07 2D       		.uleb128 0x2d
 2724 0b08 7D080000 		.4byte	0x87d
 2725 0b0c 40       		.byte	0x40
 2726 0b0d 20       		.uleb128 0x20
 2727 0b0e D0000000 		.4byte	.Ldebug_ranges0+0xd0
 2728 0b12 2C       		.uleb128 0x2c
 2729 0b13 92080000 		.4byte	0x892
 2730 0b17 77030000 		.4byte	.LLST23
 2731 0b1b 00       		.byte	0
 2732 0b1c 00       		.byte	0
 2733 0b1d 00       		.byte	0
 2734 0b1e 2E       		.uleb128 0x2e
 2735 0b1f 82000000 		.4byte	.LBB83
 2736 0b23 88000000 		.4byte	.LBE83
 2737 0b27 3B0B0000 		.4byte	0xb3b
 2738 0b2b 28       		.uleb128 0x28
 2739 0b2c 746D7000 		.ascii	"tmp\000"
 2740 0b30 01       		.byte	0x1
 2741 0b31 C3       		.byte	0xc3
 2742 0b32 AA000000 		.4byte	0xaa
 2743 0b36 AE030000 		.4byte	.LLST24
 2744 0b3a 00       		.byte	0
 2745 0b3b 1E       		.uleb128 0x1e
 2746 0b3c 9D080000 		.4byte	0x89d
 2747 0b40 DE000000 		.4byte	.LBB85
 2748 0b44 F0000000 		.4byte	.Ldebug_ranges0+0xf0
 2749 0b48 01       		.byte	0x1
 2750 0b49 9B       		.byte	0x9b
 2751 0b4a 7D0B0000 		.4byte	0xb7d
 2752 0b4e 24       		.uleb128 0x24
 2753 0b4f C4080000 		.4byte	0x8c4
 2754 0b53 06       		.byte	0x6
 2755 0b54 F2       		.byte	0xf2
 2756 0b55 550A0000 		.4byte	.Ldebug_info0+2645
ARM GAS  /tmp/ccENSE6T.s 			page 51


 2757 0b59 00       		.sleb128 0
 2758 0b5a 24       		.uleb128 0x24
 2759 0b5b AE080000 		.4byte	0x8ae
 2760 0b5f 01       		.byte	0x1
 2761 0b60 56       		.byte	0x56
 2762 0b61 20       		.uleb128 0x20
 2763 0b62 18010000 		.4byte	.Ldebug_ranges0+0x118
 2764 0b66 2C       		.uleb128 0x2c
 2765 0b67 CF080000 		.4byte	0x8cf
 2766 0b6b C1030000 		.4byte	.LLST25
 2767 0b6f 24       		.uleb128 0x24
 2768 0b70 B9080000 		.4byte	0x8b9
 2769 0b74 06       		.byte	0x6
 2770 0b75 03       		.byte	0x3
 2771 0b76 D4010000 		.4byte	.LC27
 2772 0b7a 9F       		.byte	0x9f
 2773 0b7b 00       		.byte	0
 2774 0b7c 00       		.byte	0
 2775 0b7d 1E       		.uleb128 0x1e
 2776 0b7e 9D080000 		.4byte	0x89d
 2777 0b82 08010000 		.4byte	.LBB92
 2778 0b86 40010000 		.4byte	.Ldebug_ranges0+0x140
 2779 0b8a 01       		.byte	0x1
 2780 0b8b 9E       		.byte	0x9e
 2781 0b8c BE0B0000 		.4byte	0xbbe
 2782 0b90 24       		.uleb128 0x24
 2783 0b91 C4080000 		.4byte	0x8c4
 2784 0b95 06       		.byte	0x6
 2785 0b96 F2       		.byte	0xf2
 2786 0b97 550A0000 		.4byte	.Ldebug_info0+2645
 2787 0b9b 00       		.sleb128 0
 2788 0b9c 2D       		.uleb128 0x2d
 2789 0b9d AE080000 		.4byte	0x8ae
 2790 0ba1 00       		.byte	0
 2791 0ba2 20       		.uleb128 0x20
 2792 0ba3 70010000 		.4byte	.Ldebug_ranges0+0x170
 2793 0ba7 2C       		.uleb128 0x2c
 2794 0ba8 CF080000 		.4byte	0x8cf
 2795 0bac DF030000 		.4byte	.LLST26
 2796 0bb0 24       		.uleb128 0x24
 2797 0bb1 B9080000 		.4byte	0x8b9
 2798 0bb5 06       		.byte	0x6
 2799 0bb6 03       		.byte	0x3
 2800 0bb7 D4010000 		.4byte	.LC27
 2801 0bbb 9F       		.byte	0x9f
 2802 0bbc 00       		.byte	0
 2803 0bbd 00       		.byte	0
 2804 0bbe 2F       		.uleb128 0x2f
 2805 0bbf 68070000 		.4byte	0x768
 2806 0bc3 54010000 		.4byte	.LBB99
 2807 0bc7 5E010000 		.4byte	.LBE99
 2808 0bcb 01       		.byte	0x1
 2809 0bcc AA       		.byte	0xaa
 2810 0bcd E40B0000 		.4byte	0xbe4
 2811 0bd1 1D       		.uleb128 0x1d
 2812 0bd2 80070000 		.4byte	0x780
 2813 0bd6 60040000 		.4byte	.LLST27
ARM GAS  /tmp/ccENSE6T.s 			page 52


 2814 0bda 1D       		.uleb128 0x1d
 2815 0bdb 75070000 		.4byte	0x775
 2816 0bdf 78040000 		.4byte	.LLST28
 2817 0be3 00       		.byte	0
 2818 0be4 1E       		.uleb128 0x1e
 2819 0be5 0C080000 		.4byte	0x80c
 2820 0be9 5A020000 		.4byte	.LBB107
 2821 0bed A0010000 		.4byte	.Ldebug_ranges0+0x1a0
 2822 0bf1 01       		.byte	0x1
 2823 0bf2 BB       		.byte	0xbb
 2824 0bf3 150C0000 		.4byte	0xc15
 2825 0bf7 21       		.uleb128 0x21
 2826 0bf8 49080000 		.4byte	0x849
 2827 0bfc 21       		.uleb128 0x21
 2828 0bfd 3E080000 		.4byte	0x83e
 2829 0c01 21       		.uleb128 0x21
 2830 0c02 33080000 		.4byte	0x833
 2831 0c06 21       		.uleb128 0x21
 2832 0c07 28080000 		.4byte	0x828
 2833 0c0b 1D       		.uleb128 0x1d
 2834 0c0c 1D080000 		.4byte	0x81d
 2835 0c10 8B040000 		.4byte	.LLST29
 2836 0c14 00       		.byte	0
 2837 0c15 1E       		.uleb128 0x1e
 2838 0c16 68070000 		.4byte	0x768
 2839 0c1a A0020000 		.4byte	.LBB110
 2840 0c1e B8010000 		.4byte	.Ldebug_ranges0+0x1b8
 2841 0c22 01       		.byte	0x1
 2842 0c23 B1       		.byte	0xb1
 2843 0c24 3B0C0000 		.4byte	0xc3b
 2844 0c28 1D       		.uleb128 0x1d
 2845 0c29 80070000 		.4byte	0x780
 2846 0c2d B8040000 		.4byte	.LLST30
 2847 0c31 1D       		.uleb128 0x1d
 2848 0c32 75070000 		.4byte	0x775
 2849 0c36 D0040000 		.4byte	.LLST31
 2850 0c3a 00       		.byte	0
 2851 0c3b 23       		.uleb128 0x23
 2852 0c3c E8070000 		.4byte	0x7e8
 2853 0c40 10030000 		.4byte	.LBB116
 2854 0c44 32030000 		.4byte	.LBE116
 2855 0c48 01       		.byte	0x1
 2856 0c49 B7       		.byte	0xb7
 2857 0c4a 1D       		.uleb128 0x1d
 2858 0c4b 00080000 		.4byte	0x800
 2859 0c4f E3040000 		.4byte	.LLST32
 2860 0c53 21       		.uleb128 0x21
 2861 0c54 F5070000 		.4byte	0x7f5
 2862 0c58 00       		.byte	0
 2863 0c59 00       		.byte	0
 2864 0c5a 30       		.uleb128 0x30
 2865 0c5b 77000000 		.4byte	0x77
 2866 0c5f 6A0C0000 		.4byte	0xc6a
 2867 0c63 31       		.uleb128 0x31
 2868 0c64 4C000000 		.4byte	0x4c
 2869 0c68 3F       		.byte	0x3f
 2870 0c69 00       		.byte	0
ARM GAS  /tmp/ccENSE6T.s 			page 53


 2871 0c6a 30       		.uleb128 0x30
 2872 0c6b 71000000 		.4byte	0x71
 2873 0c6f 7A0C0000 		.4byte	0xc7a
 2874 0c73 31       		.uleb128 0x31
 2875 0c74 4C000000 		.4byte	0x4c
 2876 0c78 04       		.byte	0x4
 2877 0c79 00       		.byte	0
 2878 0c7a 32       		.uleb128 0x32
 2879 0c7b 01       		.byte	0x1
 2880 0c7c 0C040000 		.4byte	.LASF124
 2881 0c80 01       		.byte	0x1
 2882 0c81 CC       		.byte	0xcc
 2883 0c82 01       		.byte	0x1
 2884 0c83 00000000 		.4byte	.LFB70
 2885 0c87 0C000000 		.4byte	.LFE70
 2886 0c8b 02       		.byte	0x2
 2887 0c8c 7D       		.byte	0x7d
 2888 0c8d 00       		.sleb128 0
 2889 0c8e 33       		.uleb128 0x33
 2890 0c8f 01       		.byte	0x1
 2891 0c90 E8010000 		.4byte	.LASF112
 2892 0c94 01       		.byte	0x1
 2893 0c95 DC       		.byte	0xdc
 2894 0c96 01       		.byte	0x1
 2895 0c97 98020000 		.4byte	0x298
 2896 0c9b 00000000 		.4byte	.LFB71
 2897 0c9f 1A000000 		.4byte	.LFE71
 2898 0ca3 F8040000 		.4byte	.LLST33
 2899 0ca7 D90C0000 		.4byte	0xcd9
 2900 0cab 27       		.uleb128 0x27
 2901 0cac 73637000 		.ascii	"scp\000"
 2902 0cb0 01       		.byte	0x1
 2903 0cb1 DC       		.byte	0xdc
 2904 0cb2 D90C0000 		.4byte	0xcd9
 2905 0cb6 24050000 		.4byte	.LLST34
 2906 0cba 34       		.uleb128 0x34
 2907 0cbb F4010000 		.4byte	.LASF103
 2908 0cbf 01       		.byte	0x1
 2909 0cc0 DC       		.byte	0xdc
 2910 0cc1 89000000 		.4byte	0x89
 2911 0cc5 42050000 		.4byte	.LLST35
 2912 0cc9 34       		.uleb128 0x34
 2913 0cca D3020000 		.4byte	.LASF111
 2914 0cce 01       		.byte	0x1
 2915 0ccf DC       		.byte	0xdc
 2916 0cd0 FE000000 		.4byte	0xfe
 2917 0cd4 55050000 		.4byte	.LLST36
 2918 0cd8 00       		.byte	0
 2919 0cd9 05       		.uleb128 0x5
 2920 0cda 04       		.byte	0x4
 2921 0cdb DF0C0000 		.4byte	0xcdf
 2922 0cdf 06       		.uleb128 0x6
 2923 0ce0 5D070000 		.4byte	0x75d
 2924 0ce4 33       		.uleb128 0x33
 2925 0ce5 01       		.byte	0x1
 2926 0ce6 A5020000 		.4byte	.LASF113
 2927 0cea 01       		.byte	0x1
ARM GAS  /tmp/ccENSE6T.s 			page 54


 2928 0ceb EB       		.byte	0xeb
 2929 0cec 01       		.byte	0x1
 2930 0ced 98020000 		.4byte	0x298
 2931 0cf1 00000000 		.4byte	.LFB72
 2932 0cf5 22000000 		.4byte	.LFE72
 2933 0cf9 68050000 		.4byte	.LLST37
 2934 0cfd 3E0D0000 		.4byte	0xd3e
 2935 0d01 27       		.uleb128 0x27
 2936 0d02 73637000 		.ascii	"scp\000"
 2937 0d06 01       		.byte	0x1
 2938 0d07 EB       		.byte	0xeb
 2939 0d08 D90C0000 		.4byte	0xcd9
 2940 0d0c 94050000 		.4byte	.LLST38
 2941 0d10 27       		.uleb128 0x27
 2942 0d11 77737000 		.ascii	"wsp\000"
 2943 0d15 01       		.byte	0x1
 2944 0d16 EB       		.byte	0xeb
 2945 0d17 68000000 		.4byte	0x68
 2946 0d1b B2050000 		.4byte	.LLST39
 2947 0d1f 34       		.uleb128 0x34
 2948 0d20 F4010000 		.4byte	.LASF103
 2949 0d24 01       		.byte	0x1
 2950 0d25 EC       		.byte	0xec
 2951 0d26 89000000 		.4byte	0x89
 2952 0d2a D0050000 		.4byte	.LLST40
 2953 0d2e 34       		.uleb128 0x34
 2954 0d2f D3020000 		.4byte	.LASF111
 2955 0d33 01       		.byte	0x1
 2956 0d34 EC       		.byte	0xec
 2957 0d35 FE000000 		.4byte	0xfe
 2958 0d39 EE050000 		.4byte	.LLST41
 2959 0d3d 00       		.byte	0
 2960 0d3e 22       		.uleb128 0x22
 2961 0d3f 55080000 		.4byte	0x855
 2962 0d43 00000000 		.4byte	.LFB73
 2963 0d47 A4000000 		.4byte	.LFE73
 2964 0d4b 0C060000 		.4byte	.LLST42
 2965 0d4f 870D0000 		.4byte	0xd87
 2966 0d53 1D       		.uleb128 0x1d
 2967 0d54 67080000 		.4byte	0x867
 2968 0d58 38060000 		.4byte	.LLST43
 2969 0d5c 1D       		.uleb128 0x1d
 2970 0d5d 72080000 		.4byte	0x872
 2971 0d61 56060000 		.4byte	.LLST44
 2972 0d65 1D       		.uleb128 0x1d
 2973 0d66 7D080000 		.4byte	0x87d
 2974 0d6a 74060000 		.4byte	.LLST45
 2975 0d6e 2C       		.uleb128 0x2c
 2976 0d6f 88080000 		.4byte	0x888
 2977 0d73 87060000 		.4byte	.LLST46
 2978 0d77 20       		.uleb128 0x20
 2979 0d78 D0010000 		.4byte	.Ldebug_ranges0+0x1d0
 2980 0d7c 2C       		.uleb128 0x2c
 2981 0d7d 92080000 		.4byte	0x892
 2982 0d81 A5060000 		.4byte	.LLST47
 2983 0d85 00       		.byte	0
 2984 0d86 00       		.byte	0
ARM GAS  /tmp/ccENSE6T.s 			page 55


 2985 0d87 35       		.uleb128 0x35
 2986 0d88 10000000 		.4byte	.LASF114
 2987 0d8c 08       		.byte	0x8
 2988 0d8d D1       		.byte	0xd1
 2989 0d8e 59040000 		.4byte	0x459
 2990 0d92 01       		.byte	0x1
 2991 0d93 01       		.byte	0x1
 2992 0d94 35       		.uleb128 0x35
 2993 0d95 AB040000 		.4byte	.LASF115
 2994 0d99 09       		.byte	0x9
 2995 0d9a 68       		.byte	0x68
 2996 0d9b C1040000 		.4byte	0x4c1
 2997 0d9f 01       		.byte	0x1
 2998 0da0 01       		.byte	0x1
 2999 0da1 36       		.uleb128 0x36
 3000 0da2 41000000 		.4byte	.LASF116
 3001 0da6 0E       		.byte	0xe
 3002 0da7 0706     		.2byte	0x607
 3003 0da9 C5060000 		.4byte	0x6c5
 3004 0dad 01       		.byte	0x1
 3005 0dae 01       		.byte	0x1
 3006 0daf 35       		.uleb128 0x35
 3007 0db0 FB030000 		.4byte	.LASF117
 3008 0db4 0D       		.byte	0xd
 3009 0db5 42       		.byte	0x42
 3010 0db6 85050000 		.4byte	0x585
 3011 0dba 01       		.byte	0x1
 3012 0dbb 01       		.byte	0x1
 3013 0dbc 30       		.uleb128 0x30
 3014 0dbd 22070000 		.4byte	0x722
 3015 0dc1 CC0D0000 		.4byte	0xdcc
 3016 0dc5 31       		.uleb128 0x31
 3017 0dc6 4C000000 		.4byte	0x4c
 3018 0dca 02       		.byte	0x2
 3019 0dcb 00       		.byte	0
 3020 0dcc 2B       		.uleb128 0x2b
 3021 0dcd C4020000 		.4byte	.LASF118
 3022 0dd1 01       		.byte	0x1
 3023 0dd2 70       		.byte	0x70
 3024 0dd3 BC0D0000 		.4byte	0xdbc
 3025 0dd7 05       		.byte	0x5
 3026 0dd8 03       		.byte	0x3
 3027 0dd9 00000000 		.4byte	local_commands
 3028 0ddd 35       		.uleb128 0x35
 3029 0dde 10000000 		.4byte	.LASF114
 3030 0de2 08       		.byte	0x8
 3031 0de3 D1       		.byte	0xd1
 3032 0de4 59040000 		.4byte	0x459
 3033 0de8 01       		.byte	0x1
 3034 0de9 01       		.byte	0x1
 3035 0dea 35       		.uleb128 0x35
 3036 0deb AB040000 		.4byte	.LASF115
 3037 0def 09       		.byte	0x9
 3038 0df0 68       		.byte	0x68
 3039 0df1 C1040000 		.4byte	0x4c1
 3040 0df5 01       		.byte	0x1
 3041 0df6 01       		.byte	0x1
ARM GAS  /tmp/ccENSE6T.s 			page 56


 3042 0df7 36       		.uleb128 0x36
 3043 0df8 41000000 		.4byte	.LASF116
 3044 0dfc 0E       		.byte	0xe
 3045 0dfd 0706     		.2byte	0x607
 3046 0dff C5060000 		.4byte	0x6c5
 3047 0e03 01       		.byte	0x1
 3048 0e04 01       		.byte	0x1
 3049 0e05 37       		.uleb128 0x37
 3050 0e06 FB030000 		.4byte	.LASF117
 3051 0e0a 01       		.byte	0x1
 3052 0e0b 23       		.byte	0x23
 3053 0e0c 85050000 		.4byte	0x585
 3054 0e10 01       		.byte	0x1
 3055 0e11 05       		.byte	0x5
 3056 0e12 03       		.byte	0x3
 3057 0e13 00000000 		.4byte	shell_terminated
 3058 0e17 00       		.byte	0
 3059              		.section	.debug_abbrev,"",%progbits
 3060              	.Ldebug_abbrev0:
 3061 0000 01       		.uleb128 0x1
 3062 0001 11       		.uleb128 0x11
 3063 0002 01       		.byte	0x1
 3064 0003 25       		.uleb128 0x25
 3065 0004 0E       		.uleb128 0xe
 3066 0005 13       		.uleb128 0x13
 3067 0006 0B       		.uleb128 0xb
 3068 0007 03       		.uleb128 0x3
 3069 0008 0E       		.uleb128 0xe
 3070 0009 1B       		.uleb128 0x1b
 3071 000a 0E       		.uleb128 0xe
 3072 000b 11       		.uleb128 0x11
 3073 000c 01       		.uleb128 0x1
 3074 000d 52       		.uleb128 0x52
 3075 000e 01       		.uleb128 0x1
 3076 000f 55       		.uleb128 0x55
 3077 0010 06       		.uleb128 0x6
 3078 0011 10       		.uleb128 0x10
 3079 0012 06       		.uleb128 0x6
 3080 0013 00       		.byte	0
 3081 0014 00       		.byte	0
 3082 0015 02       		.uleb128 0x2
 3083 0016 24       		.uleb128 0x24
 3084 0017 00       		.byte	0
 3085 0018 0B       		.uleb128 0xb
 3086 0019 0B       		.uleb128 0xb
 3087 001a 3E       		.uleb128 0x3e
 3088 001b 0B       		.uleb128 0xb
 3089 001c 03       		.uleb128 0x3
 3090 001d 0E       		.uleb128 0xe
 3091 001e 00       		.byte	0
 3092 001f 00       		.byte	0
 3093 0020 03       		.uleb128 0x3
 3094 0021 24       		.uleb128 0x24
 3095 0022 00       		.byte	0
 3096 0023 0B       		.uleb128 0xb
 3097 0024 0B       		.uleb128 0xb
 3098 0025 3E       		.uleb128 0x3e
ARM GAS  /tmp/ccENSE6T.s 			page 57


 3099 0026 0B       		.uleb128 0xb
 3100 0027 03       		.uleb128 0x3
 3101 0028 08       		.uleb128 0x8
 3102 0029 00       		.byte	0
 3103 002a 00       		.byte	0
 3104 002b 04       		.uleb128 0x4
 3105 002c 0F       		.uleb128 0xf
 3106 002d 00       		.byte	0
 3107 002e 0B       		.uleb128 0xb
 3108 002f 0B       		.uleb128 0xb
 3109 0030 00       		.byte	0
 3110 0031 00       		.byte	0
 3111 0032 05       		.uleb128 0x5
 3112 0033 0F       		.uleb128 0xf
 3113 0034 00       		.byte	0
 3114 0035 0B       		.uleb128 0xb
 3115 0036 0B       		.uleb128 0xb
 3116 0037 49       		.uleb128 0x49
 3117 0038 13       		.uleb128 0x13
 3118 0039 00       		.byte	0
 3119 003a 00       		.byte	0
 3120 003b 06       		.uleb128 0x6
 3121 003c 26       		.uleb128 0x26
 3122 003d 00       		.byte	0
 3123 003e 49       		.uleb128 0x49
 3124 003f 13       		.uleb128 0x13
 3125 0040 00       		.byte	0
 3126 0041 00       		.byte	0
 3127 0042 07       		.uleb128 0x7
 3128 0043 16       		.uleb128 0x16
 3129 0044 00       		.byte	0
 3130 0045 03       		.uleb128 0x3
 3131 0046 0E       		.uleb128 0xe
 3132 0047 3A       		.uleb128 0x3a
 3133 0048 0B       		.uleb128 0xb
 3134 0049 3B       		.uleb128 0x3b
 3135 004a 0B       		.uleb128 0xb
 3136 004b 49       		.uleb128 0x49
 3137 004c 13       		.uleb128 0x13
 3138 004d 00       		.byte	0
 3139 004e 00       		.byte	0
 3140 004f 08       		.uleb128 0x8
 3141 0050 13       		.uleb128 0x13
 3142 0051 01       		.byte	0x1
 3143 0052 03       		.uleb128 0x3
 3144 0053 0E       		.uleb128 0xe
 3145 0054 0B       		.uleb128 0xb
 3146 0055 0B       		.uleb128 0xb
 3147 0056 3A       		.uleb128 0x3a
 3148 0057 0B       		.uleb128 0xb
 3149 0058 3B       		.uleb128 0x3b
 3150 0059 0B       		.uleb128 0xb
 3151 005a 01       		.uleb128 0x1
 3152 005b 13       		.uleb128 0x13
 3153 005c 00       		.byte	0
 3154 005d 00       		.byte	0
 3155 005e 09       		.uleb128 0x9
ARM GAS  /tmp/ccENSE6T.s 			page 58


 3156 005f 0D       		.uleb128 0xd
 3157 0060 00       		.byte	0
 3158 0061 03       		.uleb128 0x3
 3159 0062 0E       		.uleb128 0xe
 3160 0063 3A       		.uleb128 0x3a
 3161 0064 0B       		.uleb128 0xb
 3162 0065 3B       		.uleb128 0x3b
 3163 0066 0B       		.uleb128 0xb
 3164 0067 49       		.uleb128 0x49
 3165 0068 13       		.uleb128 0x13
 3166 0069 38       		.uleb128 0x38
 3167 006a 0A       		.uleb128 0xa
 3168 006b 00       		.byte	0
 3169 006c 00       		.byte	0
 3170 006d 0A       		.uleb128 0xa
 3171 006e 0D       		.uleb128 0xd
 3172 006f 00       		.byte	0
 3173 0070 03       		.uleb128 0x3
 3174 0071 08       		.uleb128 0x8
 3175 0072 3A       		.uleb128 0x3a
 3176 0073 0B       		.uleb128 0xb
 3177 0074 3B       		.uleb128 0x3b
 3178 0075 0B       		.uleb128 0xb
 3179 0076 49       		.uleb128 0x49
 3180 0077 13       		.uleb128 0x13
 3181 0078 38       		.uleb128 0x38
 3182 0079 0A       		.uleb128 0xa
 3183 007a 00       		.byte	0
 3184 007b 00       		.byte	0
 3185 007c 0B       		.uleb128 0xb
 3186 007d 13       		.uleb128 0x13
 3187 007e 01       		.byte	0x1
 3188 007f 0B       		.uleb128 0xb
 3189 0080 0B       		.uleb128 0xb
 3190 0081 3A       		.uleb128 0x3a
 3191 0082 0B       		.uleb128 0xb
 3192 0083 3B       		.uleb128 0x3b
 3193 0084 0B       		.uleb128 0xb
 3194 0085 01       		.uleb128 0x1
 3195 0086 13       		.uleb128 0x13
 3196 0087 00       		.byte	0
 3197 0088 00       		.byte	0
 3198 0089 0C       		.uleb128 0xc
 3199 008a 13       		.uleb128 0x13
 3200 008b 01       		.byte	0x1
 3201 008c 03       		.uleb128 0x3
 3202 008d 0E       		.uleb128 0xe
 3203 008e 0B       		.uleb128 0xb
 3204 008f 0B       		.uleb128 0xb
 3205 0090 3A       		.uleb128 0x3a
 3206 0091 0B       		.uleb128 0xb
 3207 0092 3B       		.uleb128 0x3b
 3208 0093 05       		.uleb128 0x5
 3209 0094 01       		.uleb128 0x1
 3210 0095 13       		.uleb128 0x13
 3211 0096 00       		.byte	0
 3212 0097 00       		.byte	0
ARM GAS  /tmp/ccENSE6T.s 			page 59


 3213 0098 0D       		.uleb128 0xd
 3214 0099 0D       		.uleb128 0xd
 3215 009a 00       		.byte	0
 3216 009b 03       		.uleb128 0x3
 3217 009c 08       		.uleb128 0x8
 3218 009d 3A       		.uleb128 0x3a
 3219 009e 0B       		.uleb128 0xb
 3220 009f 3B       		.uleb128 0x3b
 3221 00a0 05       		.uleb128 0x5
 3222 00a1 49       		.uleb128 0x49
 3223 00a2 13       		.uleb128 0x13
 3224 00a3 38       		.uleb128 0x38
 3225 00a4 0A       		.uleb128 0xa
 3226 00a5 00       		.byte	0
 3227 00a6 00       		.byte	0
 3228 00a7 0E       		.uleb128 0xe
 3229 00a8 15       		.uleb128 0x15
 3230 00a9 01       		.byte	0x1
 3231 00aa 27       		.uleb128 0x27
 3232 00ab 0C       		.uleb128 0xc
 3233 00ac 01       		.uleb128 0x1
 3234 00ad 13       		.uleb128 0x13
 3235 00ae 00       		.byte	0
 3236 00af 00       		.byte	0
 3237 00b0 0F       		.uleb128 0xf
 3238 00b1 05       		.uleb128 0x5
 3239 00b2 00       		.byte	0
 3240 00b3 49       		.uleb128 0x49
 3241 00b4 13       		.uleb128 0x13
 3242 00b5 00       		.byte	0
 3243 00b6 00       		.byte	0
 3244 00b7 10       		.uleb128 0x10
 3245 00b8 35       		.uleb128 0x35
 3246 00b9 00       		.byte	0
 3247 00ba 49       		.uleb128 0x49
 3248 00bb 13       		.uleb128 0x13
 3249 00bc 00       		.byte	0
 3250 00bd 00       		.byte	0
 3251 00be 11       		.uleb128 0x11
 3252 00bf 17       		.uleb128 0x17
 3253 00c0 01       		.byte	0x1
 3254 00c1 0B       		.uleb128 0xb
 3255 00c2 0B       		.uleb128 0xb
 3256 00c3 3A       		.uleb128 0x3a
 3257 00c4 0B       		.uleb128 0xb
 3258 00c5 3B       		.uleb128 0x3b
 3259 00c6 0B       		.uleb128 0xb
 3260 00c7 01       		.uleb128 0x1
 3261 00c8 13       		.uleb128 0x13
 3262 00c9 00       		.byte	0
 3263 00ca 00       		.byte	0
 3264 00cb 12       		.uleb128 0x12
 3265 00cc 0D       		.uleb128 0xd
 3266 00cd 00       		.byte	0
 3267 00ce 03       		.uleb128 0x3
 3268 00cf 0E       		.uleb128 0xe
 3269 00d0 3A       		.uleb128 0x3a
ARM GAS  /tmp/ccENSE6T.s 			page 60


 3270 00d1 0B       		.uleb128 0xb
 3271 00d2 3B       		.uleb128 0x3b
 3272 00d3 0B       		.uleb128 0xb
 3273 00d4 49       		.uleb128 0x49
 3274 00d5 13       		.uleb128 0x13
 3275 00d6 00       		.byte	0
 3276 00d7 00       		.byte	0
 3277 00d8 13       		.uleb128 0x13
 3278 00d9 15       		.uleb128 0x15
 3279 00da 01       		.byte	0x1
 3280 00db 27       		.uleb128 0x27
 3281 00dc 0C       		.uleb128 0xc
 3282 00dd 49       		.uleb128 0x49
 3283 00de 13       		.uleb128 0x13
 3284 00df 01       		.uleb128 0x1
 3285 00e0 13       		.uleb128 0x13
 3286 00e1 00       		.byte	0
 3287 00e2 00       		.byte	0
 3288 00e3 14       		.uleb128 0x14
 3289 00e4 2E       		.uleb128 0x2e
 3290 00e5 01       		.byte	0x1
 3291 00e6 03       		.uleb128 0x3
 3292 00e7 0E       		.uleb128 0xe
 3293 00e8 3A       		.uleb128 0x3a
 3294 00e9 0B       		.uleb128 0xb
 3295 00ea 3B       		.uleb128 0x3b
 3296 00eb 0B       		.uleb128 0xb
 3297 00ec 27       		.uleb128 0x27
 3298 00ed 0C       		.uleb128 0xc
 3299 00ee 20       		.uleb128 0x20
 3300 00ef 0B       		.uleb128 0xb
 3301 00f0 01       		.uleb128 0x1
 3302 00f1 13       		.uleb128 0x13
 3303 00f2 00       		.byte	0
 3304 00f3 00       		.byte	0
 3305 00f4 15       		.uleb128 0x15
 3306 00f5 05       		.uleb128 0x5
 3307 00f6 00       		.byte	0
 3308 00f7 03       		.uleb128 0x3
 3309 00f8 08       		.uleb128 0x8
 3310 00f9 3A       		.uleb128 0x3a
 3311 00fa 0B       		.uleb128 0xb
 3312 00fb 3B       		.uleb128 0x3b
 3313 00fc 0B       		.uleb128 0xb
 3314 00fd 49       		.uleb128 0x49
 3315 00fe 13       		.uleb128 0x13
 3316 00ff 00       		.byte	0
 3317 0100 00       		.byte	0
 3318 0101 16       		.uleb128 0x16
 3319 0102 05       		.uleb128 0x5
 3320 0103 00       		.byte	0
 3321 0104 03       		.uleb128 0x3
 3322 0105 0E       		.uleb128 0xe
 3323 0106 3A       		.uleb128 0x3a
 3324 0107 0B       		.uleb128 0xb
 3325 0108 3B       		.uleb128 0x3b
 3326 0109 0B       		.uleb128 0xb
ARM GAS  /tmp/ccENSE6T.s 			page 61


 3327 010a 49       		.uleb128 0x49
 3328 010b 13       		.uleb128 0x13
 3329 010c 00       		.byte	0
 3330 010d 00       		.byte	0
 3331 010e 17       		.uleb128 0x17
 3332 010f 2E       		.uleb128 0x2e
 3333 0110 01       		.byte	0x1
 3334 0111 03       		.uleb128 0x3
 3335 0112 0E       		.uleb128 0xe
 3336 0113 3A       		.uleb128 0x3a
 3337 0114 0B       		.uleb128 0xb
 3338 0115 3B       		.uleb128 0x3b
 3339 0116 0B       		.uleb128 0xb
 3340 0117 27       		.uleb128 0x27
 3341 0118 0C       		.uleb128 0xc
 3342 0119 49       		.uleb128 0x49
 3343 011a 13       		.uleb128 0x13
 3344 011b 20       		.uleb128 0x20
 3345 011c 0B       		.uleb128 0xb
 3346 011d 01       		.uleb128 0x1
 3347 011e 13       		.uleb128 0x13
 3348 011f 00       		.byte	0
 3349 0120 00       		.byte	0
 3350 0121 18       		.uleb128 0x18
 3351 0122 2E       		.uleb128 0x2e
 3352 0123 01       		.byte	0x1
 3353 0124 3F       		.uleb128 0x3f
 3354 0125 0C       		.uleb128 0xc
 3355 0126 03       		.uleb128 0x3
 3356 0127 0E       		.uleb128 0xe
 3357 0128 3A       		.uleb128 0x3a
 3358 0129 0B       		.uleb128 0xb
 3359 012a 3B       		.uleb128 0x3b
 3360 012b 0B       		.uleb128 0xb
 3361 012c 27       		.uleb128 0x27
 3362 012d 0C       		.uleb128 0xc
 3363 012e 49       		.uleb128 0x49
 3364 012f 13       		.uleb128 0x13
 3365 0130 20       		.uleb128 0x20
 3366 0131 0B       		.uleb128 0xb
 3367 0132 01       		.uleb128 0x1
 3368 0133 13       		.uleb128 0x13
 3369 0134 00       		.byte	0
 3370 0135 00       		.byte	0
 3371 0136 19       		.uleb128 0x19
 3372 0137 34       		.uleb128 0x34
 3373 0138 00       		.byte	0
 3374 0139 03       		.uleb128 0x3
 3375 013a 08       		.uleb128 0x8
 3376 013b 3A       		.uleb128 0x3a
 3377 013c 0B       		.uleb128 0xb
 3378 013d 3B       		.uleb128 0x3b
 3379 013e 0B       		.uleb128 0xb
 3380 013f 49       		.uleb128 0x49
 3381 0140 13       		.uleb128 0x13
 3382 0141 00       		.byte	0
 3383 0142 00       		.byte	0
ARM GAS  /tmp/ccENSE6T.s 			page 62


 3384 0143 1A       		.uleb128 0x1a
 3385 0144 0B       		.uleb128 0xb
 3386 0145 01       		.byte	0x1
 3387 0146 00       		.byte	0
 3388 0147 00       		.byte	0
 3389 0148 1B       		.uleb128 0x1b
 3390 0149 34       		.uleb128 0x34
 3391 014a 00       		.byte	0
 3392 014b 03       		.uleb128 0x3
 3393 014c 0E       		.uleb128 0xe
 3394 014d 3A       		.uleb128 0x3a
 3395 014e 0B       		.uleb128 0xb
 3396 014f 3B       		.uleb128 0x3b
 3397 0150 0B       		.uleb128 0xb
 3398 0151 49       		.uleb128 0x49
 3399 0152 13       		.uleb128 0x13
 3400 0153 00       		.byte	0
 3401 0154 00       		.byte	0
 3402 0155 1C       		.uleb128 0x1c
 3403 0156 2E       		.uleb128 0x2e
 3404 0157 01       		.byte	0x1
 3405 0158 31       		.uleb128 0x31
 3406 0159 13       		.uleb128 0x13
 3407 015a 11       		.uleb128 0x11
 3408 015b 01       		.uleb128 0x1
 3409 015c 12       		.uleb128 0x12
 3410 015d 01       		.uleb128 0x1
 3411 015e 40       		.uleb128 0x40
 3412 015f 0A       		.uleb128 0xa
 3413 0160 01       		.uleb128 0x1
 3414 0161 13       		.uleb128 0x13
 3415 0162 00       		.byte	0
 3416 0163 00       		.byte	0
 3417 0164 1D       		.uleb128 0x1d
 3418 0165 05       		.uleb128 0x5
 3419 0166 00       		.byte	0
 3420 0167 31       		.uleb128 0x31
 3421 0168 13       		.uleb128 0x13
 3422 0169 02       		.uleb128 0x2
 3423 016a 06       		.uleb128 0x6
 3424 016b 00       		.byte	0
 3425 016c 00       		.byte	0
 3426 016d 1E       		.uleb128 0x1e
 3427 016e 1D       		.uleb128 0x1d
 3428 016f 01       		.byte	0x1
 3429 0170 31       		.uleb128 0x31
 3430 0171 13       		.uleb128 0x13
 3431 0172 52       		.uleb128 0x52
 3432 0173 01       		.uleb128 0x1
 3433 0174 55       		.uleb128 0x55
 3434 0175 06       		.uleb128 0x6
 3435 0176 58       		.uleb128 0x58
 3436 0177 0B       		.uleb128 0xb
 3437 0178 59       		.uleb128 0x59
 3438 0179 0B       		.uleb128 0xb
 3439 017a 01       		.uleb128 0x1
 3440 017b 13       		.uleb128 0x13
ARM GAS  /tmp/ccENSE6T.s 			page 63


 3441 017c 00       		.byte	0
 3442 017d 00       		.byte	0
 3443 017e 1F       		.uleb128 0x1f
 3444 017f 1D       		.uleb128 0x1d
 3445 0180 01       		.byte	0x1
 3446 0181 31       		.uleb128 0x31
 3447 0182 13       		.uleb128 0x13
 3448 0183 52       		.uleb128 0x52
 3449 0184 01       		.uleb128 0x1
 3450 0185 55       		.uleb128 0x55
 3451 0186 06       		.uleb128 0x6
 3452 0187 58       		.uleb128 0x58
 3453 0188 0B       		.uleb128 0xb
 3454 0189 59       		.uleb128 0x59
 3455 018a 0B       		.uleb128 0xb
 3456 018b 00       		.byte	0
 3457 018c 00       		.byte	0
 3458 018d 20       		.uleb128 0x20
 3459 018e 0B       		.uleb128 0xb
 3460 018f 01       		.byte	0x1
 3461 0190 55       		.uleb128 0x55
 3462 0191 06       		.uleb128 0x6
 3463 0192 00       		.byte	0
 3464 0193 00       		.byte	0
 3465 0194 21       		.uleb128 0x21
 3466 0195 05       		.uleb128 0x5
 3467 0196 00       		.byte	0
 3468 0197 31       		.uleb128 0x31
 3469 0198 13       		.uleb128 0x13
 3470 0199 00       		.byte	0
 3471 019a 00       		.byte	0
 3472 019b 22       		.uleb128 0x22
 3473 019c 2E       		.uleb128 0x2e
 3474 019d 01       		.byte	0x1
 3475 019e 31       		.uleb128 0x31
 3476 019f 13       		.uleb128 0x13
 3477 01a0 11       		.uleb128 0x11
 3478 01a1 01       		.uleb128 0x1
 3479 01a2 12       		.uleb128 0x12
 3480 01a3 01       		.uleb128 0x1
 3481 01a4 40       		.uleb128 0x40
 3482 01a5 06       		.uleb128 0x6
 3483 01a6 01       		.uleb128 0x1
 3484 01a7 13       		.uleb128 0x13
 3485 01a8 00       		.byte	0
 3486 01a9 00       		.byte	0
 3487 01aa 23       		.uleb128 0x23
 3488 01ab 1D       		.uleb128 0x1d
 3489 01ac 01       		.byte	0x1
 3490 01ad 31       		.uleb128 0x31
 3491 01ae 13       		.uleb128 0x13
 3492 01af 11       		.uleb128 0x11
 3493 01b0 01       		.uleb128 0x1
 3494 01b1 12       		.uleb128 0x12
 3495 01b2 01       		.uleb128 0x1
 3496 01b3 58       		.uleb128 0x58
 3497 01b4 0B       		.uleb128 0xb
ARM GAS  /tmp/ccENSE6T.s 			page 64


 3498 01b5 59       		.uleb128 0x59
 3499 01b6 0B       		.uleb128 0xb
 3500 01b7 00       		.byte	0
 3501 01b8 00       		.byte	0
 3502 01b9 24       		.uleb128 0x24
 3503 01ba 05       		.uleb128 0x5
 3504 01bb 00       		.byte	0
 3505 01bc 31       		.uleb128 0x31
 3506 01bd 13       		.uleb128 0x13
 3507 01be 02       		.uleb128 0x2
 3508 01bf 0A       		.uleb128 0xa
 3509 01c0 00       		.byte	0
 3510 01c1 00       		.byte	0
 3511 01c2 25       		.uleb128 0x25
 3512 01c3 0B       		.uleb128 0xb
 3513 01c4 01       		.byte	0x1
 3514 01c5 11       		.uleb128 0x11
 3515 01c6 01       		.uleb128 0x1
 3516 01c7 12       		.uleb128 0x12
 3517 01c8 01       		.uleb128 0x1
 3518 01c9 00       		.byte	0
 3519 01ca 00       		.byte	0
 3520 01cb 26       		.uleb128 0x26
 3521 01cc 2E       		.uleb128 0x2e
 3522 01cd 01       		.byte	0x1
 3523 01ce 03       		.uleb128 0x3
 3524 01cf 0E       		.uleb128 0xe
 3525 01d0 3A       		.uleb128 0x3a
 3526 01d1 0B       		.uleb128 0xb
 3527 01d2 3B       		.uleb128 0x3b
 3528 01d3 0B       		.uleb128 0xb
 3529 01d4 27       		.uleb128 0x27
 3530 01d5 0C       		.uleb128 0xc
 3531 01d6 49       		.uleb128 0x49
 3532 01d7 13       		.uleb128 0x13
 3533 01d8 11       		.uleb128 0x11
 3534 01d9 01       		.uleb128 0x1
 3535 01da 12       		.uleb128 0x12
 3536 01db 01       		.uleb128 0x1
 3537 01dc 40       		.uleb128 0x40
 3538 01dd 06       		.uleb128 0x6
 3539 01de 01       		.uleb128 0x1
 3540 01df 13       		.uleb128 0x13
 3541 01e0 00       		.byte	0
 3542 01e1 00       		.byte	0
 3543 01e2 27       		.uleb128 0x27
 3544 01e3 05       		.uleb128 0x5
 3545 01e4 00       		.byte	0
 3546 01e5 03       		.uleb128 0x3
 3547 01e6 08       		.uleb128 0x8
 3548 01e7 3A       		.uleb128 0x3a
 3549 01e8 0B       		.uleb128 0xb
 3550 01e9 3B       		.uleb128 0x3b
 3551 01ea 0B       		.uleb128 0xb
 3552 01eb 49       		.uleb128 0x49
 3553 01ec 13       		.uleb128 0x13
 3554 01ed 02       		.uleb128 0x2
ARM GAS  /tmp/ccENSE6T.s 			page 65


 3555 01ee 06       		.uleb128 0x6
 3556 01ef 00       		.byte	0
 3557 01f0 00       		.byte	0
 3558 01f1 28       		.uleb128 0x28
 3559 01f2 34       		.uleb128 0x34
 3560 01f3 00       		.byte	0
 3561 01f4 03       		.uleb128 0x3
 3562 01f5 08       		.uleb128 0x8
 3563 01f6 3A       		.uleb128 0x3a
 3564 01f7 0B       		.uleb128 0xb
 3565 01f8 3B       		.uleb128 0x3b
 3566 01f9 0B       		.uleb128 0xb
 3567 01fa 49       		.uleb128 0x49
 3568 01fb 13       		.uleb128 0x13
 3569 01fc 02       		.uleb128 0x2
 3570 01fd 06       		.uleb128 0x6
 3571 01fe 00       		.byte	0
 3572 01ff 00       		.byte	0
 3573 0200 29       		.uleb128 0x29
 3574 0201 34       		.uleb128 0x34
 3575 0202 00       		.byte	0
 3576 0203 03       		.uleb128 0x3
 3577 0204 08       		.uleb128 0x8
 3578 0205 3A       		.uleb128 0x3a
 3579 0206 0B       		.uleb128 0xb
 3580 0207 3B       		.uleb128 0x3b
 3581 0208 0B       		.uleb128 0xb
 3582 0209 49       		.uleb128 0x49
 3583 020a 13       		.uleb128 0x13
 3584 020b 1C       		.uleb128 0x1c
 3585 020c 0B       		.uleb128 0xb
 3586 020d 00       		.byte	0
 3587 020e 00       		.byte	0
 3588 020f 2A       		.uleb128 0x2a
 3589 0210 34       		.uleb128 0x34
 3590 0211 00       		.byte	0
 3591 0212 03       		.uleb128 0x3
 3592 0213 0E       		.uleb128 0xe
 3593 0214 3A       		.uleb128 0x3a
 3594 0215 0B       		.uleb128 0xb
 3595 0216 3B       		.uleb128 0x3b
 3596 0217 0B       		.uleb128 0xb
 3597 0218 49       		.uleb128 0x49
 3598 0219 13       		.uleb128 0x13
 3599 021a 02       		.uleb128 0x2
 3600 021b 06       		.uleb128 0x6
 3601 021c 00       		.byte	0
 3602 021d 00       		.byte	0
 3603 021e 2B       		.uleb128 0x2b
 3604 021f 34       		.uleb128 0x34
 3605 0220 00       		.byte	0
 3606 0221 03       		.uleb128 0x3
 3607 0222 0E       		.uleb128 0xe
 3608 0223 3A       		.uleb128 0x3a
 3609 0224 0B       		.uleb128 0xb
 3610 0225 3B       		.uleb128 0x3b
 3611 0226 0B       		.uleb128 0xb
ARM GAS  /tmp/ccENSE6T.s 			page 66


 3612 0227 49       		.uleb128 0x49
 3613 0228 13       		.uleb128 0x13
 3614 0229 02       		.uleb128 0x2
 3615 022a 0A       		.uleb128 0xa
 3616 022b 00       		.byte	0
 3617 022c 00       		.byte	0
 3618 022d 2C       		.uleb128 0x2c
 3619 022e 34       		.uleb128 0x34
 3620 022f 00       		.byte	0
 3621 0230 31       		.uleb128 0x31
 3622 0231 13       		.uleb128 0x13
 3623 0232 02       		.uleb128 0x2
 3624 0233 06       		.uleb128 0x6
 3625 0234 00       		.byte	0
 3626 0235 00       		.byte	0
 3627 0236 2D       		.uleb128 0x2d
 3628 0237 05       		.uleb128 0x5
 3629 0238 00       		.byte	0
 3630 0239 31       		.uleb128 0x31
 3631 023a 13       		.uleb128 0x13
 3632 023b 1C       		.uleb128 0x1c
 3633 023c 0B       		.uleb128 0xb
 3634 023d 00       		.byte	0
 3635 023e 00       		.byte	0
 3636 023f 2E       		.uleb128 0x2e
 3637 0240 0B       		.uleb128 0xb
 3638 0241 01       		.byte	0x1
 3639 0242 11       		.uleb128 0x11
 3640 0243 01       		.uleb128 0x1
 3641 0244 12       		.uleb128 0x12
 3642 0245 01       		.uleb128 0x1
 3643 0246 01       		.uleb128 0x1
 3644 0247 13       		.uleb128 0x13
 3645 0248 00       		.byte	0
 3646 0249 00       		.byte	0
 3647 024a 2F       		.uleb128 0x2f
 3648 024b 1D       		.uleb128 0x1d
 3649 024c 01       		.byte	0x1
 3650 024d 31       		.uleb128 0x31
 3651 024e 13       		.uleb128 0x13
 3652 024f 11       		.uleb128 0x11
 3653 0250 01       		.uleb128 0x1
 3654 0251 12       		.uleb128 0x12
 3655 0252 01       		.uleb128 0x1
 3656 0253 58       		.uleb128 0x58
 3657 0254 0B       		.uleb128 0xb
 3658 0255 59       		.uleb128 0x59
 3659 0256 0B       		.uleb128 0xb
 3660 0257 01       		.uleb128 0x1
 3661 0258 13       		.uleb128 0x13
 3662 0259 00       		.byte	0
 3663 025a 00       		.byte	0
 3664 025b 30       		.uleb128 0x30
 3665 025c 01       		.uleb128 0x1
 3666 025d 01       		.byte	0x1
 3667 025e 49       		.uleb128 0x49
 3668 025f 13       		.uleb128 0x13
ARM GAS  /tmp/ccENSE6T.s 			page 67


 3669 0260 01       		.uleb128 0x1
 3670 0261 13       		.uleb128 0x13
 3671 0262 00       		.byte	0
 3672 0263 00       		.byte	0
 3673 0264 31       		.uleb128 0x31
 3674 0265 21       		.uleb128 0x21
 3675 0266 00       		.byte	0
 3676 0267 49       		.uleb128 0x49
 3677 0268 13       		.uleb128 0x13
 3678 0269 2F       		.uleb128 0x2f
 3679 026a 0B       		.uleb128 0xb
 3680 026b 00       		.byte	0
 3681 026c 00       		.byte	0
 3682 026d 32       		.uleb128 0x32
 3683 026e 2E       		.uleb128 0x2e
 3684 026f 00       		.byte	0
 3685 0270 3F       		.uleb128 0x3f
 3686 0271 0C       		.uleb128 0xc
 3687 0272 03       		.uleb128 0x3
 3688 0273 0E       		.uleb128 0xe
 3689 0274 3A       		.uleb128 0x3a
 3690 0275 0B       		.uleb128 0xb
 3691 0276 3B       		.uleb128 0x3b
 3692 0277 0B       		.uleb128 0xb
 3693 0278 27       		.uleb128 0x27
 3694 0279 0C       		.uleb128 0xc
 3695 027a 11       		.uleb128 0x11
 3696 027b 01       		.uleb128 0x1
 3697 027c 12       		.uleb128 0x12
 3698 027d 01       		.uleb128 0x1
 3699 027e 40       		.uleb128 0x40
 3700 027f 0A       		.uleb128 0xa
 3701 0280 00       		.byte	0
 3702 0281 00       		.byte	0
 3703 0282 33       		.uleb128 0x33
 3704 0283 2E       		.uleb128 0x2e
 3705 0284 01       		.byte	0x1
 3706 0285 3F       		.uleb128 0x3f
 3707 0286 0C       		.uleb128 0xc
 3708 0287 03       		.uleb128 0x3
 3709 0288 0E       		.uleb128 0xe
 3710 0289 3A       		.uleb128 0x3a
 3711 028a 0B       		.uleb128 0xb
 3712 028b 3B       		.uleb128 0x3b
 3713 028c 0B       		.uleb128 0xb
 3714 028d 27       		.uleb128 0x27
 3715 028e 0C       		.uleb128 0xc
 3716 028f 49       		.uleb128 0x49
 3717 0290 13       		.uleb128 0x13
 3718 0291 11       		.uleb128 0x11
 3719 0292 01       		.uleb128 0x1
 3720 0293 12       		.uleb128 0x12
 3721 0294 01       		.uleb128 0x1
 3722 0295 40       		.uleb128 0x40
 3723 0296 06       		.uleb128 0x6
 3724 0297 01       		.uleb128 0x1
 3725 0298 13       		.uleb128 0x13
ARM GAS  /tmp/ccENSE6T.s 			page 68


 3726 0299 00       		.byte	0
 3727 029a 00       		.byte	0
 3728 029b 34       		.uleb128 0x34
 3729 029c 05       		.uleb128 0x5
 3730 029d 00       		.byte	0
 3731 029e 03       		.uleb128 0x3
 3732 029f 0E       		.uleb128 0xe
 3733 02a0 3A       		.uleb128 0x3a
 3734 02a1 0B       		.uleb128 0xb
 3735 02a2 3B       		.uleb128 0x3b
 3736 02a3 0B       		.uleb128 0xb
 3737 02a4 49       		.uleb128 0x49
 3738 02a5 13       		.uleb128 0x13
 3739 02a6 02       		.uleb128 0x2
 3740 02a7 06       		.uleb128 0x6
 3741 02a8 00       		.byte	0
 3742 02a9 00       		.byte	0
 3743 02aa 35       		.uleb128 0x35
 3744 02ab 34       		.uleb128 0x34
 3745 02ac 00       		.byte	0
 3746 02ad 03       		.uleb128 0x3
 3747 02ae 0E       		.uleb128 0xe
 3748 02af 3A       		.uleb128 0x3a
 3749 02b0 0B       		.uleb128 0xb
 3750 02b1 3B       		.uleb128 0x3b
 3751 02b2 0B       		.uleb128 0xb
 3752 02b3 49       		.uleb128 0x49
 3753 02b4 13       		.uleb128 0x13
 3754 02b5 3F       		.uleb128 0x3f
 3755 02b6 0C       		.uleb128 0xc
 3756 02b7 3C       		.uleb128 0x3c
 3757 02b8 0C       		.uleb128 0xc
 3758 02b9 00       		.byte	0
 3759 02ba 00       		.byte	0
 3760 02bb 36       		.uleb128 0x36
 3761 02bc 34       		.uleb128 0x34
 3762 02bd 00       		.byte	0
 3763 02be 03       		.uleb128 0x3
 3764 02bf 0E       		.uleb128 0xe
 3765 02c0 3A       		.uleb128 0x3a
 3766 02c1 0B       		.uleb128 0xb
 3767 02c2 3B       		.uleb128 0x3b
 3768 02c3 05       		.uleb128 0x5
 3769 02c4 49       		.uleb128 0x49
 3770 02c5 13       		.uleb128 0x13
 3771 02c6 3F       		.uleb128 0x3f
 3772 02c7 0C       		.uleb128 0xc
 3773 02c8 3C       		.uleb128 0x3c
 3774 02c9 0C       		.uleb128 0xc
 3775 02ca 00       		.byte	0
 3776 02cb 00       		.byte	0
 3777 02cc 37       		.uleb128 0x37
 3778 02cd 34       		.uleb128 0x34
 3779 02ce 00       		.byte	0
 3780 02cf 03       		.uleb128 0x3
 3781 02d0 0E       		.uleb128 0xe
 3782 02d1 3A       		.uleb128 0x3a
ARM GAS  /tmp/ccENSE6T.s 			page 69


 3783 02d2 0B       		.uleb128 0xb
 3784 02d3 3B       		.uleb128 0x3b
 3785 02d4 0B       		.uleb128 0xb
 3786 02d5 49       		.uleb128 0x49
 3787 02d6 13       		.uleb128 0x13
 3788 02d7 3F       		.uleb128 0x3f
 3789 02d8 0C       		.uleb128 0xc
 3790 02d9 02       		.uleb128 0x2
 3791 02da 0A       		.uleb128 0xa
 3792 02db 00       		.byte	0
 3793 02dc 00       		.byte	0
 3794 02dd 00       		.byte	0
 3795              		.section	.debug_loc,"",%progbits
 3796              	.Ldebug_loc0:
 3797              	.LLST0:
 3798 0000 00000000 		.4byte	.LVL0
 3799 0004 0B000000 		.4byte	.LVL4-1
 3800 0008 0100     		.2byte	0x1
 3801 000a 50       		.byte	0x50
 3802 000b 0C000000 		.4byte	.LVL4
 3803 000f 15000000 		.4byte	.LVL7-1
 3804 0013 0100     		.2byte	0x1
 3805 0015 50       		.byte	0x50
 3806 0016 00000000 		.4byte	0
 3807 001a 00000000 		.4byte	0
 3808              	.LLST1:
 3809 001e 00000000 		.4byte	.LVL0
 3810 0022 06000000 		.4byte	.LVL2
 3811 0026 0100     		.2byte	0x1
 3812 0028 51       		.byte	0x51
 3813 0029 0C000000 		.4byte	.LVL4
 3814 002d 10000000 		.4byte	.LVL5
 3815 0031 0100     		.2byte	0x1
 3816 0033 51       		.byte	0x51
 3817 0034 00000000 		.4byte	0
 3818 0038 00000000 		.4byte	0
 3819              	.LLST2:
 3820 003c 00000000 		.4byte	.LVL0
 3821 0040 08000000 		.4byte	.LVL3
 3822 0044 0100     		.2byte	0x1
 3823 0046 52       		.byte	0x52
 3824 0047 0C000000 		.4byte	.LVL4
 3825 004b 12000000 		.4byte	.LVL6
 3826 004f 0100     		.2byte	0x1
 3827 0051 52       		.byte	0x52
 3828 0052 00000000 		.4byte	0
 3829 0056 00000000 		.4byte	0
 3830              	.LLST3:
 3831 005a 04000000 		.4byte	.LVL1
 3832 005e 0C000000 		.4byte	.LVL4
 3833 0062 0600     		.2byte	0x6
 3834 0064 03       		.byte	0x3
 3835 0065 0C000000 		.4byte	.LC1
 3836 0069 9F       		.byte	0x9f
 3837 006a 00000000 		.4byte	0
 3838 006e 00000000 		.4byte	0
 3839              	.LLST4:
ARM GAS  /tmp/ccENSE6T.s 			page 70


 3840 0072 04000000 		.4byte	.LVL1
 3841 0076 0B000000 		.4byte	.LVL4-1
 3842 007a 0100     		.2byte	0x1
 3843 007c 50       		.byte	0x50
 3844 007d 00000000 		.4byte	0
 3845 0081 00000000 		.4byte	0
 3846              	.LLST5:
 3847 0085 0C000000 		.4byte	.LVL4
 3848 0089 15000000 		.4byte	.LVL7-1
 3849 008d 0100     		.2byte	0x1
 3850 008f 50       		.byte	0x50
 3851 0090 00000000 		.4byte	0
 3852 0094 00000000 		.4byte	0
 3853              	.LLST6:
 3854 0098 00000000 		.4byte	.LFB66
 3855 009c 02000000 		.4byte	.LCFI0
 3856 00a0 0200     		.2byte	0x2
 3857 00a2 7D       		.byte	0x7d
 3858 00a3 00       		.sleb128 0
 3859 00a4 02000000 		.4byte	.LCFI0
 3860 00a8 06000000 		.4byte	.LCFI1
 3861 00ac 0200     		.2byte	0x2
 3862 00ae 7D       		.byte	0x7d
 3863 00af 08       		.sleb128 8
 3864 00b0 06000000 		.4byte	.LCFI1
 3865 00b4 C0000000 		.4byte	.LFE66
 3866 00b8 0200     		.2byte	0x2
 3867 00ba 7D       		.byte	0x7d
 3868 00bb 10       		.sleb128 16
 3869 00bc 00000000 		.4byte	0
 3870 00c0 00000000 		.4byte	0
 3871              	.LLST7:
 3872 00c4 00000000 		.4byte	.LVL8
 3873 00c8 17000000 		.4byte	.LVL12-1
 3874 00cc 0100     		.2byte	0x1
 3875 00ce 50       		.byte	0x50
 3876 00cf 17000000 		.4byte	.LVL12-1
 3877 00d3 C0000000 		.4byte	.LFE66
 3878 00d7 0100     		.2byte	0x1
 3879 00d9 54       		.byte	0x54
 3880 00da 00000000 		.4byte	0
 3881 00de 00000000 		.4byte	0
 3882              	.LLST8:
 3883 00e2 00000000 		.4byte	.LVL8
 3884 00e6 0C000000 		.4byte	.LVL10
 3885 00ea 0100     		.2byte	0x1
 3886 00ec 51       		.byte	0x51
 3887 00ed 18000000 		.4byte	.LVL12
 3888 00f1 1A000000 		.4byte	.LVL13
 3889 00f5 0100     		.2byte	0x1
 3890 00f7 51       		.byte	0x51
 3891 00f8 00000000 		.4byte	0
 3892 00fc 00000000 		.4byte	0
 3893              	.LLST9:
 3894 0100 00000000 		.4byte	.LVL8
 3895 0104 0E000000 		.4byte	.LVL11
 3896 0108 0100     		.2byte	0x1
ARM GAS  /tmp/ccENSE6T.s 			page 71


 3897 010a 52       		.byte	0x52
 3898 010b 18000000 		.4byte	.LVL12
 3899 010f 1C000000 		.4byte	.LVL14
 3900 0113 0100     		.2byte	0x1
 3901 0115 52       		.byte	0x52
 3902 0116 00000000 		.4byte	0
 3903 011a 00000000 		.4byte	0
 3904              	.LLST10:
 3905 011e 0A000000 		.4byte	.LVL9
 3906 0122 18000000 		.4byte	.LVL12
 3907 0126 0600     		.2byte	0x6
 3908 0128 03       		.byte	0x3
 3909 0129 1C000000 		.4byte	.LC3
 3910 012d 9F       		.byte	0x9f
 3911 012e 00000000 		.4byte	0
 3912 0132 00000000 		.4byte	0
 3913              	.LLST11:
 3914 0136 0A000000 		.4byte	.LVL9
 3915 013a 17000000 		.4byte	.LVL12-1
 3916 013e 0100     		.2byte	0x1
 3917 0140 50       		.byte	0x50
 3918 0141 17000000 		.4byte	.LVL12-1
 3919 0145 18000000 		.4byte	.LVL12
 3920 0149 0100     		.2byte	0x1
 3921 014b 54       		.byte	0x54
 3922 014c 00000000 		.4byte	0
 3923 0150 00000000 		.4byte	0
 3924              	.LLST12:
 3925 0154 00000000 		.4byte	.LFB69
 3926 0158 04000000 		.4byte	.LCFI2
 3927 015c 0200     		.2byte	0x2
 3928 015e 7D       		.byte	0x7d
 3929 015f 00       		.sleb128 0
 3930 0160 04000000 		.4byte	.LCFI2
 3931 0164 10000000 		.4byte	.LCFI3
 3932 0168 0200     		.2byte	0x2
 3933 016a 7D       		.byte	0x7d
 3934 016b 24       		.sleb128 36
 3935 016c 10000000 		.4byte	.LCFI3
 3936 0170 74030000 		.4byte	.LFE69
 3937 0174 0300     		.2byte	0x3
 3938 0176 7D       		.byte	0x7d
 3939 0177 8801     		.sleb128 136
 3940 0179 00000000 		.4byte	0
 3941 017d 00000000 		.4byte	0
 3942              	.LLST13:
 3943 0181 00000000 		.4byte	.LVL15
 3944 0185 0C000000 		.4byte	.LVL17
 3945 0189 0100     		.2byte	0x1
 3946 018b 50       		.byte	0x50
 3947 018c 00000000 		.4byte	0
 3948 0190 00000000 		.4byte	0
 3949              	.LLST14:
 3950 0194 08010000 		.4byte	.LVL40
 3951 0198 30010000 		.4byte	.LVL45
 3952 019c 0200     		.2byte	0x2
 3953 019e 30       		.byte	0x30
ARM GAS  /tmp/ccENSE6T.s 			page 72


 3954 019f 9F       		.byte	0x9f
 3955 01a0 60010000 		.4byte	.LVL47
 3956 01a4 64010000 		.4byte	.LVL48
 3957 01a8 0200     		.2byte	0x2
 3958 01aa 30       		.byte	0x30
 3959 01ab 9F       		.byte	0x9f
 3960 01ac 64010000 		.4byte	.LVL48
 3961 01b0 92010000 		.4byte	.LVL53
 3962 01b4 0200     		.2byte	0x2
 3963 01b6 31       		.byte	0x31
 3964 01b7 9F       		.byte	0x9f
 3965 01b8 92010000 		.4byte	.LVL53
 3966 01bc BE010000 		.4byte	.LVL57
 3967 01c0 0200     		.2byte	0x2
 3968 01c2 32       		.byte	0x32
 3969 01c3 9F       		.byte	0x9f
 3970 01c4 BE010000 		.4byte	.LVL57
 3971 01c8 E8010000 		.4byte	.LVL62
 3972 01cc 0200     		.2byte	0x2
 3973 01ce 33       		.byte	0x33
 3974 01cf 9F       		.byte	0x9f
 3975 01d0 E8010000 		.4byte	.LVL62
 3976 01d4 14020000 		.4byte	.LVL68
 3977 01d8 0200     		.2byte	0x2
 3978 01da 34       		.byte	0x34
 3979 01db 9F       		.byte	0x9f
 3980 01dc 14020000 		.4byte	.LVL68
 3981 01e0 18020000 		.4byte	.LVL69
 3982 01e4 0200     		.2byte	0x2
 3983 01e6 31       		.byte	0x31
 3984 01e7 9F       		.byte	0x9f
 3985 01e8 18020000 		.4byte	.LVL69
 3986 01ec 1C020000 		.4byte	.LVL70
 3987 01f0 0200     		.2byte	0x2
 3988 01f2 32       		.byte	0x32
 3989 01f3 9F       		.byte	0x9f
 3990 01f4 1C020000 		.4byte	.LVL70
 3991 01f8 20020000 		.4byte	.LVL71
 3992 01fc 0200     		.2byte	0x2
 3993 01fe 33       		.byte	0x33
 3994 01ff 9F       		.byte	0x9f
 3995 0200 20020000 		.4byte	.LVL71
 3996 0204 24020000 		.4byte	.LVL73
 3997 0208 0200     		.2byte	0x2
 3998 020a 34       		.byte	0x34
 3999 020b 9F       		.byte	0x9f
 4000 020c 00000000 		.4byte	0
 4001 0210 00000000 		.4byte	0
 4002              	.LLST15:
 4003 0214 08000000 		.4byte	.LVL16
 4004 0218 0C000000 		.4byte	.LVL17
 4005 021c 0200     		.2byte	0x2
 4006 021e 70       		.byte	0x70
 4007 021f 00       		.sleb128 0
 4008 0220 0C000000 		.4byte	.LVL17
 4009 0224 74030000 		.4byte	.LFE69
 4010 0228 0100     		.2byte	0x1
ARM GAS  /tmp/ccENSE6T.s 			page 73


 4011 022a 54       		.byte	0x54
 4012 022b 00000000 		.4byte	0
 4013 022f 00000000 		.4byte	0
 4014              	.LLST16:
 4015 0233 12000000 		.4byte	.LVL18
 4016 0237 16000000 		.4byte	.LVL19
 4017 023b 0100     		.2byte	0x1
 4018 023d 50       		.byte	0x50
 4019 023e 16000000 		.4byte	.LVL19
 4020 0242 74030000 		.4byte	.LFE69
 4021 0246 0300     		.2byte	0x3
 4022 0248 91       		.byte	0x91
 4023 0249 FC7E     		.sleb128 -132
 4024 024b 00000000 		.4byte	0
 4025 024f 00000000 		.4byte	0
 4026              	.LLST17:
 4027 0253 10020000 		.4byte	.LVL67
 4028 0257 14020000 		.4byte	.LVL68
 4029 025b 0200     		.2byte	0x2
 4030 025d 30       		.byte	0x30
 4031 025e 9F       		.byte	0x9f
 4032 025f 00000000 		.4byte	0
 4033 0263 00000000 		.4byte	0
 4034              	.LLST18:
 4035 0267 E4000000 		.4byte	.LVL36
 4036 026b F8000000 		.4byte	.LVL38
 4037 026f 0100     		.2byte	0x1
 4038 0271 56       		.byte	0x56
 4039 0272 F8000000 		.4byte	.LVL38
 4040 0276 FE000000 		.4byte	.LVL39
 4041 027a 0100     		.2byte	0x1
 4042 027c 50       		.byte	0x50
 4043 027d FE000000 		.4byte	.LVL39
 4044 0281 20010000 		.4byte	.LVL42
 4045 0285 0100     		.2byte	0x1
 4046 0287 55       		.byte	0x55
 4047 0288 20010000 		.4byte	.LVL42
 4048 028c 28010000 		.4byte	.LVL43
 4049 0290 0100     		.2byte	0x1
 4050 0292 50       		.byte	0x50
 4051 0293 28010000 		.4byte	.LVL43
 4052 0297 2E010000 		.4byte	.LVL44
 4053 029b 0100     		.2byte	0x1
 4054 029d 55       		.byte	0x55
 4055 029e 60010000 		.4byte	.LVL47
 4056 02a2 7E010000 		.4byte	.LVL50
 4057 02a6 0100     		.2byte	0x1
 4058 02a8 55       		.byte	0x55
 4059 02a9 7E010000 		.4byte	.LVL50
 4060 02ad 82010000 		.4byte	.LVL51
 4061 02b1 0100     		.2byte	0x1
 4062 02b3 50       		.byte	0x50
 4063 02b4 82010000 		.4byte	.LVL51
 4064 02b8 AC010000 		.4byte	.LVL55
 4065 02bc 0100     		.2byte	0x1
 4066 02be 55       		.byte	0x55
 4067 02bf AC010000 		.4byte	.LVL55
ARM GAS  /tmp/ccENSE6T.s 			page 74


 4068 02c3 B4010000 		.4byte	.LVL56
 4069 02c7 0100     		.2byte	0x1
 4070 02c9 50       		.byte	0x50
 4071 02ca B4010000 		.4byte	.LVL56
 4072 02ce D6010000 		.4byte	.LVL59
 4073 02d2 0100     		.2byte	0x1
 4074 02d4 55       		.byte	0x55
 4075 02d5 D6010000 		.4byte	.LVL59
 4076 02d9 DA010000 		.4byte	.LVL60
 4077 02dd 0100     		.2byte	0x1
 4078 02df 50       		.byte	0x50
 4079 02e0 DA010000 		.4byte	.LVL60
 4080 02e4 F4010000 		.4byte	.LVL63
 4081 02e8 0100     		.2byte	0x1
 4082 02ea 55       		.byte	0x55
 4083 02eb FC010000 		.4byte	.LVL64
 4084 02ef 02020000 		.4byte	.LVL65
 4085 02f3 0100     		.2byte	0x1
 4086 02f5 50       		.byte	0x50
 4087 02f6 00000000 		.4byte	0
 4088 02fa 00000000 		.4byte	0
 4089              	.LLST19:
 4090 02fe EA020000 		.4byte	.LVL84
 4091 0302 F2020000 		.4byte	.LVL85
 4092 0306 0600     		.2byte	0x6
 4093 0308 03       		.byte	0x3
 4094 0309 00000000 		.4byte	local_commands
 4095 030d 9F       		.byte	0x9f
 4096 030e 00000000 		.4byte	0
 4097 0312 00000000 		.4byte	0
 4098              	.LLST20:
 4099 0316 EA020000 		.4byte	.LVL84
 4100 031a 3C030000 		.4byte	.LVL88
 4101 031e 0100     		.2byte	0x1
 4102 0320 54       		.byte	0x54
 4103 0321 00000000 		.4byte	0
 4104 0325 00000000 		.4byte	0
 4105              	.LLST21:
 4106 0329 30020000 		.4byte	.LVL74
 4107 032d 3E020000 		.4byte	.LVL75
 4108 0331 0600     		.2byte	0x6
 4109 0333 03       		.byte	0x3
 4110 0334 00000000 		.4byte	local_commands
 4111 0338 9F       		.byte	0x9f
 4112 0339 3E020000 		.4byte	.LVL75
 4113 033d 42020000 		.4byte	.LVL76
 4114 0341 0300     		.2byte	0x3
 4115 0343 7A       		.byte	0x7a
 4116 0344 08       		.sleb128 8
 4117 0345 9F       		.byte	0x9f
 4118 0346 42020000 		.4byte	.LVL76
 4119 034a 50020000 		.4byte	.LVL77
 4120 034e 0100     		.2byte	0x1
 4121 0350 5A       		.byte	0x5a
 4122 0351 00000000 		.4byte	0
 4123 0355 00000000 		.4byte	0
 4124              	.LLST22:
ARM GAS  /tmp/ccENSE6T.s 			page 75


 4125 0359 34000000 		.4byte	.LVL22
 4126 035d 82000000 		.4byte	.LVL28
 4127 0361 0100     		.2byte	0x1
 4128 0363 55       		.byte	0x55
 4129 0364 A2000000 		.4byte	.LVL32
 4130 0368 F8000000 		.4byte	.LVL38
 4131 036c 0100     		.2byte	0x1
 4132 036e 55       		.byte	0x55
 4133 036f 00000000 		.4byte	0
 4134 0373 00000000 		.4byte	0
 4135              	.LLST23:
 4136 0377 26000000 		.4byte	.LVL20
 4137 037b 66000000 		.4byte	.LVL23
 4138 037f 0200     		.2byte	0x2
 4139 0381 91       		.byte	0x91
 4140 0382 54       		.sleb128 -44
 4141 0383 68000000 		.4byte	.LVL24
 4142 0387 70000000 		.4byte	.LVL26
 4143 038b 0100     		.2byte	0x1
 4144 038d 51       		.byte	0x51
 4145 038e 7A000000 		.4byte	.LVL27
 4146 0392 BE000000 		.4byte	.LVL33
 4147 0396 0200     		.2byte	0x2
 4148 0398 91       		.byte	0x91
 4149 0399 54       		.sleb128 -44
 4150 039a C8000000 		.4byte	.LVL35
 4151 039e 74030000 		.4byte	.LFE69
 4152 03a2 0200     		.2byte	0x2
 4153 03a4 91       		.byte	0x91
 4154 03a5 54       		.sleb128 -44
 4155 03a6 00000000 		.4byte	0
 4156 03aa 00000000 		.4byte	0
 4157              	.LLST24:
 4158 03ae 88000000 		.4byte	.LVL30
 4159 03b2 8B000000 		.4byte	.LVL31-1
 4160 03b6 0100     		.2byte	0x1
 4161 03b8 53       		.byte	0x53
 4162 03b9 00000000 		.4byte	0
 4163 03bd 00000000 		.4byte	0
 4164              	.LLST25:
 4165 03c1 E4000000 		.4byte	.LVL36
 4166 03c5 EC000000 		.4byte	.LVL37
 4167 03c9 0100     		.2byte	0x1
 4168 03cb 56       		.byte	0x56
 4169 03cc EC000000 		.4byte	.LVL37
 4170 03d0 08010000 		.4byte	.LVL40
 4171 03d4 0100     		.2byte	0x1
 4172 03d6 57       		.byte	0x57
 4173 03d7 00000000 		.4byte	0
 4174 03db 00000000 		.4byte	0
 4175              	.LLST26:
 4176 03df 08010000 		.4byte	.LVL40
 4177 03e3 16010000 		.4byte	.LVL41
 4178 03e7 0100     		.2byte	0x1
 4179 03e9 55       		.byte	0x55
 4180 03ea 16010000 		.4byte	.LVL41
 4181 03ee 2E010000 		.4byte	.LVL44
ARM GAS  /tmp/ccENSE6T.s 			page 76


 4182 03f2 0100     		.2byte	0x1
 4183 03f4 5A       		.byte	0x5a
 4184 03f5 60010000 		.4byte	.LVL47
 4185 03f9 64010000 		.4byte	.LVL48
 4186 03fd 0100     		.2byte	0x1
 4187 03ff 5A       		.byte	0x5a
 4188 0400 64010000 		.4byte	.LVL48
 4189 0404 74010000 		.4byte	.LVL49
 4190 0408 0100     		.2byte	0x1
 4191 040a 55       		.byte	0x55
 4192 040b 74010000 		.4byte	.LVL49
 4193 040f 92010000 		.4byte	.LVL53
 4194 0413 0100     		.2byte	0x1
 4195 0415 5A       		.byte	0x5a
 4196 0416 92010000 		.4byte	.LVL53
 4197 041a A2010000 		.4byte	.LVL54
 4198 041e 0100     		.2byte	0x1
 4199 0420 55       		.byte	0x55
 4200 0421 A2010000 		.4byte	.LVL54
 4201 0425 BE010000 		.4byte	.LVL57
 4202 0429 0100     		.2byte	0x1
 4203 042b 5A       		.byte	0x5a
 4204 042c BE010000 		.4byte	.LVL57
 4205 0430 CC010000 		.4byte	.LVL58
 4206 0434 0100     		.2byte	0x1
 4207 0436 55       		.byte	0x55
 4208 0437 CC010000 		.4byte	.LVL58
 4209 043b E8010000 		.4byte	.LVL62
 4210 043f 0100     		.2byte	0x1
 4211 0441 5A       		.byte	0x5a
 4212 0442 E8010000 		.4byte	.LVL62
 4213 0446 0C020000 		.4byte	.LVL66
 4214 044a 0100     		.2byte	0x1
 4215 044c 55       		.byte	0x55
 4216 044d 20020000 		.4byte	.LVL71
 4217 0451 22020000 		.4byte	.LVL72
 4218 0455 0100     		.2byte	0x1
 4219 0457 55       		.byte	0x55
 4220 0458 00000000 		.4byte	0
 4221 045c 00000000 		.4byte	0
 4222              	.LLST27:
 4223 0460 54010000 		.4byte	.LVL46
 4224 0464 60010000 		.4byte	.LVL47
 4225 0468 0600     		.2byte	0x6
 4226 046a 03       		.byte	0x3
 4227 046b FC010000 		.4byte	.LC30
 4228 046f 9F       		.byte	0x9f
 4229 0470 00000000 		.4byte	0
 4230 0474 00000000 		.4byte	0
 4231              	.LLST28:
 4232 0478 54010000 		.4byte	.LVL46
 4233 047c 60010000 		.4byte	.LVL47
 4234 0480 0100     		.2byte	0x1
 4235 0482 54       		.byte	0x54
 4236 0483 00000000 		.4byte	0
 4237 0487 00000000 		.4byte	0
 4238              	.LLST29:
ARM GAS  /tmp/ccENSE6T.s 			page 77


 4239 048b B4020000 		.4byte	.LVL80
 4240 048f C2020000 		.4byte	.LVL81
 4241 0493 0300     		.2byte	0x3
 4242 0495 91       		.byte	0x91
 4243 0496 FC7E     		.sleb128 -132
 4244 0498 C2020000 		.4byte	.LVL81
 4245 049c C8020000 		.4byte	.LVL82
 4246 04a0 0300     		.2byte	0x3
 4247 04a2 7A       		.byte	0x7a
 4248 04a3 08       		.sleb128 8
 4249 04a4 9F       		.byte	0x9f
 4250 04a5 C8020000 		.4byte	.LVL82
 4251 04a9 D8020000 		.4byte	.LVL83
 4252 04ad 0100     		.2byte	0x1
 4253 04af 5A       		.byte	0x5a
 4254 04b0 00000000 		.4byte	0
 4255 04b4 00000000 		.4byte	0
 4256              	.LLST30:
 4257 04b8 A4020000 		.4byte	.LVL78
 4258 04bc AE020000 		.4byte	.LVL79
 4259 04c0 0600     		.2byte	0x6
 4260 04c2 03       		.byte	0x3
 4261 04c3 04020000 		.4byte	.LC31
 4262 04c7 9F       		.byte	0x9f
 4263 04c8 00000000 		.4byte	0
 4264 04cc 00000000 		.4byte	0
 4265              	.LLST31:
 4266 04d0 A4020000 		.4byte	.LVL78
 4267 04d4 AE020000 		.4byte	.LVL79
 4268 04d8 0100     		.2byte	0x1
 4269 04da 54       		.byte	0x54
 4270 04db 00000000 		.4byte	0
 4271 04df 00000000 		.4byte	0
 4272              	.LLST32:
 4273 04e3 10030000 		.4byte	.LVL86
 4274 04e7 1A030000 		.4byte	.LVL87
 4275 04eb 0300     		.2byte	0x3
 4276 04ed 91       		.byte	0x91
 4277 04ee FC7E     		.sleb128 -132
 4278 04f0 00000000 		.4byte	0
 4279 04f4 00000000 		.4byte	0
 4280              	.LLST33:
 4281 04f8 00000000 		.4byte	.LFB71
 4282 04fc 02000000 		.4byte	.LCFI4
 4283 0500 0200     		.2byte	0x2
 4284 0502 7D       		.byte	0x7d
 4285 0503 00       		.sleb128 0
 4286 0504 02000000 		.4byte	.LCFI4
 4287 0508 0A000000 		.4byte	.LCFI5
 4288 050c 0200     		.2byte	0x2
 4289 050e 7D       		.byte	0x7d
 4290 050f 08       		.sleb128 8
 4291 0510 0A000000 		.4byte	.LCFI5
 4292 0514 1A000000 		.4byte	.LFE71
 4293 0518 0200     		.2byte	0x2
 4294 051a 7D       		.byte	0x7d
 4295 051b 10       		.sleb128 16
ARM GAS  /tmp/ccENSE6T.s 			page 78


 4296 051c 00000000 		.4byte	0
 4297 0520 00000000 		.4byte	0
 4298              	.LLST34:
 4299 0524 00000000 		.4byte	.LVL89
 4300 0528 10000000 		.4byte	.LVL90
 4301 052c 0100     		.2byte	0x1
 4302 052e 50       		.byte	0x50
 4303 052f 10000000 		.4byte	.LVL90
 4304 0533 1A000000 		.4byte	.LFE71
 4305 0537 0100     		.2byte	0x1
 4306 0539 54       		.byte	0x54
 4307 053a 00000000 		.4byte	0
 4308 053e 00000000 		.4byte	0
 4309              	.LLST35:
 4310 0542 00000000 		.4byte	.LVL89
 4311 0546 15000000 		.4byte	.LVL91-1
 4312 054a 0100     		.2byte	0x1
 4313 054c 51       		.byte	0x51
 4314 054d 00000000 		.4byte	0
 4315 0551 00000000 		.4byte	0
 4316              	.LLST36:
 4317 0555 00000000 		.4byte	.LVL89
 4318 0559 15000000 		.4byte	.LVL91-1
 4319 055d 0100     		.2byte	0x1
 4320 055f 52       		.byte	0x52
 4321 0560 00000000 		.4byte	0
 4322 0564 00000000 		.4byte	0
 4323              	.LLST37:
 4324 0568 00000000 		.4byte	.LFB72
 4325 056c 02000000 		.4byte	.LCFI6
 4326 0570 0200     		.2byte	0x2
 4327 0572 7D       		.byte	0x7d
 4328 0573 00       		.sleb128 0
 4329 0574 02000000 		.4byte	.LCFI6
 4330 0578 10000000 		.4byte	.LCFI7
 4331 057c 0200     		.2byte	0x2
 4332 057e 7D       		.byte	0x7d
 4333 057f 10       		.sleb128 16
 4334 0580 10000000 		.4byte	.LCFI7
 4335 0584 22000000 		.4byte	.LFE72
 4336 0588 0200     		.2byte	0x2
 4337 058a 7D       		.byte	0x7d
 4338 058b 18       		.sleb128 24
 4339 058c 00000000 		.4byte	0
 4340 0590 00000000 		.4byte	0
 4341              	.LLST38:
 4342 0594 00000000 		.4byte	.LVL92
 4343 0598 14000000 		.4byte	.LVL94
 4344 059c 0100     		.2byte	0x1
 4345 059e 50       		.byte	0x50
 4346 059f 14000000 		.4byte	.LVL94
 4347 05a3 22000000 		.4byte	.LFE72
 4348 05a7 0100     		.2byte	0x1
 4349 05a9 55       		.byte	0x55
 4350 05aa 00000000 		.4byte	0
 4351 05ae 00000000 		.4byte	0
 4352              	.LLST39:
ARM GAS  /tmp/ccENSE6T.s 			page 79


 4353 05b2 00000000 		.4byte	.LVL92
 4354 05b6 12000000 		.4byte	.LVL93
 4355 05ba 0100     		.2byte	0x1
 4356 05bc 51       		.byte	0x51
 4357 05bd 12000000 		.4byte	.LVL93
 4358 05c1 22000000 		.4byte	.LFE72
 4359 05c5 0100     		.2byte	0x1
 4360 05c7 56       		.byte	0x56
 4361 05c8 00000000 		.4byte	0
 4362 05cc 00000000 		.4byte	0
 4363              	.LLST40:
 4364 05d0 00000000 		.4byte	.LVL92
 4365 05d4 16000000 		.4byte	.LVL95
 4366 05d8 0100     		.2byte	0x1
 4367 05da 52       		.byte	0x52
 4368 05db 16000000 		.4byte	.LVL95
 4369 05df 1D000000 		.4byte	.LVL97-1
 4370 05e3 0100     		.2byte	0x1
 4371 05e5 51       		.byte	0x51
 4372 05e6 00000000 		.4byte	0
 4373 05ea 00000000 		.4byte	0
 4374              	.LLST41:
 4375 05ee 00000000 		.4byte	.LVL92
 4376 05f2 18000000 		.4byte	.LVL96
 4377 05f6 0100     		.2byte	0x1
 4378 05f8 53       		.byte	0x53
 4379 05f9 18000000 		.4byte	.LVL96
 4380 05fd 1D000000 		.4byte	.LVL97-1
 4381 0601 0100     		.2byte	0x1
 4382 0603 52       		.byte	0x52
 4383 0604 00000000 		.4byte	0
 4384 0608 00000000 		.4byte	0
 4385              	.LLST42:
 4386 060c 00000000 		.4byte	.LFB73
 4387 0610 02000000 		.4byte	.LCFI8
 4388 0614 0200     		.2byte	0x2
 4389 0616 7D       		.byte	0x7d
 4390 0617 00       		.sleb128 0
 4391 0618 02000000 		.4byte	.LCFI8
 4392 061c 06000000 		.4byte	.LCFI9
 4393 0620 0200     		.2byte	0x2
 4394 0622 7D       		.byte	0x7d
 4395 0623 14       		.sleb128 20
 4396 0624 06000000 		.4byte	.LCFI9
 4397 0628 A4000000 		.4byte	.LFE73
 4398 062c 0200     		.2byte	0x2
 4399 062e 7D       		.byte	0x7d
 4400 062f 20       		.sleb128 32
 4401 0630 00000000 		.4byte	0
 4402 0634 00000000 		.4byte	0
 4403              	.LLST43:
 4404 0638 00000000 		.4byte	.LVL98
 4405 063c 0E000000 		.4byte	.LVL100
 4406 0640 0100     		.2byte	0x1
 4407 0642 50       		.byte	0x50
 4408 0643 0E000000 		.4byte	.LVL100
 4409 0647 A4000000 		.4byte	.LFE73
ARM GAS  /tmp/ccENSE6T.s 			page 80


 4410 064b 0100     		.2byte	0x1
 4411 064d 54       		.byte	0x54
 4412 064e 00000000 		.4byte	0
 4413 0652 00000000 		.4byte	0
 4414              	.LLST44:
 4415 0656 00000000 		.4byte	.LVL98
 4416 065a 0E000000 		.4byte	.LVL100
 4417 065e 0100     		.2byte	0x1
 4418 0660 51       		.byte	0x51
 4419 0661 0E000000 		.4byte	.LVL100
 4420 0665 A4000000 		.4byte	.LFE73
 4421 0669 0100     		.2byte	0x1
 4422 066b 56       		.byte	0x56
 4423 066c 00000000 		.4byte	0
 4424 0670 00000000 		.4byte	0
 4425              	.LLST45:
 4426 0674 00000000 		.4byte	.LVL98
 4427 0678 0E000000 		.4byte	.LVL100
 4428 067c 0100     		.2byte	0x1
 4429 067e 52       		.byte	0x52
 4430 067f 00000000 		.4byte	0
 4431 0683 00000000 		.4byte	0
 4432              	.LLST46:
 4433 0687 08000000 		.4byte	.LVL99
 4434 068b 0E000000 		.4byte	.LVL100
 4435 068f 0100     		.2byte	0x1
 4436 0691 51       		.byte	0x51
 4437 0692 0E000000 		.4byte	.LVL100
 4438 0696 A4000000 		.4byte	.LFE73
 4439 069a 0100     		.2byte	0x1
 4440 069c 55       		.byte	0x55
 4441 069d 00000000 		.4byte	0
 4442 06a1 00000000 		.4byte	0
 4443              	.LLST47:
 4444 06a5 0E000000 		.4byte	.LVL100
 4445 06a9 40000000 		.4byte	.LVL101
 4446 06ad 0200     		.2byte	0x2
 4447 06af 91       		.byte	0x91
 4448 06b0 64       		.sleb128 -28
 4449 06b1 42000000 		.4byte	.LVL102
 4450 06b5 4A000000 		.4byte	.LVL104
 4451 06b9 0100     		.2byte	0x1
 4452 06bb 51       		.byte	0x51
 4453 06bc 54000000 		.4byte	.LVL105
 4454 06c0 76000000 		.4byte	.LVL106
 4455 06c4 0200     		.2byte	0x2
 4456 06c6 91       		.byte	0x91
 4457 06c7 64       		.sleb128 -28
 4458 06c8 80000000 		.4byte	.LVL108
 4459 06cc A4000000 		.4byte	.LFE73
 4460 06d0 0200     		.2byte	0x2
 4461 06d2 91       		.byte	0x91
 4462 06d3 64       		.sleb128 -28
 4463 06d4 00000000 		.4byte	0
 4464 06d8 00000000 		.4byte	0
 4465              		.section	.debug_aranges,"",%progbits
 4466 0000 4C000000 		.4byte	0x4c
ARM GAS  /tmp/ccENSE6T.s 			page 81


 4467 0004 0200     		.2byte	0x2
 4468 0006 00000000 		.4byte	.Ldebug_info0
 4469 000a 04       		.byte	0x4
 4470 000b 00       		.byte	0
 4471 000c 0000     		.2byte	0
 4472 000e 0000     		.2byte	0
 4473 0010 00000000 		.4byte	.LFB67
 4474 0014 28000000 		.4byte	.LFE67-.LFB67
 4475 0018 00000000 		.4byte	.LFB66
 4476 001c C0000000 		.4byte	.LFE66-.LFB66
 4477 0020 00000000 		.4byte	.LFB69
 4478 0024 74030000 		.4byte	.LFE69-.LFB69
 4479 0028 00000000 		.4byte	.LFB70
 4480 002c 0C000000 		.4byte	.LFE70-.LFB70
 4481 0030 00000000 		.4byte	.LFB71
 4482 0034 1A000000 		.4byte	.LFE71-.LFB71
 4483 0038 00000000 		.4byte	.LFB72
 4484 003c 22000000 		.4byte	.LFE72-.LFB72
 4485 0040 00000000 		.4byte	.LFB73
 4486 0044 A4000000 		.4byte	.LFE73-.LFB73
 4487 0048 00000000 		.4byte	0
 4488 004c 00000000 		.4byte	0
 4489              		.section	.debug_ranges,"",%progbits
 4490              	.Ldebug_ranges0:
 4491 0000 04000000 		.4byte	.LBB30
 4492 0004 08000000 		.4byte	.LBE30
 4493 0008 08000000 		.4byte	.LBB33
 4494 000c 0C000000 		.4byte	.LBE33
 4495 0010 00000000 		.4byte	0
 4496 0014 00000000 		.4byte	0
 4497 0018 0C000000 		.4byte	.LBB34
 4498 001c 12000000 		.4byte	.LBE34
 4499 0020 12000000 		.4byte	.LBB37
 4500 0024 28000000 		.4byte	.LBE37
 4501 0028 00000000 		.4byte	0
 4502 002c 00000000 		.4byte	0
 4503 0030 0C000000 		.4byte	.LBB35
 4504 0034 12000000 		.4byte	.LBE35
 4505 0038 12000000 		.4byte	.LBB36
 4506 003c 28000000 		.4byte	.LBE36
 4507 0040 00000000 		.4byte	0
 4508 0044 00000000 		.4byte	0
 4509 0048 0A000000 		.4byte	.LBB44
 4510 004c 0E000000 		.4byte	.LBE44
 4511 0050 14000000 		.4byte	.LBB47
 4512 0054 18000000 		.4byte	.LBE47
 4513 0058 00000000 		.4byte	0
 4514 005c 00000000 		.4byte	0
 4515 0060 1C000000 		.4byte	.LBB70
 4516 0064 22000000 		.4byte	.LBE70
 4517 0068 EA020000 		.4byte	.LBB115
 4518 006c 0C030000 		.4byte	.LBE115
 4519 0070 00000000 		.4byte	0
 4520 0074 00000000 		.4byte	0
 4521 0078 22000000 		.4byte	.LBB73
 4522 007c 26000000 		.4byte	.LBE73
 4523 0080 30020000 		.4byte	.LBB106
ARM GAS  /tmp/ccENSE6T.s 			page 82


 4524 0084 5A020000 		.4byte	.LBE106
 4525 0088 00000000 		.4byte	0
 4526 008c 00000000 		.4byte	0
 4527 0090 30000000 		.4byte	.LBB76
 4528 0094 7A000000 		.4byte	.LBE76
 4529 0098 A2000000 		.4byte	.LBB84
 4530 009c DE000000 		.4byte	.LBE84
 4531 00a0 E0000000 		.4byte	.LBB90
 4532 00a4 E4000000 		.4byte	.LBE90
 4533 00a8 00000000 		.4byte	0
 4534 00ac 00000000 		.4byte	0
 4535 00b0 30000000 		.4byte	.LBB77
 4536 00b4 7A000000 		.4byte	.LBE77
 4537 00b8 A2000000 		.4byte	.LBB81
 4538 00bc DE000000 		.4byte	.LBE81
 4539 00c0 E0000000 		.4byte	.LBB82
 4540 00c4 E4000000 		.4byte	.LBE82
 4541 00c8 00000000 		.4byte	0
 4542 00cc 00000000 		.4byte	0
 4543 00d0 30000000 		.4byte	.LBB78
 4544 00d4 7A000000 		.4byte	.LBE78
 4545 00d8 A2000000 		.4byte	.LBB79
 4546 00dc DE000000 		.4byte	.LBE79
 4547 00e0 E0000000 		.4byte	.LBB80
 4548 00e4 E4000000 		.4byte	.LBE80
 4549 00e8 00000000 		.4byte	0
 4550 00ec 00000000 		.4byte	0
 4551 00f0 DE000000 		.4byte	.LBB85
 4552 00f4 E0000000 		.4byte	.LBE85
 4553 00f8 E4000000 		.4byte	.LBB91
 4554 00fc 08010000 		.4byte	.LBE91
 4555 0100 2E010000 		.4byte	.LBB98
 4556 0104 30010000 		.4byte	.LBE98
 4557 0108 14020000 		.4byte	.LBB105
 4558 010c 24020000 		.4byte	.LBE105
 4559 0110 00000000 		.4byte	0
 4560 0114 00000000 		.4byte	0
 4561 0118 DE000000 		.4byte	.LBB86
 4562 011c E0000000 		.4byte	.LBE86
 4563 0120 E4000000 		.4byte	.LBB87
 4564 0124 08010000 		.4byte	.LBE87
 4565 0128 2E010000 		.4byte	.LBB88
 4566 012c 30010000 		.4byte	.LBE88
 4567 0130 14020000 		.4byte	.LBB89
 4568 0134 24020000 		.4byte	.LBE89
 4569 0138 00000000 		.4byte	0
 4570 013c 00000000 		.4byte	0
 4571 0140 08010000 		.4byte	.LBB92
 4572 0144 2E010000 		.4byte	.LBE92
 4573 0148 64010000 		.4byte	.LBB101
 4574 014c 8E010000 		.4byte	.LBE101
 4575 0150 92010000 		.4byte	.LBB102
 4576 0154 BA010000 		.4byte	.LBE102
 4577 0158 BE010000 		.4byte	.LBB103
 4578 015c E4010000 		.4byte	.LBE103
 4579 0160 E8010000 		.4byte	.LBB104
 4580 0164 06020000 		.4byte	.LBE104
ARM GAS  /tmp/ccENSE6T.s 			page 83


 4581 0168 00000000 		.4byte	0
 4582 016c 00000000 		.4byte	0
 4583 0170 08010000 		.4byte	.LBB93
 4584 0174 2E010000 		.4byte	.LBE93
 4585 0178 64010000 		.4byte	.LBB94
 4586 017c 8E010000 		.4byte	.LBE94
 4587 0180 92010000 		.4byte	.LBB95
 4588 0184 BA010000 		.4byte	.LBE95
 4589 0188 BE010000 		.4byte	.LBB96
 4590 018c E4010000 		.4byte	.LBE96
 4591 0190 E8010000 		.4byte	.LBB97
 4592 0194 06020000 		.4byte	.LBE97
 4593 0198 00000000 		.4byte	0
 4594 019c 00000000 		.4byte	0
 4595 01a0 5A020000 		.4byte	.LBB107
 4596 01a4 A0020000 		.4byte	.LBE107
 4597 01a8 B4020000 		.4byte	.LBB114
 4598 01ac E4020000 		.4byte	.LBE114
 4599 01b0 00000000 		.4byte	0
 4600 01b4 00000000 		.4byte	0
 4601 01b8 A0020000 		.4byte	.LBB110
 4602 01bc A2020000 		.4byte	.LBE110
 4603 01c0 A4020000 		.4byte	.LBB113
 4604 01c4 AC020000 		.4byte	.LBE113
 4605 01c8 00000000 		.4byte	0
 4606 01cc 00000000 		.4byte	0
 4607 01d0 02000000 		.4byte	.LBB118
 4608 01d4 04000000 		.4byte	.LBE118
 4609 01d8 0C000000 		.4byte	.LBB119
 4610 01dc 56000000 		.4byte	.LBE119
 4611 01e0 5A000000 		.4byte	.LBB120
 4612 01e4 A4000000 		.4byte	.LBE120
 4613 01e8 00000000 		.4byte	0
 4614 01ec 00000000 		.4byte	0
 4615 01f0 00000000 		.4byte	.LFB67
 4616 01f4 28000000 		.4byte	.LFE67
 4617 01f8 00000000 		.4byte	.LFB66
 4618 01fc C0000000 		.4byte	.LFE66
 4619 0200 00000000 		.4byte	.LFB69
 4620 0204 74030000 		.4byte	.LFE69
 4621 0208 00000000 		.4byte	.LFB70
 4622 020c 0C000000 		.4byte	.LFE70
 4623 0210 00000000 		.4byte	.LFB71
 4624 0214 1A000000 		.4byte	.LFE71
 4625 0218 00000000 		.4byte	.LFB72
 4626 021c 22000000 		.4byte	.LFE72
 4627 0220 00000000 		.4byte	.LFB73
 4628 0224 A4000000 		.4byte	.LFE73
 4629 0228 00000000 		.4byte	0
 4630 022c 00000000 		.4byte	0
 4631              		.section	.debug_line,"",%progbits
 4632              	.Ldebug_line0:
 4633 0000 37040000 		.section	.debug_str,"MS",%progbits,1
 4633      02004202 
 4633      00000201 
 4633      FB0E0D00 
 4633      01010101 
ARM GAS  /tmp/ccENSE6T.s 			page 84


 4634              	.LASF10:
 4635 0000 73697A65 		.ascii	"size_t\000"
 4635      5F7400
 4636              	.LASF14:
 4637 0007 75696E74 		.ascii	"uint64_t\000"
 4637      36345F74 
 4637      00
 4638              	.LASF114:
 4639 0010 76746C69 		.ascii	"vtlist\000"
 4639      737400
 4640              	.LASF68:
 4641 0017 52656164 		.ascii	"ReadyList\000"
 4641      794C6973 
 4641      7400
 4642              	.LASF6:
 4643 0021 6C6F6E67 		.ascii	"long long unsigned int\000"
 4643      206C6F6E 
 4643      6720756E 
 4643      7369676E 
 4643      65642069 
 4644              	.LASF81:
 4645 0038 65786974 		.ascii	"exitcode\000"
 4645      636F6465 
 4645      00
 4646              	.LASF116:
 4647 0041 49544D5F 		.ascii	"ITM_RxBuffer\000"
 4647      52784275 
 4647      66666572 
 4647      00
 4648              	.LASF99:
 4649 004e 636D645F 		.ascii	"cmd_info\000"
 4649      696E666F 
 4649      00
 4650              	.LASF29:
 4651 0057 705F7072 		.ascii	"p_prio\000"
 4651      696F00
 4652              	.LASF5:
 4653 005e 6C6F6E67 		.ascii	"long long int\000"
 4653      206C6F6E 
 4653      6720696E 
 4653      7400
 4654              	.LASF0:
 4655 006c 7369676E 		.ascii	"signed char\000"
 4655      65642063 
 4655      68617200 
 4656              	.LASF46:
 4657 0078 705F6D70 		.ascii	"p_mpool\000"
 4657      6F6F6C00 
 4658              	.LASF15:
 4659 0080 626F6F6C 		.ascii	"bool_t\000"
 4659      5F7400
 4660              	.LASF70:
 4661 0087 6D5F7175 		.ascii	"m_queue\000"
 4661      65756500 
 4662              	.LASF92:
 4663 008f 73635F63 		.ascii	"sc_channel\000"
 4663      68616E6E 
ARM GAS  /tmp/ccENSE6T.s 			page 85


 4663      656C00
 4664              	.LASF20:
 4665 009a 74736C69 		.ascii	"tslices_t\000"
 4665      6365735F 
 4665      7400
 4666              	.LASF7:
 4667 00a4 6C6F6E67 		.ascii	"long int\000"
 4667      20696E74 
 4667      00
 4668              	.LASF119:
 4669 00ad 474E5520 		.ascii	"GNU C 4.6.2 20120613 (release) [ARM/embedded-4_6-br"
 4669      4320342E 
 4669      362E3220 
 4669      32303132 
 4669      30363133 
 4670 00e0 616E6368 		.ascii	"anch revision 188521]\000"
 4670      20726576 
 4670      6973696F 
 4670      6E203138 
 4670      38353231 
 4671              	.LASF121:
 4672 00f6 2F686F6D 		.ascii	"/home/tino/workspace/openrobots/R2P_IR_module/fw\000"
 4672      652F7469 
 4672      6E6F2F77 
 4672      6F726B73 
 4672      70616365 
 4673              	.LASF18:
 4674 0127 74737461 		.ascii	"tstate_t\000"
 4674      74655F74 
 4674      00
 4675              	.LASF37:
 4676 0130 705F7265 		.ascii	"p_refs\000"
 4676      667300
 4677              	.LASF39:
 4678 0137 705F7469 		.ascii	"p_time\000"
 4678      6D6500
 4679              	.LASF109:
 4680 013e 746F6B70 		.ascii	"tokp\000"
 4680      00
 4681              	.LASF31:
 4682 0143 705F6E65 		.ascii	"p_newer\000"
 4682      77657200 
 4683              	.LASF102:
 4684 014b 6C696E65 		.ascii	"line\000"
 4684      00
 4685              	.LASF65:
 4686 0150 725F6E65 		.ascii	"r_newer\000"
 4686      77657200 
 4687              	.LASF49:
 4688 0158 72656761 		.ascii	"regarm_t\000"
 4688      726D5F74 
 4688      00
 4689              	.LASF56:
 4690 0161 76745F70 		.ascii	"vt_prev\000"
 4690      72657600 
 4691              	.LASF122:
 4692 0169 7368656C 		.ascii	"shellGetLine\000"
ARM GAS  /tmp/ccENSE6T.s 			page 86


 4692      6C476574 
 4692      4C696E65 
 4692      00
 4693              	.LASF89:
 4694 0176 73635F6E 		.ascii	"sc_name\000"
 4694      616D6500 
 4695              	.LASF78:
 4696 017e 4576656E 		.ascii	"EventSource\000"
 4696      74536F75 
 4696      72636500 
 4697              	.LASF87:
 4698 018a 42617365 		.ascii	"BaseSequentialStream\000"
 4698      53657175 
 4698      656E7469 
 4698      616C5374 
 4698      7265616D 
 4699              	.LASF34:
 4700 019f 705F7374 		.ascii	"p_stklimit\000"
 4700      6B6C696D 
 4700      697400
 4701              	.LASF4:
 4702 01aa 756E7369 		.ascii	"unsigned int\000"
 4702      676E6564 
 4702      20696E74 
 4702      00
 4703              	.LASF55:
 4704 01b7 76745F6E 		.ascii	"vt_next\000"
 4704      65787400 
 4705              	.LASF93:
 4706 01bf 73635F63 		.ascii	"sc_commands\000"
 4706      6F6D6D61 
 4706      6E647300 
 4707              	.LASF41:
 4708 01cb 705F6D73 		.ascii	"p_msgqueue\000"
 4708      67717565 
 4708      756500
 4709              	.LASF101:
 4710 01d6 6E616D65 		.ascii	"name\000"
 4710      00
 4711              	.LASF54:
 4712 01db 56697274 		.ascii	"VirtualTimer\000"
 4712      75616C54 
 4712      696D6572 
 4712      00
 4713              	.LASF112:
 4714 01e8 7368656C 		.ascii	"shellCreate\000"
 4714      6C437265 
 4714      61746500 
 4715              	.LASF103:
 4716 01f4 73697A65 		.ascii	"size\000"
 4716      00
 4717              	.LASF3:
 4718 01f9 73686F72 		.ascii	"short unsigned int\000"
 4718      7420756E 
 4718      7369676E 
 4718      65642069 
 4718      6E7400
ARM GAS  /tmp/ccENSE6T.s 			page 87


 4719              	.LASF22:
 4720 020c 6D73675F 		.ascii	"msg_t\000"
 4720      7400
 4721              	.LASF74:
 4722 0212 656C5F6E 		.ascii	"el_next\000"
 4722      65787400 
 4723              	.LASF120:
 4724 021a 2E2E2F2E 		.ascii	"../../ChibiOS/os/various/shell.c\000"
 4724      2E2F4368 
 4724      6962694F 
 4724      532F6F73 
 4724      2F766172 
 4725              	.LASF17:
 4726 023b 746D6F64 		.ascii	"tmode_t\000"
 4726      655F7400 
 4727              	.LASF48:
 4728 0243 54687265 		.ascii	"ThreadsList\000"
 4728      6164734C 
 4728      69737400 
 4729              	.LASF23:
 4730 024f 6576656E 		.ascii	"eventmask_t\000"
 4730      746D6173 
 4730      6B5F7400 
 4731              	.LASF50:
 4732 025b 73746B61 		.ascii	"stkalign_t\000"
 4732      6C69676E 
 4732      5F7400
 4733              	.LASF85:
 4734 0266 77726974 		.ascii	"write\000"
 4734      6500
 4735              	.LASF57:
 4736 026c 76745F74 		.ascii	"vt_time\000"
 4736      696D6500 
 4737              	.LASF40:
 4738 0274 705F7761 		.ascii	"p_waiting\000"
 4738      6974696E 
 4738      6700
 4739              	.LASF69:
 4740 027e 4D757465 		.ascii	"Mutex\000"
 4740      7800
 4741              	.LASF88:
 4742 0284 7368656C 		.ascii	"shellcmd_t\000"
 4742      6C636D64 
 4742      5F7400
 4743              	.LASF76:
 4744 028f 656C5F6D 		.ascii	"el_mask\000"
 4744      61736B00 
 4745              	.LASF32:
 4746 0297 705F6F6C 		.ascii	"p_older\000"
 4746      64657200 
 4747              	.LASF64:
 4748 029f 725F6374 		.ascii	"r_ctx\000"
 4748      7800
 4749              	.LASF113:
 4750 02a5 7368656C 		.ascii	"shellCreateStatic\000"
 4750      6C437265 
 4750      61746553 
ARM GAS  /tmp/ccENSE6T.s 			page 88


 4750      74617469 
 4750      6300
 4751              	.LASF47:
 4752 02b7 54687265 		.ascii	"ThreadsQueue\000"
 4752      61647351 
 4752      75657565 
 4752      00
 4753              	.LASF118:
 4754 02c4 6C6F6361 		.ascii	"local_commands\000"
 4754      6C5F636F 
 4754      6D6D616E 
 4754      647300
 4755              	.LASF111:
 4756 02d3 7072696F 		.ascii	"prio\000"
 4756      00
 4757              	.LASF66:
 4758 02d8 725F6F6C 		.ascii	"r_older\000"
 4758      64657200 
 4759              	.LASF108:
 4760 02e0 746F6B65 		.ascii	"token\000"
 4760      6E00
 4761              	.LASF19:
 4762 02e6 74726566 		.ascii	"trefs_t\000"
 4762      735F7400 
 4763              	.LASF107:
 4764 02ee 73617665 		.ascii	"saveptr\000"
 4764      70747200 
 4765              	.LASF28:
 4766 02f6 705F7072 		.ascii	"p_prev\000"
 4766      657600
 4767              	.LASF21:
 4768 02fd 74707269 		.ascii	"tprio_t\000"
 4768      6F5F7400 
 4769              	.LASF105:
 4770 0305 5F737472 		.ascii	"_strtok\000"
 4770      746F6B00 
 4771              	.LASF16:
 4772 030d 5F426F6F 		.ascii	"_Bool\000"
 4772      6C00
 4773              	.LASF12:
 4774 0313 696E7433 		.ascii	"int32_t\000"
 4774      325F7400 
 4775              	.LASF1:
 4776 031b 756E7369 		.ascii	"unsigned char\000"
 4776      676E6564 
 4776      20636861 
 4776      7200
 4777              	.LASF75:
 4778 0329 656C5F6C 		.ascii	"el_listener\000"
 4778      69737465 
 4778      6E657200 
 4779              	.LASF77:
 4780 0335 656C5F66 		.ascii	"el_flags\000"
 4780      6C616773 
 4780      00
 4781              	.LASF44:
 4782 033e 705F6D74 		.ascii	"p_mtxlist\000"
ARM GAS  /tmp/ccENSE6T.s 			page 89


 4782      786C6973 
 4782      7400
 4783              	.LASF2:
 4784 0348 73686F72 		.ascii	"short int\000"
 4784      7420696E 
 4784      7400
 4785              	.LASF35:
 4786 0352 705F7374 		.ascii	"p_state\000"
 4786      61746500 
 4787              	.LASF38:
 4788 035a 705F7072 		.ascii	"p_preempt\000"
 4788      65656D70 
 4788      7400
 4789              	.LASF104:
 4790 0364 636D6465 		.ascii	"cmdexec\000"
 4790      78656300 
 4791              	.LASF63:
 4792 036c 725F7072 		.ascii	"r_prio\000"
 4792      696F00
 4793              	.LASF83:
 4794 0373 65776D61 		.ascii	"ewmask\000"
 4794      736B00
 4795              	.LASF27:
 4796 037a 705F6E65 		.ascii	"p_next\000"
 4796      787400
 4797              	.LASF106:
 4798 0381 64656C69 		.ascii	"delim\000"
 4798      6D00
 4799              	.LASF84:
 4800 0387 42617365 		.ascii	"BaseSequentialStreamVMT\000"
 4800      53657175 
 4800      656E7469 
 4800      616C5374 
 4800      7265616D 
 4801              	.LASF36:
 4802 039f 705F666C 		.ascii	"p_flags\000"
 4802      61677300 
 4803              	.LASF26:
 4804 03a7 54687265 		.ascii	"Thread\000"
 4804      616400
 4805              	.LASF43:
 4806 03ae 705F6570 		.ascii	"p_epending\000"
 4806      656E6469 
 4806      6E6700
 4807              	.LASF13:
 4808 03b9 75696E74 		.ascii	"uint32_t\000"
 4808      33325F74 
 4808      00
 4809              	.LASF62:
 4810 03c2 725F7175 		.ascii	"r_queue\000"
 4810      65756500 
 4811              	.LASF60:
 4812 03ca 76745F73 		.ascii	"vt_systime\000"
 4812      79737469 
 4812      6D6500
 4813              	.LASF8:
 4814 03d5 6C6F6E67 		.ascii	"long unsigned int\000"
ARM GAS  /tmp/ccENSE6T.s 			page 90


 4814      20756E73 
 4814      69676E65 
 4814      6420696E 
 4814      7400
 4815              	.LASF67:
 4816 03e7 725F6375 		.ascii	"r_current\000"
 4816      7272656E 
 4816      7400
 4817              	.LASF86:
 4818 03f1 72656164 		.ascii	"read\000"
 4818      00
 4819              	.LASF9:
 4820 03f6 63686172 		.ascii	"char\000"
 4820      00
 4821              	.LASF117:
 4822 03fb 7368656C 		.ascii	"shell_terminated\000"
 4822      6C5F7465 
 4822      726D696E 
 4822      61746564 
 4822      00
 4823              	.LASF124:
 4824 040c 7368656C 		.ascii	"shellInit\000"
 4824      6C496E69 
 4824      7400
 4825              	.LASF72:
 4826 0416 6D5F6E65 		.ascii	"m_next\000"
 4826      787400
 4827              	.LASF25:
 4828 041d 73797374 		.ascii	"systime_t\000"
 4828      696D655F 
 4828      7400
 4829              	.LASF45:
 4830 0427 705F7265 		.ascii	"p_realprio\000"
 4830      616C7072 
 4830      696F00
 4831              	.LASF53:
 4832 0432 76746675 		.ascii	"vtfunc_t\000"
 4832      6E635F74 
 4832      00
 4833              	.LASF94:
 4834 043b 5368656C 		.ascii	"ShellConfig\000"
 4834      6C436F6E 
 4834      66696700 
 4835              	.LASF33:
 4836 0447 705F6E61 		.ascii	"p_name\000"
 4836      6D6500
 4837              	.LASF52:
 4838 044e 636F6E74 		.ascii	"context\000"
 4838      65787400 
 4839              	.LASF96:
 4840 0456 636D645F 		.ascii	"cmd_systime\000"
 4840      73797374 
 4840      696D6500 
 4841              	.LASF51:
 4842 0462 696E7463 		.ascii	"intctx\000"
 4842      747800
 4843              	.LASF95:
ARM GAS  /tmp/ccENSE6T.s 			page 91


 4844 0469 75736167 		.ascii	"usage\000"
 4844      6500
 4845              	.LASF91:
 4846 046f 5368656C 		.ascii	"ShellCommand\000"
 4846      6C436F6D 
 4846      6D616E64 
 4846      00
 4847              	.LASF59:
 4848 047c 76745F70 		.ascii	"vt_par\000"
 4848      617200
 4849              	.LASF24:
 4850 0483 666C6167 		.ascii	"flagsmask_t\000"
 4850      736D6173 
 4850      6B5F7400 
 4851              	.LASF80:
 4852 048f 7264796D 		.ascii	"rdymsg\000"
 4852      736700
 4853              	.LASF79:
 4854 0496 65735F6E 		.ascii	"es_next\000"
 4854      65787400 
 4855              	.LASF123:
 4856 049e 7368656C 		.ascii	"shell_thread\000"
 4856      6C5F7468 
 4856      72656164 
 4856      00
 4857              	.LASF115:
 4858 04ab 726C6973 		.ascii	"rlist\000"
 4858      7400
 4859              	.LASF11:
 4860 04b1 75696E74 		.ascii	"uint8_t\000"
 4860      385F7400 
 4861              	.LASF90:
 4862 04b9 73635F66 		.ascii	"sc_function\000"
 4862      756E6374 
 4862      696F6E00 
 4863              	.LASF73:
 4864 04c5 4576656E 		.ascii	"EventListener\000"
 4864      744C6973 
 4864      74656E65 
 4864      7200
 4865              	.LASF82:
 4866 04d3 77746F62 		.ascii	"wtobjp\000"
 4866      6A7000
 4867              	.LASF97:
 4868 04da 61726763 		.ascii	"argc\000"
 4868      00
 4869              	.LASF100:
 4870 04df 6C697374 		.ascii	"list_commands\000"
 4870      5F636F6D 
 4870      6D616E64 
 4870      7300
 4871              	.LASF42:
 4872 04ed 705F6D73 		.ascii	"p_msg\000"
 4872      6700
 4873              	.LASF61:
 4874 04f3 56544C69 		.ascii	"VTList\000"
 4874      737400
ARM GAS  /tmp/ccENSE6T.s 			page 92


 4875              	.LASF110:
 4876 04fa 61726773 		.ascii	"args\000"
 4876      00
 4877              	.LASF98:
 4878 04ff 61726776 		.ascii	"argv\000"
 4878      00
 4879              	.LASF71:
 4880 0504 6D5F6F77 		.ascii	"m_owner\000"
 4880      6E657200 
 4881              	.LASF30:
 4882 050c 705F6374 		.ascii	"p_ctx\000"
 4882      7800
 4883              	.LASF58:
 4884 0512 76745F66 		.ascii	"vt_func\000"
 4884      756E6300 
 4885              		.ident	"GCC: (GNU Tools for ARM Embedded Processors) 4.6.2 20120613 (release) [ARM/embedded-4_6-br
ARM GAS  /tmp/ccENSE6T.s 			page 93


DEFINED SYMBOLS
                            *ABS*:00000000 shell.c
     /tmp/ccENSE6T.s:19     .text.cmd_systime:00000000 $t
     /tmp/ccENSE6T.s:24     .text.cmd_systime:00000000 cmd_systime
     /tmp/ccENSE6T.s:74     .text.cmd_systime:00000018 $d
     /tmp/ccENSE6T.s:84     .text.cmd_info:00000000 $t
     /tmp/ccENSE6T.s:89     .text.cmd_info:00000000 cmd_info
     /tmp/ccENSE6T.s:186    .text.cmd_info:00000070 $d
     /tmp/ccENSE6T.s:210    .text.shell_thread:00000000 $t
     /tmp/ccENSE6T.s:215    .text.shell_thread:00000000 shell_thread
     /tmp/ccENSE6T.s:744    .text.shell_thread:00000268 $d
     /tmp/ccENSE6T.s:764    .text.shell_thread:000002a0 $t
     /tmp/ccENSE6T.s:900    .text.shell_thread:00000350 $d
     /tmp/ccENSE6T.s:913    .text.shellInit:00000000 $t
     /tmp/ccENSE6T.s:919    .text.shellInit:00000000 shellInit
     /tmp/ccENSE6T.s:1296   .bss.shell_terminated:00000000 .LANCHOR1
     /tmp/ccENSE6T.s:936    .text.shellCreate:00000000 $t
     /tmp/ccENSE6T.s:942    .text.shellCreate:00000000 shellCreate
     /tmp/ccENSE6T.s:975    .text.shellCreateStatic:00000000 $t
     /tmp/ccENSE6T.s:981    .text.shellCreateStatic:00000000 shellCreateStatic
     /tmp/ccENSE6T.s:1025   .text.shellGetLine:00000000 $t
     /tmp/ccENSE6T.s:1031   .text.shellGetLine:00000000 shellGetLine
     /tmp/ccENSE6T.s:1171   .text.shellGetLine:0000009c $d
     /tmp/ccENSE6T.s:1299   .bss.shell_terminated:00000000 shell_terminated
     /tmp/ccENSE6T.s:1179   .data.local_commands:00000000 $d
     /tmp/ccENSE6T.s:1183   .data.local_commands:00000000 local_commands
     /tmp/ccENSE6T.s:1191   .rodata.str1.4:00000000 $d
     /tmp/ccENSE6T.s:1295   .bss.shell_terminated:00000000 $d
                     .debug_frame:00000010 $d
     /tmp/ccENSE6T.s:83     .text.cmd_systime:00000028 $t
     /tmp/ccENSE6T.s:912    .text.shell_thread:00000374 $t
     /tmp/ccENSE6T.s:1178   .text.shellGetLine:000000a4 $t

UNDEFINED SYMBOLS
chprintf
vtlist
dbg_check_lock
chEvtBroadcastFlagsI
chThdExitS
strspn
strpbrk
strcasecmp
rlist
chThdCreateFromHeap
chThdCreateStatic
