ARM GAS  /tmp/ccgRtdwN.s 			page 1


   1              		.syntax unified
   2              		.cpu cortex-m3
   3              		.fpu softvfp
   4              		.eabi_attribute 20, 1
   5              		.eabi_attribute 21, 1
   6              		.eabi_attribute 23, 3
   7              		.eabi_attribute 24, 1
   8              		.eabi_attribute 25, 1
   9              		.eabi_attribute 26, 1
  10              		.eabi_attribute 30, 2
  11              		.eabi_attribute 34, 1
  12              		.eabi_attribute 18, 4
  13              		.thumb
  14              		.file	"stm32_dma.c"
  15              		.text
  16              	.Ltext0:
  17              		.cfi_sections	.debug_frame
  18              		.section	.text.Vector6C,"ax",%progbits
  19              		.align	2
  20              		.p2align 4,,15
  21              		.global	Vector6C
  22              		.thumb
  23              		.thumb_func
  24              		.type	Vector6C, %function
  25              	Vector6C:
  26              	.LFB63:
  27              		.file 1 "../../ChibiOS/os/hal/platforms/STM32F1xx/stm32_dma.c"
  28              		.loc 1 126 0
  29              		.cfi_startproc
  30              		@ args = 0, pretend = 0, frame = 0
  31              		@ frame_needed = 0, uses_anonymous_args = 0
  32 0000 10B5     		push	{r4, lr}
  33              	.LCFI0:
  34              		.cfi_def_cfa_offset 8
  35              		.cfi_offset 14, -4
  36              		.cfi_offset 4, -8
  37              		.loc 1 129 0
  38 0002 FFF7FEFF 		bl	dbg_check_enter_isr
  39              		.loc 1 133 0
  40 0006 0948     		ldr	r0, .L4
  41              		.loc 1 131 0
  42 0008 0022     		movs	r2, #0
  43              		.loc 1 133 0
  44 000a 0368     		ldr	r3, [r0, #0]
  45              		.loc 1 131 0
  46 000c C4F20202 		movt	r2, 16386
  47              		.loc 1 132 0
  48 0010 0F24     		movs	r4, #15
  49              		.loc 1 131 0
  50 0012 1168     		ldr	r1, [r2, #0]
  51              	.LVL0:
  52              		.loc 1 132 0
  53 0014 5460     		str	r4, [r2, #4]
  54              		.loc 1 133 0
  55 0016 13B1     		cbz	r3, .L2
  56              		.loc 1 134 0
  57 0018 4068     		ldr	r0, [r0, #4]
ARM GAS  /tmp/ccgRtdwN.s 			page 2


  58              		.loc 1 131 0
  59 001a 2140     		ands	r1, r1, r4
  60              	.LVL1:
  61              		.loc 1 134 0
  62 001c 9847     		blx	r3
  63              	.LVL2:
  64              	.L2:
  65              		.loc 1 136 0
  66 001e FFF7FEFF 		bl	dbg_check_leave_isr
  67              		.loc 1 137 0
  68 0022 BDE81040 		pop	{r4, lr}
  69              		.loc 1 136 0
  70 0026 FFF7FEBF 		b	_port_irq_epilogue
  71              	.L5:
  72 002a 00BF     		.align	2
  73              	.L4:
  74 002c 00000000 		.word	.LANCHOR0
  75              		.cfi_endproc
  76              	.LFE63:
  77              		.size	Vector6C, .-Vector6C
  78              		.section	.text.Vector70,"ax",%progbits
  79              		.align	2
  80              		.p2align 4,,15
  81              		.global	Vector70
  82              		.thumb
  83              		.thumb_func
  84              		.type	Vector70, %function
  85              	Vector70:
  86              	.LFB64:
  87              		.loc 1 144 0
  88              		.cfi_startproc
  89              		@ args = 0, pretend = 0, frame = 0
  90              		@ frame_needed = 0, uses_anonymous_args = 0
  91 0000 10B5     		push	{r4, lr}
  92              	.LCFI1:
  93              		.cfi_def_cfa_offset 8
  94              		.cfi_offset 14, -4
  95              		.cfi_offset 4, -8
  96              		.loc 1 147 0
  97 0002 FFF7FEFF 		bl	dbg_check_enter_isr
  98              		.loc 1 151 0
  99 0006 0948     		ldr	r0, .L8
 100              		.loc 1 149 0
 101 0008 0022     		movs	r2, #0
 102              		.loc 1 151 0
 103 000a 8368     		ldr	r3, [r0, #8]
 104              		.loc 1 149 0
 105 000c C4F20202 		movt	r2, 16386
 106              		.loc 1 150 0
 107 0010 F024     		movs	r4, #240
 108              		.loc 1 149 0
 109 0012 1168     		ldr	r1, [r2, #0]
 110              	.LVL3:
 111              		.loc 1 150 0
 112 0014 5460     		str	r4, [r2, #4]
 113              		.loc 1 151 0
 114 0016 1BB1     		cbz	r3, .L7
ARM GAS  /tmp/ccgRtdwN.s 			page 3


 115              		.loc 1 152 0
 116 0018 C068     		ldr	r0, [r0, #12]
 117              		.loc 1 149 0
 118 001a C1F30311 		ubfx	r1, r1, #4, #4
 119              	.LVL4:
 120              		.loc 1 152 0
 121 001e 9847     		blx	r3
 122              	.L7:
 123              		.loc 1 154 0
 124 0020 FFF7FEFF 		bl	dbg_check_leave_isr
 125              		.loc 1 155 0
 126 0024 BDE81040 		pop	{r4, lr}
 127              		.loc 1 154 0
 128 0028 FFF7FEBF 		b	_port_irq_epilogue
 129              	.L9:
 130              		.align	2
 131              	.L8:
 132 002c 00000000 		.word	.LANCHOR0
 133              		.cfi_endproc
 134              	.LFE64:
 135              		.size	Vector70, .-Vector70
 136              		.section	.text.Vector74,"ax",%progbits
 137              		.align	2
 138              		.p2align 4,,15
 139              		.global	Vector74
 140              		.thumb
 141              		.thumb_func
 142              		.type	Vector74, %function
 143              	Vector74:
 144              	.LFB65:
 145              		.loc 1 162 0
 146              		.cfi_startproc
 147              		@ args = 0, pretend = 0, frame = 0
 148              		@ frame_needed = 0, uses_anonymous_args = 0
 149 0000 10B5     		push	{r4, lr}
 150              	.LCFI2:
 151              		.cfi_def_cfa_offset 8
 152              		.cfi_offset 14, -4
 153              		.cfi_offset 4, -8
 154              		.loc 1 165 0
 155 0002 FFF7FEFF 		bl	dbg_check_enter_isr
 156              		.loc 1 169 0
 157 0006 0A48     		ldr	r0, .L12
 158              		.loc 1 167 0
 159 0008 0022     		movs	r2, #0
 160              		.loc 1 169 0
 161 000a 0369     		ldr	r3, [r0, #16]
 162              		.loc 1 167 0
 163 000c C4F20202 		movt	r2, 16386
 164              		.loc 1 168 0
 165 0010 4FF47064 		mov	r4, #3840
 166              		.loc 1 167 0
 167 0014 1168     		ldr	r1, [r2, #0]
 168              	.LVL5:
 169              		.loc 1 168 0
 170 0016 5460     		str	r4, [r2, #4]
 171              		.loc 1 169 0
ARM GAS  /tmp/ccgRtdwN.s 			page 4


 172 0018 1BB1     		cbz	r3, .L11
 173              		.loc 1 170 0
 174 001a 4069     		ldr	r0, [r0, #20]
 175              		.loc 1 167 0
 176 001c C1F30321 		ubfx	r1, r1, #8, #4
 177              	.LVL6:
 178              		.loc 1 170 0
 179 0020 9847     		blx	r3
 180              	.L11:
 181              		.loc 1 172 0
 182 0022 FFF7FEFF 		bl	dbg_check_leave_isr
 183              		.loc 1 173 0
 184 0026 BDE81040 		pop	{r4, lr}
 185              		.loc 1 172 0
 186 002a FFF7FEBF 		b	_port_irq_epilogue
 187              	.L13:
 188 002e 00BF     		.align	2
 189              	.L12:
 190 0030 00000000 		.word	.LANCHOR0
 191              		.cfi_endproc
 192              	.LFE65:
 193              		.size	Vector74, .-Vector74
 194 0034 AFF30080 		.section	.text.Vector78,"ax",%progbits
 194      AFF30080 
 194      AFF30080 
 195              		.align	2
 196              		.p2align 4,,15
 197              		.global	Vector78
 198              		.thumb
 199              		.thumb_func
 200              		.type	Vector78, %function
 201              	Vector78:
 202              	.LFB66:
 203              		.loc 1 180 0
 204              		.cfi_startproc
 205              		@ args = 0, pretend = 0, frame = 0
 206              		@ frame_needed = 0, uses_anonymous_args = 0
 207 0000 10B5     		push	{r4, lr}
 208              	.LCFI3:
 209              		.cfi_def_cfa_offset 8
 210              		.cfi_offset 14, -4
 211              		.cfi_offset 4, -8
 212              		.loc 1 183 0
 213 0002 FFF7FEFF 		bl	dbg_check_enter_isr
 214              		.loc 1 187 0
 215 0006 0A48     		ldr	r0, .L16
 216              		.loc 1 185 0
 217 0008 0022     		movs	r2, #0
 218              		.loc 1 187 0
 219 000a 8369     		ldr	r3, [r0, #24]
 220              		.loc 1 185 0
 221 000c C4F20202 		movt	r2, 16386
 222              		.loc 1 186 0
 223 0010 4FF47044 		mov	r4, #61440
 224              		.loc 1 185 0
 225 0014 1168     		ldr	r1, [r2, #0]
 226              	.LVL7:
ARM GAS  /tmp/ccgRtdwN.s 			page 5


 227              		.loc 1 186 0
 228 0016 5460     		str	r4, [r2, #4]
 229              		.loc 1 187 0
 230 0018 1BB1     		cbz	r3, .L15
 231              		.loc 1 188 0
 232 001a C069     		ldr	r0, [r0, #28]
 233              		.loc 1 185 0
 234 001c C1F30331 		ubfx	r1, r1, #12, #4
 235              	.LVL8:
 236              		.loc 1 188 0
 237 0020 9847     		blx	r3
 238              	.L15:
 239              		.loc 1 190 0
 240 0022 FFF7FEFF 		bl	dbg_check_leave_isr
 241              		.loc 1 191 0
 242 0026 BDE81040 		pop	{r4, lr}
 243              		.loc 1 190 0
 244 002a FFF7FEBF 		b	_port_irq_epilogue
 245              	.L17:
 246 002e 00BF     		.align	2
 247              	.L16:
 248 0030 00000000 		.word	.LANCHOR0
 249              		.cfi_endproc
 250              	.LFE66:
 251              		.size	Vector78, .-Vector78
 252 0034 AFF30080 		.section	.text.Vector7C,"ax",%progbits
 252      AFF30080 
 252      AFF30080 
 253              		.align	2
 254              		.p2align 4,,15
 255              		.global	Vector7C
 256              		.thumb
 257              		.thumb_func
 258              		.type	Vector7C, %function
 259              	Vector7C:
 260              	.LFB67:
 261              		.loc 1 198 0
 262              		.cfi_startproc
 263              		@ args = 0, pretend = 0, frame = 0
 264              		@ frame_needed = 0, uses_anonymous_args = 0
 265 0000 10B5     		push	{r4, lr}
 266              	.LCFI4:
 267              		.cfi_def_cfa_offset 8
 268              		.cfi_offset 14, -4
 269              		.cfi_offset 4, -8
 270              		.loc 1 201 0
 271 0002 FFF7FEFF 		bl	dbg_check_enter_isr
 272              		.loc 1 205 0
 273 0006 0A48     		ldr	r0, .L20
 274              		.loc 1 203 0
 275 0008 0022     		movs	r2, #0
 276              		.loc 1 205 0
 277 000a 036A     		ldr	r3, [r0, #32]
 278              		.loc 1 203 0
 279 000c C4F20202 		movt	r2, 16386
 280              		.loc 1 204 0
 281 0010 4FF47024 		mov	r4, #983040
ARM GAS  /tmp/ccgRtdwN.s 			page 6


 282              		.loc 1 203 0
 283 0014 1168     		ldr	r1, [r2, #0]
 284              	.LVL9:
 285              		.loc 1 204 0
 286 0016 5460     		str	r4, [r2, #4]
 287              		.loc 1 205 0
 288 0018 1BB1     		cbz	r3, .L19
 289              		.loc 1 206 0
 290 001a 406A     		ldr	r0, [r0, #36]
 291              		.loc 1 203 0
 292 001c C1F30341 		ubfx	r1, r1, #16, #4
 293              	.LVL10:
 294              		.loc 1 206 0
 295 0020 9847     		blx	r3
 296              	.L19:
 297              		.loc 1 208 0
 298 0022 FFF7FEFF 		bl	dbg_check_leave_isr
 299              		.loc 1 209 0
 300 0026 BDE81040 		pop	{r4, lr}
 301              		.loc 1 208 0
 302 002a FFF7FEBF 		b	_port_irq_epilogue
 303              	.L21:
 304 002e 00BF     		.align	2
 305              	.L20:
 306 0030 00000000 		.word	.LANCHOR0
 307              		.cfi_endproc
 308              	.LFE67:
 309              		.size	Vector7C, .-Vector7C
 310 0034 AFF30080 		.section	.text.Vector80,"ax",%progbits
 310      AFF30080 
 310      AFF30080 
 311              		.align	2
 312              		.p2align 4,,15
 313              		.global	Vector80
 314              		.thumb
 315              		.thumb_func
 316              		.type	Vector80, %function
 317              	Vector80:
 318              	.LFB68:
 319              		.loc 1 216 0
 320              		.cfi_startproc
 321              		@ args = 0, pretend = 0, frame = 0
 322              		@ frame_needed = 0, uses_anonymous_args = 0
 323 0000 10B5     		push	{r4, lr}
 324              	.LCFI5:
 325              		.cfi_def_cfa_offset 8
 326              		.cfi_offset 14, -4
 327              		.cfi_offset 4, -8
 328              		.loc 1 219 0
 329 0002 FFF7FEFF 		bl	dbg_check_enter_isr
 330              		.loc 1 223 0
 331 0006 0A48     		ldr	r0, .L24
 332              		.loc 1 221 0
 333 0008 0022     		movs	r2, #0
 334              		.loc 1 223 0
 335 000a 836A     		ldr	r3, [r0, #40]
 336              		.loc 1 221 0
ARM GAS  /tmp/ccgRtdwN.s 			page 7


 337 000c C4F20202 		movt	r2, 16386
 338              		.loc 1 222 0
 339 0010 4FF47004 		mov	r4, #15728640
 340              		.loc 1 221 0
 341 0014 1168     		ldr	r1, [r2, #0]
 342              	.LVL11:
 343              		.loc 1 222 0
 344 0016 5460     		str	r4, [r2, #4]
 345              		.loc 1 223 0
 346 0018 1BB1     		cbz	r3, .L23
 347              		.loc 1 224 0
 348 001a C06A     		ldr	r0, [r0, #44]
 349              		.loc 1 221 0
 350 001c C1F30351 		ubfx	r1, r1, #20, #4
 351              	.LVL12:
 352              		.loc 1 224 0
 353 0020 9847     		blx	r3
 354              	.L23:
 355              		.loc 1 226 0
 356 0022 FFF7FEFF 		bl	dbg_check_leave_isr
 357              		.loc 1 227 0
 358 0026 BDE81040 		pop	{r4, lr}
 359              		.loc 1 226 0
 360 002a FFF7FEBF 		b	_port_irq_epilogue
 361              	.L25:
 362 002e 00BF     		.align	2
 363              	.L24:
 364 0030 00000000 		.word	.LANCHOR0
 365              		.cfi_endproc
 366              	.LFE68:
 367              		.size	Vector80, .-Vector80
 368 0034 AFF30080 		.section	.text.Vector84,"ax",%progbits
 368      AFF30080 
 368      AFF30080 
 369              		.align	2
 370              		.p2align 4,,15
 371              		.global	Vector84
 372              		.thumb
 373              		.thumb_func
 374              		.type	Vector84, %function
 375              	Vector84:
 376              	.LFB69:
 377              		.loc 1 234 0
 378              		.cfi_startproc
 379              		@ args = 0, pretend = 0, frame = 0
 380              		@ frame_needed = 0, uses_anonymous_args = 0
 381 0000 10B5     		push	{r4, lr}
 382              	.LCFI6:
 383              		.cfi_def_cfa_offset 8
 384              		.cfi_offset 14, -4
 385              		.cfi_offset 4, -8
 386              		.loc 1 237 0
 387 0002 FFF7FEFF 		bl	dbg_check_enter_isr
 388              		.loc 1 241 0
 389 0006 0A48     		ldr	r0, .L28
 390              		.loc 1 239 0
 391 0008 0022     		movs	r2, #0
ARM GAS  /tmp/ccgRtdwN.s 			page 8


 392              		.loc 1 241 0
 393 000a 036B     		ldr	r3, [r0, #48]
 394              		.loc 1 239 0
 395 000c C4F20202 		movt	r2, 16386
 396              		.loc 1 240 0
 397 0010 4FF07064 		mov	r4, #251658240
 398              		.loc 1 239 0
 399 0014 1168     		ldr	r1, [r2, #0]
 400              	.LVL13:
 401              		.loc 1 240 0
 402 0016 5460     		str	r4, [r2, #4]
 403              		.loc 1 241 0
 404 0018 1BB1     		cbz	r3, .L27
 405              		.loc 1 242 0
 406 001a 406B     		ldr	r0, [r0, #52]
 407              		.loc 1 239 0
 408 001c C1F30361 		ubfx	r1, r1, #24, #4
 409              	.LVL14:
 410              		.loc 1 242 0
 411 0020 9847     		blx	r3
 412              	.L27:
 413              		.loc 1 244 0
 414 0022 FFF7FEFF 		bl	dbg_check_leave_isr
 415              		.loc 1 245 0
 416 0026 BDE81040 		pop	{r4, lr}
 417              		.loc 1 244 0
 418 002a FFF7FEBF 		b	_port_irq_epilogue
 419              	.L29:
 420 002e 00BF     		.align	2
 421              	.L28:
 422 0030 00000000 		.word	.LANCHOR0
 423              		.cfi_endproc
 424              	.LFE69:
 425              		.size	Vector84, .-Vector84
 426 0034 AFF30080 		.section	.text.dmaInit,"ax",%progbits
 426      AFF30080 
 426      AFF30080 
 427              		.align	2
 428              		.p2align 4,,15
 429              		.global	dmaInit
 430              		.thumb
 431              		.thumb_func
 432              		.type	dmaInit, %function
 433              	dmaInit:
 434              	.LFB70:
 435              		.loc 1 381 0
 436              		.cfi_startproc
 437              		@ args = 0, pretend = 0, frame = 0
 438              		@ frame_needed = 0, uses_anonymous_args = 0
 439              		@ link register save eliminated.
 440 0000 2DE9F003 		push	{r4, r5, r6, r7, r8, r9}
 441              	.LCFI7:
 442              		.cfi_def_cfa_offset 24
 443              		.cfi_offset 9, -4
 444              		.cfi_offset 8, -8
 445              		.cfi_offset 7, -12
 446              		.cfi_offset 6, -16
ARM GAS  /tmp/ccgRtdwN.s 			page 9


 447              		.cfi_offset 5, -20
 448              		.cfi_offset 4, -24
 449              		.loc 1 389 0
 450 0004 0020     		movs	r0, #0
 451              		.loc 1 384 0
 452 0006 40F20001 		movw	r1, #:lower16:.LANCHOR1
 453              		.loc 1 386 0
 454 000a 4FF00809 		mov	r9, #8
 455              		.loc 1 387 0
 456 000e 40F20002 		movw	r2, #:lower16:.LANCHOR0
 457              		.loc 1 386 0
 458 0012 4FF01C08 		mov	r8, #28
 459 0016 4FF0300C 		mov	ip, #48
 460 001a 4427     		movs	r7, #68
 461 001c 5826     		movs	r6, #88
 462 001e 6C25     		movs	r5, #108
 463 0020 8024     		movs	r4, #128
 464              		.loc 1 384 0
 465 0022 0346     		mov	r3, r0
 466              		.loc 1 387 0
 467 0024 C0F20002 		movt	r2, #:upper16:.LANCHOR0
 468              		.loc 1 384 0
 469 0028 C0F20001 		movt	r1, #:upper16:.LANCHOR1
 470              		.loc 1 386 0
 471 002c C4F20209 		movt	r9, 16386
 472 0030 C4F20208 		movt	r8, 16386
 473 0034 C4F2020C 		movt	ip, 16386
 474 0038 C4F20207 		movt	r7, 16386
 475 003c C4F20206 		movt	r6, 16386
 476 0040 C4F20205 		movt	r5, 16386
 477 0044 C4F20204 		movt	r4, 16386
 478              		.loc 1 384 0
 479 0048 0B60     		str	r3, [r1, #0]
 480              	.LVL15:
 481              		.loc 1 389 0
 482 004a C4F20200 		movt	r0, 16386
 483              		.loc 1 386 0
 484 004e C9F80030 		str	r3, [r9, #0]
 485              		.loc 1 387 0
 486 0052 1360     		str	r3, [r2, #0]
 487              	.LVL16:
 488              		.loc 1 386 0
 489 0054 C8F80030 		str	r3, [r8, #0]
 490              		.loc 1 387 0
 491 0058 9360     		str	r3, [r2, #8]
 492              	.LVL17:
 493              		.loc 1 386 0
 494 005a CCF80030 		str	r3, [ip, #0]
 495              		.loc 1 387 0
 496 005e 1361     		str	r3, [r2, #16]
 497              	.LVL18:
 498              		.loc 1 386 0
 499 0060 3B60     		str	r3, [r7, #0]
 500              		.loc 1 387 0
 501 0062 9361     		str	r3, [r2, #24]
 502              	.LVL19:
 503              		.loc 1 386 0
ARM GAS  /tmp/ccgRtdwN.s 			page 10


 504 0064 3360     		str	r3, [r6, #0]
 505              		.loc 1 387 0
 506 0066 1362     		str	r3, [r2, #32]
 507              	.LVL20:
 508              		.loc 1 386 0
 509 0068 2B60     		str	r3, [r5, #0]
 510              		.loc 1 387 0
 511 006a 9362     		str	r3, [r2, #40]
 512              	.LVL21:
 513              		.loc 1 386 0
 514 006c 2360     		str	r3, [r4, #0]
 515              		.loc 1 387 0
 516 006e 1363     		str	r3, [r2, #48]
 517              	.LVL22:
 518              		.loc 1 389 0
 519 0070 4FF0FF33 		mov	r3, #-1
 520 0074 4360     		str	r3, [r0, #4]
 521              		.loc 1 393 0
 522 0076 BDE8F003 		pop	{r4, r5, r6, r7, r8, r9}
 523 007a 7047     		bx	lr
 524              		.cfi_endproc
 525              	.LFE70:
 526              		.size	dmaInit, .-dmaInit
 527 007c AFF30080 		.section	.text.dmaStreamAllocate,"ax",%progbits
 528              		.align	2
 529              		.p2align 4,,15
 530              		.global	dmaStreamAllocate
 531              		.thumb
 532              		.thumb_func
 533              		.type	dmaStreamAllocate, %function
 534              	dmaStreamAllocate:
 535              	.LFB71:
 536              		.loc 1 422 0
 537              		.cfi_startproc
 538              		@ args = 0, pretend = 0, frame = 16
 539              		@ frame_needed = 0, uses_anonymous_args = 0
 540              	.LVL23:
 541 0000 F0B5     		push	{r4, r5, r6, r7, lr}
 542              	.LCFI8:
 543              		.cfi_def_cfa_offset 20
 544              		.cfi_offset 14, -4
 545              		.cfi_offset 7, -8
 546              		.cfi_offset 6, -12
 547              		.cfi_offset 5, -16
 548              		.cfi_offset 4, -20
 549 0002 0446     		mov	r4, r0
 550 0004 85B0     		sub	sp, sp, #20
 551              	.LCFI9:
 552              		.cfi_def_cfa_offset 40
 553              		.loc 1 424 0
 554 0006 0028     		cmp	r0, #0
 555 0008 36D0     		beq	.L37
 556              	.LVL24:
 557              	.L32:
 558              		.loc 1 427 0
 559 000a 667A     		ldrb	r6, [r4, #9]	@ zero_extendqisi2
 560 000c 0125     		movs	r5, #1
ARM GAS  /tmp/ccgRtdwN.s 			page 11


 561 000e 05FA06FC 		lsl	ip, r5, r6
 562 0012 1E4F     		ldr	r7, .L38
 563 0014 3868     		ldr	r0, [r7, #0]
 564 0016 1CEA000F 		tst	ip, r0
 565 001a 29D1     		bne	.L35
 566              		.loc 1 431 0
 567 001c 1C4D     		ldr	r5, .L38+4
 568              		.loc 1 433 0
 569 001e 4CEA0000 		orr	r0, ip, r0
 570              		.loc 1 432 0
 571 0022 05EBC60C 		add	ip, r5, r6, lsl #3
 572 0026 CCF80430 		str	r3, [ip, #4]
 573              		.loc 1 436 0
 574 002a 4306     		lsls	r3, r0, #25
 575              		.loc 1 431 0
 576 002c 45F83620 		str	r2, [r5, r6, lsl #3]
 577              		.loc 1 433 0
 578 0030 3860     		str	r0, [r7, #0]
 579              		.loc 1 436 0
 580 0032 07D0     		beq	.L34
 581              		.loc 1 437 0
 582 0034 4FF48053 		mov	r3, #4096
 583 0038 C4F20203 		movt	r3, 16386
 584 003c 5F69     		ldr	r7, [r3, #20]
 585 003e 47F00106 		orr	r6, r7, #1
 586 0042 5E61     		str	r6, [r3, #20]
 587              	.L34:
 588              		.loc 1 444 0
 589 0044 2368     		ldr	r3, [r4, #0]
 590 0046 6068     		ldr	r0, [r4, #4]
 591 0048 1E68     		ldr	r6, [r3, #0]
 592 004a 0F27     		movs	r7, #15
 593 004c 26F00F05 		bic	r5, r6, #15
 594 0050 1D60     		str	r5, [r3, #0]
 595 0052 94F808C0 		ldrb	ip, [r4, #8]	@ zero_extendqisi2
 596              		.loc 1 445 0
 597 0056 0025     		movs	r5, #0
 598              		.loc 1 444 0
 599 0058 07FA0CF6 		lsl	r6, r7, ip
 600 005c 0660     		str	r6, [r0, #0]
 601              		.loc 1 445 0
 602 005e 1D60     		str	r5, [r3, #0]
 603              		.loc 1 448 0
 604 0060 42B1     		cbz	r2, .L36
 605              		.loc 1 449 0
 606 0062 A07A     		ldrb	r0, [r4, #10]	@ zero_extendqisi2
 607 0064 0901     		lsls	r1, r1, #4
 608 0066 FFF7FEFF 		bl	nvicEnableVector
 609              		.loc 1 451 0
 610 006a 2846     		mov	r0, r5
 611              	.L33:
 612              		.loc 1 452 0
 613 006c 05B0     		add	sp, sp, #20
 614 006e F0BD     		pop	{r4, r5, r6, r7, pc}
 615              	.L35:
 616              		.loc 1 428 0
 617 0070 2846     		mov	r0, r5
ARM GAS  /tmp/ccgRtdwN.s 			page 12


 618 0072 FBE7     		b	.L33
 619              	.L36:
 620              		.loc 1 451 0
 621 0074 1046     		mov	r0, r2
 622 0076 F9E7     		b	.L33
 623              	.LVL25:
 624              	.L37:
 625              		.loc 1 424 0 discriminator 1
 626 0078 0648     		ldr	r0, .L38+8
 627 007a 0391     		str	r1, [sp, #12]
 628 007c 0292     		str	r2, [sp, #8]
 629 007e 0193     		str	r3, [sp, #4]
 630 0080 FFF7FEFF 		bl	chDbgPanic
 631              	.LVL26:
 632 0084 019B     		ldr	r3, [sp, #4]
 633 0086 029A     		ldr	r2, [sp, #8]
 634 0088 0399     		ldr	r1, [sp, #12]
 635 008a BEE7     		b	.L32
 636              	.L39:
 637              		.align	2
 638              	.L38:
 639 008c 00000000 		.word	.LANCHOR1
 640 0090 00000000 		.word	.LANCHOR0
 641 0094 00000000 		.word	.LC0
 642              		.cfi_endproc
 643              	.LFE71:
 644              		.size	dmaStreamAllocate, .-dmaStreamAllocate
 645 0098 AFF30080 		.section	.text.dmaStreamRelease,"ax",%progbits
 645      AFF30080 
 646              		.align	2
 647              		.p2align 4,,15
 648              		.global	dmaStreamRelease
 649              		.thumb
 650              		.thumb_func
 651              		.type	dmaStreamRelease, %function
 652              	dmaStreamRelease:
 653              	.LFB72:
 654              		.loc 1 467 0
 655              		.cfi_startproc
 656              		@ args = 0, pretend = 0, frame = 0
 657              		@ frame_needed = 0, uses_anonymous_args = 0
 658              	.LVL27:
 659 0000 38B5     		push	{r3, r4, r5, lr}
 660              	.LCFI10:
 661              		.cfi_def_cfa_offset 16
 662              		.cfi_offset 14, -4
 663              		.cfi_offset 5, -8
 664              		.cfi_offset 4, -12
 665              		.cfi_offset 3, -16
 666              		.loc 1 467 0
 667 0002 0446     		mov	r4, r0
 668              		.loc 1 469 0
 669 0004 18B3     		cbz	r0, .L44
 670              	.LVL28:
 671              	.L41:
 672              		.loc 1 472 0
 673 0006 617A     		ldrb	r1, [r4, #9]	@ zero_extendqisi2
ARM GAS  /tmp/ccgRtdwN.s 			page 13


 674 0008 0120     		movs	r0, #1
 675 000a 00FA01F2 		lsl	r2, r0, r1
 676 000e 124D     		ldr	r5, .L46
 677 0010 2B68     		ldr	r3, [r5, #0]
 678 0012 1A42     		tst	r2, r3
 679 0014 17D0     		beq	.L45
 680              	.L42:
 681              		.loc 1 476 0
 682 0016 A07A     		ldrb	r0, [r4, #10]	@ zero_extendqisi2
 683 0018 FFF7FEFF 		bl	nvicDisableVector
 684              		.loc 1 479 0
 685 001c 607A     		ldrb	r0, [r4, #9]	@ zero_extendqisi2
 686 001e 0121     		movs	r1, #1
 687 0020 01FA00FC 		lsl	ip, r1, r0
 688 0024 2B68     		ldr	r3, [r5, #0]
 689 0026 23EA0C02 		bic	r2, r3, ip
 690 002a 2A60     		str	r2, [r5, #0]
 691              		.loc 1 482 0
 692 002c 5206     		lsls	r2, r2, #25
 693 002e 09D1     		bne	.L40
 694              		.loc 1 483 0
 695 0030 4FF4805E 		mov	lr, #4096
 696 0034 C4F2020E 		movt	lr, 16386
 697 0038 DEF81430 		ldr	r3, [lr, #20]
 698 003c 23F00102 		bic	r2, r3, #1
 699 0040 CEF81420 		str	r2, [lr, #20]
 700              	.L40:
 701 0044 38BD     		pop	{r3, r4, r5, pc}
 702              	.L45:
 703              		.loc 1 472 0 discriminator 1
 704 0046 0548     		ldr	r0, .L46+4
 705 0048 FFF7FEFF 		bl	chDbgPanic
 706 004c E3E7     		b	.L42
 707              	.L44:
 708              		.loc 1 469 0 discriminator 1
 709 004e 0448     		ldr	r0, .L46+8
 710 0050 FFF7FEFF 		bl	chDbgPanic
 711 0054 D7E7     		b	.L41
 712              	.L47:
 713 0056 00BF     		.align	2
 714              	.L46:
 715 0058 00000000 		.word	.LANCHOR1
 716 005c 30000000 		.word	.LC2
 717 0060 18000000 		.word	.LC1
 718              		.cfi_endproc
 719              	.LFE72:
 720              		.size	dmaStreamRelease, .-dmaStreamRelease
 721              		.global	_stm32_dma_streams
 722 0064 AFF30080 		.section	.rodata.str1.4,"aMS",%progbits,1
 722      AFF30080 
 722      AFF30080 
 723              		.align	2
 724              	.LC0:
 725 0000 22646D61 		.ascii	"\"dmaStreamAllocate\"()\000"
 725      53747265 
 725      616D416C 
 725      6C6F6361 
ARM GAS  /tmp/ccgRtdwN.s 			page 14


 725      74652228 
 726 0016 0000     		.space	2
 727              	.LC1:
 728 0018 22646D61 		.ascii	"\"dmaStreamRelease\"()\000"
 728      53747265 
 728      616D5265 
 728      6C656173 
 728      65222829 
 729 002d 000000   		.space	3
 730              	.LC2:
 731 0030 646D6153 		.ascii	"dmaStreamRelease(), #1\000"
 731      74726561 
 731      6D52656C 
 731      65617365 
 731      28292C20 
 732 0047 00       		.section	.bss.dma_isr_redir,"aw",%nobits
 733              		.align	2
 734              		.set	.LANCHOR0,. + 0
 735              		.type	dma_isr_redir, %object
 736              		.size	dma_isr_redir, 56
 737              	dma_isr_redir:
 738 0000 00000000 		.space	56
 738      00000000 
 738      00000000 
 738      00000000 
 738      00000000 
 739              		.section	.rodata._stm32_dma_streams,"a",%progbits
 740              		.align	2
 741              		.type	_stm32_dma_streams, %object
 742              		.size	_stm32_dma_streams, 84
 743              	_stm32_dma_streams:
 744 0000 08000240 		.word	1073872904
 745 0004 04000240 		.word	1073872900
 746 0008 00       		.byte	0
 747 0009 00       		.byte	0
 748 000a 0B       		.byte	11
 749 000b 00       		.space	1
 750 000c 1C000240 		.word	1073872924
 751 0010 04000240 		.word	1073872900
 752 0014 04       		.byte	4
 753 0015 01       		.byte	1
 754 0016 0C       		.byte	12
 755 0017 00       		.space	1
 756 0018 30000240 		.word	1073872944
 757 001c 04000240 		.word	1073872900
 758 0020 08       		.byte	8
 759 0021 02       		.byte	2
 760 0022 0D       		.byte	13
 761 0023 00       		.space	1
 762 0024 44000240 		.word	1073872964
 763 0028 04000240 		.word	1073872900
 764 002c 0C       		.byte	12
 765 002d 03       		.byte	3
 766 002e 0E       		.byte	14
 767 002f 00       		.space	1
 768 0030 58000240 		.word	1073872984
 769 0034 04000240 		.word	1073872900
ARM GAS  /tmp/ccgRtdwN.s 			page 15


 770 0038 10       		.byte	16
 771 0039 04       		.byte	4
 772 003a 0F       		.byte	15
 773 003b 00       		.space	1
 774 003c 6C000240 		.word	1073873004
 775 0040 04000240 		.word	1073872900
 776 0044 14       		.byte	20
 777 0045 05       		.byte	5
 778 0046 10       		.byte	16
 779 0047 00       		.space	1
 780 0048 80000240 		.word	1073873024
 781 004c 04000240 		.word	1073872900
 782 0050 18       		.byte	24
 783 0051 06       		.byte	6
 784 0052 11       		.byte	17
 785 0053 00       		.space	1
 786              		.section	.bss.dma_streams_mask,"aw",%nobits
 787              		.align	2
 788              		.set	.LANCHOR1,. + 0
 789              		.type	dma_streams_mask, %object
 790              		.size	dma_streams_mask, 4
 791              	dma_streams_mask:
 792 0000 00000000 		.space	4
 793              		.text
 794              	.Letext0:
 795              		.file 2 "/home/tino/ChibiStudio/tools/GNU Tools ARM Embedded/4.6 2012q2/bin/../lib/gcc/arm-none-ea
 796              		.file 3 "../../ChibiOS/os/ports/GCC/ARMCMx/chtypes.h"
 797              		.file 4 "../../ChibiOS/os/hal/platforms/STM32F1xx/stm32f10x.h"
 798              		.file 5 "../../ChibiOS/os/hal/platforms/STM32F1xx/stm32_dma.h"
 799              		.file 6 "../../ChibiOS/os/ports/common/ARMCMx/CMSIS/include/core_cm3.h"
 800              		.section	.debug_info,"",%progbits
 801              	.Ldebug_info0:
 802 0000 4A060000 		.4byte	0x64a
 803 0004 0200     		.2byte	0x2
 804 0006 00000000 		.4byte	.Ldebug_abbrev0
 805 000a 04       		.byte	0x4
 806 000b 01       		.uleb128 0x1
 807 000c 9A010000 		.4byte	.LASF109
 808 0010 01       		.byte	0x1
 809 0011 65010000 		.4byte	.LASF110
 810 0015 CA000000 		.4byte	.LASF111
 811 0019 00000000 		.4byte	0
 812 001d 00000000 		.4byte	0
 813 0021 00000000 		.4byte	.Ldebug_ranges0+0
 814 0025 00000000 		.4byte	.Ldebug_line0
 815 0029 02       		.uleb128 0x2
 816 002a 04       		.byte	0x4
 817 002b 05       		.byte	0x5
 818 002c 696E7400 		.ascii	"int\000"
 819 0030 03       		.uleb128 0x3
 820 0031 04       		.byte	0x4
 821 0032 07       		.byte	0x7
 822 0033 96050000 		.4byte	.LASF0
 823 0037 03       		.uleb128 0x3
 824 0038 01       		.byte	0x1
 825 0039 06       		.byte	0x6
 826 003a 1B030000 		.4byte	.LASF1
ARM GAS  /tmp/ccgRtdwN.s 			page 16


 827 003e 04       		.uleb128 0x4
 828 003f 3B010000 		.4byte	.LASF4
 829 0043 02       		.byte	0x2
 830 0044 2A       		.byte	0x2a
 831 0045 49000000 		.4byte	0x49
 832 0049 03       		.uleb128 0x3
 833 004a 01       		.byte	0x1
 834 004b 08       		.byte	0x8
 835 004c EF020000 		.4byte	.LASF2
 836 0050 03       		.uleb128 0x3
 837 0051 02       		.byte	0x2
 838 0052 05       		.byte	0x5
 839 0053 6E000000 		.4byte	.LASF3
 840 0057 04       		.uleb128 0x4
 841 0058 61030000 		.4byte	.LASF5
 842 005c 02       		.byte	0x2
 843 005d 36       		.byte	0x36
 844 005e 62000000 		.4byte	0x62
 845 0062 03       		.uleb128 0x3
 846 0063 02       		.byte	0x2
 847 0064 07       		.byte	0x7
 848 0065 B6030000 		.4byte	.LASF6
 849 0069 04       		.uleb128 0x4
 850 006a 04040000 		.4byte	.LASF7
 851 006e 02       		.byte	0x2
 852 006f 4F       		.byte	0x4f
 853 0070 74000000 		.4byte	0x74
 854 0074 03       		.uleb128 0x3
 855 0075 04       		.byte	0x4
 856 0076 05       		.byte	0x5
 857 0077 82020000 		.4byte	.LASF8
 858 007b 04       		.uleb128 0x4
 859 007c 44030000 		.4byte	.LASF9
 860 0080 02       		.byte	0x2
 861 0081 50       		.byte	0x50
 862 0082 86000000 		.4byte	0x86
 863 0086 03       		.uleb128 0x3
 864 0087 04       		.byte	0x4
 865 0088 07       		.byte	0x7
 866 0089 98040000 		.4byte	.LASF10
 867 008d 03       		.uleb128 0x3
 868 008e 08       		.byte	0x8
 869 008f 05       		.byte	0x5
 870 0090 52020000 		.4byte	.LASF11
 871 0094 03       		.uleb128 0x3
 872 0095 08       		.byte	0x8
 873 0096 07       		.byte	0x7
 874 0097 2D030000 		.4byte	.LASF12
 875 009b 04       		.uleb128 0x4
 876 009c 16040000 		.4byte	.LASF13
 877 00a0 03       		.byte	0x3
 878 00a1 24       		.byte	0x24
 879 00a2 A6000000 		.4byte	0xa6
 880 00a6 03       		.uleb128 0x3
 881 00a7 01       		.byte	0x1
 882 00a8 02       		.byte	0x2
 883 00a9 2C040000 		.4byte	.LASF14
ARM GAS  /tmp/ccgRtdwN.s 			page 17


 884 00ad 05       		.uleb128 0x5
 885 00ae 04       		.byte	0x4
 886 00af 06       		.uleb128 0x6
 887 00b0 7B000000 		.4byte	0x7b
 888 00b4 03       		.uleb128 0x3
 889 00b5 01       		.byte	0x1
 890 00b6 08       		.byte	0x8
 891 00b7 FF030000 		.4byte	.LASF15
 892 00bb 07       		.uleb128 0x7
 893 00bc B2000000 		.4byte	.LASF112
 894 00c0 01       		.byte	0x1
 895 00c1 04       		.byte	0x4
 896 00c2 A9       		.byte	0xa9
 897 00c3 FA010000 		.4byte	0x1fa
 898 00c7 08       		.uleb128 0x8
 899 00c8 E4040000 		.4byte	.LASF16
 900 00cc 72       		.sleb128 -14
 901 00cd 08       		.uleb128 0x8
 902 00ce B3040000 		.4byte	.LASF17
 903 00d2 74       		.sleb128 -12
 904 00d3 08       		.uleb128 0x8
 905 00d4 75030000 		.4byte	.LASF18
 906 00d8 75       		.sleb128 -11
 907 00d9 08       		.uleb128 0x8
 908 00da F6010000 		.4byte	.LASF19
 909 00de 76       		.sleb128 -10
 910 00df 08       		.uleb128 0x8
 911 00e0 83030000 		.4byte	.LASF20
 912 00e4 7B       		.sleb128 -5
 913 00e5 08       		.uleb128 0x8
 914 00e6 A0000000 		.4byte	.LASF21
 915 00ea 7C       		.sleb128 -4
 916 00eb 08       		.uleb128 0x8
 917 00ec BF050000 		.4byte	.LASF22
 918 00f0 7E       		.sleb128 -2
 919 00f1 08       		.uleb128 0x8
 920 00f2 00000000 		.4byte	.LASF23
 921 00f6 7F       		.sleb128 -1
 922 00f7 08       		.uleb128 0x8
 923 00f8 78020000 		.4byte	.LASF24
 924 00fc 00       		.sleb128 0
 925 00fd 08       		.uleb128 0x8
 926 00fe B7020000 		.4byte	.LASF25
 927 0102 01       		.sleb128 1
 928 0103 08       		.uleb128 0x8
 929 0104 62000000 		.4byte	.LASF26
 930 0108 02       		.sleb128 2
 931 0109 08       		.uleb128 0x8
 932 010a C9040000 		.4byte	.LASF27
 933 010e 03       		.sleb128 3
 934 010f 08       		.uleb128 0x8
 935 0110 95000000 		.4byte	.LASF28
 936 0114 04       		.sleb128 4
 937 0115 08       		.uleb128 0x8
 938 0116 30000000 		.4byte	.LASF29
 939 011a 05       		.sleb128 5
 940 011b 08       		.uleb128 0x8
ARM GAS  /tmp/ccgRtdwN.s 			page 18


 941 011c 6A030000 		.4byte	.LASF30
 942 0120 06       		.sleb128 6
 943 0121 08       		.uleb128 0x8
 944 0122 39000000 		.4byte	.LASF31
 945 0126 07       		.sleb128 7
 946 0127 08       		.uleb128 0x8
 947 0128 4D030000 		.4byte	.LASF32
 948 012c 08       		.sleb128 8
 949 012d 08       		.uleb128 0x8
 950 012e 36050000 		.4byte	.LASF33
 951 0132 09       		.sleb128 9
 952 0133 08       		.uleb128 0x8
 953 0134 57000000 		.4byte	.LASF34
 954 0138 0A       		.sleb128 10
 955 0139 08       		.uleb128 0x8
 956 013a E3010000 		.4byte	.LASF35
 957 013e 0B       		.sleb128 11
 958 013f 08       		.uleb128 0x8
 959 0140 85040000 		.4byte	.LASF36
 960 0144 0C       		.sleb128 12
 961 0145 08       		.uleb128 0x8
 962 0146 0F020000 		.4byte	.LASF37
 963 014a 0D       		.sleb128 13
 964 014b 08       		.uleb128 0x8
 965 014c 52010000 		.4byte	.LASF38
 966 0150 0E       		.sleb128 14
 967 0151 08       		.uleb128 0x8
 968 0152 72040000 		.4byte	.LASF39
 969 0156 0F       		.sleb128 15
 970 0157 08       		.uleb128 0x8
 971 0158 07010000 		.4byte	.LASF40
 972 015c 10       		.sleb128 16
 973 015d 08       		.uleb128 0x8
 974 015e 56040000 		.4byte	.LASF41
 975 0162 11       		.sleb128 17
 976 0163 08       		.uleb128 0x8
 977 0164 60020000 		.4byte	.LASF42
 978 0168 12       		.sleb128 18
 979 0169 08       		.uleb128 0x8
 980 016a A2030000 		.4byte	.LASF43
 981 016e 13       		.sleb128 19
 982 016f 08       		.uleb128 0x8
 983 0170 22020000 		.4byte	.LASF44
 984 0174 14       		.sleb128 20
 985 0175 08       		.uleb128 0x8
 986 0176 EB030000 		.4byte	.LASF45
 987 017a 15       		.sleb128 21
 988 017b 08       		.uleb128 0x8
 989 017c 19000000 		.4byte	.LASF46
 990 0180 16       		.sleb128 22
 991 0181 08       		.uleb128 0x8
 992 0182 8F030000 		.4byte	.LASF47
 993 0186 17       		.sleb128 23
 994 0187 08       		.uleb128 0x8
 995 0188 DD030000 		.4byte	.LASF48
 996 018c 18       		.sleb128 24
 997 018d 08       		.uleb128 0x8
ARM GAS  /tmp/ccgRtdwN.s 			page 19


 998 018e 16050000 		.4byte	.LASF49
 999 0192 19       		.sleb128 25
 1000 0193 08       		.uleb128 0x8
 1001 0194 D2040000 		.4byte	.LASF50
 1002 0198 1A       		.sleb128 26
 1003 0199 08       		.uleb128 0x8
 1004 019a FD040000 		.4byte	.LASF51
 1005 019e 1B       		.sleb128 27
 1006 019f 08       		.uleb128 0x8
 1007 01a0 CF020000 		.4byte	.LASF52
 1008 01a4 1C       		.sleb128 28
 1009 01a5 08       		.uleb128 0x8
 1010 01a6 B0050000 		.4byte	.LASF53
 1011 01aa 1D       		.sleb128 29
 1012 01ab 08       		.uleb128 0x8
 1013 01ac C0020000 		.4byte	.LASF54
 1014 01b0 1E       		.sleb128 30
 1015 01b1 08       		.uleb128 0x8
 1016 01b2 9A020000 		.4byte	.LASF55
 1017 01b6 1F       		.sleb128 31
 1018 01b7 08       		.uleb128 0x8
 1019 01b8 A3050000 		.4byte	.LASF56
 1020 01bc 20       		.sleb128 32
 1021 01bd 08       		.uleb128 0x8
 1022 01be E2020000 		.4byte	.LASF57
 1023 01c2 21       		.sleb128 33
 1024 01c3 08       		.uleb128 0x8
 1025 01c4 06030000 		.4byte	.LASF58
 1026 01c8 22       		.sleb128 34
 1027 01c9 08       		.uleb128 0x8
 1028 01ca C0000000 		.4byte	.LASF59
 1029 01ce 23       		.sleb128 35
 1030 01cf 08       		.uleb128 0x8
 1031 01d0 0C040000 		.4byte	.LASF60
 1032 01d4 24       		.sleb128 36
 1033 01d5 08       		.uleb128 0x8
 1034 01d6 6C020000 		.4byte	.LASF61
 1035 01da 25       		.sleb128 37
 1036 01db 08       		.uleb128 0x8
 1037 01dc 0A050000 		.4byte	.LASF62
 1038 01e0 26       		.sleb128 38
 1039 01e1 08       		.uleb128 0x8
 1040 01e2 41020000 		.4byte	.LASF63
 1041 01e6 27       		.sleb128 39
 1042 01e7 08       		.uleb128 0x8
 1043 01e8 8B020000 		.4byte	.LASF64
 1044 01ec 28       		.sleb128 40
 1045 01ed 08       		.uleb128 0x8
 1046 01ee 3F040000 		.4byte	.LASF65
 1047 01f2 29       		.sleb128 41
 1048 01f3 08       		.uleb128 0x8
 1049 01f4 CB050000 		.4byte	.LASF66
 1050 01f8 2A       		.sleb128 42
 1051 01f9 00       		.byte	0
 1052 01fa 06       		.uleb128 0x6
 1053 01fb 69000000 		.4byte	0x69
 1054 01ff 09       		.uleb128 0x9
ARM GAS  /tmp/ccgRtdwN.s 			page 20


 1055 0200 10       		.byte	0x10
 1056 0201 04       		.byte	0x4
 1057 0202 2D03     		.2byte	0x32d
 1058 0204 45020000 		.4byte	0x245
 1059 0208 0A       		.uleb128 0xa
 1060 0209 43435200 		.ascii	"CCR\000"
 1061 020d 04       		.byte	0x4
 1062 020e 2F03     		.2byte	0x32f
 1063 0210 AF000000 		.4byte	0xaf
 1064 0214 02       		.byte	0x2
 1065 0215 23       		.byte	0x23
 1066 0216 00       		.uleb128 0
 1067 0217 0B       		.uleb128 0xb
 1068 0218 F9030000 		.4byte	.LASF67
 1069 021c 04       		.byte	0x4
 1070 021d 3003     		.2byte	0x330
 1071 021f AF000000 		.4byte	0xaf
 1072 0223 02       		.byte	0x2
 1073 0224 23       		.byte	0x23
 1074 0225 04       		.uleb128 0x4
 1075 0226 0B       		.uleb128 0xb
 1076 0227 CA020000 		.4byte	.LASF68
 1077 022b 04       		.byte	0x4
 1078 022c 3103     		.2byte	0x331
 1079 022e AF000000 		.4byte	0xaf
 1080 0232 02       		.byte	0x2
 1081 0233 23       		.byte	0x23
 1082 0234 08       		.uleb128 0x8
 1083 0235 0B       		.uleb128 0xb
 1084 0236 F8040000 		.4byte	.LASF69
 1085 023a 04       		.byte	0x4
 1086 023b 3203     		.2byte	0x332
 1087 023d AF000000 		.4byte	0xaf
 1088 0241 02       		.byte	0x2
 1089 0242 23       		.byte	0x23
 1090 0243 0C       		.uleb128 0xc
 1091 0244 00       		.byte	0
 1092 0245 0C       		.uleb128 0xc
 1093 0246 C9030000 		.4byte	.LASF70
 1094 024a 04       		.byte	0x4
 1095 024b 3303     		.2byte	0x333
 1096 024d FF010000 		.4byte	0x1ff
 1097 0251 09       		.uleb128 0x9
 1098 0252 08       		.byte	0x8
 1099 0253 04       		.byte	0x4
 1100 0254 3503     		.2byte	0x335
 1101 0256 79020000 		.4byte	0x279
 1102 025a 0A       		.uleb128 0xa
 1103 025b 49535200 		.ascii	"ISR\000"
 1104 025f 04       		.byte	0x4
 1105 0260 3703     		.2byte	0x337
 1106 0262 AF000000 		.4byte	0xaf
 1107 0266 02       		.byte	0x2
 1108 0267 23       		.byte	0x23
 1109 0268 00       		.uleb128 0
 1110 0269 0B       		.uleb128 0xb
 1111 026a 32040000 		.4byte	.LASF71
ARM GAS  /tmp/ccgRtdwN.s 			page 21


 1112 026e 04       		.byte	0x4
 1113 026f 3803     		.2byte	0x338
 1114 0271 AF000000 		.4byte	0xaf
 1115 0275 02       		.byte	0x2
 1116 0276 23       		.byte	0x23
 1117 0277 04       		.uleb128 0x4
 1118 0278 00       		.byte	0
 1119 0279 0C       		.uleb128 0xc
 1120 027a FB000000 		.4byte	.LASF72
 1121 027e 04       		.byte	0x4
 1122 027f 3903     		.2byte	0x339
 1123 0281 51020000 		.4byte	0x251
 1124 0285 09       		.uleb128 0x9
 1125 0286 28       		.byte	0x28
 1126 0287 04       		.byte	0x4
 1127 0288 4304     		.2byte	0x443
 1128 028a 24030000 		.4byte	0x324
 1129 028e 0A       		.uleb128 0xa
 1130 028f 435200   		.ascii	"CR\000"
 1131 0292 04       		.byte	0x4
 1132 0293 4504     		.2byte	0x445
 1133 0295 AF000000 		.4byte	0xaf
 1134 0299 02       		.byte	0x2
 1135 029a 23       		.byte	0x23
 1136 029b 00       		.uleb128 0
 1137 029c 0B       		.uleb128 0xb
 1138 029d 23010000 		.4byte	.LASF73
 1139 02a1 04       		.byte	0x4
 1140 02a2 4604     		.2byte	0x446
 1141 02a4 AF000000 		.4byte	0xaf
 1142 02a8 02       		.byte	0x2
 1143 02a9 23       		.byte	0x23
 1144 02aa 04       		.uleb128 0x4
 1145 02ab 0A       		.uleb128 0xa
 1146 02ac 43495200 		.ascii	"CIR\000"
 1147 02b0 04       		.byte	0x4
 1148 02b1 4704     		.2byte	0x447
 1149 02b3 AF000000 		.4byte	0xaf
 1150 02b7 02       		.byte	0x2
 1151 02b8 23       		.byte	0x23
 1152 02b9 08       		.uleb128 0x8
 1153 02ba 0B       		.uleb128 0xb
 1154 02bb AE020000 		.4byte	.LASF74
 1155 02bf 04       		.byte	0x4
 1156 02c0 4804     		.2byte	0x448
 1157 02c2 AF000000 		.4byte	0xaf
 1158 02c6 02       		.byte	0x2
 1159 02c7 23       		.byte	0x23
 1160 02c8 0C       		.uleb128 0xc
 1161 02c9 0B       		.uleb128 0xb
 1162 02ca 27000000 		.4byte	.LASF75
 1163 02ce 04       		.byte	0x4
 1164 02cf 4904     		.2byte	0x449
 1165 02d1 AF000000 		.4byte	0xaf
 1166 02d5 02       		.byte	0x2
 1167 02d6 23       		.byte	0x23
 1168 02d7 10       		.uleb128 0x10
ARM GAS  /tmp/ccgRtdwN.s 			page 22


 1169 02d8 0B       		.uleb128 0xb
 1170 02d9 A7020000 		.4byte	.LASF76
 1171 02dd 04       		.byte	0x4
 1172 02de 4A04     		.2byte	0x44a
 1173 02e0 AF000000 		.4byte	0xaf
 1174 02e4 02       		.byte	0x2
 1175 02e5 23       		.byte	0x23
 1176 02e6 14       		.uleb128 0x14
 1177 02e7 0B       		.uleb128 0xb
 1178 02e8 13030000 		.4byte	.LASF77
 1179 02ec 04       		.byte	0x4
 1180 02ed 4B04     		.2byte	0x44b
 1181 02ef AF000000 		.4byte	0xaf
 1182 02f3 02       		.byte	0x2
 1183 02f4 23       		.byte	0x23
 1184 02f5 18       		.uleb128 0x18
 1185 02f6 0B       		.uleb128 0xb
 1186 02f7 43010000 		.4byte	.LASF78
 1187 02fb 04       		.byte	0x4
 1188 02fc 4C04     		.2byte	0x44c
 1189 02fe AF000000 		.4byte	0xaf
 1190 0302 02       		.byte	0x2
 1191 0303 23       		.byte	0x23
 1192 0304 1C       		.uleb128 0x1c
 1193 0305 0B       		.uleb128 0xb
 1194 0306 90000000 		.4byte	.LASF79
 1195 030a 04       		.byte	0x4
 1196 030b 4D04     		.2byte	0x44d
 1197 030d AF000000 		.4byte	0xaf
 1198 0311 02       		.byte	0x2
 1199 0312 23       		.byte	0x23
 1200 0313 20       		.uleb128 0x20
 1201 0314 0A       		.uleb128 0xa
 1202 0315 43535200 		.ascii	"CSR\000"
 1203 0319 04       		.byte	0x4
 1204 031a 4E04     		.2byte	0x44e
 1205 031c AF000000 		.4byte	0xaf
 1206 0320 02       		.byte	0x2
 1207 0321 23       		.byte	0x23
 1208 0322 24       		.uleb128 0x24
 1209 0323 00       		.byte	0
 1210 0324 0C       		.uleb128 0xc
 1211 0325 0D000000 		.4byte	.LASF80
 1212 0329 04       		.byte	0x4
 1213 032a 5904     		.2byte	0x459
 1214 032c 85020000 		.4byte	0x285
 1215 0330 0D       		.uleb128 0xd
 1216 0331 0C       		.byte	0xc
 1217 0332 05       		.byte	0x5
 1218 0333 C1       		.byte	0xc1
 1219 0334 7F030000 		.4byte	0x37f
 1220 0338 0E       		.uleb128 0xe
 1221 0339 37040000 		.4byte	.LASF81
 1222 033d 05       		.byte	0x5
 1223 033e C2       		.byte	0xc2
 1224 033f 7F030000 		.4byte	0x37f
 1225 0343 02       		.byte	0x2
ARM GAS  /tmp/ccgRtdwN.s 			page 23


 1226 0344 23       		.byte	0x23
 1227 0345 00       		.uleb128 0
 1228 0346 0E       		.uleb128 0xe
 1229 0347 BA050000 		.4byte	.LASF82
 1230 034b 05       		.byte	0x5
 1231 034c C3       		.byte	0xc3
 1232 034d 85030000 		.4byte	0x385
 1233 0351 02       		.byte	0x2
 1234 0352 23       		.byte	0x23
 1235 0353 04       		.uleb128 0x4
 1236 0354 0E       		.uleb128 0xe
 1237 0355 82050000 		.4byte	.LASF83
 1238 0359 05       		.byte	0x5
 1239 035a C4       		.byte	0xc4
 1240 035b 3E000000 		.4byte	0x3e
 1241 035f 02       		.byte	0x2
 1242 0360 23       		.byte	0x23
 1243 0361 08       		.uleb128 0x8
 1244 0362 0E       		.uleb128 0xe
 1245 0363 37020000 		.4byte	.LASF84
 1246 0367 05       		.byte	0x5
 1247 0368 C6       		.byte	0xc6
 1248 0369 3E000000 		.4byte	0x3e
 1249 036d 02       		.byte	0x2
 1250 036e 23       		.byte	0x23
 1251 036f 09       		.uleb128 0x9
 1252 0370 0E       		.uleb128 0xe
 1253 0371 4B010000 		.4byte	.LASF85
 1254 0375 05       		.byte	0x5
 1255 0376 C7       		.byte	0xc7
 1256 0377 3E000000 		.4byte	0x3e
 1257 037b 02       		.byte	0x2
 1258 037c 23       		.byte	0x23
 1259 037d 0A       		.uleb128 0xa
 1260 037e 00       		.byte	0
 1261 037f 0F       		.uleb128 0xf
 1262 0380 04       		.byte	0x4
 1263 0381 45020000 		.4byte	0x245
 1264 0385 0F       		.uleb128 0xf
 1265 0386 04       		.byte	0x4
 1266 0387 AF000000 		.4byte	0xaf
 1267 038b 04       		.uleb128 0x4
 1268 038c 28010000 		.4byte	.LASF86
 1269 0390 05       		.byte	0x5
 1270 0391 C8       		.byte	0xc8
 1271 0392 30030000 		.4byte	0x330
 1272 0396 04       		.uleb128 0x4
 1273 0397 1D040000 		.4byte	.LASF87
 1274 039b 05       		.byte	0x5
 1275 039c D1       		.byte	0xd1
 1276 039d A1030000 		.4byte	0x3a1
 1277 03a1 0F       		.uleb128 0xf
 1278 03a2 04       		.byte	0x4
 1279 03a3 A7030000 		.4byte	0x3a7
 1280 03a7 10       		.uleb128 0x10
 1281 03a8 01       		.byte	0x1
 1282 03a9 B8030000 		.4byte	0x3b8
ARM GAS  /tmp/ccgRtdwN.s 			page 24


 1283 03ad 11       		.uleb128 0x11
 1284 03ae AD000000 		.4byte	0xad
 1285 03b2 11       		.uleb128 0x11
 1286 03b3 7B000000 		.4byte	0x7b
 1287 03b7 00       		.byte	0
 1288 03b8 0F       		.uleb128 0xf
 1289 03b9 04       		.byte	0x4
 1290 03ba BE030000 		.4byte	0x3be
 1291 03be 12       		.uleb128 0x12
 1292 03bf 8B030000 		.4byte	0x38b
 1293 03c3 0D       		.uleb128 0xd
 1294 03c4 08       		.byte	0x8
 1295 03c5 01       		.byte	0x1
 1296 03c6 62       		.byte	0x62
 1297 03c7 E8030000 		.4byte	0x3e8
 1298 03cb 0E       		.uleb128 0xe
 1299 03cc FD020000 		.4byte	.LASF88
 1300 03d0 01       		.byte	0x1
 1301 03d1 63       		.byte	0x63
 1302 03d2 96030000 		.4byte	0x396
 1303 03d6 02       		.byte	0x2
 1304 03d7 23       		.byte	0x23
 1305 03d8 00       		.uleb128 0
 1306 03d9 0E       		.uleb128 0xe
 1307 03da 4D000000 		.4byte	.LASF89
 1308 03de 01       		.byte	0x1
 1309 03df 64       		.byte	0x64
 1310 03e0 AD000000 		.4byte	0xad
 1311 03e4 02       		.byte	0x2
 1312 03e5 23       		.byte	0x23
 1313 03e6 04       		.uleb128 0x4
 1314 03e7 00       		.byte	0
 1315 03e8 04       		.uleb128 0x4
 1316 03e9 53050000 		.4byte	.LASF90
 1317 03ed 01       		.byte	0x1
 1318 03ee 65       		.byte	0x65
 1319 03ef C3030000 		.4byte	0x3c3
 1320 03f3 13       		.uleb128 0x13
 1321 03f4 01       		.byte	0x1
 1322 03f5 06020000 		.4byte	.LASF91
 1323 03f9 01       		.byte	0x1
 1324 03fa 7E       		.byte	0x7e
 1325 03fb 01       		.byte	0x1
 1326 03fc 00000000 		.4byte	.LFB63
 1327 0400 30000000 		.4byte	.LFE63
 1328 0404 00000000 		.4byte	.LLST0
 1329 0408 1C040000 		.4byte	0x41c
 1330 040c 14       		.uleb128 0x14
 1331 040d 27030000 		.4byte	.LASF93
 1332 0411 01       		.byte	0x1
 1333 0412 7F       		.byte	0x7f
 1334 0413 7B000000 		.4byte	0x7b
 1335 0417 20000000 		.4byte	.LLST1
 1336 041b 00       		.byte	0
 1337 041c 13       		.uleb128 0x13
 1338 041d 01       		.byte	0x1
 1339 041e D9020000 		.4byte	.LASF92
ARM GAS  /tmp/ccgRtdwN.s 			page 25


 1340 0422 01       		.byte	0x1
 1341 0423 90       		.byte	0x90
 1342 0424 01       		.byte	0x1
 1343 0425 00000000 		.4byte	.LFB64
 1344 0429 30000000 		.4byte	.LFE64
 1345 042d 42000000 		.4byte	.LLST2
 1346 0431 45040000 		.4byte	0x445
 1347 0435 14       		.uleb128 0x14
 1348 0436 27030000 		.4byte	.LASF93
 1349 043a 01       		.byte	0x1
 1350 043b 91       		.byte	0x91
 1351 043c 7B000000 		.4byte	0x7b
 1352 0440 62000000 		.4byte	.LLST3
 1353 0444 00       		.byte	0
 1354 0445 13       		.uleb128 0x13
 1355 0446 01       		.byte	0x1
 1356 0447 B7000000 		.4byte	.LASF94
 1357 044b 01       		.byte	0x1
 1358 044c A2       		.byte	0xa2
 1359 044d 01       		.byte	0x1
 1360 044e 00000000 		.4byte	.LFB65
 1361 0452 34000000 		.4byte	.LFE65
 1362 0456 7B000000 		.4byte	.LLST4
 1363 045a 6E040000 		.4byte	0x46e
 1364 045e 14       		.uleb128 0x14
 1365 045f 27030000 		.4byte	.LASF93
 1366 0463 01       		.byte	0x1
 1367 0464 A3       		.byte	0xa3
 1368 0465 7B000000 		.4byte	0x7b
 1369 0469 9B000000 		.4byte	.LLST5
 1370 046d 00       		.byte	0
 1371 046e 13       		.uleb128 0x13
 1372 046f 01       		.byte	0x1
 1373 0470 1A010000 		.4byte	.LASF95
 1374 0474 01       		.byte	0x1
 1375 0475 B4       		.byte	0xb4
 1376 0476 01       		.byte	0x1
 1377 0477 00000000 		.4byte	.LFB66
 1378 047b 34000000 		.4byte	.LFE66
 1379 047f B4000000 		.4byte	.LLST6
 1380 0483 97040000 		.4byte	0x497
 1381 0487 14       		.uleb128 0x14
 1382 0488 27030000 		.4byte	.LASF93
 1383 048c 01       		.byte	0x1
 1384 048d B5       		.byte	0xb5
 1385 048e 7B000000 		.4byte	0x7b
 1386 0492 D4000000 		.4byte	.LLST7
 1387 0496 00       		.byte	0
 1388 0497 13       		.uleb128 0x13
 1389 0498 01       		.byte	0x1
 1390 0499 58030000 		.4byte	.LASF96
 1391 049d 01       		.byte	0x1
 1392 049e C6       		.byte	0xc6
 1393 049f 01       		.byte	0x1
 1394 04a0 00000000 		.4byte	.LFB67
 1395 04a4 34000000 		.4byte	.LFE67
 1396 04a8 ED000000 		.4byte	.LLST8
ARM GAS  /tmp/ccgRtdwN.s 			page 26


 1397 04ac C0040000 		.4byte	0x4c0
 1398 04b0 14       		.uleb128 0x14
 1399 04b1 27030000 		.4byte	.LASF93
 1400 04b5 01       		.byte	0x1
 1401 04b6 C7       		.byte	0xc7
 1402 04b7 7B000000 		.4byte	0x7b
 1403 04bb 0D010000 		.4byte	.LLST9
 1404 04bf 00       		.byte	0
 1405 04c0 13       		.uleb128 0x13
 1406 04c1 01       		.byte	0x1
 1407 04c2 69040000 		.4byte	.LASF97
 1408 04c6 01       		.byte	0x1
 1409 04c7 D8       		.byte	0xd8
 1410 04c8 01       		.byte	0x1
 1411 04c9 00000000 		.4byte	.LFB68
 1412 04cd 34000000 		.4byte	.LFE68
 1413 04d1 26010000 		.4byte	.LLST10
 1414 04d5 E9040000 		.4byte	0x4e9
 1415 04d9 14       		.uleb128 0x14
 1416 04da 27030000 		.4byte	.LASF93
 1417 04de 01       		.byte	0x1
 1418 04df D9       		.byte	0xd9
 1419 04e0 7B000000 		.4byte	0x7b
 1420 04e4 46010000 		.4byte	.LLST11
 1421 04e8 00       		.byte	0
 1422 04e9 13       		.uleb128 0x13
 1423 04ea 01       		.byte	0x1
 1424 04eb AA040000 		.4byte	.LASF98
 1425 04ef 01       		.byte	0x1
 1426 04f0 EA       		.byte	0xea
 1427 04f1 01       		.byte	0x1
 1428 04f2 00000000 		.4byte	.LFB69
 1429 04f6 34000000 		.4byte	.LFE69
 1430 04fa 5F010000 		.4byte	.LLST12
 1431 04fe 12050000 		.4byte	0x512
 1432 0502 14       		.uleb128 0x14
 1433 0503 27030000 		.4byte	.LASF93
 1434 0507 01       		.byte	0x1
 1435 0508 EB       		.byte	0xeb
 1436 0509 7B000000 		.4byte	0x7b
 1437 050d 7F010000 		.4byte	.LLST13
 1438 0511 00       		.byte	0
 1439 0512 15       		.uleb128 0x15
 1440 0513 01       		.byte	0x1
 1441 0514 4E040000 		.4byte	.LASF99
 1442 0518 01       		.byte	0x1
 1443 0519 7D01     		.2byte	0x17d
 1444 051b 01       		.byte	0x1
 1445 051c 00000000 		.4byte	.LFB70
 1446 0520 7C000000 		.4byte	.LFE70
 1447 0524 98010000 		.4byte	.LLST14
 1448 0528 3B050000 		.4byte	0x53b
 1449 052c 16       		.uleb128 0x16
 1450 052d 6900     		.ascii	"i\000"
 1451 052f 01       		.byte	0x1
 1452 0530 7E01     		.2byte	0x17e
 1453 0532 29000000 		.4byte	0x29
ARM GAS  /tmp/ccgRtdwN.s 			page 27


 1454 0536 B8010000 		.4byte	.LLST15
 1455 053a 00       		.byte	0
 1456 053b 17       		.uleb128 0x17
 1457 053c 01       		.byte	0x1
 1458 053d 41050000 		.4byte	.LASF113
 1459 0541 01       		.byte	0x1
 1460 0542 A301     		.2byte	0x1a3
 1461 0544 01       		.byte	0x1
 1462 0545 9B000000 		.4byte	0x9b
 1463 0549 00000000 		.4byte	.LFB71
 1464 054d 98000000 		.4byte	.LFE71
 1465 0551 20020000 		.4byte	.LLST16
 1466 0555 9A050000 		.4byte	0x59a
 1467 0559 18       		.uleb128 0x18
 1468 055a 78000000 		.4byte	.LASF100
 1469 055e 01       		.byte	0x1
 1470 055f A301     		.2byte	0x1a3
 1471 0561 B8030000 		.4byte	0x3b8
 1472 0565 4C020000 		.4byte	.LLST17
 1473 0569 18       		.uleb128 0x18
 1474 056a 44000000 		.4byte	.LASF101
 1475 056e 01       		.byte	0x1
 1476 056f A401     		.2byte	0x1a4
 1477 0571 7B000000 		.4byte	0x7b
 1478 0575 6A020000 		.4byte	.LLST18
 1479 0579 18       		.uleb128 0x18
 1480 057a 4D020000 		.4byte	.LASF102
 1481 057e 01       		.byte	0x1
 1482 057f A501     		.2byte	0x1a5
 1483 0581 96030000 		.4byte	0x396
 1484 0585 88020000 		.4byte	.LLST19
 1485 0589 18       		.uleb128 0x18
 1486 058a 9C030000 		.4byte	.LASF103
 1487 058e 01       		.byte	0x1
 1488 058f A601     		.2byte	0x1a6
 1489 0591 AD000000 		.4byte	0xad
 1490 0595 A6020000 		.4byte	.LLST20
 1491 0599 00       		.byte	0
 1492 059a 15       		.uleb128 0x15
 1493 059b 01       		.byte	0x1
 1494 059c 7F000000 		.4byte	.LASF104
 1495 05a0 01       		.byte	0x1
 1496 05a1 D301     		.2byte	0x1d3
 1497 05a3 01       		.byte	0x1
 1498 05a4 00000000 		.4byte	.LFB72
 1499 05a8 64000000 		.4byte	.LFE72
 1500 05ac C4020000 		.4byte	.LLST21
 1501 05b0 C5050000 		.4byte	0x5c5
 1502 05b4 18       		.uleb128 0x18
 1503 05b5 78000000 		.4byte	.LASF100
 1504 05b9 01       		.byte	0x1
 1505 05ba D301     		.2byte	0x1d3
 1506 05bc B8030000 		.4byte	0x3b8
 1507 05c0 E4020000 		.4byte	.LLST22
 1508 05c4 00       		.byte	0
 1509 05c5 19       		.uleb128 0x19
 1510 05c6 89050000 		.4byte	.LASF105
ARM GAS  /tmp/ccgRtdwN.s 			page 28


 1511 05ca 06       		.byte	0x6
 1512 05cb 0706     		.2byte	0x607
 1513 05cd FA010000 		.4byte	0x1fa
 1514 05d1 01       		.byte	0x1
 1515 05d2 01       		.byte	0x1
 1516 05d3 1A       		.uleb128 0x1a
 1517 05d4 8B030000 		.4byte	0x38b
 1518 05d8 E3050000 		.4byte	0x5e3
 1519 05dc 1B       		.uleb128 0x1b
 1520 05dd 30000000 		.4byte	0x30
 1521 05e1 06       		.byte	0x6
 1522 05e2 00       		.byte	0
 1523 05e3 19       		.uleb128 0x19
 1524 05e4 23050000 		.4byte	.LASF106
 1525 05e8 05       		.byte	0x5
 1526 05e9 8401     		.2byte	0x184
 1527 05eb F1050000 		.4byte	0x5f1
 1528 05ef 01       		.byte	0x1
 1529 05f0 01       		.byte	0x1
 1530 05f1 12       		.uleb128 0x12
 1531 05f2 D3050000 		.4byte	0x5d3
 1532 05f6 1C       		.uleb128 0x1c
 1533 05f7 71050000 		.4byte	.LASF107
 1534 05fb 01       		.byte	0x1
 1535 05fc 6A       		.byte	0x6a
 1536 05fd 7B000000 		.4byte	0x7b
 1537 0601 05       		.byte	0x5
 1538 0602 03       		.byte	0x3
 1539 0603 00000000 		.4byte	dma_streams_mask
 1540 0607 1A       		.uleb128 0x1a
 1541 0608 E8030000 		.4byte	0x3e8
 1542 060c 17060000 		.4byte	0x617
 1543 0610 1B       		.uleb128 0x1b
 1544 0611 30000000 		.4byte	0x30
 1545 0615 06       		.byte	0x6
 1546 0616 00       		.byte	0
 1547 0617 1C       		.uleb128 0x1c
 1548 0618 63050000 		.4byte	.LASF108
 1549 061c 01       		.byte	0x1
 1550 061d 6F       		.byte	0x6f
 1551 061e 07060000 		.4byte	0x607
 1552 0622 05       		.byte	0x5
 1553 0623 03       		.byte	0x3
 1554 0624 00000000 		.4byte	dma_isr_redir
 1555 0628 19       		.uleb128 0x19
 1556 0629 89050000 		.4byte	.LASF105
 1557 062d 06       		.byte	0x6
 1558 062e 0706     		.2byte	0x607
 1559 0630 FA010000 		.4byte	0x1fa
 1560 0634 01       		.byte	0x1
 1561 0635 01       		.byte	0x1
 1562 0636 1D       		.uleb128 0x1d
 1563 0637 23050000 		.4byte	.LASF106
 1564 063b 01       		.byte	0x1
 1565 063c 45       		.byte	0x45
 1566 063d 48060000 		.4byte	0x648
 1567 0641 01       		.byte	0x1
ARM GAS  /tmp/ccgRtdwN.s 			page 29


 1568 0642 05       		.byte	0x5
 1569 0643 03       		.byte	0x3
 1570 0644 00000000 		.4byte	_stm32_dma_streams
 1571 0648 12       		.uleb128 0x12
 1572 0649 D3050000 		.4byte	0x5d3
 1573 064d 00       		.byte	0
 1574              		.section	.debug_abbrev,"",%progbits
 1575              	.Ldebug_abbrev0:
 1576 0000 01       		.uleb128 0x1
 1577 0001 11       		.uleb128 0x11
 1578 0002 01       		.byte	0x1
 1579 0003 25       		.uleb128 0x25
 1580 0004 0E       		.uleb128 0xe
 1581 0005 13       		.uleb128 0x13
 1582 0006 0B       		.uleb128 0xb
 1583 0007 03       		.uleb128 0x3
 1584 0008 0E       		.uleb128 0xe
 1585 0009 1B       		.uleb128 0x1b
 1586 000a 0E       		.uleb128 0xe
 1587 000b 11       		.uleb128 0x11
 1588 000c 01       		.uleb128 0x1
 1589 000d 52       		.uleb128 0x52
 1590 000e 01       		.uleb128 0x1
 1591 000f 55       		.uleb128 0x55
 1592 0010 06       		.uleb128 0x6
 1593 0011 10       		.uleb128 0x10
 1594 0012 06       		.uleb128 0x6
 1595 0013 00       		.byte	0
 1596 0014 00       		.byte	0
 1597 0015 02       		.uleb128 0x2
 1598 0016 24       		.uleb128 0x24
 1599 0017 00       		.byte	0
 1600 0018 0B       		.uleb128 0xb
 1601 0019 0B       		.uleb128 0xb
 1602 001a 3E       		.uleb128 0x3e
 1603 001b 0B       		.uleb128 0xb
 1604 001c 03       		.uleb128 0x3
 1605 001d 08       		.uleb128 0x8
 1606 001e 00       		.byte	0
 1607 001f 00       		.byte	0
 1608 0020 03       		.uleb128 0x3
 1609 0021 24       		.uleb128 0x24
 1610 0022 00       		.byte	0
 1611 0023 0B       		.uleb128 0xb
 1612 0024 0B       		.uleb128 0xb
 1613 0025 3E       		.uleb128 0x3e
 1614 0026 0B       		.uleb128 0xb
 1615 0027 03       		.uleb128 0x3
 1616 0028 0E       		.uleb128 0xe
 1617 0029 00       		.byte	0
 1618 002a 00       		.byte	0
 1619 002b 04       		.uleb128 0x4
 1620 002c 16       		.uleb128 0x16
 1621 002d 00       		.byte	0
 1622 002e 03       		.uleb128 0x3
 1623 002f 0E       		.uleb128 0xe
 1624 0030 3A       		.uleb128 0x3a
ARM GAS  /tmp/ccgRtdwN.s 			page 30


 1625 0031 0B       		.uleb128 0xb
 1626 0032 3B       		.uleb128 0x3b
 1627 0033 0B       		.uleb128 0xb
 1628 0034 49       		.uleb128 0x49
 1629 0035 13       		.uleb128 0x13
 1630 0036 00       		.byte	0
 1631 0037 00       		.byte	0
 1632 0038 05       		.uleb128 0x5
 1633 0039 0F       		.uleb128 0xf
 1634 003a 00       		.byte	0
 1635 003b 0B       		.uleb128 0xb
 1636 003c 0B       		.uleb128 0xb
 1637 003d 00       		.byte	0
 1638 003e 00       		.byte	0
 1639 003f 06       		.uleb128 0x6
 1640 0040 35       		.uleb128 0x35
 1641 0041 00       		.byte	0
 1642 0042 49       		.uleb128 0x49
 1643 0043 13       		.uleb128 0x13
 1644 0044 00       		.byte	0
 1645 0045 00       		.byte	0
 1646 0046 07       		.uleb128 0x7
 1647 0047 04       		.uleb128 0x4
 1648 0048 01       		.byte	0x1
 1649 0049 03       		.uleb128 0x3
 1650 004a 0E       		.uleb128 0xe
 1651 004b 0B       		.uleb128 0xb
 1652 004c 0B       		.uleb128 0xb
 1653 004d 3A       		.uleb128 0x3a
 1654 004e 0B       		.uleb128 0xb
 1655 004f 3B       		.uleb128 0x3b
 1656 0050 0B       		.uleb128 0xb
 1657 0051 01       		.uleb128 0x1
 1658 0052 13       		.uleb128 0x13
 1659 0053 00       		.byte	0
 1660 0054 00       		.byte	0
 1661 0055 08       		.uleb128 0x8
 1662 0056 28       		.uleb128 0x28
 1663 0057 00       		.byte	0
 1664 0058 03       		.uleb128 0x3
 1665 0059 0E       		.uleb128 0xe
 1666 005a 1C       		.uleb128 0x1c
 1667 005b 0D       		.uleb128 0xd
 1668 005c 00       		.byte	0
 1669 005d 00       		.byte	0
 1670 005e 09       		.uleb128 0x9
 1671 005f 13       		.uleb128 0x13
 1672 0060 01       		.byte	0x1
 1673 0061 0B       		.uleb128 0xb
 1674 0062 0B       		.uleb128 0xb
 1675 0063 3A       		.uleb128 0x3a
 1676 0064 0B       		.uleb128 0xb
 1677 0065 3B       		.uleb128 0x3b
 1678 0066 05       		.uleb128 0x5
 1679 0067 01       		.uleb128 0x1
 1680 0068 13       		.uleb128 0x13
 1681 0069 00       		.byte	0
ARM GAS  /tmp/ccgRtdwN.s 			page 31


 1682 006a 00       		.byte	0
 1683 006b 0A       		.uleb128 0xa
 1684 006c 0D       		.uleb128 0xd
 1685 006d 00       		.byte	0
 1686 006e 03       		.uleb128 0x3
 1687 006f 08       		.uleb128 0x8
 1688 0070 3A       		.uleb128 0x3a
 1689 0071 0B       		.uleb128 0xb
 1690 0072 3B       		.uleb128 0x3b
 1691 0073 05       		.uleb128 0x5
 1692 0074 49       		.uleb128 0x49
 1693 0075 13       		.uleb128 0x13
 1694 0076 38       		.uleb128 0x38
 1695 0077 0A       		.uleb128 0xa
 1696 0078 00       		.byte	0
 1697 0079 00       		.byte	0
 1698 007a 0B       		.uleb128 0xb
 1699 007b 0D       		.uleb128 0xd
 1700 007c 00       		.byte	0
 1701 007d 03       		.uleb128 0x3
 1702 007e 0E       		.uleb128 0xe
 1703 007f 3A       		.uleb128 0x3a
 1704 0080 0B       		.uleb128 0xb
 1705 0081 3B       		.uleb128 0x3b
 1706 0082 05       		.uleb128 0x5
 1707 0083 49       		.uleb128 0x49
 1708 0084 13       		.uleb128 0x13
 1709 0085 38       		.uleb128 0x38
 1710 0086 0A       		.uleb128 0xa
 1711 0087 00       		.byte	0
 1712 0088 00       		.byte	0
 1713 0089 0C       		.uleb128 0xc
 1714 008a 16       		.uleb128 0x16
 1715 008b 00       		.byte	0
 1716 008c 03       		.uleb128 0x3
 1717 008d 0E       		.uleb128 0xe
 1718 008e 3A       		.uleb128 0x3a
 1719 008f 0B       		.uleb128 0xb
 1720 0090 3B       		.uleb128 0x3b
 1721 0091 05       		.uleb128 0x5
 1722 0092 49       		.uleb128 0x49
 1723 0093 13       		.uleb128 0x13
 1724 0094 00       		.byte	0
 1725 0095 00       		.byte	0
 1726 0096 0D       		.uleb128 0xd
 1727 0097 13       		.uleb128 0x13
 1728 0098 01       		.byte	0x1
 1729 0099 0B       		.uleb128 0xb
 1730 009a 0B       		.uleb128 0xb
 1731 009b 3A       		.uleb128 0x3a
 1732 009c 0B       		.uleb128 0xb
 1733 009d 3B       		.uleb128 0x3b
 1734 009e 0B       		.uleb128 0xb
 1735 009f 01       		.uleb128 0x1
 1736 00a0 13       		.uleb128 0x13
 1737 00a1 00       		.byte	0
 1738 00a2 00       		.byte	0
ARM GAS  /tmp/ccgRtdwN.s 			page 32


 1739 00a3 0E       		.uleb128 0xe
 1740 00a4 0D       		.uleb128 0xd
 1741 00a5 00       		.byte	0
 1742 00a6 03       		.uleb128 0x3
 1743 00a7 0E       		.uleb128 0xe
 1744 00a8 3A       		.uleb128 0x3a
 1745 00a9 0B       		.uleb128 0xb
 1746 00aa 3B       		.uleb128 0x3b
 1747 00ab 0B       		.uleb128 0xb
 1748 00ac 49       		.uleb128 0x49
 1749 00ad 13       		.uleb128 0x13
 1750 00ae 38       		.uleb128 0x38
 1751 00af 0A       		.uleb128 0xa
 1752 00b0 00       		.byte	0
 1753 00b1 00       		.byte	0
 1754 00b2 0F       		.uleb128 0xf
 1755 00b3 0F       		.uleb128 0xf
 1756 00b4 00       		.byte	0
 1757 00b5 0B       		.uleb128 0xb
 1758 00b6 0B       		.uleb128 0xb
 1759 00b7 49       		.uleb128 0x49
 1760 00b8 13       		.uleb128 0x13
 1761 00b9 00       		.byte	0
 1762 00ba 00       		.byte	0
 1763 00bb 10       		.uleb128 0x10
 1764 00bc 15       		.uleb128 0x15
 1765 00bd 01       		.byte	0x1
 1766 00be 27       		.uleb128 0x27
 1767 00bf 0C       		.uleb128 0xc
 1768 00c0 01       		.uleb128 0x1
 1769 00c1 13       		.uleb128 0x13
 1770 00c2 00       		.byte	0
 1771 00c3 00       		.byte	0
 1772 00c4 11       		.uleb128 0x11
 1773 00c5 05       		.uleb128 0x5
 1774 00c6 00       		.byte	0
 1775 00c7 49       		.uleb128 0x49
 1776 00c8 13       		.uleb128 0x13
 1777 00c9 00       		.byte	0
 1778 00ca 00       		.byte	0
 1779 00cb 12       		.uleb128 0x12
 1780 00cc 26       		.uleb128 0x26
 1781 00cd 00       		.byte	0
 1782 00ce 49       		.uleb128 0x49
 1783 00cf 13       		.uleb128 0x13
 1784 00d0 00       		.byte	0
 1785 00d1 00       		.byte	0
 1786 00d2 13       		.uleb128 0x13
 1787 00d3 2E       		.uleb128 0x2e
 1788 00d4 01       		.byte	0x1
 1789 00d5 3F       		.uleb128 0x3f
 1790 00d6 0C       		.uleb128 0xc
 1791 00d7 03       		.uleb128 0x3
 1792 00d8 0E       		.uleb128 0xe
 1793 00d9 3A       		.uleb128 0x3a
 1794 00da 0B       		.uleb128 0xb
 1795 00db 3B       		.uleb128 0x3b
ARM GAS  /tmp/ccgRtdwN.s 			page 33


 1796 00dc 0B       		.uleb128 0xb
 1797 00dd 27       		.uleb128 0x27
 1798 00de 0C       		.uleb128 0xc
 1799 00df 11       		.uleb128 0x11
 1800 00e0 01       		.uleb128 0x1
 1801 00e1 12       		.uleb128 0x12
 1802 00e2 01       		.uleb128 0x1
 1803 00e3 40       		.uleb128 0x40
 1804 00e4 06       		.uleb128 0x6
 1805 00e5 01       		.uleb128 0x1
 1806 00e6 13       		.uleb128 0x13
 1807 00e7 00       		.byte	0
 1808 00e8 00       		.byte	0
 1809 00e9 14       		.uleb128 0x14
 1810 00ea 34       		.uleb128 0x34
 1811 00eb 00       		.byte	0
 1812 00ec 03       		.uleb128 0x3
 1813 00ed 0E       		.uleb128 0xe
 1814 00ee 3A       		.uleb128 0x3a
 1815 00ef 0B       		.uleb128 0xb
 1816 00f0 3B       		.uleb128 0x3b
 1817 00f1 0B       		.uleb128 0xb
 1818 00f2 49       		.uleb128 0x49
 1819 00f3 13       		.uleb128 0x13
 1820 00f4 02       		.uleb128 0x2
 1821 00f5 06       		.uleb128 0x6
 1822 00f6 00       		.byte	0
 1823 00f7 00       		.byte	0
 1824 00f8 15       		.uleb128 0x15
 1825 00f9 2E       		.uleb128 0x2e
 1826 00fa 01       		.byte	0x1
 1827 00fb 3F       		.uleb128 0x3f
 1828 00fc 0C       		.uleb128 0xc
 1829 00fd 03       		.uleb128 0x3
 1830 00fe 0E       		.uleb128 0xe
 1831 00ff 3A       		.uleb128 0x3a
 1832 0100 0B       		.uleb128 0xb
 1833 0101 3B       		.uleb128 0x3b
 1834 0102 05       		.uleb128 0x5
 1835 0103 27       		.uleb128 0x27
 1836 0104 0C       		.uleb128 0xc
 1837 0105 11       		.uleb128 0x11
 1838 0106 01       		.uleb128 0x1
 1839 0107 12       		.uleb128 0x12
 1840 0108 01       		.uleb128 0x1
 1841 0109 40       		.uleb128 0x40
 1842 010a 06       		.uleb128 0x6
 1843 010b 01       		.uleb128 0x1
 1844 010c 13       		.uleb128 0x13
 1845 010d 00       		.byte	0
 1846 010e 00       		.byte	0
 1847 010f 16       		.uleb128 0x16
 1848 0110 34       		.uleb128 0x34
 1849 0111 00       		.byte	0
 1850 0112 03       		.uleb128 0x3
 1851 0113 08       		.uleb128 0x8
 1852 0114 3A       		.uleb128 0x3a
ARM GAS  /tmp/ccgRtdwN.s 			page 34


 1853 0115 0B       		.uleb128 0xb
 1854 0116 3B       		.uleb128 0x3b
 1855 0117 05       		.uleb128 0x5
 1856 0118 49       		.uleb128 0x49
 1857 0119 13       		.uleb128 0x13
 1858 011a 02       		.uleb128 0x2
 1859 011b 06       		.uleb128 0x6
 1860 011c 00       		.byte	0
 1861 011d 00       		.byte	0
 1862 011e 17       		.uleb128 0x17
 1863 011f 2E       		.uleb128 0x2e
 1864 0120 01       		.byte	0x1
 1865 0121 3F       		.uleb128 0x3f
 1866 0122 0C       		.uleb128 0xc
 1867 0123 03       		.uleb128 0x3
 1868 0124 0E       		.uleb128 0xe
 1869 0125 3A       		.uleb128 0x3a
 1870 0126 0B       		.uleb128 0xb
 1871 0127 3B       		.uleb128 0x3b
 1872 0128 05       		.uleb128 0x5
 1873 0129 27       		.uleb128 0x27
 1874 012a 0C       		.uleb128 0xc
 1875 012b 49       		.uleb128 0x49
 1876 012c 13       		.uleb128 0x13
 1877 012d 11       		.uleb128 0x11
 1878 012e 01       		.uleb128 0x1
 1879 012f 12       		.uleb128 0x12
 1880 0130 01       		.uleb128 0x1
 1881 0131 40       		.uleb128 0x40
 1882 0132 06       		.uleb128 0x6
 1883 0133 01       		.uleb128 0x1
 1884 0134 13       		.uleb128 0x13
 1885 0135 00       		.byte	0
 1886 0136 00       		.byte	0
 1887 0137 18       		.uleb128 0x18
 1888 0138 05       		.uleb128 0x5
 1889 0139 00       		.byte	0
 1890 013a 03       		.uleb128 0x3
 1891 013b 0E       		.uleb128 0xe
 1892 013c 3A       		.uleb128 0x3a
 1893 013d 0B       		.uleb128 0xb
 1894 013e 3B       		.uleb128 0x3b
 1895 013f 05       		.uleb128 0x5
 1896 0140 49       		.uleb128 0x49
 1897 0141 13       		.uleb128 0x13
 1898 0142 02       		.uleb128 0x2
 1899 0143 06       		.uleb128 0x6
 1900 0144 00       		.byte	0
 1901 0145 00       		.byte	0
 1902 0146 19       		.uleb128 0x19
 1903 0147 34       		.uleb128 0x34
 1904 0148 00       		.byte	0
 1905 0149 03       		.uleb128 0x3
 1906 014a 0E       		.uleb128 0xe
 1907 014b 3A       		.uleb128 0x3a
 1908 014c 0B       		.uleb128 0xb
 1909 014d 3B       		.uleb128 0x3b
ARM GAS  /tmp/ccgRtdwN.s 			page 35


 1910 014e 05       		.uleb128 0x5
 1911 014f 49       		.uleb128 0x49
 1912 0150 13       		.uleb128 0x13
 1913 0151 3F       		.uleb128 0x3f
 1914 0152 0C       		.uleb128 0xc
 1915 0153 3C       		.uleb128 0x3c
 1916 0154 0C       		.uleb128 0xc
 1917 0155 00       		.byte	0
 1918 0156 00       		.byte	0
 1919 0157 1A       		.uleb128 0x1a
 1920 0158 01       		.uleb128 0x1
 1921 0159 01       		.byte	0x1
 1922 015a 49       		.uleb128 0x49
 1923 015b 13       		.uleb128 0x13
 1924 015c 01       		.uleb128 0x1
 1925 015d 13       		.uleb128 0x13
 1926 015e 00       		.byte	0
 1927 015f 00       		.byte	0
 1928 0160 1B       		.uleb128 0x1b
 1929 0161 21       		.uleb128 0x21
 1930 0162 00       		.byte	0
 1931 0163 49       		.uleb128 0x49
 1932 0164 13       		.uleb128 0x13
 1933 0165 2F       		.uleb128 0x2f
 1934 0166 0B       		.uleb128 0xb
 1935 0167 00       		.byte	0
 1936 0168 00       		.byte	0
 1937 0169 1C       		.uleb128 0x1c
 1938 016a 34       		.uleb128 0x34
 1939 016b 00       		.byte	0
 1940 016c 03       		.uleb128 0x3
 1941 016d 0E       		.uleb128 0xe
 1942 016e 3A       		.uleb128 0x3a
 1943 016f 0B       		.uleb128 0xb
 1944 0170 3B       		.uleb128 0x3b
 1945 0171 0B       		.uleb128 0xb
 1946 0172 49       		.uleb128 0x49
 1947 0173 13       		.uleb128 0x13
 1948 0174 02       		.uleb128 0x2
 1949 0175 0A       		.uleb128 0xa
 1950 0176 00       		.byte	0
 1951 0177 00       		.byte	0
 1952 0178 1D       		.uleb128 0x1d
 1953 0179 34       		.uleb128 0x34
 1954 017a 00       		.byte	0
 1955 017b 03       		.uleb128 0x3
 1956 017c 0E       		.uleb128 0xe
 1957 017d 3A       		.uleb128 0x3a
 1958 017e 0B       		.uleb128 0xb
 1959 017f 3B       		.uleb128 0x3b
 1960 0180 0B       		.uleb128 0xb
 1961 0181 49       		.uleb128 0x49
 1962 0182 13       		.uleb128 0x13
 1963 0183 3F       		.uleb128 0x3f
 1964 0184 0C       		.uleb128 0xc
 1965 0185 02       		.uleb128 0x2
 1966 0186 0A       		.uleb128 0xa
ARM GAS  /tmp/ccgRtdwN.s 			page 36


 1967 0187 00       		.byte	0
 1968 0188 00       		.byte	0
 1969 0189 00       		.byte	0
 1970              		.section	.debug_loc,"",%progbits
 1971              	.Ldebug_loc0:
 1972              	.LLST0:
 1973 0000 00000000 		.4byte	.LFB63
 1974 0004 02000000 		.4byte	.LCFI0
 1975 0008 0200     		.2byte	0x2
 1976 000a 7D       		.byte	0x7d
 1977 000b 00       		.sleb128 0
 1978 000c 02000000 		.4byte	.LCFI0
 1979 0010 30000000 		.4byte	.LFE63
 1980 0014 0200     		.2byte	0x2
 1981 0016 7D       		.byte	0x7d
 1982 0017 08       		.sleb128 8
 1983 0018 00000000 		.4byte	0
 1984 001c 00000000 		.4byte	0
 1985              	.LLST1:
 1986 0020 14000000 		.4byte	.LVL0
 1987 0024 1C000000 		.4byte	.LVL1
 1988 0028 0500     		.2byte	0x5
 1989 002a 71       		.byte	0x71
 1990 002b 00       		.sleb128 0
 1991 002c 3F       		.byte	0x3f
 1992 002d 1A       		.byte	0x1a
 1993 002e 9F       		.byte	0x9f
 1994 002f 1C000000 		.4byte	.LVL1
 1995 0033 1D000000 		.4byte	.LVL2-1
 1996 0037 0100     		.2byte	0x1
 1997 0039 51       		.byte	0x51
 1998 003a 00000000 		.4byte	0
 1999 003e 00000000 		.4byte	0
 2000              	.LLST2:
 2001 0042 00000000 		.4byte	.LFB64
 2002 0046 02000000 		.4byte	.LCFI1
 2003 004a 0200     		.2byte	0x2
 2004 004c 7D       		.byte	0x7d
 2005 004d 00       		.sleb128 0
 2006 004e 02000000 		.4byte	.LCFI1
 2007 0052 30000000 		.4byte	.LFE64
 2008 0056 0200     		.2byte	0x2
 2009 0058 7D       		.byte	0x7d
 2010 0059 08       		.sleb128 8
 2011 005a 00000000 		.4byte	0
 2012 005e 00000000 		.4byte	0
 2013              	.LLST3:
 2014 0062 14000000 		.4byte	.LVL3
 2015 0066 1E000000 		.4byte	.LVL4
 2016 006a 0700     		.2byte	0x7
 2017 006c 71       		.byte	0x71
 2018 006d 00       		.sleb128 0
 2019 006e 34       		.byte	0x34
 2020 006f 25       		.byte	0x25
 2021 0070 3F       		.byte	0x3f
 2022 0071 1A       		.byte	0x1a
 2023 0072 9F       		.byte	0x9f
ARM GAS  /tmp/ccgRtdwN.s 			page 37


 2024 0073 00000000 		.4byte	0
 2025 0077 00000000 		.4byte	0
 2026              	.LLST4:
 2027 007b 00000000 		.4byte	.LFB65
 2028 007f 02000000 		.4byte	.LCFI2
 2029 0083 0200     		.2byte	0x2
 2030 0085 7D       		.byte	0x7d
 2031 0086 00       		.sleb128 0
 2032 0087 02000000 		.4byte	.LCFI2
 2033 008b 34000000 		.4byte	.LFE65
 2034 008f 0200     		.2byte	0x2
 2035 0091 7D       		.byte	0x7d
 2036 0092 08       		.sleb128 8
 2037 0093 00000000 		.4byte	0
 2038 0097 00000000 		.4byte	0
 2039              	.LLST5:
 2040 009b 16000000 		.4byte	.LVL5
 2041 009f 20000000 		.4byte	.LVL6
 2042 00a3 0700     		.2byte	0x7
 2043 00a5 71       		.byte	0x71
 2044 00a6 00       		.sleb128 0
 2045 00a7 38       		.byte	0x38
 2046 00a8 25       		.byte	0x25
 2047 00a9 3F       		.byte	0x3f
 2048 00aa 1A       		.byte	0x1a
 2049 00ab 9F       		.byte	0x9f
 2050 00ac 00000000 		.4byte	0
 2051 00b0 00000000 		.4byte	0
 2052              	.LLST6:
 2053 00b4 00000000 		.4byte	.LFB66
 2054 00b8 02000000 		.4byte	.LCFI3
 2055 00bc 0200     		.2byte	0x2
 2056 00be 7D       		.byte	0x7d
 2057 00bf 00       		.sleb128 0
 2058 00c0 02000000 		.4byte	.LCFI3
 2059 00c4 34000000 		.4byte	.LFE66
 2060 00c8 0200     		.2byte	0x2
 2061 00ca 7D       		.byte	0x7d
 2062 00cb 08       		.sleb128 8
 2063 00cc 00000000 		.4byte	0
 2064 00d0 00000000 		.4byte	0
 2065              	.LLST7:
 2066 00d4 16000000 		.4byte	.LVL7
 2067 00d8 20000000 		.4byte	.LVL8
 2068 00dc 0700     		.2byte	0x7
 2069 00de 71       		.byte	0x71
 2070 00df 00       		.sleb128 0
 2071 00e0 3C       		.byte	0x3c
 2072 00e1 25       		.byte	0x25
 2073 00e2 3F       		.byte	0x3f
 2074 00e3 1A       		.byte	0x1a
 2075 00e4 9F       		.byte	0x9f
 2076 00e5 00000000 		.4byte	0
 2077 00e9 00000000 		.4byte	0
 2078              	.LLST8:
 2079 00ed 00000000 		.4byte	.LFB67
 2080 00f1 02000000 		.4byte	.LCFI4
ARM GAS  /tmp/ccgRtdwN.s 			page 38


 2081 00f5 0200     		.2byte	0x2
 2082 00f7 7D       		.byte	0x7d
 2083 00f8 00       		.sleb128 0
 2084 00f9 02000000 		.4byte	.LCFI4
 2085 00fd 34000000 		.4byte	.LFE67
 2086 0101 0200     		.2byte	0x2
 2087 0103 7D       		.byte	0x7d
 2088 0104 08       		.sleb128 8
 2089 0105 00000000 		.4byte	0
 2090 0109 00000000 		.4byte	0
 2091              	.LLST9:
 2092 010d 16000000 		.4byte	.LVL9
 2093 0111 20000000 		.4byte	.LVL10
 2094 0115 0700     		.2byte	0x7
 2095 0117 71       		.byte	0x71
 2096 0118 00       		.sleb128 0
 2097 0119 40       		.byte	0x40
 2098 011a 25       		.byte	0x25
 2099 011b 3F       		.byte	0x3f
 2100 011c 1A       		.byte	0x1a
 2101 011d 9F       		.byte	0x9f
 2102 011e 00000000 		.4byte	0
 2103 0122 00000000 		.4byte	0
 2104              	.LLST10:
 2105 0126 00000000 		.4byte	.LFB68
 2106 012a 02000000 		.4byte	.LCFI5
 2107 012e 0200     		.2byte	0x2
 2108 0130 7D       		.byte	0x7d
 2109 0131 00       		.sleb128 0
 2110 0132 02000000 		.4byte	.LCFI5
 2111 0136 34000000 		.4byte	.LFE68
 2112 013a 0200     		.2byte	0x2
 2113 013c 7D       		.byte	0x7d
 2114 013d 08       		.sleb128 8
 2115 013e 00000000 		.4byte	0
 2116 0142 00000000 		.4byte	0
 2117              	.LLST11:
 2118 0146 16000000 		.4byte	.LVL11
 2119 014a 20000000 		.4byte	.LVL12
 2120 014e 0700     		.2byte	0x7
 2121 0150 71       		.byte	0x71
 2122 0151 00       		.sleb128 0
 2123 0152 44       		.byte	0x44
 2124 0153 25       		.byte	0x25
 2125 0154 3F       		.byte	0x3f
 2126 0155 1A       		.byte	0x1a
 2127 0156 9F       		.byte	0x9f
 2128 0157 00000000 		.4byte	0
 2129 015b 00000000 		.4byte	0
 2130              	.LLST12:
 2131 015f 00000000 		.4byte	.LFB69
 2132 0163 02000000 		.4byte	.LCFI6
 2133 0167 0200     		.2byte	0x2
 2134 0169 7D       		.byte	0x7d
 2135 016a 00       		.sleb128 0
 2136 016b 02000000 		.4byte	.LCFI6
 2137 016f 34000000 		.4byte	.LFE69
ARM GAS  /tmp/ccgRtdwN.s 			page 39


 2138 0173 0200     		.2byte	0x2
 2139 0175 7D       		.byte	0x7d
 2140 0176 08       		.sleb128 8
 2141 0177 00000000 		.4byte	0
 2142 017b 00000000 		.4byte	0
 2143              	.LLST13:
 2144 017f 16000000 		.4byte	.LVL13
 2145 0183 20000000 		.4byte	.LVL14
 2146 0187 0700     		.2byte	0x7
 2147 0189 71       		.byte	0x71
 2148 018a 00       		.sleb128 0
 2149 018b 48       		.byte	0x48
 2150 018c 25       		.byte	0x25
 2151 018d 3F       		.byte	0x3f
 2152 018e 1A       		.byte	0x1a
 2153 018f 9F       		.byte	0x9f
 2154 0190 00000000 		.4byte	0
 2155 0194 00000000 		.4byte	0
 2156              	.LLST14:
 2157 0198 00000000 		.4byte	.LFB70
 2158 019c 04000000 		.4byte	.LCFI7
 2159 01a0 0200     		.2byte	0x2
 2160 01a2 7D       		.byte	0x7d
 2161 01a3 00       		.sleb128 0
 2162 01a4 04000000 		.4byte	.LCFI7
 2163 01a8 7C000000 		.4byte	.LFE70
 2164 01ac 0200     		.2byte	0x2
 2165 01ae 7D       		.byte	0x7d
 2166 01af 18       		.sleb128 24
 2167 01b0 00000000 		.4byte	0
 2168 01b4 00000000 		.4byte	0
 2169              	.LLST15:
 2170 01b8 4A000000 		.4byte	.LVL15
 2171 01bc 54000000 		.4byte	.LVL16
 2172 01c0 0200     		.2byte	0x2
 2173 01c2 30       		.byte	0x30
 2174 01c3 9F       		.byte	0x9f
 2175 01c4 54000000 		.4byte	.LVL16
 2176 01c8 5A000000 		.4byte	.LVL17
 2177 01cc 0200     		.2byte	0x2
 2178 01ce 31       		.byte	0x31
 2179 01cf 9F       		.byte	0x9f
 2180 01d0 5A000000 		.4byte	.LVL17
 2181 01d4 60000000 		.4byte	.LVL18
 2182 01d8 0200     		.2byte	0x2
 2183 01da 32       		.byte	0x32
 2184 01db 9F       		.byte	0x9f
 2185 01dc 60000000 		.4byte	.LVL18
 2186 01e0 64000000 		.4byte	.LVL19
 2187 01e4 0200     		.2byte	0x2
 2188 01e6 33       		.byte	0x33
 2189 01e7 9F       		.byte	0x9f
 2190 01e8 64000000 		.4byte	.LVL19
 2191 01ec 68000000 		.4byte	.LVL20
 2192 01f0 0200     		.2byte	0x2
 2193 01f2 34       		.byte	0x34
 2194 01f3 9F       		.byte	0x9f
ARM GAS  /tmp/ccgRtdwN.s 			page 40


 2195 01f4 68000000 		.4byte	.LVL20
 2196 01f8 6C000000 		.4byte	.LVL21
 2197 01fc 0200     		.2byte	0x2
 2198 01fe 35       		.byte	0x35
 2199 01ff 9F       		.byte	0x9f
 2200 0200 6C000000 		.4byte	.LVL21
 2201 0204 70000000 		.4byte	.LVL22
 2202 0208 0200     		.2byte	0x2
 2203 020a 36       		.byte	0x36
 2204 020b 9F       		.byte	0x9f
 2205 020c 70000000 		.4byte	.LVL22
 2206 0210 7C000000 		.4byte	.LFE70
 2207 0214 0200     		.2byte	0x2
 2208 0216 37       		.byte	0x37
 2209 0217 9F       		.byte	0x9f
 2210 0218 00000000 		.4byte	0
 2211 021c 00000000 		.4byte	0
 2212              	.LLST16:
 2213 0220 00000000 		.4byte	.LFB71
 2214 0224 02000000 		.4byte	.LCFI8
 2215 0228 0200     		.2byte	0x2
 2216 022a 7D       		.byte	0x7d
 2217 022b 00       		.sleb128 0
 2218 022c 02000000 		.4byte	.LCFI8
 2219 0230 06000000 		.4byte	.LCFI9
 2220 0234 0200     		.2byte	0x2
 2221 0236 7D       		.byte	0x7d
 2222 0237 14       		.sleb128 20
 2223 0238 06000000 		.4byte	.LCFI9
 2224 023c 98000000 		.4byte	.LFE71
 2225 0240 0200     		.2byte	0x2
 2226 0242 7D       		.byte	0x7d
 2227 0243 28       		.sleb128 40
 2228 0244 00000000 		.4byte	0
 2229 0248 00000000 		.4byte	0
 2230              	.LLST17:
 2231 024c 00000000 		.4byte	.LVL23
 2232 0250 0A000000 		.4byte	.LVL24
 2233 0254 0100     		.2byte	0x1
 2234 0256 50       		.byte	0x50
 2235 0257 0A000000 		.4byte	.LVL24
 2236 025b 98000000 		.4byte	.LFE71
 2237 025f 0100     		.2byte	0x1
 2238 0261 54       		.byte	0x54
 2239 0262 00000000 		.4byte	0
 2240 0266 00000000 		.4byte	0
 2241              	.LLST18:
 2242 026a 00000000 		.4byte	.LVL23
 2243 026e 0A000000 		.4byte	.LVL24
 2244 0272 0100     		.2byte	0x1
 2245 0274 51       		.byte	0x51
 2246 0275 78000000 		.4byte	.LVL25
 2247 0279 83000000 		.4byte	.LVL26-1
 2248 027d 0100     		.2byte	0x1
 2249 027f 51       		.byte	0x51
 2250 0280 00000000 		.4byte	0
 2251 0284 00000000 		.4byte	0
ARM GAS  /tmp/ccgRtdwN.s 			page 41


 2252              	.LLST19:
 2253 0288 00000000 		.4byte	.LVL23
 2254 028c 0A000000 		.4byte	.LVL24
 2255 0290 0100     		.2byte	0x1
 2256 0292 52       		.byte	0x52
 2257 0293 78000000 		.4byte	.LVL25
 2258 0297 83000000 		.4byte	.LVL26-1
 2259 029b 0100     		.2byte	0x1
 2260 029d 52       		.byte	0x52
 2261 029e 00000000 		.4byte	0
 2262 02a2 00000000 		.4byte	0
 2263              	.LLST20:
 2264 02a6 00000000 		.4byte	.LVL23
 2265 02aa 0A000000 		.4byte	.LVL24
 2266 02ae 0100     		.2byte	0x1
 2267 02b0 53       		.byte	0x53
 2268 02b1 78000000 		.4byte	.LVL25
 2269 02b5 83000000 		.4byte	.LVL26-1
 2270 02b9 0100     		.2byte	0x1
 2271 02bb 53       		.byte	0x53
 2272 02bc 00000000 		.4byte	0
 2273 02c0 00000000 		.4byte	0
 2274              	.LLST21:
 2275 02c4 00000000 		.4byte	.LFB72
 2276 02c8 02000000 		.4byte	.LCFI10
 2277 02cc 0200     		.2byte	0x2
 2278 02ce 7D       		.byte	0x7d
 2279 02cf 00       		.sleb128 0
 2280 02d0 02000000 		.4byte	.LCFI10
 2281 02d4 64000000 		.4byte	.LFE72
 2282 02d8 0200     		.2byte	0x2
 2283 02da 7D       		.byte	0x7d
 2284 02db 10       		.sleb128 16
 2285 02dc 00000000 		.4byte	0
 2286 02e0 00000000 		.4byte	0
 2287              	.LLST22:
 2288 02e4 00000000 		.4byte	.LVL27
 2289 02e8 06000000 		.4byte	.LVL28
 2290 02ec 0100     		.2byte	0x1
 2291 02ee 50       		.byte	0x50
 2292 02ef 06000000 		.4byte	.LVL28
 2293 02f3 64000000 		.4byte	.LFE72
 2294 02f7 0100     		.2byte	0x1
 2295 02f9 54       		.byte	0x54
 2296 02fa 00000000 		.4byte	0
 2297 02fe 00000000 		.4byte	0
 2298              		.section	.debug_aranges,"",%progbits
 2299 0000 64000000 		.4byte	0x64
 2300 0004 0200     		.2byte	0x2
 2301 0006 00000000 		.4byte	.Ldebug_info0
 2302 000a 04       		.byte	0x4
 2303 000b 00       		.byte	0
 2304 000c 0000     		.2byte	0
 2305 000e 0000     		.2byte	0
 2306 0010 00000000 		.4byte	.LFB63
 2307 0014 30000000 		.4byte	.LFE63-.LFB63
 2308 0018 00000000 		.4byte	.LFB64
ARM GAS  /tmp/ccgRtdwN.s 			page 42


 2309 001c 30000000 		.4byte	.LFE64-.LFB64
 2310 0020 00000000 		.4byte	.LFB65
 2311 0024 34000000 		.4byte	.LFE65-.LFB65
 2312 0028 00000000 		.4byte	.LFB66
 2313 002c 34000000 		.4byte	.LFE66-.LFB66
 2314 0030 00000000 		.4byte	.LFB67
 2315 0034 34000000 		.4byte	.LFE67-.LFB67
 2316 0038 00000000 		.4byte	.LFB68
 2317 003c 34000000 		.4byte	.LFE68-.LFB68
 2318 0040 00000000 		.4byte	.LFB69
 2319 0044 34000000 		.4byte	.LFE69-.LFB69
 2320 0048 00000000 		.4byte	.LFB70
 2321 004c 7C000000 		.4byte	.LFE70-.LFB70
 2322 0050 00000000 		.4byte	.LFB71
 2323 0054 98000000 		.4byte	.LFE71-.LFB71
 2324 0058 00000000 		.4byte	.LFB72
 2325 005c 64000000 		.4byte	.LFE72-.LFB72
 2326 0060 00000000 		.4byte	0
 2327 0064 00000000 		.4byte	0
 2328              		.section	.debug_ranges,"",%progbits
 2329              	.Ldebug_ranges0:
 2330 0000 00000000 		.4byte	.LFB63
 2331 0004 30000000 		.4byte	.LFE63
 2332 0008 00000000 		.4byte	.LFB64
 2333 000c 30000000 		.4byte	.LFE64
 2334 0010 00000000 		.4byte	.LFB65
 2335 0014 34000000 		.4byte	.LFE65
 2336 0018 00000000 		.4byte	.LFB66
 2337 001c 34000000 		.4byte	.LFE66
 2338 0020 00000000 		.4byte	.LFB67
 2339 0024 34000000 		.4byte	.LFE67
 2340 0028 00000000 		.4byte	.LFB68
 2341 002c 34000000 		.4byte	.LFE68
 2342 0030 00000000 		.4byte	.LFB69
 2343 0034 34000000 		.4byte	.LFE69
 2344 0038 00000000 		.4byte	.LFB70
 2345 003c 7C000000 		.4byte	.LFE70
 2346 0040 00000000 		.4byte	.LFB71
 2347 0044 98000000 		.4byte	.LFE71
 2348 0048 00000000 		.4byte	.LFB72
 2349 004c 64000000 		.4byte	.LFE72
 2350 0050 00000000 		.4byte	0
 2351 0054 00000000 		.4byte	0
 2352              		.section	.debug_line,"",%progbits
 2353              	.Ldebug_line0:
 2354 0000 C5020000 		.section	.debug_str,"MS",%progbits,1
 2354      02006901 
 2354      00000201 
 2354      FB0E0D00 
 2354      01010101 
 2355              	.LASF23:
 2356 0000 53797354 		.ascii	"SysTick_IRQn\000"
 2356      69636B5F 
 2356      4952516E 
 2356      00
 2357              	.LASF80:
 2358 000d 5243435F 		.ascii	"RCC_TypeDef\000"
ARM GAS  /tmp/ccgRtdwN.s 			page 43


 2358      54797065 
 2358      44656600 
 2359              	.LASF46:
 2360 0019 43414E31 		.ascii	"CAN1_SCE_IRQn\000"
 2360      5F534345 
 2360      5F495251 
 2360      6E00
 2361              	.LASF75:
 2362 0027 41504231 		.ascii	"APB1RSTR\000"
 2362      52535452 
 2362      00
 2363              	.LASF29:
 2364 0030 5243435F 		.ascii	"RCC_IRQn\000"
 2364      4952516E 
 2364      00
 2365              	.LASF31:
 2366 0039 45585449 		.ascii	"EXTI1_IRQn\000"
 2366      315F4952 
 2366      516E00
 2367              	.LASF101:
 2368 0044 7072696F 		.ascii	"priority\000"
 2368      72697479 
 2368      00
 2369              	.LASF89:
 2370 004d 646D615F 		.ascii	"dma_param\000"
 2370      70617261 
 2370      6D00
 2371              	.LASF34:
 2372 0057 45585449 		.ascii	"EXTI4_IRQn\000"
 2372      345F4952 
 2372      516E00
 2373              	.LASF26:
 2374 0062 54414D50 		.ascii	"TAMPER_IRQn\000"
 2374      45525F49 
 2374      52516E00 
 2375              	.LASF3:
 2376 006e 73686F72 		.ascii	"short int\000"
 2376      7420696E 
 2376      7400
 2377              	.LASF100:
 2378 0078 646D6173 		.ascii	"dmastp\000"
 2378      747000
 2379              	.LASF104:
 2380 007f 646D6153 		.ascii	"dmaStreamRelease\000"
 2380      74726561 
 2380      6D52656C 
 2380      65617365 
 2380      00
 2381              	.LASF79:
 2382 0090 42444352 		.ascii	"BDCR\000"
 2382      00
 2383              	.LASF28:
 2384 0095 464C4153 		.ascii	"FLASH_IRQn\000"
 2384      485F4952 
 2384      516E00
 2385              	.LASF21:
 2386 00a0 44656275 		.ascii	"DebugMonitor_IRQn\000"
ARM GAS  /tmp/ccgRtdwN.s 			page 44


 2386      674D6F6E 
 2386      69746F72 
 2386      5F495251 
 2386      6E00
 2387              	.LASF112:
 2388 00b2 4952516E 		.ascii	"IRQn\000"
 2388      00
 2389              	.LASF94:
 2390 00b7 56656374 		.ascii	"Vector74\000"
 2390      6F723734 
 2390      00
 2391              	.LASF59:
 2392 00c0 53504931 		.ascii	"SPI1_IRQn\000"
 2392      5F495251 
 2392      6E00
 2393              	.LASF111:
 2394 00ca 2F686F6D 		.ascii	"/home/tino/workspace/openrobots/R2P_IR_module/fw\000"
 2394      652F7469 
 2394      6E6F2F77 
 2394      6F726B73 
 2394      70616365 
 2395              	.LASF72:
 2396 00fb 444D415F 		.ascii	"DMA_TypeDef\000"
 2396      54797065 
 2396      44656600 
 2397              	.LASF40:
 2398 0107 444D4131 		.ascii	"DMA1_Channel6_IRQn\000"
 2398      5F436861 
 2398      6E6E656C 
 2398      365F4952 
 2398      516E00
 2399              	.LASF95:
 2400 011a 56656374 		.ascii	"Vector78\000"
 2400      6F723738 
 2400      00
 2401              	.LASF73:
 2402 0123 43464752 		.ascii	"CFGR\000"
 2402      00
 2403              	.LASF86:
 2404 0128 73746D33 		.ascii	"stm32_dma_stream_t\000"
 2404      325F646D 
 2404      615F7374 
 2404      7265616D 
 2404      5F7400
 2405              	.LASF4:
 2406 013b 75696E74 		.ascii	"uint8_t\000"
 2406      385F7400 
 2407              	.LASF78:
 2408 0143 41504231 		.ascii	"APB1ENR\000"
 2408      454E5200 
 2409              	.LASF85:
 2410 014b 76656374 		.ascii	"vector\000"
 2410      6F7200
 2411              	.LASF38:
 2412 0152 444D4131 		.ascii	"DMA1_Channel4_IRQn\000"
 2412      5F436861 
 2412      6E6E656C 
ARM GAS  /tmp/ccgRtdwN.s 			page 45


 2412      345F4952 
 2412      516E00
 2413              	.LASF110:
 2414 0165 2E2E2F2E 		.ascii	"../../ChibiOS/os/hal/platforms/STM32F1xx/stm32_dma."
 2414      2E2F4368 
 2414      6962694F 
 2414      532F6F73 
 2414      2F68616C 
 2415 0198 6300     		.ascii	"c\000"
 2416              	.LASF109:
 2417 019a 474E5520 		.ascii	"GNU C 4.6.2 20120613 (release) [ARM/embedded-4_6-br"
 2417      4320342E 
 2417      362E3220 
 2417      32303132 
 2417      30363133 
 2418 01cd 616E6368 		.ascii	"anch revision 188521]\000"
 2418      20726576 
 2418      6973696F 
 2418      6E203138 
 2418      38353231 
 2419              	.LASF35:
 2420 01e3 444D4131 		.ascii	"DMA1_Channel1_IRQn\000"
 2420      5F436861 
 2420      6E6E656C 
 2420      315F4952 
 2420      516E00
 2421              	.LASF19:
 2422 01f6 55736167 		.ascii	"UsageFault_IRQn\000"
 2422      65466175 
 2422      6C745F49 
 2422      52516E00 
 2423              	.LASF91:
 2424 0206 56656374 		.ascii	"Vector6C\000"
 2424      6F723643 
 2424      00
 2425              	.LASF37:
 2426 020f 444D4131 		.ascii	"DMA1_Channel3_IRQn\000"
 2426      5F436861 
 2426      6E6E656C 
 2426      335F4952 
 2426      516E00
 2427              	.LASF44:
 2428 0222 5553425F 		.ascii	"USB_LP_CAN1_RX0_IRQn\000"
 2428      4C505F43 
 2428      414E315F 
 2428      5258305F 
 2428      4952516E 
 2429              	.LASF84:
 2430 0237 73656C66 		.ascii	"selfindex\000"
 2430      696E6465 
 2430      7800
 2431              	.LASF63:
 2432 0241 55534152 		.ascii	"USART3_IRQn\000"
 2432      54335F49 
 2432      52516E00 
 2433              	.LASF102:
 2434 024d 66756E63 		.ascii	"func\000"
ARM GAS  /tmp/ccgRtdwN.s 			page 46


 2434      00
 2435              	.LASF11:
 2436 0252 6C6F6E67 		.ascii	"long long int\000"
 2436      206C6F6E 
 2436      6720696E 
 2436      7400
 2437              	.LASF42:
 2438 0260 41444331 		.ascii	"ADC1_2_IRQn\000"
 2438      5F325F49 
 2438      52516E00 
 2439              	.LASF61:
 2440 026c 55534152 		.ascii	"USART1_IRQn\000"
 2440      54315F49 
 2440      52516E00 
 2441              	.LASF24:
 2442 0278 57574447 		.ascii	"WWDG_IRQn\000"
 2442      5F495251 
 2442      6E00
 2443              	.LASF8:
 2444 0282 6C6F6E67 		.ascii	"long int\000"
 2444      20696E74 
 2444      00
 2445              	.LASF64:
 2446 028b 45585449 		.ascii	"EXTI15_10_IRQn\000"
 2446      31355F31 
 2446      305F4952 
 2446      516E00
 2447              	.LASF55:
 2448 029a 49324331 		.ascii	"I2C1_EV_IRQn\000"
 2448      5F45565F 
 2448      4952516E 
 2448      00
 2449              	.LASF76:
 2450 02a7 41484245 		.ascii	"AHBENR\000"
 2450      4E5200
 2451              	.LASF74:
 2452 02ae 41504232 		.ascii	"APB2RSTR\000"
 2452      52535452 
 2452      00
 2453              	.LASF25:
 2454 02b7 5056445F 		.ascii	"PVD_IRQn\000"
 2454      4952516E 
 2454      00
 2455              	.LASF54:
 2456 02c0 54494D34 		.ascii	"TIM4_IRQn\000"
 2456      5F495251 
 2456      6E00
 2457              	.LASF68:
 2458 02ca 43504152 		.ascii	"CPAR\000"
 2458      00
 2459              	.LASF52:
 2460 02cf 54494D32 		.ascii	"TIM2_IRQn\000"
 2460      5F495251 
 2460      6E00
 2461              	.LASF92:
 2462 02d9 56656374 		.ascii	"Vector70\000"
 2462      6F723730 
ARM GAS  /tmp/ccgRtdwN.s 			page 47


 2462      00
 2463              	.LASF57:
 2464 02e2 49324332 		.ascii	"I2C2_EV_IRQn\000"
 2464      5F45565F 
 2464      4952516E 
 2464      00
 2465              	.LASF2:
 2466 02ef 756E7369 		.ascii	"unsigned char\000"
 2466      676E6564 
 2466      20636861 
 2466      7200
 2467              	.LASF88:
 2468 02fd 646D615F 		.ascii	"dma_func\000"
 2468      66756E63 
 2468      00
 2469              	.LASF58:
 2470 0306 49324332 		.ascii	"I2C2_ER_IRQn\000"
 2470      5F45525F 
 2470      4952516E 
 2470      00
 2471              	.LASF77:
 2472 0313 41504232 		.ascii	"APB2ENR\000"
 2472      454E5200 
 2473              	.LASF1:
 2474 031b 7369676E 		.ascii	"signed char\000"
 2474      65642063 
 2474      68617200 
 2475              	.LASF93:
 2476 0327 666C6167 		.ascii	"flags\000"
 2476      7300
 2477              	.LASF12:
 2478 032d 6C6F6E67 		.ascii	"long long unsigned int\000"
 2478      206C6F6E 
 2478      6720756E 
 2478      7369676E 
 2478      65642069 
 2479              	.LASF9:
 2480 0344 75696E74 		.ascii	"uint32_t\000"
 2480      33325F74 
 2480      00
 2481              	.LASF32:
 2482 034d 45585449 		.ascii	"EXTI2_IRQn\000"
 2482      325F4952 
 2482      516E00
 2483              	.LASF96:
 2484 0358 56656374 		.ascii	"Vector7C\000"
 2484      6F723743 
 2484      00
 2485              	.LASF5:
 2486 0361 75696E74 		.ascii	"uint16_t\000"
 2486      31365F74 
 2486      00
 2487              	.LASF30:
 2488 036a 45585449 		.ascii	"EXTI0_IRQn\000"
 2488      305F4952 
 2488      516E00
 2489              	.LASF18:
ARM GAS  /tmp/ccgRtdwN.s 			page 48


 2490 0375 42757346 		.ascii	"BusFault_IRQn\000"
 2490      61756C74 
 2490      5F495251 
 2490      6E00
 2491              	.LASF20:
 2492 0383 53564361 		.ascii	"SVCall_IRQn\000"
 2492      6C6C5F49 
 2492      52516E00 
 2493              	.LASF47:
 2494 038f 45585449 		.ascii	"EXTI9_5_IRQn\000"
 2494      395F355F 
 2494      4952516E 
 2494      00
 2495              	.LASF103:
 2496 039c 70617261 		.ascii	"param\000"
 2496      6D00
 2497              	.LASF43:
 2498 03a2 5553425F 		.ascii	"USB_HP_CAN1_TX_IRQn\000"
 2498      48505F43 
 2498      414E315F 
 2498      54585F49 
 2498      52516E00 
 2499              	.LASF6:
 2500 03b6 73686F72 		.ascii	"short unsigned int\000"
 2500      7420756E 
 2500      7369676E 
 2500      65642069 
 2500      6E7400
 2501              	.LASF70:
 2502 03c9 444D415F 		.ascii	"DMA_Channel_TypeDef\000"
 2502      4368616E 
 2502      6E656C5F 
 2502      54797065 
 2502      44656600 
 2503              	.LASF48:
 2504 03dd 54494D31 		.ascii	"TIM1_BRK_IRQn\000"
 2504      5F42524B 
 2504      5F495251 
 2504      6E00
 2505              	.LASF45:
 2506 03eb 43414E31 		.ascii	"CAN1_RX1_IRQn\000"
 2506      5F525831 
 2506      5F495251 
 2506      6E00
 2507              	.LASF67:
 2508 03f9 434E4454 		.ascii	"CNDTR\000"
 2508      5200
 2509              	.LASF15:
 2510 03ff 63686172 		.ascii	"char\000"
 2510      00
 2511              	.LASF7:
 2512 0404 696E7433 		.ascii	"int32_t\000"
 2512      325F7400 
 2513              	.LASF60:
 2514 040c 53504932 		.ascii	"SPI2_IRQn\000"
 2514      5F495251 
 2514      6E00
ARM GAS  /tmp/ccgRtdwN.s 			page 49


 2515              	.LASF13:
 2516 0416 626F6F6C 		.ascii	"bool_t\000"
 2516      5F7400
 2517              	.LASF87:
 2518 041d 73746D33 		.ascii	"stm32_dmaisr_t\000"
 2518      325F646D 
 2518      61697372 
 2518      5F7400
 2519              	.LASF14:
 2520 042c 5F426F6F 		.ascii	"_Bool\000"
 2520      6C00
 2521              	.LASF71:
 2522 0432 49464352 		.ascii	"IFCR\000"
 2522      00
 2523              	.LASF81:
 2524 0437 6368616E 		.ascii	"channel\000"
 2524      6E656C00 
 2525              	.LASF65:
 2526 043f 5254435F 		.ascii	"RTC_Alarm_IRQn\000"
 2526      416C6172 
 2526      6D5F4952 
 2526      516E00
 2527              	.LASF99:
 2528 044e 646D6149 		.ascii	"dmaInit\000"
 2528      6E697400 
 2529              	.LASF41:
 2530 0456 444D4131 		.ascii	"DMA1_Channel7_IRQn\000"
 2530      5F436861 
 2530      6E6E656C 
 2530      375F4952 
 2530      516E00
 2531              	.LASF97:
 2532 0469 56656374 		.ascii	"Vector80\000"
 2532      6F723830 
 2532      00
 2533              	.LASF39:
 2534 0472 444D4131 		.ascii	"DMA1_Channel5_IRQn\000"
 2534      5F436861 
 2534      6E6E656C 
 2534      355F4952 
 2534      516E00
 2535              	.LASF36:
 2536 0485 444D4131 		.ascii	"DMA1_Channel2_IRQn\000"
 2536      5F436861 
 2536      6E6E656C 
 2536      325F4952 
 2536      516E00
 2537              	.LASF10:
 2538 0498 6C6F6E67 		.ascii	"long unsigned int\000"
 2538      20756E73 
 2538      69676E65 
 2538      6420696E 
 2538      7400
 2539              	.LASF98:
 2540 04aa 56656374 		.ascii	"Vector84\000"
 2540      6F723834 
 2540      00
ARM GAS  /tmp/ccgRtdwN.s 			page 50


 2541              	.LASF17:
 2542 04b3 4D656D6F 		.ascii	"MemoryManagement_IRQn\000"
 2542      72794D61 
 2542      6E616765 
 2542      6D656E74 
 2542      5F495251 
 2543              	.LASF27:
 2544 04c9 5254435F 		.ascii	"RTC_IRQn\000"
 2544      4952516E 
 2544      00
 2545              	.LASF50:
 2546 04d2 54494D31 		.ascii	"TIM1_TRG_COM_IRQn\000"
 2546      5F545247 
 2546      5F434F4D 
 2546      5F495251 
 2546      6E00
 2547              	.LASF16:
 2548 04e4 4E6F6E4D 		.ascii	"NonMaskableInt_IRQn\000"
 2548      61736B61 
 2548      626C6549 
 2548      6E745F49 
 2548      52516E00 
 2549              	.LASF69:
 2550 04f8 434D4152 		.ascii	"CMAR\000"
 2550      00
 2551              	.LASF51:
 2552 04fd 54494D31 		.ascii	"TIM1_CC_IRQn\000"
 2552      5F43435F 
 2552      4952516E 
 2552      00
 2553              	.LASF62:
 2554 050a 55534152 		.ascii	"USART2_IRQn\000"
 2554      54325F49 
 2554      52516E00 
 2555              	.LASF49:
 2556 0516 54494D31 		.ascii	"TIM1_UP_IRQn\000"
 2556      5F55505F 
 2556      4952516E 
 2556      00
 2557              	.LASF106:
 2558 0523 5F73746D 		.ascii	"_stm32_dma_streams\000"
 2558      33325F64 
 2558      6D615F73 
 2558      74726561 
 2558      6D7300
 2559              	.LASF33:
 2560 0536 45585449 		.ascii	"EXTI3_IRQn\000"
 2560      335F4952 
 2560      516E00
 2561              	.LASF113:
 2562 0541 646D6153 		.ascii	"dmaStreamAllocate\000"
 2562      74726561 
 2562      6D416C6C 
 2562      6F636174 
 2562      6500
 2563              	.LASF90:
 2564 0553 646D615F 		.ascii	"dma_isr_redir_t\000"
ARM GAS  /tmp/ccgRtdwN.s 			page 51


 2564      6973725F 
 2564      72656469 
 2564      725F7400 
 2565              	.LASF108:
 2566 0563 646D615F 		.ascii	"dma_isr_redir\000"
 2566      6973725F 
 2566      72656469 
 2566      7200
 2567              	.LASF107:
 2568 0571 646D615F 		.ascii	"dma_streams_mask\000"
 2568      73747265 
 2568      616D735F 
 2568      6D61736B 
 2568      00
 2569              	.LASF83:
 2570 0582 69736869 		.ascii	"ishift\000"
 2570      667400
 2571              	.LASF105:
 2572 0589 49544D5F 		.ascii	"ITM_RxBuffer\000"
 2572      52784275 
 2572      66666572 
 2572      00
 2573              	.LASF0:
 2574 0596 756E7369 		.ascii	"unsigned int\000"
 2574      676E6564 
 2574      20696E74 
 2574      00
 2575              	.LASF56:
 2576 05a3 49324331 		.ascii	"I2C1_ER_IRQn\000"
 2576      5F45525F 
 2576      4952516E 
 2576      00
 2577              	.LASF53:
 2578 05b0 54494D33 		.ascii	"TIM3_IRQn\000"
 2578      5F495251 
 2578      6E00
 2579              	.LASF82:
 2580 05ba 69666372 		.ascii	"ifcr\000"
 2580      00
 2581              	.LASF22:
 2582 05bf 50656E64 		.ascii	"PendSV_IRQn\000"
 2582      53565F49 
 2582      52516E00 
 2583              	.LASF66:
 2584 05cb 5553425F 		.ascii	"USB_FS_WKUP_IRQn\000"
 2584      46535F57 
 2584      4B55505F 
 2584      4952516E 
 2584      00
 2585              		.ident	"GCC: (GNU Tools for ARM Embedded Processors) 4.6.2 20120613 (release) [ARM/embedded-4_6-br
ARM GAS  /tmp/ccgRtdwN.s 			page 52


DEFINED SYMBOLS
                            *ABS*:00000000 stm32_dma.c
     /tmp/ccgRtdwN.s:19     .text.Vector6C:00000000 $t
     /tmp/ccgRtdwN.s:25     .text.Vector6C:00000000 Vector6C
     /tmp/ccgRtdwN.s:74     .text.Vector6C:0000002c $d
     /tmp/ccgRtdwN.s:79     .text.Vector70:00000000 $t
     /tmp/ccgRtdwN.s:85     .text.Vector70:00000000 Vector70
     /tmp/ccgRtdwN.s:132    .text.Vector70:0000002c $d
     /tmp/ccgRtdwN.s:137    .text.Vector74:00000000 $t
     /tmp/ccgRtdwN.s:143    .text.Vector74:00000000 Vector74
     /tmp/ccgRtdwN.s:190    .text.Vector74:00000030 $d
     /tmp/ccgRtdwN.s:195    .text.Vector78:00000000 $t
     /tmp/ccgRtdwN.s:201    .text.Vector78:00000000 Vector78
     /tmp/ccgRtdwN.s:248    .text.Vector78:00000030 $d
     /tmp/ccgRtdwN.s:253    .text.Vector7C:00000000 $t
     /tmp/ccgRtdwN.s:259    .text.Vector7C:00000000 Vector7C
     /tmp/ccgRtdwN.s:306    .text.Vector7C:00000030 $d
     /tmp/ccgRtdwN.s:311    .text.Vector80:00000000 $t
     /tmp/ccgRtdwN.s:317    .text.Vector80:00000000 Vector80
     /tmp/ccgRtdwN.s:364    .text.Vector80:00000030 $d
     /tmp/ccgRtdwN.s:369    .text.Vector84:00000000 $t
     /tmp/ccgRtdwN.s:375    .text.Vector84:00000000 Vector84
     /tmp/ccgRtdwN.s:422    .text.Vector84:00000030 $d
     /tmp/ccgRtdwN.s:427    .text.dmaInit:00000000 $t
     /tmp/ccgRtdwN.s:433    .text.dmaInit:00000000 dmaInit
     /tmp/ccgRtdwN.s:788    .bss.dma_streams_mask:00000000 .LANCHOR1
     /tmp/ccgRtdwN.s:734    .bss.dma_isr_redir:00000000 .LANCHOR0
     /tmp/ccgRtdwN.s:528    .text.dmaStreamAllocate:00000000 $t
     /tmp/ccgRtdwN.s:534    .text.dmaStreamAllocate:00000000 dmaStreamAllocate
     /tmp/ccgRtdwN.s:639    .text.dmaStreamAllocate:0000008c $d
     /tmp/ccgRtdwN.s:646    .text.dmaStreamRelease:00000000 $t
     /tmp/ccgRtdwN.s:652    .text.dmaStreamRelease:00000000 dmaStreamRelease
     /tmp/ccgRtdwN.s:715    .text.dmaStreamRelease:00000058 $d
     /tmp/ccgRtdwN.s:743    .rodata._stm32_dma_streams:00000000 _stm32_dma_streams
     /tmp/ccgRtdwN.s:723    .rodata.str1.4:00000000 $d
     /tmp/ccgRtdwN.s:733    .bss.dma_isr_redir:00000000 $d
     /tmp/ccgRtdwN.s:737    .bss.dma_isr_redir:00000000 dma_isr_redir
     /tmp/ccgRtdwN.s:740    .rodata._stm32_dma_streams:00000000 $d
     /tmp/ccgRtdwN.s:787    .bss.dma_streams_mask:00000000 $d
     /tmp/ccgRtdwN.s:791    .bss.dma_streams_mask:00000000 dma_streams_mask
                     .debug_frame:00000010 $d
     /tmp/ccgRtdwN.s:194    .text.Vector74:00000034 $t
     /tmp/ccgRtdwN.s:252    .text.Vector78:00000034 $t
     /tmp/ccgRtdwN.s:310    .text.Vector7C:00000034 $t
     /tmp/ccgRtdwN.s:368    .text.Vector80:00000034 $t
     /tmp/ccgRtdwN.s:426    .text.Vector84:00000034 $t
     /tmp/ccgRtdwN.s:645    .text.dmaStreamAllocate:00000098 $t
     /tmp/ccgRtdwN.s:722    .text.dmaStreamRelease:00000064 $t

UNDEFINED SYMBOLS
dbg_check_enter_isr
dbg_check_leave_isr
_port_irq_epilogue
nvicEnableVector
chDbgPanic
nvicDisableVector
