ARM GAS  /tmp/ccgRtdwN.s 			page 1


   1              		.syntax unified
   2              		.cpu cortex-m3
   3              		.fpu softvfp
   4              		.eabi_attribute 20, 1
   5              		.eabi_attribute 21, 1
   6              		.eabi_attribute 23, 3
   7              		.eabi_attribute 24, 1
   8              		.eabi_attribute 25, 1
   9              		.eabi_attribute 26, 1
  10              		.eabi_attribute 30, 2
  11              		.eabi_attribute 34, 1
  12              		.eabi_attribute 18, 4
  13              		.thumb
  14              		.file	"stm32_dma.c"
  15              		.text
  16              	.Ltext0:
  17              		.cfi_sections	.debug_frame
  18              		.section	.text.Vector6C,"ax",%progbits
  19              		.align	2
  20              		.p2align 4,,15
  21              		.global	Vector6C
  22              		.thumb
  23              		.thumb_func
  24              		.type	Vector6C, %function
  25              	Vector6C:
  26              	.LFB63:
  27              		.file 1 "../../ChibiOS/os/hal/platforms/STM32F1xx/stm32_dma.c"
  28              		.loc 1 126 0
  29              		.cfi_startproc
  30              		@ args = 0, pretend = 0, frame = 0
  31              		@ frame_needed = 0, uses_anonymous_args = 0
  32 0000 10B5     		push	{r4, lr}
  33              	.LCFI0:
  34              		.cfi_def_cfa_offset 8
  35              		.cfi_offset 14, -4
  36              		.cfi_offset 4, -8
  37              		.loc 1 129 0
  38 0002 FFF7FEFF 		bl	dbg_check_enter_isr
  39              		.loc 1 133 0
  40 0006 0948     		ldr	r0, .L4
  41              		.loc 1 131 0
  42 0008 0022     		movs	r2, #0
  43              		.loc 1 133 0
  44 000a 0368     		ldr	r3, [r0, #0]
  45              		.loc 1 131 0
  46 000c C4F20202 		movt	r2, 16386
  47              		.loc 1 132 0
  48 0010 0F24     		movs	r4, #15
  49              		.loc 1 131 0
  50 0012 1168     		ldr	r1, [r2, #0]
  51              	.LVL0:
  52              		.loc 1 132 0
  53 0014 5460     		str	r4, [r2, #4]
  54              		.loc 1 133 0
  55 0016 13B1     		cbz	r3, .L2
  56              		.loc 1 134 0
  57 0018 4068     		ldr	r0, [r0, #4]
ARM GAS  /tmp/ccgRtdwN.s 			page 2


  58              		.loc 1 131 0
  59 001a 2140     		ands	r1, r1, r4
  60              	.LVL1:
  61              		.loc 1 134 0
  62 001c 9847     		blx	r3
  63              	.LVL2:
  64              	.L2:
  65              		.loc 1 136 0
  66 001e FFF7FEFF 		bl	dbg_check_leave_isr
  67              		.loc 1 137 0
  68 0022 BDE81040 		pop	{r4, lr}
  69              		.loc 1 136 0
  70 0026 FFF7FEBF 		b	_port_irq_epilogue
  71              	.L5:
  72 002a 00BF     		.align	2
  73              	.L4:
  74 002c 00000000 		.word	.LANCHOR0
  75              		.cfi_endproc
  76              	.LFE63:
  77              		.size	Vector6C, .-Vector6C
  78              		.section	.text.Vector70,"ax",%progbits
  79              		.align	2
  80              		.p2align 4,,15
  81              		.global	Vector70
  82              		.thumb
  83              		.thumb_func
  84              		.type	Vector70, %function
  85              	Vector70:
  86              	.LFB64:
  87              		.loc 1 144 0
  88              		.cfi_startproc
  89              		@ args = 0, pretend = 0, frame = 0
  90              		@ frame_needed = 0, uses_anonymous_args = 0
  91 0000 10B5     		push	{r4, lr}
  92              	.LCFI1:
  93              		.cfi_def_cfa_offset 8
  94              		.cfi_offset 14, -4
  95              		.cfi_offset 4, -8
  96              		.loc 1 147 0
  97 0002 FFF7FEFF 		bl	dbg_check_enter_isr
  98              		.loc 1 151 0
  99 0006 0948     		ldr	r0, .L8
 100              		.loc 1 149 0
 101 0008 0022     		movs	r2, #0
 102              		.loc 1 151 0
 103 000a 8368     		ldr	r3, [r0, #8]
 104              		.loc 1 149 0
 105 000c C4F20202 		movt	r2, 16386
 106              		.loc 1 150 0
 107 0010 F024     		movs	r4, #240
 108              		.loc 1 149 0
 109 0012 1168     		ldr	r1, [r2, #0]
 110              	.LVL3:
 111              		.loc 1 150 0
 112 0014 5460     		str	r4, [r2, #4]
 113              		.loc 1 151 0
 114 0016 1BB1     		cbz	r3, .L7
ARM GAS  /tmp/ccgRtdwN.s 			page 3


 115              		.loc 1 152 0
 116 0018 C068     		ldr	r0, [r0, #12]
 117              		.loc 1 149 0
 118 001a C1F30311 		ubfx	r1, r1, #4, #4
 119              	.LVL4:
 120              		.loc 1 152 0
 121 001e 9847     		blx	r3
 122              	.L7:
 123              		.loc 1 154 0
 124 0020 FFF7FEFF 		bl	dbg_check_leave_isr
 125              		.loc 1 155 0
 126 0024 BDE81040 		pop	{r4, lr}
 127              		.loc 1 154 0
 128 0028 FFF7FEBF 		b	_port_irq_epilogue
 129              	.L9:
 130              		.align	2
 131              	.L8:
 132 002c 00000000 		.word	.LANCHOR0
 133              		.cfi_endproc
 134              	.LFE64:
 135              		.size	Vector70, .-Vector70
 136              		.section	.text.Vector74,"ax",%progbits
 137              		.align	2
 138              		.p2align 4,,15
 139              		.global	Vector74
 140              		.thumb
 141              		.thumb_func
 142              		.type	Vector74, %function
 143              	Vector74:
 144              	.LFB65:
 145              		.loc 1 162 0
 146              		.cfi_startproc
 147              		@ args = 0, pretend = 0, frame = 0
 148              		@ frame_needed = 0, uses_anonymous_args = 0
 149 0000 10B5     		push	{r4, lr}
 150              	.LCFI2:
 151              		.cfi_def_cfa_offset 8
 152              		.cfi_offset 14, -4
 153              		.cfi_offset 4, -8
 154              		.loc 1 165 0
 155 0002 FFF7FEFF 		bl	dbg_check_enter_isr
 156              		.loc 1 169 0
 157 0006 0A48     		ldr	r0, .L12
 158              		.loc 1 167 0
 159 0008 0022     		movs	r2, #0
 160              		.loc 1 169 0
 161 000a 0369     		ldr	r3, [r0, #16]
 162              		.loc 1 167 0
 163 000c C4F20202 		movt	r2, 16386
 164              		.loc 1 168 0
 165 0010 4FF47064 		mov	r4, #3840
 166              		.loc 1 167 0
 167 0014 1168     		ldr	r1, [r2, #0]
 168              	.LVL5:
 169              		.loc 1 168 0
 170 0016 5460     		str	r4, [r2, #4]
 171              		.loc 1 169 0
ARM GAS  /tmp/ccgRtdwN.s 			page 4


 172 0018 1BB1     		cbz	r3, .L11
 173              		.loc 1 170 0
 174 001a 4069     		ldr	r0, [r0, #20]
 175              		.loc 1 167 0
 176 001c C1F30321 		ubfx	r1, r1, #8, #4
 177              	.LVL6:
 178              		.loc 1 170 0
 179 0020 9847     		blx	r3
 180              	.L11:
 181              		.loc 1 172 0
 182 0022 FFF7FEFF 		bl	dbg_check_leave_isr
 183              		.loc 1 173 0
 184 0026 BDE81040 		pop	{r4, lr}
 185              		.loc 1 172 0
 186 002a FFF7FEBF 		b	_port_irq_epilogue
 187              	.L13:
 188 002e 00BF     		.align	2
 189              	.L12:
 190 0030 00000000 		.word	.LANCHOR0
 191              		.cfi_endproc
 192              	.LFE65:
 193              		.size	Vector74, .-Vector74
 194 0034 AFF30080 		.section	.text.Vector78,"ax",%progbits
 194      AFF30080 
 194      AFF30080 
 195              		.align	2
 196              		.p2align 4,,15
 197              		.global	Vector78
 198              		.thumb
 199              		.thumb_func
 200              		.type	Vector78, %function
 201              	Vector78:
 202              	.LFB66:
 203              		.loc 1 180 0
 204              		.cfi_startproc
 205              		@ args = 0, pretend = 0, frame = 0
 206              		@ frame_needed = 0, uses_anonymous_args = 0
 207 0000 10B5     		push	{r4, lr}
 208              	.LCFI3:
 209              		.cfi_def_cfa_offset 8
 210              		.cfi_offset 14, -4
 211              		.cfi_offset 4, -8
 212              		.loc 1 183 0
 213 0002 FFF7FEFF 		bl	dbg_check_enter_isr
 214              		.loc 1 187 0
 215 0006 0A48     		ldr	r0, .L16
 216              		.loc 1 185 0
 217 0008 0022     		movs	r2, #0
 218              		.loc 1 187 0
 219 000a 8369     		ldr	r3, [r0, #24]
 220              		.loc 1 185 0
 221 000c C4F20202 		movt	r2, 16386
 222              		.loc 1 186 0
 223 0010 4FF47044 		mov	r4, #61440
 224              		.loc 1 185 0
 225 0014 1168     		ldr	r1, [r2, #0]
 226              	.LVL7:
ARM GAS  /tmp/ccgRtdwN.s 			page 5


 227              		.loc 1 186 0
 228 0016 5460     		str	r4, [r2, #4]
 229              		.loc 1 187 0
 230 0018 1BB1     		cbz	r3, .L15
 231              		.loc 1 188 0
 232 001a C069     		ldr	r0, [r0, #28]
 233              		.loc 1 185 0
 234 001c C1F30331 		ubfx	r1, r1, #12, #4
 235              	.LVL8:
 236              		.loc 1 188 0
 237 0020 9847     		blx	r3
 238              	.L15:
 239              		.loc 1 190 0
 240 0022 FFF7FEFF 		bl	dbg_check_leave_isr
 241              		.loc 1 191 0
 242 0026 BDE81040 		pop	{r4, lr}
 243              		.loc 1 190 0
 244 002a FFF7FEBF 		b	_port_irq_epilogue
 245              	.L17:
 246 002e 00BF     		.align	2
 247              	.L16:
 248 0030 00000000 		.word	.LANCHOR0
 249              		.cfi_endproc
 250              	.LFE66:
 251              		.size	Vector78, .-Vector78
 252 0034 AFF30080 		.section	.text.Vector7C,"ax",%progbits
 252      AFF30080 
 252      AFF30080 
 253              		.align	2
 254              		.p2align 4,,15
 255              		.global	Vector7C
 256              		.thumb
 257              		.thumb_func
 258              		.type	Vector7C, %function
 259              	Vector7C:
 260              	.LFB67:
 261              		.loc 1 198 0
 262              		.cfi_startproc
 263              		@ args = 0, pretend = 0, frame = 0
 264              		@ frame_needed = 0, uses_anonymous_args = 0
 265 0000 10B5     		push	{r4, lr}
 266              	.LCFI4:
 267              		.cfi_def_cfa_offset 8
 268              		.cfi_offset 14, -4
 269              		.cfi_offset 4, -8
 270              		.loc 1 201 0
 271 0002 FFF7FEFF 		bl	dbg_check_enter_isr
 272              		.loc 1 205 0
 273 0006 0A48     		ldr	r0, .L20
 274              		.loc 1 203 0
 275 0008 0022     		movs	r2, #0
 276              		.loc 1 205 0
 277 000a 036A     		ldr	r3, [r0, #32]
 278              		.loc 1 203 0
 279 000c C4F20202 		movt	r2, 16386
 280              		.loc 1 204 0
 281 0010 4FF47024 		mov	r4, #983040
ARM GAS  /tmp/ccgRtdwN.s 			page 6


 282              		.loc 1 203 0
 283 0014 1168     		ldr	r1, [r2, #0]
 284              	.LVL9:
 285              		.loc 1 204 0
 286 0016 5460     		str	r4, [r2, #4]
 287              		.loc 1 205 0
 288 0018 1BB1     		cbz	r3, .L19
 289              		.loc 1 206 0
 290 001a 406A     		ldr	r0, [r0, #36]
 291              		.loc 1 203 0
 292 001c C1F30341 		ubfx	r1, r1, #16, #4
 293              	.LVL10:
 294              		.loc 1 206 0
 295 0020 9847     		blx	r3
 296              	.L19:
 297              		.loc 1 208 0
 298 0022 FFF7FEFF 		bl	dbg_check_leave_isr
 299              		.loc 1 209 0
 300 0026 BDE81040 		pop	{r4, lr}
 301              		.loc 1 208 0
 302 002a FFF7FEBF 		b	_port_irq_epilogue
 303              	.L21:
 304 002e 00BF     		.align	2
 305              	.L20:
 306 0030 00000000 		.word	.LANCHOR0
 307              		.cfi_endproc
 308              	.LFE67:
 309              		.size	Vector7C, .-Vector7C
 310 0034 AFF30080 		.section	.text.Vector80,"ax",%progbits
 310      AFF30080 
 310      AFF30080 
 311              		.align	2
 312              		.p2align 4,,15
 313              		.global	Vector80
 314              		.thumb
 315              		.thumb_func
 316              		.type	Vector80, %function
 317              	Vector80:
 318              	.LFB68:
 319              		.loc 1 216 0
 320              		.cfi_startproc
 321              		@ args = 0, pretend = 0, frame = 0
 322              		@ frame_needed = 0, uses_anonymous_args = 0
 323 0000 10B5     		push	{r4, lr}
 324              	.LCFI5:
 325              		.cfi_def_cfa_offset 8
 326              		.cfi_offset 14, -4
 327              		.cfi_offset 4, -8
 328              		.loc 1 219 0
 329 0002 FFF7FEFF 		bl	dbg_check_enter_isr
 330              		.loc 1 223 0
 331 0006 0A48     		ldr	r0, .L24
 332              		.loc 1 221 0
 333 0008 0022     		movs	r2, #0
 334              		.loc 1 223 0
 335 000a 836A     		ldr	r3, [r0, #40]
 336              		.loc 1 221 0
ARM GAS  /tmp/ccgRtdwN.s 			page 7


 337 000c C4F20202 		movt	r2, 16386
 338              		.loc 1 222 0
 339 0010 4FF47004 		mov	r4, #15728640
 340              		.loc 1 221 0
 341 0014 1168     		ldr	r1, [r2, #0]
 342              	.LVL11:
 343              		.loc 1 222 0
 344 0016 5460     		str	r4, [r2, #4]
 345              		.loc 1 223 0
 346 0018 1BB1     		cbz	r3, .L23
 347              		.loc 1 224 0
 348 001a C06A     		ldr	r0, [r0, #44]
 349              		.loc 1 221 0
 350 001c C1F30351 		ubfx	r1, r1, #20, #4
 351              	.LVL12:
 352              		.loc 1 224 0
 353 0020 9847     		blx	r3
 354              	.L23:
 355              		.loc 1 226 0
 356 0022 FFF7FEFF 		bl	dbg_check_leave_isr
 357              		.loc 1 227 0
 358 0026 BDE81040 		pop	{r4, lr}
 359              		.loc 1 226 0
 360 002a FFF7FEBF 		b	_port_irq_epilogue
 361              	.L25:
 362 002e 00BF     		.align	2
 363              	.L24:
 364 0030 00000000 		.word	.LANCHOR0
 365              		.cfi_endproc
 366              	.LFE68:
 367              		.size	Vector80, .-Vector80
 368 0034 AFF30080 		.section	.text.Vector84,"ax",%progbits
 368      AFF30080 
 368      AFF30080 
 369              		.align	2
 370              		.p2align 4,,15
 371              		.global	Vector84
 372              		.thumb
 373              		.thumb_func
 374              		.type	Vector84, %function
 375              	Vector84:
 376              	.LFB69:
 377              		.loc 1 234 0
 378              		.cfi_startproc
 379              		@ args = 0, pretend = 0, frame = 0
 380              		@ frame_needed = 0, uses_anonymous_args = 0
 381 0000 10B5     		push	{r4, lr}
 382              	.LCFI6:
 383              		.cfi_def_cfa_offset 8
 384              		.cfi_offset 14, -4
 385              		.cfi_offset 4, -8
 386              		.loc 1 237 0
 387 0002 FFF7FEFF 		bl	dbg_check_enter_isr
 388              		.loc 1 241 0
 389 0006 0A48     		ldr	r0, .L28
 390              		.loc 1 239 0
 391 0008 0022     		movs	r2, #0
ARM GAS  /tmp/ccgRtdwN.s 			page 8


 392              		.loc 1 241 0
 393 000a 036B     		ldr	r3, [r0, #48]
 394              		.loc 1 239 0
 395 000c C4F20202 		movt	r2, 16386
 396              		.loc 1 240 0
 397 0010 4FF07064 		mov	r4, #251658240
 398              		.loc 1 239 0
 399 0014 1168     		ldr	r1, [r2, #0]
 400              	.LVL13:
 401              		.loc 1 240 0
 402 0016 5460     		str	r4, [r2, #4]
 403              		.loc 1 241 0
 404 0018 1BB1     		cbz	r3, .L27
 405              		.loc 1 242 0
 406 001a 406B     		ldr	r0, [r0, #52]
 407              		.loc 1 239 0
 408 001c C1F30361 		ubfx	r1, r1, #24, #4
 409              	.LVL14:
 410              		.loc 1 242 0
 411 0020 9847     		blx	r3
 412              	.L27:
 413              		.loc 1 244 0
 414 0022 FFF7FEFF 		bl	dbg_check_leave_isr
 415              		.loc 1 245 0
 416 0026 BDE81040 		pop	{r4, lr}
 417              		.loc 1 244 0
 418 002a FFF7FEBF 		b	_port_irq_epilogue
 419              	.L29:
 420 002e 00BF     		.align	2
 421              	.L28:
 422 0030 00000000 		.word	.LANCHOR0
 423              		.cfi_endproc
 424              	.LFE69:
 425              		.size	Vector84, .-Vector84
 426 0034 AFF30080 		.section	.text.dmaInit,"ax",%progbits
 426      AFF30080 
 426      AFF30080 
 427              		.align	2
 428              		.p2align 4,,15
 429              		.global	dmaInit
 430              		.thumb
 431              		.thumb_func
 432              		.type	dmaInit, %function
 433              	dmaInit:
 434              	.LFB70:
 435              		.loc 1 381 0
 436              		.cfi_startproc
 437              		@ args = 0, pretend = 0, frame = 0
 438              		@ frame_needed = 0, uses_anonymous_args = 0
 439              		@ link register save eliminated.
 440 0000 2DE9F003 		push	{r4, r5, r6, r7, r8, r9}
 441              	.LCFI7:
 442              		.cfi_def_cfa_offset 24
 443              		.cfi_offset 9, -4
 444              		.cfi_offset 8, -8
 445              		.cfi_offset 7, -12
 446              		.cfi_offset 6, -16
ARM GAS  /tmp/ccgRtdwN.s 			page 9


 447              		.cfi_offset 5, -20
 448              		.cfi_offset 4, -24
 449              		.loc 1 389 0
 450 0004 0020     		movs	r0, #0
 451              		.loc 1 384 0
 452 0006 40F20001 		movw	r1, #:lower16:.LANCHOR1
 453              		.loc 1 386 0
 454 000a 4FF00809 		mov	r9, #8
 455              		.loc 1 387 0
 456 000e 40F20002 		movw	r2, #:lower16:.LANCHOR0
 457              		.loc 1 386 0
 458 0012 4FF01C08 		mov	r8, #28
 459 0016 4FF0300C 		mov	ip, #48
 460 001a 4427     		movs	r7, #68
 461 001c 5826     		movs	r6, #88
 462 001e 6C25     		movs	r5, #108
 463 0020 8024     		movs	r4, #128
 464              		.loc 1 384 0
 465 0022 0346     		mov	r3, r0
 466              		.loc 1 387 0
 467 0024 C0F20002 		movt	r2, #:upper16:.LANCHOR0
 468              		.loc 1 384 0
 469 0028 C0F20001 		movt	r1, #:upper16:.LANCHOR1
 470              		.loc 1 386 0
 471 002c C4F20209 		movt	r9, 16386
 472 0030 C4F20208 		movt	r8, 16386
 473 0034 C4F2020C 		movt	ip, 16386
 474 0038 C4F20207 		movt	r7, 16386
 475 003c C4F20206 		movt	r6, 16386
 476 0040 C4F20205 		movt	r5, 16386
 477 0044 C4F20204 		movt	r4, 16386
 478              		.loc 1 384 0
 479 0048 0B60     		str	r3, [r1, #0]
 480              	.LVL15:
 481              		.loc 1 389 0
 482 004a C4F20200 		movt	r0, 16386
 483              		.loc 1 386 0
 484 004e C9F80030 		str	r3, [r9, #0]
 485              		.loc 1 387 0
 486 0052 1360     		str	r3, [r2, #0]
 487              	.LVL16:
 488              		.loc 1 386 0
 489 0054 C8F80030 		str	r3, [r8, #0]
 490              		.loc 1 387 0
 491 0058 9360     		str	r3, [r2, #8]
 492              	.LVL17:
 493              		.loc 1 386 0
 494 005a CCF80030 		str	r3, [ip, #0]
 495              		.loc 1 387 0
 496 005e 1361     		str	r3, [r2, #16]
 497              	.LVL18:
 498              		.loc 1 386 0
 499 0060 3B60     		str	r3, [r7, #0]
 500              		.loc 1 387 0
 501 0062 9361     		str	r3, [r2, #24]
 502              	.LVL19:
 503              		.loc 1 386 0
ARM GAS  /tmp/ccgRtdwN.s 			page 10


 504 0064 3360     		str	r3, [r6, #0]
 505              		.loc 1 387 0
 506 0066 1362     		str	r3, [r2, #32]
 507              	.LVL20:
 508              		.loc 1 386 0
 509 0068 2B60     		str	r3, [r5, #0]
 510              		.loc 1 387 0
 511 006a 9362     		str	r3, [r2, #40]
 512              	.LVL21:
 513              		.loc 1 386 0
 514 006c 2360     		str	r3, [r4, #0]
 515              		.loc 1 387 0
 516 006e 1363     		str	r3, [r2, #48]
 517              	.LVL22:
 518              		.loc 1 389 0
 519 0070 4FF0FF33 		mov	r3, #-1
 520 0074 4360     		str	r3, [r0, #4]
 521              		.loc 1 393 0
 522 0076 BDE8F003 		pop	{r4, r5, r6, r7, r8, r9}
 523 007a 7047     		bx	lr
 524              		.cfi_endproc
 525              	.LFE70:
 526              		.size	dmaInit, .-dmaInit
 527 007c AFF30080 		.section	.text.dmaStreamAllocate,"ax",%progbits
 528              		.align	2
 529              		.p2align 4,,15
 530              		.global	dmaStreamAllocate
 531              		.thumb
 532              		.thumb_func
 533              		.type	dmaStreamAllocate, %function
 534              	dmaStreamAllocate:
 535              	.LFB71:
 536              		.loc 1 422 0
 537              		.cfi_startproc
 538              		@ args = 0, pretend = 0, frame = 16
 539              		@ frame_needed = 0, uses_anonymous_args = 0
 540              	.LVL23:
 541 0000 F0B5     		push	{r4, r5, r6, r7, lr}
 542              	.LCFI8:
 543              		.cfi_def_cfa_offset 20
 544              		.cfi_offset 14, -4
 545              		.cfi_offset 7, -8
 546              		.cfi_offset 6, -12
 547              		.cfi_offset 5, -16
 548              		.cfi_offset 4, -20
 549 0002 0446     		mov	r4, r0
 550 0004 85B0     		sub	sp, sp, #20
 551              	.LCFI9:
 552              		.cfi_def_cfa_offset 40
 553              		.loc 1 424 0
 554 0006 0028     		cmp	r0, #0
 555 0008 36D0     		beq	.L37
 556              	.LVL24:
 557              	.L32:
 558              		.loc 1 427 0
 559 000a 667A     		ldrb	r6, [r4, #9]	@ zero_extendqisi2
 560 000c 0125     		movs	r5, #1
ARM GAS  /tmp/ccgRtdwN.s 			page 11


 561 000e 05FA06FC 		lsl	ip, r5, r6
 562 0012 1E4F     		ldr	r7, .L38
 563 0014 3868     		ldr	r0, [r7, #0]
 564 0016 1CEA000F 		tst	ip, r0
 565 001a 29D1     		bne	.L35
 566              		.loc 1 431 0
 567 001c 1C4D     		ldr	r5, .L38+4
 568              		.loc 1 433 0
 569 001e 4CEA0000 		orr	r0, ip, r0
 570              		.loc 1 432 0
 571 0022 05EBC60C 		add	ip, r5, r6, lsl #3
 572 0026 CCF80430 		str	r3, [ip, #4]
 573              		.loc 1 436 0
 574 002a 4306     		lsls	r3, r0, #25
 575              		.loc 1 431 0
 576 002c 45F83620 		str	r2, [r5, r6, lsl #3]
 577              		.loc 1 433 0
 578 0030 3860     		str	r0, [r7, #0]
 579              		.loc 1 436 0
 580 0032 07D0     		beq	.L34
 581              		.loc 1 437 0
 582 0034 4FF48053 		mov	r3, #4096
 583 0038 C4F20203 		movt	r3, 16386
 584 003c 5F69     		ldr	r7, [r3, #20]
 585 003e 47F00106 		orr	r6, r7, #1
 586 0042 5E61     		str	r6, [r3, #20]
 587              	.L34:
 588              		.loc 1 444 0
 589 0044 2368     		ldr	r3, [r4, #0]
 590 0046 6068     		ldr	r0, [r4, #4]
 591 0048 1E68     		ldr	r6, [r3, #0]
 592 004a 0F27     		movs	r7, #15
 593 004c 26F00F05 		bic	r5, r6, #15
 594 0050 1D60     		str	r5, [r3, #0]
 595 0052 94F808C0 		ldrb	ip, [r4, #8]	@ zero_extendqisi2
 596              		.loc 1 445 0
 597 0056 0025     		movs	r5, #0
 598              		.loc 1 444 0
 599 0058 07FA0CF6 		lsl	r6, r7, ip
 600 005c 0660     		str	r6, [r0, #0]
 601              		.loc 1 445 0
 602 005e 1D60     		str	r5, [r3, #0]
 603              		.loc 1 448 0
 604 0060 42B1     		cbz	r2, .L36
 605              		.loc 1 449 0
 606 0062 A07A     		ldrb	r0, [r4, #10]	@ zero_extendqisi2
 607 0064 0901     		lsls	r1, r1, #4
 608 0066 FFF7FEFF 		bl	nvicEnableVector
 609              		.loc 1 451 0
 610 006a 2846     		mov	r0, r5
 611              	.L33:
 612              		.loc 1 452 0
 613 006c 05B0     		add	sp, sp, #20
 614 006e F0BD     		pop	{r4, r5, r6, r7, pc}
 615              	.L35:
 616              		.loc 1 428 0
 617 0070 2846     		mov	r0, r5
ARM GAS  /tmp/ccgRtdwN.s 			page 12


 618 0072 FBE7     		b	.L33
 619              	.L36:
 620              		.loc 1 451 0
 621 0074 1046     		mov	r0, r2
 622 0076 F9E7     		b	.L33
 623              	.LVL25:
 624              	.L37:
 625              		.loc 1 424 0 discriminator 1
 626 0078 0648     		ldr	r0, .L38+8
 627 007a 0391     		str	r1, [sp, #12]
 628 007c 0292     		str	r2, [sp, #8]
 629 007e 0193     		str	r3, [sp, #4]
 630 0080 FFF7FEFF 		bl	chDbgPanic
 631              	.LVL26:
 632 0084 019B     		ldr	r3, [sp, #4]
 633 0086 029A     		ldr	r2, [sp, #8]
 634 0088 0399     		ldr	r1, [sp, #12]
 635 008a BEE7     		b	.L32
 636              	.L39:
 637              		.align	2
 638              	.L38:
 639 008c 00000000 		.word	.LANCHOR1
 640 0090 00000000 		.word	.LANCHOR0
 641 0094 00000000 		.word	.LC0
 642              		.cfi_endproc
 643              	.LFE71:
 644              		.size	dmaStreamAllocate, .-dmaStreamAllocate
 645 0098 AFF30080 		.section	.text.dmaStreamRelease,"ax",%progbits
 645      AFF30080 
 646              		.align	2
 647              		.p2align 4,,15
 648              		.global	dmaStreamRelease
 649              		.thumb
 650              		.thumb_func
 651              		.type	dmaStreamRelease, %function
 652              	dmaStreamRelease:
 653              	.LFB72:
 654              		.loc 1 467 0
 655              		.cfi_startproc
 656              		@ args = 0, pretend = 0, frame = 0
 657              		@ frame_needed = 0, uses_anonymous_args = 0
 658              	.LVL27:
 659 0000 38B5     		push	{r3, r4, r5, lr}
 660              	.LCFI10:
 661              		.cfi_def_cfa_offset 16
 662              		.cfi_offset 14, -4
 663              		.cfi_offset 5, -8
 664              		.cfi_offset 4, -12
 665              		.cfi_offset 3, -16
 666              		.loc 1 467 0
 667 0002 0446     		mov	r4, r0
 668              		.loc 1 469 0
 669 0004 18B3     		cbz	r0, .L44
 670              	.LVL28:
 671              	.L41:
 672              		.loc 1 472 0
 673 0006 617A     		ldrb	r1, [r4, #9]	@ zero_extendqisi2
ARM GAS  /tmp/ccgRtdwN.s 			page 13


 674 0008 0120     		movs	r0, #1
 675 000a 00FA01F2 		lsl	r2, r0, r1
 676 000e 124D     		ldr	r5, .L46
 677 0010 2B68     		ldr	r3, [r5, #0]
 678 0012 1A42     		tst	r2, r3
 679 0014 17D0     		beq	.L45
 680              	.L42:
 681              		.loc 1 476 0
 682 0016 A07A     		ldrb	r0, [r4, #10]	@ zero_extendqisi2
 683 0018 FFF7FEFF 		bl	nvicDisableVector
 684              		.loc 1 479 0
 685 001c 607A     		ldrb	r0, [r4, #9]	@ zero_extendqisi2
 686 001e 0121     		movs	r1, #1
 687 0020 01FA00FC 		lsl	ip, r1, r0
 688 0024 2B68     		ldr	r3, [r5, #0]
 689 0026 23EA0C02 		bic	r2, r3, ip
 690 002a 2A60     		str	r2, [r5, #0]
 691              		.loc 1 482 0
 692 002c 5206     		lsls	r2, r2, #25
 693 002e 09D1     		bne	.L40
 694              		.loc 1 483 0
 695 0030 4FF4805E 		mov	lr, #4096
 696 0034 C4F2020E 		movt	lr, 16386
 697 0038 DEF81430 		ldr	r3, [lr, #20]
 698 003c 23F00102 		bic	r2, r3, #1
 699 0040 CEF81420 		str	r2, [lr, #20]
 700              	.L40:
 701 0044 38BD     		pop	{r3, r4, r5, pc}
 702              	.L45:
 703              		.loc 1 472 0 discriminator 1
 704 0046 0548     		ldr	r0, .L46+4
 705 0048 FFF7FEFF 		bl	chDbgPanic
 706 004c E3E7     		b	.L42
 707              	.L44:
 708              		.loc 1 469 0 discriminator 1
 709 004e 0448     		ldr	r0, .L46+8
 710 0050 FFF7FEFF 		bl	chDbgPanic
 711 0054 D7E7     		b	.L41
 712              	.L47:
 713 0056 00BF     		.align	2
 714              	.L46:
 715 0058 00000000 		.word	.LANCHOR1
 716 005c 30000000 		.word	.LC2
 717 0060 18000000 		.word	.LC1
 718              		.cfi_endproc
 719              	.LFE72:
 720              		.size	dmaStreamRelease, .-dmaStreamRelease
 721              		.global	_stm32_dma_streams
 722 0064 AFF30080 		.section	.rodata.str1.4,"aMS",%progbits,1
 722      AFF30080 
 722      AFF30080 
 723              		.align	2
 724              	.LC0:
 725 0000 22646D61 		.ascii	"\"dmaStreamAllocate\"()\000"
 725      53747265 
 725      616D416C 
 725      6C6F6361 
ARM GAS  /tmp/ccgRtdwN.s 			page 14


 725      74652228 
 726 0016 0000     		.space	2
 727              	.LC1:
 728 0018 22646D61 		.ascii	"\"dmaStreamRelease\"()\000"
 728      53747265 
 728      616D5265 
 728      6C656173 
 728      65222829 
 729 002d 000000   		.space	3
 730              	.LC2:
 731 0030 646D6153 		.ascii	"dmaStreamRelease(), #1\000"
 731      74726561 
 731      6D52656C 
 731      65617365 
 731      28292C20 
 732 0047 00       		.section	.bss.dma_isr_redir,"aw",%nobits
 733              		.align	2
 734              		.set	.LANCHOR0,. + 0
 735              		.type	dma_isr_redir, %object
 736              		.size	dma_isr_redir, 56
 737              	dma_isr_redir:
 738 0000 00000000 		.space	56
 738      00000000 
 738      00000000 
 738      00000000 
 738      00000000 
 739              		.section	.rodata._stm32_dma_streams,"a",%progbits
 740              		.align	2
 741              		.type	_stm32_dma_streams, %object
 742              		.size	_stm32_dma_streams, 84
 743              	_stm32_dma_streams:
 744 0000 08000240 		.word	1073872904
 745 0004 04000240 		.word	1073872900
 746 0008 00       		.byte	0
 747 0009 00       		.byte	0
 748 000a 0B       		.byte	11
 749 000b 00       		.space	1
 750 000c 1C000240 		.word	1073872924
 751 0010 04000240 		.word	1073872900
 752 0014 04       		.byte	4
 753 0015 01       		.byte	1
 754 0016 0C       		.byte	12
 755 0017 00       		.space	1
 756 0018 30000240 		.word	1073872944
 757 001c 04000240 		.word	1073872900
 758 0020 08       		.byte	8
 759 0021 02       		.byte	2
 760 0022 0D       		.byte	13
 761 0023 00       		.space	1
 762 0024 44000240 		.word	1073872964
 763 0028 04000240 		.word	1073872900
 764 002c 0C       		.byte	12
 765 002d 03       		.byte	3
 766 002e 0E       		.byte	14
 767 002f 00       		.space	1
 768 0030 58000240 		.word	1073872984
 769 0034 04000240 		.word	1073872900
ARM GAS  /tmp/ccgRtdwN.s 			page 15


 770 0038 10       		.byte	16
 771 0039 04       		.byte	4
 772 003a 0F       		.byte	15
 773 003b 00       		.space	1
 774 003c 6C000240 		.word	1073873004
 775 0040 04000240 		.word	1073872900
 776 0044 14       		.byte	20
 777 0045 05       		.byte	5
 778 0046 10       		.byte	16
 779 0047 00       		.space	1
 780 0048 80000240 		.word	1073873024
 781 004c 04000240 		.word	1073872900
 782 0050 18       		.byte	24
 783 0051 06       		.byte	6
 784 0052 11       		.byte	17
 785 0053 00       		.space	1
 786              		.section	.bss.dma_streams_mask,"aw",%nobits
 787              		.align	2
 788              		.set	.LANCHOR1,. + 0
 789              		.type	dma_streams_mask, %object
 790              		.size	dma_streams_mask, 4
 791              	dma_streams_mask:
 792 0000 00000000 		.space	4
 793              		.text
 794              	.Letext0:
 795              		.file 2 "/home/tino/ChibiStudio/tools/GNU Tools ARM Embedded/4.6 2012q2/bin/../lib/gcc/arm-none-ea
 796              		.file 3 "../../ChibiOS/os/ports/GCC/ARMCMx/chtypes.h"
 797              		.file 4 "../../ChibiOS/os/hal/platforms/STM32F1xx/stm32f10x.h"
 798              		.file 5 "../../ChibiOS/os/hal/platforms/STM32F1xx/stm32_dma.h"
 799              		.file 6 "../../ChibiOS/os/ports/common/ARMCMx/CMSIS/include/core_cm3.h"