ARM GAS  /tmp/ccQeRi3A.s 			page 1


   1              		.syntax unified
   2              		.cpu cortex-m3
   3              		.fpu softvfp
   4              		.eabi_attribute 20, 1
   5              		.eabi_attribute 21, 1
   6              		.eabi_attribute 23, 3
   7              		.eabi_attribute 24, 1
   8              		.eabi_attribute 25, 1
   9              		.eabi_attribute 26, 1
  10              		.eabi_attribute 30, 2
  11              		.eabi_attribute 34, 1
  12              		.eabi_attribute 18, 4
  13              		.thumb
  14              		.file	"testqueues.c"
  15              		.text
  16              	.Ltext0:
  17              		.cfi_sections	.debug_frame
  18              		.section	.text.notify,"ax",%progbits
  19              		.align	2
  20              		.p2align 4,,15
  21              		.thumb
  22              		.thumb_func
  23              		.type	notify, %function
  24              	notify:
  25              	.LFB7:
  26              		.file 1 "../../ChibiOS/test/testqueues.c"
  27              		.loc 1 57 0
  28              		.cfi_startproc
  29              		@ args = 0, pretend = 0, frame = 0
  30              		@ frame_needed = 0, uses_anonymous_args = 0
  31              		@ link register save eliminated.
  32              	.LVL0:
  33              		.loc 1 59 0
  34 0000 7047     		bx	lr
  35              		.cfi_endproc
  36              	.LFE7:
  37              		.size	notify, .-notify
  38 0002 00BFAFF3 		.section	.text.thread2,"ax",%progbits
  38      0080AFF3 
  38      0080AFF3 
  38      0080
  39              		.align	2
  40              		.p2align 4,,15
  41              		.thumb
  42              		.thumb_func
  43              		.type	thread2, %function
  44              	thread2:
  45              	.LFB12:
  46              		.loc 1 170 0
  47              		.cfi_startproc
  48              		@ args = 0, pretend = 0, frame = 0
  49              		@ frame_needed = 0, uses_anonymous_args = 0
  50              	.LVL1:
  51              		.loc 1 173 0
  52 0000 40F20000 		movw	r0, #:lower16:.LANCHOR0
  53              	.LVL2:
  54              		.loc 1 170 0
ARM GAS  /tmp/ccQeRi3A.s 			page 2


  55 0004 08B5     		push	{r3, lr}
  56              	.LCFI0:
  57              		.cfi_def_cfa_offset 8
  58              		.cfi_offset 14, -4
  59              		.cfi_offset 3, -8
  60              		.loc 1 173 0
  61 0006 0021     		movs	r1, #0
  62 0008 C822     		movs	r2, #200
  63 000a C0F20000 		movt	r0, #:upper16:.LANCHOR0
  64 000e FFF7FEFF 		bl	chOQPutTimeout
  65              		.loc 1 175 0
  66 0012 0020     		movs	r0, #0
  67 0014 08BD     		pop	{r3, pc}
  68              		.cfi_endproc
  69              	.LFE12:
  70              		.size	thread2, .-thread2
  71 0016 00BFAFF3 		.section	.text.queues2_setup,"ax",%progbits
  71      0080AFF3 
  71      0080
  72              		.align	2
  73              		.p2align 4,,15
  74              		.thumb
  75              		.thumb_func
  76              		.type	queues2_setup, %function
  77              	queues2_setup:
  78              	.LFB11:
  79              		.loc 1 165 0
  80              		.cfi_startproc
  81              		@ args = 0, pretend = 0, frame = 0
  82              		@ frame_needed = 0, uses_anonymous_args = 0
  83 0000 00B5     		push	{lr}
  84              	.LCFI1:
  85              		.cfi_def_cfa_offset 4
  86              		.cfi_offset 14, -4
  87              		.loc 1 167 0
  88 0002 40F20003 		movw	r3, #:lower16:wa
  89 0006 C0F20003 		movt	r3, #:upper16:wa
  90 000a 0022     		movs	r2, #0
  91              		.loc 1 165 0
  92 000c 83B0     		sub	sp, sp, #12
  93              	.LCFI2:
  94              		.cfi_def_cfa_offset 16
  95              		.loc 1 167 0
  96 000e 1968     		ldr	r1, [r3, #0]
  97 0010 40F20000 		movw	r0, #:lower16:.LANCHOR0
  98 0014 40F20003 		movw	r3, #:lower16:notify
  99 0018 0092     		str	r2, [sp, #0]
 100 001a C0F20003 		movt	r3, #:upper16:notify
 101 001e C0F20000 		movt	r0, #:upper16:.LANCHOR0
 102 0022 0422     		movs	r2, #4
 103 0024 FFF7FEFF 		bl	chOQInit
 104              		.loc 1 168 0
 105 0028 03B0     		add	sp, sp, #12
 106 002a 00BD     		pop	{pc}
 107              		.cfi_endproc
 108              	.LFE11:
 109              		.size	queues2_setup, .-queues2_setup
ARM GAS  /tmp/ccQeRi3A.s 			page 3


 110 002c AFF30080 		.section	.text.thread1,"ax",%progbits
 111              		.align	2
 112              		.p2align 4,,15
 113              		.thumb
 114              		.thumb_func
 115              		.type	thread1, %function
 116              	thread1:
 117              	.LFB9:
 118              		.loc 1 83 0
 119              		.cfi_startproc
 120              		@ args = 0, pretend = 0, frame = 0
 121              		@ frame_needed = 0, uses_anonymous_args = 0
 122              	.LVL3:
 123              		.loc 1 86 0
 124 0000 40F20000 		movw	r0, #:lower16:.LANCHOR1
 125              	.LVL4:
 126              		.loc 1 83 0
 127 0004 08B5     		push	{r3, lr}
 128              	.LCFI3:
 129              		.cfi_def_cfa_offset 8
 130              		.cfi_offset 14, -4
 131              		.cfi_offset 3, -8
 132              		.loc 1 86 0
 133 0006 C821     		movs	r1, #200
 134 0008 C0F20000 		movt	r0, #:upper16:.LANCHOR1
 135 000c FFF7FEFF 		bl	chIQGetTimeout
 136              		.loc 1 88 0
 137 0010 0020     		movs	r0, #0
 138 0012 08BD     		pop	{r3, pc}
 139              		.cfi_endproc
 140              	.LFE9:
 141              		.size	thread1, .-thread1
 142 0014 AFF30080 		.section	.text.queues1_setup,"ax",%progbits
 142      AFF30080 
 142      AFF30080 
 143              		.align	2
 144              		.p2align 4,,15
 145              		.thumb
 146              		.thumb_func
 147              		.type	queues1_setup, %function
 148              	queues1_setup:
 149              	.LFB8:
 150              		.loc 1 78 0
 151              		.cfi_startproc
 152              		@ args = 0, pretend = 0, frame = 0
 153              		@ frame_needed = 0, uses_anonymous_args = 0
 154 0000 00B5     		push	{lr}
 155              	.LCFI4:
 156              		.cfi_def_cfa_offset 4
 157              		.cfi_offset 14, -4
 158              		.loc 1 80 0
 159 0002 40F20003 		movw	r3, #:lower16:wa
 160 0006 C0F20003 		movt	r3, #:upper16:wa
 161 000a 0022     		movs	r2, #0
 162              		.loc 1 78 0
 163 000c 83B0     		sub	sp, sp, #12
 164              	.LCFI5:
ARM GAS  /tmp/ccQeRi3A.s 			page 4


 165              		.cfi_def_cfa_offset 16
 166              		.loc 1 80 0
 167 000e 1968     		ldr	r1, [r3, #0]
 168 0010 40F20000 		movw	r0, #:lower16:.LANCHOR1
 169 0014 40F20003 		movw	r3, #:lower16:notify
 170 0018 0092     		str	r2, [sp, #0]
 171 001a C0F20003 		movt	r3, #:upper16:notify
 172 001e C0F20000 		movt	r0, #:upper16:.LANCHOR1
 173 0022 0422     		movs	r2, #4
 174 0024 FFF7FEFF 		bl	chIQInit
 175              		.loc 1 81 0
 176 0028 03B0     		add	sp, sp, #12
 177 002a 00BD     		pop	{pc}
 178              		.cfi_endproc
 179              	.LFE8:
 180              		.size	queues1_setup, .-queues1_setup
 181 002c AFF30080 		.section	.text.queues2_execute,"ax",%progbits
 182              		.align	2
 183              		.p2align 4,,15
 184              		.thumb
 185              		.thumb_func
 186              		.type	queues2_execute, %function
 187              	queues2_execute:
 188              	.LFB13:
 189              		.loc 1 177 0
 190              		.cfi_startproc
 191              		@ args = 0, pretend = 0, frame = 0
 192              		@ frame_needed = 0, uses_anonymous_args = 0
 193 0000 2DE9F041 		push	{r4, r5, r6, r7, r8, lr}
 194              	.LCFI6:
 195              		.cfi_def_cfa_offset 24
 196              		.cfi_offset 14, -4
 197              		.cfi_offset 8, -8
 198              		.cfi_offset 7, -12
 199              		.cfi_offset 6, -16
 200              		.cfi_offset 5, -20
 201              		.cfi_offset 4, -24
 202              	.LBB96:
 203              		.loc 1 182 0
 204 0004 2023     		movs	r3, #32
 205              	.LVL5:
 206              	.LBE96:
 207              		.loc 1 177 0
 208 0006 82B0     		sub	sp, sp, #8
 209              	.LCFI7:
 210              		.cfi_def_cfa_offset 32
 211              	.LBB97:
 212              		.loc 1 182 0
 213              	@ 182 "../../ChibiOS/test/testqueues.c" 1
 214 0008 83F31188 		msr     BASEPRI, r3
 215              	@ 0 "" 2
 216              	.LVL6:
 217              		.thumb
 218              	.LBE97:
 219 000c BE4D     		ldr	r5, .L29
 220 000e FFF7FEFF 		bl	dbg_check_lock
 221              	.LVL7:
ARM GAS  /tmp/ccQeRi3A.s 			page 5


 222 0012 6A69     		ldr	r2, [r5, #20]
 223 0014 AB69     		ldr	r3, [r5, #24]
 224 0016 9A42     		cmp	r2, r3
 225 0018 00F09081 		beq	.L24
 226 001c 0021     		movs	r1, #0
 227              	.L7:
 228              		.loc 1 182 0 is_stmt 0 discriminator 4
 229 001e 0120     		movs	r0, #1
 230 0020 FFF7FEFF 		bl	_test_assert
 231 0024 0646     		mov	r6, r0
 232 0026 0028     		cmp	r0, #0
 233 0028 40F07A81 		bne	.L21
 234              	.LBB98:
 235              	.LBB99:
 236              		.loc 1 182 0
 237 002c FFF7FEFF 		bl	dbg_check_unlock
 238              	.LBB100:
 239 0030 3346     		mov	r3, r6
 240              	.LVL8:
 241              	@ 182 "../../ChibiOS/test/testqueues.c" 1
 242 0032 83F31188 		msr     BASEPRI, r3
 243              	@ 0 "" 2
 244              	.LVL9:
 245              		.thumb
 246              	.LBE100:
 247              		.loc 1 186 0 is_stmt 1
 248 0036 B44C     		ldr	r4, .L29
 249 0038 4121     		movs	r1, #65
 250 003a 2046     		mov	r0, r4
 251 003c 4FF0FF32 		mov	r2, #-1
 252 0040 FFF7FEFF 		bl	chOQPutTimeout
 253              	.LVL10:
 254 0044 4221     		movs	r1, #66
 255 0046 2046     		mov	r0, r4
 256 0048 4FF0FF32 		mov	r2, #-1
 257 004c FFF7FEFF 		bl	chOQPutTimeout
 258              	.LVL11:
 259 0050 4321     		movs	r1, #67
 260 0052 2046     		mov	r0, r4
 261 0054 4FF0FF32 		mov	r2, #-1
 262 0058 FFF7FEFF 		bl	chOQPutTimeout
 263              	.LVL12:
 264 005c 2046     		mov	r0, r4
 265 005e 4421     		movs	r1, #68
 266 0060 4FF0FF32 		mov	r2, #-1
 267 0064 FFF7FEFF 		bl	chOQPutTimeout
 268              	.LVL13:
 269              	.LBB101:
 270              		.loc 1 187 0
 271 0068 2023     		movs	r3, #32
 272              	.LVL14:
 273              	@ 187 "../../ChibiOS/test/testqueues.c" 1
 274 006a 83F31188 		msr     BASEPRI, r3
 275              	@ 0 "" 2
 276              	.LVL15:
 277              		.thumb
 278              	.LBE101:
ARM GAS  /tmp/ccQeRi3A.s 			page 6


 279 006e FFF7FEFF 		bl	dbg_check_lock
 280              	.LVL16:
 281 0072 AD68     		ldr	r5, [r5, #8]
 282 0074 0220     		movs	r0, #2
 283 0076 D5F10101 		rsbs	r1, r5, #1
 284 007a 38BF     		it	cc
 285 007c 0021     		movcc	r1, #0
 286 007e FFF7FEFF 		bl	_test_assert
 287 0082 0546     		mov	r5, r0
 288 0084 0028     		cmp	r0, #0
 289 0086 40F05381 		bne	.L25
 290 008a FFF7FEFF 		bl	dbg_check_unlock
 291              	.LBB102:
 292 008e 2B46     		mov	r3, r5
 293              	.LVL17:
 294              	@ 187 "../../ChibiOS/test/testqueues.c" 1
 295 0090 83F31188 		msr     BASEPRI, r3
 296              	@ 0 "" 2
 297              	.LVL18:
 298              		.thumb
 299              	.LBE102:
 300              	.LBB103:
 301              	.LBB104:
 302              		.loc 1 193 0
 303 0094 2023     		movs	r3, #32
 304              	.LVL19:
 305              	@ 193 "../../ChibiOS/test/testqueues.c" 1
 306 0096 83F31188 		msr     BASEPRI, r3
 307              	@ 0 "" 2
 308              	.LVL20:
 309              		.thumb
 310              	.LBE104:
 311 009a FFF7FEFF 		bl	dbg_check_lock
 312              	.LVL21:
 313              		.loc 1 194 0
 314 009e 2046     		mov	r0, r4
 315 00a0 FFF7FEFF 		bl	chOQGetI
 316 00a4 0646     		mov	r6, r0
 317              	.LVL22:
 318              		.loc 1 195 0
 319 00a6 FFF7FEFF 		bl	dbg_check_unlock
 320              	.LVL23:
 321              	.LBB105:
 322 00aa 2B46     		mov	r3, r5
 323              	.LVL24:
 324              	@ 195 "../../ChibiOS/test/testqueues.c" 1
 325 00ac 83F31188 		msr     BASEPRI, r3
 326              	@ 0 "" 2
 327              	.LVL25:
 328              		.thumb
 329              	.LBE105:
 330              		.loc 1 196 0
 331 00b0 F0B2     		uxtb	r0, r6
 332 00b2 FFF7FEFF 		bl	test_emit_token
 333              	.LVL26:
 334              	.LBB106:
 335              		.loc 1 193 0
ARM GAS  /tmp/ccQeRi3A.s 			page 7


 336 00b6 2023     		movs	r3, #32
 337              	@ 193 "../../ChibiOS/test/testqueues.c" 1
 338 00b8 83F31188 		msr     BASEPRI, r3
 339              	@ 0 "" 2
 340              	.LVL27:
 341              		.thumb
 342              	.LBE106:
 343 00bc FFF7FEFF 		bl	dbg_check_lock
 344              	.LVL28:
 345              		.loc 1 194 0
 346 00c0 2046     		mov	r0, r4
 347 00c2 FFF7FEFF 		bl	chOQGetI
 348 00c6 0646     		mov	r6, r0
 349              	.LVL29:
 350              		.loc 1 195 0
 351 00c8 FFF7FEFF 		bl	dbg_check_unlock
 352              	.LVL30:
 353              	.LBB107:
 354 00cc 2B46     		mov	r3, r5
 355              	@ 195 "../../ChibiOS/test/testqueues.c" 1
 356 00ce 83F31188 		msr     BASEPRI, r3
 357              	@ 0 "" 2
 358              	.LVL31:
 359              		.thumb
 360              	.LBE107:
 361              		.loc 1 196 0
 362 00d2 F0B2     		uxtb	r0, r6
 363 00d4 FFF7FEFF 		bl	test_emit_token
 364              	.LVL32:
 365              	.LBB108:
 366              		.loc 1 193 0
 367 00d8 2023     		movs	r3, #32
 368              	@ 193 "../../ChibiOS/test/testqueues.c" 1
 369 00da 83F31188 		msr     BASEPRI, r3
 370              	@ 0 "" 2
 371              	.LVL33:
 372              		.thumb
 373              	.LBE108:
 374 00de FFF7FEFF 		bl	dbg_check_lock
 375              	.LVL34:
 376              		.loc 1 194 0
 377 00e2 2046     		mov	r0, r4
 378 00e4 FFF7FEFF 		bl	chOQGetI
 379 00e8 0646     		mov	r6, r0
 380              	.LVL35:
 381              		.loc 1 195 0
 382 00ea FFF7FEFF 		bl	dbg_check_unlock
 383              	.LVL36:
 384              	.LBB109:
 385 00ee 2B46     		mov	r3, r5
 386              	@ 195 "../../ChibiOS/test/testqueues.c" 1
 387 00f0 83F31188 		msr     BASEPRI, r3
 388              	@ 0 "" 2
 389              	.LVL37:
 390              		.thumb
 391              	.LBE109:
 392              		.loc 1 196 0
ARM GAS  /tmp/ccQeRi3A.s 			page 8


 393 00f4 F0B2     		uxtb	r0, r6
 394 00f6 FFF7FEFF 		bl	test_emit_token
 395              	.LVL38:
 396              	.LBB110:
 397              		.loc 1 193 0
 398 00fa 2023     		movs	r3, #32
 399              	@ 193 "../../ChibiOS/test/testqueues.c" 1
 400 00fc 83F31188 		msr     BASEPRI, r3
 401              	@ 0 "" 2
 402              	.LVL39:
 403              		.thumb
 404              	.LBE110:
 405 0100 FFF7FEFF 		bl	dbg_check_lock
 406              	.LVL40:
 407              		.loc 1 194 0
 408 0104 2046     		mov	r0, r4
 409 0106 FFF7FEFF 		bl	chOQGetI
 410 010a 0646     		mov	r6, r0
 411              	.LVL41:
 412              		.loc 1 195 0
 413 010c FFF7FEFF 		bl	dbg_check_unlock
 414              	.LVL42:
 415              	.LBB111:
 416 0110 2B46     		mov	r3, r5
 417              	@ 195 "../../ChibiOS/test/testqueues.c" 1
 418 0112 83F31188 		msr     BASEPRI, r3
 419              	@ 0 "" 2
 420              	.LVL43:
 421              		.thumb
 422              	.LBE111:
 423              		.loc 1 196 0
 424 0116 F0B2     		uxtb	r0, r6
 425 0118 FFF7FEFF 		bl	test_emit_token
 426              	.LVL44:
 427              	.LBE103:
 428              	.LBB112:
 429              		.loc 1 198 0
 430 011c 2023     		movs	r3, #32
 431              	.LVL45:
 432              	@ 198 "../../ChibiOS/test/testqueues.c" 1
 433 011e 83F31188 		msr     BASEPRI, r3
 434              	@ 0 "" 2
 435              	.LVL46:
 436              		.thumb
 437              	.LBE112:
 438 0122 FFF7FEFF 		bl	dbg_check_lock
 439              	.LVL47:
 440 0126 6069     		ldr	r0, [r4, #20]
 441 0128 A269     		ldr	r2, [r4, #24]
 442 012a 9042     		cmp	r0, r2
 443 012c 00F00B81 		beq	.L26
 444 0130 2946     		mov	r1, r5
 445              	.L11:
 446 0132 0320     		movs	r0, #3
 447 0134 FFF7FEFF 		bl	_test_assert
 448 0138 0446     		mov	r4, r0
 449 013a 0028     		cmp	r0, #0
ARM GAS  /tmp/ccQeRi3A.s 			page 9


 450 013c 40F0F080 		bne	.L21
 451 0140 FFF7FEFF 		bl	dbg_check_unlock
 452              	.LBB113:
 453 0144 2346     		mov	r3, r4
 454              	.LVL48:
 455              	@ 198 "../../ChibiOS/test/testqueues.c" 1
 456 0146 83F31188 		msr     BASEPRI, r3
 457              	@ 0 "" 2
 458              	.LVL49:
 459              		.thumb
 460              	.LBE113:
 461              		.loc 1 199 0
 462 014a 0420     		movs	r0, #4
 463 014c 6F49     		ldr	r1, .L29+4
 464 014e FFF7FEFF 		bl	_test_assert_sequence
 465              	.LVL50:
 466 0152 0546     		mov	r5, r0
 467 0154 0028     		cmp	r0, #0
 468 0156 40F0E880 		bne	.L6
 469              	.LBB114:
 470              		.loc 1 200 0
 471 015a 2023     		movs	r3, #32
 472              	.LVL51:
 473              	@ 200 "../../ChibiOS/test/testqueues.c" 1
 474 015c 83F31188 		msr     BASEPRI, r3
 475              	@ 0 "" 2
 476              	.LVL52:
 477              		.thumb
 478              	.LBE114:
 479 0160 694C     		ldr	r4, .L29
 480 0162 FFF7FEFF 		bl	dbg_check_lock
 481              	.LVL53:
 482 0166 2046     		mov	r0, r4
 483 0168 FFF7FEFF 		bl	chOQGetI
 484 016c 0330     		adds	r0, r0, #3
 485 016e 14BF     		ite	ne
 486 0170 0021     		movne	r1, #0
 487 0172 0121     		moveq	r1, #1
 488 0174 0520     		movs	r0, #5
 489 0176 FFF7FEFF 		bl	_test_assert
 490 017a 0746     		mov	r7, r0
 491 017c 0028     		cmp	r0, #0
 492 017e 40F0E780 		bne	.L22
 493 0182 FFF7FEFF 		bl	dbg_check_unlock
 494              	.LBB115:
 495 0186 3B46     		mov	r3, r7
 496              	.LVL54:
 497              	@ 200 "../../ChibiOS/test/testqueues.c" 1
 498 0188 83F31188 		msr     BASEPRI, r3
 499              	@ 0 "" 2
 500              	.LVL55:
 501              		.thumb
 502              	.LBE115:
 503              		.loc 1 203 0
 504 018c 604D     		ldr	r5, .L29+8
 505 018e 0822     		movs	r2, #8
 506 0190 6E68     		ldr	r6, [r5, #4]
ARM GAS  /tmp/ccQeRi3A.s 			page 10


 507              	.LVL56:
 508 0192 2046     		mov	r0, r4
 509 0194 3146     		mov	r1, r6
 510 0196 FFF7FEFF 		bl	chOQWriteTimeout
 511              	.LVL57:
 512              		.loc 1 204 0
 513 019a A0F10401 		sub	r1, r0, #4
 514 019e 4B42     		rsbs	r3, r1, #0
 515 01a0 43EB0101 		adc	r1, r3, r1
 516 01a4 0620     		movs	r0, #6
 517              	.LVL58:
 518 01a6 FFF7FEFF 		bl	_test_assert
 519 01aa 8046     		mov	r8, r0
 520 01ac 0028     		cmp	r0, #0
 521 01ae 40F0BC80 		bne	.L6
 522              	.LBB116:
 523              		.loc 1 205 0
 524 01b2 2023     		movs	r3, #32
 525              	.LVL59:
 526              	@ 205 "../../ChibiOS/test/testqueues.c" 1
 527 01b4 83F31188 		msr     BASEPRI, r3
 528              	@ 0 "" 2
 529              	.LVL60:
 530              		.thumb
 531              	.LBE116:
 532 01b8 FFF7FEFF 		bl	dbg_check_lock
 533              	.LVL61:
 534 01bc A768     		ldr	r7, [r4, #8]
 535 01be 0720     		movs	r0, #7
 536 01c0 D7F10101 		rsbs	r1, r7, #1
 537 01c4 38BF     		it	cc
 538 01c6 0021     		movcc	r1, #0
 539 01c8 FFF7FEFF 		bl	_test_assert
 540 01cc 0746     		mov	r7, r0
 541 01ce 0028     		cmp	r0, #0
 542 01d0 40F0C480 		bne	.L27
 543 01d4 FFF7FEFF 		bl	dbg_check_unlock
 544              	.LBB117:
 545 01d8 3B46     		mov	r3, r7
 546              	.LVL62:
 547              	@ 205 "../../ChibiOS/test/testqueues.c" 1
 548 01da 83F31188 		msr     BASEPRI, r3
 549              	@ 0 "" 2
 550              	.LVL63:
 551              		.thumb
 552              	.LBE117:
 553              		.loc 1 206 0
 554 01de 2868     		ldr	r0, [r5, #0]
 555 01e0 4C4D     		ldr	r5, .L29+12
 556 01e2 A969     		ldr	r1, [r5, #24]
 557 01e4 8B68     		ldr	r3, [r1, #8]
 558              	.LVL64:
 559 01e6 4FF40471 		mov	r1, #528
 560 01ea 5A1C     		adds	r2, r3, #1
 561 01ec 4A4B     		ldr	r3, .L29+16
 562 01ee 0097     		str	r7, [sp, #0]
 563 01f0 FFF7FEFF 		bl	chThdCreateStatic
ARM GAS  /tmp/ccQeRi3A.s 			page 11


 564 01f4 494A     		ldr	r2, .L29+20
 565              	.LBB118:
 566              		.loc 1 207 0
 567 01f6 2023     		movs	r3, #32
 568              	.LVL65:
 569              	.LBE118:
 570              		.loc 1 206 0
 571 01f8 1060     		str	r0, [r2, #0]
 572              	.LBB119:
 573              		.loc 1 207 0
 574              	@ 207 "../../ChibiOS/test/testqueues.c" 1
 575 01fa 83F31188 		msr     BASEPRI, r3
 576              	@ 0 "" 2
 577              	.LVL66:
 578              		.thumb
 579              	.LBE119:
 580 01fe FFF7FEFF 		bl	dbg_check_lock
 581              	.LVL67:
 582 0202 2169     		ldr	r1, [r4, #16]
 583 0204 E568     		ldr	r5, [r4, #12]
 584 0206 A368     		ldr	r3, [r4, #8]
 585 0208 C5EB010C 		rsb	ip, r5, r1
 586 020c C3EB0C02 		rsb	r2, r3, ip
 587 0210 A2F10400 		sub	r0, r2, #4
 588 0214 4542     		rsbs	r5, r0, #0
 589 0216 45EB0001 		adc	r1, r5, r0
 590 021a 0820     		movs	r0, #8
 591 021c FFF7FEFF 		bl	_test_assert
 592 0220 0546     		mov	r5, r0
 593 0222 0028     		cmp	r0, #0
 594 0224 40F0A080 		bne	.L28
 595 0228 FFF7FEFF 		bl	dbg_check_unlock
 596              	.LBB120:
 597 022c 2B46     		mov	r3, r5
 598              	.LVL68:
 599              	@ 207 "../../ChibiOS/test/testqueues.c" 1
 600 022e 83F31188 		msr     BASEPRI, r3
 601              	@ 0 "" 2
 602              	.LVL69:
 603              		.thumb
 604              	.LBE120:
 605              		.loc 1 208 0
 606 0232 FFF7FEFF 		bl	test_wait_threads
 607              	.LVL70:
 608              	.LBB121:
 609              		.loc 1 211 0
 610 0236 2023     		movs	r3, #32
 611              	.LVL71:
 612              	@ 211 "../../ChibiOS/test/testqueues.c" 1
 613 0238 83F31188 		msr     BASEPRI, r3
 614              	@ 0 "" 2
 615              	.LVL72:
 616              		.thumb
 617              	.LBE121:
 618 023c FFF7FEFF 		bl	dbg_check_lock
 619              	.LVL73:
 620              		.loc 1 212 0
ARM GAS  /tmp/ccQeRi3A.s 			page 12


 621 0240 2046     		mov	r0, r4
 622 0242 FFF7FEFF 		bl	chOQResetI
 623              		.loc 1 213 0
 624 0246 FFF7FEFF 		bl	dbg_check_unlock
 625              	.LBB122:
 626 024a 2B46     		mov	r3, r5
 627              	.LVL74:
 628              	@ 213 "../../ChibiOS/test/testqueues.c" 1
 629 024c 83F31188 		msr     BASEPRI, r3
 630              	@ 0 "" 2
 631              	.LVL75:
 632              		.thumb
 633              	.LBE122:
 634              	.LBB123:
 635              		.loc 1 214 0
 636 0250 2023     		movs	r3, #32
 637              	.LVL76:
 638              	@ 214 "../../ChibiOS/test/testqueues.c" 1
 639 0252 83F31188 		msr     BASEPRI, r3
 640              	@ 0 "" 2
 641              	.LVL77:
 642              		.thumb
 643              	.LBE123:
 644 0256 FFF7FEFF 		bl	dbg_check_lock
 645              	.LVL78:
 646 025a 2169     		ldr	r1, [r4, #16]
 647 025c E068     		ldr	r0, [r4, #12]
 648 025e A368     		ldr	r3, [r4, #8]
 649 0260 0A1A     		subs	r2, r1, r0
 650 0262 D71A     		subs	r7, r2, r3
 651 0264 7842     		rsbs	r0, r7, #0
 652 0266 40EB0701 		adc	r1, r0, r7
 653 026a 0920     		movs	r0, #9
 654 026c FFF7FEFF 		bl	_test_assert
 655 0270 0746     		mov	r7, r0
 656 0272 0028     		cmp	r0, #0
 657 0274 6CD1     		bne	.L22
 658 0276 FFF7FEFF 		bl	dbg_check_unlock
 659              	.LBB124:
 660 027a 3B46     		mov	r3, r7
 661              	.LVL79:
 662              	@ 214 "../../ChibiOS/test/testqueues.c" 1
 663 027c 83F31188 		msr     BASEPRI, r3
 664              	@ 0 "" 2
 665              	.LVL80:
 666              		.thumb
 667              	.LBE124:
 668              		.loc 1 217 0
 669 0280 0222     		movs	r2, #2
 670 0282 3146     		mov	r1, r6
 671 0284 2046     		mov	r0, r4
 672 0286 FFF7FEFF 		bl	chOQWriteTimeout
 673              	.LVL81:
 674              		.loc 1 218 0
 675 028a A0F10203 		sub	r3, r0, #2
 676 028e 5A42     		rsbs	r2, r3, #0
 677 0290 42EB0301 		adc	r1, r2, r3
ARM GAS  /tmp/ccQeRi3A.s 			page 13


 678 0294 0A20     		movs	r0, #10
 679              	.LVL82:
 680 0296 FFF7FEFF 		bl	_test_assert
 681              	.LVL83:
 682 029a 0346     		mov	r3, r0
 683 029c 0028     		cmp	r0, #0
 684 029e 44D1     		bne	.L6
 685              		.loc 1 219 0
 686 02a0 3146     		mov	r1, r6
 687 02a2 0222     		movs	r2, #2
 688 02a4 2046     		mov	r0, r4
 689 02a6 FFF7FEFF 		bl	chOQWriteTimeout
 690              	.LVL84:
 691              		.loc 1 220 0
 692 02aa A0F10201 		sub	r1, r0, #2
 693 02ae D1F1000C 		rsbs	ip, r1, #0
 694 02b2 4CEB0101 		adc	r1, ip, r1
 695 02b6 0B20     		movs	r0, #11
 696              	.LVL85:
 697 02b8 FFF7FEFF 		bl	_test_assert
 698 02bc 0028     		cmp	r0, #0
 699 02be 34D1     		bne	.L6
 700              	.LBB125:
 701              		.loc 1 221 0
 702 02c0 2023     		movs	r3, #32
 703              	.LVL86:
 704              	@ 221 "../../ChibiOS/test/testqueues.c" 1
 705 02c2 83F31188 		msr     BASEPRI, r3
 706              	@ 0 "" 2
 707              	.LVL87:
 708              		.thumb
 709              	.LBE125:
 710 02c6 FFF7FEFF 		bl	dbg_check_lock
 711              	.LVL88:
 712 02ca A268     		ldr	r2, [r4, #8]
 713 02cc 0C20     		movs	r0, #12
 714 02ce D2F10101 		rsbs	r1, r2, #1
 715 02d2 38BF     		it	cc
 716 02d4 0021     		movcc	r1, #0
 717 02d6 FFF7FEFF 		bl	_test_assert
 718 02da 08BB     		cbnz	r0, .L21
 719 02dc FFF7FEFF 		bl	dbg_check_unlock
 720              	.LBB126:
 721 02e0 0023     		movs	r3, #0
 722              	.LVL89:
 723              	@ 221 "../../ChibiOS/test/testqueues.c" 1
 724 02e2 83F31188 		msr     BASEPRI, r3
 725              	@ 0 "" 2
 726              	.LVL90:
 727              		.thumb
 728              	.LBE126:
 729              		.loc 1 224 0
 730 02e6 0A22     		movs	r2, #10
 731 02e8 1946     		mov	r1, r3
 732 02ea 0748     		ldr	r0, .L29
 733 02ec FFF7FEFF 		bl	chOQPutTimeout
 734              	.LVL91:
ARM GAS  /tmp/ccQeRi3A.s 			page 14


 735 02f0 A0F1FF33 		sub	r3, r0, #-1
 736 02f4 5842     		rsbs	r0, r3, #0
 737 02f6 40EB0301 		adc	r1, r0, r3
 738 02fa 0D20     		movs	r0, #13
 739              	.LBE99:
 740              	.LBE98:
 741              		.loc 1 225 0
 742 02fc 02B0     		add	sp, sp, #8
 743 02fe BDE8F041 		pop	{r4, r5, r6, r7, r8, lr}
 744              	.LBB135:
 745              	.LBB132:
 746              		.loc 1 224 0
 747 0302 FFF7FEBF 		b	_test_assert
 748              	.L30:
 749 0306 00BF     		.align	2
 750              	.L29:
 751 0308 00000000 		.word	.LANCHOR0
 752 030c 00000000 		.word	.LC0
 753 0310 00000000 		.word	wa
 754 0314 00000000 		.word	rlist
 755 0318 00000000 		.word	thread2
 756 031c 00000000 		.word	threads
 757              	.L21:
 758              		.loc 1 221 0
 759 0320 FFF7FEFF 		bl	dbg_check_unlock
 760              	.LBB127:
 761 0324 0023     		movs	r3, #0
 762              	.LVL92:
 763              	@ 221 "../../ChibiOS/test/testqueues.c" 1
 764 0326 83F31188 		msr     BASEPRI, r3
 765              	@ 0 "" 2
 766              	.LVL93:
 767              		.thumb
 768              	.L6:
 769              	.LBE127:
 770              	.LBE132:
 771              	.LBE135:
 772              		.loc 1 225 0
 773 032a 02B0     		add	sp, sp, #8
 774 032c BDE8F081 		pop	{r4, r5, r6, r7, r8, pc}
 775              	.LVL94:
 776              	.L25:
 777              	.LBB136:
 778              	.LBB133:
 779              		.loc 1 187 0
 780 0330 FFF7FEFF 		bl	dbg_check_unlock
 781              	.LBB128:
 782 0334 3346     		mov	r3, r6
 783              	@ 187 "../../ChibiOS/test/testqueues.c" 1
 784 0336 83F31188 		msr     BASEPRI, r3
 785              	@ 0 "" 2
 786              	.LVL95:
 787              		.thumb
 788 033a F6E7     		b	.L6
 789              	.LVL96:
 790              	.L24:
 791              	.LBE128:
ARM GAS  /tmp/ccQeRi3A.s 			page 15


 792              	.LBE133:
 793              	.LBE136:
 794              		.loc 1 177 0 discriminator 1
 795 033c A968     		ldr	r1, [r5, #8]
 796 033e 0031     		adds	r1, r1, #0
 797 0340 18BF     		it	ne
 798 0342 0121     		movne	r1, #1
 799 0344 6BE6     		b	.L7
 800              	.LVL97:
 801              	.L26:
 802              	.LBB137:
 803              	.LBB134:
 804              		.loc 1 177 0 is_stmt 0
 805 0346 A468     		ldr	r4, [r4, #8]
 806 0348 211C     		adds	r1, r4, #0
 807 034a 18BF     		it	ne
 808 034c 0121     		movne	r1, #1
 809 034e F0E6     		b	.L11
 810              	.LVL98:
 811              	.L22:
 812              		.loc 1 214 0 is_stmt 1
 813 0350 FFF7FEFF 		bl	dbg_check_unlock
 814              	.LBB129:
 815 0354 2B46     		mov	r3, r5
 816              	@ 214 "../../ChibiOS/test/testqueues.c" 1
 817 0356 83F31188 		msr     BASEPRI, r3
 818              	@ 0 "" 2
 819              	.LVL99:
 820              		.thumb
 821 035a E6E7     		b	.L6
 822              	.LVL100:
 823              	.L27:
 824              	.LBE129:
 825              		.loc 1 205 0
 826 035c FFF7FEFF 		bl	dbg_check_unlock
 827              	.LBB130:
 828 0360 4346     		mov	r3, r8
 829              	@ 205 "../../ChibiOS/test/testqueues.c" 1
 830 0362 83F31188 		msr     BASEPRI, r3
 831              	@ 0 "" 2
 832              	.LVL101:
 833              		.thumb
 834 0366 E0E7     		b	.L6
 835              	.LVL102:
 836              	.L28:
 837              	.LBE130:
 838              		.loc 1 207 0
 839 0368 FFF7FEFF 		bl	dbg_check_unlock
 840              	.LBB131:
 841 036c 3B46     		mov	r3, r7
 842              	@ 207 "../../ChibiOS/test/testqueues.c" 1
 843 036e 83F31188 		msr     BASEPRI, r3
 844              	@ 0 "" 2
 845              	.LVL103:
 846              		.thumb
 847 0372 DAE7     		b	.L6
 848              	.LBE131:
ARM GAS  /tmp/ccQeRi3A.s 			page 16


 849              	.LBE134:
 850              	.LBE137:
 851              		.cfi_endproc
 852              	.LFE13:
 853              		.size	queues2_execute, .-queues2_execute
 854 0374 AFF30080 		.section	.text.queues1_execute,"ax",%progbits
 854      AFF30080 
 854      AFF30080 
 855              		.align	2
 856              		.p2align 4,,15
 857              		.thumb
 858              		.thumb_func
 859              		.type	queues1_execute, %function
 860              	queues1_execute:
 861              	.LFB10:
 862              		.loc 1 90 0
 863              		.cfi_startproc
 864              		@ args = 0, pretend = 0, frame = 0
 865              		@ frame_needed = 0, uses_anonymous_args = 0
 866 0000 2DE9F043 		push	{r4, r5, r6, r7, r8, r9, lr}
 867              	.LCFI8:
 868              		.cfi_def_cfa_offset 28
 869              		.cfi_offset 14, -4
 870              		.cfi_offset 9, -8
 871              		.cfi_offset 8, -12
 872              		.cfi_offset 7, -16
 873              		.cfi_offset 6, -20
 874              		.cfi_offset 5, -24
 875              		.cfi_offset 4, -28
 876              	.LBB174:
 877              		.loc 1 95 0
 878 0004 2023     		movs	r3, #32
 879              	.LVL104:
 880              	.LBE174:
 881              		.loc 1 90 0
 882 0006 83B0     		sub	sp, sp, #12
 883              	.LCFI9:
 884              		.cfi_def_cfa_offset 40
 885              	.LBB175:
 886              		.loc 1 95 0
 887              	@ 95 "../../ChibiOS/test/testqueues.c" 1
 888 0008 83F31188 		msr     BASEPRI, r3
 889              	@ 0 "" 2
 890              	.LVL105:
 891              		.thumb
 892              	.LBE175:
 893 000c C54C     		ldr	r4, .L50
 894 000e FFF7FEFF 		bl	dbg_check_lock
 895              	.LVL106:
 896 0012 A168     		ldr	r1, [r4, #8]
 897 0014 0120     		movs	r0, #1
 898 0016 D1F10101 		rsbs	r1, r1, #1
 899 001a 38BF     		it	cc
 900 001c 0021     		movcc	r1, #0
 901 001e FFF7FEFF 		bl	_test_assert
 902 0022 0546     		mov	r5, r0
 903 0024 0028     		cmp	r0, #0
ARM GAS  /tmp/ccQeRi3A.s 			page 17


 904 0026 40F08E81 		bne	.L43
 905              	.LBB176:
 906              	.LBB177:
 907 002a FFF7FEFF 		bl	dbg_check_unlock
 908              	.LBB178:
 909 002e 2B46     		mov	r3, r5
 910              	.LVL107:
 911              	@ 95 "../../ChibiOS/test/testqueues.c" 1
 912 0030 83F31188 		msr     BASEPRI, r3
 913              	@ 0 "" 2
 914              	.LVL108:
 915              		.thumb
 916              	.LBE178:
 917              	.LBB179:
 918              		.loc 1 98 0
 919 0034 2023     		movs	r3, #32
 920              	.LVL109:
 921              	@ 98 "../../ChibiOS/test/testqueues.c" 1
 922 0036 83F31188 		msr     BASEPRI, r3
 923              	@ 0 "" 2
 924              	.LVL110:
 925              		.thumb
 926              	.LBE179:
 927 003a FFF7FEFF 		bl	dbg_check_lock
 928              	.LVL111:
 929              		.loc 1 100 0
 930 003e 4121     		movs	r1, #65
 931 0040 2046     		mov	r0, r4
 932 0042 FFF7FEFF 		bl	chIQPutI
 933              	.LVL112:
 934 0046 4221     		movs	r1, #66
 935 0048 2046     		mov	r0, r4
 936 004a FFF7FEFF 		bl	chIQPutI
 937              	.LVL113:
 938 004e 4321     		movs	r1, #67
 939 0050 2046     		mov	r0, r4
 940 0052 FFF7FEFF 		bl	chIQPutI
 941              	.LVL114:
 942 0056 4421     		movs	r1, #68
 943 0058 2046     		mov	r0, r4
 944 005a FFF7FEFF 		bl	chIQPutI
 945              	.LVL115:
 946              		.loc 1 101 0
 947 005e FFF7FEFF 		bl	dbg_check_unlock
 948              	.LBB180:
 949 0062 2B46     		mov	r3, r5
 950              	.LVL116:
 951              	@ 101 "../../ChibiOS/test/testqueues.c" 1
 952 0064 83F31188 		msr     BASEPRI, r3
 953              	@ 0 "" 2
 954              	.LVL117:
 955              		.thumb
 956              	.LBE180:
 957              	.LBB181:
 958              		.loc 1 102 0
 959 0068 2023     		movs	r3, #32
 960              	.LVL118:
ARM GAS  /tmp/ccQeRi3A.s 			page 18


 961              	@ 102 "../../ChibiOS/test/testqueues.c" 1
 962 006a 83F31188 		msr     BASEPRI, r3
 963              	@ 0 "" 2
 964              	.LVL119:
 965              		.thumb
 966              	.LBE181:
 967 006e FFF7FEFF 		bl	dbg_check_lock
 968              	.LVL120:
 969 0072 6269     		ldr	r2, [r4, #20]
 970 0074 A369     		ldr	r3, [r4, #24]
 971 0076 9A42     		cmp	r2, r3
 972 0078 00F07981 		beq	.L44
 973 007c 2946     		mov	r1, r5
 974              	.L34:
 975 007e 0220     		movs	r0, #2
 976 0080 FFF7FEFF 		bl	_test_assert
 977 0084 0646     		mov	r6, r0
 978 0086 0028     		cmp	r0, #0
 979 0088 40F05D81 		bne	.L43
 980 008c FFF7FEFF 		bl	dbg_check_unlock
 981              	.LBB182:
 982 0090 3346     		mov	r3, r6
 983              	.LVL121:
 984              	@ 102 "../../ChibiOS/test/testqueues.c" 1
 985 0092 83F31188 		msr     BASEPRI, r3
 986              	@ 0 "" 2
 987              	.LVL122:
 988              		.thumb
 989              	.LBE182:
 990              	.LBB183:
 991              		.loc 1 103 0
 992 0096 2023     		movs	r3, #32
 993              	.LVL123:
 994              	@ 103 "../../ChibiOS/test/testqueues.c" 1
 995 0098 83F31188 		msr     BASEPRI, r3
 996              	@ 0 "" 2
 997              	.LVL124:
 998              		.thumb
 999              	.LBE183:
 1000 009c A14D     		ldr	r5, .L50
 1001 009e FFF7FEFF 		bl	dbg_check_lock
 1002              	.LVL125:
 1003 00a2 3146     		mov	r1, r6
 1004 00a4 2846     		mov	r0, r5
 1005 00a6 FFF7FEFF 		bl	chIQPutI
 1006 00aa 0430     		adds	r0, r0, #4
 1007 00ac 14BF     		ite	ne
 1008 00ae 0021     		movne	r1, #0
 1009 00b0 0121     		moveq	r1, #1
 1010 00b2 0320     		movs	r0, #3
 1011 00b4 FFF7FEFF 		bl	_test_assert
 1012 00b8 0746     		mov	r7, r0
 1013 00ba 0028     		cmp	r0, #0
 1014 00bc 40F05181 		bne	.L45
 1015 00c0 FFF7FEFF 		bl	dbg_check_unlock
 1016              	.LBB184:
 1017 00c4 3B46     		mov	r3, r7
ARM GAS  /tmp/ccQeRi3A.s 			page 19


 1018              	.LVL126:
 1019              	@ 103 "../../ChibiOS/test/testqueues.c" 1
 1020 00c6 83F31188 		msr     BASEPRI, r3
 1021              	@ 0 "" 2
 1022              	.LVL127:
 1023              		.thumb
 1024              	.LBE184:
 1025              		.loc 1 107 0
 1026 00ca 4FF0FF31 		mov	r1, #-1
 1027 00ce 2846     		mov	r0, r5
 1028 00d0 FFF7FEFF 		bl	chIQGetTimeout
 1029              	.LVL128:
 1030 00d4 C0B2     		uxtb	r0, r0
 1031 00d6 FFF7FEFF 		bl	test_emit_token
 1032              	.LVL129:
 1033 00da 4FF0FF31 		mov	r1, #-1
 1034 00de 2846     		mov	r0, r5
 1035 00e0 FFF7FEFF 		bl	chIQGetTimeout
 1036 00e4 C0B2     		uxtb	r0, r0
 1037 00e6 FFF7FEFF 		bl	test_emit_token
 1038 00ea 4FF0FF31 		mov	r1, #-1
 1039 00ee 2846     		mov	r0, r5
 1040 00f0 FFF7FEFF 		bl	chIQGetTimeout
 1041 00f4 C0B2     		uxtb	r0, r0
 1042 00f6 FFF7FEFF 		bl	test_emit_token
 1043 00fa 4FF0FF31 		mov	r1, #-1
 1044 00fe 2846     		mov	r0, r5
 1045 0100 FFF7FEFF 		bl	chIQGetTimeout
 1046 0104 C0B2     		uxtb	r0, r0
 1047 0106 FFF7FEFF 		bl	test_emit_token
 1048              	.LBB185:
 1049              		.loc 1 108 0
 1050 010a 2023     		movs	r3, #32
 1051              	.LVL130:
 1052              	@ 108 "../../ChibiOS/test/testqueues.c" 1
 1053 010c 83F31188 		msr     BASEPRI, r3
 1054              	@ 0 "" 2
 1055              	.LVL131:
 1056              		.thumb
 1057              	.LBE185:
 1058 0110 FFF7FEFF 		bl	dbg_check_lock
 1059              	.LVL132:
 1060 0114 AE68     		ldr	r6, [r5, #8]
 1061 0116 0420     		movs	r0, #4
 1062 0118 D6F10101 		rsbs	r1, r6, #1
 1063 011c 38BF     		it	cc
 1064 011e 0021     		movcc	r1, #0
 1065 0120 FFF7FEFF 		bl	_test_assert
 1066 0124 0646     		mov	r6, r0
 1067 0126 0028     		cmp	r0, #0
 1068 0128 40F01581 		bne	.L46
 1069 012c FFF7FEFF 		bl	dbg_check_unlock
 1070              	.LBB186:
 1071 0130 3346     		mov	r3, r6
 1072              	.LVL133:
 1073              	@ 108 "../../ChibiOS/test/testqueues.c" 1
 1074 0132 83F31188 		msr     BASEPRI, r3
ARM GAS  /tmp/ccQeRi3A.s 			page 20


 1075              	@ 0 "" 2
 1076              	.LVL134:
 1077              		.thumb
 1078              	.LBE186:
 1079              		.loc 1 109 0
 1080 0136 0520     		movs	r0, #5
 1081 0138 7B49     		ldr	r1, .L50+4
 1082 013a FFF7FEFF 		bl	_test_assert_sequence
 1083              	.LVL135:
 1084 013e 0646     		mov	r6, r0
 1085 0140 0028     		cmp	r0, #0
 1086 0142 40F00581 		bne	.L31
 1087              	.LBB187:
 1088              		.loc 1 112 0
 1089 0146 2023     		movs	r3, #32
 1090              	.LVL136:
 1091              	@ 112 "../../ChibiOS/test/testqueues.c" 1
 1092 0148 83F31188 		msr     BASEPRI, r3
 1093              	@ 0 "" 2
 1094              	.LVL137:
 1095              		.thumb
 1096              	.LBE187:
 1097 014c FFF7FEFF 		bl	dbg_check_lock
 1098              	.LVL138:
 1099              		.loc 1 114 0
 1100 0150 4121     		movs	r1, #65
 1101 0152 2846     		mov	r0, r5
 1102 0154 FFF7FEFF 		bl	chIQPutI
 1103              	.LVL139:
 1104 0158 4221     		movs	r1, #66
 1105 015a 2846     		mov	r0, r5
 1106 015c FFF7FEFF 		bl	chIQPutI
 1107              	.LVL140:
 1108 0160 4321     		movs	r1, #67
 1109 0162 2846     		mov	r0, r5
 1110 0164 FFF7FEFF 		bl	chIQPutI
 1111              	.LVL141:
 1112 0168 4421     		movs	r1, #68
 1113 016a 2846     		mov	r0, r5
 1114 016c FFF7FEFF 		bl	chIQPutI
 1115              	.LVL142:
 1116              		.loc 1 115 0
 1117 0170 FFF7FEFF 		bl	dbg_check_unlock
 1118              	.LBB188:
 1119 0174 3346     		mov	r3, r6
 1120              	.LVL143:
 1121              	@ 115 "../../ChibiOS/test/testqueues.c" 1
 1122 0176 83F31188 		msr     BASEPRI, r3
 1123              	@ 0 "" 2
 1124              	.LVL144:
 1125              		.thumb
 1126              	.LBE188:
 1127              		.loc 1 118 0
 1128 017a 6C4F     		ldr	r7, .L50+8
 1129 017c 0822     		movs	r2, #8
 1130 017e D7F80480 		ldr	r8, [r7, #4]
 1131 0182 2846     		mov	r0, r5
ARM GAS  /tmp/ccQeRi3A.s 			page 21


 1132 0184 4146     		mov	r1, r8
 1133 0186 FFF7FEFF 		bl	chIQReadTimeout
 1134              	.LVL145:
 1135              		.loc 1 119 0
 1136 018a A0F10401 		sub	r1, r0, #4
 1137 018e D1F10009 		rsbs	r9, r1, #0
 1138 0192 49EB0101 		adc	r1, r9, r1
 1139 0196 0620     		movs	r0, #6
 1140              	.LVL146:
 1141 0198 FFF7FEFF 		bl	_test_assert
 1142 019c 8146     		mov	r9, r0
 1143 019e 0028     		cmp	r0, #0
 1144 01a0 40F0D680 		bne	.L31
 1145              	.LBB189:
 1146              		.loc 1 120 0
 1147 01a4 2023     		movs	r3, #32
 1148              	.LVL147:
 1149              	@ 120 "../../ChibiOS/test/testqueues.c" 1
 1150 01a6 83F31188 		msr     BASEPRI, r3
 1151              	@ 0 "" 2
 1152              	.LVL148:
 1153              		.thumb
 1154              	.LBE189:
 1155 01aa FFF7FEFF 		bl	dbg_check_lock
 1156              	.LVL149:
 1157 01ae AA68     		ldr	r2, [r5, #8]
 1158 01b0 0720     		movs	r0, #7
 1159 01b2 D2F10101 		rsbs	r1, r2, #1
 1160 01b6 38BF     		it	cc
 1161 01b8 0021     		movcc	r1, #0
 1162 01ba FFF7FEFF 		bl	_test_assert
 1163 01be 0646     		mov	r6, r0
 1164 01c0 0028     		cmp	r0, #0
 1165 01c2 40F0D980 		bne	.L47
 1166 01c6 FFF7FEFF 		bl	dbg_check_unlock
 1167              	.LBB190:
 1168 01ca 3346     		mov	r3, r6
 1169              	.LVL150:
 1170              	@ 120 "../../ChibiOS/test/testqueues.c" 1
 1171 01cc 83F31188 		msr     BASEPRI, r3
 1172              	@ 0 "" 2
 1173              	.LVL151:
 1174              		.thumb
 1175              	.LBE190:
 1176              	.LBB191:
 1177              		.loc 1 123 0
 1178 01d0 2023     		movs	r3, #32
 1179              	.LVL152:
 1180              	@ 123 "../../ChibiOS/test/testqueues.c" 1
 1181 01d2 83F31188 		msr     BASEPRI, r3
 1182              	@ 0 "" 2
 1183              	.LVL153:
 1184              		.thumb
 1185              	.LBE191:
 1186 01d6 FFF7FEFF 		bl	dbg_check_lock
 1187              	.LVL154:
 1188              		.loc 1 125 0
ARM GAS  /tmp/ccQeRi3A.s 			page 22


 1189 01da 4121     		movs	r1, #65
 1190 01dc 2846     		mov	r0, r5
 1191 01de FFF7FEFF 		bl	chIQPutI
 1192              	.LVL155:
 1193 01e2 4221     		movs	r1, #66
 1194 01e4 2846     		mov	r0, r5
 1195 01e6 FFF7FEFF 		bl	chIQPutI
 1196              	.LVL156:
 1197 01ea 4321     		movs	r1, #67
 1198 01ec 2846     		mov	r0, r5
 1199 01ee FFF7FEFF 		bl	chIQPutI
 1200              	.LVL157:
 1201 01f2 4421     		movs	r1, #68
 1202 01f4 2846     		mov	r0, r5
 1203 01f6 FFF7FEFF 		bl	chIQPutI
 1204              	.LVL158:
 1205              		.loc 1 126 0
 1206 01fa FFF7FEFF 		bl	dbg_check_unlock
 1207              	.LBB192:
 1208 01fe 3346     		mov	r3, r6
 1209              	.LVL159:
 1210              	@ 126 "../../ChibiOS/test/testqueues.c" 1
 1211 0200 83F31188 		msr     BASEPRI, r3
 1212              	@ 0 "" 2
 1213              	.LVL160:
 1214              		.thumb
 1215              	.LBE192:
 1216              		.loc 1 129 0
 1217 0204 0222     		movs	r2, #2
 1218 0206 4146     		mov	r1, r8
 1219 0208 2846     		mov	r0, r5
 1220 020a FFF7FEFF 		bl	chIQReadTimeout
 1221              	.LVL161:
 1222              		.loc 1 130 0
 1223 020e A0F10200 		sub	r0, r0, #2
 1224              	.LVL162:
 1225 0212 4342     		rsbs	r3, r0, #0
 1226 0214 43EB0001 		adc	r1, r3, r0
 1227 0218 0820     		movs	r0, #8
 1228              	.LVL163:
 1229 021a FFF7FEFF 		bl	_test_assert
 1230 021e 0028     		cmp	r0, #0
 1231 0220 40F09680 		bne	.L31
 1232              		.loc 1 131 0
 1233 0224 4146     		mov	r1, r8
 1234 0226 0222     		movs	r2, #2
 1235 0228 0346     		mov	r3, r0
 1236 022a 2846     		mov	r0, r5
 1237 022c FFF7FEFF 		bl	chIQReadTimeout
 1238              	.LVL164:
 1239              		.loc 1 132 0
 1240 0230 A0F10201 		sub	r1, r0, #2
 1241 0234 D1F10008 		rsbs	r8, r1, #0
 1242 0238 48EB0101 		adc	r1, r8, r1
 1243 023c 0920     		movs	r0, #9
 1244              	.LVL165:
 1245 023e FFF7FEFF 		bl	_test_assert
ARM GAS  /tmp/ccQeRi3A.s 			page 23


 1246 0242 8046     		mov	r8, r0
 1247 0244 0028     		cmp	r0, #0
 1248 0246 40F08380 		bne	.L31
 1249              	.LBB193:
 1250              		.loc 1 133 0
 1251 024a 2023     		movs	r3, #32
 1252              	.LVL166:
 1253              	@ 133 "../../ChibiOS/test/testqueues.c" 1
 1254 024c 83F31188 		msr     BASEPRI, r3
 1255              	@ 0 "" 2
 1256              	.LVL167:
 1257              		.thumb
 1258              	.LBE193:
 1259 0250 FFF7FEFF 		bl	dbg_check_lock
 1260              	.LVL168:
 1261 0254 AE68     		ldr	r6, [r5, #8]
 1262 0256 0A20     		movs	r0, #10
 1263 0258 D6F10101 		rsbs	r1, r6, #1
 1264 025c 38BF     		it	cc
 1265 025e 0021     		movcc	r1, #0
 1266 0260 FFF7FEFF 		bl	_test_assert
 1267 0264 0646     		mov	r6, r0
 1268 0266 0028     		cmp	r0, #0
 1269 0268 40F08C80 		bne	.L48
 1270 026c FFF7FEFF 		bl	dbg_check_unlock
 1271              	.LBB194:
 1272 0270 3346     		mov	r3, r6
 1273              	.LVL169:
 1274              	@ 133 "../../ChibiOS/test/testqueues.c" 1
 1275 0272 83F31188 		msr     BASEPRI, r3
 1276              	@ 0 "" 2
 1277              	.LVL170:
 1278              		.thumb
 1279              	.LBE194:
 1280              	.LBB195:
 1281              		.loc 1 136 0
 1282 0276 2023     		movs	r3, #32
 1283              	.LVL171:
 1284              	@ 136 "../../ChibiOS/test/testqueues.c" 1
 1285 0278 83F31188 		msr     BASEPRI, r3
 1286              	@ 0 "" 2
 1287              	.LVL172:
 1288              		.thumb
 1289              	.LBE195:
 1290 027c FFF7FEFF 		bl	dbg_check_lock
 1291              	.LVL173:
 1292              		.loc 1 137 0
 1293 0280 3146     		mov	r1, r6
 1294 0282 2846     		mov	r0, r5
 1295 0284 FFF7FEFF 		bl	chIQPutI
 1296              		.loc 1 138 0
 1297 0288 2846     		mov	r0, r5
 1298 028a FFF7FEFF 		bl	chIQResetI
 1299              		.loc 1 139 0
 1300 028e FFF7FEFF 		bl	dbg_check_unlock
 1301              	.LBB196:
 1302 0292 3346     		mov	r3, r6
ARM GAS  /tmp/ccQeRi3A.s 			page 24


 1303              	.LVL174:
 1304              	@ 139 "../../ChibiOS/test/testqueues.c" 1
 1305 0294 83F31188 		msr     BASEPRI, r3
 1306              	@ 0 "" 2
 1307              	.LVL175:
 1308              		.thumb
 1309              	.LBE196:
 1310              	.LBB197:
 1311              		.loc 1 140 0
 1312 0298 2023     		movs	r3, #32
 1313              	.LVL176:
 1314              	@ 140 "../../ChibiOS/test/testqueues.c" 1
 1315 029a 83F31188 		msr     BASEPRI, r3
 1316              	@ 0 "" 2
 1317              	.LVL177:
 1318              		.thumb
 1319              	.LBE197:
 1320 029e FFF7FEFF 		bl	dbg_check_lock
 1321              	.LVL178:
 1322 02a2 AA68     		ldr	r2, [r5, #8]
 1323 02a4 0B20     		movs	r0, #11
 1324 02a6 D2F10101 		rsbs	r1, r2, #1
 1325 02aa 38BF     		it	cc
 1326 02ac 0021     		movcc	r1, #0
 1327 02ae FFF7FEFF 		bl	_test_assert
 1328 02b2 0028     		cmp	r0, #0
 1329 02b4 47D1     		bne	.L43
 1330 02b6 FFF7FEFF 		bl	dbg_check_unlock
 1331              	.LBB198:
 1332 02ba 0023     		movs	r3, #0
 1333              	.LVL179:
 1334              	@ 140 "../../ChibiOS/test/testqueues.c" 1
 1335 02bc 83F31188 		msr     BASEPRI, r3
 1336              	@ 0 "" 2
 1337              	.LVL180:
 1338              		.thumb
 1339              	.LBE198:
 1340              		.loc 1 141 0
 1341 02c0 1B48     		ldr	r0, .L50+12
 1342 02c2 1D46     		mov	r5, r3
 1343 02c4 8169     		ldr	r1, [r0, #24]
 1344 02c6 3868     		ldr	r0, [r7, #0]
 1345 02c8 8B68     		ldr	r3, [r1, #8]
 1346              	.LVL181:
 1347 02ca 4FF40471 		mov	r1, #528
 1348 02ce 5A1C     		adds	r2, r3, #1
 1349 02d0 184B     		ldr	r3, .L50+16
 1350 02d2 0095     		str	r5, [sp, #0]
 1351 02d4 FFF7FEFF 		bl	chThdCreateStatic
 1352 02d8 174A     		ldr	r2, .L50+20
 1353              	.LBB199:
 1354              		.loc 1 142 0
 1355 02da 2023     		movs	r3, #32
 1356              	.LVL182:
 1357              	.LBE199:
 1358              		.loc 1 141 0
 1359 02dc 1060     		str	r0, [r2, #0]
ARM GAS  /tmp/ccQeRi3A.s 			page 25


 1360              	.LBB200:
 1361              		.loc 1 142 0
 1362              	@ 142 "../../ChibiOS/test/testqueues.c" 1
 1363 02de 83F31188 		msr     BASEPRI, r3
 1364              	@ 0 "" 2
 1365              	.LVL183:
 1366              		.thumb
 1367              	.LBE200:
 1368 02e2 FFF7FEFF 		bl	dbg_check_lock
 1369              	.LVL184:
 1370 02e6 A168     		ldr	r1, [r4, #8]
 1371 02e8 0C20     		movs	r0, #12
 1372 02ea 4B1B     		subs	r3, r1, r5
 1373 02ec 5C42     		rsbs	r4, r3, #0
 1374 02ee 44EB0301 		adc	r1, r4, r3
 1375 02f2 FFF7FEFF 		bl	_test_assert
 1376 02f6 0446     		mov	r4, r0
 1377 02f8 0028     		cmp	r0, #0
 1378 02fa 49D1     		bne	.L49
 1379 02fc FFF7FEFF 		bl	dbg_check_unlock
 1380              	.LBB201:
 1381 0300 2346     		mov	r3, r4
 1382              	.LVL185:
 1383              	@ 142 "../../ChibiOS/test/testqueues.c" 1
 1384 0302 83F31188 		msr     BASEPRI, r3
 1385              	@ 0 "" 2
 1386              	.LVL186:
 1387              		.thumb
 1388              	.LBE201:
 1389              		.loc 1 143 0
 1390 0306 FFF7FEFF 		bl	test_wait_threads
 1391              	.LVL187:
 1392              		.loc 1 146 0
 1393 030a 0A21     		movs	r1, #10
 1394 030c 0548     		ldr	r0, .L50
 1395 030e FFF7FEFF 		bl	chIQGetTimeout
 1396 0312 A0F1FF3C 		sub	ip, r0, #-1
 1397 0316 DCF10002 		rsbs	r2, ip, #0
 1398 031a 42EB0C01 		adc	r1, r2, ip
 1399 031e 0D20     		movs	r0, #13
 1400 0320 0CE0     		b	.L51
 1401              	.L52:
 1402 0322 00BF     		.align	2
 1403              	.L50:
 1404 0324 00000000 		.word	.LANCHOR1
 1405 0328 00000000 		.word	.LC0
 1406 032c 00000000 		.word	wa
 1407 0330 00000000 		.word	rlist
 1408 0334 00000000 		.word	thread1
 1409 0338 00000000 		.word	threads
 1410              	.L51:
 1411              	.LBE177:
 1412              	.LBE176:
 1413              		.loc 1 147 0
 1414 033c 03B0     		add	sp, sp, #12
 1415 033e BDE8F043 		pop	{r4, r5, r6, r7, r8, r9, lr}
 1416              	.LBB210:
ARM GAS  /tmp/ccQeRi3A.s 			page 26


 1417              	.LBB208:
 1418              		.loc 1 146 0
 1419 0342 FFF7FEBF 		b	_test_assert
 1420              	.LVL188:
 1421              	.L43:
 1422              		.loc 1 140 0
 1423 0346 FFF7FEFF 		bl	dbg_check_unlock
 1424              	.LBB202:
 1425 034a 0023     		movs	r3, #0
 1426              	.LVL189:
 1427              	@ 140 "../../ChibiOS/test/testqueues.c" 1
 1428 034c 83F31188 		msr     BASEPRI, r3
 1429              	@ 0 "" 2
 1430              	.LVL190:
 1431              		.thumb
 1432              	.L31:
 1433              	.LBE202:
 1434              	.LBE208:
 1435              	.LBE210:
 1436              		.loc 1 147 0
 1437 0350 03B0     		add	sp, sp, #12
 1438 0352 BDE8F083 		pop	{r4, r5, r6, r7, r8, r9, pc}
 1439              	.LVL191:
 1440              	.L46:
 1441              	.LBB211:
 1442              	.LBB209:
 1443              		.loc 1 108 0
 1444 0356 FFF7FEFF 		bl	dbg_check_unlock
 1445              	.LBB203:
 1446 035a 3B46     		mov	r3, r7
 1447              	@ 108 "../../ChibiOS/test/testqueues.c" 1
 1448 035c 83F31188 		msr     BASEPRI, r3
 1449              	@ 0 "" 2
 1450              	.LVL192:
 1451              		.thumb
 1452 0360 F6E7     		b	.L31
 1453              	.LVL193:
 1454              	.L45:
 1455              	.LBE203:
 1456              		.loc 1 103 0
 1457 0362 FFF7FEFF 		bl	dbg_check_unlock
 1458              	.LBB204:
 1459 0366 3346     		mov	r3, r6
 1460              	@ 103 "../../ChibiOS/test/testqueues.c" 1
 1461 0368 83F31188 		msr     BASEPRI, r3
 1462              	@ 0 "" 2
 1463              	.LVL194:
 1464              		.thumb
 1465 036c F0E7     		b	.L31
 1466              	.LVL195:
 1467              	.L44:
 1468              	.LBE204:
 1469              		.loc 1 90 0
 1470 036e A068     		ldr	r0, [r4, #8]
 1471 0370 011C     		adds	r1, r0, #0
 1472 0372 18BF     		it	ne
 1473 0374 0121     		movne	r1, #1
ARM GAS  /tmp/ccQeRi3A.s 			page 27


 1474 0376 82E6     		b	.L34
 1475              	.L47:
 1476              		.loc 1 120 0
 1477 0378 FFF7FEFF 		bl	dbg_check_unlock
 1478              	.LBB205:
 1479 037c 4B46     		mov	r3, r9
 1480              	@ 120 "../../ChibiOS/test/testqueues.c" 1
 1481 037e 83F31188 		msr     BASEPRI, r3
 1482              	@ 0 "" 2
 1483              	.LVL196:
 1484              		.thumb
 1485 0382 E5E7     		b	.L31
 1486              	.LVL197:
 1487              	.L48:
 1488              	.LBE205:
 1489              		.loc 1 133 0
 1490 0384 FFF7FEFF 		bl	dbg_check_unlock
 1491              	.LBB206:
 1492 0388 4346     		mov	r3, r8
 1493              	@ 133 "../../ChibiOS/test/testqueues.c" 1
 1494 038a 83F31188 		msr     BASEPRI, r3
 1495              	@ 0 "" 2
 1496              	.LVL198:
 1497              		.thumb
 1498 038e DFE7     		b	.L31
 1499              	.LVL199:
 1500              	.L49:
 1501              	.LBE206:
 1502              		.loc 1 142 0
 1503 0390 FFF7FEFF 		bl	dbg_check_unlock
 1504              	.LBB207:
 1505 0394 2B46     		mov	r3, r5
 1506              	@ 142 "../../ChibiOS/test/testqueues.c" 1
 1507 0396 83F31188 		msr     BASEPRI, r3
 1508              	@ 0 "" 2
 1509              	.LVL200:
 1510              		.thumb
 1511 039a D9E7     		b	.L31
 1512              	.LBE207:
 1513              	.LBE209:
 1514              	.LBE211:
 1515              		.cfi_endproc
 1516              	.LFE10:
 1517              		.size	queues1_execute, .-queues1_execute
 1518              		.global	patternqueues
 1519              		.global	testqueues2
 1520              		.global	testqueues1
 1521 039c AFF30080 		.section	.rodata.testqueues1,"a",%progbits
 1522              		.align	2
 1523              		.type	testqueues1, %object
 1524              		.size	testqueues1, 16
 1525              	testqueues1:
 1526 0000 20000000 		.word	.LC2
 1527 0004 00000000 		.word	queues1_setup
 1528 0008 00000000 		.word	0
 1529 000c 00000000 		.word	queues1_execute
 1530              		.section	.rodata.testqueues2,"a",%progbits
ARM GAS  /tmp/ccQeRi3A.s 			page 28


 1531              		.align	2
 1532              		.type	testqueues2, %object
 1533              		.size	testqueues2, 16
 1534              	testqueues2:
 1535 0000 08000000 		.word	.LC1
 1536 0004 00000000 		.word	queues2_setup
 1537 0008 00000000 		.word	0
 1538 000c 00000000 		.word	queues2_execute
 1539              		.section	.rodata.str1.4,"aMS",%progbits,1
 1540              		.align	2
 1541              	.LC0:
 1542 0000 41424344 		.ascii	"ABCD\000"
 1542      00
 1543 0005 000000   		.space	3
 1544              	.LC1:
 1545 0008 51756575 		.ascii	"Queues, output queues\000"
 1545      65732C20 
 1545      6F757470 
 1545      75742071 
 1545      75657565 
 1546 001e 0000     		.space	2
 1547              	.LC2:
 1548 0020 51756575 		.ascii	"Queues, input queues\000"
 1548      65732C20 
 1548      696E7075 
 1548      74207175 
 1548      65756573 
 1549 0035 000000   		.section	.rodata.patternqueues,"a",%progbits
 1550              		.align	2
 1551              		.type	patternqueues, %object
 1552              		.size	patternqueues, 12
 1553              	patternqueues:
 1554 0000 00000000 		.word	testqueues1
 1555 0004 00000000 		.word	testqueues2
 1556 0008 00000000 		.word	0
 1557              		.section	.data.oq,"aw",%progbits
 1558              		.align	2
 1559              		.set	.LANCHOR0,. + 0
 1560              		.type	oq, %object
 1561              		.size	oq, 36
 1562              	oq:
 1563 0000 00000000 		.word	oq
 1564 0004 00000000 		.word	oq
 1565 0008 04000000 		.word	4
 1566 000c 10020000 		.word	test+528
 1567 0010 14020000 		.word	test+532
 1568 0014 10020000 		.word	test+528
 1569 0018 10020000 		.word	test+528
 1570 001c 00000000 		.word	notify
 1571 0020 00000000 		.word	0
 1572              		.section	.data.iq,"aw",%progbits
 1573              		.align	2
 1574              		.set	.LANCHOR1,. + 0
 1575              		.type	iq, %object
 1576              		.size	iq, 36
 1577              	iq:
 1578 0000 00000000 		.word	iq
ARM GAS  /tmp/ccQeRi3A.s 			page 29


 1579 0004 00000000 		.word	iq
 1580 0008 00000000 		.word	0
 1581 000c 00000000 		.word	test
 1582 0010 04000000 		.word	test+4
 1583 0014 00000000 		.word	test
 1584 0018 00000000 		.word	test
 1585 001c 00000000 		.word	notify
 1586 0020 00000000 		.word	0
 1587              		.text
 1588              	.Letext0:
 1589              		.file 2 "/home/tino/ChibiStudio/tools/GNU Tools ARM Embedded/4.6 2012q2/bin/../lib/gcc/arm-none-ea
 1590              		.file 3 "/home/tino/ChibiStudio/tools/GNU Tools ARM Embedded/4.6 2012q2/bin/../lib/gcc/arm-none-ea
 1591              		.file 4 "../../ChibiOS/os/ports/GCC/ARMCMx/chtypes.h"
 1592              		.file 5 "../../ChibiOS/os/kernel/include/chlists.h"
 1593              		.file 6 "../../ChibiOS/os/kernel/include/chthreads.h"
 1594              		.file 7 "../../ChibiOS/os/ports/GCC/ARMCMx/chcore_v7m.h"
 1595              		.file 8 "../../ChibiOS/os/kernel/include/chschd.h"
 1596              		.file 9 "../../ChibiOS/os/kernel/include/chmtx.h"
 1597              		.file 10 "../../ChibiOS/os/kernel/include/chqueues.h"
 1598              		.file 11 "../../ChibiOS/test/test.h"