ARM GAS  /tmp/ccoPtKbb.s 			page 1


   1              		.syntax unified
   2              		.cpu cortex-m3
   3              		.fpu softvfp
   4              		.eabi_attribute 20, 1
   5              		.eabi_attribute 21, 1
   6              		.eabi_attribute 23, 3
   7              		.eabi_attribute 24, 1
   8              		.eabi_attribute 25, 1
   9              		.eabi_attribute 26, 1
  10              		.eabi_attribute 30, 2
  11              		.eabi_attribute 34, 1
  12              		.eabi_attribute 18, 4
  13              		.thumb
  14              		.file	"testmtx.c"
  15              		.text
  16              	.Ltext0:
  17              		.cfi_sections	.debug_frame
  18              		.section	.text.mtx8_execute,"ax",%progbits
  19              		.align	2
  20              		.p2align 4,,15
  21              		.thumb
  22              		.thumb_func
  23              		.type	mtx8_execute, %function
  24              	mtx8_execute:
  25              	.LFB36:
  26              		.file 1 "../../ChibiOS/test/testmtx.c"
  27              		.loc 1 595 0
  28              		.cfi_startproc
  29              		@ args = 0, pretend = 0, frame = 0
  30              		@ frame_needed = 0, uses_anonymous_args = 0
  31              		.loc 1 597 0
  32 0000 40F20001 		movw	r1, #:lower16:rlist
  33              		.loc 1 595 0
  34 0004 F0B5     		push	{r4, r5, r6, r7, lr}
  35              	.LCFI0:
  36              		.cfi_def_cfa_offset 20
  37              		.cfi_offset 14, -4
  38              		.cfi_offset 7, -8
  39              		.cfi_offset 6, -12
  40              		.cfi_offset 5, -16
  41              		.cfi_offset 4, -20
  42              		.loc 1 597 0
  43 0006 C0F20001 		movt	r1, #:upper16:rlist
  44 000a 8869     		ldr	r0, [r1, #24]
  45              		.loc 1 598 0
  46 000c 40F20005 		movw	r5, #:lower16:wa
  47              		.loc 1 597 0
  48 0010 8668     		ldr	r6, [r0, #8]
  49              	.LVL0:
  50              		.loc 1 598 0
  51 0012 C0F20005 		movt	r5, #:upper16:wa
  52 0016 40F20003 		movw	r3, #:lower16:thread11
  53 001a 40F20004 		movw	r4, #:lower16:.LC0
  54              		.loc 1 595 0
  55 001e 83B0     		sub	sp, sp, #12
  56              	.LCFI1:
  57              		.cfi_def_cfa_offset 32
ARM GAS  /tmp/ccoPtKbb.s 			page 2


  58              		.loc 1 598 0
  59 0020 721C     		adds	r2, r6, #1
  60 0022 2868     		ldr	r0, [r5, #0]
  61 0024 C0F20003 		movt	r3, #:upper16:thread11
  62 0028 4FF40471 		mov	r1, #528
  63              	.LVL1:
  64 002c C0F20004 		movt	r4, #:upper16:.LC0
  65 0030 0094     		str	r4, [sp, #0]
  66 0032 FFF7FEFF 		bl	chThdCreateStatic
  67              	.LVL2:
  68 0036 40F20004 		movw	r4, #:lower16:threads
  69 003a C0F20004 		movt	r4, #:upper16:threads
  70 003e 0746     		mov	r7, r0
  71 0040 2760     		str	r7, [r4, #0]
  72              		.loc 1 599 0
  73 0042 40F20003 		movw	r3, #:lower16:thread10
  74 0046 40F20007 		movw	r7, #:lower16:.LC1
  75 004a B21C     		adds	r2, r6, #2
  76 004c 6868     		ldr	r0, [r5, #4]
  77 004e C0F20003 		movt	r3, #:upper16:thread10
  78 0052 4FF40471 		mov	r1, #528
  79 0056 C0F20007 		movt	r7, #:upper16:.LC1
  80 005a 0097     		str	r7, [sp, #0]
  81 005c FFF7FEFF 		bl	chThdCreateStatic
  82              		.loc 1 600 0
  83 0060 F21C     		adds	r2, r6, #3
  84              		.loc 1 599 0
  85 0062 0746     		mov	r7, r0
  86              		.loc 1 600 0
  87 0064 40F20003 		movw	r3, #:lower16:thread12
  88 0068 40F20006 		movw	r6, #:lower16:.LC2
  89              	.LVL3:
  90 006c 4FF40471 		mov	r1, #528
  91              		.loc 1 599 0
  92 0070 6760     		str	r7, [r4, #4]
  93              		.loc 1 600 0
  94 0072 A868     		ldr	r0, [r5, #8]
  95 0074 C0F20003 		movt	r3, #:upper16:thread12
  96 0078 C0F20006 		movt	r6, #:upper16:.LC2
  97 007c 0096     		str	r6, [sp, #0]
  98 007e FFF7FEFF 		bl	chThdCreateStatic
  99              	.LVL4:
 100              		.loc 1 601 0
 101 0082 40F20005 		movw	r5, #:lower16:.LANCHOR0
 102              		.loc 1 600 0
 103 0086 0346     		mov	r3, r0
 104              		.loc 1 601 0
 105 0088 C0F20005 		movt	r5, #:upper16:.LANCHOR0
 106              		.loc 1 600 0
 107 008c A360     		str	r3, [r4, #8]
 108              		.loc 1 601 0
 109 008e 2846     		mov	r0, r5
 110 0090 FFF7FEFF 		bl	chCondSignal
 111              		.loc 1 602 0
 112 0094 2846     		mov	r0, r5
 113 0096 FFF7FEFF 		bl	chCondSignal
 114              		.loc 1 603 0
ARM GAS  /tmp/ccoPtKbb.s 			page 3


 115 009a FFF7FEFF 		bl	test_wait_threads
 116              		.loc 1 604 0
 117 009e 40F20001 		movw	r1, #:lower16:.LC3
 118 00a2 C0F20001 		movt	r1, #:upper16:.LC3
 119 00a6 0120     		movs	r0, #1
 120              		.loc 1 605 0
 121 00a8 03B0     		add	sp, sp, #12
 122 00aa BDE8F040 		pop	{r4, r5, r6, r7, lr}
 123              		.loc 1 604 0
 124 00ae FFF7FEBF 		b	_test_assert_sequence
 125              		.cfi_endproc
 126              	.LFE36:
 127              		.size	mtx8_execute, .-mtx8_execute
 128 00b2 00BFAFF3 		.section	.text.thread12,"ax",%progbits
 128      0080AFF3 
 128      0080AFF3 
 128      0080
 129              		.align	2
 130              		.p2align 4,,15
 131              		.thumb
 132              		.thumb_func
 133              		.type	thread12, %function
 134              	thread12:
 135              	.LFB35:
 136              		.loc 1 587 0
 137              		.cfi_startproc
 138              		@ args = 0, pretend = 0, frame = 0
 139              		@ frame_needed = 0, uses_anonymous_args = 0
 140              	.LVL5:
 141              		.loc 1 589 0
 142 0000 40F20003 		movw	r3, #:lower16:.LANCHOR1
 143 0004 C0F20003 		movt	r3, #:upper16:.LANCHOR1
 144              		.loc 1 587 0
 145 0008 10B5     		push	{r4, lr}
 146              	.LCFI2:
 147              		.cfi_def_cfa_offset 8
 148              		.cfi_offset 14, -4
 149              		.cfi_offset 4, -8
 150              		.loc 1 587 0
 151 000a 0446     		mov	r4, r0
 152              		.loc 1 589 0
 153 000c 1846     		mov	r0, r3
 154              	.LVL6:
 155 000e FFF7FEFF 		bl	chMtxLock
 156              		.loc 1 590 0
 157 0012 2078     		ldrb	r0, [r4, #0]	@ zero_extendqisi2
 158 0014 FFF7FEFF 		bl	test_emit_token
 159              		.loc 1 591 0
 160 0018 FFF7FEFF 		bl	chMtxUnlock
 161              		.loc 1 593 0
 162 001c 0020     		movs	r0, #0
 163 001e 10BD     		pop	{r4, pc}
 164              		.cfi_endproc
 165              	.LFE35:
 166              		.size	thread12, .-thread12
 167              		.section	.text.thread1,"ax",%progbits
 168              		.align	2
ARM GAS  /tmp/ccoPtKbb.s 			page 4


 169              		.p2align 4,,15
 170              		.thumb
 171              		.thumb_func
 172              		.type	thread1, %function
 173              	thread1:
 174              	.LFB8:
 175              		.loc 1 89 0
 176              		.cfi_startproc
 177              		@ args = 0, pretend = 0, frame = 0
 178              		@ frame_needed = 0, uses_anonymous_args = 0
 179              	.LVL7:
 180              		.loc 1 91 0
 181 0000 40F20003 		movw	r3, #:lower16:.LANCHOR2
 182 0004 C0F20003 		movt	r3, #:upper16:.LANCHOR2
 183              		.loc 1 89 0
 184 0008 10B5     		push	{r4, lr}
 185              	.LCFI3:
 186              		.cfi_def_cfa_offset 8
 187              		.cfi_offset 14, -4
 188              		.cfi_offset 4, -8
 189              		.loc 1 89 0
 190 000a 0446     		mov	r4, r0
 191              		.loc 1 91 0
 192 000c 1846     		mov	r0, r3
 193              	.LVL8:
 194 000e FFF7FEFF 		bl	chMtxLock
 195              		.loc 1 92 0
 196 0012 2078     		ldrb	r0, [r4, #0]	@ zero_extendqisi2
 197 0014 FFF7FEFF 		bl	test_emit_token
 198              		.loc 1 93 0
 199 0018 FFF7FEFF 		bl	chMtxUnlock
 200              		.loc 1 95 0
 201 001c 0020     		movs	r0, #0
 202 001e 10BD     		pop	{r4, pc}
 203              		.cfi_endproc
 204              	.LFE8:
 205              		.size	thread1, .-thread1
 206              		.section	.text.thread10,"ax",%progbits
 207              		.align	2
 208              		.p2align 4,,15
 209              		.thumb
 210              		.thumb_func
 211              		.type	thread10, %function
 212              	thread10:
 213              	.LFB29:
 214              		.loc 1 484 0
 215              		.cfi_startproc
 216              		@ args = 0, pretend = 0, frame = 0
 217              		@ frame_needed = 0, uses_anonymous_args = 0
 218              	.LVL9:
 219              		.loc 1 486 0
 220 0000 40F20003 		movw	r3, #:lower16:.LANCHOR2
 221 0004 C0F20003 		movt	r3, #:upper16:.LANCHOR2
 222              		.loc 1 484 0
 223 0008 10B5     		push	{r4, lr}
 224              	.LCFI4:
 225              		.cfi_def_cfa_offset 8
ARM GAS  /tmp/ccoPtKbb.s 			page 5


 226              		.cfi_offset 14, -4
 227              		.cfi_offset 4, -8
 228              		.loc 1 484 0
 229 000a 0446     		mov	r4, r0
 230              		.loc 1 486 0
 231 000c 1846     		mov	r0, r3
 232              	.LVL10:
 233 000e FFF7FEFF 		bl	chMtxLock
 234              		.loc 1 487 0
 235 0012 40F20000 		movw	r0, #:lower16:.LANCHOR0
 236 0016 C0F20000 		movt	r0, #:upper16:.LANCHOR0
 237 001a FFF7FEFF 		bl	chCondWait
 238              		.loc 1 488 0
 239 001e 2078     		ldrb	r0, [r4, #0]	@ zero_extendqisi2
 240 0020 FFF7FEFF 		bl	test_emit_token
 241              		.loc 1 489 0
 242 0024 FFF7FEFF 		bl	chMtxUnlock
 243              		.loc 1 491 0
 244 0028 0020     		movs	r0, #0
 245 002a 10BD     		pop	{r4, pc}
 246              		.cfi_endproc
 247              	.LFE29:
 248              		.size	thread10, .-thread10
 249 002c AFF30080 		.section	.text.thread11,"ax",%progbits
 250              		.align	2
 251              		.p2align 4,,15
 252              		.thumb
 253              		.thumb_func
 254              		.type	thread11, %function
 255              	thread11:
 256              	.LFB34:
 257              		.loc 1 572 0
 258              		.cfi_startproc
 259              		@ args = 0, pretend = 0, frame = 0
 260              		@ frame_needed = 0, uses_anonymous_args = 0
 261              	.LVL11:
 262              		.loc 1 574 0
 263 0000 40F20003 		movw	r3, #:lower16:.LANCHOR1
 264 0004 C0F20003 		movt	r3, #:upper16:.LANCHOR1
 265              		.loc 1 572 0
 266 0008 10B5     		push	{r4, lr}
 267              	.LCFI5:
 268              		.cfi_def_cfa_offset 8
 269              		.cfi_offset 14, -4
 270              		.cfi_offset 4, -8
 271              		.loc 1 572 0
 272 000a 0446     		mov	r4, r0
 273              		.loc 1 574 0
 274 000c 1846     		mov	r0, r3
 275              	.LVL12:
 276 000e FFF7FEFF 		bl	chMtxLock
 277              		.loc 1 575 0
 278 0012 40F20000 		movw	r0, #:lower16:.LANCHOR2
 279 0016 C0F20000 		movt	r0, #:upper16:.LANCHOR2
 280 001a FFF7FEFF 		bl	chMtxLock
 281              		.loc 1 577 0
 282 001e 40F20000 		movw	r0, #:lower16:.LANCHOR0
ARM GAS  /tmp/ccoPtKbb.s 			page 6


 283 0022 4FF0FF31 		mov	r1, #-1
 284 0026 C0F20000 		movt	r0, #:upper16:.LANCHOR0
 285 002a FFF7FEFF 		bl	chCondWaitTimeout
 286              		.loc 1 581 0
 287 002e 2078     		ldrb	r0, [r4, #0]	@ zero_extendqisi2
 288 0030 FFF7FEFF 		bl	test_emit_token
 289              		.loc 1 582 0
 290 0034 FFF7FEFF 		bl	chMtxUnlock
 291              		.loc 1 583 0
 292 0038 FFF7FEFF 		bl	chMtxUnlock
 293              		.loc 1 585 0
 294 003c 0020     		movs	r0, #0
 295 003e 10BD     		pop	{r4, pc}
 296              		.cfi_endproc
 297              	.LFE34:
 298              		.size	thread11, .-thread11
 299              		.section	.text.mtx8_setup,"ax",%progbits
 300              		.align	2
 301              		.p2align 4,,15
 302              		.thumb
 303              		.thumb_func
 304              		.type	mtx8_setup, %function
 305              	mtx8_setup:
 306              	.LFB33:
 307              		.loc 1 565 0
 308              		.cfi_startproc
 309              		@ args = 0, pretend = 0, frame = 0
 310              		@ frame_needed = 0, uses_anonymous_args = 0
 311              		.loc 1 567 0
 312 0000 40F20000 		movw	r0, #:lower16:.LANCHOR0
 313              		.loc 1 565 0
 314 0004 08B5     		push	{r3, lr}
 315              	.LCFI6:
 316              		.cfi_def_cfa_offset 8
 317              		.cfi_offset 14, -4
 318              		.cfi_offset 3, -8
 319              		.loc 1 567 0
 320 0006 C0F20000 		movt	r0, #:upper16:.LANCHOR0
 321 000a FFF7FEFF 		bl	chCondInit
 322              		.loc 1 568 0
 323 000e 40F20000 		movw	r0, #:lower16:.LANCHOR2
 324 0012 C0F20000 		movt	r0, #:upper16:.LANCHOR2
 325 0016 FFF7FEFF 		bl	chMtxInit
 326              		.loc 1 569 0
 327 001a 40F20000 		movw	r0, #:lower16:.LANCHOR1
 328 001e C0F20000 		movt	r0, #:upper16:.LANCHOR1
 329              		.loc 1 570 0
 330 0022 BDE80840 		pop	{r3, lr}
 331              		.loc 1 569 0
 332 0026 FFF7FEBF 		b	chMtxInit
 333              		.cfi_endproc
 334              	.LFE33:
 335              		.size	mtx8_setup, .-mtx8_setup
 336 002a 00BFAFF3 		.section	.text.mtx7_setup,"ax",%progbits
 336      0080
 337              		.align	2
 338              		.p2align 4,,15
ARM GAS  /tmp/ccoPtKbb.s 			page 7


 339              		.thumb
 340              		.thumb_func
 341              		.type	mtx7_setup, %function
 342              	mtx7_setup:
 343              	.LFB31:
 344              		.loc 1 530 0
 345              		.cfi_startproc
 346              		@ args = 0, pretend = 0, frame = 0
 347              		@ frame_needed = 0, uses_anonymous_args = 0
 348              		.loc 1 532 0
 349 0000 40F20000 		movw	r0, #:lower16:.LANCHOR0
 350              		.loc 1 530 0
 351 0004 08B5     		push	{r3, lr}
 352              	.LCFI7:
 353              		.cfi_def_cfa_offset 8
 354              		.cfi_offset 14, -4
 355              		.cfi_offset 3, -8
 356              		.loc 1 532 0
 357 0006 C0F20000 		movt	r0, #:upper16:.LANCHOR0
 358 000a FFF7FEFF 		bl	chCondInit
 359              		.loc 1 533 0
 360 000e 40F20000 		movw	r0, #:lower16:.LANCHOR2
 361 0012 C0F20000 		movt	r0, #:upper16:.LANCHOR2
 362              		.loc 1 534 0
 363 0016 BDE80840 		pop	{r3, lr}
 364              		.loc 1 533 0
 365 001a FFF7FEBF 		b	chMtxInit
 366              		.cfi_endproc
 367              	.LFE31:
 368              		.size	mtx7_setup, .-mtx7_setup
 369 001e 00BF     		.section	.text.mtx6_setup,"ax",%progbits
 370              		.align	2
 371              		.p2align 4,,15
 372              		.thumb
 373              		.thumb_func
 374              		.type	mtx6_setup, %function
 375              	mtx6_setup:
 376              	.LFB28:
 377              		.loc 1 478 0
 378              		.cfi_startproc
 379              		@ args = 0, pretend = 0, frame = 0
 380              		@ frame_needed = 0, uses_anonymous_args = 0
 381              		.loc 1 480 0
 382 0000 40F20000 		movw	r0, #:lower16:.LANCHOR0
 383              		.loc 1 478 0
 384 0004 08B5     		push	{r3, lr}
 385              	.LCFI8:
 386              		.cfi_def_cfa_offset 8
 387              		.cfi_offset 14, -4
 388              		.cfi_offset 3, -8
 389              		.loc 1 480 0
 390 0006 C0F20000 		movt	r0, #:upper16:.LANCHOR0
 391 000a FFF7FEFF 		bl	chCondInit
 392              		.loc 1 481 0
 393 000e 40F20000 		movw	r0, #:lower16:.LANCHOR2
 394 0012 C0F20000 		movt	r0, #:upper16:.LANCHOR2
 395              		.loc 1 482 0
ARM GAS  /tmp/ccoPtKbb.s 			page 8


 396 0016 BDE80840 		pop	{r3, lr}
 397              		.loc 1 481 0
 398 001a FFF7FEBF 		b	chMtxInit
 399              		.cfi_endproc
 400              	.LFE28:
 401              		.size	mtx6_setup, .-mtx6_setup
 402 001e 00BF     		.section	.text.mtx5_setup,"ax",%progbits
 403              		.align	2
 404              		.p2align 4,,15
 405              		.thumb
 406              		.thumb_func
 407              		.type	mtx5_setup, %function
 408              	mtx5_setup:
 409              	.LFB26:
 410              		.loc 1 428 0
 411              		.cfi_startproc
 412              		@ args = 0, pretend = 0, frame = 0
 413              		@ frame_needed = 0, uses_anonymous_args = 0
 414              		@ link register save eliminated.
 415              		.loc 1 430 0
 416 0000 40F20000 		movw	r0, #:lower16:.LANCHOR2
 417 0004 C0F20000 		movt	r0, #:upper16:.LANCHOR2
 418              		.loc 1 431 0
 419              		.loc 1 430 0
 420 0008 FFF7FEBF 		b	chMtxInit
 421              		.cfi_endproc
 422              	.LFE26:
 423              		.size	mtx5_setup, .-mtx5_setup
 424 000c AFF30080 		.section	.text.mtx4_setup,"ax",%progbits
 425              		.align	2
 426              		.p2align 4,,15
 427              		.thumb
 428              		.thumb_func
 429              		.type	mtx4_setup, %function
 430              	mtx4_setup:
 431              	.LFB22:
 432              		.loc 1 341 0
 433              		.cfi_startproc
 434              		@ args = 0, pretend = 0, frame = 0
 435              		@ frame_needed = 0, uses_anonymous_args = 0
 436              		.loc 1 343 0
 437 0000 40F20000 		movw	r0, #:lower16:.LANCHOR2
 438              		.loc 1 341 0
 439 0004 08B5     		push	{r3, lr}
 440              	.LCFI9:
 441              		.cfi_def_cfa_offset 8
 442              		.cfi_offset 14, -4
 443              		.cfi_offset 3, -8
 444              		.loc 1 343 0
 445 0006 C0F20000 		movt	r0, #:upper16:.LANCHOR2
 446 000a FFF7FEFF 		bl	chMtxInit
 447              		.loc 1 344 0
 448 000e 40F20000 		movw	r0, #:lower16:.LANCHOR1
 449 0012 C0F20000 		movt	r0, #:upper16:.LANCHOR1
 450              		.loc 1 345 0
 451 0016 BDE80840 		pop	{r3, lr}
 452              		.loc 1 344 0
ARM GAS  /tmp/ccoPtKbb.s 			page 9


 453 001a FFF7FEBF 		b	chMtxInit
 454              		.cfi_endproc
 455              	.LFE22:
 456              		.size	mtx4_setup, .-mtx4_setup
 457 001e 00BF     		.section	.text.mtx3_setup,"ax",%progbits
 458              		.align	2
 459              		.p2align 4,,15
 460              		.thumb
 461              		.thumb_func
 462              		.type	mtx3_setup, %function
 463              	mtx3_setup:
 464              	.LFB15:
 465              		.loc 1 241 0
 466              		.cfi_startproc
 467              		@ args = 0, pretend = 0, frame = 0
 468              		@ frame_needed = 0, uses_anonymous_args = 0
 469              		.loc 1 243 0
 470 0000 40F20000 		movw	r0, #:lower16:.LANCHOR2
 471              		.loc 1 241 0
 472 0004 08B5     		push	{r3, lr}
 473              	.LCFI10:
 474              		.cfi_def_cfa_offset 8
 475              		.cfi_offset 14, -4
 476              		.cfi_offset 3, -8
 477              		.loc 1 243 0
 478 0006 C0F20000 		movt	r0, #:upper16:.LANCHOR2
 479 000a FFF7FEFF 		bl	chMtxInit
 480              		.loc 1 244 0
 481 000e 40F20000 		movw	r0, #:lower16:.LANCHOR1
 482 0012 C0F20000 		movt	r0, #:upper16:.LANCHOR1
 483              		.loc 1 245 0
 484 0016 BDE80840 		pop	{r3, lr}
 485              		.loc 1 244 0
 486 001a FFF7FEBF 		b	chMtxInit
 487              		.cfi_endproc
 488              	.LFE15:
 489              		.size	mtx3_setup, .-mtx3_setup
 490 001e 00BF     		.section	.text.mtx2_setup,"ax",%progbits
 491              		.align	2
 492              		.p2align 4,,15
 493              		.thumb
 494              		.thumb_func
 495              		.type	mtx2_setup, %function
 496              	mtx2_setup:
 497              	.LFB10:
 498              		.loc 1 151 0
 499              		.cfi_startproc
 500              		@ args = 0, pretend = 0, frame = 0
 501              		@ frame_needed = 0, uses_anonymous_args = 0
 502              		@ link register save eliminated.
 503              		.loc 1 153 0
 504 0000 40F20000 		movw	r0, #:lower16:.LANCHOR2
 505 0004 C0F20000 		movt	r0, #:upper16:.LANCHOR2
 506              		.loc 1 154 0
 507              		.loc 1 153 0
 508 0008 FFF7FEBF 		b	chMtxInit
 509              		.cfi_endproc
ARM GAS  /tmp/ccoPtKbb.s 			page 10


 510              	.LFE10:
 511              		.size	mtx2_setup, .-mtx2_setup
 512 000c AFF30080 		.section	.text.mtx1_setup,"ax",%progbits
 513              		.align	2
 514              		.p2align 4,,15
 515              		.thumb
 516              		.thumb_func
 517              		.type	mtx1_setup, %function
 518              	mtx1_setup:
 519              	.LFB7:
 520              		.loc 1 84 0
 521              		.cfi_startproc
 522              		@ args = 0, pretend = 0, frame = 0
 523              		@ frame_needed = 0, uses_anonymous_args = 0
 524              		@ link register save eliminated.
 525              		.loc 1 86 0
 526 0000 40F20000 		movw	r0, #:lower16:.LANCHOR2
 527 0004 C0F20000 		movt	r0, #:upper16:.LANCHOR2
 528              		.loc 1 87 0
 529              		.loc 1 86 0
 530 0008 FFF7FEBF 		b	chMtxInit
 531              		.cfi_endproc
 532              	.LFE7:
 533              		.size	mtx1_setup, .-mtx1_setup
 534 000c AFF30080 		.section	.text.mtx7_execute,"ax",%progbits
 535              		.align	2
 536              		.p2align 4,,15
 537              		.thumb
 538              		.thumb_func
 539              		.type	mtx7_execute, %function
 540              	mtx7_execute:
 541              	.LFB32:
 542              		.loc 1 536 0
 543              		.cfi_startproc
 544              		@ args = 0, pretend = 0, frame = 0
 545              		@ frame_needed = 0, uses_anonymous_args = 0
 546              		.loc 1 538 0
 547 0000 40F20001 		movw	r1, #:lower16:rlist
 548              		.loc 1 536 0
 549 0004 F0B5     		push	{r4, r5, r6, r7, lr}
 550              	.LCFI11:
 551              		.cfi_def_cfa_offset 20
 552              		.cfi_offset 14, -4
 553              		.cfi_offset 7, -8
 554              		.cfi_offset 6, -12
 555              		.cfi_offset 5, -16
 556              		.cfi_offset 4, -20
 557              		.loc 1 538 0
 558 0006 C0F20001 		movt	r1, #:upper16:rlist
 559 000a 8869     		ldr	r0, [r1, #24]
 560              		.loc 1 539 0
 561 000c 40F20006 		movw	r6, #:lower16:wa
 562              		.loc 1 538 0
 563 0010 8768     		ldr	r7, [r0, #8]
 564              	.LVL13:
 565              		.loc 1 539 0
 566 0012 40F20005 		movw	r5, #:lower16:thread10
ARM GAS  /tmp/ccoPtKbb.s 			page 11


 567 0016 C0F20006 		movt	r6, #:upper16:wa
 568 001a C0F20005 		movt	r5, #:upper16:thread10
 569 001e 40F20004 		movw	r4, #:lower16:.LC4
 570              		.loc 1 536 0
 571 0022 83B0     		sub	sp, sp, #12
 572              	.LCFI12:
 573              		.cfi_def_cfa_offset 32
 574              		.loc 1 539 0
 575 0024 7A1C     		adds	r2, r7, #1
 576 0026 2B46     		mov	r3, r5
 577 0028 3068     		ldr	r0, [r6, #0]
 578 002a 4FF40471 		mov	r1, #528
 579              	.LVL14:
 580 002e C0F20004 		movt	r4, #:upper16:.LC4
 581 0032 0094     		str	r4, [sp, #0]
 582 0034 FFF7FEFF 		bl	chThdCreateStatic
 583              	.LVL15:
 584 0038 40F20004 		movw	r4, #:lower16:threads
 585 003c C0F20004 		movt	r4, #:upper16:threads
 586 0040 8646     		mov	lr, r0
 587              		.loc 1 540 0
 588 0042 40F2000C 		movw	ip, #:lower16:.LC5
 589              		.loc 1 539 0
 590 0046 C4F800E0 		str	lr, [r4, #0]
 591              		.loc 1 540 0
 592 004a BA1C     		adds	r2, r7, #2
 593 004c 2B46     		mov	r3, r5
 594 004e C0F2000C 		movt	ip, #:upper16:.LC5
 595 0052 7068     		ldr	r0, [r6, #4]
 596 0054 4FF40471 		mov	r1, #528
 597 0058 CDF800C0 		str	ip, [sp, #0]
 598 005c FFF7FEFF 		bl	chThdCreateStatic
 599              		.loc 1 541 0
 600 0060 40F2000C 		movw	ip, #:lower16:.LC1
 601              		.loc 1 540 0
 602 0064 8646     		mov	lr, r0
 603 0066 C4F804E0 		str	lr, [r4, #4]
 604              		.loc 1 541 0
 605 006a FA1C     		adds	r2, r7, #3
 606 006c 2B46     		mov	r3, r5
 607 006e C0F2000C 		movt	ip, #:upper16:.LC1
 608 0072 B068     		ldr	r0, [r6, #8]
 609 0074 4FF40471 		mov	r1, #528
 610 0078 CDF800C0 		str	ip, [sp, #0]
 611 007c FFF7FEFF 		bl	chThdCreateStatic
 612              		.loc 1 542 0
 613 0080 40F2000C 		movw	ip, #:lower16:.LC2
 614              		.loc 1 541 0
 615 0084 8646     		mov	lr, r0
 616              		.loc 1 542 0
 617 0086 C0F2000C 		movt	ip, #:upper16:.LC2
 618              		.loc 1 541 0
 619 008a C4F808E0 		str	lr, [r4, #8]
 620              		.loc 1 542 0
 621 008e 3A1D     		adds	r2, r7, #4
 622 0090 2B46     		mov	r3, r5
 623 0092 F068     		ldr	r0, [r6, #12]
ARM GAS  /tmp/ccoPtKbb.s 			page 12


 624 0094 4FF40471 		mov	r1, #528
 625 0098 CDF800C0 		str	ip, [sp, #0]
 626 009c FFF7FEFF 		bl	chThdCreateStatic
 627              		.loc 1 543 0
 628 00a0 2B46     		mov	r3, r5
 629              		.loc 1 542 0
 630 00a2 8646     		mov	lr, r0
 631              		.loc 1 543 0
 632 00a4 40F20005 		movw	r5, #:lower16:.LC0
 633              		.loc 1 542 0
 634 00a8 C4F80CE0 		str	lr, [r4, #12]
 635              		.loc 1 543 0
 636 00ac 7A1D     		adds	r2, r7, #5
 637 00ae 4FF40471 		mov	r1, #528
 638 00b2 3069     		ldr	r0, [r6, #16]
 639 00b4 C0F20005 		movt	r5, #:upper16:.LC0
 640 00b8 0095     		str	r5, [sp, #0]
 641 00ba FFF7FEFF 		bl	chThdCreateStatic
 642 00be 0346     		mov	r3, r0
 643              		.loc 1 544 0
 644 00c0 40F20000 		movw	r0, #:lower16:.LANCHOR0
 645 00c4 C0F20000 		movt	r0, #:upper16:.LANCHOR0
 646              		.loc 1 543 0
 647 00c8 2361     		str	r3, [r4, #16]
 648              		.loc 1 544 0
 649 00ca FFF7FEFF 		bl	chCondBroadcast
 650              		.loc 1 545 0
 651 00ce FFF7FEFF 		bl	test_wait_threads
 652              		.loc 1 546 0
 653 00d2 40F20001 		movw	r1, #:lower16:.LC6
 654 00d6 C0F20001 		movt	r1, #:upper16:.LC6
 655 00da 0120     		movs	r0, #1
 656              		.loc 1 547 0
 657 00dc 03B0     		add	sp, sp, #12
 658 00de BDE8F040 		pop	{r4, r5, r6, r7, lr}
 659              		.loc 1 546 0
 660 00e2 FFF7FEBF 		b	_test_assert_sequence
 661              		.cfi_endproc
 662              	.LFE32:
 663              		.size	mtx7_execute, .-mtx7_execute
 664 00e6 00BFAFF3 		.section	.text.mtx6_execute,"ax",%progbits
 664      0080AFF3 
 664      0080
 665              		.align	2
 666              		.p2align 4,,15
 667              		.thumb
 668              		.thumb_func
 669              		.type	mtx6_execute, %function
 670              	mtx6_execute:
 671              	.LFB30:
 672              		.loc 1 493 0
 673              		.cfi_startproc
 674              		@ args = 0, pretend = 0, frame = 0
 675              		@ frame_needed = 0, uses_anonymous_args = 0
 676              		.loc 1 495 0
 677 0000 40F20000 		movw	r0, #:lower16:rlist
 678              		.loc 1 493 0
ARM GAS  /tmp/ccoPtKbb.s 			page 13


 679 0004 F0B5     		push	{r4, r5, r6, r7, lr}
 680              	.LCFI13:
 681              		.cfi_def_cfa_offset 20
 682              		.cfi_offset 14, -4
 683              		.cfi_offset 7, -8
 684              		.cfi_offset 6, -12
 685              		.cfi_offset 5, -16
 686              		.cfi_offset 4, -20
 687              		.loc 1 495 0
 688 0006 C0F20000 		movt	r0, #:upper16:rlist
 689 000a 8369     		ldr	r3, [r0, #24]
 690              		.loc 1 496 0
 691 000c 40F20006 		movw	r6, #:lower16:wa
 692              		.loc 1 495 0
 693 0010 9F68     		ldr	r7, [r3, #8]
 694              	.LVL16:
 695              		.loc 1 496 0
 696 0012 40F20005 		movw	r5, #:lower16:thread10
 697 0016 C0F20006 		movt	r6, #:upper16:wa
 698 001a C0F20005 		movt	r5, #:upper16:thread10
 699 001e 40F20004 		movw	r4, #:lower16:.LC4
 700              		.loc 1 493 0
 701 0022 83B0     		sub	sp, sp, #12
 702              	.LCFI14:
 703              		.cfi_def_cfa_offset 32
 704              		.loc 1 496 0
 705 0024 7A1C     		adds	r2, r7, #1
 706 0026 2B46     		mov	r3, r5
 707 0028 3068     		ldr	r0, [r6, #0]
 708              	.LVL17:
 709 002a 4FF40471 		mov	r1, #528
 710 002e C0F20004 		movt	r4, #:upper16:.LC4
 711 0032 0094     		str	r4, [sp, #0]
 712 0034 FFF7FEFF 		bl	chThdCreateStatic
 713              	.LVL18:
 714 0038 40F20004 		movw	r4, #:lower16:threads
 715 003c C0F20004 		movt	r4, #:upper16:threads
 716 0040 8646     		mov	lr, r0
 717              		.loc 1 497 0
 718 0042 40F2000C 		movw	ip, #:lower16:.LC5
 719              		.loc 1 496 0
 720 0046 C4F800E0 		str	lr, [r4, #0]
 721              		.loc 1 497 0
 722 004a BA1C     		adds	r2, r7, #2
 723 004c 2B46     		mov	r3, r5
 724 004e C0F2000C 		movt	ip, #:upper16:.LC5
 725 0052 7068     		ldr	r0, [r6, #4]
 726 0054 4FF40471 		mov	r1, #528
 727 0058 CDF800C0 		str	ip, [sp, #0]
 728 005c FFF7FEFF 		bl	chThdCreateStatic
 729              		.loc 1 498 0
 730 0060 40F2000C 		movw	ip, #:lower16:.LC1
 731              		.loc 1 497 0
 732 0064 8646     		mov	lr, r0
 733 0066 C4F804E0 		str	lr, [r4, #4]
 734              		.loc 1 498 0
 735 006a FA1C     		adds	r2, r7, #3
ARM GAS  /tmp/ccoPtKbb.s 			page 14


 736 006c 2B46     		mov	r3, r5
 737 006e C0F2000C 		movt	ip, #:upper16:.LC1
 738 0072 B068     		ldr	r0, [r6, #8]
 739 0074 4FF40471 		mov	r1, #528
 740 0078 CDF800C0 		str	ip, [sp, #0]
 741 007c FFF7FEFF 		bl	chThdCreateStatic
 742              		.loc 1 499 0
 743 0080 40F2000C 		movw	ip, #:lower16:.LC2
 744              		.loc 1 498 0
 745 0084 8646     		mov	lr, r0
 746 0086 C4F808E0 		str	lr, [r4, #8]
 747              		.loc 1 499 0
 748 008a C0F2000C 		movt	ip, #:upper16:.LC2
 749 008e 3A1D     		adds	r2, r7, #4
 750 0090 2B46     		mov	r3, r5
 751 0092 F068     		ldr	r0, [r6, #12]
 752 0094 4FF40471 		mov	r1, #528
 753 0098 CDF800C0 		str	ip, [sp, #0]
 754 009c FFF7FEFF 		bl	chThdCreateStatic
 755              		.loc 1 500 0
 756 00a0 2B46     		mov	r3, r5
 757              		.loc 1 499 0
 758 00a2 8646     		mov	lr, r0
 759              		.loc 1 500 0
 760 00a4 40F20005 		movw	r5, #:lower16:.LC0
 761              		.loc 1 499 0
 762 00a8 C4F80CE0 		str	lr, [r4, #12]
 763              		.loc 1 500 0
 764 00ac 3069     		ldr	r0, [r6, #16]
 765 00ae 7A1D     		adds	r2, r7, #5
 766 00b0 4FF40471 		mov	r1, #528
 767 00b4 C0F20005 		movt	r5, #:upper16:.LC0
 768 00b8 0095     		str	r5, [sp, #0]
 769 00ba FFF7FEFF 		bl	chThdCreateStatic
 770              	.LBB2:
 771              		.loc 1 501 0
 772 00be 2023     		movs	r3, #32
 773              	.LVL19:
 774              	.LBE2:
 775              		.loc 1 500 0
 776 00c0 2061     		str	r0, [r4, #16]
 777              	.LBB3:
 778              		.loc 1 501 0
 779              	@ 501 "../../ChibiOS/test/testmtx.c" 1
 780 00c2 83F31188 		msr     BASEPRI, r3
 781              	@ 0 "" 2
 782              	.LVL20:
 783              		.thumb
 784              	.LBE3:
 785              		.loc 1 502 0
 786 00c6 40F20004 		movw	r4, #:lower16:.LANCHOR0
 787 00ca C0F20004 		movt	r4, #:upper16:.LANCHOR0
 788              		.loc 1 501 0
 789 00ce FFF7FEFF 		bl	dbg_check_lock
 790              	.LVL21:
 791              		.loc 1 502 0
 792 00d2 2046     		mov	r0, r4
ARM GAS  /tmp/ccoPtKbb.s 			page 15


 793 00d4 FFF7FEFF 		bl	chCondSignalI
 794              		.loc 1 503 0
 795 00d8 2046     		mov	r0, r4
 796 00da FFF7FEFF 		bl	chCondSignalI
 797              		.loc 1 504 0
 798 00de 2046     		mov	r0, r4
 799 00e0 FFF7FEFF 		bl	chCondSignalI
 800              		.loc 1 505 0
 801 00e4 2046     		mov	r0, r4
 802 00e6 FFF7FEFF 		bl	chCondSignalI
 803              		.loc 1 506 0
 804 00ea 2046     		mov	r0, r4
 805 00ec FFF7FEFF 		bl	chCondSignalI
 806              		.loc 1 507 0
 807 00f0 FFF7FEFF 		bl	chSchRescheduleS
 808              		.loc 1 508 0
 809 00f4 FFF7FEFF 		bl	dbg_check_unlock
 810              	.LBB4:
 811 00f8 0023     		movs	r3, #0
 812              	.LVL22:
 813              	@ 508 "../../ChibiOS/test/testmtx.c" 1
 814 00fa 83F31188 		msr     BASEPRI, r3
 815              	@ 0 "" 2
 816              	.LVL23:
 817              		.thumb
 818              	.LBE4:
 819              		.loc 1 509 0
 820 00fe FFF7FEFF 		bl	test_wait_threads
 821              	.LVL24:
 822              		.loc 1 510 0
 823 0102 40F20001 		movw	r1, #:lower16:.LC6
 824 0106 C0F20001 		movt	r1, #:upper16:.LC6
 825 010a 0120     		movs	r0, #1
 826              		.loc 1 511 0
 827 010c 03B0     		add	sp, sp, #12
 828 010e BDE8F040 		pop	{r4, r5, r6, r7, lr}
 829              		.loc 1 510 0
 830 0112 FFF7FEBF 		b	_test_assert_sequence
 831              		.cfi_endproc
 832              	.LFE30:
 833              		.size	mtx6_execute, .-mtx6_execute
 834 0116 00BFAFF3 		.section	.text.mtx1_execute,"ax",%progbits
 834      0080AFF3 
 834      0080
 835              		.align	2
 836              		.p2align 4,,15
 837              		.thumb
 838              		.thumb_func
 839              		.type	mtx1_execute, %function
 840              	mtx1_execute:
 841              	.LFB9:
 842              		.loc 1 97 0
 843              		.cfi_startproc
 844              		@ args = 0, pretend = 0, frame = 0
 845              		@ frame_needed = 0, uses_anonymous_args = 0
 846 0000 F0B5     		push	{r4, r5, r6, r7, lr}
 847              	.LCFI15:
ARM GAS  /tmp/ccoPtKbb.s 			page 16


 848              		.cfi_def_cfa_offset 20
 849              		.cfi_offset 14, -4
 850              		.cfi_offset 7, -8
 851              		.cfi_offset 6, -12
 852              		.cfi_offset 5, -16
 853              		.cfi_offset 4, -20
 854              		.loc 1 99 0
 855 0002 304F     		ldr	r7, .L20
 856              		.loc 1 101 0
 857 0004 304E     		ldr	r6, .L20+4
 858              		.loc 1 99 0
 859 0006 BC69     		ldr	r4, [r7, #24]
 860              		.loc 1 97 0
 861 0008 83B0     		sub	sp, sp, #12
 862              	.LCFI16:
 863              		.cfi_def_cfa_offset 32
 864              		.loc 1 99 0
 865 000a A468     		ldr	r4, [r4, #8]
 866              	.LVL25:
 867              		.loc 1 100 0
 868 000c 2F48     		ldr	r0, .L20+8
 869              		.loc 1 101 0
 870 000e 304D     		ldr	r5, .L20+12
 871              		.loc 1 100 0
 872 0010 FFF7FEFF 		bl	chMtxLock
 873              	.LVL26:
 874              		.loc 1 101 0
 875 0014 621C     		adds	r2, r4, #1
 876 0016 3068     		ldr	r0, [r6, #0]
 877 0018 4FF40471 		mov	r1, #528
 878 001c 2D4B     		ldr	r3, .L20+16
 879 001e 0095     		str	r5, [sp, #0]
 880 0020 FFF7FEFF 		bl	chThdCreateStatic
 881 0024 2C4D     		ldr	r5, .L20+20
 882 0026 8646     		mov	lr, r0
 883              		.loc 1 102 0
 884 0028 DFF8B8C0 		ldr	ip, .L20+32
 885 002c A21C     		adds	r2, r4, #2
 886              		.loc 1 101 0
 887 002e C5F800E0 		str	lr, [r5, #0]
 888              		.loc 1 102 0
 889 0032 7068     		ldr	r0, [r6, #4]
 890 0034 4FF40471 		mov	r1, #528
 891 0038 264B     		ldr	r3, .L20+16
 892 003a CDF800C0 		str	ip, [sp, #0]
 893 003e FFF7FEFF 		bl	chThdCreateStatic
 894              		.loc 1 103 0
 895 0042 DFF8A4C0 		ldr	ip, .L20+36
 896              		.loc 1 102 0
 897 0046 8646     		mov	lr, r0
 898              		.loc 1 103 0
 899 0048 E21C     		adds	r2, r4, #3
 900              		.loc 1 102 0
 901 004a C5F804E0 		str	lr, [r5, #4]
 902              		.loc 1 103 0
 903 004e B068     		ldr	r0, [r6, #8]
 904 0050 4FF40471 		mov	r1, #528
ARM GAS  /tmp/ccoPtKbb.s 			page 17


 905 0054 1F4B     		ldr	r3, .L20+16
 906 0056 CDF800C0 		str	ip, [sp, #0]
 907 005a FFF7FEFF 		bl	chThdCreateStatic
 908              		.loc 1 104 0
 909 005e DFF88CC0 		ldr	ip, .L20+40
 910              		.loc 1 103 0
 911 0062 8646     		mov	lr, r0
 912              		.loc 1 104 0
 913 0064 221D     		adds	r2, r4, #4
 914              		.loc 1 103 0
 915 0066 C5F808E0 		str	lr, [r5, #8]
 916              		.loc 1 104 0
 917 006a F068     		ldr	r0, [r6, #12]
 918 006c 4FF40471 		mov	r1, #528
 919 0070 184B     		ldr	r3, .L20+16
 920 0072 CDF800C0 		str	ip, [sp, #0]
 921 0076 FFF7FEFF 		bl	chThdCreateStatic
 922 007a 8646     		mov	lr, r0
 923              		.loc 1 105 0
 924 007c 3069     		ldr	r0, [r6, #16]
 925 007e 174E     		ldr	r6, .L20+24
 926 0080 621D     		adds	r2, r4, #5
 927 0082 4FF40471 		mov	r1, #528
 928 0086 134B     		ldr	r3, .L20+16
 929              		.loc 1 104 0
 930 0088 C5F80CE0 		str	lr, [r5, #12]
 931              		.loc 1 105 0
 932 008c 0096     		str	r6, [sp, #0]
 933 008e FFF7FEFF 		bl	chThdCreateStatic
 934 0092 2861     		str	r0, [r5, #16]
 935              		.loc 1 106 0
 936 0094 FFF7FEFF 		bl	chMtxUnlock
 937              		.loc 1 107 0
 938 0098 FFF7FEFF 		bl	test_wait_threads
 939              		.loc 1 108 0
 940 009c B969     		ldr	r1, [r7, #24]
 941 009e 0120     		movs	r0, #1
 942 00a0 8A68     		ldr	r2, [r1, #8]
 943 00a2 131B     		subs	r3, r2, r4
 944 00a4 5942     		rsbs	r1, r3, #0
 945 00a6 41EB0301 		adc	r1, r1, r3
 946 00aa FFF7FEFF 		bl	_test_assert
 947 00ae 08B1     		cbz	r0, .L19
 948              		.loc 1 110 0
 949 00b0 03B0     		add	sp, sp, #12
 950 00b2 F0BD     		pop	{r4, r5, r6, r7, pc}
 951              	.L19:
 952              		.loc 1 109 0
 953 00b4 0A49     		ldr	r1, .L20+28
 954 00b6 0220     		movs	r0, #2
 955              		.loc 1 110 0
 956 00b8 03B0     		add	sp, sp, #12
 957 00ba BDE8F040 		pop	{r4, r5, r6, r7, lr}
 958              		.loc 1 109 0
 959 00be FFF7FEBF 		b	_test_assert_sequence
 960              	.L21:
 961 00c2 00BF     		.align	2
ARM GAS  /tmp/ccoPtKbb.s 			page 18


 962              	.L20:
 963 00c4 00000000 		.word	rlist
 964 00c8 00000000 		.word	wa
 965 00cc 00000000 		.word	.LANCHOR2
 966 00d0 10000000 		.word	.LC4
 967 00d4 00000000 		.word	thread1
 968 00d8 00000000 		.word	threads
 969 00dc 00000000 		.word	.LC0
 970 00e0 18000000 		.word	.LC6
 971 00e4 14000000 		.word	.LC5
 972 00e8 04000000 		.word	.LC1
 973 00ec 08000000 		.word	.LC2
 974              		.cfi_endproc
 975              	.LFE9:
 976              		.size	mtx1_execute, .-mtx1_execute
 977              		.section	.text.mtx5_execute,"ax",%progbits
 978              		.align	2
 979              		.p2align 4,,15
 980              		.thumb
 981              		.thumb_func
 982              		.type	mtx5_execute, %function
 983              	mtx5_execute:
 984              	.LFB27:
 985              		.loc 1 433 0
 986              		.cfi_startproc
 987              		@ args = 0, pretend = 0, frame = 0
 988              		@ frame_needed = 0, uses_anonymous_args = 0
 989 0000 F8B5     		push	{r3, r4, r5, r6, r7, lr}
 990              	.LCFI17:
 991              		.cfi_def_cfa_offset 24
 992              		.cfi_offset 14, -4
 993              		.cfi_offset 7, -8
 994              		.cfi_offset 6, -12
 995              		.cfi_offset 5, -16
 996              		.cfi_offset 4, -20
 997              		.cfi_offset 3, -24
 998              		.loc 1 437 0
 999 0002 2F4D     		ldr	r5, .L25
 1000              		.loc 1 439 0
 1001 0004 2F4C     		ldr	r4, .L25+4
 1002              		.loc 1 437 0
 1003 0006 AB69     		ldr	r3, [r5, #24]
 1004              		.loc 1 439 0
 1005 0008 2046     		mov	r0, r4
 1006              		.loc 1 437 0
 1007 000a 9E68     		ldr	r6, [r3, #8]
 1008              	.LVL27:
 1009              		.loc 1 439 0
 1010 000c FFF7FEFF 		bl	chMtxTryLock
 1011              	.LVL28:
 1012 0010 0146     		mov	r1, r0
 1013              	.LVL29:
 1014              		.loc 1 440 0
 1015 0012 0120     		movs	r0, #1
 1016              	.LVL30:
 1017 0014 FFF7FEFF 		bl	_test_assert
 1018              	.LVL31:
ARM GAS  /tmp/ccoPtKbb.s 			page 19


 1019 0018 00B1     		cbz	r0, .L24
 1020              	.L22:
 1021 001a F8BD     		pop	{r3, r4, r5, r6, r7, pc}
 1022              	.L24:
 1023              		.loc 1 442 0
 1024 001c 2046     		mov	r0, r4
 1025 001e FFF7FEFF 		bl	chMtxTryLock
 1026              	.LVL32:
 1027              		.loc 1 443 0
 1028 0022 D0F10101 		rsbs	r1, r0, #1
 1029 0026 38BF     		it	cc
 1030 0028 0021     		movcc	r1, #0
 1031 002a 0220     		movs	r0, #2
 1032              	.LVL33:
 1033 002c FFF7FEFF 		bl	_test_assert
 1034 0030 0746     		mov	r7, r0
 1035 0032 0028     		cmp	r0, #0
 1036 0034 F1D1     		bne	.L22
 1037              	.LBB5:
 1038              		.loc 1 445 0
 1039 0036 2023     		movs	r3, #32
 1040              	.LVL34:
 1041              	@ 445 "../../ChibiOS/test/testmtx.c" 1
 1042 0038 83F31188 		msr     BASEPRI, r3
 1043              	@ 0 "" 2
 1044              	.LVL35:
 1045              		.thumb
 1046              	.LBE5:
 1047 003c FFF7FEFF 		bl	dbg_check_lock
 1048              	.LVL36:
 1049              		.loc 1 446 0
 1050 0040 FFF7FEFF 		bl	chMtxUnlockS
 1051              		.loc 1 447 0
 1052 0044 FFF7FEFF 		bl	dbg_check_unlock
 1053              	.LBB6:
 1054 0048 3B46     		mov	r3, r7
 1055              	.LVL37:
 1056              	@ 447 "../../ChibiOS/test/testmtx.c" 1
 1057 004a 83F31188 		msr     BASEPRI, r3
 1058              	@ 0 "" 2
 1059              	.LVL38:
 1060              		.thumb
 1061              	.LBE6:
 1062              		.loc 1 449 0
 1063 004e 2368     		ldr	r3, [r4, #0]
 1064              	.LVL39:
 1065 0050 0320     		movs	r0, #3
 1066 0052 1A1B     		subs	r2, r3, r4
 1067 0054 5142     		rsbs	r1, r2, #0
 1068 0056 41EB0201 		adc	r1, r1, r2
 1069 005a FFF7FEFF 		bl	_test_assert
 1070 005e 0028     		cmp	r0, #0
 1071 0060 DBD1     		bne	.L22
 1072              		.loc 1 450 0
 1073 0062 A168     		ldr	r1, [r4, #8]
 1074 0064 0420     		movs	r0, #4
 1075 0066 D1F10101 		rsbs	r1, r1, #1
ARM GAS  /tmp/ccoPtKbb.s 			page 20


 1076 006a 38BF     		it	cc
 1077 006c 0021     		movcc	r1, #0
 1078 006e FFF7FEFF 		bl	_test_assert
 1079 0072 0028     		cmp	r0, #0
 1080 0074 D1D1     		bne	.L22
 1081              		.loc 1 451 0
 1082 0076 AA69     		ldr	r2, [r5, #24]
 1083 0078 0520     		movs	r0, #5
 1084 007a 9168     		ldr	r1, [r2, #8]
 1085 007c 8B1B     		subs	r3, r1, r6
 1086 007e 5A42     		rsbs	r2, r3, #0
 1087 0080 42EB0301 		adc	r1, r2, r3
 1088 0084 FFF7FEFF 		bl	_test_assert
 1089 0088 0028     		cmp	r0, #0
 1090 008a C6D1     		bne	.L22
 1091              		.loc 1 453 0
 1092 008c 2046     		mov	r0, r4
 1093 008e FFF7FEFF 		bl	chMtxLock
 1094              		.loc 1 454 0
 1095 0092 FFF7FEFF 		bl	chMtxUnlockAll
 1096              		.loc 1 455 0
 1097 0096 2268     		ldr	r2, [r4, #0]
 1098 0098 0620     		movs	r0, #6
 1099 009a 111B     		subs	r1, r2, r4
 1100 009c 4B42     		rsbs	r3, r1, #0
 1101 009e 43EB0101 		adc	r1, r3, r1
 1102 00a2 FFF7FEFF 		bl	_test_assert
 1103 00a6 0028     		cmp	r0, #0
 1104 00a8 B7D1     		bne	.L22
 1105              		.loc 1 456 0
 1106 00aa A068     		ldr	r0, [r4, #8]
 1107 00ac D0F10101 		rsbs	r1, r0, #1
 1108 00b0 38BF     		it	cc
 1109 00b2 0021     		movcc	r1, #0
 1110 00b4 0720     		movs	r0, #7
 1111              		.loc 1 457 0
 1112 00b6 BDE8F840 		pop	{r3, r4, r5, r6, r7, lr}
 1113              		.loc 1 456 0
 1114 00ba FFF7FEBF 		b	_test_assert
 1115              	.L26:
 1116 00be 00BF     		.align	2
 1117              	.L25:
 1118 00c0 00000000 		.word	rlist
 1119 00c4 00000000 		.word	.LANCHOR2
 1120              		.cfi_endproc
 1121              	.LFE27:
 1122              		.size	mtx5_execute, .-mtx5_execute
 1123 00c8 AFF30080 		.section	.text.mtx4_execute,"ax",%progbits
 1123      AFF30080 
 1124              		.align	2
 1125              		.p2align 4,,15
 1126              		.thumb
 1127              		.thumb_func
 1128              		.type	mtx4_execute, %function
 1129              	mtx4_execute:
 1130              	.LFB25:
 1131              		.loc 1 365 0
ARM GAS  /tmp/ccoPtKbb.s 			page 21


 1132              		.cfi_startproc
 1133              		@ args = 0, pretend = 0, frame = 0
 1134              		@ frame_needed = 0, uses_anonymous_args = 0
 1135 0000 2DE9F047 		push	{r4, r5, r6, r7, r8, r9, sl, lr}
 1136              	.LCFI18:
 1137              		.cfi_def_cfa_offset 32
 1138              		.cfi_offset 14, -4
 1139              		.cfi_offset 10, -8
 1140              		.cfi_offset 9, -12
 1141              		.cfi_offset 8, -16
 1142              		.cfi_offset 7, -20
 1143              		.cfi_offset 6, -24
 1144              		.cfi_offset 5, -28
 1145              		.cfi_offset 4, -32
 1146              		.loc 1 368 0
 1147 0004 924D     		ldr	r5, .L30
 1148              		.loc 1 371 0
 1149 0006 934E     		ldr	r6, .L30+4
 1150              		.loc 1 368 0
 1151 0008 A869     		ldr	r0, [r5, #24]
 1152              		.loc 1 371 0
 1153 000a D6F800A0 		ldr	sl, [r6, #0]
 1154              		.loc 1 368 0
 1155 000e 8468     		ldr	r4, [r0, #8]
 1156              	.LVL40:
 1157              		.loc 1 371 0
 1158 0010 DFF85882 		ldr	r8, .L30+28
 1159              		.loc 1 369 0
 1160 0014 671C     		adds	r7, r4, #1
 1161              	.LVL41:
 1162              		.loc 1 365 0
 1163 0016 82B0     		sub	sp, sp, #8
 1164              	.LCFI19:
 1165              		.cfi_def_cfa_offset 40
 1166              		.loc 1 371 0
 1167 0018 4FF40471 		mov	r1, #528
 1168 001c 3A46     		mov	r2, r7
 1169 001e 8E4B     		ldr	r3, .L30+8
 1170 0020 5046     		mov	r0, sl
 1171 0022 CDF80080 		str	r8, [sp, #0]
 1172 0026 FFF7FEFF 		bl	chThdCreateStatic
 1173              	.LVL42:
 1174              		.loc 1 372 0
 1175 002a D6F80490 		ldr	r9, [r6, #4]
 1176              		.loc 1 371 0
 1177 002e 8B4E     		ldr	r6, .L30+12
 1178 0030 8446     		mov	ip, r0
 1179              		.loc 1 372 0
 1180 0032 DFF83CE2 		ldr	lr, .L30+32
 1181              		.loc 1 370 0
 1182 0036 04F10208 		add	r8, r4, #2
 1183              	.LVL43:
 1184              		.loc 1 372 0
 1185 003a 4FF40471 		mov	r1, #528
 1186 003e 884B     		ldr	r3, .L30+16
 1187              		.loc 1 371 0
 1188 0040 C6F800C0 		str	ip, [r6, #0]
ARM GAS  /tmp/ccoPtKbb.s 			page 22


 1189              		.loc 1 372 0
 1190 0044 4246     		mov	r2, r8
 1191 0046 4846     		mov	r0, r9
 1192 0048 CDF800E0 		str	lr, [sp, #0]
 1193 004c FFF7FEFF 		bl	chThdCreateStatic
 1194 0050 0246     		mov	r2, r0
 1195 0052 7260     		str	r2, [r6, #4]
 1196              		.loc 1 373 0
 1197 0054 8348     		ldr	r0, .L30+20
 1198 0056 FFF7FEFF 		bl	chMtxLock
 1199              		.loc 1 374 0
 1200 005a A969     		ldr	r1, [r5, #24]
 1201 005c 0120     		movs	r0, #1
 1202 005e 8B68     		ldr	r3, [r1, #8]
 1203 0060 1A1B     		subs	r2, r3, r4
 1204 0062 5142     		rsbs	r1, r2, #0
 1205 0064 41EB0201 		adc	r1, r1, r2
 1206 0068 FFF7FEFF 		bl	_test_assert
 1207 006c 10B1     		cbz	r0, .L29
 1208              	.L27:
 1209              		.loc 1 409 0
 1210 006e 02B0     		add	sp, sp, #8
 1211 0070 BDE8F087 		pop	{r4, r5, r6, r7, r8, r9, sl, pc}
 1212              	.L29:
 1213              		.loc 1 375 0
 1214 0074 6420     		movs	r0, #100
 1215 0076 FFF7FEFF 		bl	chThdSleep
 1216              		.loc 1 376 0
 1217 007a A969     		ldr	r1, [r5, #24]
 1218 007c 0220     		movs	r0, #2
 1219 007e 8A68     		ldr	r2, [r1, #8]
 1220 0080 D31B     		subs	r3, r2, r7
 1221 0082 5942     		rsbs	r1, r3, #0
 1222 0084 41EB0301 		adc	r1, r1, r3
 1223 0088 FFF7FEFF 		bl	_test_assert
 1224 008c 0028     		cmp	r0, #0
 1225 008e EED1     		bne	.L27
 1226              		.loc 1 377 0
 1227 0090 7548     		ldr	r0, .L30+24
 1228 0092 FFF7FEFF 		bl	chMtxLock
 1229              		.loc 1 378 0
 1230 0096 AB69     		ldr	r3, [r5, #24]
 1231 0098 0320     		movs	r0, #3
 1232 009a 9968     		ldr	r1, [r3, #8]
 1233 009c CA1B     		subs	r2, r1, r7
 1234 009e 5342     		rsbs	r3, r2, #0
 1235 00a0 43EB0201 		adc	r1, r3, r2
 1236 00a4 FFF7FEFF 		bl	_test_assert
 1237 00a8 0028     		cmp	r0, #0
 1238 00aa E0D1     		bne	.L27
 1239              		.loc 1 379 0
 1240 00ac 6420     		movs	r0, #100
 1241 00ae FFF7FEFF 		bl	chThdSleep
 1242              		.loc 1 380 0
 1243 00b2 AA69     		ldr	r2, [r5, #24]
 1244 00b4 0420     		movs	r0, #4
 1245 00b6 9368     		ldr	r3, [r2, #8]
ARM GAS  /tmp/ccoPtKbb.s 			page 23


 1246 00b8 C8EB0301 		rsb	r1, r8, r3
 1247 00bc 4A42     		rsbs	r2, r1, #0
 1248 00be 42EB0101 		adc	r1, r2, r1
 1249 00c2 FFF7FEFF 		bl	_test_assert
 1250 00c6 0028     		cmp	r0, #0
 1251 00c8 D1D1     		bne	.L27
 1252              		.loc 1 381 0
 1253 00ca FFF7FEFF 		bl	chMtxUnlock
 1254              		.loc 1 382 0
 1255 00ce AA69     		ldr	r2, [r5, #24]
 1256 00d0 0520     		movs	r0, #5
 1257 00d2 9368     		ldr	r3, [r2, #8]
 1258 00d4 D91B     		subs	r1, r3, r7
 1259 00d6 D1F1000C 		rsbs	ip, r1, #0
 1260 00da 4CEB0101 		adc	r1, ip, r1
 1261 00de FFF7FEFF 		bl	_test_assert
 1262 00e2 0028     		cmp	r0, #0
 1263 00e4 C3D1     		bne	.L27
 1264              		.loc 1 383 0
 1265 00e6 6420     		movs	r0, #100
 1266 00e8 FFF7FEFF 		bl	chThdSleep
 1267              		.loc 1 384 0
 1268 00ec AA69     		ldr	r2, [r5, #24]
 1269 00ee 0620     		movs	r0, #6
 1270 00f0 9368     		ldr	r3, [r2, #8]
 1271 00f2 D91B     		subs	r1, r3, r7
 1272 00f4 D1F1000C 		rsbs	ip, r1, #0
 1273 00f8 4CEB0101 		adc	r1, ip, r1
 1274 00fc FFF7FEFF 		bl	_test_assert
 1275 0100 0028     		cmp	r0, #0
 1276 0102 B4D1     		bne	.L27
 1277              		.loc 1 385 0
 1278 0104 FFF7FEFF 		bl	chMtxUnlockAll
 1279              		.loc 1 386 0
 1280 0108 A969     		ldr	r1, [r5, #24]
 1281 010a 0720     		movs	r0, #7
 1282 010c 8A68     		ldr	r2, [r1, #8]
 1283 010e 131B     		subs	r3, r2, r4
 1284 0110 5942     		rsbs	r1, r3, #0
 1285 0112 41EB0301 		adc	r1, r1, r3
 1286 0116 FFF7FEFF 		bl	_test_assert
 1287 011a 0028     		cmp	r0, #0
 1288 011c A7D1     		bne	.L27
 1289              		.loc 1 387 0
 1290 011e FFF7FEFF 		bl	test_wait_threads
 1291              		.loc 1 390 0
 1292 0122 DFF850E1 		ldr	lr, .L30+36
 1293 0126 4FF40471 		mov	r1, #528
 1294 012a 3A46     		mov	r2, r7
 1295 012c 4A4B     		ldr	r3, .L30+8
 1296 012e 5046     		mov	r0, sl
 1297 0130 CDF800E0 		str	lr, [sp, #0]
 1298 0134 FFF7FEFF 		bl	chThdCreateStatic
 1299              		.loc 1 391 0
 1300 0138 DFF83CE1 		ldr	lr, .L30+40
 1301              		.loc 1 390 0
 1302 013c 8446     		mov	ip, r0
ARM GAS  /tmp/ccoPtKbb.s 			page 24


 1303              		.loc 1 391 0
 1304 013e 4FF40471 		mov	r1, #528
 1305 0142 474B     		ldr	r3, .L30+16
 1306              		.loc 1 390 0
 1307 0144 C6F800C0 		str	ip, [r6, #0]
 1308              		.loc 1 391 0
 1309 0148 4246     		mov	r2, r8
 1310 014a 4846     		mov	r0, r9
 1311 014c CDF800E0 		str	lr, [sp, #0]
 1312 0150 FFF7FEFF 		bl	chThdCreateStatic
 1313 0154 0246     		mov	r2, r0
 1314 0156 7260     		str	r2, [r6, #4]
 1315              		.loc 1 392 0
 1316 0158 4248     		ldr	r0, .L30+20
 1317 015a FFF7FEFF 		bl	chMtxLock
 1318              		.loc 1 393 0
 1319 015e AB69     		ldr	r3, [r5, #24]
 1320 0160 0820     		movs	r0, #8
 1321 0162 9968     		ldr	r1, [r3, #8]
 1322 0164 0A1B     		subs	r2, r1, r4
 1323 0166 5342     		rsbs	r3, r2, #0
 1324 0168 43EB0201 		adc	r1, r3, r2
 1325 016c FFF7FEFF 		bl	_test_assert
 1326 0170 0028     		cmp	r0, #0
 1327 0172 7FF47CAF 		bne	.L27
 1328              		.loc 1 394 0
 1329 0176 6420     		movs	r0, #100
 1330 0178 FFF7FEFF 		bl	chThdSleep
 1331              		.loc 1 395 0
 1332 017c A969     		ldr	r1, [r5, #24]
 1333 017e 0920     		movs	r0, #9
 1334 0180 8A68     		ldr	r2, [r1, #8]
 1335 0182 D31B     		subs	r3, r2, r7
 1336 0184 5942     		rsbs	r1, r3, #0
 1337 0186 41EB0301 		adc	r1, r1, r3
 1338 018a FFF7FEFF 		bl	_test_assert
 1339 018e 0028     		cmp	r0, #0
 1340 0190 7FF46DAF 		bne	.L27
 1341              		.loc 1 396 0
 1342 0194 3448     		ldr	r0, .L30+24
 1343 0196 FFF7FEFF 		bl	chMtxLock
 1344              		.loc 1 397 0
 1345 019a A969     		ldr	r1, [r5, #24]
 1346 019c 0A20     		movs	r0, #10
 1347 019e 8B68     		ldr	r3, [r1, #8]
 1348 01a0 C7EB030C 		rsb	ip, r7, r3
 1349 01a4 DCF10002 		rsbs	r2, ip, #0
 1350 01a8 42EB0C01 		adc	r1, r2, ip
 1351 01ac FFF7FEFF 		bl	_test_assert
 1352 01b0 0028     		cmp	r0, #0
 1353 01b2 7FF45CAF 		bne	.L27
 1354              		.loc 1 398 0
 1355 01b6 6420     		movs	r0, #100
 1356 01b8 FFF7FEFF 		bl	chThdSleep
 1357              		.loc 1 399 0
 1358 01bc A969     		ldr	r1, [r5, #24]
 1359 01be 0B20     		movs	r0, #11
ARM GAS  /tmp/ccoPtKbb.s 			page 25


 1360 01c0 8B68     		ldr	r3, [r1, #8]
 1361 01c2 C8EB0302 		rsb	r2, r8, r3
 1362 01c6 5642     		rsbs	r6, r2, #0
 1363 01c8 46EB0201 		adc	r1, r6, r2
 1364 01cc FFF7FEFF 		bl	_test_assert
 1365 01d0 0646     		mov	r6, r0
 1366 01d2 0028     		cmp	r0, #0
 1367 01d4 7FF44BAF 		bne	.L27
 1368              	.LBB7:
 1369              		.loc 1 400 0
 1370 01d8 2023     		movs	r3, #32
 1371              	.LVL44:
 1372              	@ 400 "../../ChibiOS/test/testmtx.c" 1
 1373 01da 83F31188 		msr     BASEPRI, r3
 1374              	@ 0 "" 2
 1375              	.LVL45:
 1376              		.thumb
 1377              	.LBE7:
 1378 01de FFF7FEFF 		bl	dbg_check_lock
 1379              	.LVL46:
 1380              		.loc 1 401 0
 1381 01e2 FFF7FEFF 		bl	chMtxUnlockS
 1382              		.loc 1 402 0
 1383 01e6 FFF7FEFF 		bl	dbg_check_unlock
 1384              	.LBB8:
 1385 01ea 3346     		mov	r3, r6
 1386              	.LVL47:
 1387              	@ 402 "../../ChibiOS/test/testmtx.c" 1
 1388 01ec 83F31188 		msr     BASEPRI, r3
 1389              	@ 0 "" 2
 1390              	.LVL48:
 1391              		.thumb
 1392              	.LBE8:
 1393              		.loc 1 403 0
 1394 01f0 AA69     		ldr	r2, [r5, #24]
 1395 01f2 0C20     		movs	r0, #12
 1396 01f4 9168     		ldr	r1, [r2, #8]
 1397 01f6 CB1B     		subs	r3, r1, r7
 1398              	.LVL49:
 1399 01f8 5A42     		rsbs	r2, r3, #0
 1400 01fa 42EB0301 		adc	r1, r2, r3
 1401 01fe FFF7FEFF 		bl	_test_assert
 1402 0202 0028     		cmp	r0, #0
 1403 0204 7FF433AF 		bne	.L27
 1404              		.loc 1 404 0
 1405 0208 6420     		movs	r0, #100
 1406 020a FFF7FEFF 		bl	chThdSleep
 1407              		.loc 1 405 0
 1408 020e AB69     		ldr	r3, [r5, #24]
 1409 0210 0D20     		movs	r0, #13
 1410 0212 9A68     		ldr	r2, [r3, #8]
 1411 0214 D11B     		subs	r1, r2, r7
 1412 0216 4B42     		rsbs	r3, r1, #0
 1413 0218 43EB0101 		adc	r1, r3, r1
 1414 021c FFF7FEFF 		bl	_test_assert
 1415 0220 0028     		cmp	r0, #0
 1416 0222 7FF424AF 		bne	.L27
ARM GAS  /tmp/ccoPtKbb.s 			page 26


 1417              		.loc 1 406 0
 1418 0226 FFF7FEFF 		bl	chMtxUnlockAll
 1419              		.loc 1 407 0
 1420 022a AB69     		ldr	r3, [r5, #24]
 1421 022c 0E20     		movs	r0, #14
 1422 022e 9A68     		ldr	r2, [r3, #8]
 1423 0230 111B     		subs	r1, r2, r4
 1424 0232 D1F1000C 		rsbs	ip, r1, #0
 1425 0236 4CEB0101 		adc	r1, ip, r1
 1426 023a FFF7FEFF 		bl	_test_assert
 1427 023e 0028     		cmp	r0, #0
 1428 0240 7FF415AF 		bne	.L27
 1429              		.loc 1 409 0
 1430 0244 02B0     		add	sp, sp, #8
 1431 0246 BDE8F047 		pop	{r4, r5, r6, r7, r8, r9, sl, lr}
 1432              		.loc 1 408 0
 1433 024a FFF7FEBF 		b	test_wait_threads
 1434              	.L31:
 1435 024e 00BF     		.align	2
 1436              	.L30:
 1437 0250 00000000 		.word	rlist
 1438 0254 00000000 		.word	wa
 1439 0258 00000000 		.word	thread4a
 1440 025c 00000000 		.word	threads
 1441 0260 00000000 		.word	thread4b
 1442 0264 00000000 		.word	.LANCHOR1
 1443 0268 00000000 		.word	.LANCHOR2
 1444 026c 08000000 		.word	.LC2
 1445 0270 00000000 		.word	.LC0
 1446 0274 14000000 		.word	.LC5
 1447 0278 04000000 		.word	.LC1
 1448              		.cfi_endproc
 1449              	.LFE25:
 1450              		.size	mtx4_execute, .-mtx4_execute
 1451              		.section	.text.thread4b,"ax",%progbits
 1452              		.align	2
 1453              		.p2align 4,,15
 1454              		.thumb
 1455              		.thumb_func
 1456              		.type	thread4b, %function
 1457              	thread4b:
 1458              	.LFB24:
 1459              		.loc 1 356 0
 1460              		.cfi_startproc
 1461              		@ args = 0, pretend = 0, frame = 0
 1462              		@ frame_needed = 0, uses_anonymous_args = 0
 1463              	.LVL50:
 1464 0000 08B5     		push	{r3, lr}
 1465              	.LCFI20:
 1466              		.cfi_def_cfa_offset 8
 1467              		.cfi_offset 14, -4
 1468              		.cfi_offset 3, -8
 1469              		.loc 1 359 0
 1470 0002 9620     		movs	r0, #150
 1471              	.LVL51:
 1472 0004 FFF7FEFF 		bl	chThdSleep
 1473              		.loc 1 360 0
ARM GAS  /tmp/ccoPtKbb.s 			page 27


 1474 0008 40F20000 		movw	r0, #:lower16:.LANCHOR2
 1475 000c C0F20000 		movt	r0, #:upper16:.LANCHOR2
 1476 0010 FFF7FEFF 		bl	chMtxLock
 1477              		.loc 1 361 0
 1478 0014 FFF7FEFF 		bl	chMtxUnlock
 1479              		.loc 1 363 0
 1480 0018 0020     		movs	r0, #0
 1481 001a 08BD     		pop	{r3, pc}
 1482              		.cfi_endproc
 1483              	.LFE24:
 1484              		.size	thread4b, .-thread4b
 1485 001c AFF30080 		.section	.text.thread4a,"ax",%progbits
 1486              		.align	2
 1487              		.p2align 4,,15
 1488              		.thumb
 1489              		.thumb_func
 1490              		.type	thread4a, %function
 1491              	thread4a:
 1492              	.LFB23:
 1493              		.loc 1 347 0
 1494              		.cfi_startproc
 1495              		@ args = 0, pretend = 0, frame = 0
 1496              		@ frame_needed = 0, uses_anonymous_args = 0
 1497              	.LVL52:
 1498 0000 08B5     		push	{r3, lr}
 1499              	.LCFI21:
 1500              		.cfi_def_cfa_offset 8
 1501              		.cfi_offset 14, -4
 1502              		.cfi_offset 3, -8
 1503              		.loc 1 350 0
 1504 0002 3220     		movs	r0, #50
 1505              	.LVL53:
 1506 0004 FFF7FEFF 		bl	chThdSleep
 1507              		.loc 1 351 0
 1508 0008 40F20000 		movw	r0, #:lower16:.LANCHOR1
 1509 000c C0F20000 		movt	r0, #:upper16:.LANCHOR1
 1510 0010 FFF7FEFF 		bl	chMtxLock
 1511              		.loc 1 352 0
 1512 0014 FFF7FEFF 		bl	chMtxUnlock
 1513              		.loc 1 354 0
 1514 0018 0020     		movs	r0, #0
 1515 001a 08BD     		pop	{r3, pc}
 1516              		.cfi_endproc
 1517              	.LFE23:
 1518              		.size	thread4a, .-thread4a
 1519 001c AFF30080 		.section	.text.mtx3_execute,"ax",%progbits
 1520              		.align	2
 1521              		.p2align 4,,15
 1522              		.thumb
 1523              		.thumb_func
 1524              		.type	mtx3_execute, %function
 1525              	mtx3_execute:
 1526              	.LFB21:
 1527              		.loc 1 308 0
 1528              		.cfi_startproc
 1529              		@ args = 0, pretend = 0, frame = 0
 1530              		@ frame_needed = 0, uses_anonymous_args = 0
ARM GAS  /tmp/ccoPtKbb.s 			page 28


 1531 0000 2DE9F041 		push	{r4, r5, r6, r7, r8, lr}
 1532              	.LCFI22:
 1533              		.cfi_def_cfa_offset 24
 1534              		.cfi_offset 14, -4
 1535              		.cfi_offset 8, -8
 1536              		.cfi_offset 7, -12
 1537              		.cfi_offset 6, -16
 1538              		.cfi_offset 5, -20
 1539              		.cfi_offset 4, -24
 1540              		.loc 1 313 0
 1541 0004 2E4F     		ldr	r7, .L37
 1542              		.loc 1 308 0
 1543 0006 82B0     		sub	sp, sp, #8
 1544              	.LCFI23:
 1545              		.cfi_def_cfa_offset 32
 1546              		.loc 1 311 0
 1547 0008 FFF7FEFF 		bl	test_wait_tick
 1548              		.loc 1 313 0
 1549 000c B869     		ldr	r0, [r7, #24]
 1550 000e 2D4E     		ldr	r6, .L37+4
 1551 0010 8568     		ldr	r5, [r0, #8]
 1552              		.loc 1 312 0
 1553 0012 2D4C     		ldr	r4, .L37+8
 1554              		.loc 1 313 0
 1555 0014 6A1F     		subs	r2, r5, #5
 1556 0016 4FF40471 		mov	r1, #528
 1557 001a 0025     		movs	r5, #0
 1558 001c 2B4B     		ldr	r3, .L37+12
 1559 001e 3068     		ldr	r0, [r6, #0]
 1560              		.loc 1 312 0
 1561 0020 D4F80C80 		ldr	r8, [r4, #12]
 1562              	.LVL54:
 1563              		.loc 1 313 0
 1564 0024 0095     		str	r5, [sp, #0]
 1565 0026 FFF7FEFF 		bl	chThdCreateStatic
 1566              		.loc 1 314 0
 1567 002a BC69     		ldr	r4, [r7, #24]
 1568              		.loc 1 313 0
 1569 002c 8446     		mov	ip, r0
 1570              		.loc 1 314 0
 1571 002e A168     		ldr	r1, [r4, #8]
 1572              		.loc 1 313 0
 1573 0030 274C     		ldr	r4, .L37+16
 1574              		.loc 1 314 0
 1575 0032 0A1F     		subs	r2, r1, #4
 1576              		.loc 1 313 0
 1577 0034 C4F800C0 		str	ip, [r4, #0]
 1578              		.loc 1 314 0
 1579 0038 4FF40471 		mov	r1, #528
 1580 003c 254B     		ldr	r3, .L37+20
 1581 003e 7068     		ldr	r0, [r6, #4]
 1582 0040 0095     		str	r5, [sp, #0]
 1583 0042 FFF7FEFF 		bl	chThdCreateStatic
 1584              		.loc 1 315 0
 1585 0046 BA69     		ldr	r2, [r7, #24]
 1586              		.loc 1 314 0
 1587 0048 8646     		mov	lr, r0
ARM GAS  /tmp/ccoPtKbb.s 			page 29


 1588              		.loc 1 315 0
 1589 004a 9368     		ldr	r3, [r2, #8]
 1590 004c 4FF40471 		mov	r1, #528
 1591              		.loc 1 314 0
 1592 0050 C4F804E0 		str	lr, [r4, #4]
 1593              		.loc 1 315 0
 1594 0054 DA1E     		subs	r2, r3, #3
 1595 0056 B068     		ldr	r0, [r6, #8]
 1596 0058 1F4B     		ldr	r3, .L37+24
 1597 005a 0095     		str	r5, [sp, #0]
 1598 005c FFF7FEFF 		bl	chThdCreateStatic
 1599              		.loc 1 316 0
 1600 0060 B969     		ldr	r1, [r7, #24]
 1601              		.loc 1 315 0
 1602 0062 8446     		mov	ip, r0
 1603              		.loc 1 316 0
 1604 0064 8A68     		ldr	r2, [r1, #8]
 1605 0066 1D4B     		ldr	r3, .L37+28
 1606              		.loc 1 315 0
 1607 0068 C4F808C0 		str	ip, [r4, #8]
 1608              		.loc 1 316 0
 1609 006c 4FF40471 		mov	r1, #528
 1610 0070 023A     		subs	r2, r2, #2
 1611 0072 F068     		ldr	r0, [r6, #12]
 1612 0074 0095     		str	r5, [sp, #0]
 1613 0076 FFF7FEFF 		bl	chThdCreateStatic
 1614              		.loc 1 317 0
 1615 007a BB69     		ldr	r3, [r7, #24]
 1616              		.loc 1 316 0
 1617 007c 8646     		mov	lr, r0
 1618              		.loc 1 317 0
 1619 007e 9A68     		ldr	r2, [r3, #8]
 1620 0080 4FF40471 		mov	r1, #528
 1621              		.loc 1 316 0
 1622 0084 C4F80CE0 		str	lr, [r4, #12]
 1623              		.loc 1 317 0
 1624 0088 013A     		subs	r2, r2, #1
 1625 008a 154B     		ldr	r3, .L37+32
 1626 008c 3069     		ldr	r0, [r6, #16]
 1627 008e 0095     		str	r5, [sp, #0]
 1628 0090 FFF7FEFF 		bl	chThdCreateStatic
 1629 0094 2061     		str	r0, [r4, #16]
 1630              		.loc 1 318 0
 1631 0096 FFF7FEFF 		bl	test_wait_threads
 1632              		.loc 1 319 0
 1633 009a 0120     		movs	r0, #1
 1634 009c 1149     		ldr	r1, .L37+36
 1635 009e FFF7FEFF 		bl	_test_assert_sequence
 1636 00a2 10B1     		cbz	r0, .L36
 1637              		.loc 1 321 0
 1638 00a4 02B0     		add	sp, sp, #8
 1639 00a6 BDE8F081 		pop	{r4, r5, r6, r7, r8, pc}
 1640              	.L36:
 1641              		.loc 1 320 0
 1642 00aa 08F16E01 		add	r1, r8, #110
 1643 00ae 08F17302 		add	r2, r8, #115
 1644 00b2 0220     		movs	r0, #2
ARM GAS  /tmp/ccoPtKbb.s 			page 30


 1645              		.loc 1 321 0
 1646 00b4 02B0     		add	sp, sp, #8
 1647 00b6 BDE8F041 		pop	{r4, r5, r6, r7, r8, lr}
 1648              		.loc 1 320 0
 1649 00ba FFF7FEBF 		b	_test_assert_time_window
 1650              	.L38:
 1651 00be 00BF     		.align	2
 1652              	.L37:
 1653 00c0 00000000 		.word	rlist
 1654 00c4 00000000 		.word	wa
 1655 00c8 00000000 		.word	vtlist
 1656 00cc 00000000 		.word	thread3LL
 1657 00d0 00000000 		.word	threads
 1658 00d4 00000000 		.word	thread3L
 1659 00d8 00000000 		.word	thread3M
 1660 00dc 00000000 		.word	thread3H
 1661 00e0 00000000 		.word	thread3HH
 1662 00e4 18000000 		.word	.LC6
 1663              		.cfi_endproc
 1664              	.LFE21:
 1665              		.size	mtx3_execute, .-mtx3_execute
 1666 00e8 AFF30080 		.section	.text.mtx2_execute,"ax",%progbits
 1666      AFF30080 
 1667              		.align	2
 1668              		.p2align 4,,15
 1669              		.thumb
 1670              		.thumb_func
 1671              		.type	mtx2_execute, %function
 1672              	mtx2_execute:
 1673              	.LFB14:
 1674              		.loc 1 190 0
 1675              		.cfi_startproc
 1676              		@ args = 0, pretend = 0, frame = 0
 1677              		@ frame_needed = 0, uses_anonymous_args = 0
 1678 0000 2DE9F041 		push	{r4, r5, r6, r7, r8, lr}
 1679              	.LCFI24:
 1680              		.cfi_def_cfa_offset 24
 1681              		.cfi_offset 14, -4
 1682              		.cfi_offset 8, -8
 1683              		.cfi_offset 7, -12
 1684              		.cfi_offset 6, -16
 1685              		.cfi_offset 5, -20
 1686              		.cfi_offset 4, -24
 1687              		.loc 1 195 0
 1688 0004 214F     		ldr	r7, .L42
 1689              		.loc 1 190 0
 1690 0006 82B0     		sub	sp, sp, #8
 1691              	.LCFI25:
 1692              		.cfi_def_cfa_offset 32
 1693              		.loc 1 193 0
 1694 0008 FFF7FEFF 		bl	test_wait_tick
 1695              		.loc 1 195 0
 1696 000c B869     		ldr	r0, [r7, #24]
 1697 000e 204E     		ldr	r6, .L42+4
 1698 0010 8568     		ldr	r5, [r0, #8]
 1699              		.loc 1 194 0
 1700 0012 204C     		ldr	r4, .L42+8
ARM GAS  /tmp/ccoPtKbb.s 			page 31


 1701              		.loc 1 195 0
 1702 0014 6A1E     		subs	r2, r5, #1
 1703 0016 4FF40471 		mov	r1, #528
 1704 001a 0025     		movs	r5, #0
 1705 001c 1E4B     		ldr	r3, .L42+12
 1706 001e 3068     		ldr	r0, [r6, #0]
 1707              		.loc 1 194 0
 1708 0020 D4F80C80 		ldr	r8, [r4, #12]
 1709              	.LVL55:
 1710              		.loc 1 195 0
 1711 0024 0095     		str	r5, [sp, #0]
 1712 0026 FFF7FEFF 		bl	chThdCreateStatic
 1713              		.loc 1 196 0
 1714 002a BC69     		ldr	r4, [r7, #24]
 1715              		.loc 1 195 0
 1716 002c 8446     		mov	ip, r0
 1717              		.loc 1 196 0
 1718 002e A168     		ldr	r1, [r4, #8]
 1719              		.loc 1 195 0
 1720 0030 1A4C     		ldr	r4, .L42+16
 1721              		.loc 1 196 0
 1722 0032 8A1E     		subs	r2, r1, #2
 1723              		.loc 1 195 0
 1724 0034 C4F800C0 		str	ip, [r4, #0]
 1725              		.loc 1 196 0
 1726 0038 4FF40471 		mov	r1, #528
 1727 003c 184B     		ldr	r3, .L42+20
 1728 003e 7068     		ldr	r0, [r6, #4]
 1729 0040 0095     		str	r5, [sp, #0]
 1730 0042 FFF7FEFF 		bl	chThdCreateStatic
 1731              		.loc 1 197 0
 1732 0046 BB69     		ldr	r3, [r7, #24]
 1733              		.loc 1 196 0
 1734 0048 8646     		mov	lr, r0
 1735              		.loc 1 197 0
 1736 004a 9A68     		ldr	r2, [r3, #8]
 1737 004c 4FF40471 		mov	r1, #528
 1738              		.loc 1 196 0
 1739 0050 C4F804E0 		str	lr, [r4, #4]
 1740              		.loc 1 197 0
 1741 0054 033A     		subs	r2, r2, #3
 1742 0056 134B     		ldr	r3, .L42+24
 1743 0058 B068     		ldr	r0, [r6, #8]
 1744 005a 0095     		str	r5, [sp, #0]
 1745 005c FFF7FEFF 		bl	chThdCreateStatic
 1746 0060 A060     		str	r0, [r4, #8]
 1747              		.loc 1 198 0
 1748 0062 FFF7FEFF 		bl	test_wait_threads
 1749              		.loc 1 199 0
 1750 0066 0120     		movs	r0, #1
 1751 0068 0F49     		ldr	r1, .L42+28
 1752 006a FFF7FEFF 		bl	_test_assert_sequence
 1753 006e 10B1     		cbz	r0, .L41
 1754              		.loc 1 201 0
 1755 0070 02B0     		add	sp, sp, #8
 1756 0072 BDE8F081 		pop	{r4, r5, r6, r7, r8, pc}
 1757              	.L41:
ARM GAS  /tmp/ccoPtKbb.s 			page 32


 1758              		.loc 1 200 0
 1759 0076 08F16401 		add	r1, r8, #100
 1760 007a 08F16902 		add	r2, r8, #105
 1761 007e 0220     		movs	r0, #2
 1762              		.loc 1 201 0
 1763 0080 02B0     		add	sp, sp, #8
 1764 0082 BDE8F041 		pop	{r4, r5, r6, r7, r8, lr}
 1765              		.loc 1 200 0
 1766 0086 FFF7FEBF 		b	_test_assert_time_window
 1767              	.L43:
 1768 008a 00BF     		.align	2
 1769              	.L42:
 1770 008c 00000000 		.word	rlist
 1771 0090 00000000 		.word	wa
 1772 0094 00000000 		.word	vtlist
 1773 0098 00000000 		.word	thread2H
 1774 009c 00000000 		.word	threads
 1775 00a0 00000000 		.word	thread2M
 1776 00a4 00000000 		.word	thread2L
 1777 00a8 0C000000 		.word	.LC3
 1778              		.cfi_endproc
 1779              	.LFE14:
 1780              		.size	mtx2_execute, .-mtx2_execute
 1781 00ac AFF30080 		.section	.text.thread3HH,"ax",%progbits
 1782              		.align	2
 1783              		.p2align 4,,15
 1784              		.thumb
 1785              		.thumb_func
 1786              		.type	thread3HH, %function
 1787              	thread3HH:
 1788              	.LFB20:
 1789              		.loc 1 297 0
 1790              		.cfi_startproc
 1791              		@ args = 0, pretend = 0, frame = 0
 1792              		@ frame_needed = 0, uses_anonymous_args = 0
 1793              	.LVL56:
 1794 0000 08B5     		push	{r3, lr}
 1795              	.LCFI26:
 1796              		.cfi_def_cfa_offset 8
 1797              		.cfi_offset 14, -4
 1798              		.cfi_offset 3, -8
 1799              		.loc 1 300 0
 1800 0002 3220     		movs	r0, #50
 1801              	.LVL57:
 1802 0004 FFF7FEFF 		bl	chThdSleep
 1803              		.loc 1 301 0
 1804 0008 40F20000 		movw	r0, #:lower16:.LANCHOR1
 1805 000c C0F20000 		movt	r0, #:upper16:.LANCHOR1
 1806 0010 FFF7FEFF 		bl	chMtxLock
 1807              		.loc 1 302 0
 1808 0014 0A20     		movs	r0, #10
 1809 0016 FFF7FEFF 		bl	test_cpu_pulse
 1810              		.loc 1 303 0
 1811 001a FFF7FEFF 		bl	chMtxUnlock
 1812              		.loc 1 304 0
 1813 001e 4120     		movs	r0, #65
 1814 0020 FFF7FEFF 		bl	test_emit_token
ARM GAS  /tmp/ccoPtKbb.s 			page 33


 1815              		.loc 1 306 0
 1816 0024 0020     		movs	r0, #0
 1817 0026 08BD     		pop	{r3, pc}
 1818              		.cfi_endproc
 1819              	.LFE20:
 1820              		.size	thread3HH, .-thread3HH
 1821 0028 AFF30080 		.section	.text.thread3H,"ax",%progbits
 1821      AFF30080 
 1822              		.align	2
 1823              		.p2align 4,,15
 1824              		.thumb
 1825              		.thumb_func
 1826              		.type	thread3H, %function
 1827              	thread3H:
 1828              	.LFB19:
 1829              		.loc 1 287 0
 1830              		.cfi_startproc
 1831              		@ args = 0, pretend = 0, frame = 0
 1832              		@ frame_needed = 0, uses_anonymous_args = 0
 1833              	.LVL58:
 1834 0000 08B5     		push	{r3, lr}
 1835              	.LCFI27:
 1836              		.cfi_def_cfa_offset 8
 1837              		.cfi_offset 14, -4
 1838              		.cfi_offset 3, -8
 1839              		.loc 1 290 0
 1840 0002 2820     		movs	r0, #40
 1841              	.LVL59:
 1842 0004 FFF7FEFF 		bl	chThdSleep
 1843              		.loc 1 291 0
 1844 0008 1420     		movs	r0, #20
 1845 000a FFF7FEFF 		bl	test_cpu_pulse
 1846              		.loc 1 292 0
 1847 000e 4220     		movs	r0, #66
 1848 0010 FFF7FEFF 		bl	test_emit_token
 1849              		.loc 1 294 0
 1850 0014 0020     		movs	r0, #0
 1851 0016 08BD     		pop	{r3, pc}
 1852              		.cfi_endproc
 1853              	.LFE19:
 1854              		.size	thread3H, .-thread3H
 1855 0018 AFF30080 		.section	.text.thread3M,"ax",%progbits
 1855      AFF30080 
 1856              		.align	2
 1857              		.p2align 4,,15
 1858              		.thumb
 1859              		.thumb_func
 1860              		.type	thread3M, %function
 1861              	thread3M:
 1862              	.LFB18:
 1863              		.loc 1 275 0
 1864              		.cfi_startproc
 1865              		@ args = 0, pretend = 0, frame = 0
 1866              		@ frame_needed = 0, uses_anonymous_args = 0
 1867              	.LVL60:
 1868 0000 08B5     		push	{r3, lr}
 1869              	.LCFI28:
ARM GAS  /tmp/ccoPtKbb.s 			page 34


 1870              		.cfi_def_cfa_offset 8
 1871              		.cfi_offset 14, -4
 1872              		.cfi_offset 3, -8
 1873              		.loc 1 278 0
 1874 0002 1420     		movs	r0, #20
 1875              	.LVL61:
 1876 0004 FFF7FEFF 		bl	chThdSleep
 1877              		.loc 1 279 0
 1878 0008 40F20000 		movw	r0, #:lower16:.LANCHOR1
 1879 000c C0F20000 		movt	r0, #:upper16:.LANCHOR1
 1880 0010 FFF7FEFF 		bl	chMtxLock
 1881              		.loc 1 280 0
 1882 0014 0A20     		movs	r0, #10
 1883 0016 FFF7FEFF 		bl	test_cpu_pulse
 1884              		.loc 1 281 0
 1885 001a FFF7FEFF 		bl	chMtxUnlock
 1886              		.loc 1 282 0
 1887 001e 4320     		movs	r0, #67
 1888 0020 FFF7FEFF 		bl	test_emit_token
 1889              		.loc 1 284 0
 1890 0024 0020     		movs	r0, #0
 1891 0026 08BD     		pop	{r3, pc}
 1892              		.cfi_endproc
 1893              	.LFE18:
 1894              		.size	thread3M, .-thread3M
 1895 0028 AFF30080 		.section	.text.thread3L,"ax",%progbits
 1895      AFF30080 
 1896              		.align	2
 1897              		.p2align 4,,15
 1898              		.thumb
 1899              		.thumb_func
 1900              		.type	thread3L, %function
 1901              	thread3L:
 1902              	.LFB17:
 1903              		.loc 1 259 0
 1904              		.cfi_startproc
 1905              		@ args = 0, pretend = 0, frame = 0
 1906              		@ frame_needed = 0, uses_anonymous_args = 0
 1907              	.LVL62:
 1908 0000 08B5     		push	{r3, lr}
 1909              	.LCFI29:
 1910              		.cfi_def_cfa_offset 8
 1911              		.cfi_offset 14, -4
 1912              		.cfi_offset 3, -8
 1913              		.loc 1 262 0
 1914 0002 0A20     		movs	r0, #10
 1915              	.LVL63:
 1916 0004 FFF7FEFF 		bl	chThdSleep
 1917              		.loc 1 263 0
 1918 0008 40F20000 		movw	r0, #:lower16:.LANCHOR1
 1919 000c C0F20000 		movt	r0, #:upper16:.LANCHOR1
 1920 0010 FFF7FEFF 		bl	chMtxLock
 1921              		.loc 1 264 0
 1922 0014 1420     		movs	r0, #20
 1923 0016 FFF7FEFF 		bl	test_cpu_pulse
 1924              		.loc 1 265 0
 1925 001a 40F20000 		movw	r0, #:lower16:.LANCHOR2
ARM GAS  /tmp/ccoPtKbb.s 			page 35


 1926 001e C0F20000 		movt	r0, #:upper16:.LANCHOR2
 1927 0022 FFF7FEFF 		bl	chMtxLock
 1928              		.loc 1 266 0
 1929 0026 0A20     		movs	r0, #10
 1930 0028 FFF7FEFF 		bl	test_cpu_pulse
 1931              		.loc 1 267 0
 1932 002c FFF7FEFF 		bl	chMtxUnlock
 1933              		.loc 1 268 0
 1934 0030 0A20     		movs	r0, #10
 1935 0032 FFF7FEFF 		bl	test_cpu_pulse
 1936              		.loc 1 269 0
 1937 0036 FFF7FEFF 		bl	chMtxUnlock
 1938              		.loc 1 270 0
 1939 003a 4420     		movs	r0, #68
 1940 003c FFF7FEFF 		bl	test_emit_token
 1941              		.loc 1 272 0
 1942 0040 0020     		movs	r0, #0
 1943 0042 08BD     		pop	{r3, pc}
 1944              		.cfi_endproc
 1945              	.LFE17:
 1946              		.size	thread3L, .-thread3L
 1947 0044 AFF30080 		.section	.text.thread3LL,"ax",%progbits
 1947      AFF30080 
 1947      AFF30080 
 1948              		.align	2
 1949              		.p2align 4,,15
 1950              		.thumb
 1951              		.thumb_func
 1952              		.type	thread3LL, %function
 1953              	thread3LL:
 1954              	.LFB16:
 1955              		.loc 1 248 0
 1956              		.cfi_startproc
 1957              		@ args = 0, pretend = 0, frame = 0
 1958              		@ frame_needed = 0, uses_anonymous_args = 0
 1959              	.LVL64:
 1960              		.loc 1 251 0
 1961 0000 40F20000 		movw	r0, #:lower16:.LANCHOR2
 1962              	.LVL65:
 1963              		.loc 1 248 0
 1964 0004 08B5     		push	{r3, lr}
 1965              	.LCFI30:
 1966              		.cfi_def_cfa_offset 8
 1967              		.cfi_offset 14, -4
 1968              		.cfi_offset 3, -8
 1969              		.loc 1 251 0
 1970 0006 C0F20000 		movt	r0, #:upper16:.LANCHOR2
 1971 000a FFF7FEFF 		bl	chMtxLock
 1972              		.loc 1 252 0
 1973 000e 1E20     		movs	r0, #30
 1974 0010 FFF7FEFF 		bl	test_cpu_pulse
 1975              		.loc 1 253 0
 1976 0014 FFF7FEFF 		bl	chMtxUnlock
 1977              		.loc 1 254 0
 1978 0018 4520     		movs	r0, #69
 1979 001a FFF7FEFF 		bl	test_emit_token
 1980              		.loc 1 256 0
ARM GAS  /tmp/ccoPtKbb.s 			page 36


 1981 001e 0020     		movs	r0, #0
 1982 0020 08BD     		pop	{r3, pc}
 1983              		.cfi_endproc
 1984              	.LFE16:
 1985              		.size	thread3LL, .-thread3LL
 1986 0022 00BFAFF3 		.section	.text.thread2L,"ax",%progbits
 1986      0080AFF3 
 1986      0080AFF3 
 1986      0080
 1987              		.align	2
 1988              		.p2align 4,,15
 1989              		.thumb
 1990              		.thumb_func
 1991              		.type	thread2L, %function
 1992              	thread2L:
 1993              	.LFB11:
 1994              		.loc 1 157 0
 1995              		.cfi_startproc
 1996              		@ args = 0, pretend = 0, frame = 0
 1997              		@ frame_needed = 0, uses_anonymous_args = 0
 1998              	.LVL66:
 1999              		.loc 1 160 0
 2000 0000 40F20000 		movw	r0, #:lower16:.LANCHOR2
 2001              	.LVL67:
 2002              		.loc 1 157 0
 2003 0004 08B5     		push	{r3, lr}
 2004              	.LCFI31:
 2005              		.cfi_def_cfa_offset 8
 2006              		.cfi_offset 14, -4
 2007              		.cfi_offset 3, -8
 2008              		.loc 1 160 0
 2009 0006 C0F20000 		movt	r0, #:upper16:.LANCHOR2
 2010 000a FFF7FEFF 		bl	chMtxLock
 2011              		.loc 1 161 0
 2012 000e 2820     		movs	r0, #40
 2013 0010 FFF7FEFF 		bl	test_cpu_pulse
 2014              		.loc 1 162 0
 2015 0014 FFF7FEFF 		bl	chMtxUnlock
 2016              		.loc 1 163 0
 2017 0018 0A20     		movs	r0, #10
 2018 001a FFF7FEFF 		bl	test_cpu_pulse
 2019              		.loc 1 164 0
 2020 001e 4320     		movs	r0, #67
 2021 0020 FFF7FEFF 		bl	test_emit_token
 2022              		.loc 1 166 0
 2023 0024 0020     		movs	r0, #0
 2024 0026 08BD     		pop	{r3, pc}
 2025              		.cfi_endproc
 2026              	.LFE11:
 2027              		.size	thread2L, .-thread2L
 2028 0028 AFF30080 		.section	.text.thread2M,"ax",%progbits
 2028      AFF30080 
 2029              		.align	2
 2030              		.p2align 4,,15
 2031              		.thumb
 2032              		.thumb_func
 2033              		.type	thread2M, %function
ARM GAS  /tmp/ccoPtKbb.s 			page 37


 2034              	thread2M:
 2035              	.LFB12:
 2036              		.loc 1 169 0
 2037              		.cfi_startproc
 2038              		@ args = 0, pretend = 0, frame = 0
 2039              		@ frame_needed = 0, uses_anonymous_args = 0
 2040              	.LVL68:
 2041 0000 08B5     		push	{r3, lr}
 2042              	.LCFI32:
 2043              		.cfi_def_cfa_offset 8
 2044              		.cfi_offset 14, -4
 2045              		.cfi_offset 3, -8
 2046              		.loc 1 172 0
 2047 0002 1420     		movs	r0, #20
 2048              	.LVL69:
 2049 0004 FFF7FEFF 		bl	chThdSleep
 2050              		.loc 1 173 0
 2051 0008 2820     		movs	r0, #40
 2052 000a FFF7FEFF 		bl	test_cpu_pulse
 2053              		.loc 1 174 0
 2054 000e 4220     		movs	r0, #66
 2055 0010 FFF7FEFF 		bl	test_emit_token
 2056              		.loc 1 176 0
 2057 0014 0020     		movs	r0, #0
 2058 0016 08BD     		pop	{r3, pc}
 2059              		.cfi_endproc
 2060              	.LFE12:
 2061              		.size	thread2M, .-thread2M
 2062 0018 AFF30080 		.section	.text.thread2H,"ax",%progbits
 2062      AFF30080 
 2063              		.align	2
 2064              		.p2align 4,,15
 2065              		.thumb
 2066              		.thumb_func
 2067              		.type	thread2H, %function
 2068              	thread2H:
 2069              	.LFB13:
 2070              		.loc 1 179 0
 2071              		.cfi_startproc
 2072              		@ args = 0, pretend = 0, frame = 0
 2073              		@ frame_needed = 0, uses_anonymous_args = 0
 2074              	.LVL70:
 2075 0000 08B5     		push	{r3, lr}
 2076              	.LCFI33:
 2077              		.cfi_def_cfa_offset 8
 2078              		.cfi_offset 14, -4
 2079              		.cfi_offset 3, -8
 2080              		.loc 1 182 0
 2081 0002 2820     		movs	r0, #40
 2082              	.LVL71:
 2083 0004 FFF7FEFF 		bl	chThdSleep
 2084              		.loc 1 183 0
 2085 0008 40F20000 		movw	r0, #:lower16:.LANCHOR2
 2086 000c C0F20000 		movt	r0, #:upper16:.LANCHOR2
 2087 0010 FFF7FEFF 		bl	chMtxLock
 2088              		.loc 1 184 0
 2089 0014 0A20     		movs	r0, #10
ARM GAS  /tmp/ccoPtKbb.s 			page 38


 2090 0016 FFF7FEFF 		bl	test_cpu_pulse
 2091              		.loc 1 185 0
 2092 001a FFF7FEFF 		bl	chMtxUnlock
 2093              		.loc 1 186 0
 2094 001e 4120     		movs	r0, #65
 2095 0020 FFF7FEFF 		bl	test_emit_token
 2096              		.loc 1 188 0
 2097 0024 0020     		movs	r0, #0
 2098 0026 08BD     		pop	{r3, pc}
 2099              		.cfi_endproc
 2100              	.LFE13:
 2101              		.size	thread2H, .-thread2H
 2102              		.global	patternmtx
 2103              		.global	testmtx8
 2104              		.global	testmtx7
 2105              		.global	testmtx6
 2106              		.global	testmtx5
 2107              		.global	testmtx4
 2108              		.global	testmtx3
 2109              		.global	testmtx2
 2110              		.global	testmtx1
 2111 0028 AFF30080 		.section	.rodata.testmtx5,"a",%progbits
 2111      AFF30080 
 2112              		.align	2
 2113              		.type	testmtx5, %object
 2114              		.size	testmtx5, 16
 2115              	testmtx5:
 2116 0000 64000000 		.word	.LC10
 2117 0004 00000000 		.word	mtx5_setup
 2118 0008 00000000 		.word	0
 2119 000c 00000000 		.word	mtx5_execute
 2120              		.section	.rodata.testmtx6,"a",%progbits
 2121              		.align	2
 2122              		.type	testmtx6, %object
 2123              		.size	testmtx6, 16
 2124              	testmtx6:
 2125 0000 4C000000 		.word	.LC9
 2126 0004 00000000 		.word	mtx6_setup
 2127 0008 00000000 		.word	0
 2128 000c 00000000 		.word	mtx6_execute
 2129              		.section	.rodata.testmtx7,"a",%progbits
 2130              		.align	2
 2131              		.type	testmtx7, %object
 2132              		.size	testmtx7, 16
 2133              	testmtx7:
 2134 0000 34000000 		.word	.LC8
 2135 0004 00000000 		.word	mtx7_setup
 2136 0008 00000000 		.word	0
 2137 000c 00000000 		.word	mtx7_execute
 2138              		.section	.rodata.testmtx8,"a",%progbits
 2139              		.align	2
 2140              		.type	testmtx8, %object
 2141              		.size	testmtx8, 16
 2142              	testmtx8:
 2143 0000 20000000 		.word	.LC7
 2144 0004 00000000 		.word	mtx8_setup
 2145 0008 00000000 		.word	0
ARM GAS  /tmp/ccoPtKbb.s 			page 39


 2146 000c 00000000 		.word	mtx8_execute
 2147              		.section	.data.m1,"aw",%progbits
 2148              		.align	2
 2149              		.set	.LANCHOR2,. + 0
 2150              		.type	m1, %object
 2151              		.size	m1, 16
 2152              	m1:
 2153 0000 00000000 		.word	m1
 2154 0004 00000000 		.word	m1
 2155 0008 00000000 		.word	0
 2156 000c 00000000 		.word	0
 2157              		.section	.data.m2,"aw",%progbits
 2158              		.align	2
 2159              		.set	.LANCHOR1,. + 0
 2160              		.type	m2, %object
 2161              		.size	m2, 16
 2162              	m2:
 2163 0000 00000000 		.word	m2
 2164 0004 00000000 		.word	m2
 2165 0008 00000000 		.word	0
 2166 000c 00000000 		.word	0
 2167              		.section	.rodata.str1.4,"aMS",%progbits,1
 2168              		.align	2
 2169              	.LC0:
 2170 0000 4100     		.ascii	"A\000"
 2171 0002 0000     		.space	2
 2172              	.LC1:
 2173 0004 4300     		.ascii	"C\000"
 2174 0006 0000     		.space	2
 2175              	.LC2:
 2176 0008 4200     		.ascii	"B\000"
 2177 000a 0000     		.space	2
 2178              	.LC3:
 2179 000c 41424300 		.ascii	"ABC\000"
 2180              	.LC4:
 2181 0010 4500     		.ascii	"E\000"
 2182 0012 0000     		.space	2
 2183              	.LC5:
 2184 0014 4400     		.ascii	"D\000"
 2185 0016 0000     		.space	2
 2186              	.LC6:
 2187 0018 41424344 		.ascii	"ABCDE\000"
 2187      4500
 2188 001e 0000     		.space	2
 2189              	.LC7:
 2190 0020 436F6E64 		.ascii	"CondVar, boost test\000"
 2190      5661722C 
 2190      20626F6F 
 2190      73742074 
 2190      65737400 
 2191              	.LC8:
 2192 0034 436F6E64 		.ascii	"CondVar, broadcast test\000"
 2192      5661722C 
 2192      2062726F 
 2192      61646361 
 2192      73742074 
 2193              	.LC9:
ARM GAS  /tmp/ccoPtKbb.s 			page 40


 2194 004c 436F6E64 		.ascii	"CondVar, signal test\000"
 2194      5661722C 
 2194      20736967 
 2194      6E616C20 
 2194      74657374 
 2195 0061 000000   		.space	3
 2196              	.LC10:
 2197 0064 4D757465 		.ascii	"Mutexes, status\000"
 2197      7865732C 
 2197      20737461 
 2197      74757300 
 2198              	.LC11:
 2199 0074 4D757465 		.ascii	"Mutexes, priority return\000"
 2199      7865732C 
 2199      20707269 
 2199      6F726974 
 2199      79207265 
 2200 008d 000000   		.space	3
 2201              	.LC12:
 2202 0090 4D757465 		.ascii	"Mutexes, priority inheritance, complex case\000"
 2202      7865732C 
 2202      20707269 
 2202      6F726974 
 2202      7920696E 
 2203              	.LC13:
 2204 00bc 4D757465 		.ascii	"Mutexes, priority inheritance, simple case\000"
 2204      7865732C 
 2204      20707269 
 2204      6F726974 
 2204      7920696E 
 2205 00e7 00       		.space	1
 2206              	.LC14:
 2207 00e8 4D757465 		.ascii	"Mutexes, priority enqueuing test\000"
 2207      7865732C 
 2207      20707269 
 2207      6F726974 
 2207      7920656E 
 2208 0109 000000   		.section	.rodata.patternmtx,"a",%progbits
 2209              		.align	2
 2210              		.type	patternmtx, %object
 2211              		.size	patternmtx, 36
 2212              	patternmtx:
 2213 0000 00000000 		.word	testmtx1
 2214 0004 00000000 		.word	testmtx2
 2215 0008 00000000 		.word	testmtx3
 2216 000c 00000000 		.word	testmtx4
 2217 0010 00000000 		.word	testmtx5
 2218 0014 00000000 		.word	testmtx6
 2219 0018 00000000 		.word	testmtx7
 2220 001c 00000000 		.word	testmtx8
 2221 0020 00000000 		.word	0
 2222              		.section	.data.c1,"aw",%progbits
 2223              		.align	2
 2224              		.set	.LANCHOR0,. + 0
 2225              		.type	c1, %object
 2226              		.size	c1, 8
 2227              	c1:
ARM GAS  /tmp/ccoPtKbb.s 			page 41


 2228 0000 00000000 		.word	c1
 2229 0004 00000000 		.word	c1
 2230              		.section	.rodata.testmtx1,"a",%progbits
 2231              		.align	2
 2232              		.type	testmtx1, %object
 2233              		.size	testmtx1, 16
 2234              	testmtx1:
 2235 0000 E8000000 		.word	.LC14
 2236 0004 00000000 		.word	mtx1_setup
 2237 0008 00000000 		.word	0
 2238 000c 00000000 		.word	mtx1_execute
 2239              		.section	.rodata.testmtx2,"a",%progbits
 2240              		.align	2
 2241              		.type	testmtx2, %object
 2242              		.size	testmtx2, 16
 2243              	testmtx2:
 2244 0000 BC000000 		.word	.LC13
 2245 0004 00000000 		.word	mtx2_setup
 2246 0008 00000000 		.word	0
 2247 000c 00000000 		.word	mtx2_execute
 2248              		.section	.rodata.testmtx3,"a",%progbits
 2249              		.align	2
 2250              		.type	testmtx3, %object
 2251              		.size	testmtx3, 16
 2252              	testmtx3:
 2253 0000 90000000 		.word	.LC12
 2254 0004 00000000 		.word	mtx3_setup
 2255 0008 00000000 		.word	0
 2256 000c 00000000 		.word	mtx3_execute
 2257              		.section	.rodata.testmtx4,"a",%progbits
 2258              		.align	2
 2259              		.type	testmtx4, %object
 2260              		.size	testmtx4, 16
 2261              	testmtx4:
 2262 0000 74000000 		.word	.LC11
 2263 0004 00000000 		.word	mtx4_setup
 2264 0008 00000000 		.word	0
 2265 000c 00000000 		.word	mtx4_execute
 2266              		.text
 2267              	.Letext0:
 2268              		.file 2 "/home/tino/ChibiStudio/tools/GNU Tools ARM Embedded/4.6 2012q2/bin/../lib/gcc/arm-none-ea
 2269              		.file 3 "../../ChibiOS/os/ports/GCC/ARMCMx/chtypes.h"
 2270              		.file 4 "../../ChibiOS/os/kernel/include/chlists.h"
 2271              		.file 5 "../../ChibiOS/os/kernel/include/chthreads.h"
 2272              		.file 6 "../../ChibiOS/os/ports/GCC/ARMCMx/chcore_v7m.h"
 2273              		.file 7 "../../ChibiOS/os/kernel/include/chvt.h"
 2274              		.file 8 "../../ChibiOS/os/kernel/include/chschd.h"
 2275              		.file 9 "../../ChibiOS/os/kernel/include/chmtx.h"
 2276              		.file 10 "../../ChibiOS/os/kernel/include/chcond.h"
 2277              		.file 11 "../../ChibiOS/test/test.h"