ARM GAS  /tmp/cc5Rzgt2.s 			page 1


   1              		.syntax unified
   2              		.cpu cortex-m3
   3              		.fpu softvfp
   4              		.eabi_attribute 20, 1
   5              		.eabi_attribute 21, 1
   6              		.eabi_attribute 23, 3
   7              		.eabi_attribute 24, 1
   8              		.eabi_attribute 25, 1
   9              		.eabi_attribute 26, 1
  10              		.eabi_attribute 30, 2
  11              		.eabi_attribute 34, 1
  12              		.eabi_attribute 18, 4
  13              		.thumb
  14              		.file	"testsem.c"
  15              		.text
  16              	.Ltext0:
  17              		.cfi_sections	.debug_frame
  18              		.section	.text.sem3_setup,"ax",%progbits
  19              		.align	2
  20              		.p2align 4,,15
  21              		.thumb
  22              		.thumb_func
  23              		.type	sem3_setup, %function
  24              	sem3_setup:
  25              	.LFB13:
  26              		.file 1 "../../ChibiOS/test/testsem.c"
  27              		.loc 1 204 0
  28              		.cfi_startproc
  29              		@ args = 0, pretend = 0, frame = 0
  30              		@ frame_needed = 0, uses_anonymous_args = 0
  31              		@ link register save eliminated.
  32              		.loc 1 206 0
  33 0000 40F20000 		movw	r0, #:lower16:.LANCHOR0
  34 0004 C0F20000 		movt	r0, #:upper16:.LANCHOR0
  35 0008 0021     		movs	r1, #0
  36              		.loc 1 207 0
  37              		.loc 1 206 0
  38 000a FFF7FEBF 		b	chSemInit
  39              		.cfi_endproc
  40              	.LFE13:
  41              		.size	sem3_setup, .-sem3_setup
  42 000e 00BF     		.section	.text.sem2_setup,"ax",%progbits
  43              		.align	2
  44              		.p2align 4,,15
  45              		.thumb
  46              		.thumb_func
  47              		.type	sem2_setup, %function
  48              	sem2_setup:
  49              	.LFB10:
  50              		.loc 1 128 0
  51              		.cfi_startproc
  52              		@ args = 0, pretend = 0, frame = 0
  53              		@ frame_needed = 0, uses_anonymous_args = 0
  54              		@ link register save eliminated.
  55              		.loc 1 130 0
  56 0000 40F20000 		movw	r0, #:lower16:.LANCHOR0
  57 0004 C0F20000 		movt	r0, #:upper16:.LANCHOR0
ARM GAS  /tmp/cc5Rzgt2.s 			page 2


  58 0008 0021     		movs	r1, #0
  59              		.loc 1 131 0
  60              		.loc 1 130 0
  61 000a FFF7FEBF 		b	chSemInit
  62              		.cfi_endproc
  63              	.LFE10:
  64              		.size	sem2_setup, .-sem2_setup
  65 000e 00BF     		.section	.text.sem1_setup,"ax",%progbits
  66              		.align	2
  67              		.p2align 4,,15
  68              		.thumb
  69              		.thumb_func
  70              		.type	sem1_setup, %function
  71              	sem1_setup:
  72              	.LFB7:
  73              		.loc 1 72 0
  74              		.cfi_startproc
  75              		@ args = 0, pretend = 0, frame = 0
  76              		@ frame_needed = 0, uses_anonymous_args = 0
  77              		@ link register save eliminated.
  78              		.loc 1 74 0
  79 0000 40F20000 		movw	r0, #:lower16:.LANCHOR0
  80 0004 C0F20000 		movt	r0, #:upper16:.LANCHOR0
  81 0008 0021     		movs	r1, #0
  82              		.loc 1 75 0
  83              		.loc 1 74 0
  84 000a FFF7FEBF 		b	chSemInit
  85              		.cfi_endproc
  86              	.LFE7:
  87              		.size	sem1_setup, .-sem1_setup
  88 000e 00BF     		.section	.text.sem4_execute,"ax",%progbits
  89              		.align	2
  90              		.p2align 4,,15
  91              		.thumb
  92              		.thumb_func
  93              		.type	sem4_execute, %function
  94              	sem4_execute:
  95              	.LFB17:
  96              		.loc 1 251 0
  97              		.cfi_startproc
  98              		@ args = 0, pretend = 0, frame = 16
  99              		@ frame_needed = 0, uses_anonymous_args = 0
 100 0000 10B5     		push	{r4, lr}
 101              	.LCFI0:
 102              		.cfi_def_cfa_offset 8
 103              		.cfi_offset 14, -4
 104              		.cfi_offset 4, -8
 105 0002 86B0     		sub	sp, sp, #24
 106              	.LCFI1:
 107              		.cfi_def_cfa_offset 32
 108              		.loc 1 255 0
 109 0004 0021     		movs	r1, #0
 110 0006 03A8     		add	r0, sp, #12
 111 0008 FFF7FEFF 		bl	chSemInit
 112              		.loc 1 256 0
 113 000c 0021     		movs	r1, #0
 114 000e 03A8     		add	r0, sp, #12
ARM GAS  /tmp/cc5Rzgt2.s 			page 3


 115 0010 FFF7FEFF 		bl	chSemReset
 116              		.loc 1 257 0
 117 0014 0599     		ldr	r1, [sp, #20]
 118 0016 0120     		movs	r0, #1
 119 0018 0029     		cmp	r1, #0
 120 001a CCBF     		ite	gt
 121 001c 0021     		movgt	r1, #0
 122 001e 0121     		movle	r1, #1
 123 0020 FFF7FEFF 		bl	_test_assert
 124 0024 08B1     		cbz	r0, .L9
 125              	.L4:
 126              		.loc 1 279 0
 127 0026 06B0     		add	sp, sp, #24
 128 0028 10BD     		pop	{r4, pc}
 129              	.L9:
 130              		.loc 1 261 0
 131 002a 374A     		ldr	r2, .L12
 132              		.loc 1 260 0
 133 002c 3748     		ldr	r0, .L12+4
 134              		.loc 1 261 0
 135 002e 9169     		ldr	r1, [r2, #24]
 136              		.loc 1 260 0
 137 0030 374B     		ldr	r3, .L12+8
 138 0032 8C68     		ldr	r4, [r1, #8]
 139 0034 0068     		ldr	r0, [r0, #0]
 140 0036 621E     		subs	r2, r4, #1
 141 0038 4FF40471 		mov	r1, #528
 142 003c 03AC     		add	r4, sp, #12
 143 003e 0094     		str	r4, [sp, #0]
 144 0040 FFF7FEFF 		bl	chThdCreateStatic
 145 0044 334B     		ldr	r3, .L12+12
 146 0046 0246     		mov	r2, r0
 147 0048 1A60     		str	r2, [r3, #0]
 148              		.loc 1 264 0
 149 004a 03A8     		add	r0, sp, #12
 150 004c FFF7FEFF 		bl	chSemWait
 151              		.loc 1 267 0
 152 0050 0599     		ldr	r1, [sp, #20]
 153 0052 0220     		movs	r0, #2
 154 0054 0029     		cmp	r1, #0
 155 0056 CCBF     		ite	gt
 156 0058 0021     		movgt	r1, #0
 157 005a 0121     		movle	r1, #1
 158 005c FFF7FEFF 		bl	_test_assert
 159 0060 0028     		cmp	r0, #0
 160 0062 E0D1     		bne	.L4
 161              	.LBB2:
 162              		.loc 1 271 0
 163 0064 2023     		movs	r3, #32
 164              	.LVL0:
 165              	@ 271 "../../ChibiOS/test/testsem.c" 1
 166 0066 83F31188 		msr     BASEPRI, r3
 167              	@ 0 "" 2
 168              	.LVL1:
 169              		.thumb
 170              	.LBE2:
 171 006a FFF7FEFF 		bl	dbg_check_lock
ARM GAS  /tmp/cc5Rzgt2.s 			page 4


 172              	.LVL2:
 173 006e 059B     		ldr	r3, [sp, #20]
 174 0070 002B     		cmp	r3, #0
 175 0072 40DD     		ble	.L10
 176              	.L6:
 177              		.loc 1 271 0 is_stmt 0 discriminator 2
 178 0074 FFF7FEFF 		bl	chSchRescheduleS
 179 0078 FFF7FEFF 		bl	dbg_check_unlock
 180              	.LBB3:
 181 007c 0023     		movs	r3, #0
 182              	.LVL3:
 183              	@ 271 "../../ChibiOS/test/testsem.c" 1
 184 007e 83F31188 		msr     BASEPRI, r3
 185              	@ 0 "" 2
 186              	.LVL4:
 187              		.thumb
 188              	.LBE3:
 189              		.loc 1 272 0 is_stmt 1 discriminator 2
 190 0082 0599     		ldr	r1, [sp, #20]
 191 0084 0320     		movs	r0, #3
 192 0086 9942     		cmp	r1, r3
 193              	.LVL5:
 194 0088 D4BF     		ite	le
 195 008a 0021     		movle	r1, #0
 196 008c 0121     		movgt	r1, #1
 197 008e FFF7FEFF 		bl	_test_assert
 198 0092 0028     		cmp	r0, #0
 199 0094 C7D1     		bne	.L4
 200              		.loc 1 273 0
 201 0096 059A     		ldr	r2, [sp, #20]
 202 0098 0420     		movs	r0, #4
 203 009a A2F10101 		sub	r1, r2, #1
 204 009e D1F1000C 		rsbs	ip, r1, #0
 205 00a2 4CEB0101 		adc	r1, ip, r1
 206 00a6 FFF7FEFF 		bl	_test_assert
 207 00aa 0028     		cmp	r0, #0
 208 00ac BBD1     		bne	.L4
 209              	.LBB4:
 210              		.loc 1 276 0
 211 00ae 2023     		movs	r3, #32
 212              	.LVL6:
 213              	@ 276 "../../ChibiOS/test/testsem.c" 1
 214 00b0 83F31188 		msr     BASEPRI, r3
 215              	@ 0 "" 2
 216              	.LVL7:
 217              		.thumb
 218              	.LBE4:
 219 00b4 FFF7FEFF 		bl	dbg_check_lock
 220              	.LVL8:
 221 00b8 0598     		ldr	r0, [sp, #20]
 222 00ba 0028     		cmp	r0, #0
 223 00bc 1FDD     		ble	.L11
 224              	.L7:
 225              		.loc 1 276 0 is_stmt 0 discriminator 2
 226 00be FFF7FEFF 		bl	chSchRescheduleS
 227 00c2 FFF7FEFF 		bl	dbg_check_unlock
 228              	.LBB5:
ARM GAS  /tmp/cc5Rzgt2.s 			page 5


 229 00c6 0023     		movs	r3, #0
 230              	.LVL9:
 231              	@ 276 "../../ChibiOS/test/testsem.c" 1
 232 00c8 83F31188 		msr     BASEPRI, r3
 233              	@ 0 "" 2
 234              	.LVL10:
 235              		.thumb
 236              	.LBE5:
 237              		.loc 1 277 0 is_stmt 1 discriminator 2
 238 00cc 0599     		ldr	r1, [sp, #20]
 239 00ce 0320     		movs	r0, #3
 240 00d0 9942     		cmp	r1, r3
 241              	.LVL11:
 242 00d2 D4BF     		ite	le
 243 00d4 0021     		movle	r1, #0
 244 00d6 0121     		movgt	r1, #1
 245 00d8 FFF7FEFF 		bl	_test_assert
 246 00dc 0028     		cmp	r0, #0
 247 00de A2D1     		bne	.L4
 248              		.loc 1 278 0
 249 00e0 0599     		ldr	r1, [sp, #20]
 250 00e2 A1F10103 		sub	r3, r1, #1
 251 00e6 D3F1000E 		rsbs	lr, r3, #0
 252 00ea 4EEB0301 		adc	r1, lr, r3
 253 00ee 0520     		movs	r0, #5
 254 00f0 FFF7FEFF 		bl	_test_assert
 255 00f4 97E7     		b	.L4
 256              	.L10:
 257              		.loc 1 271 0 discriminator 1
 258 00f6 03A8     		add	r0, sp, #12
 259 00f8 FFF7FEFF 		bl	chSemSignalI
 260 00fc BAE7     		b	.L6
 261              	.L11:
 262              		.loc 1 276 0 discriminator 1
 263 00fe 03A8     		add	r0, sp, #12
 264 0100 FFF7FEFF 		bl	chSemSignalI
 265 0104 DBE7     		b	.L7
 266              	.L13:
 267 0106 00BF     		.align	2
 268              	.L12:
 269 0108 00000000 		.word	rlist
 270 010c 00000000 		.word	wa
 271 0110 00000000 		.word	thread4
 272 0114 00000000 		.word	threads
 273              		.cfi_endproc
 274              	.LFE17:
 275              		.size	sem4_execute, .-sem4_execute
 276 0118 AFF30080 		.section	.text.thread4,"ax",%progbits
 276      AFF30080 
 277              		.align	2
 278              		.p2align 4,,15
 279              		.thumb
 280              		.thumb_func
 281              		.type	thread4, %function
 282              	thread4:
 283              	.LFB16:
 284              		.loc 1 245 0
ARM GAS  /tmp/cc5Rzgt2.s 			page 6


 285              		.cfi_startproc
 286              		@ args = 0, pretend = 0, frame = 0
 287              		@ frame_needed = 0, uses_anonymous_args = 0
 288              	.LVL12:
 289 0000 10B5     		push	{r4, lr}
 290              	.LCFI2:
 291              		.cfi_def_cfa_offset 8
 292              		.cfi_offset 14, -4
 293              		.cfi_offset 4, -8
 294              	.LBB6:
 295              		.loc 1 247 0
 296 0002 2023     		movs	r3, #32
 297              	.LVL13:
 298              	.LBE6:
 299              		.loc 1 245 0
 300 0004 0446     		mov	r4, r0
 301              	.LBB7:
 302              		.loc 1 247 0
 303              	@ 247 "../../ChibiOS/test/testsem.c" 1
 304 0006 83F31188 		msr     BASEPRI, r3
 305              	@ 0 "" 2
 306              	.LVL14:
 307              		.thumb
 308              	.LBE7:
 309 000a FFF7FEFF 		bl	dbg_check_lock
 310              	.LVL15:
 311 000e A368     		ldr	r3, [r4, #8]
 312 0010 002B     		cmp	r3, #0
 313 0012 08DD     		ble	.L16
 314              		.loc 1 247 0 is_stmt 0 discriminator 2
 315 0014 FFF7FEFF 		bl	chSchRescheduleS
 316 0018 FFF7FEFF 		bl	dbg_check_unlock
 317              	.LBB8:
 318 001c 0023     		movs	r3, #0
 319              	.LVL16:
 320              	@ 247 "../../ChibiOS/test/testsem.c" 1
 321 001e 83F31188 		msr     BASEPRI, r3
 322              	@ 0 "" 2
 323              	.LVL17:
 324              		.thumb
 325              	.LBE8:
 326              		.loc 1 249 0 is_stmt 1 discriminator 2
 327 0022 1846     		mov	r0, r3
 328 0024 10BD     		pop	{r4, pc}
 329              	.LVL18:
 330              	.L16:
 331              		.loc 1 247 0 discriminator 1
 332 0026 2046     		mov	r0, r4
 333 0028 FFF7FEFF 		bl	chSemSignalI
 334 002c FFF7FEFF 		bl	chSchRescheduleS
 335 0030 FFF7FEFF 		bl	dbg_check_unlock
 336              	.LBB9:
 337 0034 0023     		movs	r3, #0
 338              	@ 247 "../../ChibiOS/test/testsem.c" 1
 339 0036 83F31188 		msr     BASEPRI, r3
 340              	@ 0 "" 2
 341              	.LVL19:
ARM GAS  /tmp/cc5Rzgt2.s 			page 7


 342              		.thumb
 343              	.LBE9:
 344              		.loc 1 249 0 discriminator 1
 345 003a 1846     		mov	r0, r3
 346 003c 10BD     		pop	{r4, pc}
 347              		.cfi_endproc
 348              	.LFE16:
 349              		.size	thread4, .-thread4
 350 003e 00BF     		.section	.text.thread3,"ax",%progbits
 351              		.align	2
 352              		.p2align 4,,15
 353              		.thumb
 354              		.thumb_func
 355              		.type	thread3, %function
 356              	thread3:
 357              	.LFB14:
 358              		.loc 1 209 0
 359              		.cfi_startproc
 360              		@ args = 0, pretend = 0, frame = 0
 361              		@ frame_needed = 0, uses_anonymous_args = 0
 362              	.LVL20:
 363 0000 10B5     		push	{r4, lr}
 364              	.LCFI3:
 365              		.cfi_def_cfa_offset 8
 366              		.cfi_offset 14, -4
 367              		.cfi_offset 4, -8
 368              		.loc 1 212 0
 369 0002 40F20004 		movw	r4, #:lower16:.LANCHOR0
 370 0006 C0F20004 		movt	r4, #:upper16:.LANCHOR0
 371 000a 2046     		mov	r0, r4
 372              	.LVL21:
 373 000c FFF7FEFF 		bl	chSemWait
 374              		.loc 1 213 0
 375 0010 2046     		mov	r0, r4
 376 0012 FFF7FEFF 		bl	chSemSignal
 377              		.loc 1 215 0
 378 0016 0020     		movs	r0, #0
 379 0018 10BD     		pop	{r4, pc}
 380              		.cfi_endproc
 381              	.LFE14:
 382              		.size	thread3, .-thread3
 383 001a 00BFAFF3 		.section	.text.thread1,"ax",%progbits
 383      0080
 384              		.align	2
 385              		.p2align 4,,15
 386              		.thumb
 387              		.thumb_func
 388              		.type	thread1, %function
 389              	thread1:
 390              	.LFB8:
 391              		.loc 1 77 0
 392              		.cfi_startproc
 393              		@ args = 0, pretend = 0, frame = 0
 394              		@ frame_needed = 0, uses_anonymous_args = 0
 395              	.LVL22:
 396              		.loc 1 79 0
 397 0000 40F20003 		movw	r3, #:lower16:.LANCHOR0
ARM GAS  /tmp/cc5Rzgt2.s 			page 8


 398 0004 C0F20003 		movt	r3, #:upper16:.LANCHOR0
 399              		.loc 1 77 0
 400 0008 10B5     		push	{r4, lr}
 401              	.LCFI4:
 402              		.cfi_def_cfa_offset 8
 403              		.cfi_offset 14, -4
 404              		.cfi_offset 4, -8
 405              		.loc 1 77 0
 406 000a 0446     		mov	r4, r0
 407              		.loc 1 79 0
 408 000c 1846     		mov	r0, r3
 409              	.LVL23:
 410 000e FFF7FEFF 		bl	chSemWait
 411              		.loc 1 80 0
 412 0012 2078     		ldrb	r0, [r4, #0]	@ zero_extendqisi2
 413 0014 FFF7FEFF 		bl	test_emit_token
 414              		.loc 1 82 0
 415 0018 0020     		movs	r0, #0
 416 001a 10BD     		pop	{r4, pc}
 417              		.cfi_endproc
 418              	.LFE8:
 419              		.size	thread1, .-thread1
 420 001c AFF30080 		.section	.text.thread2,"ax",%progbits
 421              		.align	2
 422              		.p2align 4,,15
 423              		.thumb
 424              		.thumb_func
 425              		.type	thread2, %function
 426              	thread2:
 427              	.LFB11:
 428              		.loc 1 133 0
 429              		.cfi_startproc
 430              		@ args = 0, pretend = 0, frame = 0
 431              		@ frame_needed = 0, uses_anonymous_args = 0
 432              	.LVL24:
 433 0000 08B5     		push	{r3, lr}
 434              	.LCFI5:
 435              		.cfi_def_cfa_offset 8
 436              		.cfi_offset 14, -4
 437              		.cfi_offset 3, -8
 438              		.loc 1 136 0
 439 0002 3220     		movs	r0, #50
 440              	.LVL25:
 441 0004 FFF7FEFF 		bl	chThdSleep
 442              	.LBB10:
 443              		.loc 1 137 0
 444 0008 2023     		movs	r3, #32
 445              	.LVL26:
 446              	@ 137 "../../ChibiOS/test/testsem.c" 1
 447 000a 83F31188 		msr     BASEPRI, r3
 448              	@ 0 "" 2
 449              	.LVL27:
 450              		.thumb
 451              	.LBE10:
 452 000e FFF7FEFF 		bl	dbg_check_lock
 453              	.LVL28:
 454              		.loc 1 138 0
ARM GAS  /tmp/cc5Rzgt2.s 			page 9


 455 0012 40F20000 		movw	r0, #:lower16:.LANCHOR0
 456 0016 C0F20000 		movt	r0, #:upper16:.LANCHOR0
 457 001a FFF7FEFF 		bl	chSemSignalI
 458              		.loc 1 139 0
 459 001e FFF7FEFF 		bl	chSchRescheduleS
 460              		.loc 1 140 0
 461 0022 FFF7FEFF 		bl	dbg_check_unlock
 462              	.LBB11:
 463 0026 0023     		movs	r3, #0
 464              	.LVL29:
 465              	@ 140 "../../ChibiOS/test/testsem.c" 1
 466 0028 83F31188 		msr     BASEPRI, r3
 467              	@ 0 "" 2
 468              	.LVL30:
 469              		.thumb
 470              	.LBE11:
 471              		.loc 1 142 0
 472 002c 1846     		mov	r0, r3
 473 002e 08BD     		pop	{r3, pc}
 474              		.cfi_endproc
 475              	.LFE11:
 476              		.size	thread2, .-thread2
 477              		.section	.text.sem1_execute,"ax",%progbits
 478              		.align	2
 479              		.p2align 4,,15
 480              		.thumb
 481              		.thumb_func
 482              		.type	sem1_execute, %function
 483              	sem1_execute:
 484              	.LFB9:
 485              		.loc 1 84 0
 486              		.cfi_startproc
 487              		@ args = 0, pretend = 0, frame = 0
 488              		@ frame_needed = 0, uses_anonymous_args = 0
 489 0000 2DE9F043 		push	{r4, r5, r6, r7, r8, r9, lr}
 490              	.LCFI6:
 491              		.cfi_def_cfa_offset 28
 492              		.cfi_offset 14, -4
 493              		.cfi_offset 9, -8
 494              		.cfi_offset 8, -12
 495              		.cfi_offset 7, -16
 496              		.cfi_offset 6, -20
 497              		.cfi_offset 5, -24
 498              		.cfi_offset 4, -28
 499              		.loc 1 86 0
 500 0004 4A4E     		ldr	r6, .L23
 501 0006 4B4C     		ldr	r4, .L23+4
 502 0008 B769     		ldr	r7, [r6, #24]
 503 000a D4F80090 		ldr	r9, [r4, #0]
 504 000e B868     		ldr	r0, [r7, #8]
 505 0010 494F     		ldr	r7, .L23+8
 506              		.loc 1 84 0
 507 0012 83B0     		sub	sp, sp, #12
 508              	.LCFI7:
 509              		.cfi_def_cfa_offset 40
 510              		.loc 1 86 0
 511 0014 421D     		adds	r2, r0, #5
ARM GAS  /tmp/cc5Rzgt2.s 			page 10


 512 0016 4FF40471 		mov	r1, #528
 513 001a 484B     		ldr	r3, .L23+12
 514 001c 4846     		mov	r0, r9
 515 001e 0097     		str	r7, [sp, #0]
 516 0020 FFF7FEFF 		bl	chThdCreateStatic
 517              		.loc 1 87 0
 518 0024 B569     		ldr	r5, [r6, #24]
 519 0026 DFF824E1 		ldr	lr, .L23+28
 520 002a AA68     		ldr	r2, [r5, #8]
 521              		.loc 1 86 0
 522 002c 444D     		ldr	r5, .L23+16
 523 002e 8046     		mov	r8, r0
 524 0030 C5F80080 		str	r8, [r5, #0]
 525              		.loc 1 87 0
 526 0034 6068     		ldr	r0, [r4, #4]
 527 0036 0132     		adds	r2, r2, #1
 528 0038 4FF40471 		mov	r1, #528
 529 003c 3F4B     		ldr	r3, .L23+12
 530 003e CDF800E0 		str	lr, [sp, #0]
 531 0042 FFF7FEFF 		bl	chThdCreateStatic
 532              		.loc 1 88 0
 533 0046 B369     		ldr	r3, [r6, #24]
 534              		.loc 1 87 0
 535 0048 8446     		mov	ip, r0
 536              		.loc 1 88 0
 537 004a 9968     		ldr	r1, [r3, #8]
 538 004c DFF80081 		ldr	r8, .L23+32
 539 0050 CA1C     		adds	r2, r1, #3
 540              		.loc 1 87 0
 541 0052 C5F804C0 		str	ip, [r5, #4]
 542              		.loc 1 88 0
 543 0056 A068     		ldr	r0, [r4, #8]
 544 0058 4FF40471 		mov	r1, #528
 545 005c 374B     		ldr	r3, .L23+12
 546 005e CDF80080 		str	r8, [sp, #0]
 547 0062 FFF7FEFF 		bl	chThdCreateStatic
 548              		.loc 1 89 0
 549 0066 B269     		ldr	r2, [r6, #24]
 550 0068 DFF8E8C0 		ldr	ip, .L23+36
 551 006c 9368     		ldr	r3, [r2, #8]
 552              		.loc 1 88 0
 553 006e 8646     		mov	lr, r0
 554              		.loc 1 89 0
 555 0070 1A1D     		adds	r2, r3, #4
 556              		.loc 1 88 0
 557 0072 C5F808E0 		str	lr, [r5, #8]
 558              		.loc 1 89 0
 559 0076 E068     		ldr	r0, [r4, #12]
 560 0078 4FF40471 		mov	r1, #528
 561 007c 2F4B     		ldr	r3, .L23+12
 562 007e CDF800C0 		str	ip, [sp, #0]
 563 0082 FFF7FEFF 		bl	chThdCreateStatic
 564              		.loc 1 90 0
 565 0086 B169     		ldr	r1, [r6, #24]
 566 0088 DFF8CCE0 		ldr	lr, .L23+40
 567 008c 8A68     		ldr	r2, [r1, #8]
 568              		.loc 1 89 0
ARM GAS  /tmp/cc5Rzgt2.s 			page 11


 569 008e 8046     		mov	r8, r0
 570              		.loc 1 90 0
 571 0090 0232     		adds	r2, r2, #2
 572 0092 4FF40471 		mov	r1, #528
 573              		.loc 1 89 0
 574 0096 C5F80C80 		str	r8, [r5, #12]
 575              		.loc 1 90 0
 576 009a 2069     		ldr	r0, [r4, #16]
 577 009c 274B     		ldr	r3, .L23+12
 578 009e CDF800E0 		str	lr, [sp, #0]
 579 00a2 FFF7FEFF 		bl	chThdCreateStatic
 580              		.loc 1 91 0
 581 00a6 274C     		ldr	r4, .L23+20
 582              		.loc 1 90 0
 583 00a8 0346     		mov	r3, r0
 584 00aa 2B61     		str	r3, [r5, #16]
 585              		.loc 1 91 0
 586 00ac 2046     		mov	r0, r4
 587 00ae FFF7FEFF 		bl	chSemSignal
 588              		.loc 1 92 0
 589 00b2 2046     		mov	r0, r4
 590 00b4 FFF7FEFF 		bl	chSemSignal
 591              		.loc 1 93 0
 592 00b8 2046     		mov	r0, r4
 593 00ba FFF7FEFF 		bl	chSemSignal
 594              		.loc 1 94 0
 595 00be 2046     		mov	r0, r4
 596 00c0 FFF7FEFF 		bl	chSemSignal
 597              		.loc 1 95 0
 598 00c4 2046     		mov	r0, r4
 599 00c6 FFF7FEFF 		bl	chSemSignal
 600              		.loc 1 96 0
 601 00ca FFF7FEFF 		bl	test_wait_threads
 602              		.loc 1 100 0
 603 00ce 0120     		movs	r0, #1
 604 00d0 1D49     		ldr	r1, .L23+24
 605 00d2 FFF7FEFF 		bl	_test_assert_sequence
 606 00d6 8046     		mov	r8, r0
 607 00d8 10B1     		cbz	r0, .L22
 608              		.loc 1 108 0
 609 00da 03B0     		add	sp, sp, #12
 610 00dc BDE8F083 		pop	{r4, r5, r6, r7, r8, r9, pc}
 611              	.L22:
 612              		.loc 1 102 0
 613 00e0 B169     		ldr	r1, [r6, #24]
 614 00e2 4846     		mov	r0, r9
 615 00e4 8A68     		ldr	r2, [r1, #8]
 616 00e6 154B     		ldr	r3, .L23+12
 617 00e8 4FF40471 		mov	r1, #528
 618 00ec 0532     		adds	r2, r2, #5
 619 00ee 0097     		str	r7, [sp, #0]
 620 00f0 FFF7FEFF 		bl	chThdCreateStatic
 621              	.LBB12:
 622              		.loc 1 103 0
 623 00f4 2023     		movs	r3, #32
 624              	.LVL31:
 625              	.LBE12:
ARM GAS  /tmp/cc5Rzgt2.s 			page 12


 626              		.loc 1 102 0
 627 00f6 2860     		str	r0, [r5, #0]
 628              	.LBB13:
 629              		.loc 1 103 0
 630              	@ 103 "../../ChibiOS/test/testsem.c" 1
 631 00f8 83F31188 		msr     BASEPRI, r3
 632              	@ 0 "" 2
 633              	.LVL32:
 634              		.thumb
 635              	.LBE13:
 636 00fc FFF7FEFF 		bl	dbg_check_lock
 637              	.LVL33:
 638              		.loc 1 104 0
 639 0100 2046     		mov	r0, r4
 640 0102 0221     		movs	r1, #2
 641 0104 FFF7FEFF 		bl	chSemAddCounterI
 642              		.loc 1 105 0
 643 0108 FFF7FEFF 		bl	dbg_check_unlock
 644              	.LBB14:
 645 010c 4346     		mov	r3, r8
 646              	.LVL34:
 647              	@ 105 "../../ChibiOS/test/testsem.c" 1
 648 010e 83F31188 		msr     BASEPRI, r3
 649              	@ 0 "" 2
 650              	.LVL35:
 651              		.thumb
 652              	.LBE14:
 653              		.loc 1 106 0
 654 0112 FFF7FEFF 		bl	test_wait_threads
 655              	.LVL36:
 656              		.loc 1 107 0
 657 0116 A368     		ldr	r3, [r4, #8]
 658 0118 A3F10101 		sub	r1, r3, #1
 659 011c D1F1000C 		rsbs	ip, r1, #0
 660 0120 4CEB0101 		adc	r1, ip, r1
 661 0124 0220     		movs	r0, #2
 662              		.loc 1 108 0
 663 0126 03B0     		add	sp, sp, #12
 664 0128 BDE8F043 		pop	{r4, r5, r6, r7, r8, r9, lr}
 665              		.loc 1 107 0
 666 012c FFF7FEBF 		b	_test_assert
 667              	.L24:
 668              		.align	2
 669              	.L23:
 670 0130 00000000 		.word	rlist
 671 0134 00000000 		.word	wa
 672 0138 00000000 		.word	.LC0
 673 013c 00000000 		.word	thread1
 674 0140 00000000 		.word	threads
 675 0144 00000000 		.word	.LANCHOR0
 676 0148 14000000 		.word	.LC5
 677 014c 04000000 		.word	.LC1
 678 0150 08000000 		.word	.LC2
 679 0154 0C000000 		.word	.LC3
 680 0158 10000000 		.word	.LC4
 681              		.cfi_endproc
 682              	.LFE9:
ARM GAS  /tmp/cc5Rzgt2.s 			page 13


 683              		.size	sem1_execute, .-sem1_execute
 684 015c AFF30080 		.section	.text.sem3_execute,"ax",%progbits
 685              		.align	2
 686              		.p2align 4,,15
 687              		.thumb
 688              		.thumb_func
 689              		.type	sem3_execute, %function
 690              	sem3_execute:
 691              	.LFB15:
 692              		.loc 1 217 0
 693              		.cfi_startproc
 694              		@ args = 0, pretend = 0, frame = 0
 695              		@ frame_needed = 0, uses_anonymous_args = 0
 696              		.loc 1 219 0
 697 0000 2349     		ldr	r1, .L28
 698              		.loc 1 217 0
 699 0002 30B5     		push	{r4, r5, lr}
 700              	.LCFI8:
 701              		.cfi_def_cfa_offset 12
 702              		.cfi_offset 14, -4
 703              		.cfi_offset 5, -8
 704              		.cfi_offset 4, -12
 705              		.loc 1 219 0
 706 0004 8C69     		ldr	r4, [r1, #24]
 707 0006 2348     		ldr	r0, .L28+4
 708 0008 A568     		ldr	r5, [r4, #8]
 709              		.loc 1 217 0
 710 000a 83B0     		sub	sp, sp, #12
 711              	.LCFI9:
 712              		.cfi_def_cfa_offset 24
 713              		.loc 1 219 0
 714 000c 6A1C     		adds	r2, r5, #1
 715 000e 224B     		ldr	r3, .L28+8
 716 0010 4FF40471 		mov	r1, #528
 717 0014 0025     		movs	r5, #0
 718 0016 0068     		ldr	r0, [r0, #0]
 719 0018 0095     		str	r5, [sp, #0]
 720 001a FFF7FEFF 		bl	chThdCreateStatic
 721              		.loc 1 220 0
 722 001e 1F4C     		ldr	r4, .L28+12
 723              		.loc 1 219 0
 724 0020 1F4B     		ldr	r3, .L28+16
 725 0022 0246     		mov	r2, r0
 726 0024 1A60     		str	r2, [r3, #0]
 727              		.loc 1 220 0
 728 0026 2146     		mov	r1, r4
 729 0028 2046     		mov	r0, r4
 730 002a FFF7FEFF 		bl	chSemSignalWait
 731              		.loc 1 221 0
 732 002e 2368     		ldr	r3, [r4, #0]
 733 0030 0120     		movs	r0, #1
 734 0032 1A1B     		subs	r2, r3, r4
 735 0034 5142     		rsbs	r1, r2, #0
 736 0036 41EB0201 		adc	r1, r1, r2
 737 003a FFF7FEFF 		bl	_test_assert
 738 003e 08B1     		cbz	r0, .L27
 739              	.L25:
ARM GAS  /tmp/cc5Rzgt2.s 			page 14


 740              		.loc 1 227 0
 741 0040 03B0     		add	sp, sp, #12
 742 0042 30BD     		pop	{r4, r5, pc}
 743              	.L27:
 744              		.loc 1 222 0
 745 0044 A268     		ldr	r2, [r4, #8]
 746 0046 0220     		movs	r0, #2
 747 0048 C5EB020C 		rsb	ip, r5, r2
 748 004c DCF10003 		rsbs	r3, ip, #0
 749 0050 43EB0C01 		adc	r1, r3, ip
 750 0054 FFF7FEFF 		bl	_test_assert
 751 0058 0028     		cmp	r0, #0
 752 005a F1D1     		bne	.L25
 753              	.LBB17:
 754              	.LBB18:
 755              		.loc 1 224 0
 756 005c 2146     		mov	r1, r4
 757 005e 2046     		mov	r0, r4
 758 0060 FFF7FEFF 		bl	chSemSignalWait
 759              		.loc 1 225 0
 760 0064 2268     		ldr	r2, [r4, #0]
 761 0066 0320     		movs	r0, #3
 762 0068 131B     		subs	r3, r2, r4
 763 006a 5942     		rsbs	r1, r3, #0
 764 006c 41EB0301 		adc	r1, r1, r3
 765 0070 FFF7FEFF 		bl	_test_assert
 766 0074 0028     		cmp	r0, #0
 767 0076 E3D1     		bne	.L25
 768              		.loc 1 226 0
 769 0078 A368     		ldr	r3, [r4, #8]
 770 007a 591B     		subs	r1, r3, r5
 771 007c 4842     		rsbs	r0, r1, #0
 772 007e 40EB0101 		adc	r1, r0, r1
 773 0082 0420     		movs	r0, #4
 774              	.LBE18:
 775              	.LBE17:
 776              		.loc 1 227 0
 777 0084 03B0     		add	sp, sp, #12
 778 0086 BDE83040 		pop	{r4, r5, lr}
 779              	.LBB20:
 780              	.LBB19:
 781              		.loc 1 226 0
 782 008a FFF7FEBF 		b	_test_assert
 783              	.L29:
 784 008e 00BF     		.align	2
 785              	.L28:
 786 0090 00000000 		.word	rlist
 787 0094 00000000 		.word	wa
 788 0098 00000000 		.word	thread3
 789 009c 00000000 		.word	.LANCHOR0
 790 00a0 00000000 		.word	threads
 791              	.LBE19:
 792              	.LBE20:
 793              		.cfi_endproc
 794              	.LFE15:
 795              		.size	sem3_execute, .-sem3_execute
 796 00a4 AFF30080 		.section	.text.sem2_execute,"ax",%progbits
ARM GAS  /tmp/cc5Rzgt2.s 			page 15


 796      AFF30080 
 796      AFF30080 
 797              		.align	2
 798              		.p2align 4,,15
 799              		.thumb
 800              		.thumb_func
 801              		.type	sem2_execute, %function
 802              	sem2_execute:
 803              	.LFB12:
 804              		.loc 1 144 0
 805              		.cfi_startproc
 806              		@ args = 0, pretend = 0, frame = 0
 807              		@ frame_needed = 0, uses_anonymous_args = 0
 808 0000 70B5     		push	{r4, r5, r6, lr}
 809              	.LCFI10:
 810              		.cfi_def_cfa_offset 16
 811              		.cfi_offset 14, -4
 812              		.cfi_offset 6, -8
 813              		.cfi_offset 5, -12
 814              		.cfi_offset 4, -16
 815              		.loc 1 152 0
 816 0002 9E4C     		ldr	r4, .L33
 817 0004 0021     		movs	r1, #0
 818              		.loc 1 144 0
 819 0006 82B0     		sub	sp, sp, #8
 820              	.LCFI11:
 821              		.cfi_def_cfa_offset 24
 822              		.loc 1 152 0
 823 0008 2046     		mov	r0, r4
 824 000a FFF7FEFF 		bl	chSemWaitTimeout
 825              	.LVL37:
 826              		.loc 1 153 0
 827 000e A0F1FF30 		sub	r0, r0, #-1
 828              	.LVL38:
 829 0012 4142     		rsbs	r1, r0, #0
 830 0014 41EB0001 		adc	r1, r1, r0
 831 0018 0120     		movs	r0, #1
 832              	.LVL39:
 833 001a FFF7FEFF 		bl	_test_assert
 834 001e 08B1     		cbz	r0, .L32
 835              	.L30:
 836              		.loc 1 182 0
 837 0020 02B0     		add	sp, sp, #8
 838 0022 70BD     		pop	{r4, r5, r6, pc}
 839              	.L32:
 840              		.loc 1 154 0
 841 0024 2168     		ldr	r1, [r4, #0]
 842 0026 0220     		movs	r0, #2
 843 0028 0A1B     		subs	r2, r1, r4
 844 002a 5342     		rsbs	r3, r2, #0
 845 002c 43EB0201 		adc	r1, r3, r2
 846 0030 FFF7FEFF 		bl	_test_assert
 847 0034 0028     		cmp	r0, #0
 848 0036 F3D1     		bne	.L30
 849              		.loc 1 155 0
 850 0038 A568     		ldr	r5, [r4, #8]
 851 003a 0320     		movs	r0, #3
ARM GAS  /tmp/cc5Rzgt2.s 			page 16


 852 003c D5F10101 		rsbs	r1, r5, #1
 853 0040 38BF     		it	cc
 854 0042 0021     		movcc	r1, #0
 855 0044 FFF7FEFF 		bl	_test_assert
 856 0048 0546     		mov	r5, r0
 857 004a 0028     		cmp	r0, #0
 858 004c E8D1     		bne	.L30
 859              	.LBB23:
 860              	.LBB24:
 861              		.loc 1 160 0
 862 004e 8C4B     		ldr	r3, .L33+4
 863 0050 8C48     		ldr	r0, .L33+8
 864 0052 9A69     		ldr	r2, [r3, #24]
 865 0054 0068     		ldr	r0, [r0, #0]
 866 0056 9168     		ldr	r1, [r2, #8]
 867 0058 8B4B     		ldr	r3, .L33+12
 868 005a 4A1E     		subs	r2, r1, #1
 869 005c 4FF40471 		mov	r1, #528
 870 0060 0095     		str	r5, [sp, #0]
 871 0062 FFF7FEFF 		bl	chThdCreateStatic
 872 0066 894B     		ldr	r3, .L33+16
 873 0068 0246     		mov	r2, r0
 874              		.loc 1 162 0
 875 006a 4FF4FA71 		mov	r1, #500
 876              		.loc 1 160 0
 877 006e 1A60     		str	r2, [r3, #0]
 878              		.loc 1 162 0
 879 0070 2046     		mov	r0, r4
 880 0072 FFF7FEFF 		bl	chSemWaitTimeout
 881 0076 0546     		mov	r5, r0
 882              	.LVL40:
 883              		.loc 1 163 0
 884 0078 FFF7FEFF 		bl	test_wait_threads
 885              	.LVL41:
 886              		.loc 1 164 0
 887 007c D5F10101 		rsbs	r1, r5, #1
 888 0080 38BF     		it	cc
 889 0082 0021     		movcc	r1, #0
 890 0084 0420     		movs	r0, #4
 891 0086 FFF7FEFF 		bl	_test_assert
 892 008a 0028     		cmp	r0, #0
 893 008c C8D1     		bne	.L30
 894              		.loc 1 165 0
 895 008e 2268     		ldr	r2, [r4, #0]
 896 0090 0520     		movs	r0, #5
 897 0092 111B     		subs	r1, r2, r4
 898 0094 D1F1000C 		rsbs	ip, r1, #0
 899 0098 4CEB0101 		adc	r1, ip, r1
 900 009c FFF7FEFF 		bl	_test_assert
 901 00a0 0028     		cmp	r0, #0
 902 00a2 BDD1     		bne	.L30
 903              		.loc 1 166 0
 904 00a4 A368     		ldr	r3, [r4, #8]
 905 00a6 0620     		movs	r0, #6
 906 00a8 D3F10101 		rsbs	r1, r3, #1
 907 00ac 38BF     		it	cc
 908 00ae 0021     		movcc	r1, #0
ARM GAS  /tmp/cc5Rzgt2.s 			page 17


 909 00b0 FFF7FEFF 		bl	_test_assert
 910 00b4 0028     		cmp	r0, #0
 911 00b6 B3D1     		bne	.L30
 912              		.loc 1 172 0
 913 00b8 754E     		ldr	r6, .L33+20
 914              		.loc 1 171 0
 915 00ba FFF7FEFF 		bl	test_wait_tick
 916              		.loc 1 174 0
 917 00be 4120     		movs	r0, #65
 918              		.loc 1 172 0
 919 00c0 F668     		ldr	r6, [r6, #12]
 920              	.LVL42:
 921              		.loc 1 174 0
 922 00c2 FFF7FEFF 		bl	test_emit_token
 923              		.loc 1 175 0
 924 00c6 4FF4FA71 		mov	r1, #500
 925 00ca 2046     		mov	r0, r4
 926 00cc FFF7FEFF 		bl	chSemWaitTimeout
 927              	.LVL43:
 928              		.loc 1 176 0
 929 00d0 A0F1FF31 		sub	r1, r0, #-1
 930 00d4 4842     		rsbs	r0, r1, #0
 931              	.LVL44:
 932 00d6 40EB0101 		adc	r1, r0, r1
 933              	.LVL45:
 934 00da 0720     		movs	r0, #7
 935 00dc FFF7FEFF 		bl	_test_assert
 936 00e0 0028     		cmp	r0, #0
 937 00e2 9DD1     		bne	.L30
 938              		.loc 1 177 0
 939 00e4 2168     		ldr	r1, [r4, #0]
 940 00e6 0820     		movs	r0, #8
 941 00e8 0B1B     		subs	r3, r1, r4
 942 00ea 5A42     		rsbs	r2, r3, #0
 943 00ec 42EB0301 		adc	r1, r2, r3
 944 00f0 FFF7FEFF 		bl	_test_assert
 945 00f4 0028     		cmp	r0, #0
 946 00f6 93D1     		bne	.L30
 947              		.loc 1 178 0
 948 00f8 A268     		ldr	r2, [r4, #8]
 949 00fa 0920     		movs	r0, #9
 950 00fc D2F10101 		rsbs	r1, r2, #1
 951 0100 38BF     		it	cc
 952 0102 0021     		movcc	r1, #0
 953 0104 FFF7FEFF 		bl	_test_assert
 954 0108 0028     		cmp	r0, #0
 955 010a 89D1     		bne	.L30
 956              	.LVL46:
 957              		.loc 1 174 0
 958 010c 4220     		movs	r0, #66
 959 010e FFF7FEFF 		bl	test_emit_token
 960              		.loc 1 175 0
 961 0112 4FF4FA71 		mov	r1, #500
 962 0116 2046     		mov	r0, r4
 963 0118 FFF7FEFF 		bl	chSemWaitTimeout
 964              	.LVL47:
 965              		.loc 1 176 0
ARM GAS  /tmp/cc5Rzgt2.s 			page 18


 966 011c A0F1FF33 		sub	r3, r0, #-1
 967 0120 5842     		rsbs	r0, r3, #0
 968              	.LVL48:
 969 0122 40EB0301 		adc	r1, r0, r3
 970 0126 0720     		movs	r0, #7
 971 0128 FFF7FEFF 		bl	_test_assert
 972              	.LVL49:
 973 012c 0028     		cmp	r0, #0
 974 012e 7FF477AF 		bne	.L30
 975              		.loc 1 177 0
 976 0132 2268     		ldr	r2, [r4, #0]
 977 0134 0820     		movs	r0, #8
 978 0136 111B     		subs	r1, r2, r4
 979 0138 4D42     		rsbs	r5, r1, #0
 980 013a 45EB0101 		adc	r1, r5, r1
 981 013e FFF7FEFF 		bl	_test_assert
 982 0142 2546     		mov	r5, r4
 983 0144 0028     		cmp	r0, #0
 984 0146 7FF46BAF 		bne	.L30
 985              		.loc 1 178 0
 986 014a A368     		ldr	r3, [r4, #8]
 987 014c 0920     		movs	r0, #9
 988 014e D3F10101 		rsbs	r1, r3, #1
 989 0152 38BF     		it	cc
 990 0154 0021     		movcc	r1, #0
 991 0156 FFF7FEFF 		bl	_test_assert
 992 015a 0028     		cmp	r0, #0
 993 015c 7FF460AF 		bne	.L30
 994              	.LVL50:
 995              		.loc 1 174 0
 996 0160 4320     		movs	r0, #67
 997 0162 FFF7FEFF 		bl	test_emit_token
 998              		.loc 1 175 0
 999 0166 4FF4FA71 		mov	r1, #500
 1000 016a 2046     		mov	r0, r4
 1001 016c FFF7FEFF 		bl	chSemWaitTimeout
 1002              	.LVL51:
 1003              		.loc 1 176 0
 1004 0170 A0F1FF31 		sub	r1, r0, #-1
 1005 0174 4842     		rsbs	r0, r1, #0
 1006              	.LVL52:
 1007 0176 40EB0101 		adc	r1, r0, r1
 1008              	.LVL53:
 1009 017a 0720     		movs	r0, #7
 1010 017c FFF7FEFF 		bl	_test_assert
 1011 0180 0028     		cmp	r0, #0
 1012 0182 7FF44DAF 		bne	.L30
 1013              		.loc 1 177 0
 1014 0186 2168     		ldr	r1, [r4, #0]
 1015 0188 0820     		movs	r0, #8
 1016 018a 0B1B     		subs	r3, r1, r4
 1017 018c 5A42     		rsbs	r2, r3, #0
 1018 018e 42EB0301 		adc	r1, r2, r3
 1019 0192 FFF7FEFF 		bl	_test_assert
 1020 0196 0028     		cmp	r0, #0
 1021 0198 7FF442AF 		bne	.L30
 1022              		.loc 1 178 0
ARM GAS  /tmp/cc5Rzgt2.s 			page 19


 1023 019c A268     		ldr	r2, [r4, #8]
 1024 019e 0920     		movs	r0, #9
 1025 01a0 D2F10101 		rsbs	r1, r2, #1
 1026 01a4 38BF     		it	cc
 1027 01a6 0021     		movcc	r1, #0
 1028 01a8 FFF7FEFF 		bl	_test_assert
 1029 01ac 0028     		cmp	r0, #0
 1030 01ae 7FF437AF 		bne	.L30
 1031              	.LVL54:
 1032              		.loc 1 174 0
 1033 01b2 4420     		movs	r0, #68
 1034 01b4 FFF7FEFF 		bl	test_emit_token
 1035              		.loc 1 175 0
 1036 01b8 4FF4FA71 		mov	r1, #500
 1037 01bc 2046     		mov	r0, r4
 1038 01be FFF7FEFF 		bl	chSemWaitTimeout
 1039              	.LVL55:
 1040              		.loc 1 176 0
 1041 01c2 A0F1FF3C 		sub	ip, r0, #-1
 1042 01c6 DCF10003 		rsbs	r3, ip, #0
 1043 01ca 43EB0C01 		adc	r1, r3, ip
 1044 01ce 0720     		movs	r0, #7
 1045              	.LVL56:
 1046 01d0 FFF7FEFF 		bl	_test_assert
 1047              	.LVL57:
 1048 01d4 0028     		cmp	r0, #0
 1049 01d6 7FF423AF 		bne	.L30
 1050              		.loc 1 177 0
 1051 01da 2268     		ldr	r2, [r4, #0]
 1052 01dc 0820     		movs	r0, #8
 1053 01de 111B     		subs	r1, r2, r4
 1054 01e0 D1F1000E 		rsbs	lr, r1, #0
 1055 01e4 4EEB0101 		adc	r1, lr, r1
 1056 01e8 FFF7FEFF 		bl	_test_assert
 1057 01ec 0028     		cmp	r0, #0
 1058 01ee 7FF417AF 		bne	.L30
 1059              		.loc 1 178 0
 1060 01f2 A368     		ldr	r3, [r4, #8]
 1061 01f4 0920     		movs	r0, #9
 1062 01f6 D3F10101 		rsbs	r1, r3, #1
 1063 01fa 38BF     		it	cc
 1064 01fc 0021     		movcc	r1, #0
 1065 01fe FFF7FEFF 		bl	_test_assert
 1066 0202 0028     		cmp	r0, #0
 1067 0204 7FF40CAF 		bne	.L30
 1068              	.LVL58:
 1069              		.loc 1 174 0
 1070 0208 4520     		movs	r0, #69
 1071 020a FFF7FEFF 		bl	test_emit_token
 1072              		.loc 1 175 0
 1073 020e 4FF4FA71 		mov	r1, #500
 1074 0212 2046     		mov	r0, r4
 1075 0214 FFF7FEFF 		bl	chSemWaitTimeout
 1076              	.LVL59:
 1077              		.loc 1 176 0
 1078 0218 A0F1FF31 		sub	r1, r0, #-1
 1079 021c 4842     		rsbs	r0, r1, #0
ARM GAS  /tmp/cc5Rzgt2.s 			page 20


 1080              	.LVL60:
 1081 021e 40EB0101 		adc	r1, r0, r1
 1082              	.LVL61:
 1083 0222 0720     		movs	r0, #7
 1084 0224 FFF7FEFF 		bl	_test_assert
 1085 0228 0028     		cmp	r0, #0
 1086 022a 7FF4F9AE 		bne	.L30
 1087              		.loc 1 177 0
 1088 022e 2168     		ldr	r1, [r4, #0]
 1089 0230 0820     		movs	r0, #8
 1090 0232 0B1B     		subs	r3, r1, r4
 1091 0234 5A42     		rsbs	r2, r3, #0
 1092 0236 42EB0301 		adc	r1, r2, r3
 1093 023a FFF7FEFF 		bl	_test_assert
 1094 023e 0028     		cmp	r0, #0
 1095 0240 7FF4EEAE 		bne	.L30
 1096              		.loc 1 178 0
 1097 0244 A268     		ldr	r2, [r4, #8]
 1098 0246 0920     		movs	r0, #9
 1099 0248 D2F10101 		rsbs	r1, r2, #1
 1100 024c 38BF     		it	cc
 1101 024e 0021     		movcc	r1, #0
 1102 0250 FFF7FEFF 		bl	_test_assert
 1103 0254 0028     		cmp	r0, #0
 1104 0256 7FF4E3AE 		bne	.L30
 1105              	.LVL62:
 1106              		.loc 1 180 0
 1107 025a 0A20     		movs	r0, #10
 1108 025c 0D49     		ldr	r1, .L33+24
 1109 025e FFF7FEFF 		bl	_test_assert_sequence
 1110 0262 0028     		cmp	r0, #0
 1111 0264 7FF4DCAE 		bne	.L30
 1112              		.loc 1 172 0
 1113 0268 06F51C62 		add	r2, r6, #2496
 1114 026c 111D     		adds	r1, r2, #4
 1115              		.loc 1 181 0
 1116 026e 0B20     		movs	r0, #11
 1117 0270 0932     		adds	r2, r2, #9
 1118              	.LBE24:
 1119              	.LBE23:
 1120              		.loc 1 182 0
 1121 0272 02B0     		add	sp, sp, #8
 1122 0274 BDE87040 		pop	{r4, r5, r6, lr}
 1123              	.LBB26:
 1124              	.LBB25:
 1125              		.loc 1 181 0
 1126 0278 FFF7FEBF 		b	_test_assert_time_window
 1127              	.L34:
 1128              		.align	2
 1129              	.L33:
 1130 027c 00000000 		.word	.LANCHOR0
 1131 0280 00000000 		.word	rlist
 1132 0284 00000000 		.word	wa
 1133 0288 00000000 		.word	thread2
 1134 028c 00000000 		.word	threads
 1135 0290 00000000 		.word	vtlist
 1136 0294 14000000 		.word	.LC5
ARM GAS  /tmp/cc5Rzgt2.s 			page 21


 1137              	.LBE25:
 1138              	.LBE26:
 1139              		.cfi_endproc
 1140              	.LFE12:
 1141              		.size	sem2_execute, .-sem2_execute
 1142              		.global	patternsem
 1143              		.global	testsem4
 1144              		.global	testsem3
 1145              		.global	testsem2
 1146              		.global	testsem1
 1147 0298 AFF30080 		.section	.rodata.testsem1,"a",%progbits
 1147      AFF30080 
 1148              		.align	2
 1149              		.type	testsem1, %object
 1150              		.size	testsem1, 16
 1151              	testsem1:
 1152 0000 74000000 		.word	.LC9
 1153 0004 00000000 		.word	sem1_setup
 1154 0008 00000000 		.word	0
 1155 000c 00000000 		.word	sem1_execute
 1156              		.section	.rodata.testsem2,"a",%progbits
 1157              		.align	2
 1158              		.type	testsem2, %object
 1159              		.size	testsem2, 16
 1160              	testsem2:
 1161 0000 60000000 		.word	.LC8
 1162 0004 00000000 		.word	sem2_setup
 1163 0008 00000000 		.word	0
 1164 000c 00000000 		.word	sem2_execute
 1165              		.section	.rodata.testsem3,"a",%progbits
 1166              		.align	2
 1167              		.type	testsem3, %object
 1168              		.size	testsem3, 16
 1169              	testsem3:
 1170 0000 40000000 		.word	.LC7
 1171 0004 00000000 		.word	sem3_setup
 1172 0008 00000000 		.word	0
 1173 000c 00000000 		.word	sem3_execute
 1174              		.section	.rodata.testsem4,"a",%progbits
 1175              		.align	2
 1176              		.type	testsem4, %object
 1177              		.size	testsem4, 16
 1178              	testsem4:
 1179 0000 1C000000 		.word	.LC6
 1180 0004 00000000 		.word	0
 1181 0008 00000000 		.word	0
 1182 000c 00000000 		.word	sem4_execute
 1183              		.section	.data.sem1,"aw",%progbits
 1184              		.align	2
 1185              		.set	.LANCHOR0,. + 0
 1186              		.type	sem1, %object
 1187              		.size	sem1, 12
 1188              	sem1:
 1189 0000 00000000 		.word	sem1
 1190 0004 00000000 		.word	sem1
 1191 0008 00000000 		.word	0
 1192              		.section	.rodata.patternsem,"a",%progbits
ARM GAS  /tmp/cc5Rzgt2.s 			page 22


 1193              		.align	2
 1194              		.type	patternsem, %object
 1195              		.size	patternsem, 20
 1196              	patternsem:
 1197 0000 00000000 		.word	testsem1
 1198 0004 00000000 		.word	testsem2
 1199 0008 00000000 		.word	testsem3
 1200 000c 00000000 		.word	testsem4
 1201 0010 00000000 		.word	0
 1202              		.section	.rodata.str1.4,"aMS",%progbits,1
 1203              		.align	2
 1204              	.LC0:
 1205 0000 4100     		.ascii	"A\000"
 1206 0002 0000     		.space	2
 1207              	.LC1:
 1208 0004 4200     		.ascii	"B\000"
 1209 0006 0000     		.space	2
 1210              	.LC2:
 1211 0008 4300     		.ascii	"C\000"
 1212 000a 0000     		.space	2
 1213              	.LC3:
 1214 000c 4400     		.ascii	"D\000"
 1215 000e 0000     		.space	2
 1216              	.LC4:
 1217 0010 4500     		.ascii	"E\000"
 1218 0012 0000     		.space	2
 1219              	.LC5:
 1220 0014 41424344 		.ascii	"ABCDE\000"
 1220      4500
 1221 001a 0000     		.space	2
 1222              	.LC6:
 1223 001c 42696E61 		.ascii	"Binary Semaphores, functionality\000"
 1223      72792053 
 1223      656D6170 
 1223      686F7265 
 1223      732C2066 
 1224 003d 000000   		.space	3
 1225              	.LC7:
 1226 0040 53656D61 		.ascii	"Semaphores, atomic signal-wait\000"
 1226      70686F72 
 1226      65732C20 
 1226      61746F6D 
 1226      69632073 
 1227 005f 00       		.space	1
 1228              	.LC8:
 1229 0060 53656D61 		.ascii	"Semaphores, timeout\000"
 1229      70686F72 
 1229      65732C20 
 1229      74696D65 
 1229      6F757400 
 1230              	.LC9:
 1231 0074 53656D61 		.ascii	"Semaphores, enqueuing\000"
 1231      70686F72 
 1231      65732C20 
 1231      656E7175 
 1231      6575696E 
 1232 008a 0000     		.text
ARM GAS  /tmp/cc5Rzgt2.s 			page 23


 1233              	.Letext0:
 1234              		.file 2 "/home/tino/ChibiStudio/tools/GNU Tools ARM Embedded/4.6 2012q2/bin/../lib/gcc/arm-none-ea
 1235              		.file 3 "../../ChibiOS/os/ports/GCC/ARMCMx/chtypes.h"
 1236              		.file 4 "../../ChibiOS/os/kernel/include/chlists.h"
 1237              		.file 5 "../../ChibiOS/os/kernel/include/chthreads.h"
 1238              		.file 6 "../../ChibiOS/os/ports/GCC/ARMCMx/chcore_v7m.h"
 1239              		.file 7 "../../ChibiOS/os/kernel/include/chvt.h"
 1240              		.file 8 "../../ChibiOS/os/kernel/include/chschd.h"
 1241              		.file 9 "../../ChibiOS/os/kernel/include/chsem.h"
 1242              		.file 10 "../../ChibiOS/os/kernel/include/chbsem.h"
 1243              		.file 11 "../../ChibiOS/os/kernel/include/chmtx.h"
 1244              		.file 12 "../../ChibiOS/test/test.h"
 1245              		.section	.debug_info,"",%progbits
 1246              	.Ldebug_info0:
 1247 0000 070A0000 		.4byte	0xa07
 1248 0004 0200     		.2byte	0x2
 1249 0006 00000000 		.4byte	.Ldebug_abbrev0
 1250 000a 04       		.byte	0x4
 1251 000b 01       		.uleb128 0x1
 1252 000c AD000000 		.4byte	.LASF105
 1253 0010 01       		.byte	0x1
 1254 0011 47020000 		.4byte	.LASF106
 1255 0015 F6000000 		.4byte	.LASF107
 1256 0019 00000000 		.4byte	0
 1257 001d 00000000 		.4byte	0
 1258 0021 90000000 		.4byte	.Ldebug_ranges0+0x90
 1259 0025 00000000 		.4byte	.Ldebug_line0
 1260 0029 02       		.uleb128 0x2
 1261 002a 04       		.byte	0x4
 1262 002b 05       		.byte	0x5
 1263 002c 696E7400 		.ascii	"int\000"
 1264 0030 03       		.uleb128 0x3
 1265 0031 04       		.byte	0x4
 1266 0032 07       		.byte	0x7
 1267 0033 6F010000 		.4byte	.LASF0
 1268 0037 03       		.uleb128 0x3
 1269 0038 01       		.byte	0x1
 1270 0039 06       		.byte	0x6
 1271 003a 5D000000 		.4byte	.LASF1
 1272 003e 04       		.uleb128 0x4
 1273 003f 1F040000 		.4byte	.LASF5
 1274 0043 02       		.byte	0x2
 1275 0044 2A       		.byte	0x2a
 1276 0045 49000000 		.4byte	0x49
 1277 0049 03       		.uleb128 0x3
 1278 004a 01       		.byte	0x1
 1279 004b 08       		.byte	0x8
 1280 004c FA020000 		.4byte	.LASF2
 1281 0050 03       		.uleb128 0x3
 1282 0051 02       		.byte	0x2
 1283 0052 05       		.byte	0x5
 1284 0053 12030000 		.4byte	.LASF3
 1285 0057 03       		.uleb128 0x3
 1286 0058 02       		.byte	0x2
 1287 0059 07       		.byte	0x7
 1288 005a E3010000 		.4byte	.LASF4
 1289 005e 04       		.uleb128 0x4
ARM GAS  /tmp/cc5Rzgt2.s 			page 24


 1290 005f F2020000 		.4byte	.LASF6
 1291 0063 02       		.byte	0x2
 1292 0064 4F       		.byte	0x4f
 1293 0065 69000000 		.4byte	0x69
 1294 0069 03       		.uleb128 0x3
 1295 006a 04       		.byte	0x4
 1296 006b 05       		.byte	0x5
 1297 006c 98000000 		.4byte	.LASF7
 1298 0070 04       		.uleb128 0x4
 1299 0071 7B030000 		.4byte	.LASF8
 1300 0075 02       		.byte	0x2
 1301 0076 50       		.byte	0x50
 1302 0077 7B000000 		.4byte	0x7b
 1303 007b 03       		.uleb128 0x3
 1304 007c 04       		.byte	0x4
 1305 007d 07       		.byte	0x7
 1306 007e B5010000 		.4byte	.LASF9
 1307 0082 03       		.uleb128 0x3
 1308 0083 08       		.byte	0x8
 1309 0084 05       		.byte	0x5
 1310 0085 4F000000 		.4byte	.LASF10
 1311 0089 04       		.uleb128 0x4
 1312 008a 18000000 		.4byte	.LASF11
 1313 008e 02       		.byte	0x2
 1314 008f 78       		.byte	0x78
 1315 0090 94000000 		.4byte	0x94
 1316 0094 03       		.uleb128 0x3
 1317 0095 08       		.byte	0x8
 1318 0096 07       		.byte	0x7
 1319 0097 28000000 		.4byte	.LASF12
 1320 009b 03       		.uleb128 0x3
 1321 009c 01       		.byte	0x1
 1322 009d 02       		.byte	0x2
 1323 009e EC020000 		.4byte	.LASF13
 1324 00a2 04       		.uleb128 0x4
 1325 00a3 01020000 		.4byte	.LASF14
 1326 00a7 03       		.byte	0x3
 1327 00a8 25       		.byte	0x25
 1328 00a9 3E000000 		.4byte	0x3e
 1329 00ad 04       		.uleb128 0x4
 1330 00ae 27010000 		.4byte	.LASF15
 1331 00b2 03       		.byte	0x3
 1332 00b3 26       		.byte	0x26
 1333 00b4 3E000000 		.4byte	0x3e
 1334 00b8 04       		.uleb128 0x4
 1335 00b9 CD020000 		.4byte	.LASF16
 1336 00bd 03       		.byte	0x3
 1337 00be 27       		.byte	0x27
 1338 00bf 3E000000 		.4byte	0x3e
 1339 00c3 04       		.uleb128 0x4
 1340 00c4 81000000 		.4byte	.LASF17
 1341 00c8 03       		.byte	0x3
 1342 00c9 28       		.byte	0x28
 1343 00ca 3E000000 		.4byte	0x3e
 1344 00ce 04       		.uleb128 0x4
 1345 00cf E4020000 		.4byte	.LASF18
 1346 00d3 03       		.byte	0x3
ARM GAS  /tmp/cc5Rzgt2.s 			page 25


 1347 00d4 29       		.byte	0x29
 1348 00d5 70000000 		.4byte	0x70
 1349 00d9 04       		.uleb128 0x4
 1350 00da FB010000 		.4byte	.LASF19
 1351 00de 03       		.byte	0x3
 1352 00df 2A       		.byte	0x2a
 1353 00e0 5E000000 		.4byte	0x5e
 1354 00e4 04       		.uleb128 0x4
 1355 00e5 15020000 		.4byte	.LASF20
 1356 00e9 03       		.byte	0x3
 1357 00ea 2C       		.byte	0x2c
 1358 00eb 70000000 		.4byte	0x70
 1359 00ef 04       		.uleb128 0x4
 1360 00f0 B5030000 		.4byte	.LASF21
 1361 00f4 03       		.byte	0x3
 1362 00f5 2E       		.byte	0x2e
 1363 00f6 70000000 		.4byte	0x70
 1364 00fa 04       		.uleb128 0x4
 1365 00fb 5E010000 		.4byte	.LASF22
 1366 00ff 03       		.byte	0x3
 1367 0100 2F       		.byte	0x2f
 1368 0101 5E000000 		.4byte	0x5e
 1369 0105 04       		.uleb128 0x4
 1370 0106 53030000 		.4byte	.LASF23
 1371 010a 04       		.byte	0x4
 1372 010b 23       		.byte	0x23
 1373 010c 10010000 		.4byte	0x110
 1374 0110 05       		.uleb128 0x5
 1375 0111 53030000 		.4byte	.LASF23
 1376 0115 4C       		.byte	0x4c
 1377 0116 05       		.byte	0x5
 1378 0117 57       		.byte	0x57
 1379 0118 43020000 		.4byte	0x243
 1380 011c 06       		.uleb128 0x6
 1381 011d 44030000 		.4byte	.LASF24
 1382 0121 05       		.byte	0x5
 1383 0122 58       		.byte	0x58
 1384 0123 68020000 		.4byte	0x268
 1385 0127 02       		.byte	0x2
 1386 0128 23       		.byte	0x23
 1387 0129 00       		.uleb128 0
 1388 012a 06       		.uleb128 0x6
 1389 012b D5020000 		.4byte	.LASF25
 1390 012f 05       		.byte	0x5
 1391 0130 5A       		.byte	0x5a
 1392 0131 68020000 		.4byte	0x268
 1393 0135 02       		.byte	0x2
 1394 0136 23       		.byte	0x23
 1395 0137 04       		.uleb128 0x4
 1396 0138 06       		.uleb128 0x6
 1397 0139 48000000 		.4byte	.LASF26
 1398 013d 05       		.byte	0x5
 1399 013e 5C       		.byte	0x5c
 1400 013f CE000000 		.4byte	0xce
 1401 0143 02       		.byte	0x2
 1402 0144 23       		.byte	0x23
 1403 0145 08       		.uleb128 0x8
ARM GAS  /tmp/cc5Rzgt2.s 			page 26


 1404 0146 06       		.uleb128 0x6
 1405 0147 56040000 		.4byte	.LASF27
 1406 014b 05       		.byte	0x5
 1407 014c 5D       		.byte	0x5d
 1408 014d 41030000 		.4byte	0x341
 1409 0151 02       		.byte	0x2
 1410 0152 23       		.byte	0x23
 1411 0153 0C       		.uleb128 0xc
 1412 0154 06       		.uleb128 0x6
 1413 0155 30010000 		.4byte	.LASF28
 1414 0159 05       		.byte	0x5
 1415 015a 5F       		.byte	0x5f
 1416 015b 68020000 		.4byte	0x268
 1417 015f 02       		.byte	0x2
 1418 0160 23       		.byte	0x23
 1419 0161 10       		.uleb128 0x10
 1420 0162 06       		.uleb128 0x6
 1421 0163 77020000 		.4byte	.LASF29
 1422 0167 05       		.byte	0x5
 1423 0168 60       		.byte	0x60
 1424 0169 68020000 		.4byte	0x268
 1425 016d 02       		.byte	0x2
 1426 016e 23       		.byte	0x23
 1427 016f 14       		.uleb128 0x14
 1428 0170 06       		.uleb128 0x6
 1429 0171 2E040000 		.4byte	.LASF30
 1430 0175 05       		.byte	0x5
 1431 0176 67       		.byte	0x67
 1432 0177 71050000 		.4byte	0x571
 1433 017b 02       		.byte	0x2
 1434 017c 23       		.byte	0x23
 1435 017d 18       		.uleb128 0x18
 1436 017e 06       		.uleb128 0x6
 1437 017f 64010000 		.4byte	.LASF31
 1438 0183 05       		.byte	0x5
 1439 0184 6D       		.byte	0x6d
 1440 0185 83050000 		.4byte	0x583
 1441 0189 02       		.byte	0x2
 1442 018a 23       		.byte	0x23
 1443 018b 1C       		.uleb128 0x1c
 1444 018c 06       		.uleb128 0x6
 1445 018d 1C030000 		.4byte	.LASF32
 1446 0191 05       		.byte	0x5
 1447 0192 72       		.byte	0x72
 1448 0193 AD000000 		.4byte	0xad
 1449 0197 02       		.byte	0x2
 1450 0198 23       		.byte	0x23
 1451 0199 20       		.uleb128 0x20
 1452 019a 06       		.uleb128 0x6
 1453 019b 4B030000 		.4byte	.LASF33
 1454 019f 05       		.byte	0x5
 1455 01a0 76       		.byte	0x76
 1456 01a1 A2000000 		.4byte	0xa2
 1457 01a5 02       		.byte	0x2
 1458 01a6 23       		.byte	0x23
 1459 01a7 21       		.uleb128 0x21
 1460 01a8 06       		.uleb128 0x6
ARM GAS  /tmp/cc5Rzgt2.s 			page 27


 1461 01a9 08040000 		.4byte	.LASF34
 1462 01ad 05       		.byte	0x5
 1463 01ae 7B       		.byte	0x7b
 1464 01af B8000000 		.4byte	0xb8
 1465 01b3 02       		.byte	0x2
 1466 01b4 23       		.byte	0x23
 1467 01b5 22       		.uleb128 0x22
 1468 01b6 06       		.uleb128 0x6
 1469 01b7 24030000 		.4byte	.LASF35
 1470 01bb 05       		.byte	0x5
 1471 01bc 81       		.byte	0x81
 1472 01bd C3000000 		.4byte	0xc3
 1473 01c1 02       		.byte	0x2
 1474 01c2 23       		.byte	0x23
 1475 01c3 23       		.uleb128 0x23
 1476 01c4 06       		.uleb128 0x6
 1477 01c5 D3030000 		.4byte	.LASF36
 1478 01c9 05       		.byte	0x5
 1479 01ca 88       		.byte	0x88
 1480 01cb 26040000 		.4byte	0x426
 1481 01cf 02       		.byte	0x2
 1482 01d0 23       		.byte	0x23
 1483 01d1 24       		.uleb128 0x24
 1484 01d2 07       		.uleb128 0x7
 1485 01d3 705F7500 		.ascii	"p_u\000"
 1486 01d7 05       		.byte	0x5
 1487 01d8 AD       		.byte	0xad
 1488 01d9 3C050000 		.4byte	0x53c
 1489 01dd 02       		.byte	0x2
 1490 01de 23       		.byte	0x23
 1491 01df 28       		.uleb128 0x28
 1492 01e0 06       		.uleb128 0x6
 1493 01e1 5C040000 		.4byte	.LASF37
 1494 01e5 05       		.byte	0x5
 1495 01e6 B2       		.byte	0xb2
 1496 01e7 90020000 		.4byte	0x290
 1497 01eb 02       		.byte	0x2
 1498 01ec 23       		.byte	0x23
 1499 01ed 2C       		.uleb128 0x2c
 1500 01ee 06       		.uleb128 0x6
 1501 01ef E1030000 		.4byte	.LASF38
 1502 01f3 05       		.byte	0x5
 1503 01f4 B8       		.byte	0xb8
 1504 01f5 6E020000 		.4byte	0x26e
 1505 01f9 02       		.byte	0x2
 1506 01fa 23       		.byte	0x23
 1507 01fb 30       		.uleb128 0x30
 1508 01fc 06       		.uleb128 0x6
 1509 01fd 00000000 		.4byte	.LASF39
 1510 0201 05       		.byte	0x5
 1511 0202 BC       		.byte	0xbc
 1512 0203 D9000000 		.4byte	0xd9
 1513 0207 02       		.byte	0x2
 1514 0208 23       		.byte	0x23
 1515 0209 38       		.uleb128 0x38
 1516 020a 06       		.uleb128 0x6
 1517 020b 63030000 		.4byte	.LASF40
ARM GAS  /tmp/cc5Rzgt2.s 			page 28


 1518 020f 05       		.byte	0x5
 1519 0210 C2       		.byte	0xc2
 1520 0211 E4000000 		.4byte	0xe4
 1521 0215 02       		.byte	0x2
 1522 0216 23       		.byte	0x23
 1523 0217 3C       		.uleb128 0x3c
 1524 0218 06       		.uleb128 0x6
 1525 0219 08030000 		.4byte	.LASF41
 1526 021d 05       		.byte	0x5
 1527 021e C9       		.byte	0xc9
 1528 021f 89050000 		.4byte	0x589
 1529 0223 02       		.byte	0x2
 1530 0224 23       		.byte	0x23
 1531 0225 40       		.uleb128 0x40
 1532 0226 06       		.uleb128 0x6
 1533 0227 BF030000 		.4byte	.LASF42
 1534 022b 05       		.byte	0x5
 1535 022c CD       		.byte	0xcd
 1536 022d CE000000 		.4byte	0xce
 1537 0231 02       		.byte	0x2
 1538 0232 23       		.byte	0x23
 1539 0233 44       		.uleb128 0x44
 1540 0234 06       		.uleb128 0x6
 1541 0235 69000000 		.4byte	.LASF43
 1542 0239 05       		.byte	0x5
 1543 023a D3       		.byte	0xd3
 1544 023b A6020000 		.4byte	0x2a6
 1545 023f 02       		.byte	0x2
 1546 0240 23       		.byte	0x23
 1547 0241 48       		.uleb128 0x48
 1548 0242 00       		.byte	0
 1549 0243 08       		.uleb128 0x8
 1550 0244 08       		.byte	0x8
 1551 0245 04       		.byte	0x4
 1552 0246 5A       		.byte	0x5a
 1553 0247 68020000 		.4byte	0x268
 1554 024b 06       		.uleb128 0x6
 1555 024c 44030000 		.4byte	.LASF24
 1556 0250 04       		.byte	0x4
 1557 0251 5B       		.byte	0x5b
 1558 0252 68020000 		.4byte	0x268
 1559 0256 02       		.byte	0x2
 1560 0257 23       		.byte	0x23
 1561 0258 00       		.uleb128 0
 1562 0259 06       		.uleb128 0x6
 1563 025a D5020000 		.4byte	.LASF25
 1564 025e 04       		.byte	0x4
 1565 025f 5D       		.byte	0x5d
 1566 0260 68020000 		.4byte	0x268
 1567 0264 02       		.byte	0x2
 1568 0265 23       		.byte	0x23
 1569 0266 04       		.uleb128 0x4
 1570 0267 00       		.byte	0
 1571 0268 09       		.uleb128 0x9
 1572 0269 04       		.byte	0x4
 1573 026a 05010000 		.4byte	0x105
 1574 026e 04       		.uleb128 0x4
ARM GAS  /tmp/cc5Rzgt2.s 			page 29


 1575 026f 9D020000 		.4byte	.LASF44
 1576 0273 04       		.byte	0x4
 1577 0274 5F       		.byte	0x5f
 1578 0275 43020000 		.4byte	0x243
 1579 0279 08       		.uleb128 0x8
 1580 027a 04       		.byte	0x4
 1581 027b 04       		.byte	0x4
 1582 027c 64       		.byte	0x64
 1583 027d 90020000 		.4byte	0x290
 1584 0281 06       		.uleb128 0x6
 1585 0282 44030000 		.4byte	.LASF24
 1586 0286 04       		.byte	0x4
 1587 0287 66       		.byte	0x66
 1588 0288 68020000 		.4byte	0x268
 1589 028c 02       		.byte	0x2
 1590 028d 23       		.byte	0x23
 1591 028e 00       		.uleb128 0
 1592 028f 00       		.byte	0
 1593 0290 04       		.uleb128 0x4
 1594 0291 09020000 		.4byte	.LASF45
 1595 0295 04       		.byte	0x4
 1596 0296 69       		.byte	0x69
 1597 0297 79020000 		.4byte	0x279
 1598 029b 04       		.uleb128 0x4
 1599 029c 48010000 		.4byte	.LASF46
 1600 02a0 06       		.byte	0x6
 1601 02a1 DE       		.byte	0xde
 1602 02a2 A6020000 		.4byte	0x2a6
 1603 02a6 0A       		.uleb128 0xa
 1604 02a7 04       		.byte	0x4
 1605 02a8 04       		.uleb128 0x4
 1606 02a9 27020000 		.4byte	.LASF47
 1607 02ad 06       		.byte	0x6
 1608 02ae E4       		.byte	0xe4
 1609 02af 89000000 		.4byte	0x89
 1610 02b3 0B       		.uleb128 0xb
 1611 02b4 DA030000 		.4byte	.LASF48
 1612 02b8 24       		.byte	0x24
 1613 02b9 06       		.byte	0x6
 1614 02ba 0501     		.2byte	0x105
 1615 02bc 41030000 		.4byte	0x341
 1616 02c0 0C       		.uleb128 0xc
 1617 02c1 723400   		.ascii	"r4\000"
 1618 02c4 06       		.byte	0x6
 1619 02c5 1801     		.2byte	0x118
 1620 02c7 9B020000 		.4byte	0x29b
 1621 02cb 02       		.byte	0x2
 1622 02cc 23       		.byte	0x23
 1623 02cd 00       		.uleb128 0
 1624 02ce 0C       		.uleb128 0xc
 1625 02cf 723500   		.ascii	"r5\000"
 1626 02d2 06       		.byte	0x6
 1627 02d3 1901     		.2byte	0x119
 1628 02d5 9B020000 		.4byte	0x29b
 1629 02d9 02       		.byte	0x2
 1630 02da 23       		.byte	0x23
 1631 02db 04       		.uleb128 0x4
ARM GAS  /tmp/cc5Rzgt2.s 			page 30


 1632 02dc 0C       		.uleb128 0xc
 1633 02dd 723600   		.ascii	"r6\000"
 1634 02e0 06       		.byte	0x6
 1635 02e1 1A01     		.2byte	0x11a
 1636 02e3 9B020000 		.4byte	0x29b
 1637 02e7 02       		.byte	0x2
 1638 02e8 23       		.byte	0x23
 1639 02e9 08       		.uleb128 0x8
 1640 02ea 0C       		.uleb128 0xc
 1641 02eb 723700   		.ascii	"r7\000"
 1642 02ee 06       		.byte	0x6
 1643 02ef 1B01     		.2byte	0x11b
 1644 02f1 9B020000 		.4byte	0x29b
 1645 02f5 02       		.byte	0x2
 1646 02f6 23       		.byte	0x23
 1647 02f7 0C       		.uleb128 0xc
 1648 02f8 0C       		.uleb128 0xc
 1649 02f9 723800   		.ascii	"r8\000"
 1650 02fc 06       		.byte	0x6
 1651 02fd 1C01     		.2byte	0x11c
 1652 02ff 9B020000 		.4byte	0x29b
 1653 0303 02       		.byte	0x2
 1654 0304 23       		.byte	0x23
 1655 0305 10       		.uleb128 0x10
 1656 0306 0C       		.uleb128 0xc
 1657 0307 723900   		.ascii	"r9\000"
 1658 030a 06       		.byte	0x6
 1659 030b 1D01     		.2byte	0x11d
 1660 030d 9B020000 		.4byte	0x29b
 1661 0311 02       		.byte	0x2
 1662 0312 23       		.byte	0x23
 1663 0313 14       		.uleb128 0x14
 1664 0314 0C       		.uleb128 0xc
 1665 0315 72313000 		.ascii	"r10\000"
 1666 0319 06       		.byte	0x6
 1667 031a 1E01     		.2byte	0x11e
 1668 031c 9B020000 		.4byte	0x29b
 1669 0320 02       		.byte	0x2
 1670 0321 23       		.byte	0x23
 1671 0322 18       		.uleb128 0x18
 1672 0323 0C       		.uleb128 0xc
 1673 0324 72313100 		.ascii	"r11\000"
 1674 0328 06       		.byte	0x6
 1675 0329 1F01     		.2byte	0x11f
 1676 032b 9B020000 		.4byte	0x29b
 1677 032f 02       		.byte	0x2
 1678 0330 23       		.byte	0x23
 1679 0331 1C       		.uleb128 0x1c
 1680 0332 0C       		.uleb128 0xc
 1681 0333 6C7200   		.ascii	"lr\000"
 1682 0336 06       		.byte	0x6
 1683 0337 2001     		.2byte	0x120
 1684 0339 9B020000 		.4byte	0x29b
 1685 033d 02       		.byte	0x2
 1686 033e 23       		.byte	0x23
 1687 033f 20       		.uleb128 0x20
 1688 0340 00       		.byte	0
ARM GAS  /tmp/cc5Rzgt2.s 			page 31


 1689 0341 0B       		.uleb128 0xb
 1690 0342 DB010000 		.4byte	.LASF49
 1691 0346 04       		.byte	0x4
 1692 0347 06       		.byte	0x6
 1693 0348 2A01     		.2byte	0x12a
 1694 034a 5E030000 		.4byte	0x35e
 1695 034e 0C       		.uleb128 0xc
 1696 034f 72313300 		.ascii	"r13\000"
 1697 0353 06       		.byte	0x6
 1698 0354 2B01     		.2byte	0x12b
 1699 0356 5E030000 		.4byte	0x35e
 1700 035a 02       		.byte	0x2
 1701 035b 23       		.byte	0x23
 1702 035c 00       		.uleb128 0
 1703 035d 00       		.byte	0
 1704 035e 09       		.uleb128 0x9
 1705 035f 04       		.byte	0x4
 1706 0360 B3020000 		.4byte	0x2b3
 1707 0364 04       		.uleb128 0x4
 1708 0365 CA030000 		.4byte	.LASF50
 1709 0369 07       		.byte	0x7
 1710 036a 4E       		.byte	0x4e
 1711 036b 6F030000 		.4byte	0x36f
 1712 036f 09       		.uleb128 0x9
 1713 0370 04       		.byte	0x4
 1714 0371 75030000 		.4byte	0x375
 1715 0375 0D       		.uleb128 0xd
 1716 0376 01       		.byte	0x1
 1717 0377 81030000 		.4byte	0x381
 1718 037b 0E       		.uleb128 0xe
 1719 037c A6020000 		.4byte	0x2a6
 1720 0380 00       		.byte	0
 1721 0381 04       		.uleb128 0x4
 1722 0382 8C030000 		.4byte	.LASF51
 1723 0386 07       		.byte	0x7
 1724 0387 53       		.byte	0x53
 1725 0388 8C030000 		.4byte	0x38c
 1726 038c 05       		.uleb128 0x5
 1727 038d 8C030000 		.4byte	.LASF51
 1728 0391 14       		.byte	0x14
 1729 0392 07       		.byte	0x7
 1730 0393 5A       		.byte	0x5a
 1731 0394 DF030000 		.4byte	0x3df
 1732 0398 06       		.uleb128 0x6
 1733 0399 7C010000 		.4byte	.LASF52
 1734 039d 07       		.byte	0x7
 1735 039e 5B       		.byte	0x5b
 1736 039f DF030000 		.4byte	0x3df
 1737 03a3 02       		.byte	0x2
 1738 03a4 23       		.byte	0x23
 1739 03a5 00       		.uleb128 0
 1740 03a6 06       		.uleb128 0x6
 1741 03a7 51010000 		.4byte	.LASF53
 1742 03ab 07       		.byte	0x7
 1743 03ac 5D       		.byte	0x5d
 1744 03ad DF030000 		.4byte	0x3df
 1745 03b1 02       		.byte	0x2
ARM GAS  /tmp/cc5Rzgt2.s 			page 32


 1746 03b2 23       		.byte	0x23
 1747 03b3 04       		.uleb128 0x4
 1748 03b4 06       		.uleb128 0x6
 1749 03b5 3F020000 		.4byte	.LASF54
 1750 03b9 07       		.byte	0x7
 1751 03ba 5F       		.byte	0x5f
 1752 03bb EF000000 		.4byte	0xef
 1753 03bf 02       		.byte	0x2
 1754 03c0 23       		.byte	0x23
 1755 03c1 08       		.uleb128 0x8
 1756 03c2 06       		.uleb128 0x6
 1757 03c3 64020000 		.4byte	.LASF55
 1758 03c7 07       		.byte	0x7
 1759 03c8 60       		.byte	0x60
 1760 03c9 64030000 		.4byte	0x364
 1761 03cd 02       		.byte	0x2
 1762 03ce 23       		.byte	0x23
 1763 03cf 0C       		.uleb128 0xc
 1764 03d0 06       		.uleb128 0x6
 1765 03d1 EC030000 		.4byte	.LASF56
 1766 03d5 07       		.byte	0x7
 1767 03d6 62       		.byte	0x62
 1768 03d7 A6020000 		.4byte	0x2a6
 1769 03db 02       		.byte	0x2
 1770 03dc 23       		.byte	0x23
 1771 03dd 10       		.uleb128 0x10
 1772 03de 00       		.byte	0
 1773 03df 09       		.uleb128 0x9
 1774 03e0 04       		.byte	0x4
 1775 03e1 81030000 		.4byte	0x381
 1776 03e5 08       		.uleb128 0x8
 1777 03e6 10       		.byte	0x10
 1778 03e7 07       		.byte	0x7
 1779 03e8 6C       		.byte	0x6c
 1780 03e9 26040000 		.4byte	0x426
 1781 03ed 06       		.uleb128 0x6
 1782 03ee 7C010000 		.4byte	.LASF52
 1783 03f2 07       		.byte	0x7
 1784 03f3 6D       		.byte	0x6d
 1785 03f4 DF030000 		.4byte	0x3df
 1786 03f8 02       		.byte	0x2
 1787 03f9 23       		.byte	0x23
 1788 03fa 00       		.uleb128 0
 1789 03fb 06       		.uleb128 0x6
 1790 03fc 51010000 		.4byte	.LASF53
 1791 0400 07       		.byte	0x7
 1792 0401 6F       		.byte	0x6f
 1793 0402 DF030000 		.4byte	0x3df
 1794 0406 02       		.byte	0x2
 1795 0407 23       		.byte	0x23
 1796 0408 04       		.uleb128 0x4
 1797 0409 06       		.uleb128 0x6
 1798 040a 3F020000 		.4byte	.LASF54
 1799 040e 07       		.byte	0x7
 1800 040f 71       		.byte	0x71
 1801 0410 EF000000 		.4byte	0xef
 1802 0414 02       		.byte	0x2
ARM GAS  /tmp/cc5Rzgt2.s 			page 33


 1803 0415 23       		.byte	0x23
 1804 0416 08       		.uleb128 0x8
 1805 0417 06       		.uleb128 0x6
 1806 0418 35040000 		.4byte	.LASF57
 1807 041c 07       		.byte	0x7
 1808 041d 72       		.byte	0x72
 1809 041e 26040000 		.4byte	0x426
 1810 0422 02       		.byte	0x2
 1811 0423 23       		.byte	0x23
 1812 0424 0C       		.uleb128 0xc
 1813 0425 00       		.byte	0
 1814 0426 0F       		.uleb128 0xf
 1815 0427 EF000000 		.4byte	0xef
 1816 042b 04       		.uleb128 0x4
 1817 042c 47040000 		.4byte	.LASF58
 1818 0430 07       		.byte	0x7
 1819 0431 73       		.byte	0x73
 1820 0432 E5030000 		.4byte	0x3e5
 1821 0436 08       		.uleb128 0x8
 1822 0437 1C       		.byte	0x1c
 1823 0438 08       		.byte	0x8
 1824 0439 57       		.byte	0x57
 1825 043a 93040000 		.4byte	0x493
 1826 043e 06       		.uleb128 0x6
 1827 043f 84030000 		.4byte	.LASF59
 1828 0443 08       		.byte	0x8
 1829 0444 58       		.byte	0x58
 1830 0445 6E020000 		.4byte	0x26e
 1831 0449 02       		.byte	0x2
 1832 044a 23       		.byte	0x23
 1833 044b 00       		.uleb128 0
 1834 044c 06       		.uleb128 0x6
 1835 044d 36030000 		.4byte	.LASF60
 1836 0451 08       		.byte	0x8
 1837 0452 59       		.byte	0x59
 1838 0453 CE000000 		.4byte	0xce
 1839 0457 02       		.byte	0x2
 1840 0458 23       		.byte	0x23
 1841 0459 08       		.uleb128 0x8
 1842 045a 06       		.uleb128 0x6
 1843 045b 8F020000 		.4byte	.LASF61
 1844 045f 08       		.byte	0x8
 1845 0460 5B       		.byte	0x5b
 1846 0461 41030000 		.4byte	0x341
 1847 0465 02       		.byte	0x2
 1848 0466 23       		.byte	0x23
 1849 0467 0C       		.uleb128 0xc
 1850 0468 06       		.uleb128 0x6
 1851 0469 40010000 		.4byte	.LASF62
 1852 046d 08       		.byte	0x8
 1853 046e 5E       		.byte	0x5e
 1854 046f 68020000 		.4byte	0x268
 1855 0473 02       		.byte	0x2
 1856 0474 23       		.byte	0x23
 1857 0475 10       		.uleb128 0x10
 1858 0476 06       		.uleb128 0x6
 1859 0477 BA020000 		.4byte	.LASF63
ARM GAS  /tmp/cc5Rzgt2.s 			page 34


 1860 047b 08       		.byte	0x8
 1861 047c 5F       		.byte	0x5f
 1862 047d 68020000 		.4byte	0x268
 1863 0481 02       		.byte	0x2
 1864 0482 23       		.byte	0x23
 1865 0483 14       		.uleb128 0x14
 1866 0484 06       		.uleb128 0x6
 1867 0485 B0020000 		.4byte	.LASF64
 1868 0489 08       		.byte	0x8
 1869 048a 62       		.byte	0x62
 1870 048b 68020000 		.4byte	0x268
 1871 048f 02       		.byte	0x2
 1872 0490 23       		.byte	0x23
 1873 0491 18       		.uleb128 0x18
 1874 0492 00       		.byte	0
 1875 0493 04       		.uleb128 0x4
 1876 0494 0F040000 		.4byte	.LASF65
 1877 0498 08       		.byte	0x8
 1878 0499 64       		.byte	0x64
 1879 049a 36040000 		.4byte	0x436
 1880 049e 05       		.uleb128 0x5
 1881 049f F3030000 		.4byte	.LASF66
 1882 04a3 0C       		.byte	0xc
 1883 04a4 09       		.byte	0x9
 1884 04a5 25       		.byte	0x25
 1885 04a6 C7040000 		.4byte	0x4c7
 1886 04aa 06       		.uleb128 0x6
 1887 04ab 38010000 		.4byte	.LASF67
 1888 04af 09       		.byte	0x9
 1889 04b0 26       		.byte	0x26
 1890 04b1 6E020000 		.4byte	0x26e
 1891 04b5 02       		.byte	0x2
 1892 04b6 23       		.byte	0x23
 1893 04b7 00       		.uleb128 0
 1894 04b8 06       		.uleb128 0x6
 1895 04b9 D5010000 		.4byte	.LASF68
 1896 04bd 09       		.byte	0x9
 1897 04be 28       		.byte	0x28
 1898 04bf FA000000 		.4byte	0xfa
 1899 04c3 02       		.byte	0x2
 1900 04c4 23       		.byte	0x23
 1901 04c5 08       		.uleb128 0x8
 1902 04c6 00       		.byte	0
 1903 04c7 04       		.uleb128 0x4
 1904 04c8 F3030000 		.4byte	.LASF66
 1905 04cc 09       		.byte	0x9
 1906 04cd 29       		.byte	0x29
 1907 04ce 9E040000 		.4byte	0x49e
 1908 04d2 08       		.uleb128 0x8
 1909 04d3 0C       		.byte	0xc
 1910 04d4 0A       		.byte	0xa
 1911 04d5 3D       		.byte	0x3d
 1912 04d6 E9040000 		.4byte	0x4e9
 1913 04da 06       		.uleb128 0x6
 1914 04db 40040000 		.4byte	.LASF69
 1915 04df 0A       		.byte	0xa
 1916 04e0 3E       		.byte	0x3e
ARM GAS  /tmp/cc5Rzgt2.s 			page 35


 1917 04e1 C7040000 		.4byte	0x4c7
 1918 04e5 02       		.byte	0x2
 1919 04e6 23       		.byte	0x23
 1920 04e7 00       		.uleb128 0
 1921 04e8 00       		.byte	0
 1922 04e9 04       		.uleb128 0x4
 1923 04ea 9E030000 		.4byte	.LASF70
 1924 04ee 0A       		.byte	0xa
 1925 04ef 3F       		.byte	0x3f
 1926 04f0 D2040000 		.4byte	0x4d2
 1927 04f4 05       		.uleb128 0x5
 1928 04f5 21020000 		.4byte	.LASF71
 1929 04f9 10       		.byte	0x10
 1930 04fa 0B       		.byte	0xb
 1931 04fb 25       		.byte	0x25
 1932 04fc 2B050000 		.4byte	0x52b
 1933 0500 06       		.uleb128 0x6
 1934 0501 71000000 		.4byte	.LASF72
 1935 0505 0B       		.byte	0xb
 1936 0506 26       		.byte	0x26
 1937 0507 6E020000 		.4byte	0x26e
 1938 050b 02       		.byte	0x2
 1939 050c 23       		.byte	0x23
 1940 050d 00       		.uleb128 0
 1941 050e 06       		.uleb128 0x6
 1942 050f 4E040000 		.4byte	.LASF73
 1943 0513 0B       		.byte	0xb
 1944 0514 28       		.byte	0x28
 1945 0515 68020000 		.4byte	0x268
 1946 0519 02       		.byte	0x2
 1947 051a 23       		.byte	0x23
 1948 051b 08       		.uleb128 0x8
 1949 051c 06       		.uleb128 0x6
 1950 051d AE030000 		.4byte	.LASF74
 1951 0521 0B       		.byte	0xb
 1952 0522 2A       		.byte	0x2a
 1953 0523 2B050000 		.4byte	0x52b
 1954 0527 02       		.byte	0x2
 1955 0528 23       		.byte	0x23
 1956 0529 0C       		.uleb128 0xc
 1957 052a 00       		.byte	0
 1958 052b 09       		.uleb128 0x9
 1959 052c 04       		.byte	0x4
 1960 052d F4040000 		.4byte	0x4f4
 1961 0531 04       		.uleb128 0x4
 1962 0532 21020000 		.4byte	.LASF71
 1963 0536 0B       		.byte	0xb
 1964 0537 2C       		.byte	0x2c
 1965 0538 F4040000 		.4byte	0x4f4
 1966 053c 10       		.uleb128 0x10
 1967 053d 04       		.byte	0x4
 1968 053e 05       		.byte	0x5
 1969 053f 8F       		.byte	0x8f
 1970 0540 71050000 		.4byte	0x571
 1971 0544 11       		.uleb128 0x11
 1972 0545 06000000 		.4byte	.LASF75
 1973 0549 05       		.byte	0x5
ARM GAS  /tmp/cc5Rzgt2.s 			page 36


 1974 054a 96       		.byte	0x96
 1975 054b D9000000 		.4byte	0xd9
 1976 054f 11       		.uleb128 0x11
 1977 0550 3F000000 		.4byte	.LASF76
 1978 0554 05       		.byte	0x5
 1979 0555 9D       		.byte	0x9d
 1980 0556 D9000000 		.4byte	0xd9
 1981 055a 11       		.uleb128 0x11
 1982 055b 27040000 		.4byte	.LASF77
 1983 055f 05       		.byte	0x5
 1984 0560 A4       		.byte	0xa4
 1985 0561 A6020000 		.4byte	0x2a6
 1986 0565 11       		.uleb128 0x11
 1987 0566 3D030000 		.4byte	.LASF78
 1988 056a 05       		.byte	0x5
 1989 056b AB       		.byte	0xab
 1990 056c E4000000 		.4byte	0xe4
 1991 0570 00       		.byte	0
 1992 0571 09       		.uleb128 0x9
 1993 0572 04       		.byte	0x4
 1994 0573 77050000 		.4byte	0x577
 1995 0577 12       		.uleb128 0x12
 1996 0578 7C050000 		.4byte	0x57c
 1997 057c 03       		.uleb128 0x3
 1998 057d 01       		.byte	0x1
 1999 057e 08       		.byte	0x8
 2000 057f 99030000 		.4byte	.LASF79
 2001 0583 09       		.uleb128 0x9
 2002 0584 04       		.byte	0x4
 2003 0585 A8020000 		.4byte	0x2a8
 2004 0589 09       		.uleb128 0x9
 2005 058a 04       		.byte	0x4
 2006 058b 31050000 		.4byte	0x531
 2007 058f 05       		.uleb128 0x5
 2008 0590 5A030000 		.4byte	.LASF80
 2009 0594 10       		.byte	0x10
 2010 0595 0C       		.byte	0xc
 2011 0596 3B       		.byte	0x3b
 2012 0597 D4050000 		.4byte	0x5d4
 2013 059b 06       		.uleb128 0x6
 2014 059c D0010000 		.4byte	.LASF81
 2015 05a0 0C       		.byte	0xc
 2016 05a1 3C       		.byte	0x3c
 2017 05a2 71050000 		.4byte	0x571
 2018 05a6 02       		.byte	0x2
 2019 05a7 23       		.byte	0x23
 2020 05a8 00       		.uleb128 0
 2021 05a9 06       		.uleb128 0x6
 2022 05aa AA020000 		.4byte	.LASF82
 2023 05ae 0C       		.byte	0xc
 2024 05af 3D       		.byte	0x3d
 2025 05b0 D6050000 		.4byte	0x5d6
 2026 05b4 02       		.byte	0x2
 2027 05b5 23       		.byte	0x23
 2028 05b6 04       		.uleb128 0x4
 2029 05b7 06       		.uleb128 0x6
 2030 05b8 C7010000 		.4byte	.LASF83
ARM GAS  /tmp/cc5Rzgt2.s 			page 37


 2031 05bc 0C       		.byte	0xc
 2032 05bd 3E       		.byte	0x3e
 2033 05be D6050000 		.4byte	0x5d6
 2034 05c2 02       		.byte	0x2
 2035 05c3 23       		.byte	0x23
 2036 05c4 08       		.uleb128 0x8
 2037 05c5 06       		.uleb128 0x6
 2038 05c6 DC020000 		.4byte	.LASF84
 2039 05ca 0C       		.byte	0xc
 2040 05cb 3F       		.byte	0x3f
 2041 05cc D6050000 		.4byte	0x5d6
 2042 05d0 02       		.byte	0x2
 2043 05d1 23       		.byte	0x23
 2044 05d2 0C       		.uleb128 0xc
 2045 05d3 00       		.byte	0
 2046 05d4 13       		.uleb128 0x13
 2047 05d5 01       		.byte	0x1
 2048 05d6 09       		.uleb128 0x9
 2049 05d7 04       		.byte	0x4
 2050 05d8 D4050000 		.4byte	0x5d4
 2051 05dc 14       		.uleb128 0x14
 2052 05dd 84010000 		.4byte	.LASF108
 2053 05e1 01       		.byte	0x1
 2054 05e2 D9       		.byte	0xd9
 2055 05e3 01       		.byte	0x1
 2056 05e4 01       		.byte	0x1
 2057 05e5 15       		.uleb128 0x15
 2058 05e6 8B000000 		.4byte	.LASF109
 2059 05ea 01       		.byte	0x1
 2060 05eb 90       		.byte	0x90
 2061 05ec 01       		.byte	0x1
 2062 05ed 01       		.byte	0x1
 2063 05ee 12060000 		.4byte	0x612
 2064 05f2 16       		.uleb128 0x16
 2065 05f3 6900     		.ascii	"i\000"
 2066 05f5 01       		.byte	0x1
 2067 05f6 91       		.byte	0x91
 2068 05f7 29000000 		.4byte	0x29
 2069 05fb 17       		.uleb128 0x17
 2070 05fc A1000000 		.4byte	.LASF85
 2071 0600 01       		.byte	0x1
 2072 0601 92       		.byte	0x92
 2073 0602 EF000000 		.4byte	0xef
 2074 0606 16       		.uleb128 0x16
 2075 0607 6D736700 		.ascii	"msg\000"
 2076 060b 01       		.byte	0x1
 2077 060c 93       		.byte	0x93
 2078 060d D9000000 		.4byte	0xd9
 2079 0611 00       		.byte	0
 2080 0612 18       		.uleb128 0x18
 2081 0613 FD030000 		.4byte	.LASF86
 2082 0617 01       		.byte	0x1
 2083 0618 CC       		.byte	0xcc
 2084 0619 01       		.byte	0x1
 2085 061a 00000000 		.4byte	.LFB13
 2086 061e 0E000000 		.4byte	.LFE13
 2087 0622 02       		.byte	0x2
ARM GAS  /tmp/cc5Rzgt2.s 			page 38


 2088 0623 7D       		.byte	0x7d
 2089 0624 00       		.sleb128 0
 2090 0625 18       		.uleb128 0x18
 2091 0626 0D000000 		.4byte	.LASF87
 2092 062a 01       		.byte	0x1
 2093 062b 80       		.byte	0x80
 2094 062c 01       		.byte	0x1
 2095 062d 00000000 		.4byte	.LFB10
 2096 0631 0E000000 		.4byte	.LFE10
 2097 0635 02       		.byte	0x2
 2098 0636 7D       		.byte	0x7d
 2099 0637 00       		.sleb128 0
 2100 0638 18       		.uleb128 0x18
 2101 0639 6C020000 		.4byte	.LASF88
 2102 063d 01       		.byte	0x1
 2103 063e 48       		.byte	0x48
 2104 063f 01       		.byte	0x1
 2105 0640 00000000 		.4byte	.LFB7
 2106 0644 0E000000 		.4byte	.LFE7
 2107 0648 02       		.byte	0x2
 2108 0649 7D       		.byte	0x7d
 2109 064a 00       		.sleb128 0
 2110 064b 19       		.uleb128 0x19
 2111 064c 32020000 		.4byte	.LASF94
 2112 0650 01       		.byte	0x1
 2113 0651 FB       		.byte	0xfb
 2114 0652 01       		.byte	0x1
 2115 0653 00000000 		.4byte	.LFB17
 2116 0657 18010000 		.4byte	.LFE17
 2117 065b 00000000 		.4byte	.LLST0
 2118 065f E6060000 		.4byte	0x6e6
 2119 0663 1A       		.uleb128 0x1a
 2120 0664 F6010000 		.4byte	.LASF89
 2121 0668 01       		.byte	0x1
 2122 0669 FC       		.byte	0xfc
 2123 066a E9040000 		.4byte	0x4e9
 2124 066e 02       		.byte	0x2
 2125 066f 91       		.byte	0x91
 2126 0670 6C       		.sleb128 -20
 2127 0671 1B       		.uleb128 0x1b
 2128 0672 64000000 		.4byte	.LBB2
 2129 0676 6A000000 		.4byte	.LBE2
 2130 067a 8F060000 		.4byte	0x68f
 2131 067e 1C       		.uleb128 0x1c
 2132 067f 746D7000 		.ascii	"tmp\000"
 2133 0683 01       		.byte	0x1
 2134 0684 0F01     		.2byte	0x10f
 2135 0686 70000000 		.4byte	0x70
 2136 068a 2C000000 		.4byte	.LLST1
 2137 068e 00       		.byte	0
 2138 068f 1B       		.uleb128 0x1b
 2139 0690 7C000000 		.4byte	.LBB3
 2140 0694 82000000 		.4byte	.LBE3
 2141 0698 AD060000 		.4byte	0x6ad
 2142 069c 1C       		.uleb128 0x1c
 2143 069d 746D7000 		.ascii	"tmp\000"
 2144 06a1 01       		.byte	0x1
ARM GAS  /tmp/cc5Rzgt2.s 			page 39


 2145 06a2 0F01     		.2byte	0x10f
 2146 06a4 70000000 		.4byte	0x70
 2147 06a8 3F000000 		.4byte	.LLST2
 2148 06ac 00       		.byte	0
 2149 06ad 1B       		.uleb128 0x1b
 2150 06ae AE000000 		.4byte	.LBB4
 2151 06b2 B4000000 		.4byte	.LBE4
 2152 06b6 CB060000 		.4byte	0x6cb
 2153 06ba 1C       		.uleb128 0x1c
 2154 06bb 746D7000 		.ascii	"tmp\000"
 2155 06bf 01       		.byte	0x1
 2156 06c0 1401     		.2byte	0x114
 2157 06c2 70000000 		.4byte	0x70
 2158 06c6 52000000 		.4byte	.LLST3
 2159 06ca 00       		.byte	0
 2160 06cb 1D       		.uleb128 0x1d
 2161 06cc C6000000 		.4byte	.LBB5
 2162 06d0 CC000000 		.4byte	.LBE5
 2163 06d4 1C       		.uleb128 0x1c
 2164 06d5 746D7000 		.ascii	"tmp\000"
 2165 06d9 01       		.byte	0x1
 2166 06da 1401     		.2byte	0x114
 2167 06dc 70000000 		.4byte	0x70
 2168 06e0 65000000 		.4byte	.LLST4
 2169 06e4 00       		.byte	0
 2170 06e5 00       		.byte	0
 2171 06e6 1E       		.uleb128 0x1e
 2172 06e7 95020000 		.4byte	.LASF90
 2173 06eb 01       		.byte	0x1
 2174 06ec F5       		.byte	0xf5
 2175 06ed 01       		.byte	0x1
 2176 06ee D9000000 		.4byte	0xd9
 2177 06f2 00000000 		.4byte	.LFB16
 2178 06f6 3E000000 		.4byte	.LFE16
 2179 06fa 78000000 		.4byte	.LLST5
 2180 06fe 3E070000 		.4byte	0x73e
 2181 0702 1F       		.uleb128 0x1f
 2182 0703 7000     		.ascii	"p\000"
 2183 0705 01       		.byte	0x1
 2184 0706 F5       		.byte	0xf5
 2185 0707 A6020000 		.4byte	0x2a6
 2186 070b 98000000 		.4byte	.LLST6
 2187 070f 20       		.uleb128 0x20
 2188 0710 00000000 		.4byte	.Ldebug_ranges0+0
 2189 0714 28070000 		.4byte	0x728
 2190 0718 21       		.uleb128 0x21
 2191 0719 746D7000 		.ascii	"tmp\000"
 2192 071d 01       		.byte	0x1
 2193 071e F7       		.byte	0xf7
 2194 071f 70000000 		.4byte	0x70
 2195 0723 B6000000 		.4byte	.LLST7
 2196 0727 00       		.byte	0
 2197 0728 22       		.uleb128 0x22
 2198 0729 18000000 		.4byte	.Ldebug_ranges0+0x18
 2199 072d 21       		.uleb128 0x21
 2200 072e 746D7000 		.ascii	"tmp\000"
 2201 0732 01       		.byte	0x1
ARM GAS  /tmp/cc5Rzgt2.s 			page 40


 2202 0733 F7       		.byte	0xf7
 2203 0734 70000000 		.4byte	0x70
 2204 0738 C9000000 		.4byte	.LLST8
 2205 073c 00       		.byte	0
 2206 073d 00       		.byte	0
 2207 073e 1E       		.uleb128 0x1e
 2208 073f 79000000 		.4byte	.LASF91
 2209 0743 01       		.byte	0x1
 2210 0744 D1       		.byte	0xd1
 2211 0745 01       		.byte	0x1
 2212 0746 D9000000 		.4byte	0xd9
 2213 074a 00000000 		.4byte	.LFB14
 2214 074e 1A000000 		.4byte	.LFE14
 2215 0752 E7000000 		.4byte	.LLST9
 2216 0756 68070000 		.4byte	0x768
 2217 075a 1F       		.uleb128 0x1f
 2218 075b 7000     		.ascii	"p\000"
 2219 075d 01       		.byte	0x1
 2220 075e D1       		.byte	0xd1
 2221 075f A6020000 		.4byte	0x2a6
 2222 0763 07010000 		.4byte	.LLST10
 2223 0767 00       		.byte	0
 2224 0768 1E       		.uleb128 0x1e
 2225 0769 7F020000 		.4byte	.LASF92
 2226 076d 01       		.byte	0x1
 2227 076e 4D       		.byte	0x4d
 2228 076f 01       		.byte	0x1
 2229 0770 D9000000 		.4byte	0xd9
 2230 0774 00000000 		.4byte	.LFB8
 2231 0778 1C000000 		.4byte	.LFE8
 2232 077c 1A010000 		.4byte	.LLST11
 2233 0780 92070000 		.4byte	0x792
 2234 0784 1F       		.uleb128 0x1f
 2235 0785 7000     		.ascii	"p\000"
 2236 0787 01       		.byte	0x1
 2237 0788 4D       		.byte	0x4d
 2238 0789 A6020000 		.4byte	0x2a6
 2239 078d 3A010000 		.4byte	.LLST12
 2240 0791 00       		.byte	0
 2241 0792 1E       		.uleb128 0x1e
 2242 0793 87020000 		.4byte	.LASF93
 2243 0797 01       		.byte	0x1
 2244 0798 85       		.byte	0x85
 2245 0799 01       		.byte	0x1
 2246 079a D9000000 		.4byte	0xd9
 2247 079e 00000000 		.4byte	.LFB11
 2248 07a2 30000000 		.4byte	.LFE11
 2249 07a6 58010000 		.4byte	.LLST13
 2250 07aa F2070000 		.4byte	0x7f2
 2251 07ae 1F       		.uleb128 0x1f
 2252 07af 7000     		.ascii	"p\000"
 2253 07b1 01       		.byte	0x1
 2254 07b2 85       		.byte	0x85
 2255 07b3 A6020000 		.4byte	0x2a6
 2256 07b7 78010000 		.4byte	.LLST14
 2257 07bb 1B       		.uleb128 0x1b
 2258 07bc 08000000 		.4byte	.LBB10
ARM GAS  /tmp/cc5Rzgt2.s 			page 41


 2259 07c0 0E000000 		.4byte	.LBE10
 2260 07c4 D8070000 		.4byte	0x7d8
 2261 07c8 21       		.uleb128 0x21
 2262 07c9 746D7000 		.ascii	"tmp\000"
 2263 07cd 01       		.byte	0x1
 2264 07ce 89       		.byte	0x89
 2265 07cf 70000000 		.4byte	0x70
 2266 07d3 8B010000 		.4byte	.LLST15
 2267 07d7 00       		.byte	0
 2268 07d8 1D       		.uleb128 0x1d
 2269 07d9 26000000 		.4byte	.LBB11
 2270 07dd 2C000000 		.4byte	.LBE11
 2271 07e1 21       		.uleb128 0x21
 2272 07e2 746D7000 		.ascii	"tmp\000"
 2273 07e6 01       		.byte	0x1
 2274 07e7 8C       		.byte	0x8c
 2275 07e8 70000000 		.4byte	0x70
 2276 07ec 9E010000 		.4byte	.LLST16
 2277 07f0 00       		.byte	0
 2278 07f1 00       		.byte	0
 2279 07f2 19       		.uleb128 0x19
 2280 07f3 6E030000 		.4byte	.LASF95
 2281 07f7 01       		.byte	0x1
 2282 07f8 54       		.byte	0x54
 2283 07f9 01       		.byte	0x1
 2284 07fa 00000000 		.4byte	.LFB9
 2285 07fe 5C010000 		.4byte	.LFE9
 2286 0802 B1010000 		.4byte	.LLST17
 2287 0806 3D080000 		.4byte	0x83d
 2288 080a 20       		.uleb128 0x20
 2289 080b 30000000 		.4byte	.Ldebug_ranges0+0x30
 2290 080f 23080000 		.4byte	0x823
 2291 0813 21       		.uleb128 0x21
 2292 0814 746D7000 		.ascii	"tmp\000"
 2293 0818 01       		.byte	0x1
 2294 0819 67       		.byte	0x67
 2295 081a 70000000 		.4byte	0x70
 2296 081e DD010000 		.4byte	.LLST18
 2297 0822 00       		.byte	0
 2298 0823 1D       		.uleb128 0x1d
 2299 0824 0C010000 		.4byte	.LBB14
 2300 0828 12010000 		.4byte	.LBE14
 2301 082c 21       		.uleb128 0x21
 2302 082d 746D7000 		.ascii	"tmp\000"
 2303 0831 01       		.byte	0x1
 2304 0832 69       		.byte	0x69
 2305 0833 70000000 		.4byte	0x70
 2306 0837 F0010000 		.4byte	.LLST19
 2307 083b 00       		.byte	0
 2308 083c 00       		.byte	0
 2309 083d 23       		.uleb128 0x23
 2310 083e DC050000 		.4byte	0x5dc
 2311 0842 00000000 		.4byte	.LFB15
 2312 0846 A4000000 		.4byte	.LFE15
 2313 084a 03020000 		.4byte	.LLST20
 2314 084e 62080000 		.4byte	0x862
 2315 0852 24       		.uleb128 0x24
ARM GAS  /tmp/cc5Rzgt2.s 			page 42


 2316 0853 DC050000 		.4byte	0x5dc
 2317 0857 5C000000 		.4byte	.LBB17
 2318 085b 48000000 		.4byte	.Ldebug_ranges0+0x48
 2319 085f 01       		.byte	0x1
 2320 0860 D9       		.byte	0xd9
 2321 0861 00       		.byte	0
 2322 0862 23       		.uleb128 0x23
 2323 0863 E5050000 		.4byte	0x5e5
 2324 0867 00000000 		.4byte	.LFB12
 2325 086b 98020000 		.4byte	.LFE12
 2326 086f 2F020000 		.4byte	.LLST21
 2327 0873 BD080000 		.4byte	0x8bd
 2328 0877 25       		.uleb128 0x25
 2329 0878 F2050000 		.4byte	0x5f2
 2330 087c 25       		.uleb128 0x25
 2331 087d FB050000 		.4byte	0x5fb
 2332 0881 26       		.uleb128 0x26
 2333 0882 06060000 		.4byte	0x606
 2334 0886 5B020000 		.4byte	.LLST22
 2335 088a 27       		.uleb128 0x27
 2336 088b E5050000 		.4byte	0x5e5
 2337 088f 4E000000 		.4byte	.LBB23
 2338 0893 60000000 		.4byte	.Ldebug_ranges0+0x60
 2339 0897 01       		.byte	0x1
 2340 0898 90       		.byte	0x90
 2341 0899 22       		.uleb128 0x22
 2342 089a 78000000 		.4byte	.Ldebug_ranges0+0x78
 2343 089e 26       		.uleb128 0x26
 2344 089f F2050000 		.4byte	0x5f2
 2345 08a3 7B020000 		.4byte	.LLST23
 2346 08a7 28       		.uleb128 0x28
 2347 08a8 FB050000 		.4byte	0x5fb
 2348 08ac 04       		.byte	0x4
 2349 08ad 76       		.byte	0x76
 2350 08ae C413     		.sleb128 2500
 2351 08b0 9F       		.byte	0x9f
 2352 08b1 26       		.uleb128 0x26
 2353 08b2 06060000 		.4byte	0x606
 2354 08b6 CB020000 		.4byte	.LLST24
 2355 08ba 00       		.byte	0
 2356 08bb 00       		.byte	0
 2357 08bc 00       		.byte	0
 2358 08bd 29       		.uleb128 0x29
 2359 08be 21000000 		.4byte	.LASF96
 2360 08c2 07       		.byte	0x7
 2361 08c3 D1       		.byte	0xd1
 2362 08c4 2B040000 		.4byte	0x42b
 2363 08c8 01       		.byte	0x1
 2364 08c9 01       		.byte	0x1
 2365 08ca 29       		.uleb128 0x29
 2366 08cb 19040000 		.4byte	.LASF97
 2367 08cf 08       		.byte	0x8
 2368 08d0 68       		.byte	0x68
 2369 08d1 93040000 		.4byte	0x493
 2370 08d5 01       		.byte	0x1
 2371 08d6 01       		.byte	0x1
 2372 08d7 2A       		.uleb128 0x2a
ARM GAS  /tmp/cc5Rzgt2.s 			page 43


 2373 08d8 68020000 		.4byte	0x268
 2374 08dc E7080000 		.4byte	0x8e7
 2375 08e0 2B       		.uleb128 0x2b
 2376 08e1 30000000 		.4byte	0x30
 2377 08e5 04       		.byte	0x4
 2378 08e6 00       		.byte	0
 2379 08e7 29       		.uleb128 0x29
 2380 08e8 2E030000 		.4byte	.LASF98
 2381 08ec 0C       		.byte	0xc
 2382 08ed A5       		.byte	0xa5
 2383 08ee D7080000 		.4byte	0x8d7
 2384 08f2 01       		.byte	0x1
 2385 08f3 01       		.byte	0x1
 2386 08f4 2A       		.uleb128 0x2a
 2387 08f5 A6020000 		.4byte	0x2a6
 2388 08f9 FF080000 		.4byte	0x8ff
 2389 08fd 2C       		.uleb128 0x2c
 2390 08fe 00       		.byte	0
 2391 08ff 2D       		.uleb128 0x2d
 2392 0900 776100   		.ascii	"wa\000"
 2393 0903 0C       		.byte	0xc
 2394 0904 A7       		.byte	0xa7
 2395 0905 0B090000 		.4byte	0x90b
 2396 0909 01       		.byte	0x1
 2397 090a 01       		.byte	0x1
 2398 090b 12       		.uleb128 0x12
 2399 090c F4080000 		.4byte	0x8f4
 2400 0910 1A       		.uleb128 0x1a
 2401 0911 59010000 		.4byte	.LASF99
 2402 0915 01       		.byte	0x1
 2403 0916 3B       		.byte	0x3b
 2404 0917 C7040000 		.4byte	0x4c7
 2405 091b 05       		.byte	0x5
 2406 091c 03       		.byte	0x3
 2407 091d 00000000 		.4byte	sem1
 2408 0921 29       		.uleb128 0x29
 2409 0922 91010000 		.4byte	.LASF100
 2410 0926 01       		.byte	0x1
 2411 0927 6E       		.byte	0x6e
 2412 0928 2E090000 		.4byte	0x92e
 2413 092c 01       		.byte	0x1
 2414 092d 01       		.byte	0x1
 2415 092e 12       		.uleb128 0x12
 2416 092f 8F050000 		.4byte	0x58f
 2417 0933 29       		.uleb128 0x29
 2418 0934 9A010000 		.4byte	.LASF101
 2419 0938 01       		.byte	0x1
 2420 0939 B8       		.byte	0xb8
 2421 093a 2E090000 		.4byte	0x92e
 2422 093e 01       		.byte	0x1
 2423 093f 01       		.byte	0x1
 2424 0940 29       		.uleb128 0x29
 2425 0941 A3010000 		.4byte	.LASF102
 2426 0945 01       		.byte	0x1
 2427 0946 E5       		.byte	0xe5
 2428 0947 2E090000 		.4byte	0x92e
 2429 094b 01       		.byte	0x1
ARM GAS  /tmp/cc5Rzgt2.s 			page 44


 2430 094c 01       		.byte	0x1
 2431 094d 2E       		.uleb128 0x2e
 2432 094e AC010000 		.4byte	.LASF103
 2433 0952 01       		.byte	0x1
 2434 0953 1901     		.2byte	0x119
 2435 0955 2E090000 		.4byte	0x92e
 2436 0959 01       		.byte	0x1
 2437 095a 01       		.byte	0x1
 2438 095b 29       		.uleb128 0x29
 2439 095c 21000000 		.4byte	.LASF96
 2440 0960 07       		.byte	0x7
 2441 0961 D1       		.byte	0xd1
 2442 0962 2B040000 		.4byte	0x42b
 2443 0966 01       		.byte	0x1
 2444 0967 01       		.byte	0x1
 2445 0968 29       		.uleb128 0x29
 2446 0969 19040000 		.4byte	.LASF97
 2447 096d 08       		.byte	0x8
 2448 096e 68       		.byte	0x68
 2449 096f 93040000 		.4byte	0x493
 2450 0973 01       		.byte	0x1
 2451 0974 01       		.byte	0x1
 2452 0975 29       		.uleb128 0x29
 2453 0976 2E030000 		.4byte	.LASF98
 2454 097a 0C       		.byte	0xc
 2455 097b A5       		.byte	0xa5
 2456 097c D7080000 		.4byte	0x8d7
 2457 0980 01       		.byte	0x1
 2458 0981 01       		.byte	0x1
 2459 0982 2D       		.uleb128 0x2d
 2460 0983 776100   		.ascii	"wa\000"
 2461 0986 0C       		.byte	0xc
 2462 0987 A7       		.byte	0xa7
 2463 0988 8E090000 		.4byte	0x98e
 2464 098c 01       		.byte	0x1
 2465 098d 01       		.byte	0x1
 2466 098e 12       		.uleb128 0x12
 2467 098f F4080000 		.4byte	0x8f4
 2468 0993 2F       		.uleb128 0x2f
 2469 0994 91010000 		.4byte	.LASF100
 2470 0998 01       		.byte	0x1
 2471 0999 6E       		.byte	0x6e
 2472 099a 2E090000 		.4byte	0x92e
 2473 099e 01       		.byte	0x1
 2474 099f 05       		.byte	0x5
 2475 09a0 03       		.byte	0x3
 2476 09a1 00000000 		.4byte	testsem1
 2477 09a5 2F       		.uleb128 0x2f
 2478 09a6 9A010000 		.4byte	.LASF101
 2479 09aa 01       		.byte	0x1
 2480 09ab B8       		.byte	0xb8
 2481 09ac 2E090000 		.4byte	0x92e
 2482 09b0 01       		.byte	0x1
 2483 09b1 05       		.byte	0x5
 2484 09b2 03       		.byte	0x3
 2485 09b3 00000000 		.4byte	testsem2
 2486 09b7 2F       		.uleb128 0x2f
ARM GAS  /tmp/cc5Rzgt2.s 			page 45


 2487 09b8 A3010000 		.4byte	.LASF102
 2488 09bc 01       		.byte	0x1
 2489 09bd E5       		.byte	0xe5
 2490 09be 2E090000 		.4byte	0x92e
 2491 09c2 01       		.byte	0x1
 2492 09c3 05       		.byte	0x5
 2493 09c4 03       		.byte	0x3
 2494 09c5 00000000 		.4byte	testsem3
 2495 09c9 30       		.uleb128 0x30
 2496 09ca AC010000 		.4byte	.LASF103
 2497 09ce 01       		.byte	0x1
 2498 09cf 1901     		.2byte	0x119
 2499 09d1 2E090000 		.4byte	0x92e
 2500 09d5 01       		.byte	0x1
 2501 09d6 05       		.byte	0x5
 2502 09d7 03       		.byte	0x3
 2503 09d8 00000000 		.4byte	testsem4
 2504 09dc 2A       		.uleb128 0x2a
 2505 09dd EC090000 		.4byte	0x9ec
 2506 09e1 EC090000 		.4byte	0x9ec
 2507 09e5 2B       		.uleb128 0x2b
 2508 09e6 30000000 		.4byte	0x30
 2509 09ea 04       		.byte	0x4
 2510 09eb 00       		.byte	0
 2511 09ec 09       		.uleb128 0x9
 2512 09ed 04       		.byte	0x4
 2513 09ee 2E090000 		.4byte	0x92e
 2514 09f2 30       		.uleb128 0x30
 2515 09f3 C2020000 		.4byte	.LASF104
 2516 09f7 01       		.byte	0x1
 2517 09f8 2401     		.2byte	0x124
 2518 09fa 050A0000 		.4byte	0xa05
 2519 09fe 01       		.byte	0x1
 2520 09ff 05       		.byte	0x5
 2521 0a00 03       		.byte	0x3
 2522 0a01 00000000 		.4byte	patternsem
 2523 0a05 12       		.uleb128 0x12
 2524 0a06 DC090000 		.4byte	0x9dc
 2525 0a0a 00       		.byte	0
 2526              		.section	.debug_abbrev,"",%progbits
 2527              	.Ldebug_abbrev0:
 2528 0000 01       		.uleb128 0x1
 2529 0001 11       		.uleb128 0x11
 2530 0002 01       		.byte	0x1
 2531 0003 25       		.uleb128 0x25
 2532 0004 0E       		.uleb128 0xe
 2533 0005 13       		.uleb128 0x13
 2534 0006 0B       		.uleb128 0xb
 2535 0007 03       		.uleb128 0x3
 2536 0008 0E       		.uleb128 0xe
 2537 0009 1B       		.uleb128 0x1b
 2538 000a 0E       		.uleb128 0xe
 2539 000b 11       		.uleb128 0x11
 2540 000c 01       		.uleb128 0x1
 2541 000d 52       		.uleb128 0x52
 2542 000e 01       		.uleb128 0x1
 2543 000f 55       		.uleb128 0x55
ARM GAS  /tmp/cc5Rzgt2.s 			page 46


 2544 0010 06       		.uleb128 0x6
 2545 0011 10       		.uleb128 0x10
 2546 0012 06       		.uleb128 0x6
 2547 0013 00       		.byte	0
 2548 0014 00       		.byte	0
 2549 0015 02       		.uleb128 0x2
 2550 0016 24       		.uleb128 0x24
 2551 0017 00       		.byte	0
 2552 0018 0B       		.uleb128 0xb
 2553 0019 0B       		.uleb128 0xb
 2554 001a 3E       		.uleb128 0x3e
 2555 001b 0B       		.uleb128 0xb
 2556 001c 03       		.uleb128 0x3
 2557 001d 08       		.uleb128 0x8
 2558 001e 00       		.byte	0
 2559 001f 00       		.byte	0
 2560 0020 03       		.uleb128 0x3
 2561 0021 24       		.uleb128 0x24
 2562 0022 00       		.byte	0
 2563 0023 0B       		.uleb128 0xb
 2564 0024 0B       		.uleb128 0xb
 2565 0025 3E       		.uleb128 0x3e
 2566 0026 0B       		.uleb128 0xb
 2567 0027 03       		.uleb128 0x3
 2568 0028 0E       		.uleb128 0xe
 2569 0029 00       		.byte	0
 2570 002a 00       		.byte	0
 2571 002b 04       		.uleb128 0x4
 2572 002c 16       		.uleb128 0x16
 2573 002d 00       		.byte	0
 2574 002e 03       		.uleb128 0x3
 2575 002f 0E       		.uleb128 0xe
 2576 0030 3A       		.uleb128 0x3a
 2577 0031 0B       		.uleb128 0xb
 2578 0032 3B       		.uleb128 0x3b
 2579 0033 0B       		.uleb128 0xb
 2580 0034 49       		.uleb128 0x49
 2581 0035 13       		.uleb128 0x13
 2582 0036 00       		.byte	0
 2583 0037 00       		.byte	0
 2584 0038 05       		.uleb128 0x5
 2585 0039 13       		.uleb128 0x13
 2586 003a 01       		.byte	0x1
 2587 003b 03       		.uleb128 0x3
 2588 003c 0E       		.uleb128 0xe
 2589 003d 0B       		.uleb128 0xb
 2590 003e 0B       		.uleb128 0xb
 2591 003f 3A       		.uleb128 0x3a
 2592 0040 0B       		.uleb128 0xb
 2593 0041 3B       		.uleb128 0x3b
 2594 0042 0B       		.uleb128 0xb
 2595 0043 01       		.uleb128 0x1
 2596 0044 13       		.uleb128 0x13
 2597 0045 00       		.byte	0
 2598 0046 00       		.byte	0
 2599 0047 06       		.uleb128 0x6
 2600 0048 0D       		.uleb128 0xd
ARM GAS  /tmp/cc5Rzgt2.s 			page 47


 2601 0049 00       		.byte	0
 2602 004a 03       		.uleb128 0x3
 2603 004b 0E       		.uleb128 0xe
 2604 004c 3A       		.uleb128 0x3a
 2605 004d 0B       		.uleb128 0xb
 2606 004e 3B       		.uleb128 0x3b
 2607 004f 0B       		.uleb128 0xb
 2608 0050 49       		.uleb128 0x49
 2609 0051 13       		.uleb128 0x13
 2610 0052 38       		.uleb128 0x38
 2611 0053 0A       		.uleb128 0xa
 2612 0054 00       		.byte	0
 2613 0055 00       		.byte	0
 2614 0056 07       		.uleb128 0x7
 2615 0057 0D       		.uleb128 0xd
 2616 0058 00       		.byte	0
 2617 0059 03       		.uleb128 0x3
 2618 005a 08       		.uleb128 0x8
 2619 005b 3A       		.uleb128 0x3a
 2620 005c 0B       		.uleb128 0xb
 2621 005d 3B       		.uleb128 0x3b
 2622 005e 0B       		.uleb128 0xb
 2623 005f 49       		.uleb128 0x49
 2624 0060 13       		.uleb128 0x13
 2625 0061 38       		.uleb128 0x38
 2626 0062 0A       		.uleb128 0xa
 2627 0063 00       		.byte	0
 2628 0064 00       		.byte	0
 2629 0065 08       		.uleb128 0x8
 2630 0066 13       		.uleb128 0x13
 2631 0067 01       		.byte	0x1
 2632 0068 0B       		.uleb128 0xb
 2633 0069 0B       		.uleb128 0xb
 2634 006a 3A       		.uleb128 0x3a
 2635 006b 0B       		.uleb128 0xb
 2636 006c 3B       		.uleb128 0x3b
 2637 006d 0B       		.uleb128 0xb
 2638 006e 01       		.uleb128 0x1
 2639 006f 13       		.uleb128 0x13
 2640 0070 00       		.byte	0
 2641 0071 00       		.byte	0
 2642 0072 09       		.uleb128 0x9
 2643 0073 0F       		.uleb128 0xf
 2644 0074 00       		.byte	0
 2645 0075 0B       		.uleb128 0xb
 2646 0076 0B       		.uleb128 0xb
 2647 0077 49       		.uleb128 0x49
 2648 0078 13       		.uleb128 0x13
 2649 0079 00       		.byte	0
 2650 007a 00       		.byte	0
 2651 007b 0A       		.uleb128 0xa
 2652 007c 0F       		.uleb128 0xf
 2653 007d 00       		.byte	0
 2654 007e 0B       		.uleb128 0xb
 2655 007f 0B       		.uleb128 0xb
 2656 0080 00       		.byte	0
 2657 0081 00       		.byte	0
ARM GAS  /tmp/cc5Rzgt2.s 			page 48


 2658 0082 0B       		.uleb128 0xb
 2659 0083 13       		.uleb128 0x13
 2660 0084 01       		.byte	0x1
 2661 0085 03       		.uleb128 0x3
 2662 0086 0E       		.uleb128 0xe
 2663 0087 0B       		.uleb128 0xb
 2664 0088 0B       		.uleb128 0xb
 2665 0089 3A       		.uleb128 0x3a
 2666 008a 0B       		.uleb128 0xb
 2667 008b 3B       		.uleb128 0x3b
 2668 008c 05       		.uleb128 0x5
 2669 008d 01       		.uleb128 0x1
 2670 008e 13       		.uleb128 0x13
 2671 008f 00       		.byte	0
 2672 0090 00       		.byte	0
 2673 0091 0C       		.uleb128 0xc
 2674 0092 0D       		.uleb128 0xd
 2675 0093 00       		.byte	0
 2676 0094 03       		.uleb128 0x3
 2677 0095 08       		.uleb128 0x8
 2678 0096 3A       		.uleb128 0x3a
 2679 0097 0B       		.uleb128 0xb
 2680 0098 3B       		.uleb128 0x3b
 2681 0099 05       		.uleb128 0x5
 2682 009a 49       		.uleb128 0x49
 2683 009b 13       		.uleb128 0x13
 2684 009c 38       		.uleb128 0x38
 2685 009d 0A       		.uleb128 0xa
 2686 009e 00       		.byte	0
 2687 009f 00       		.byte	0
 2688 00a0 0D       		.uleb128 0xd
 2689 00a1 15       		.uleb128 0x15
 2690 00a2 01       		.byte	0x1
 2691 00a3 27       		.uleb128 0x27
 2692 00a4 0C       		.uleb128 0xc
 2693 00a5 01       		.uleb128 0x1
 2694 00a6 13       		.uleb128 0x13
 2695 00a7 00       		.byte	0
 2696 00a8 00       		.byte	0
 2697 00a9 0E       		.uleb128 0xe
 2698 00aa 05       		.uleb128 0x5
 2699 00ab 00       		.byte	0
 2700 00ac 49       		.uleb128 0x49
 2701 00ad 13       		.uleb128 0x13
 2702 00ae 00       		.byte	0
 2703 00af 00       		.byte	0
 2704 00b0 0F       		.uleb128 0xf
 2705 00b1 35       		.uleb128 0x35
 2706 00b2 00       		.byte	0
 2707 00b3 49       		.uleb128 0x49
 2708 00b4 13       		.uleb128 0x13
 2709 00b5 00       		.byte	0
 2710 00b6 00       		.byte	0
 2711 00b7 10       		.uleb128 0x10
 2712 00b8 17       		.uleb128 0x17
 2713 00b9 01       		.byte	0x1
 2714 00ba 0B       		.uleb128 0xb
ARM GAS  /tmp/cc5Rzgt2.s 			page 49


 2715 00bb 0B       		.uleb128 0xb
 2716 00bc 3A       		.uleb128 0x3a
 2717 00bd 0B       		.uleb128 0xb
 2718 00be 3B       		.uleb128 0x3b
 2719 00bf 0B       		.uleb128 0xb
 2720 00c0 01       		.uleb128 0x1
 2721 00c1 13       		.uleb128 0x13
 2722 00c2 00       		.byte	0
 2723 00c3 00       		.byte	0
 2724 00c4 11       		.uleb128 0x11
 2725 00c5 0D       		.uleb128 0xd
 2726 00c6 00       		.byte	0
 2727 00c7 03       		.uleb128 0x3
 2728 00c8 0E       		.uleb128 0xe
 2729 00c9 3A       		.uleb128 0x3a
 2730 00ca 0B       		.uleb128 0xb
 2731 00cb 3B       		.uleb128 0x3b
 2732 00cc 0B       		.uleb128 0xb
 2733 00cd 49       		.uleb128 0x49
 2734 00ce 13       		.uleb128 0x13
 2735 00cf 00       		.byte	0
 2736 00d0 00       		.byte	0
 2737 00d1 12       		.uleb128 0x12
 2738 00d2 26       		.uleb128 0x26
 2739 00d3 00       		.byte	0
 2740 00d4 49       		.uleb128 0x49
 2741 00d5 13       		.uleb128 0x13
 2742 00d6 00       		.byte	0
 2743 00d7 00       		.byte	0
 2744 00d8 13       		.uleb128 0x13
 2745 00d9 15       		.uleb128 0x15
 2746 00da 00       		.byte	0
 2747 00db 27       		.uleb128 0x27
 2748 00dc 0C       		.uleb128 0xc
 2749 00dd 00       		.byte	0
 2750 00de 00       		.byte	0
 2751 00df 14       		.uleb128 0x14
 2752 00e0 2E       		.uleb128 0x2e
 2753 00e1 00       		.byte	0
 2754 00e2 03       		.uleb128 0x3
 2755 00e3 0E       		.uleb128 0xe
 2756 00e4 3A       		.uleb128 0x3a
 2757 00e5 0B       		.uleb128 0xb
 2758 00e6 3B       		.uleb128 0x3b
 2759 00e7 0B       		.uleb128 0xb
 2760 00e8 27       		.uleb128 0x27
 2761 00e9 0C       		.uleb128 0xc
 2762 00ea 20       		.uleb128 0x20
 2763 00eb 0B       		.uleb128 0xb
 2764 00ec 00       		.byte	0
 2765 00ed 00       		.byte	0
 2766 00ee 15       		.uleb128 0x15
 2767 00ef 2E       		.uleb128 0x2e
 2768 00f0 01       		.byte	0x1
 2769 00f1 03       		.uleb128 0x3
 2770 00f2 0E       		.uleb128 0xe
 2771 00f3 3A       		.uleb128 0x3a
ARM GAS  /tmp/cc5Rzgt2.s 			page 50


 2772 00f4 0B       		.uleb128 0xb
 2773 00f5 3B       		.uleb128 0x3b
 2774 00f6 0B       		.uleb128 0xb
 2775 00f7 27       		.uleb128 0x27
 2776 00f8 0C       		.uleb128 0xc
 2777 00f9 20       		.uleb128 0x20
 2778 00fa 0B       		.uleb128 0xb
 2779 00fb 01       		.uleb128 0x1
 2780 00fc 13       		.uleb128 0x13
 2781 00fd 00       		.byte	0
 2782 00fe 00       		.byte	0
 2783 00ff 16       		.uleb128 0x16
 2784 0100 34       		.uleb128 0x34
 2785 0101 00       		.byte	0
 2786 0102 03       		.uleb128 0x3
 2787 0103 08       		.uleb128 0x8
 2788 0104 3A       		.uleb128 0x3a
 2789 0105 0B       		.uleb128 0xb
 2790 0106 3B       		.uleb128 0x3b
 2791 0107 0B       		.uleb128 0xb
 2792 0108 49       		.uleb128 0x49
 2793 0109 13       		.uleb128 0x13
 2794 010a 00       		.byte	0
 2795 010b 00       		.byte	0
 2796 010c 17       		.uleb128 0x17
 2797 010d 34       		.uleb128 0x34
 2798 010e 00       		.byte	0
 2799 010f 03       		.uleb128 0x3
 2800 0110 0E       		.uleb128 0xe
 2801 0111 3A       		.uleb128 0x3a
 2802 0112 0B       		.uleb128 0xb
 2803 0113 3B       		.uleb128 0x3b
 2804 0114 0B       		.uleb128 0xb
 2805 0115 49       		.uleb128 0x49
 2806 0116 13       		.uleb128 0x13
 2807 0117 00       		.byte	0
 2808 0118 00       		.byte	0
 2809 0119 18       		.uleb128 0x18
 2810 011a 2E       		.uleb128 0x2e
 2811 011b 00       		.byte	0
 2812 011c 03       		.uleb128 0x3
 2813 011d 0E       		.uleb128 0xe
 2814 011e 3A       		.uleb128 0x3a
 2815 011f 0B       		.uleb128 0xb
 2816 0120 3B       		.uleb128 0x3b
 2817 0121 0B       		.uleb128 0xb
 2818 0122 27       		.uleb128 0x27
 2819 0123 0C       		.uleb128 0xc
 2820 0124 11       		.uleb128 0x11
 2821 0125 01       		.uleb128 0x1
 2822 0126 12       		.uleb128 0x12
 2823 0127 01       		.uleb128 0x1
 2824 0128 40       		.uleb128 0x40
 2825 0129 0A       		.uleb128 0xa
 2826 012a 00       		.byte	0
 2827 012b 00       		.byte	0
 2828 012c 19       		.uleb128 0x19
ARM GAS  /tmp/cc5Rzgt2.s 			page 51


 2829 012d 2E       		.uleb128 0x2e
 2830 012e 01       		.byte	0x1
 2831 012f 03       		.uleb128 0x3
 2832 0130 0E       		.uleb128 0xe
 2833 0131 3A       		.uleb128 0x3a
 2834 0132 0B       		.uleb128 0xb
 2835 0133 3B       		.uleb128 0x3b
 2836 0134 0B       		.uleb128 0xb
 2837 0135 27       		.uleb128 0x27
 2838 0136 0C       		.uleb128 0xc
 2839 0137 11       		.uleb128 0x11
 2840 0138 01       		.uleb128 0x1
 2841 0139 12       		.uleb128 0x12
 2842 013a 01       		.uleb128 0x1
 2843 013b 40       		.uleb128 0x40
 2844 013c 06       		.uleb128 0x6
 2845 013d 01       		.uleb128 0x1
 2846 013e 13       		.uleb128 0x13
 2847 013f 00       		.byte	0
 2848 0140 00       		.byte	0
 2849 0141 1A       		.uleb128 0x1a
 2850 0142 34       		.uleb128 0x34
 2851 0143 00       		.byte	0
 2852 0144 03       		.uleb128 0x3
 2853 0145 0E       		.uleb128 0xe
 2854 0146 3A       		.uleb128 0x3a
 2855 0147 0B       		.uleb128 0xb
 2856 0148 3B       		.uleb128 0x3b
 2857 0149 0B       		.uleb128 0xb
 2858 014a 49       		.uleb128 0x49
 2859 014b 13       		.uleb128 0x13
 2860 014c 02       		.uleb128 0x2
 2861 014d 0A       		.uleb128 0xa
 2862 014e 00       		.byte	0
 2863 014f 00       		.byte	0
 2864 0150 1B       		.uleb128 0x1b
 2865 0151 0B       		.uleb128 0xb
 2866 0152 01       		.byte	0x1
 2867 0153 11       		.uleb128 0x11
 2868 0154 01       		.uleb128 0x1
 2869 0155 12       		.uleb128 0x12
 2870 0156 01       		.uleb128 0x1
 2871 0157 01       		.uleb128 0x1
 2872 0158 13       		.uleb128 0x13
 2873 0159 00       		.byte	0
 2874 015a 00       		.byte	0
 2875 015b 1C       		.uleb128 0x1c
 2876 015c 34       		.uleb128 0x34
 2877 015d 00       		.byte	0
 2878 015e 03       		.uleb128 0x3
 2879 015f 08       		.uleb128 0x8
 2880 0160 3A       		.uleb128 0x3a
 2881 0161 0B       		.uleb128 0xb
 2882 0162 3B       		.uleb128 0x3b
 2883 0163 05       		.uleb128 0x5
 2884 0164 49       		.uleb128 0x49
 2885 0165 13       		.uleb128 0x13
ARM GAS  /tmp/cc5Rzgt2.s 			page 52


 2886 0166 02       		.uleb128 0x2
 2887 0167 06       		.uleb128 0x6
 2888 0168 00       		.byte	0
 2889 0169 00       		.byte	0
 2890 016a 1D       		.uleb128 0x1d
 2891 016b 0B       		.uleb128 0xb
 2892 016c 01       		.byte	0x1
 2893 016d 11       		.uleb128 0x11
 2894 016e 01       		.uleb128 0x1
 2895 016f 12       		.uleb128 0x12
 2896 0170 01       		.uleb128 0x1
 2897 0171 00       		.byte	0
 2898 0172 00       		.byte	0
 2899 0173 1E       		.uleb128 0x1e
 2900 0174 2E       		.uleb128 0x2e
 2901 0175 01       		.byte	0x1
 2902 0176 03       		.uleb128 0x3
 2903 0177 0E       		.uleb128 0xe
 2904 0178 3A       		.uleb128 0x3a
 2905 0179 0B       		.uleb128 0xb
 2906 017a 3B       		.uleb128 0x3b
 2907 017b 0B       		.uleb128 0xb
 2908 017c 27       		.uleb128 0x27
 2909 017d 0C       		.uleb128 0xc
 2910 017e 49       		.uleb128 0x49
 2911 017f 13       		.uleb128 0x13
 2912 0180 11       		.uleb128 0x11
 2913 0181 01       		.uleb128 0x1
 2914 0182 12       		.uleb128 0x12
 2915 0183 01       		.uleb128 0x1
 2916 0184 40       		.uleb128 0x40
 2917 0185 06       		.uleb128 0x6
 2918 0186 01       		.uleb128 0x1
 2919 0187 13       		.uleb128 0x13
 2920 0188 00       		.byte	0
 2921 0189 00       		.byte	0
 2922 018a 1F       		.uleb128 0x1f
 2923 018b 05       		.uleb128 0x5
 2924 018c 00       		.byte	0
 2925 018d 03       		.uleb128 0x3
 2926 018e 08       		.uleb128 0x8
 2927 018f 3A       		.uleb128 0x3a
 2928 0190 0B       		.uleb128 0xb
 2929 0191 3B       		.uleb128 0x3b
 2930 0192 0B       		.uleb128 0xb
 2931 0193 49       		.uleb128 0x49
 2932 0194 13       		.uleb128 0x13
 2933 0195 02       		.uleb128 0x2
 2934 0196 06       		.uleb128 0x6
 2935 0197 00       		.byte	0
 2936 0198 00       		.byte	0
 2937 0199 20       		.uleb128 0x20
 2938 019a 0B       		.uleb128 0xb
 2939 019b 01       		.byte	0x1
 2940 019c 55       		.uleb128 0x55
 2941 019d 06       		.uleb128 0x6
 2942 019e 01       		.uleb128 0x1
ARM GAS  /tmp/cc5Rzgt2.s 			page 53


 2943 019f 13       		.uleb128 0x13
 2944 01a0 00       		.byte	0
 2945 01a1 00       		.byte	0
 2946 01a2 21       		.uleb128 0x21
 2947 01a3 34       		.uleb128 0x34
 2948 01a4 00       		.byte	0
 2949 01a5 03       		.uleb128 0x3
 2950 01a6 08       		.uleb128 0x8
 2951 01a7 3A       		.uleb128 0x3a
 2952 01a8 0B       		.uleb128 0xb
 2953 01a9 3B       		.uleb128 0x3b
 2954 01aa 0B       		.uleb128 0xb
 2955 01ab 49       		.uleb128 0x49
 2956 01ac 13       		.uleb128 0x13
 2957 01ad 02       		.uleb128 0x2
 2958 01ae 06       		.uleb128 0x6
 2959 01af 00       		.byte	0
 2960 01b0 00       		.byte	0
 2961 01b1 22       		.uleb128 0x22
 2962 01b2 0B       		.uleb128 0xb
 2963 01b3 01       		.byte	0x1
 2964 01b4 55       		.uleb128 0x55
 2965 01b5 06       		.uleb128 0x6
 2966 01b6 00       		.byte	0
 2967 01b7 00       		.byte	0
 2968 01b8 23       		.uleb128 0x23
 2969 01b9 2E       		.uleb128 0x2e
 2970 01ba 01       		.byte	0x1
 2971 01bb 31       		.uleb128 0x31
 2972 01bc 13       		.uleb128 0x13
 2973 01bd 11       		.uleb128 0x11
 2974 01be 01       		.uleb128 0x1
 2975 01bf 12       		.uleb128 0x12
 2976 01c0 01       		.uleb128 0x1
 2977 01c1 40       		.uleb128 0x40
 2978 01c2 06       		.uleb128 0x6
 2979 01c3 01       		.uleb128 0x1
 2980 01c4 13       		.uleb128 0x13
 2981 01c5 00       		.byte	0
 2982 01c6 00       		.byte	0
 2983 01c7 24       		.uleb128 0x24
 2984 01c8 1D       		.uleb128 0x1d
 2985 01c9 00       		.byte	0
 2986 01ca 31       		.uleb128 0x31
 2987 01cb 13       		.uleb128 0x13
 2988 01cc 52       		.uleb128 0x52
 2989 01cd 01       		.uleb128 0x1
 2990 01ce 55       		.uleb128 0x55
 2991 01cf 06       		.uleb128 0x6
 2992 01d0 58       		.uleb128 0x58
 2993 01d1 0B       		.uleb128 0xb
 2994 01d2 59       		.uleb128 0x59
 2995 01d3 0B       		.uleb128 0xb
 2996 01d4 00       		.byte	0
 2997 01d5 00       		.byte	0
 2998 01d6 25       		.uleb128 0x25
 2999 01d7 34       		.uleb128 0x34
ARM GAS  /tmp/cc5Rzgt2.s 			page 54


 3000 01d8 00       		.byte	0
 3001 01d9 31       		.uleb128 0x31
 3002 01da 13       		.uleb128 0x13
 3003 01db 00       		.byte	0
 3004 01dc 00       		.byte	0
 3005 01dd 26       		.uleb128 0x26
 3006 01de 34       		.uleb128 0x34
 3007 01df 00       		.byte	0
 3008 01e0 31       		.uleb128 0x31
 3009 01e1 13       		.uleb128 0x13
 3010 01e2 02       		.uleb128 0x2
 3011 01e3 06       		.uleb128 0x6
 3012 01e4 00       		.byte	0
 3013 01e5 00       		.byte	0
 3014 01e6 27       		.uleb128 0x27
 3015 01e7 1D       		.uleb128 0x1d
 3016 01e8 01       		.byte	0x1
 3017 01e9 31       		.uleb128 0x31
 3018 01ea 13       		.uleb128 0x13
 3019 01eb 52       		.uleb128 0x52
 3020 01ec 01       		.uleb128 0x1
 3021 01ed 55       		.uleb128 0x55
 3022 01ee 06       		.uleb128 0x6
 3023 01ef 58       		.uleb128 0x58
 3024 01f0 0B       		.uleb128 0xb
 3025 01f1 59       		.uleb128 0x59
 3026 01f2 0B       		.uleb128 0xb
 3027 01f3 00       		.byte	0
 3028 01f4 00       		.byte	0
 3029 01f5 28       		.uleb128 0x28
 3030 01f6 34       		.uleb128 0x34
 3031 01f7 00       		.byte	0
 3032 01f8 31       		.uleb128 0x31
 3033 01f9 13       		.uleb128 0x13
 3034 01fa 02       		.uleb128 0x2
 3035 01fb 0A       		.uleb128 0xa
 3036 01fc 00       		.byte	0
 3037 01fd 00       		.byte	0
 3038 01fe 29       		.uleb128 0x29
 3039 01ff 34       		.uleb128 0x34
 3040 0200 00       		.byte	0
 3041 0201 03       		.uleb128 0x3
 3042 0202 0E       		.uleb128 0xe
 3043 0203 3A       		.uleb128 0x3a
 3044 0204 0B       		.uleb128 0xb
 3045 0205 3B       		.uleb128 0x3b
 3046 0206 0B       		.uleb128 0xb
 3047 0207 49       		.uleb128 0x49
 3048 0208 13       		.uleb128 0x13
 3049 0209 3F       		.uleb128 0x3f
 3050 020a 0C       		.uleb128 0xc
 3051 020b 3C       		.uleb128 0x3c
 3052 020c 0C       		.uleb128 0xc
 3053 020d 00       		.byte	0
 3054 020e 00       		.byte	0
 3055 020f 2A       		.uleb128 0x2a
 3056 0210 01       		.uleb128 0x1
ARM GAS  /tmp/cc5Rzgt2.s 			page 55


 3057 0211 01       		.byte	0x1
 3058 0212 49       		.uleb128 0x49
 3059 0213 13       		.uleb128 0x13
 3060 0214 01       		.uleb128 0x1
 3061 0215 13       		.uleb128 0x13
 3062 0216 00       		.byte	0
 3063 0217 00       		.byte	0
 3064 0218 2B       		.uleb128 0x2b
 3065 0219 21       		.uleb128 0x21
 3066 021a 00       		.byte	0
 3067 021b 49       		.uleb128 0x49
 3068 021c 13       		.uleb128 0x13
 3069 021d 2F       		.uleb128 0x2f
 3070 021e 0B       		.uleb128 0xb
 3071 021f 00       		.byte	0
 3072 0220 00       		.byte	0
 3073 0221 2C       		.uleb128 0x2c
 3074 0222 21       		.uleb128 0x21
 3075 0223 00       		.byte	0
 3076 0224 00       		.byte	0
 3077 0225 00       		.byte	0
 3078 0226 2D       		.uleb128 0x2d
 3079 0227 34       		.uleb128 0x34
 3080 0228 00       		.byte	0
 3081 0229 03       		.uleb128 0x3
 3082 022a 08       		.uleb128 0x8
 3083 022b 3A       		.uleb128 0x3a
 3084 022c 0B       		.uleb128 0xb
 3085 022d 3B       		.uleb128 0x3b
 3086 022e 0B       		.uleb128 0xb
 3087 022f 49       		.uleb128 0x49
 3088 0230 13       		.uleb128 0x13
 3089 0231 3F       		.uleb128 0x3f
 3090 0232 0C       		.uleb128 0xc
 3091 0233 3C       		.uleb128 0x3c
 3092 0234 0C       		.uleb128 0xc
 3093 0235 00       		.byte	0
 3094 0236 00       		.byte	0
 3095 0237 2E       		.uleb128 0x2e
 3096 0238 34       		.uleb128 0x34
 3097 0239 00       		.byte	0
 3098 023a 03       		.uleb128 0x3
 3099 023b 0E       		.uleb128 0xe
 3100 023c 3A       		.uleb128 0x3a
 3101 023d 0B       		.uleb128 0xb
 3102 023e 3B       		.uleb128 0x3b
 3103 023f 05       		.uleb128 0x5
 3104 0240 49       		.uleb128 0x49
 3105 0241 13       		.uleb128 0x13
 3106 0242 3F       		.uleb128 0x3f
 3107 0243 0C       		.uleb128 0xc
 3108 0244 3C       		.uleb128 0x3c
 3109 0245 0C       		.uleb128 0xc
 3110 0246 00       		.byte	0
 3111 0247 00       		.byte	0
 3112 0248 2F       		.uleb128 0x2f
 3113 0249 34       		.uleb128 0x34
ARM GAS  /tmp/cc5Rzgt2.s 			page 56


 3114 024a 00       		.byte	0
 3115 024b 03       		.uleb128 0x3
 3116 024c 0E       		.uleb128 0xe
 3117 024d 3A       		.uleb128 0x3a
 3118 024e 0B       		.uleb128 0xb
 3119 024f 3B       		.uleb128 0x3b
 3120 0250 0B       		.uleb128 0xb
 3121 0251 49       		.uleb128 0x49
 3122 0252 13       		.uleb128 0x13
 3123 0253 3F       		.uleb128 0x3f
 3124 0254 0C       		.uleb128 0xc
 3125 0255 02       		.uleb128 0x2
 3126 0256 0A       		.uleb128 0xa
 3127 0257 00       		.byte	0
 3128 0258 00       		.byte	0
 3129 0259 30       		.uleb128 0x30
 3130 025a 34       		.uleb128 0x34
 3131 025b 00       		.byte	0
 3132 025c 03       		.uleb128 0x3
 3133 025d 0E       		.uleb128 0xe
 3134 025e 3A       		.uleb128 0x3a
 3135 025f 0B       		.uleb128 0xb
 3136 0260 3B       		.uleb128 0x3b
 3137 0261 05       		.uleb128 0x5
 3138 0262 49       		.uleb128 0x49
 3139 0263 13       		.uleb128 0x13
 3140 0264 3F       		.uleb128 0x3f
 3141 0265 0C       		.uleb128 0xc
 3142 0266 02       		.uleb128 0x2
 3143 0267 0A       		.uleb128 0xa
 3144 0268 00       		.byte	0
 3145 0269 00       		.byte	0
 3146 026a 00       		.byte	0
 3147              		.section	.debug_loc,"",%progbits
 3148              	.Ldebug_loc0:
 3149              	.LLST0:
 3150 0000 00000000 		.4byte	.LFB17
 3151 0004 02000000 		.4byte	.LCFI0
 3152 0008 0200     		.2byte	0x2
 3153 000a 7D       		.byte	0x7d
 3154 000b 00       		.sleb128 0
 3155 000c 02000000 		.4byte	.LCFI0
 3156 0010 04000000 		.4byte	.LCFI1
 3157 0014 0200     		.2byte	0x2
 3158 0016 7D       		.byte	0x7d
 3159 0017 08       		.sleb128 8
 3160 0018 04000000 		.4byte	.LCFI1
 3161 001c 18010000 		.4byte	.LFE17
 3162 0020 0200     		.2byte	0x2
 3163 0022 7D       		.byte	0x7d
 3164 0023 20       		.sleb128 32
 3165 0024 00000000 		.4byte	0
 3166 0028 00000000 		.4byte	0
 3167              	.LLST1:
 3168 002c 6A000000 		.4byte	.LVL1
 3169 0030 6D000000 		.4byte	.LVL2-1
 3170 0034 0100     		.2byte	0x1
ARM GAS  /tmp/cc5Rzgt2.s 			page 57


 3171 0036 53       		.byte	0x53
 3172 0037 00000000 		.4byte	0
 3173 003b 00000000 		.4byte	0
 3174              	.LLST2:
 3175 003f 82000000 		.4byte	.LVL4
 3176 0043 88000000 		.4byte	.LVL5
 3177 0047 0100     		.2byte	0x1
 3178 0049 53       		.byte	0x53
 3179 004a 00000000 		.4byte	0
 3180 004e 00000000 		.4byte	0
 3181              	.LLST3:
 3182 0052 B4000000 		.4byte	.LVL7
 3183 0056 B7000000 		.4byte	.LVL8-1
 3184 005a 0100     		.2byte	0x1
 3185 005c 53       		.byte	0x53
 3186 005d 00000000 		.4byte	0
 3187 0061 00000000 		.4byte	0
 3188              	.LLST4:
 3189 0065 CC000000 		.4byte	.LVL10
 3190 0069 D2000000 		.4byte	.LVL11
 3191 006d 0100     		.2byte	0x1
 3192 006f 53       		.byte	0x53
 3193 0070 00000000 		.4byte	0
 3194 0074 00000000 		.4byte	0
 3195              	.LLST5:
 3196 0078 00000000 		.4byte	.LFB16
 3197 007c 02000000 		.4byte	.LCFI2
 3198 0080 0200     		.2byte	0x2
 3199 0082 7D       		.byte	0x7d
 3200 0083 00       		.sleb128 0
 3201 0084 02000000 		.4byte	.LCFI2
 3202 0088 3E000000 		.4byte	.LFE16
 3203 008c 0200     		.2byte	0x2
 3204 008e 7D       		.byte	0x7d
 3205 008f 08       		.sleb128 8
 3206 0090 00000000 		.4byte	0
 3207 0094 00000000 		.4byte	0
 3208              	.LLST6:
 3209 0098 00000000 		.4byte	.LVL12
 3210 009c 0D000000 		.4byte	.LVL15-1
 3211 00a0 0100     		.2byte	0x1
 3212 00a2 50       		.byte	0x50
 3213 00a3 0D000000 		.4byte	.LVL15-1
 3214 00a7 3E000000 		.4byte	.LFE16
 3215 00ab 0100     		.2byte	0x1
 3216 00ad 54       		.byte	0x54
 3217 00ae 00000000 		.4byte	0
 3218 00b2 00000000 		.4byte	0
 3219              	.LLST7:
 3220 00b6 0A000000 		.4byte	.LVL14
 3221 00ba 0D000000 		.4byte	.LVL15-1
 3222 00be 0100     		.2byte	0x1
 3223 00c0 53       		.byte	0x53
 3224 00c1 00000000 		.4byte	0
 3225 00c5 00000000 		.4byte	0
 3226              	.LLST8:
 3227 00c9 22000000 		.4byte	.LVL17
ARM GAS  /tmp/cc5Rzgt2.s 			page 58


 3228 00cd 26000000 		.4byte	.LVL18
 3229 00d1 0100     		.2byte	0x1
 3230 00d3 53       		.byte	0x53
 3231 00d4 3A000000 		.4byte	.LVL19
 3232 00d8 3E000000 		.4byte	.LFE16
 3233 00dc 0100     		.2byte	0x1
 3234 00de 53       		.byte	0x53
 3235 00df 00000000 		.4byte	0
 3236 00e3 00000000 		.4byte	0
 3237              	.LLST9:
 3238 00e7 00000000 		.4byte	.LFB14
 3239 00eb 02000000 		.4byte	.LCFI3
 3240 00ef 0200     		.2byte	0x2
 3241 00f1 7D       		.byte	0x7d
 3242 00f2 00       		.sleb128 0
 3243 00f3 02000000 		.4byte	.LCFI3
 3244 00f7 1A000000 		.4byte	.LFE14
 3245 00fb 0200     		.2byte	0x2
 3246 00fd 7D       		.byte	0x7d
 3247 00fe 08       		.sleb128 8
 3248 00ff 00000000 		.4byte	0
 3249 0103 00000000 		.4byte	0
 3250              	.LLST10:
 3251 0107 00000000 		.4byte	.LVL20
 3252 010b 0C000000 		.4byte	.LVL21
 3253 010f 0100     		.2byte	0x1
 3254 0111 50       		.byte	0x50
 3255 0112 00000000 		.4byte	0
 3256 0116 00000000 		.4byte	0
 3257              	.LLST11:
 3258 011a 00000000 		.4byte	.LFB8
 3259 011e 0A000000 		.4byte	.LCFI4
 3260 0122 0200     		.2byte	0x2
 3261 0124 7D       		.byte	0x7d
 3262 0125 00       		.sleb128 0
 3263 0126 0A000000 		.4byte	.LCFI4
 3264 012a 1C000000 		.4byte	.LFE8
 3265 012e 0200     		.2byte	0x2
 3266 0130 7D       		.byte	0x7d
 3267 0131 08       		.sleb128 8
 3268 0132 00000000 		.4byte	0
 3269 0136 00000000 		.4byte	0
 3270              	.LLST12:
 3271 013a 00000000 		.4byte	.LVL22
 3272 013e 0E000000 		.4byte	.LVL23
 3273 0142 0100     		.2byte	0x1
 3274 0144 50       		.byte	0x50
 3275 0145 0E000000 		.4byte	.LVL23
 3276 0149 1C000000 		.4byte	.LFE8
 3277 014d 0100     		.2byte	0x1
 3278 014f 54       		.byte	0x54
 3279 0150 00000000 		.4byte	0
 3280 0154 00000000 		.4byte	0
 3281              	.LLST13:
 3282 0158 00000000 		.4byte	.LFB11
 3283 015c 02000000 		.4byte	.LCFI5
 3284 0160 0200     		.2byte	0x2
ARM GAS  /tmp/cc5Rzgt2.s 			page 59


 3285 0162 7D       		.byte	0x7d
 3286 0163 00       		.sleb128 0
 3287 0164 02000000 		.4byte	.LCFI5
 3288 0168 30000000 		.4byte	.LFE11
 3289 016c 0200     		.2byte	0x2
 3290 016e 7D       		.byte	0x7d
 3291 016f 08       		.sleb128 8
 3292 0170 00000000 		.4byte	0
 3293 0174 00000000 		.4byte	0
 3294              	.LLST14:
 3295 0178 00000000 		.4byte	.LVL24
 3296 017c 04000000 		.4byte	.LVL25
 3297 0180 0100     		.2byte	0x1
 3298 0182 50       		.byte	0x50
 3299 0183 00000000 		.4byte	0
 3300 0187 00000000 		.4byte	0
 3301              	.LLST15:
 3302 018b 0E000000 		.4byte	.LVL27
 3303 018f 11000000 		.4byte	.LVL28-1
 3304 0193 0100     		.2byte	0x1
 3305 0195 53       		.byte	0x53
 3306 0196 00000000 		.4byte	0
 3307 019a 00000000 		.4byte	0
 3308              	.LLST16:
 3309 019e 2C000000 		.4byte	.LVL30
 3310 01a2 30000000 		.4byte	.LFE11
 3311 01a6 0100     		.2byte	0x1
 3312 01a8 53       		.byte	0x53
 3313 01a9 00000000 		.4byte	0
 3314 01ad 00000000 		.4byte	0
 3315              	.LLST17:
 3316 01b1 00000000 		.4byte	.LFB9
 3317 01b5 04000000 		.4byte	.LCFI6
 3318 01b9 0200     		.2byte	0x2
 3319 01bb 7D       		.byte	0x7d
 3320 01bc 00       		.sleb128 0
 3321 01bd 04000000 		.4byte	.LCFI6
 3322 01c1 14000000 		.4byte	.LCFI7
 3323 01c5 0200     		.2byte	0x2
 3324 01c7 7D       		.byte	0x7d
 3325 01c8 1C       		.sleb128 28
 3326 01c9 14000000 		.4byte	.LCFI7
 3327 01cd 5C010000 		.4byte	.LFE9
 3328 01d1 0200     		.2byte	0x2
 3329 01d3 7D       		.byte	0x7d
 3330 01d4 28       		.sleb128 40
 3331 01d5 00000000 		.4byte	0
 3332 01d9 00000000 		.4byte	0
 3333              	.LLST18:
 3334 01dd FC000000 		.4byte	.LVL32
 3335 01e1 FF000000 		.4byte	.LVL33-1
 3336 01e5 0100     		.2byte	0x1
 3337 01e7 53       		.byte	0x53
 3338 01e8 00000000 		.4byte	0
 3339 01ec 00000000 		.4byte	0
 3340              	.LLST19:
 3341 01f0 12010000 		.4byte	.LVL35
ARM GAS  /tmp/cc5Rzgt2.s 			page 60


 3342 01f4 15010000 		.4byte	.LVL36-1
 3343 01f8 0100     		.2byte	0x1
 3344 01fa 53       		.byte	0x53
 3345 01fb 00000000 		.4byte	0
 3346 01ff 00000000 		.4byte	0
 3347              	.LLST20:
 3348 0203 00000000 		.4byte	.LFB15
 3349 0207 04000000 		.4byte	.LCFI8
 3350 020b 0200     		.2byte	0x2
 3351 020d 7D       		.byte	0x7d
 3352 020e 00       		.sleb128 0
 3353 020f 04000000 		.4byte	.LCFI8
 3354 0213 0C000000 		.4byte	.LCFI9
 3355 0217 0200     		.2byte	0x2
 3356 0219 7D       		.byte	0x7d
 3357 021a 0C       		.sleb128 12
 3358 021b 0C000000 		.4byte	.LCFI9
 3359 021f A4000000 		.4byte	.LFE15
 3360 0223 0200     		.2byte	0x2
 3361 0225 7D       		.byte	0x7d
 3362 0226 18       		.sleb128 24
 3363 0227 00000000 		.4byte	0
 3364 022b 00000000 		.4byte	0
 3365              	.LLST21:
 3366 022f 00000000 		.4byte	.LFB12
 3367 0233 02000000 		.4byte	.LCFI10
 3368 0237 0200     		.2byte	0x2
 3369 0239 7D       		.byte	0x7d
 3370 023a 00       		.sleb128 0
 3371 023b 02000000 		.4byte	.LCFI10
 3372 023f 08000000 		.4byte	.LCFI11
 3373 0243 0200     		.2byte	0x2
 3374 0245 7D       		.byte	0x7d
 3375 0246 10       		.sleb128 16
 3376 0247 08000000 		.4byte	.LCFI11
 3377 024b 98020000 		.4byte	.LFE12
 3378 024f 0200     		.2byte	0x2
 3379 0251 7D       		.byte	0x7d
 3380 0252 18       		.sleb128 24
 3381 0253 00000000 		.4byte	0
 3382 0257 00000000 		.4byte	0
 3383              	.LLST22:
 3384 025b 0E000000 		.4byte	.LVL37
 3385 025f 12000000 		.4byte	.LVL38
 3386 0263 0100     		.2byte	0x1
 3387 0265 50       		.byte	0x50
 3388 0266 12000000 		.4byte	.LVL38
 3389 026a 1A000000 		.4byte	.LVL39
 3390 026e 0300     		.2byte	0x3
 3391 0270 70       		.byte	0x70
 3392 0271 7F       		.sleb128 -1
 3393 0272 9F       		.byte	0x9f
 3394 0273 00000000 		.4byte	0
 3395 0277 00000000 		.4byte	0
 3396              	.LLST23:
 3397 027b C2000000 		.4byte	.LVL42
 3398 027f 0C010000 		.4byte	.LVL46
ARM GAS  /tmp/cc5Rzgt2.s 			page 61


 3399 0283 0200     		.2byte	0x2
 3400 0285 30       		.byte	0x30
 3401 0286 9F       		.byte	0x9f
 3402 0287 0C010000 		.4byte	.LVL46
 3403 028b 60010000 		.4byte	.LVL50
 3404 028f 0200     		.2byte	0x2
 3405 0291 31       		.byte	0x31
 3406 0292 9F       		.byte	0x9f
 3407 0293 60010000 		.4byte	.LVL50
 3408 0297 B2010000 		.4byte	.LVL54
 3409 029b 0200     		.2byte	0x2
 3410 029d 32       		.byte	0x32
 3411 029e 9F       		.byte	0x9f
 3412 029f B2010000 		.4byte	.LVL54
 3413 02a3 08020000 		.4byte	.LVL58
 3414 02a7 0200     		.2byte	0x2
 3415 02a9 33       		.byte	0x33
 3416 02aa 9F       		.byte	0x9f
 3417 02ab 08020000 		.4byte	.LVL58
 3418 02af 5A020000 		.4byte	.LVL62
 3419 02b3 0200     		.2byte	0x2
 3420 02b5 34       		.byte	0x34
 3421 02b6 9F       		.byte	0x9f
 3422 02b7 5A020000 		.4byte	.LVL62
 3423 02bb 98020000 		.4byte	.LFE12
 3424 02bf 0200     		.2byte	0x2
 3425 02c1 35       		.byte	0x35
 3426 02c2 9F       		.byte	0x9f
 3427 02c3 00000000 		.4byte	0
 3428 02c7 00000000 		.4byte	0
 3429              	.LLST24:
 3430 02cb 78000000 		.4byte	.LVL40
 3431 02cf 7B000000 		.4byte	.LVL41-1
 3432 02d3 0100     		.2byte	0x1
 3433 02d5 50       		.byte	0x50
 3434 02d6 7B000000 		.4byte	.LVL41-1
 3435 02da D0000000 		.4byte	.LVL43
 3436 02de 0100     		.2byte	0x1
 3437 02e0 55       		.byte	0x55
 3438 02e1 D0000000 		.4byte	.LVL43
 3439 02e5 D6000000 		.4byte	.LVL44
 3440 02e9 0100     		.2byte	0x1
 3441 02eb 50       		.byte	0x50
 3442 02ec D6000000 		.4byte	.LVL44
 3443 02f0 DA000000 		.4byte	.LVL45
 3444 02f4 0300     		.2byte	0x3
 3445 02f6 71       		.byte	0x71
 3446 02f7 7F       		.sleb128 -1
 3447 02f8 9F       		.byte	0x9f
 3448 02f9 1C010000 		.4byte	.LVL47
 3449 02fd 22010000 		.4byte	.LVL48
 3450 0301 0100     		.2byte	0x1
 3451 0303 50       		.byte	0x50
 3452 0304 22010000 		.4byte	.LVL48
 3453 0308 2B010000 		.4byte	.LVL49-1
 3454 030c 0300     		.2byte	0x3
 3455 030e 73       		.byte	0x73
ARM GAS  /tmp/cc5Rzgt2.s 			page 62


 3456 030f 7F       		.sleb128 -1
 3457 0310 9F       		.byte	0x9f
 3458 0311 70010000 		.4byte	.LVL51
 3459 0315 76010000 		.4byte	.LVL52
 3460 0319 0100     		.2byte	0x1
 3461 031b 50       		.byte	0x50
 3462 031c 76010000 		.4byte	.LVL52
 3463 0320 7A010000 		.4byte	.LVL53
 3464 0324 0300     		.2byte	0x3
 3465 0326 71       		.byte	0x71
 3466 0327 7F       		.sleb128 -1
 3467 0328 9F       		.byte	0x9f
 3468 0329 C2010000 		.4byte	.LVL55
 3469 032d D0010000 		.4byte	.LVL56
 3470 0331 0100     		.2byte	0x1
 3471 0333 50       		.byte	0x50
 3472 0334 D0010000 		.4byte	.LVL56
 3473 0338 D3010000 		.4byte	.LVL57-1
 3474 033c 0300     		.2byte	0x3
 3475 033e 7C       		.byte	0x7c
 3476 033f 7F       		.sleb128 -1
 3477 0340 9F       		.byte	0x9f
 3478 0341 18020000 		.4byte	.LVL59
 3479 0345 1E020000 		.4byte	.LVL60
 3480 0349 0100     		.2byte	0x1
 3481 034b 50       		.byte	0x50
 3482 034c 1E020000 		.4byte	.LVL60
 3483 0350 22020000 		.4byte	.LVL61
 3484 0354 0300     		.2byte	0x3
 3485 0356 71       		.byte	0x71
 3486 0357 7F       		.sleb128 -1
 3487 0358 9F       		.byte	0x9f
 3488 0359 00000000 		.4byte	0
 3489 035d 00000000 		.4byte	0
 3490              		.section	.debug_aranges,"",%progbits
 3491 0000 6C000000 		.4byte	0x6c
 3492 0004 0200     		.2byte	0x2
 3493 0006 00000000 		.4byte	.Ldebug_info0
 3494 000a 04       		.byte	0x4
 3495 000b 00       		.byte	0
 3496 000c 0000     		.2byte	0
 3497 000e 0000     		.2byte	0
 3498 0010 00000000 		.4byte	.LFB13
 3499 0014 0E000000 		.4byte	.LFE13-.LFB13
 3500 0018 00000000 		.4byte	.LFB10
 3501 001c 0E000000 		.4byte	.LFE10-.LFB10
 3502 0020 00000000 		.4byte	.LFB7
 3503 0024 0E000000 		.4byte	.LFE7-.LFB7
 3504 0028 00000000 		.4byte	.LFB17
 3505 002c 18010000 		.4byte	.LFE17-.LFB17
 3506 0030 00000000 		.4byte	.LFB16
 3507 0034 3E000000 		.4byte	.LFE16-.LFB16
 3508 0038 00000000 		.4byte	.LFB14
 3509 003c 1A000000 		.4byte	.LFE14-.LFB14
 3510 0040 00000000 		.4byte	.LFB8
 3511 0044 1C000000 		.4byte	.LFE8-.LFB8
 3512 0048 00000000 		.4byte	.LFB11
ARM GAS  /tmp/cc5Rzgt2.s 			page 63


 3513 004c 30000000 		.4byte	.LFE11-.LFB11
 3514 0050 00000000 		.4byte	.LFB9
 3515 0054 5C010000 		.4byte	.LFE9-.LFB9
 3516 0058 00000000 		.4byte	.LFB15
 3517 005c A4000000 		.4byte	.LFE15-.LFB15
 3518 0060 00000000 		.4byte	.LFB12
 3519 0064 98020000 		.4byte	.LFE12-.LFB12
 3520 0068 00000000 		.4byte	0
 3521 006c 00000000 		.4byte	0
 3522              		.section	.debug_ranges,"",%progbits
 3523              	.Ldebug_ranges0:
 3524 0000 02000000 		.4byte	.LBB6
 3525 0004 04000000 		.4byte	.LBE6
 3526 0008 06000000 		.4byte	.LBB7
 3527 000c 0A000000 		.4byte	.LBE7
 3528 0010 00000000 		.4byte	0
 3529 0014 00000000 		.4byte	0
 3530 0018 1C000000 		.4byte	.LBB8
 3531 001c 22000000 		.4byte	.LBE8
 3532 0020 34000000 		.4byte	.LBB9
 3533 0024 3A000000 		.4byte	.LBE9
 3534 0028 00000000 		.4byte	0
 3535 002c 00000000 		.4byte	0
 3536 0030 F4000000 		.4byte	.LBB12
 3537 0034 F6000000 		.4byte	.LBE12
 3538 0038 F8000000 		.4byte	.LBB13
 3539 003c FC000000 		.4byte	.LBE13
 3540 0040 00000000 		.4byte	0
 3541 0044 00000000 		.4byte	0
 3542 0048 5C000000 		.4byte	.LBB17
 3543 004c 84000000 		.4byte	.LBE17
 3544 0050 8A000000 		.4byte	.LBB20
 3545 0054 A4000000 		.4byte	.LBE20
 3546 0058 00000000 		.4byte	0
 3547 005c 00000000 		.4byte	0
 3548 0060 4E000000 		.4byte	.LBB23
 3549 0064 72020000 		.4byte	.LBE23
 3550 0068 78020000 		.4byte	.LBB26
 3551 006c 98020000 		.4byte	.LBE26
 3552 0070 00000000 		.4byte	0
 3553 0074 00000000 		.4byte	0
 3554 0078 4E000000 		.4byte	.LBB24
 3555 007c 72020000 		.4byte	.LBE24
 3556 0080 78020000 		.4byte	.LBB25
 3557 0084 98020000 		.4byte	.LBE25
 3558 0088 00000000 		.4byte	0
 3559 008c 00000000 		.4byte	0
 3560 0090 00000000 		.4byte	.LFB13
 3561 0094 0E000000 		.4byte	.LFE13
 3562 0098 00000000 		.4byte	.LFB10
 3563 009c 0E000000 		.4byte	.LFE10
 3564 00a0 00000000 		.4byte	.LFB7
 3565 00a4 0E000000 		.4byte	.LFE7
 3566 00a8 00000000 		.4byte	.LFB17
 3567 00ac 18010000 		.4byte	.LFE17
 3568 00b0 00000000 		.4byte	.LFB16
 3569 00b4 3E000000 		.4byte	.LFE16
ARM GAS  /tmp/cc5Rzgt2.s 			page 64


 3570 00b8 00000000 		.4byte	.LFB14
 3571 00bc 1A000000 		.4byte	.LFE14
 3572 00c0 00000000 		.4byte	.LFB8
 3573 00c4 1C000000 		.4byte	.LFE8
 3574 00c8 00000000 		.4byte	.LFB11
 3575 00cc 30000000 		.4byte	.LFE11
 3576 00d0 00000000 		.4byte	.LFB9
 3577 00d4 5C010000 		.4byte	.LFE9
 3578 00d8 00000000 		.4byte	.LFB15
 3579 00dc A4000000 		.4byte	.LFE15
 3580 00e0 00000000 		.4byte	.LFB12
 3581 00e4 98020000 		.4byte	.LFE12
 3582 00e8 00000000 		.4byte	0
 3583 00ec 00000000 		.4byte	0
 3584              		.section	.debug_line,"",%progbits
 3585              	.Ldebug_line0:
 3586 0000 13030000 		.section	.debug_str,"MS",%progbits,1
 3586      02008001 
 3586      00000201 
 3586      FB0E0D00 
 3586      01010101 
 3587              	.LASF39:
 3588 0000 705F6D73 		.ascii	"p_msg\000"
 3588      6700
 3589              	.LASF75:
 3590 0006 7264796D 		.ascii	"rdymsg\000"
 3590      736700
 3591              	.LASF87:
 3592 000d 73656D32 		.ascii	"sem2_setup\000"
 3592      5F736574 
 3592      757000
 3593              	.LASF11:
 3594 0018 75696E74 		.ascii	"uint64_t\000"
 3594      36345F74 
 3594      00
 3595              	.LASF96:
 3596 0021 76746C69 		.ascii	"vtlist\000"
 3596      737400
 3597              	.LASF12:
 3598 0028 6C6F6E67 		.ascii	"long long unsigned int\000"
 3598      206C6F6E 
 3598      6720756E 
 3598      7369676E 
 3598      65642069 
 3599              	.LASF76:
 3600 003f 65786974 		.ascii	"exitcode\000"
 3600      636F6465 
 3600      00
 3601              	.LASF26:
 3602 0048 705F7072 		.ascii	"p_prio\000"
 3602      696F00
 3603              	.LASF10:
 3604 004f 6C6F6E67 		.ascii	"long long int\000"
 3604      206C6F6E 
 3604      6720696E 
 3604      7400
 3605              	.LASF1:
ARM GAS  /tmp/cc5Rzgt2.s 			page 65


 3606 005d 7369676E 		.ascii	"signed char\000"
 3606      65642063 
 3606      68617200 
 3607              	.LASF43:
 3608 0069 705F6D70 		.ascii	"p_mpool\000"
 3608      6F6F6C00 
 3609              	.LASF72:
 3610 0071 6D5F7175 		.ascii	"m_queue\000"
 3610      65756500 
 3611              	.LASF91:
 3612 0079 74687265 		.ascii	"thread3\000"
 3612      61643300 
 3613              	.LASF17:
 3614 0081 74736C69 		.ascii	"tslices_t\000"
 3614      6365735F 
 3614      7400
 3615              	.LASF109:
 3616 008b 73656D32 		.ascii	"sem2_execute\000"
 3616      5F657865 
 3616      63757465 
 3616      00
 3617              	.LASF7:
 3618 0098 6C6F6E67 		.ascii	"long int\000"
 3618      20696E74 
 3618      00
 3619              	.LASF85:
 3620 00a1 74617267 		.ascii	"target_time\000"
 3620      65745F74 
 3620      696D6500 
 3621              	.LASF105:
 3622 00ad 474E5520 		.ascii	"GNU C 4.6.2 20120613 (release) [ARM/embedded-4_6-br"
 3622      4320342E 
 3622      362E3220 
 3622      32303132 
 3622      30363133 
 3623 00e0 616E6368 		.ascii	"anch revision 188521]\000"
 3623      20726576 
 3623      6973696F 
 3623      6E203138 
 3623      38353231 
 3624              	.LASF107:
 3625 00f6 2F686F6D 		.ascii	"/home/tino/workspace/openrobots/R2P_IR_module/fw\000"
 3625      652F7469 
 3625      6E6F2F77 
 3625      6F726B73 
 3625      70616365 
 3626              	.LASF15:
 3627 0127 74737461 		.ascii	"tstate_t\000"
 3627      74655F74 
 3627      00
 3628              	.LASF28:
 3629 0130 705F6E65 		.ascii	"p_newer\000"
 3629      77657200 
 3630              	.LASF67:
 3631 0138 735F7175 		.ascii	"s_queue\000"
 3631      65756500 
 3632              	.LASF62:
ARM GAS  /tmp/cc5Rzgt2.s 			page 66


 3633 0140 725F6E65 		.ascii	"r_newer\000"
 3633      77657200 
 3634              	.LASF46:
 3635 0148 72656761 		.ascii	"regarm_t\000"
 3635      726D5F74 
 3635      00
 3636              	.LASF53:
 3637 0151 76745F70 		.ascii	"vt_prev\000"
 3637      72657600 
 3638              	.LASF99:
 3639 0159 73656D31 		.ascii	"sem1\000"
 3639      00
 3640              	.LASF22:
 3641 015e 636E745F 		.ascii	"cnt_t\000"
 3641      7400
 3642              	.LASF31:
 3643 0164 705F7374 		.ascii	"p_stklimit\000"
 3643      6B6C696D 
 3643      697400
 3644              	.LASF0:
 3645 016f 756E7369 		.ascii	"unsigned int\000"
 3645      676E6564 
 3645      20696E74 
 3645      00
 3646              	.LASF52:
 3647 017c 76745F6E 		.ascii	"vt_next\000"
 3647      65787400 
 3648              	.LASF108:
 3649 0184 73656D33 		.ascii	"sem3_execute\000"
 3649      5F657865 
 3649      63757465 
 3649      00
 3650              	.LASF100:
 3651 0191 74657374 		.ascii	"testsem1\000"
 3651      73656D31 
 3651      00
 3652              	.LASF101:
 3653 019a 74657374 		.ascii	"testsem2\000"
 3653      73656D32 
 3653      00
 3654              	.LASF102:
 3655 01a3 74657374 		.ascii	"testsem3\000"
 3655      73656D33 
 3655      00
 3656              	.LASF103:
 3657 01ac 74657374 		.ascii	"testsem4\000"
 3657      73656D34 
 3657      00
 3658              	.LASF9:
 3659 01b5 6C6F6E67 		.ascii	"long unsigned int\000"
 3659      20756E73 
 3659      69676E65 
 3659      6420696E 
 3659      7400
 3660              	.LASF83:
 3661 01c7 74656172 		.ascii	"teardown\000"
 3661      646F776E 
ARM GAS  /tmp/cc5Rzgt2.s 			page 67


 3661      00
 3662              	.LASF81:
 3663 01d0 6E616D65 		.ascii	"name\000"
 3663      00
 3664              	.LASF68:
 3665 01d5 735F636E 		.ascii	"s_cnt\000"
 3665      7400
 3666              	.LASF49:
 3667 01db 636F6E74 		.ascii	"context\000"
 3667      65787400 
 3668              	.LASF4:
 3669 01e3 73686F72 		.ascii	"short unsigned int\000"
 3669      7420756E 
 3669      7369676E 
 3669      65642069 
 3669      6E7400
 3670              	.LASF89:
 3671 01f6 6273656D 		.ascii	"bsem\000"
 3671      00
 3672              	.LASF19:
 3673 01fb 6D73675F 		.ascii	"msg_t\000"
 3673      7400
 3674              	.LASF14:
 3675 0201 746D6F64 		.ascii	"tmode_t\000"
 3675      655F7400 
 3676              	.LASF45:
 3677 0209 54687265 		.ascii	"ThreadsList\000"
 3677      6164734C 
 3677      69737400 
 3678              	.LASF20:
 3679 0215 6576656E 		.ascii	"eventmask_t\000"
 3679      746D6173 
 3679      6B5F7400 
 3680              	.LASF71:
 3681 0221 4D757465 		.ascii	"Mutex\000"
 3681      7800
 3682              	.LASF47:
 3683 0227 73746B61 		.ascii	"stkalign_t\000"
 3683      6C69676E 
 3683      5F7400
 3684              	.LASF94:
 3685 0232 73656D34 		.ascii	"sem4_execute\000"
 3685      5F657865 
 3685      63757465 
 3685      00
 3686              	.LASF54:
 3687 023f 76745F74 		.ascii	"vt_time\000"
 3687      696D6500 
 3688              	.LASF106:
 3689 0247 2E2E2F2E 		.ascii	"../../ChibiOS/test/testsem.c\000"
 3689      2E2F4368 
 3689      6962694F 
 3689      532F7465 
 3689      73742F74 
 3690              	.LASF55:
 3691 0264 76745F66 		.ascii	"vt_func\000"
 3691      756E6300 
ARM GAS  /tmp/cc5Rzgt2.s 			page 68


 3692              	.LASF88:
 3693 026c 73656D31 		.ascii	"sem1_setup\000"
 3693      5F736574 
 3693      757000
 3694              	.LASF29:
 3695 0277 705F6F6C 		.ascii	"p_older\000"
 3695      64657200 
 3696              	.LASF92:
 3697 027f 74687265 		.ascii	"thread1\000"
 3697      61643100 
 3698              	.LASF93:
 3699 0287 74687265 		.ascii	"thread2\000"
 3699      61643200 
 3700              	.LASF61:
 3701 028f 725F6374 		.ascii	"r_ctx\000"
 3701      7800
 3702              	.LASF90:
 3703 0295 74687265 		.ascii	"thread4\000"
 3703      61643400 
 3704              	.LASF44:
 3705 029d 54687265 		.ascii	"ThreadsQueue\000"
 3705      61647351 
 3705      75657565 
 3705      00
 3706              	.LASF82:
 3707 02aa 73657475 		.ascii	"setup\000"
 3707      7000
 3708              	.LASF64:
 3709 02b0 725F6375 		.ascii	"r_current\000"
 3709      7272656E 
 3709      7400
 3710              	.LASF63:
 3711 02ba 725F6F6C 		.ascii	"r_older\000"
 3711      64657200 
 3712              	.LASF104:
 3713 02c2 70617474 		.ascii	"patternsem\000"
 3713      65726E73 
 3713      656D00
 3714              	.LASF16:
 3715 02cd 74726566 		.ascii	"trefs_t\000"
 3715      735F7400 
 3716              	.LASF25:
 3717 02d5 705F7072 		.ascii	"p_prev\000"
 3717      657600
 3718              	.LASF84:
 3719 02dc 65786563 		.ascii	"execute\000"
 3719      75746500 
 3720              	.LASF18:
 3721 02e4 74707269 		.ascii	"tprio_t\000"
 3721      6F5F7400 
 3722              	.LASF13:
 3723 02ec 5F426F6F 		.ascii	"_Bool\000"
 3723      6C00
 3724              	.LASF6:
 3725 02f2 696E7433 		.ascii	"int32_t\000"
 3725      325F7400 
 3726              	.LASF2:
ARM GAS  /tmp/cc5Rzgt2.s 			page 69


 3727 02fa 756E7369 		.ascii	"unsigned char\000"
 3727      676E6564 
 3727      20636861 
 3727      7200
 3728              	.LASF41:
 3729 0308 705F6D74 		.ascii	"p_mtxlist\000"
 3729      786C6973 
 3729      7400
 3730              	.LASF3:
 3731 0312 73686F72 		.ascii	"short int\000"
 3731      7420696E 
 3731      7400
 3732              	.LASF32:
 3733 031c 705F7374 		.ascii	"p_state\000"
 3733      61746500 
 3734              	.LASF35:
 3735 0324 705F7072 		.ascii	"p_preempt\000"
 3735      65656D70 
 3735      7400
 3736              	.LASF98:
 3737 032e 74687265 		.ascii	"threads\000"
 3737      61647300 
 3738              	.LASF60:
 3739 0336 725F7072 		.ascii	"r_prio\000"
 3739      696F00
 3740              	.LASF78:
 3741 033d 65776D61 		.ascii	"ewmask\000"
 3741      736B00
 3742              	.LASF24:
 3743 0344 705F6E65 		.ascii	"p_next\000"
 3743      787400
 3744              	.LASF33:
 3745 034b 705F666C 		.ascii	"p_flags\000"
 3745      61677300 
 3746              	.LASF23:
 3747 0353 54687265 		.ascii	"Thread\000"
 3747      616400
 3748              	.LASF80:
 3749 035a 74657374 		.ascii	"testcase\000"
 3749      63617365 
 3749      00
 3750              	.LASF40:
 3751 0363 705F6570 		.ascii	"p_epending\000"
 3751      656E6469 
 3751      6E6700
 3752              	.LASF95:
 3753 036e 73656D31 		.ascii	"sem1_execute\000"
 3753      5F657865 
 3753      63757465 
 3753      00
 3754              	.LASF8:
 3755 037b 75696E74 		.ascii	"uint32_t\000"
 3755      33325F74 
 3755      00
 3756              	.LASF59:
 3757 0384 725F7175 		.ascii	"r_queue\000"
 3757      65756500 
ARM GAS  /tmp/cc5Rzgt2.s 			page 70


 3758              	.LASF51:
 3759 038c 56697274 		.ascii	"VirtualTimer\000"
 3759      75616C54 
 3759      696D6572 
 3759      00
 3760              	.LASF79:
 3761 0399 63686172 		.ascii	"char\000"
 3761      00
 3762              	.LASF70:
 3763 039e 42696E61 		.ascii	"BinarySemaphore\000"
 3763      72795365 
 3763      6D617068 
 3763      6F726500 
 3764              	.LASF74:
 3765 03ae 6D5F6E65 		.ascii	"m_next\000"
 3765      787400
 3766              	.LASF21:
 3767 03b5 73797374 		.ascii	"systime_t\000"
 3767      696D655F 
 3767      7400
 3768              	.LASF42:
 3769 03bf 705F7265 		.ascii	"p_realprio\000"
 3769      616C7072 
 3769      696F00
 3770              	.LASF50:
 3771 03ca 76746675 		.ascii	"vtfunc_t\000"
 3771      6E635F74 
 3771      00
 3772              	.LASF36:
 3773 03d3 705F7469 		.ascii	"p_time\000"
 3773      6D6500
 3774              	.LASF48:
 3775 03da 696E7463 		.ascii	"intctx\000"
 3775      747800
 3776              	.LASF38:
 3777 03e1 705F6D73 		.ascii	"p_msgqueue\000"
 3777      67717565 
 3777      756500
 3778              	.LASF56:
 3779 03ec 76745F70 		.ascii	"vt_par\000"
 3779      617200
 3780              	.LASF66:
 3781 03f3 53656D61 		.ascii	"Semaphore\000"
 3781      70686F72 
 3781      6500
 3782              	.LASF86:
 3783 03fd 73656D33 		.ascii	"sem3_setup\000"
 3783      5F736574 
 3783      757000
 3784              	.LASF34:
 3785 0408 705F7265 		.ascii	"p_refs\000"
 3785      667300
 3786              	.LASF65:
 3787 040f 52656164 		.ascii	"ReadyList\000"
 3787      794C6973 
 3787      7400
 3788              	.LASF97:
ARM GAS  /tmp/cc5Rzgt2.s 			page 71


 3789 0419 726C6973 		.ascii	"rlist\000"
 3789      7400
 3790              	.LASF5:
 3791 041f 75696E74 		.ascii	"uint8_t\000"
 3791      385F7400 
 3792              	.LASF77:
 3793 0427 77746F62 		.ascii	"wtobjp\000"
 3793      6A7000
 3794              	.LASF30:
 3795 042e 705F6E61 		.ascii	"p_name\000"
 3795      6D6500
 3796              	.LASF57:
 3797 0435 76745F73 		.ascii	"vt_systime\000"
 3797      79737469 
 3797      6D6500
 3798              	.LASF69:
 3799 0440 62735F73 		.ascii	"bs_sem\000"
 3799      656D00
 3800              	.LASF58:
 3801 0447 56544C69 		.ascii	"VTList\000"
 3801      737400
 3802              	.LASF73:
 3803 044e 6D5F6F77 		.ascii	"m_owner\000"
 3803      6E657200 
 3804              	.LASF27:
 3805 0456 705F6374 		.ascii	"p_ctx\000"
 3805      7800
 3806              	.LASF37:
 3807 045c 705F7761 		.ascii	"p_waiting\000"
 3807      6974696E 
 3807      6700
 3808              		.ident	"GCC: (GNU Tools for ARM Embedded Processors) 4.6.2 20120613 (release) [ARM/embedded-4_6-br
ARM GAS  /tmp/cc5Rzgt2.s 			page 72


DEFINED SYMBOLS
                            *ABS*:00000000 testsem.c
     /tmp/cc5Rzgt2.s:19     .text.sem3_setup:00000000 $t
     /tmp/cc5Rzgt2.s:24     .text.sem3_setup:00000000 sem3_setup
     /tmp/cc5Rzgt2.s:1185   .data.sem1:00000000 .LANCHOR0
     /tmp/cc5Rzgt2.s:43     .text.sem2_setup:00000000 $t
     /tmp/cc5Rzgt2.s:48     .text.sem2_setup:00000000 sem2_setup
     /tmp/cc5Rzgt2.s:66     .text.sem1_setup:00000000 $t
     /tmp/cc5Rzgt2.s:71     .text.sem1_setup:00000000 sem1_setup
     /tmp/cc5Rzgt2.s:89     .text.sem4_execute:00000000 $t
     /tmp/cc5Rzgt2.s:94     .text.sem4_execute:00000000 sem4_execute
     /tmp/cc5Rzgt2.s:269    .text.sem4_execute:00000108 $d
     /tmp/cc5Rzgt2.s:282    .text.thread4:00000000 thread4
     /tmp/cc5Rzgt2.s:277    .text.thread4:00000000 $t
     /tmp/cc5Rzgt2.s:351    .text.thread3:00000000 $t
     /tmp/cc5Rzgt2.s:356    .text.thread3:00000000 thread3
     /tmp/cc5Rzgt2.s:384    .text.thread1:00000000 $t
     /tmp/cc5Rzgt2.s:389    .text.thread1:00000000 thread1
     /tmp/cc5Rzgt2.s:421    .text.thread2:00000000 $t
     /tmp/cc5Rzgt2.s:426    .text.thread2:00000000 thread2
     /tmp/cc5Rzgt2.s:478    .text.sem1_execute:00000000 $t
     /tmp/cc5Rzgt2.s:483    .text.sem1_execute:00000000 sem1_execute
     /tmp/cc5Rzgt2.s:670    .text.sem1_execute:00000130 $d
     /tmp/cc5Rzgt2.s:685    .text.sem3_execute:00000000 $t
     /tmp/cc5Rzgt2.s:690    .text.sem3_execute:00000000 sem3_execute
     /tmp/cc5Rzgt2.s:786    .text.sem3_execute:00000090 $d
     /tmp/cc5Rzgt2.s:797    .text.sem2_execute:00000000 $t
     /tmp/cc5Rzgt2.s:802    .text.sem2_execute:00000000 sem2_execute
     /tmp/cc5Rzgt2.s:1130   .text.sem2_execute:0000027c $d
     /tmp/cc5Rzgt2.s:1196   .rodata.patternsem:00000000 patternsem
     /tmp/cc5Rzgt2.s:1178   .rodata.testsem4:00000000 testsem4
     /tmp/cc5Rzgt2.s:1169   .rodata.testsem3:00000000 testsem3
     /tmp/cc5Rzgt2.s:1160   .rodata.testsem2:00000000 testsem2
     /tmp/cc5Rzgt2.s:1151   .rodata.testsem1:00000000 testsem1
     /tmp/cc5Rzgt2.s:1148   .rodata.testsem1:00000000 $d
     /tmp/cc5Rzgt2.s:1157   .rodata.testsem2:00000000 $d
     /tmp/cc5Rzgt2.s:1166   .rodata.testsem3:00000000 $d
     /tmp/cc5Rzgt2.s:1175   .rodata.testsem4:00000000 $d
     /tmp/cc5Rzgt2.s:1184   .data.sem1:00000000 $d
     /tmp/cc5Rzgt2.s:1188   .data.sem1:00000000 sem1
     /tmp/cc5Rzgt2.s:1193   .rodata.patternsem:00000000 $d
     /tmp/cc5Rzgt2.s:1203   .rodata.str1.4:00000000 $d
                     .debug_frame:00000010 $d
     /tmp/cc5Rzgt2.s:276    .text.sem4_execute:00000118 $t
     /tmp/cc5Rzgt2.s:684    .text.sem1_execute:0000015c $t
     /tmp/cc5Rzgt2.s:796    .text.sem3_execute:000000a4 $t
     /tmp/cc5Rzgt2.s:1147   .text.sem2_execute:00000298 $t

UNDEFINED SYMBOLS
chSemInit
chSemReset
_test_assert
chThdCreateStatic
chSemWait
dbg_check_lock
chSchRescheduleS
dbg_check_unlock
ARM GAS  /tmp/cc5Rzgt2.s 			page 73


chSemSignalI
rlist
wa
threads
chSemSignal
test_emit_token
chThdSleep
test_wait_threads
_test_assert_sequence
chSemAddCounterI
chSemSignalWait
chSemWaitTimeout
test_wait_tick
_test_assert_time_window
vtlist
