ARM GAS  /tmp/ccRNZHDK.s 			page 1


   1              		.syntax unified
   2              		.cpu cortex-m3
   3              		.fpu softvfp
   4              		.eabi_attribute 20, 1
   5              		.eabi_attribute 21, 1
   6              		.eabi_attribute 23, 3
   7              		.eabi_attribute 24, 1
   8              		.eabi_attribute 25, 1
   9              		.eabi_attribute 26, 1
  10              		.eabi_attribute 30, 2
  11              		.eabi_attribute 34, 1
  12              		.eabi_attribute 18, 4
  13              		.thumb
  14              		.file	"testbmk.c"
  15              		.text
  16              	.Ltext0:
  17              		.cfi_sections	.debug_frame
  18              		.section	.text.thread2,"ax",%progbits
  19              		.align	2
  20              		.p2align 4,,15
  21              		.thumb
  22              		.thumb_func
  23              		.type	thread2, %function
  24              	thread2:
  25              	.LFB11:
  26              		.file 1 "../../ChibiOS/test/testbmk.c"
  27              		.loc 1 154 0
  28              		.cfi_startproc
  29              		@ args = 0, pretend = 0, frame = 0
  30              		@ frame_needed = 0, uses_anonymous_args = 0
  31              		@ link register save eliminated.
  32              	.LVL0:
  33              		.loc 1 157 0
  34 0000 7047     		bx	lr
  35              		.cfi_endproc
  36              	.LFE11:
  37              		.size	thread2, .-thread2
  38 0002 00BFAFF3 		.section	.text.tmo,"ax",%progbits
  38      0080AFF3 
  38      0080AFF3 
  38      0080
  39              		.align	2
  40              		.p2align 4,,15
  41              		.thumb
  42              		.thumb_func
  43              		.type	tmo, %function
  44              	tmo:
  45              	.LFB23:
  46              		.loc 1 500 0
  47              		.cfi_startproc
  48              		@ args = 0, pretend = 0, frame = 0
  49              		@ frame_needed = 0, uses_anonymous_args = 0
  50              		@ link register save eliminated.
  51              	.LVL1:
  52              		.loc 1 500 0
  53 0000 7047     		bx	lr
  54              		.cfi_endproc
ARM GAS  /tmp/ccRNZHDK.s 			page 2


  55              	.LFE23:
  56              		.size	tmo, .-tmo
  57 0002 00BFAFF3 		.section	.text.bmk13_execute,"ax",%progbits
  57      0080AFF3 
  57      0080AFF3 
  57      0080
  58              		.align	2
  59              		.p2align 4,,15
  60              		.thumb
  61              		.thumb_func
  62              		.type	bmk13_execute, %function
  63              	bmk13_execute:
  64              	.LFB29:
  65              		.loc 1 633 0
  66              		.cfi_startproc
  67              		@ args = 0, pretend = 0, frame = 0
  68              		@ frame_needed = 0, uses_anonymous_args = 0
  69              		.loc 1 635 0
  70 0000 40F20000 		movw	r0, #:lower16:.LC0
  71              		.loc 1 633 0
  72 0004 10B5     		push	{r4, lr}
  73              	.LCFI0:
  74              		.cfi_def_cfa_offset 8
  75              		.cfi_offset 14, -4
  76              		.cfi_offset 4, -8
  77              		.loc 1 635 0
  78 0006 C0F20000 		movt	r0, #:upper16:.LC0
  79              		.loc 1 641 0
  80 000a 40F20004 		movw	r4, #:lower16:.LC1
  81 000e C0F20004 		movt	r4, #:upper16:.LC1
  82              		.loc 1 635 0
  83 0012 FFF7FEFF 		bl	test_print
  84              		.loc 1 636 0
  85 0016 4FF45770 		mov	r0, #860
  86 001a FFF7FEFF 		bl	test_printn
  87              		.loc 1 641 0
  88 001e 2046     		mov	r0, r4
  89 0020 FFF7FEFF 		bl	test_println
  90              		.loc 1 642 0
  91 0024 40F20000 		movw	r0, #:lower16:.LC2
  92 0028 C0F20000 		movt	r0, #:upper16:.LC2
  93 002c FFF7FEFF 		bl	test_print
  94              		.loc 1 643 0
  95 0030 4C20     		movs	r0, #76
  96 0032 FFF7FEFF 		bl	test_printn
  97              		.loc 1 644 0
  98 0036 2046     		mov	r0, r4
  99 0038 FFF7FEFF 		bl	test_println
 100              		.loc 1 645 0
 101 003c 40F20000 		movw	r0, #:lower16:.LC3
 102 0040 C0F20000 		movt	r0, #:upper16:.LC3
 103 0044 FFF7FEFF 		bl	test_print
 104              		.loc 1 646 0
 105 0048 1420     		movs	r0, #20
 106 004a FFF7FEFF 		bl	test_printn
 107              		.loc 1 647 0
 108 004e 2046     		mov	r0, r4
ARM GAS  /tmp/ccRNZHDK.s 			page 3


 109 0050 FFF7FEFF 		bl	test_println
 110              		.loc 1 648 0
 111 0054 40F20000 		movw	r0, #:lower16:.LC4
 112 0058 C0F20000 		movt	r0, #:upper16:.LC4
 113 005c FFF7FEFF 		bl	test_print
 114              		.loc 1 649 0
 115 0060 0C20     		movs	r0, #12
 116 0062 FFF7FEFF 		bl	test_printn
 117              		.loc 1 650 0
 118 0066 2046     		mov	r0, r4
 119 0068 FFF7FEFF 		bl	test_println
 120              		.loc 1 652 0
 121 006c 40F20000 		movw	r0, #:lower16:.LC5
 122 0070 C0F20000 		movt	r0, #:upper16:.LC5
 123 0074 FFF7FEFF 		bl	test_print
 124              		.loc 1 653 0
 125 0078 0420     		movs	r0, #4
 126 007a FFF7FEFF 		bl	test_printn
 127              		.loc 1 654 0
 128 007e 2046     		mov	r0, r4
 129 0080 FFF7FEFF 		bl	test_println
 130              		.loc 1 655 0
 131 0084 40F20000 		movw	r0, #:lower16:.LC6
 132 0088 C0F20000 		movt	r0, #:upper16:.LC6
 133 008c FFF7FEFF 		bl	test_print
 134              		.loc 1 656 0
 135 0090 1020     		movs	r0, #16
 136 0092 FFF7FEFF 		bl	test_printn
 137              		.loc 1 657 0
 138 0096 2046     		mov	r0, r4
 139 0098 FFF7FEFF 		bl	test_println
 140              		.loc 1 660 0
 141 009c 40F20000 		movw	r0, #:lower16:.LC7
 142 00a0 C0F20000 		movt	r0, #:upper16:.LC7
 143 00a4 FFF7FEFF 		bl	test_print
 144              		.loc 1 661 0
 145 00a8 1020     		movs	r0, #16
 146 00aa FFF7FEFF 		bl	test_printn
 147              		.loc 1 662 0
 148 00ae 2046     		mov	r0, r4
 149 00b0 FFF7FEFF 		bl	test_println
 150              		.loc 1 665 0
 151 00b4 40F20000 		movw	r0, #:lower16:.LC8
 152 00b8 C0F20000 		movt	r0, #:upper16:.LC8
 153 00bc FFF7FEFF 		bl	test_print
 154              		.loc 1 666 0
 155 00c0 0820     		movs	r0, #8
 156 00c2 FFF7FEFF 		bl	test_printn
 157              		.loc 1 667 0
 158 00c6 2046     		mov	r0, r4
 159 00c8 FFF7FEFF 		bl	test_println
 160              		.loc 1 670 0
 161 00cc 40F20000 		movw	r0, #:lower16:.LC9
 162 00d0 C0F20000 		movt	r0, #:upper16:.LC9
 163 00d4 FFF7FEFF 		bl	test_print
 164              		.loc 1 671 0
 165 00d8 2420     		movs	r0, #36
ARM GAS  /tmp/ccRNZHDK.s 			page 4


 166 00da FFF7FEFF 		bl	test_printn
 167              		.loc 1 672 0
 168 00de 2046     		mov	r0, r4
 169 00e0 FFF7FEFF 		bl	test_println
 170              		.loc 1 675 0
 171 00e4 40F20000 		movw	r0, #:lower16:.LC10
 172 00e8 C0F20000 		movt	r0, #:upper16:.LC10
 173 00ec FFF7FEFF 		bl	test_print
 174              		.loc 1 676 0
 175 00f0 2820     		movs	r0, #40
 176 00f2 FFF7FEFF 		bl	test_printn
 177              		.loc 1 677 0
 178 00f6 2046     		mov	r0, r4
 179              		.loc 1 679 0
 180 00f8 BDE81040 		pop	{r4, lr}
 181              		.loc 1 677 0
 182 00fc FFF7FEBF 		b	test_println
 183              		.cfi_endproc
 184              	.LFE29:
 185              		.size	bmk13_execute, .-bmk13_execute
 186              		.section	.text.bmk12_execute,"ax",%progbits
 187              		.align	2
 188              		.p2align 4,,15
 189              		.thumb
 190              		.thumb_func
 191              		.type	bmk12_execute, %function
 192              	bmk12_execute:
 193              	.LFB28:
 194              		.loc 1 594 0
 195              		.cfi_startproc
 196              		@ args = 0, pretend = 0, frame = 0
 197              		@ frame_needed = 0, uses_anonymous_args = 0
 198              	.LVL2:
 199 0000 38B5     		push	{r3, r4, r5, lr}
 200              	.LCFI1:
 201              		.cfi_def_cfa_offset 16
 202              		.cfi_offset 14, -4
 203              		.cfi_offset 5, -8
 204              		.cfi_offset 4, -12
 205              		.cfi_offset 3, -16
 206              		.loc 1 597 0
 207 0002 FFF7FEFF 		bl	test_wait_tick
 208              		.loc 1 598 0
 209 0006 4FF47A70 		mov	r0, #1000
 210 000a FFF7FEFF 		bl	test_start_timer
 211 000e 124D     		ldr	r5, .L8
 212              		.loc 1 595 0
 213 0010 0024     		movs	r4, #0
 214              	.LVL3:
 215              	.L5:
 216              		.loc 1 600 0 discriminator 1
 217 0012 1248     		ldr	r0, .L8+4
 218 0014 FFF7FEFF 		bl	chMtxLock
 219              		.loc 1 601 0 discriminator 1
 220 0018 FFF7FEFF 		bl	chMtxUnlock
 221              		.loc 1 602 0 discriminator 1
 222 001c 0F48     		ldr	r0, .L8+4
ARM GAS  /tmp/ccRNZHDK.s 			page 5


 223 001e FFF7FEFF 		bl	chMtxLock
 224              		.loc 1 603 0 discriminator 1
 225 0022 FFF7FEFF 		bl	chMtxUnlock
 226              		.loc 1 604 0 discriminator 1
 227 0026 0D48     		ldr	r0, .L8+4
 228 0028 FFF7FEFF 		bl	chMtxLock
 229              		.loc 1 605 0 discriminator 1
 230 002c FFF7FEFF 		bl	chMtxUnlock
 231              		.loc 1 606 0 discriminator 1
 232 0030 0A48     		ldr	r0, .L8+4
 233 0032 FFF7FEFF 		bl	chMtxLock
 234              		.loc 1 607 0 discriminator 1
 235 0036 FFF7FEFF 		bl	chMtxUnlock
 236              		.loc 1 612 0 discriminator 1
 237 003a 2B78     		ldrb	r3, [r5, #0]	@ zero_extendqisi2
 238              		.loc 1 608 0 discriminator 1
 239 003c 0134     		adds	r4, r4, #1
 240              	.LVL4:
 241              		.loc 1 612 0 discriminator 1
 242 003e 002B     		cmp	r3, #0
 243 0040 E7D0     		beq	.L5
 244              		.loc 1 613 0
 245 0042 0748     		ldr	r0, .L8+8
 246 0044 FFF7FEFF 		bl	test_print
 247              		.loc 1 614 0
 248 0048 A000     		lsls	r0, r4, #2
 249 004a FFF7FEFF 		bl	test_printn
 250              		.loc 1 615 0
 251 004e 0548     		ldr	r0, .L8+12
 252              		.loc 1 616 0
 253 0050 BDE83840 		pop	{r3, r4, r5, lr}
 254              		.loc 1 615 0
 255 0054 FFF7FEBF 		b	test_println
 256              	.L9:
 257              		.align	2
 258              	.L8:
 259 0058 00000000 		.word	test_timer_done
 260 005c 00000000 		.word	.LANCHOR0
 261 0060 A8000000 		.word	.LC11
 262 0064 B8000000 		.word	.LC12
 263              		.cfi_endproc
 264              	.LFE28:
 265              		.size	bmk12_execute, .-bmk12_execute
 266 0068 AFF30080 		.section	.text.bmk12_setup,"ax",%progbits
 266      AFF30080 
 267              		.align	2
 268              		.p2align 4,,15
 269              		.thumb
 270              		.thumb_func
 271              		.type	bmk12_setup, %function
 272              	bmk12_setup:
 273              	.LFB27:
 274              		.loc 1 589 0
 275              		.cfi_startproc
 276              		@ args = 0, pretend = 0, frame = 0
 277              		@ frame_needed = 0, uses_anonymous_args = 0
 278              		@ link register save eliminated.
ARM GAS  /tmp/ccRNZHDK.s 			page 6


 279              		.loc 1 591 0
 280 0000 40F20000 		movw	r0, #:lower16:.LANCHOR0
 281 0004 C0F20000 		movt	r0, #:upper16:.LANCHOR0
 282              		.loc 1 592 0
 283              		.loc 1 591 0
 284 0008 FFF7FEBF 		b	chMtxInit
 285              		.cfi_endproc
 286              	.LFE27:
 287              		.size	bmk12_setup, .-bmk12_setup
 288 000c AFF30080 		.section	.text.thread3,"ax",%progbits
 289              		.align	2
 290              		.p2align 4,,15
 291              		.thumb
 292              		.thumb_func
 293              		.type	thread3, %function
 294              	thread3:
 295              	.LFB17:
 296              		.loc 1 341 0
 297              		.cfi_startproc
 298              		@ args = 0, pretend = 0, frame = 0
 299              		@ frame_needed = 0, uses_anonymous_args = 0
 300              	.LVL5:
 301 0000 10B5     		push	{r4, lr}
 302              	.LCFI2:
 303              		.cfi_def_cfa_offset 8
 304              		.cfi_offset 14, -4
 305              		.cfi_offset 4, -8
 306              		.loc 1 344 0
 307 0002 084C     		ldr	r4, .L16
 308 0004 A069     		ldr	r0, [r4, #24]
 309              	.LVL6:
 310 0006 90F82130 		ldrb	r3, [r0, #33]	@ zero_extendqisi2
 311 000a 5A07     		lsls	r2, r3, #29
 312 000c 07D4     		bmi	.L12
 313              	.L14:
 314              		.loc 1 345 0
 315 000e 0648     		ldr	r0, .L16+4
 316 0010 FFF7FEFF 		bl	chSemWait
 317              		.loc 1 344 0
 318 0014 A269     		ldr	r2, [r4, #24]
 319 0016 92F82110 		ldrb	r1, [r2, #33]	@ zero_extendqisi2
 320 001a 4B07     		lsls	r3, r1, #29
 321 001c F7D5     		bpl	.L14
 322              	.L12:
 323              		.loc 1 347 0
 324 001e 0020     		movs	r0, #0
 325 0020 10BD     		pop	{r4, pc}
 326              	.L17:
 327 0022 00BF     		.align	2
 328              	.L16:
 329 0024 00000000 		.word	rlist
 330 0028 00000000 		.word	.LANCHOR1
 331              		.cfi_endproc
 332              	.LFE17:
 333              		.size	thread3, .-thread3
 334              		.section	.text.bmk11_execute,"ax",%progbits
 335              		.align	2
ARM GAS  /tmp/ccRNZHDK.s 			page 7


 336              		.p2align 4,,15
 337              		.thumb
 338              		.thumb_func
 339              		.type	bmk11_execute, %function
 340              	bmk11_execute:
 341              	.LFB26:
 342              		.loc 1 547 0
 343              		.cfi_startproc
 344              		@ args = 0, pretend = 0, frame = 0
 345              		@ frame_needed = 0, uses_anonymous_args = 0
 346              	.LVL7:
 347 0000 38B5     		push	{r3, r4, r5, lr}
 348              	.LCFI3:
 349              		.cfi_def_cfa_offset 16
 350              		.cfi_offset 14, -4
 351              		.cfi_offset 5, -8
 352              		.cfi_offset 4, -12
 353              		.cfi_offset 3, -16
 354              		.loc 1 550 0
 355 0002 FFF7FEFF 		bl	test_wait_tick
 356              		.loc 1 551 0
 357 0006 4FF47A70 		mov	r0, #1000
 358 000a FFF7FEFF 		bl	test_start_timer
 359 000e 144D     		ldr	r5, .L21
 360              		.loc 1 548 0
 361 0010 0024     		movs	r4, #0
 362              	.LVL8:
 363              	.L19:
 364              		.loc 1 553 0 discriminator 1
 365 0012 1448     		ldr	r0, .L21+4
 366 0014 FFF7FEFF 		bl	chSemWait
 367              		.loc 1 554 0 discriminator 1
 368 0018 1248     		ldr	r0, .L21+4
 369 001a FFF7FEFF 		bl	chSemSignal
 370              		.loc 1 555 0 discriminator 1
 371 001e 1148     		ldr	r0, .L21+4
 372 0020 FFF7FEFF 		bl	chSemWait
 373              		.loc 1 556 0 discriminator 1
 374 0024 0F48     		ldr	r0, .L21+4
 375 0026 FFF7FEFF 		bl	chSemSignal
 376              		.loc 1 557 0 discriminator 1
 377 002a 0E48     		ldr	r0, .L21+4
 378 002c FFF7FEFF 		bl	chSemWait
 379              		.loc 1 558 0 discriminator 1
 380 0030 0C48     		ldr	r0, .L21+4
 381 0032 FFF7FEFF 		bl	chSemSignal
 382              		.loc 1 559 0 discriminator 1
 383 0036 0B48     		ldr	r0, .L21+4
 384 0038 FFF7FEFF 		bl	chSemWait
 385              		.loc 1 560 0 discriminator 1
 386 003c 0948     		ldr	r0, .L21+4
 387 003e FFF7FEFF 		bl	chSemSignal
 388              		.loc 1 565 0 discriminator 1
 389 0042 2B78     		ldrb	r3, [r5, #0]	@ zero_extendqisi2
 390              		.loc 1 561 0 discriminator 1
 391 0044 0134     		adds	r4, r4, #1
 392              	.LVL9:
ARM GAS  /tmp/ccRNZHDK.s 			page 8


 393              		.loc 1 565 0 discriminator 1
 394 0046 002B     		cmp	r3, #0
 395 0048 E3D0     		beq	.L19
 396              		.loc 1 566 0
 397 004a 0748     		ldr	r0, .L21+8
 398 004c FFF7FEFF 		bl	test_print
 399              		.loc 1 567 0
 400 0050 A000     		lsls	r0, r4, #2
 401 0052 FFF7FEFF 		bl	test_printn
 402              		.loc 1 568 0
 403 0056 0548     		ldr	r0, .L21+12
 404              		.loc 1 569 0
 405 0058 BDE83840 		pop	{r3, r4, r5, lr}
 406              		.loc 1 568 0
 407 005c FFF7FEBF 		b	test_println
 408              	.L22:
 409              		.align	2
 410              	.L21:
 411 0060 00000000 		.word	test_timer_done
 412 0064 00000000 		.word	.LANCHOR1
 413 0068 A8000000 		.word	.LC11
 414 006c C8000000 		.word	.LC13
 415              		.cfi_endproc
 416              	.LFE26:
 417              		.size	bmk11_execute, .-bmk11_execute
 418              		.section	.text.bmk11_setup,"ax",%progbits
 419              		.align	2
 420              		.p2align 4,,15
 421              		.thumb
 422              		.thumb_func
 423              		.type	bmk11_setup, %function
 424              	bmk11_setup:
 425              	.LFB25:
 426              		.loc 1 542 0
 427              		.cfi_startproc
 428              		@ args = 0, pretend = 0, frame = 0
 429              		@ frame_needed = 0, uses_anonymous_args = 0
 430              		@ link register save eliminated.
 431              		.loc 1 544 0
 432 0000 40F20000 		movw	r0, #:lower16:.LANCHOR1
 433 0004 C0F20000 		movt	r0, #:upper16:.LANCHOR1
 434 0008 0121     		movs	r1, #1
 435              		.loc 1 545 0
 436              		.loc 1 544 0
 437 000a FFF7FEBF 		b	chSemInit
 438              		.cfi_endproc
 439              	.LFE25:
 440              		.size	bmk11_setup, .-bmk11_setup
 441 000e 00BF     		.section	.text.bmk7_setup,"ax",%progbits
 442              		.align	2
 443              		.p2align 4,,15
 444              		.thumb
 445              		.thumb_func
 446              		.type	bmk7_setup, %function
 447              	bmk7_setup:
 448              	.LFB18:
 449              		.loc 1 349 0
ARM GAS  /tmp/ccRNZHDK.s 			page 9


 450              		.cfi_startproc
 451              		@ args = 0, pretend = 0, frame = 0
 452              		@ frame_needed = 0, uses_anonymous_args = 0
 453              		@ link register save eliminated.
 454              		.loc 1 351 0
 455 0000 40F20000 		movw	r0, #:lower16:.LANCHOR1
 456 0004 C0F20000 		movt	r0, #:upper16:.LANCHOR1
 457 0008 0021     		movs	r1, #0
 458              		.loc 1 352 0
 459              		.loc 1 351 0
 460 000a FFF7FEBF 		b	chSemInit
 461              		.cfi_endproc
 462              	.LFE18:
 463              		.size	bmk7_setup, .-bmk7_setup
 464 000e 00BF     		.section	.text.bmk10_execute,"ax",%progbits
 465              		.align	2
 466              		.p2align 4,,15
 467              		.thumb
 468              		.thumb_func
 469              		.type	bmk10_execute, %function
 470              	bmk10_execute:
 471              	.LFB24:
 472              		.loc 1 502 0
 473              		.cfi_startproc
 474              		@ args = 0, pretend = 0, frame = 0
 475              		@ frame_needed = 0, uses_anonymous_args = 0
 476              	.LVL10:
 477 0000 38B5     		push	{r3, r4, r5, lr}
 478              	.LCFI4:
 479              		.cfi_def_cfa_offset 16
 480              		.cfi_offset 14, -4
 481              		.cfi_offset 5, -8
 482              		.cfi_offset 4, -12
 483              		.cfi_offset 3, -16
 484              		.loc 1 506 0
 485 0002 FFF7FEFF 		bl	test_wait_tick
 486              		.loc 1 507 0
 487 0006 4FF47A70 		mov	r0, #1000
 488 000a FFF7FEFF 		bl	test_start_timer
 489 000e 174D     		ldr	r5, .L28
 490              		.loc 1 504 0
 491 0010 0024     		movs	r4, #0
 492              	.LVL11:
 493              	.L26:
 494              	.LBB2:
 495              		.loc 1 509 0 discriminator 1
 496 0012 2023     		movs	r3, #32
 497              	.LVL12:
 498              	@ 509 "../../ChibiOS/test/testbmk.c" 1
 499 0014 83F31188 		msr     BASEPRI, r3
 500              	@ 0 "" 2
 501              	.LVL13:
 502              		.thumb
 503              	.LBE2:
 504 0018 FFF7FEFF 		bl	dbg_check_lock
 505              	.LVL14:
 506              		.loc 1 510 0 discriminator 1
ARM GAS  /tmp/ccRNZHDK.s 			page 10


 507 001c 0121     		movs	r1, #1
 508 001e 0023     		movs	r3, #0
 509 0020 1348     		ldr	r0, .L28+4
 510 0022 144A     		ldr	r2, .L28+8
 511 0024 FFF7FEFF 		bl	chVTSetI
 512              		.loc 1 511 0 discriminator 1
 513 0028 0023     		movs	r3, #0
 514 002a 42F21071 		movw	r1, #10000
 515 002e 114A     		ldr	r2, .L28+8
 516 0030 1148     		ldr	r0, .L28+12
 517 0032 FFF7FEFF 		bl	chVTSetI
 518              		.loc 1 512 0 discriminator 1
 519 0036 0E48     		ldr	r0, .L28+4
 520 0038 FFF7FEFF 		bl	chVTResetI
 521              		.loc 1 513 0 discriminator 1
 522 003c 0E48     		ldr	r0, .L28+12
 523 003e FFF7FEFF 		bl	chVTResetI
 524              		.loc 1 514 0 discriminator 1
 525 0042 FFF7FEFF 		bl	dbg_check_unlock
 526              	.LBB3:
 527 0046 0023     		movs	r3, #0
 528              	.LVL15:
 529              	@ 514 "../../ChibiOS/test/testbmk.c" 1
 530 0048 83F31188 		msr     BASEPRI, r3
 531              	@ 0 "" 2
 532              	.LVL16:
 533              		.thumb
 534              	.LBE3:
 535              		.loc 1 519 0 discriminator 1
 536 004c 2B78     		ldrb	r3, [r5, #0]	@ zero_extendqisi2
 537              	.LVL17:
 538              		.loc 1 515 0 discriminator 1
 539 004e 0134     		adds	r4, r4, #1
 540              	.LVL18:
 541              		.loc 1 519 0 discriminator 1
 542 0050 002B     		cmp	r3, #0
 543 0052 DED0     		beq	.L26
 544              		.loc 1 520 0
 545 0054 0948     		ldr	r0, .L28+16
 546 0056 FFF7FEFF 		bl	test_print
 547              		.loc 1 521 0
 548 005a 6000     		lsls	r0, r4, #1
 549 005c FFF7FEFF 		bl	test_printn
 550              		.loc 1 522 0
 551 0060 0748     		ldr	r0, .L28+20
 552              		.loc 1 523 0
 553 0062 BDE83840 		pop	{r3, r4, r5, lr}
 554              		.loc 1 522 0
 555 0066 FFF7FEBF 		b	test_println
 556              	.L29:
 557 006a 00BF     		.align	2
 558              	.L28:
 559 006c 00000000 		.word	test_timer_done
 560 0070 00000000 		.word	.LANCHOR2
 561 0074 00000000 		.word	tmo
 562 0078 00000000 		.word	.LANCHOR3
 563 007c A8000000 		.word	.LC11
ARM GAS  /tmp/ccRNZHDK.s 			page 11


 564 0080 D8000000 		.word	.LC14
 565              		.cfi_endproc
 566              	.LFE24:
 567              		.size	bmk10_execute, .-bmk10_execute
 568 0084 AFF30080 		.section	.text.bmk9_execute,"ax",%progbits
 568      AFF30080 
 568      AFF30080 
 569              		.align	2
 570              		.p2align 4,,15
 571              		.thumb
 572              		.thumb_func
 573              		.type	bmk9_execute, %function
 574              	bmk9_execute:
 575              	.LFB22:
 576              		.loc 1 454 0
 577              		.cfi_startproc
 578              		@ args = 0, pretend = 0, frame = 0
 579              		@ frame_needed = 0, uses_anonymous_args = 0
 580 0000 30B5     		push	{r4, r5, lr}
 581              	.LCFI5:
 582              		.cfi_def_cfa_offset 12
 583              		.cfi_offset 14, -4
 584              		.cfi_offset 5, -8
 585              		.cfi_offset 4, -12
 586              		.loc 1 459 0
 587 0002 0024     		movs	r4, #0
 588              		.loc 1 454 0
 589 0004 83B0     		sub	sp, sp, #12
 590              	.LCFI6:
 591              		.cfi_def_cfa_offset 24
 592              		.loc 1 459 0
 593 0006 2649     		ldr	r1, .L33
 594 0008 1022     		movs	r2, #16
 595 000a 2346     		mov	r3, r4
 596 000c 2548     		ldr	r0, .L33+4
 597 000e 0094     		str	r4, [sp, #0]
 598 0010 FFF7FEFF 		bl	chIQInit
 599              	.LVL19:
 600              		.loc 1 461 0
 601 0014 FFF7FEFF 		bl	test_wait_tick
 602              		.loc 1 462 0
 603 0018 4FF47A70 		mov	r0, #1000
 604 001c FFF7FEFF 		bl	test_start_timer
 605 0020 214D     		ldr	r5, .L33+8
 606              	.LVL20:
 607              	.L31:
 608              	.LBB4:
 609              		.loc 1 464 0 discriminator 1
 610 0022 2023     		movs	r3, #32
 611              	.LVL21:
 612              	@ 464 "../../ChibiOS/test/testbmk.c" 1
 613 0024 83F31188 		msr     BASEPRI, r3
 614              	@ 0 "" 2
 615              	.LVL22:
 616              		.thumb
 617              	.LBE4:
 618 0028 FFF7FEFF 		bl	dbg_check_lock
ARM GAS  /tmp/ccRNZHDK.s 			page 12


 619              	.LVL23:
 620              		.loc 1 465 0 discriminator 1
 621 002c 0021     		movs	r1, #0
 622 002e 1D48     		ldr	r0, .L33+4
 623 0030 FFF7FEFF 		bl	chIQPutI
 624              		.loc 1 466 0 discriminator 1
 625 0034 0121     		movs	r1, #1
 626 0036 1B48     		ldr	r0, .L33+4
 627 0038 FFF7FEFF 		bl	chIQPutI
 628              		.loc 1 467 0 discriminator 1
 629 003c 0221     		movs	r1, #2
 630 003e 1948     		ldr	r0, .L33+4
 631 0040 FFF7FEFF 		bl	chIQPutI
 632              		.loc 1 468 0 discriminator 1
 633 0044 0321     		movs	r1, #3
 634 0046 1748     		ldr	r0, .L33+4
 635 0048 FFF7FEFF 		bl	chIQPutI
 636              		.loc 1 469 0 discriminator 1
 637 004c FFF7FEFF 		bl	dbg_check_unlock
 638              	.LBB5:
 639 0050 0023     		movs	r3, #0
 640              	.LVL24:
 641              	@ 469 "../../ChibiOS/test/testbmk.c" 1
 642 0052 83F31188 		msr     BASEPRI, r3
 643              	@ 0 "" 2
 644              	.LVL25:
 645              		.thumb
 646              	.LBE5:
 647              		.loc 1 470 0 discriminator 1
 648 0056 4FF0FF31 		mov	r1, #-1
 649 005a 1248     		ldr	r0, .L33+4
 650 005c FFF7FEFF 		bl	chIQGetTimeout
 651              	.LVL26:
 652              		.loc 1 471 0 discriminator 1
 653 0060 4FF0FF31 		mov	r1, #-1
 654 0064 0F48     		ldr	r0, .L33+4
 655 0066 FFF7FEFF 		bl	chIQGetTimeout
 656              		.loc 1 472 0 discriminator 1
 657 006a 4FF0FF31 		mov	r1, #-1
 658 006e 0D48     		ldr	r0, .L33+4
 659 0070 FFF7FEFF 		bl	chIQGetTimeout
 660              		.loc 1 473 0 discriminator 1
 661 0074 0B48     		ldr	r0, .L33+4
 662 0076 4FF0FF31 		mov	r1, #-1
 663 007a FFF7FEFF 		bl	chIQGetTimeout
 664              		.loc 1 478 0 discriminator 1
 665 007e 2B78     		ldrb	r3, [r5, #0]	@ zero_extendqisi2
 666              		.loc 1 474 0 discriminator 1
 667 0080 0134     		adds	r4, r4, #1
 668              	.LVL27:
 669              		.loc 1 478 0 discriminator 1
 670 0082 002B     		cmp	r3, #0
 671 0084 CDD0     		beq	.L31
 672              		.loc 1 479 0
 673 0086 0948     		ldr	r0, .L33+12
 674 0088 FFF7FEFF 		bl	test_print
 675              		.loc 1 480 0
ARM GAS  /tmp/ccRNZHDK.s 			page 13


 676 008c A000     		lsls	r0, r4, #2
 677 008e FFF7FEFF 		bl	test_printn
 678              		.loc 1 481 0
 679 0092 0748     		ldr	r0, .L33+16
 680              		.loc 1 482 0
 681 0094 03B0     		add	sp, sp, #12
 682 0096 BDE83040 		pop	{r4, r5, lr}
 683              		.loc 1 481 0
 684 009a FFF7FEBF 		b	test_println
 685              	.L34:
 686 009e 00BF     		.align	2
 687              	.L33:
 688 00a0 00000000 		.word	.LANCHOR5
 689 00a4 00000000 		.word	.LANCHOR4
 690 00a8 00000000 		.word	test_timer_done
 691 00ac A8000000 		.word	.LC11
 692 00b0 E4000000 		.word	.LC15
 693              		.cfi_endproc
 694              	.LFE22:
 695              		.size	bmk9_execute, .-bmk9_execute
 696 00b4 AFF30080 		.section	.text.bmk6_execute,"ax",%progbits
 696      AFF30080 
 696      AFF30080 
 697              		.align	2
 698              		.p2align 4,,15
 699              		.thumb
 700              		.thumb_func
 701              		.type	bmk6_execute, %function
 702              	bmk6_execute:
 703              	.LFB16:
 704              		.loc 1 304 0
 705              		.cfi_startproc
 706              		@ args = 0, pretend = 0, frame = 0
 707              		@ frame_needed = 0, uses_anonymous_args = 0
 708              	.LVL28:
 709 0000 2DE9F041 		push	{r4, r5, r6, r7, r8, lr}
 710              	.LCFI7:
 711              		.cfi_def_cfa_offset 24
 712              		.cfi_offset 14, -4
 713              		.cfi_offset 8, -8
 714              		.cfi_offset 7, -12
 715              		.cfi_offset 6, -16
 716              		.cfi_offset 5, -20
 717              		.cfi_offset 4, -24
 718              		.loc 1 308 0
 719 0004 1448     		ldr	r0, .L38
 720              		.loc 1 307 0
 721 0006 154A     		ldr	r2, .L38+4
 722              		.loc 1 308 0
 723 0008 8369     		ldr	r3, [r0, #24]
 724              		.loc 1 304 0
 725 000a 82B0     		sub	sp, sp, #8
 726              	.LCFI8:
 727              		.cfi_def_cfa_offset 32
 728              		.loc 1 308 0
 729 000c 9F68     		ldr	r7, [r3, #8]
 730              		.loc 1 307 0
ARM GAS  /tmp/ccRNZHDK.s 			page 14


 731 000e D2F80080 		ldr	r8, [r2, #0]
 732              	.LVL29:
 733              		.loc 1 309 0
 734 0012 FFF7FEFF 		bl	test_wait_tick
 735              	.LVL30:
 736              		.loc 1 310 0
 737 0016 4FF47A70 		mov	r0, #1000
 738 001a FFF7FEFF 		bl	test_start_timer
 739              		.loc 1 306 0
 740 001e 0024     		movs	r4, #0
 741 0020 0F4E     		ldr	r6, .L38+8
 742              		.loc 1 308 0
 743 0022 0137     		adds	r7, r7, #1
 744              	.LVL31:
 745              		.loc 1 312 0
 746 0024 2546     		mov	r5, r4
 747              	.LVL32:
 748              	.L36:
 749              		.loc 1 312 0 is_stmt 0 discriminator 1
 750 0026 4FF40471 		mov	r1, #528
 751 002a 4046     		mov	r0, r8
 752 002c 3A46     		mov	r2, r7
 753 002e 0D4B     		ldr	r3, .L38+12
 754 0030 0095     		str	r5, [sp, #0]
 755 0032 FFF7FEFF 		bl	chThdCreateStatic
 756              		.loc 1 317 0 is_stmt 1 discriminator 1
 757 0036 3178     		ldrb	r1, [r6, #0]	@ zero_extendqisi2
 758              		.loc 1 313 0 discriminator 1
 759 0038 0134     		adds	r4, r4, #1
 760              	.LVL33:
 761              		.loc 1 317 0 discriminator 1
 762 003a 0029     		cmp	r1, #0
 763 003c F3D0     		beq	.L36
 764              		.loc 1 318 0
 765 003e 0A48     		ldr	r0, .L38+16
 766 0040 FFF7FEFF 		bl	test_print
 767              		.loc 1 319 0
 768 0044 2046     		mov	r0, r4
 769 0046 FFF7FEFF 		bl	test_printn
 770              		.loc 1 320 0
 771 004a 0848     		ldr	r0, .L38+20
 772              		.loc 1 321 0
 773 004c 02B0     		add	sp, sp, #8
 774 004e BDE8F041 		pop	{r4, r5, r6, r7, r8, lr}
 775              		.loc 1 320 0
 776 0052 FFF7FEBF 		b	test_println
 777              	.L39:
 778 0056 00BF     		.align	2
 779              	.L38:
 780 0058 00000000 		.word	rlist
 781 005c 00000000 		.word	wa
 782 0060 00000000 		.word	test_timer_done
 783 0064 00000000 		.word	thread2
 784 0068 A8000000 		.word	.LC11
 785 006c F0000000 		.word	.LC16
 786              		.cfi_endproc
 787              	.LFE16:
ARM GAS  /tmp/ccRNZHDK.s 			page 15


 788              		.size	bmk6_execute, .-bmk6_execute
 789              		.section	.text.bmk8_execute,"ax",%progbits
 790              		.align	2
 791              		.p2align 4,,15
 792              		.thumb
 793              		.thumb_func
 794              		.type	bmk8_execute, %function
 795              	bmk8_execute:
 796              	.LFB21:
 797              		.loc 1 416 0
 798              		.cfi_startproc
 799              		@ args = 0, pretend = 0, frame = 8
 800              		@ frame_needed = 0, uses_anonymous_args = 0
 801 0000 2DE9F041 		push	{r4, r5, r6, r7, r8, lr}
 802              	.LCFI9:
 803              		.cfi_def_cfa_offset 24
 804              		.cfi_offset 14, -4
 805              		.cfi_offset 8, -8
 806              		.cfi_offset 7, -12
 807              		.cfi_offset 6, -16
 808              		.cfi_offset 5, -20
 809              		.cfi_offset 4, -24
 810              		.loc 1 422 0
 811 0004 40F20007 		movw	r7, #:lower16:rlist
 812              		.loc 1 416 0
 813 0008 84B0     		sub	sp, sp, #16
 814              	.LCFI10:
 815              		.cfi_def_cfa_offset 40
 816              		.loc 1 419 0
 817 000a 04AC     		add	r4, sp, #16
 818              		.loc 1 422 0
 819 000c C0F20007 		movt	r7, #:upper16:rlist
 820              		.loc 1 419 0
 821 0010 0025     		movs	r5, #0
 822 0012 44F8045D 		str	r5, [r4, #-4]!
 823              	.LVL34:
 824              		.loc 1 420 0
 825 0016 FFF7FEFF 		bl	test_wait_tick
 826              		.loc 1 422 0
 827 001a B869     		ldr	r0, [r7, #24]
 828 001c 40F20006 		movw	r6, #:lower16:wa
 829 0020 8168     		ldr	r1, [r0, #8]
 830 0022 40F20005 		movw	r5, #:lower16:thread8
 831 0026 C0F20006 		movt	r6, #:upper16:wa
 832 002a C0F20005 		movt	r5, #:upper16:thread8
 833 002e 4A1E     		subs	r2, r1, #1
 834 0030 2B46     		mov	r3, r5
 835 0032 3068     		ldr	r0, [r6, #0]
 836 0034 4FF40471 		mov	r1, #528
 837 0038 0094     		str	r4, [sp, #0]
 838 003a FFF7FEFF 		bl	chThdCreateStatic
 839              		.loc 1 423 0
 840 003e BB69     		ldr	r3, [r7, #24]
 841              		.loc 1 422 0
 842 0040 40F20008 		movw	r8, #:lower16:threads
 843              		.loc 1 423 0
 844 0044 9A68     		ldr	r2, [r3, #8]
ARM GAS  /tmp/ccRNZHDK.s 			page 16


 845              		.loc 1 422 0
 846 0046 C0F20008 		movt	r8, #:upper16:threads
 847 004a 8446     		mov	ip, r0
 848              		.loc 1 423 0
 849 004c 013A     		subs	r2, r2, #1
 850 004e 2B46     		mov	r3, r5
 851 0050 7068     		ldr	r0, [r6, #4]
 852 0052 4FF40471 		mov	r1, #528
 853              		.loc 1 422 0
 854 0056 C8F800C0 		str	ip, [r8, #0]
 855              		.loc 1 423 0
 856 005a 0094     		str	r4, [sp, #0]
 857 005c FFF7FEFF 		bl	chThdCreateStatic
 858              		.loc 1 424 0
 859 0060 B969     		ldr	r1, [r7, #24]
 860              		.loc 1 423 0
 861 0062 8646     		mov	lr, r0
 862              		.loc 1 424 0
 863 0064 8B68     		ldr	r3, [r1, #8]
 864 0066 B068     		ldr	r0, [r6, #8]
 865 0068 5A1E     		subs	r2, r3, #1
 866 006a 4FF40471 		mov	r1, #528
 867 006e 2B46     		mov	r3, r5
 868              		.loc 1 423 0
 869 0070 C8F804E0 		str	lr, [r8, #4]
 870              		.loc 1 424 0
 871 0074 0094     		str	r4, [sp, #0]
 872 0076 FFF7FEFF 		bl	chThdCreateStatic
 873              		.loc 1 425 0
 874 007a BA69     		ldr	r2, [r7, #24]
 875              		.loc 1 424 0
 876 007c 8446     		mov	ip, r0
 877              		.loc 1 425 0
 878 007e 9368     		ldr	r3, [r2, #8]
 879 0080 F068     		ldr	r0, [r6, #12]
 880 0082 5A1E     		subs	r2, r3, #1
 881 0084 4FF40471 		mov	r1, #528
 882 0088 2B46     		mov	r3, r5
 883              		.loc 1 424 0
 884 008a C8F808C0 		str	ip, [r8, #8]
 885              		.loc 1 425 0
 886 008e 0094     		str	r4, [sp, #0]
 887 0090 FFF7FEFF 		bl	chThdCreateStatic
 888              		.loc 1 426 0
 889 0094 B969     		ldr	r1, [r7, #24]
 890              		.loc 1 425 0
 891 0096 8646     		mov	lr, r0
 892              		.loc 1 426 0
 893 0098 8A68     		ldr	r2, [r1, #8]
 894 009a 2B46     		mov	r3, r5
 895 009c 4FF40471 		mov	r1, #528
 896 00a0 013A     		subs	r2, r2, #1
 897 00a2 3069     		ldr	r0, [r6, #16]
 898              		.loc 1 425 0
 899 00a4 C8F80CE0 		str	lr, [r8, #12]
 900              		.loc 1 426 0
 901 00a8 0094     		str	r4, [sp, #0]
ARM GAS  /tmp/ccRNZHDK.s 			page 17


 902 00aa FFF7FEFF 		bl	chThdCreateStatic
 903 00ae 0346     		mov	r3, r0
 904              		.loc 1 428 0
 905 00b0 4FF47A70 		mov	r0, #1000
 906              		.loc 1 426 0
 907 00b4 C8F81030 		str	r3, [r8, #16]
 908              		.loc 1 428 0
 909 00b8 FFF7FEFF 		bl	chThdSleep
 910              		.loc 1 429 0
 911 00bc FFF7FEFF 		bl	test_terminate_threads
 912              		.loc 1 430 0
 913 00c0 FFF7FEFF 		bl	test_wait_threads
 914              		.loc 1 432 0
 915 00c4 40F20000 		movw	r0, #:lower16:.LC11
 916 00c8 C0F20000 		movt	r0, #:upper16:.LC11
 917 00cc FFF7FEFF 		bl	test_print
 918              		.loc 1 433 0
 919 00d0 0398     		ldr	r0, [sp, #12]
 920 00d2 FFF7FEFF 		bl	test_printn
 921              		.loc 1 434 0
 922 00d6 40F20000 		movw	r0, #:lower16:.LC17
 923 00da C0F20000 		movt	r0, #:upper16:.LC17
 924 00de FFF7FEFF 		bl	test_println
 925              		.loc 1 435 0
 926 00e2 04B0     		add	sp, sp, #16
 927 00e4 BDE8F081 		pop	{r4, r5, r6, r7, r8, pc}
 928              		.cfi_endproc
 929              	.LFE21:
 930              		.size	bmk8_execute, .-bmk8_execute
 931 00e8 AFF30080 		.section	.text.thread8,"ax",%progbits
 931      AFF30080 
 932              		.align	2
 933              		.p2align 4,,15
 934              		.thumb
 935              		.thumb_func
 936              		.type	thread8, %function
 937              	thread8:
 938              	.LFB20:
 939              		.loc 1 401 0
 940              		.cfi_startproc
 941              		@ args = 0, pretend = 0, frame = 0
 942              		@ frame_needed = 0, uses_anonymous_args = 0
 943              	.LVL35:
 944 0000 38B5     		push	{r3, r4, r5, lr}
 945              	.LCFI11:
 946              		.cfi_def_cfa_offset 16
 947              		.cfi_offset 14, -4
 948              		.cfi_offset 5, -8
 949              		.cfi_offset 4, -12
 950              		.cfi_offset 3, -16
 951 0002 0A4C     		ldr	r4, .L44
 952              		.loc 1 401 0
 953 0004 0546     		mov	r5, r0
 954              	.LVL36:
 955              	.L42:
 956              		.loc 1 404 0 discriminator 1
 957 0006 FFF7FEFF 		bl	chThdYield
ARM GAS  /tmp/ccRNZHDK.s 			page 18


 958              		.loc 1 405 0 discriminator 1
 959 000a FFF7FEFF 		bl	chThdYield
 960              		.loc 1 406 0 discriminator 1
 961 000e FFF7FEFF 		bl	chThdYield
 962              		.loc 1 407 0 discriminator 1
 963 0012 FFF7FEFF 		bl	chThdYield
 964              		.loc 1 408 0 discriminator 1
 965 0016 2968     		ldr	r1, [r5, #0]
 966              		.loc 1 412 0 discriminator 1
 967 0018 A069     		ldr	r0, [r4, #24]
 968              		.loc 1 408 0 discriminator 1
 969 001a 0A1D     		adds	r2, r1, #4
 970 001c 2A60     		str	r2, [r5, #0]
 971              		.loc 1 412 0 discriminator 1
 972 001e 90F82130 		ldrb	r3, [r0, #33]	@ zero_extendqisi2
 973 0022 5907     		lsls	r1, r3, #29
 974 0024 EFD5     		bpl	.L42
 975              		.loc 1 414 0
 976 0026 0020     		movs	r0, #0
 977 0028 38BD     		pop	{r3, r4, r5, pc}
 978              	.L45:
 979 002a 00BF     		.align	2
 980              	.L44:
 981 002c 00000000 		.word	rlist
 982              		.cfi_endproc
 983              	.LFE20:
 984              		.size	thread8, .-thread8
 985              		.section	.text.bmk7_execute,"ax",%progbits
 986              		.align	2
 987              		.p2align 4,,15
 988              		.thumb
 989              		.thumb_func
 990              		.type	bmk7_execute, %function
 991              	bmk7_execute:
 992              	.LFB19:
 993              		.loc 1 354 0
 994              		.cfi_startproc
 995              		@ args = 0, pretend = 0, frame = 0
 996              		@ frame_needed = 0, uses_anonymous_args = 0
 997 0000 F0B5     		push	{r4, r5, r6, r7, lr}
 998              	.LCFI12:
 999              		.cfi_def_cfa_offset 20
 1000              		.cfi_offset 14, -4
 1001              		.cfi_offset 7, -8
 1002              		.cfi_offset 6, -12
 1003              		.cfi_offset 5, -16
 1004              		.cfi_offset 4, -20
 1005              		.loc 1 357 0
 1006 0002 374F     		ldr	r7, .L49
 1007 0004 374E     		ldr	r6, .L49+4
 1008 0006 BC69     		ldr	r4, [r7, #24]
 1009              		.loc 1 354 0
 1010 0008 83B0     		sub	sp, sp, #12
 1011              	.LCFI13:
 1012              		.cfi_def_cfa_offset 32
 1013              		.loc 1 357 0
 1014 000a A368     		ldr	r3, [r4, #8]
ARM GAS  /tmp/ccRNZHDK.s 			page 19


 1015 000c 4FF40471 		mov	r1, #528
 1016 0010 0024     		movs	r4, #0
 1017 0012 5A1D     		adds	r2, r3, #5
 1018 0014 3068     		ldr	r0, [r6, #0]
 1019 0016 344B     		ldr	r3, .L49+8
 1020 0018 0094     		str	r4, [sp, #0]
 1021 001a FFF7FEFF 		bl	chThdCreateStatic
 1022              		.loc 1 358 0
 1023 001e BD69     		ldr	r5, [r7, #24]
 1024              		.loc 1 357 0
 1025 0020 8446     		mov	ip, r0
 1026              		.loc 1 358 0
 1027 0022 A968     		ldr	r1, [r5, #8]
 1028              		.loc 1 357 0
 1029 0024 314D     		ldr	r5, .L49+12
 1030              		.loc 1 358 0
 1031 0026 0A1D     		adds	r2, r1, #4
 1032              		.loc 1 357 0
 1033 0028 C5F800C0 		str	ip, [r5, #0]
 1034              		.loc 1 358 0
 1035 002c 4FF40471 		mov	r1, #528
 1036 0030 2D4B     		ldr	r3, .L49+8
 1037 0032 7068     		ldr	r0, [r6, #4]
 1038 0034 0094     		str	r4, [sp, #0]
 1039 0036 FFF7FEFF 		bl	chThdCreateStatic
 1040              		.loc 1 359 0
 1041 003a BA69     		ldr	r2, [r7, #24]
 1042              		.loc 1 358 0
 1043 003c 8646     		mov	lr, r0
 1044              		.loc 1 359 0
 1045 003e 9368     		ldr	r3, [r2, #8]
 1046 0040 4FF40471 		mov	r1, #528
 1047              		.loc 1 358 0
 1048 0044 C5F804E0 		str	lr, [r5, #4]
 1049              		.loc 1 359 0
 1050 0048 DA1C     		adds	r2, r3, #3
 1051 004a B068     		ldr	r0, [r6, #8]
 1052 004c 264B     		ldr	r3, .L49+8
 1053 004e 0094     		str	r4, [sp, #0]
 1054 0050 FFF7FEFF 		bl	chThdCreateStatic
 1055              		.loc 1 360 0
 1056 0054 B969     		ldr	r1, [r7, #24]
 1057              		.loc 1 359 0
 1058 0056 8446     		mov	ip, r0
 1059              		.loc 1 360 0
 1060 0058 8A68     		ldr	r2, [r1, #8]
 1061 005a 234B     		ldr	r3, .L49+8
 1062              		.loc 1 359 0
 1063 005c C5F808C0 		str	ip, [r5, #8]
 1064              		.loc 1 360 0
 1065 0060 4FF40471 		mov	r1, #528
 1066 0064 0232     		adds	r2, r2, #2
 1067 0066 F068     		ldr	r0, [r6, #12]
 1068 0068 0094     		str	r4, [sp, #0]
 1069 006a FFF7FEFF 		bl	chThdCreateStatic
 1070              		.loc 1 361 0
 1071 006e BB69     		ldr	r3, [r7, #24]
ARM GAS  /tmp/ccRNZHDK.s 			page 20


 1072              		.loc 1 360 0
 1073 0070 8646     		mov	lr, r0
 1074              		.loc 1 361 0
 1075 0072 9A68     		ldr	r2, [r3, #8]
 1076 0074 4FF40471 		mov	r1, #528
 1077              		.loc 1 360 0
 1078 0078 C5F80CE0 		str	lr, [r5, #12]
 1079              		.loc 1 361 0
 1080 007c 0132     		adds	r2, r2, #1
 1081 007e 1A4B     		ldr	r3, .L49+8
 1082 0080 3069     		ldr	r0, [r6, #16]
 1083 0082 0094     		str	r4, [sp, #0]
 1084 0084 FFF7FEFF 		bl	chThdCreateStatic
 1085 0088 2861     		str	r0, [r5, #16]
 1086              	.LVL37:
 1087              		.loc 1 364 0
 1088 008a FFF7FEFF 		bl	test_wait_tick
 1089              		.loc 1 365 0
 1090 008e 4FF47A70 		mov	r0, #1000
 1091 0092 FFF7FEFF 		bl	test_start_timer
 1092 0096 164D     		ldr	r5, .L49+16
 1093              	.LVL38:
 1094              	.L47:
 1095              		.loc 1 367 0 discriminator 1
 1096 0098 1648     		ldr	r0, .L49+20
 1097 009a 0021     		movs	r1, #0
 1098 009c FFF7FEFF 		bl	chSemReset
 1099              		.loc 1 372 0 discriminator 1
 1100 00a0 2878     		ldrb	r0, [r5, #0]	@ zero_extendqisi2
 1101              		.loc 1 368 0 discriminator 1
 1102 00a2 0134     		adds	r4, r4, #1
 1103              	.LVL39:
 1104              		.loc 1 372 0 discriminator 1
 1105 00a4 0028     		cmp	r0, #0
 1106 00a6 F7D0     		beq	.L47
 1107              		.loc 1 373 0
 1108 00a8 FFF7FEFF 		bl	test_terminate_threads
 1109              		.loc 1 374 0
 1110 00ac 0021     		movs	r1, #0
 1111 00ae 1148     		ldr	r0, .L49+20
 1112 00b0 FFF7FEFF 		bl	chSemReset
 1113              		.loc 1 375 0
 1114 00b4 FFF7FEFF 		bl	test_wait_threads
 1115              		.loc 1 377 0
 1116 00b8 0F48     		ldr	r0, .L49+24
 1117 00ba FFF7FEFF 		bl	test_print
 1118              		.loc 1 378 0
 1119 00be 2046     		mov	r0, r4
 1120 00c0 FFF7FEFF 		bl	test_printn
 1121              		.loc 1 380 0
 1122 00c4 04EB4404 		add	r4, r4, r4, lsl #1
 1123              	.LVL40:
 1124              		.loc 1 379 0
 1125 00c8 0C48     		ldr	r0, .L49+28
 1126 00ca FFF7FEFF 		bl	test_print
 1127              		.loc 1 380 0
 1128 00ce 6000     		lsls	r0, r4, #1
ARM GAS  /tmp/ccRNZHDK.s 			page 21


 1129 00d0 FFF7FEFF 		bl	test_printn
 1130              		.loc 1 381 0
 1131 00d4 0A48     		ldr	r0, .L49+32
 1132              		.loc 1 382 0
 1133 00d6 03B0     		add	sp, sp, #12
 1134 00d8 BDE8F040 		pop	{r4, r5, r6, r7, lr}
 1135              		.loc 1 381 0
 1136 00dc FFF7FEBF 		b	test_println
 1137              	.L50:
 1138              		.align	2
 1139              	.L49:
 1140 00e0 00000000 		.word	rlist
 1141 00e4 00000000 		.word	wa
 1142 00e8 00000000 		.word	thread3
 1143 00ec 00000000 		.word	threads
 1144 00f0 00000000 		.word	test_timer_done
 1145 00f4 00000000 		.word	.LANCHOR1
 1146 00f8 A8000000 		.word	.LC11
 1147 00fc 08010000 		.word	.LC18
 1148 0100 FC000000 		.word	.LC17
 1149              		.cfi_endproc
 1150              	.LFE19:
 1151              		.size	bmk7_execute, .-bmk7_execute
 1152 0104 AFF30080 		.section	.text.bmk5_execute,"ax",%progbits
 1152      AFF30080 
 1152      AFF30080 
 1153              		.align	2
 1154              		.p2align 4,,15
 1155              		.thumb
 1156              		.thumb_func
 1157              		.type	bmk5_execute, %function
 1158              	bmk5_execute:
 1159              	.LFB15:
 1160              		.loc 1 265 0
 1161              		.cfi_startproc
 1162              		@ args = 0, pretend = 0, frame = 0
 1163              		@ frame_needed = 0, uses_anonymous_args = 0
 1164              	.LVL41:
 1165 0000 2DE9F041 		push	{r4, r5, r6, r7, r8, lr}
 1166              	.LCFI14:
 1167              		.cfi_def_cfa_offset 24
 1168              		.cfi_offset 14, -4
 1169              		.cfi_offset 8, -8
 1170              		.cfi_offset 7, -12
 1171              		.cfi_offset 6, -16
 1172              		.cfi_offset 5, -20
 1173              		.cfi_offset 4, -24
 1174              		.loc 1 269 0
 1175 0004 1548     		ldr	r0, .L54
 1176              		.loc 1 268 0
 1177 0006 164A     		ldr	r2, .L54+4
 1178              		.loc 1 269 0
 1179 0008 8369     		ldr	r3, [r0, #24]
 1180              		.loc 1 265 0
 1181 000a 82B0     		sub	sp, sp, #8
 1182              	.LCFI15:
 1183              		.cfi_def_cfa_offset 32
ARM GAS  /tmp/ccRNZHDK.s 			page 22


 1184              		.loc 1 269 0
 1185 000c 9F68     		ldr	r7, [r3, #8]
 1186              		.loc 1 268 0
 1187 000e D2F80080 		ldr	r8, [r2, #0]
 1188              	.LVL42:
 1189              		.loc 1 270 0
 1190 0012 FFF7FEFF 		bl	test_wait_tick
 1191              	.LVL43:
 1192              		.loc 1 271 0
 1193 0016 4FF47A70 		mov	r0, #1000
 1194 001a FFF7FEFF 		bl	test_start_timer
 1195              		.loc 1 267 0
 1196 001e 0024     		movs	r4, #0
 1197 0020 104E     		ldr	r6, .L54+8
 1198              		.loc 1 269 0
 1199 0022 013F     		subs	r7, r7, #1
 1200              	.LVL44:
 1201              		.loc 1 273 0
 1202 0024 2546     		mov	r5, r4
 1203              	.LVL45:
 1204              	.L52:
 1205              		.loc 1 273 0 is_stmt 0 discriminator 1
 1206 0026 4FF40471 		mov	r1, #528
 1207 002a 3A46     		mov	r2, r7
 1208 002c 0E4B     		ldr	r3, .L54+12
 1209 002e 4046     		mov	r0, r8
 1210 0030 0095     		str	r5, [sp, #0]
 1211 0032 FFF7FEFF 		bl	chThdCreateStatic
 1212 0036 FFF7FEFF 		bl	chThdWait
 1213              		.loc 1 278 0 is_stmt 1 discriminator 1
 1214 003a 3178     		ldrb	r1, [r6, #0]	@ zero_extendqisi2
 1215              		.loc 1 274 0 discriminator 1
 1216 003c 0134     		adds	r4, r4, #1
 1217              	.LVL46:
 1218              		.loc 1 278 0 discriminator 1
 1219 003e 0029     		cmp	r1, #0
 1220 0040 F1D0     		beq	.L52
 1221              		.loc 1 279 0
 1222 0042 0A48     		ldr	r0, .L54+16
 1223 0044 FFF7FEFF 		bl	test_print
 1224              		.loc 1 280 0
 1225 0048 2046     		mov	r0, r4
 1226 004a FFF7FEFF 		bl	test_printn
 1227              		.loc 1 281 0
 1228 004e 0848     		ldr	r0, .L54+20
 1229              		.loc 1 282 0
 1230 0050 02B0     		add	sp, sp, #8
 1231 0052 BDE8F041 		pop	{r4, r5, r6, r7, r8, lr}
 1232              		.loc 1 281 0
 1233 0056 FFF7FEBF 		b	test_println
 1234              	.L55:
 1235 005a 00BF     		.align	2
 1236              	.L54:
 1237 005c 00000000 		.word	rlist
 1238 0060 00000000 		.word	wa
 1239 0064 00000000 		.word	test_timer_done
 1240 0068 00000000 		.word	thread2
ARM GAS  /tmp/ccRNZHDK.s 			page 23


 1241 006c A8000000 		.word	.LC11
 1242 0070 F0000000 		.word	.LC16
 1243              		.cfi_endproc
 1244              	.LFE15:
 1245              		.size	bmk5_execute, .-bmk5_execute
 1246 0074 AFF30080 		.section	.text.bmk4_execute,"ax",%progbits
 1246      AFF30080 
 1246      AFF30080 
 1247              		.align	2
 1248              		.p2align 4,,15
 1249              		.thumb
 1250              		.thumb_func
 1251              		.type	bmk4_execute, %function
 1252              	bmk4_execute:
 1253              	.LFB14:
 1254              		.loc 1 217 0
 1255              		.cfi_startproc
 1256              		@ args = 0, pretend = 0, frame = 0
 1257              		@ frame_needed = 0, uses_anonymous_args = 0
 1258 0000 70B5     		push	{r4, r5, r6, lr}
 1259              	.LCFI16:
 1260              		.cfi_def_cfa_offset 16
 1261              		.cfi_offset 14, -4
 1262              		.cfi_offset 6, -8
 1263              		.cfi_offset 5, -12
 1264              		.cfi_offset 4, -16
 1265              		.loc 1 221 0
 1266 0002 294C     		ldr	r4, .L59
 1267 0004 2948     		ldr	r0, .L59+4
 1268 0006 A169     		ldr	r1, [r4, #24]
 1269              		.loc 1 217 0
 1270 0008 82B0     		sub	sp, sp, #8
 1271              	.LCFI17:
 1272              		.cfi_def_cfa_offset 24
 1273              		.loc 1 221 0
 1274 000a 8A68     		ldr	r2, [r1, #8]
 1275 000c 284B     		ldr	r3, .L59+8
 1276 000e 4FF40471 		mov	r1, #528
 1277 0012 0132     		adds	r2, r2, #1
 1278 0014 0024     		movs	r4, #0
 1279 0016 0068     		ldr	r0, [r0, #0]
 1280 0018 0094     		str	r4, [sp, #0]
 1281 001a FFF7FEFF 		bl	chThdCreateStatic
 1282 001e 254B     		ldr	r3, .L59+12
 1283 0020 0546     		mov	r5, r0
 1284 0022 1860     		str	r0, [r3, #0]
 1285              	.LVL47:
 1286              		.loc 1 223 0
 1287 0024 FFF7FEFF 		bl	test_wait_tick
 1288              	.LVL48:
 1289              		.loc 1 224 0
 1290 0028 4FF47A70 		mov	r0, #1000
 1291 002c 224E     		ldr	r6, .L59+16
 1292 002e FFF7FEFF 		bl	test_start_timer
 1293              	.LVL49:
 1294              	.L57:
 1295              	.LBB6:
ARM GAS  /tmp/ccRNZHDK.s 			page 24


 1296              		.loc 1 226 0 discriminator 1
 1297 0032 2023     		movs	r3, #32
 1298              	.LVL50:
 1299              	@ 226 "../../ChibiOS/test/testbmk.c" 1
 1300 0034 83F31188 		msr     BASEPRI, r3
 1301              	@ 0 "" 2
 1302              	.LVL51:
 1303              		.thumb
 1304              	.LBE6:
 1305 0038 FFF7FEFF 		bl	dbg_check_lock
 1306              	.LVL52:
 1307              		.loc 1 227 0 discriminator 1
 1308 003c 2846     		mov	r0, r5
 1309 003e 0021     		movs	r1, #0
 1310 0040 FFF7FEFF 		bl	chSchWakeupS
 1311              		.loc 1 228 0 discriminator 1
 1312 0044 2846     		mov	r0, r5
 1313 0046 0021     		movs	r1, #0
 1314 0048 FFF7FEFF 		bl	chSchWakeupS
 1315              		.loc 1 229 0 discriminator 1
 1316 004c 2846     		mov	r0, r5
 1317 004e 0021     		movs	r1, #0
 1318 0050 FFF7FEFF 		bl	chSchWakeupS
 1319              		.loc 1 230 0 discriminator 1
 1320 0054 2846     		mov	r0, r5
 1321 0056 0021     		movs	r1, #0
 1322 0058 FFF7FEFF 		bl	chSchWakeupS
 1323              		.loc 1 231 0 discriminator 1
 1324 005c FFF7FEFF 		bl	dbg_check_unlock
 1325              	.LBB7:
 1326 0060 0023     		movs	r3, #0
 1327              	.LVL53:
 1328              	@ 231 "../../ChibiOS/test/testbmk.c" 1
 1329 0062 83F31188 		msr     BASEPRI, r3
 1330              	@ 0 "" 2
 1331              	.LVL54:
 1332              		.thumb
 1333              	.LBE7:
 1334              		.loc 1 236 0 discriminator 1
 1335 0066 3378     		ldrb	r3, [r6, #0]	@ zero_extendqisi2
 1336              	.LVL55:
 1337              		.loc 1 232 0 discriminator 1
 1338 0068 0434     		adds	r4, r4, #4
 1339              	.LVL56:
 1340              		.loc 1 236 0 discriminator 1
 1341 006a 002B     		cmp	r3, #0
 1342 006c E1D0     		beq	.L57
 1343              	.LBB8:
 1344              		.loc 1 237 0
 1345 006e 2023     		movs	r3, #32
 1346              	.LVL57:
 1347              	@ 237 "../../ChibiOS/test/testbmk.c" 1
 1348 0070 83F31188 		msr     BASEPRI, r3
 1349              	@ 0 "" 2
 1350              	.LVL58:
 1351              		.thumb
 1352              	.LBE8:
ARM GAS  /tmp/ccRNZHDK.s 			page 25


 1353 0074 FFF7FEFF 		bl	dbg_check_lock
 1354              	.LVL59:
 1355              		.loc 1 238 0
 1356 0078 2846     		mov	r0, r5
 1357 007a 4FF0FF31 		mov	r1, #-1
 1358 007e FFF7FEFF 		bl	chSchWakeupS
 1359              		.loc 1 239 0
 1360 0082 FFF7FEFF 		bl	dbg_check_unlock
 1361              	.LBB9:
 1362 0086 0023     		movs	r3, #0
 1363              	.LVL60:
 1364              	@ 239 "../../ChibiOS/test/testbmk.c" 1
 1365 0088 83F31188 		msr     BASEPRI, r3
 1366              	@ 0 "" 2
 1367              	.LVL61:
 1368              		.thumb
 1369              	.LBE9:
 1370              		.loc 1 241 0
 1371 008c FFF7FEFF 		bl	test_wait_threads
 1372              	.LVL62:
 1373              		.loc 1 242 0
 1374 0090 0A48     		ldr	r0, .L59+20
 1375 0092 FFF7FEFF 		bl	test_print
 1376              		.loc 1 243 0
 1377 0096 6000     		lsls	r0, r4, #1
 1378 0098 FFF7FEFF 		bl	test_printn
 1379              		.loc 1 244 0
 1380 009c 0848     		ldr	r0, .L59+24
 1381              		.loc 1 245 0
 1382 009e 02B0     		add	sp, sp, #8
 1383 00a0 BDE87040 		pop	{r4, r5, r6, lr}
 1384              		.loc 1 244 0
 1385 00a4 FFF7FEBF 		b	test_println
 1386              	.L60:
 1387              		.align	2
 1388              	.L59:
 1389 00a8 00000000 		.word	rlist
 1390 00ac 00000000 		.word	wa
 1391 00b0 00000000 		.word	thread4
 1392 00b4 00000000 		.word	threads
 1393 00b8 00000000 		.word	test_timer_done
 1394 00bc A8000000 		.word	.LC11
 1395 00c0 FC000000 		.word	.LC17
 1396              		.cfi_endproc
 1397              	.LFE14:
 1398              		.size	bmk4_execute, .-bmk4_execute
 1399 00c4 AFF30080 		.section	.text.msg_loop_test,"ax",%progbits
 1399      AFF30080 
 1399      AFF30080 
 1400              		.align	2
 1401              		.p2align 4,,15
 1402              		.thumb
 1403              		.thumb_func
 1404              		.type	msg_loop_test, %function
 1405              	msg_loop_test:
 1406              	.LFB8:
 1407              		.loc 1 80 0
ARM GAS  /tmp/ccRNZHDK.s 			page 26


 1408              		.cfi_startproc
 1409              		@ args = 0, pretend = 0, frame = 0
 1410              		@ frame_needed = 0, uses_anonymous_args = 0
 1411              	.LVL63:
 1412 0000 70B5     		push	{r4, r5, r6, lr}
 1413              	.LCFI18:
 1414              		.cfi_def_cfa_offset 16
 1415              		.cfi_offset 14, -4
 1416              		.cfi_offset 6, -8
 1417              		.cfi_offset 5, -12
 1418              		.cfi_offset 4, -16
 1419              		.loc 1 80 0
 1420 0002 0546     		mov	r5, r0
 1421              		.loc 1 83 0
 1422 0004 FFF7FEFF 		bl	test_wait_tick
 1423              	.LVL64:
 1424              		.loc 1 84 0
 1425 0008 4FF47A70 		mov	r0, #1000
 1426 000c FFF7FEFF 		bl	test_start_timer
 1427 0010 074E     		ldr	r6, .L64
 1428              		.loc 1 82 0
 1429 0012 0024     		movs	r4, #0
 1430              	.LVL65:
 1431              	.L62:
 1432              		.loc 1 86 0 discriminator 1
 1433 0014 2846     		mov	r0, r5
 1434 0016 0121     		movs	r1, #1
 1435 0018 FFF7FEFF 		bl	chMsgSend
 1436              		.loc 1 91 0 discriminator 1
 1437 001c 3378     		ldrb	r3, [r6, #0]	@ zero_extendqisi2
 1438              		.loc 1 87 0 discriminator 1
 1439 001e 0134     		adds	r4, r4, #1
 1440              	.LVL66:
 1441              		.loc 1 91 0 discriminator 1
 1442 0020 002B     		cmp	r3, #0
 1443 0022 F7D0     		beq	.L62
 1444              		.loc 1 92 0
 1445 0024 2846     		mov	r0, r5
 1446 0026 0021     		movs	r1, #0
 1447 0028 FFF7FEFF 		bl	chMsgSend
 1448              		.loc 1 94 0
 1449 002c 2046     		mov	r0, r4
 1450 002e 70BD     		pop	{r4, r5, r6, pc}
 1451              	.L65:
 1452              		.align	2
 1453              	.L64:
 1454 0030 00000000 		.word	test_timer_done
 1455              		.cfi_endproc
 1456              	.LFE8:
 1457              		.size	msg_loop_test, .-msg_loop_test
 1458 0034 AFF30080 		.section	.text.bmk3_execute,"ax",%progbits
 1458      AFF30080 
 1458      AFF30080 
 1459              		.align	2
 1460              		.p2align 4,,15
 1461              		.thumb
 1462              		.thumb_func
ARM GAS  /tmp/ccRNZHDK.s 			page 27


 1463              		.type	bmk3_execute, %function
 1464              	bmk3_execute:
 1465              	.LFB12:
 1466              		.loc 1 169 0
 1467              		.cfi_startproc
 1468              		@ args = 0, pretend = 0, frame = 0
 1469              		@ frame_needed = 0, uses_anonymous_args = 0
 1470 0000 2DE9F041 		push	{r4, r5, r6, r7, r8, lr}
 1471              	.LCFI19:
 1472              		.cfi_def_cfa_offset 24
 1473              		.cfi_offset 14, -4
 1474              		.cfi_offset 8, -8
 1475              		.cfi_offset 7, -12
 1476              		.cfi_offset 6, -16
 1477              		.cfi_offset 5, -20
 1478              		.cfi_offset 4, -24
 1479              		.loc 1 172 0
 1480 0004 40F20006 		movw	r6, #:lower16:rlist
 1481 0008 C0F20006 		movt	r6, #:upper16:rlist
 1482 000c B069     		ldr	r0, [r6, #24]
 1483 000e 40F20005 		movw	r5, #:lower16:wa
 1484 0012 8268     		ldr	r2, [r0, #8]
 1485 0014 C0F20005 		movt	r5, #:upper16:wa
 1486 0018 40F20003 		movw	r3, #:lower16:thread1
 1487              		.loc 1 169 0
 1488 001c 82B0     		sub	sp, sp, #8
 1489              	.LCFI20:
 1490              		.cfi_def_cfa_offset 32
 1491              		.loc 1 172 0
 1492 001e 4FF00008 		mov	r8, #0
 1493 0022 0132     		adds	r2, r2, #1
 1494 0024 2868     		ldr	r0, [r5, #0]
 1495 0026 C0F20003 		movt	r3, #:upper16:thread1
 1496 002a 4FF40471 		mov	r1, #528
 1497 002e CDF80080 		str	r8, [sp, #0]
 1498 0032 FFF7FEFF 		bl	chThdCreateStatic
 1499              		.loc 1 173 0
 1500 0036 B769     		ldr	r7, [r6, #24]
 1501              		.loc 1 172 0
 1502 0038 8446     		mov	ip, r0
 1503              		.loc 1 173 0
 1504 003a BC68     		ldr	r4, [r7, #8]
 1505 003c 40F20007 		movw	r7, #:lower16:thread2
 1506 0040 A21E     		subs	r2, r4, #2
 1507              		.loc 1 172 0
 1508 0042 40F20004 		movw	r4, #:lower16:threads
 1509 0046 C0F20004 		movt	r4, #:upper16:threads
 1510              		.loc 1 173 0
 1511 004a C0F20007 		movt	r7, #:upper16:thread2
 1512              		.loc 1 172 0
 1513 004e C4F800C0 		str	ip, [r4, #0]
 1514              		.loc 1 173 0
 1515 0052 3B46     		mov	r3, r7
 1516 0054 6868     		ldr	r0, [r5, #4]
 1517 0056 4FF40471 		mov	r1, #528
 1518 005a CDF80080 		str	r8, [sp, #0]
 1519 005e FFF7FEFF 		bl	chThdCreateStatic
ARM GAS  /tmp/ccRNZHDK.s 			page 28


 1520              		.loc 1 174 0
 1521 0062 B169     		ldr	r1, [r6, #24]
 1522              		.loc 1 173 0
 1523 0064 8646     		mov	lr, r0
 1524              		.loc 1 174 0
 1525 0066 8B68     		ldr	r3, [r1, #8]
 1526 0068 A868     		ldr	r0, [r5, #8]
 1527              		.loc 1 173 0
 1528 006a C4F804E0 		str	lr, [r4, #4]
 1529              		.loc 1 174 0
 1530 006e DA1E     		subs	r2, r3, #3
 1531 0070 4FF40471 		mov	r1, #528
 1532 0074 3B46     		mov	r3, r7
 1533 0076 CDF80080 		str	r8, [sp, #0]
 1534 007a FFF7FEFF 		bl	chThdCreateStatic
 1535              		.loc 1 175 0
 1536 007e B269     		ldr	r2, [r6, #24]
 1537              		.loc 1 174 0
 1538 0080 8446     		mov	ip, r0
 1539              		.loc 1 175 0
 1540 0082 9368     		ldr	r3, [r2, #8]
 1541 0084 E868     		ldr	r0, [r5, #12]
 1542              		.loc 1 174 0
 1543 0086 C4F808C0 		str	ip, [r4, #8]
 1544              		.loc 1 175 0
 1545 008a 1A1F     		subs	r2, r3, #4
 1546 008c 4FF40471 		mov	r1, #528
 1547 0090 3B46     		mov	r3, r7
 1548 0092 CDF80080 		str	r8, [sp, #0]
 1549 0096 FFF7FEFF 		bl	chThdCreateStatic
 1550              		.loc 1 176 0
 1551 009a B169     		ldr	r1, [r6, #24]
 1552              		.loc 1 175 0
 1553 009c 8646     		mov	lr, r0
 1554              		.loc 1 176 0
 1555 009e 8A68     		ldr	r2, [r1, #8]
 1556 00a0 3B46     		mov	r3, r7
 1557              		.loc 1 175 0
 1558 00a2 C4F80CE0 		str	lr, [r4, #12]
 1559              		.loc 1 176 0
 1560 00a6 4FF40471 		mov	r1, #528
 1561 00aa 053A     		subs	r2, r2, #5
 1562 00ac 2869     		ldr	r0, [r5, #16]
 1563 00ae CDF80080 		str	r8, [sp, #0]
 1564 00b2 FFF7FEFF 		bl	chThdCreateStatic
 1565              		.loc 1 177 0
 1566 00b6 2368     		ldr	r3, [r4, #0]
 1567              		.loc 1 176 0
 1568 00b8 2061     		str	r0, [r4, #16]
 1569              		.loc 1 177 0
 1570 00ba 1846     		mov	r0, r3
 1571 00bc FFF7FEFF 		bl	msg_loop_test
 1572 00c0 0446     		mov	r4, r0
 1573              	.LVL67:
 1574              		.loc 1 178 0
 1575 00c2 FFF7FEFF 		bl	test_wait_threads
 1576              	.LVL68:
ARM GAS  /tmp/ccRNZHDK.s 			page 29


 1577              		.loc 1 179 0
 1578 00c6 40F20000 		movw	r0, #:lower16:.LC11
 1579 00ca C0F20000 		movt	r0, #:upper16:.LC11
 1580 00ce FFF7FEFF 		bl	test_print
 1581              		.loc 1 180 0
 1582 00d2 2046     		mov	r0, r4
 1583 00d4 FFF7FEFF 		bl	test_printn
 1584              		.loc 1 181 0
 1585 00d8 40F20000 		movw	r0, #:lower16:.LC19
 1586 00dc C0F20000 		movt	r0, #:upper16:.LC19
 1587 00e0 FFF7FEFF 		bl	test_print
 1588              		.loc 1 182 0
 1589 00e4 6000     		lsls	r0, r4, #1
 1590 00e6 FFF7FEFF 		bl	test_printn
 1591              		.loc 1 183 0
 1592 00ea 40F20000 		movw	r0, #:lower16:.LC17
 1593 00ee C0F20000 		movt	r0, #:upper16:.LC17
 1594              		.loc 1 184 0
 1595 00f2 02B0     		add	sp, sp, #8
 1596 00f4 BDE8F041 		pop	{r4, r5, r6, r7, r8, lr}
 1597              		.loc 1 183 0
 1598 00f8 FFF7FEBF 		b	test_println
 1599              		.cfi_endproc
 1600              	.LFE12:
 1601              		.size	bmk3_execute, .-bmk3_execute
 1602 00fc AFF30080 		.section	.text.bmk2_execute,"ax",%progbits
 1603              		.align	2
 1604              		.p2align 4,,15
 1605              		.thumb
 1606              		.thumb_func
 1607              		.type	bmk2_execute, %function
 1608              	bmk2_execute:
 1609              	.LFB10:
 1610              		.loc 1 134 0
 1611              		.cfi_startproc
 1612              		@ args = 0, pretend = 0, frame = 0
 1613              		@ frame_needed = 0, uses_anonymous_args = 0
 1614              		.loc 1 137 0
 1615 0000 40F2000C 		movw	ip, #:lower16:rlist
 1616              		.loc 1 134 0
 1617 0004 10B5     		push	{r4, lr}
 1618              	.LCFI21:
 1619              		.cfi_def_cfa_offset 8
 1620              		.cfi_offset 14, -4
 1621              		.cfi_offset 4, -8
 1622              		.loc 1 137 0
 1623 0006 C0F2000C 		movt	ip, #:upper16:rlist
 1624 000a DCF81820 		ldr	r2, [ip, #24]
 1625 000e 40F20000 		movw	r0, #:lower16:wa
 1626 0012 9168     		ldr	r1, [r2, #8]
 1627 0014 C0F20000 		movt	r0, #:upper16:wa
 1628 0018 40F20003 		movw	r3, #:lower16:thread1
 1629              		.loc 1 134 0
 1630 001c 82B0     		sub	sp, sp, #8
 1631              	.LCFI22:
 1632              		.cfi_def_cfa_offset 16
 1633              		.loc 1 137 0
ARM GAS  /tmp/ccRNZHDK.s 			page 30


 1634 001e 4A1C     		adds	r2, r1, #1
 1635 0020 0024     		movs	r4, #0
 1636 0022 4FF40471 		mov	r1, #528
 1637 0026 C0F20003 		movt	r3, #:upper16:thread1
 1638 002a 0068     		ldr	r0, [r0, #0]
 1639 002c 0094     		str	r4, [sp, #0]
 1640 002e FFF7FEFF 		bl	chThdCreateStatic
 1641 0032 40F20003 		movw	r3, #:lower16:threads
 1642 0036 0246     		mov	r2, r0
 1643 0038 C0F20003 		movt	r3, #:upper16:threads
 1644 003c 1A60     		str	r2, [r3, #0]
 1645              		.loc 1 138 0
 1646 003e FFF7FEFF 		bl	msg_loop_test
 1647 0042 0446     		mov	r4, r0
 1648              	.LVL69:
 1649              		.loc 1 139 0
 1650 0044 FFF7FEFF 		bl	test_wait_threads
 1651              	.LVL70:
 1652              		.loc 1 140 0
 1653 0048 40F20000 		movw	r0, #:lower16:.LC11
 1654 004c C0F20000 		movt	r0, #:upper16:.LC11
 1655 0050 FFF7FEFF 		bl	test_print
 1656              		.loc 1 141 0
 1657 0054 2046     		mov	r0, r4
 1658 0056 FFF7FEFF 		bl	test_printn
 1659              		.loc 1 142 0
 1660 005a 40F20000 		movw	r0, #:lower16:.LC19
 1661 005e C0F20000 		movt	r0, #:upper16:.LC19
 1662 0062 FFF7FEFF 		bl	test_print
 1663              		.loc 1 143 0
 1664 0066 6000     		lsls	r0, r4, #1
 1665 0068 FFF7FEFF 		bl	test_printn
 1666              		.loc 1 144 0
 1667 006c 40F20000 		movw	r0, #:lower16:.LC17
 1668 0070 C0F20000 		movt	r0, #:upper16:.LC17
 1669              		.loc 1 145 0
 1670 0074 02B0     		add	sp, sp, #8
 1671 0076 BDE81040 		pop	{r4, lr}
 1672              		.loc 1 144 0
 1673 007a FFF7FEBF 		b	test_println
 1674              		.cfi_endproc
 1675              	.LFE10:
 1676              		.size	bmk2_execute, .-bmk2_execute
 1677 007e 00BF     		.section	.text.bmk1_execute,"ax",%progbits
 1678              		.align	2
 1679              		.p2align 4,,15
 1680              		.thumb
 1681              		.thumb_func
 1682              		.type	bmk1_execute, %function
 1683              	bmk1_execute:
 1684              	.LFB9:
 1685              		.loc 1 105 0
 1686              		.cfi_startproc
 1687              		@ args = 0, pretend = 0, frame = 0
 1688              		@ frame_needed = 0, uses_anonymous_args = 0
 1689              		.loc 1 108 0
 1690 0000 40F2000C 		movw	ip, #:lower16:rlist
ARM GAS  /tmp/ccRNZHDK.s 			page 31


 1691              		.loc 1 105 0
 1692 0004 10B5     		push	{r4, lr}
 1693              	.LCFI23:
 1694              		.cfi_def_cfa_offset 8
 1695              		.cfi_offset 14, -4
 1696              		.cfi_offset 4, -8
 1697              		.loc 1 108 0
 1698 0006 C0F2000C 		movt	ip, #:upper16:rlist
 1699 000a DCF81820 		ldr	r2, [ip, #24]
 1700 000e 40F20000 		movw	r0, #:lower16:wa
 1701 0012 9168     		ldr	r1, [r2, #8]
 1702 0014 C0F20000 		movt	r0, #:upper16:wa
 1703 0018 40F20003 		movw	r3, #:lower16:thread1
 1704              		.loc 1 105 0
 1705 001c 82B0     		sub	sp, sp, #8
 1706              	.LCFI24:
 1707              		.cfi_def_cfa_offset 16
 1708              		.loc 1 108 0
 1709 001e 4A1E     		subs	r2, r1, #1
 1710 0020 0024     		movs	r4, #0
 1711 0022 4FF40471 		mov	r1, #528
 1712 0026 C0F20003 		movt	r3, #:upper16:thread1
 1713 002a 0068     		ldr	r0, [r0, #0]
 1714 002c 0094     		str	r4, [sp, #0]
 1715 002e FFF7FEFF 		bl	chThdCreateStatic
 1716 0032 40F20003 		movw	r3, #:lower16:threads
 1717 0036 0246     		mov	r2, r0
 1718 0038 C0F20003 		movt	r3, #:upper16:threads
 1719 003c 1A60     		str	r2, [r3, #0]
 1720              		.loc 1 109 0
 1721 003e FFF7FEFF 		bl	msg_loop_test
 1722 0042 0446     		mov	r4, r0
 1723              	.LVL71:
 1724              		.loc 1 110 0
 1725 0044 FFF7FEFF 		bl	test_wait_threads
 1726              	.LVL72:
 1727              		.loc 1 111 0
 1728 0048 40F20000 		movw	r0, #:lower16:.LC11
 1729 004c C0F20000 		movt	r0, #:upper16:.LC11
 1730 0050 FFF7FEFF 		bl	test_print
 1731              		.loc 1 112 0
 1732 0054 2046     		mov	r0, r4
 1733 0056 FFF7FEFF 		bl	test_printn
 1734              		.loc 1 113 0
 1735 005a 40F20000 		movw	r0, #:lower16:.LC19
 1736 005e C0F20000 		movt	r0, #:upper16:.LC19
 1737 0062 FFF7FEFF 		bl	test_print
 1738              		.loc 1 114 0
 1739 0066 6000     		lsls	r0, r4, #1
 1740 0068 FFF7FEFF 		bl	test_printn
 1741              		.loc 1 115 0
 1742 006c 40F20000 		movw	r0, #:lower16:.LC17
 1743 0070 C0F20000 		movt	r0, #:upper16:.LC17
 1744              		.loc 1 116 0
 1745 0074 02B0     		add	sp, sp, #8
 1746 0076 BDE81040 		pop	{r4, lr}
 1747              		.loc 1 115 0
ARM GAS  /tmp/ccRNZHDK.s 			page 32


 1748 007a FFF7FEBF 		b	test_println
 1749              		.cfi_endproc
 1750              	.LFE9:
 1751              		.size	bmk1_execute, .-bmk1_execute
 1752 007e 00BF     		.section	.text.thread1,"ax",%progbits
 1753              		.align	2
 1754              		.p2align 4,,15
 1755              		.thumb
 1756              		.thumb_func
 1757              		.type	thread1, %function
 1758              	thread1:
 1759              	.LFB7:
 1760              		.loc 1 64 0
 1761              		.cfi_startproc
 1762              		@ args = 0, pretend = 0, frame = 0
 1763              		@ frame_needed = 0, uses_anonymous_args = 0
 1764              	.LVL73:
 1765 0000 10B5     		push	{r4, lr}
 1766              	.LCFI25:
 1767              		.cfi_def_cfa_offset 8
 1768              		.cfi_offset 14, -4
 1769              		.cfi_offset 4, -8
 1770              	.LVL74:
 1771              	.L70:
 1772              		.loc 1 70 0 discriminator 1
 1773 0002 FFF7FEFF 		bl	chMsgWait
 1774              	.LVL75:
 1775              		.loc 1 71 0 discriminator 1
 1776 0006 846B     		ldr	r4, [r0, #56]
 1777              	.LVL76:
 1778              		.loc 1 72 0 discriminator 1
 1779 0008 2146     		mov	r1, r4
 1780 000a FFF7FEFF 		bl	chMsgRelease
 1781              	.LVL77:
 1782              		.loc 1 73 0 discriminator 1
 1783 000e 002C     		cmp	r4, #0
 1784 0010 F7D1     		bne	.L70
 1785              		.loc 1 75 0
 1786 0012 2046     		mov	r0, r4
 1787 0014 10BD     		pop	{r4, pc}
 1788              		.cfi_endproc
 1789              	.LFE7:
 1790              		.size	thread1, .-thread1
 1791 0016 00BFAFF3 		.section	.text.thread4,"ax",%progbits
 1791      0080AFF3 
 1791      0080
 1792              		.align	2
 1793              		.p2align 4,,15
 1794              		.global	thread4
 1795              		.thumb
 1796              		.thumb_func
 1797              		.type	thread4, %function
 1798              	thread4:
 1799              	.LFB13:
 1800              		.loc 1 203 0
 1801              		.cfi_startproc
 1802              		@ args = 0, pretend = 0, frame = 0
ARM GAS  /tmp/ccRNZHDK.s 			page 33


 1803              		@ frame_needed = 0, uses_anonymous_args = 0
 1804              	.LVL78:
 1805              		.loc 1 205 0
 1806 0000 0A4A     		ldr	r2, .L75
 1807              		.loc 1 203 0
 1808 0002 10B5     		push	{r4, lr}
 1809              	.LCFI26:
 1810              		.cfi_def_cfa_offset 8
 1811              		.cfi_offset 14, -4
 1812              		.cfi_offset 4, -8
 1813              	.LBB10:
 1814              		.loc 1 208 0
 1815 0004 2023     		movs	r3, #32
 1816              	.LVL79:
 1817              	.LBE10:
 1818              		.loc 1 205 0
 1819 0006 9469     		ldr	r4, [r2, #24]
 1820              	.LVL80:
 1821              	.LBB11:
 1822              		.loc 1 208 0
 1823              	@ 208 "../../ChibiOS/test/testbmk.c" 1
 1824 0008 83F31188 		msr     BASEPRI, r3
 1825              	@ 0 "" 2
 1826              	.LVL81:
 1827              		.thumb
 1828              	.LBE11:
 1829 000c FFF7FEFF 		bl	dbg_check_lock
 1830              	.LVL82:
 1831              	.L73:
 1832              		.loc 1 210 0 discriminator 1
 1833 0010 0220     		movs	r0, #2
 1834 0012 FFF7FEFF 		bl	chSchGoSleepS
 1835              	.LVL83:
 1836              		.loc 1 212 0 discriminator 1
 1837 0016 A36A     		ldr	r3, [r4, #40]
 1838 0018 002B     		cmp	r3, #0
 1839 001a F9D0     		beq	.L73
 1840              		.loc 1 213 0
 1841 001c FFF7FEFF 		bl	dbg_check_unlock
 1842              	.LVL84:
 1843              	.LBB12:
 1844 0020 0023     		movs	r3, #0
 1845              	.LVL85:
 1846              	@ 213 "../../ChibiOS/test/testbmk.c" 1
 1847 0022 83F31188 		msr     BASEPRI, r3
 1848              	@ 0 "" 2
 1849              	.LVL86:
 1850              		.thumb
 1851              	.LBE12:
 1852              		.loc 1 215 0
 1853 0026 1846     		mov	r0, r3
 1854 0028 10BD     		pop	{r4, pc}
 1855              	.L76:
 1856 002a 00BF     		.align	2
 1857              	.L75:
 1858 002c 00000000 		.word	rlist
 1859              		.cfi_endproc
ARM GAS  /tmp/ccRNZHDK.s 			page 34


 1860              	.LFE13:
 1861              		.size	thread4, .-thread4
 1862              		.global	patternbmk
 1863              		.global	testbmk13
 1864              		.global	testbmk12
 1865              		.global	testbmk11
 1866              		.global	testbmk10
 1867              		.global	testbmk9
 1868              		.global	testbmk8
 1869              		.global	testbmk7
 1870              		.global	testbmk6
 1871              		.global	testbmk5
 1872              		.global	testbmk4
 1873              		.global	testbmk3
 1874              		.global	testbmk2
 1875              		.global	testbmk1
 1876              		.section	.rodata.testbmk8,"a",%progbits
 1877              		.align	2
 1878              		.type	testbmk8, %object
 1879              		.size	testbmk8, 16
 1880              	testbmk8:
 1881 0000 D0010000 		.word	.LC25
 1882 0004 00000000 		.word	0
 1883 0008 00000000 		.word	0
 1884 000c 00000000 		.word	bmk8_execute
 1885              		.section	.rodata.patternbmk,"a",%progbits
 1886              		.align	2
 1887              		.type	patternbmk, %object
 1888              		.size	patternbmk, 56
 1889              	patternbmk:
 1890 0000 00000000 		.word	testbmk1
 1891 0004 00000000 		.word	testbmk2
 1892 0008 00000000 		.word	testbmk3
 1893 000c 00000000 		.word	testbmk4
 1894 0010 00000000 		.word	testbmk5
 1895 0014 00000000 		.word	testbmk6
 1896 0018 00000000 		.word	testbmk7
 1897 001c 00000000 		.word	testbmk8
 1898 0020 00000000 		.word	testbmk9
 1899 0024 00000000 		.word	testbmk10
 1900 0028 00000000 		.word	testbmk11
 1901 002c 00000000 		.word	testbmk12
 1902 0030 00000000 		.word	testbmk13
 1903 0034 00000000 		.word	0
 1904              		.section	.rodata.testbmk3,"a",%progbits
 1905              		.align	2
 1906              		.type	testbmk3, %object
 1907              		.size	testbmk3, 16
 1908              	testbmk3:
 1909 0000 80020000 		.word	.LC30
 1910 0004 00000000 		.word	0
 1911 0008 00000000 		.word	0
 1912 000c 00000000 		.word	bmk3_execute
 1913              		.section	.rodata.testbmk9,"a",%progbits
 1914              		.align	2
 1915              		.type	testbmk9, %object
 1916              		.size	testbmk9, 16
ARM GAS  /tmp/ccRNZHDK.s 			page 35


 1917              	testbmk9:
 1918 0000 AC010000 		.word	.LC24
 1919 0004 00000000 		.word	0
 1920 0008 00000000 		.word	0
 1921 000c 00000000 		.word	bmk9_execute
 1922              		.section	.rodata.testbmk10,"a",%progbits
 1923              		.align	2
 1924              		.type	testbmk10, %object
 1925              		.size	testbmk10, 16
 1926              	testbmk10:
 1927 0000 88010000 		.word	.LC23
 1928 0004 00000000 		.word	0
 1929 0008 00000000 		.word	0
 1930 000c 00000000 		.word	bmk10_execute
 1931              		.section	.rodata.testbmk4,"a",%progbits
 1932              		.align	2
 1933              		.type	testbmk4, %object
 1934              		.size	testbmk4, 16
 1935              	testbmk4:
 1936 0000 64020000 		.word	.LC29
 1937 0004 00000000 		.word	0
 1938 0008 00000000 		.word	0
 1939 000c 00000000 		.word	bmk4_execute
 1940              		.section	.bss.mtx1,"aw",%nobits
 1941              		.align	2
 1942              		.set	.LANCHOR0,. + 0
 1943              		.type	mtx1, %object
 1944              		.size	mtx1, 16
 1945              	mtx1:
 1946 0000 00000000 		.space	16
 1946      00000000 
 1946      00000000 
 1946      00000000 
 1947              		.section	.bss.ib.4851,"aw",%nobits
 1948              		.align	2
 1949              		.set	.LANCHOR5,. + 0
 1950              		.type	ib.4851, %object
 1951              		.size	ib.4851, 16
 1952              	ib.4851:
 1953 0000 00000000 		.space	16
 1953      00000000 
 1953      00000000 
 1953      00000000 
 1954              		.section	.rodata.testbmk13,"a",%progbits
 1955              		.align	2
 1956              		.type	testbmk13, %object
 1957              		.size	testbmk13, 16
 1958              	testbmk13:
 1959 0000 28010000 		.word	.LC20
 1960 0004 00000000 		.word	0
 1961 0008 00000000 		.word	0
 1962 000c 00000000 		.word	bmk13_execute
 1963              		.section	.bss.vt2.4865,"aw",%nobits
 1964              		.align	2
 1965              		.set	.LANCHOR3,. + 0
 1966              		.type	vt2.4865, %object
 1967              		.size	vt2.4865, 20
ARM GAS  /tmp/ccRNZHDK.s 			page 36


 1968              	vt2.4865:
 1969 0000 00000000 		.space	20
 1969      00000000 
 1969      00000000 
 1969      00000000 
 1969      00000000 
 1970              		.section	.rodata.testbmk2,"a",%progbits
 1971              		.align	2
 1972              		.type	testbmk2, %object
 1973              		.size	testbmk2, 16
 1974              	testbmk2:
 1975 0000 98020000 		.word	.LC31
 1976 0004 00000000 		.word	0
 1977 0008 00000000 		.word	0
 1978 000c 00000000 		.word	bmk2_execute
 1979              		.section	.rodata.str1.4,"aMS",%progbits,1
 1980              		.align	2
 1981              	.LC0:
 1982 0000 2D2D2D20 		.ascii	"--- System: \000"
 1982      53797374 
 1982      656D3A20 
 1982      00
 1983 000d 000000   		.space	3
 1984              	.LC1:
 1985 0010 20627974 		.ascii	" bytes\000"
 1985      657300
 1986 0017 00       		.space	1
 1987              	.LC2:
 1988 0018 2D2D2D20 		.ascii	"--- Thread: \000"
 1988      54687265 
 1988      61643A20 
 1988      00
 1989 0025 000000   		.space	3
 1990              	.LC3:
 1991 0028 2D2D2D20 		.ascii	"--- Timer : \000"
 1991      54696D65 
 1991      72203A20 
 1991      00
 1992 0035 000000   		.space	3
 1993              	.LC4:
 1994 0038 2D2D2D20 		.ascii	"--- Semaph: \000"
 1994      53656D61 
 1994      70683A20 
 1994      00
 1995 0045 000000   		.space	3
 1996              	.LC5:
 1997 0048 2D2D2D20 		.ascii	"--- EventS: \000"
 1997      4576656E 
 1997      74533A20 
 1997      00
 1998 0055 000000   		.space	3
 1999              	.LC6:
 2000 0058 2D2D2D20 		.ascii	"--- EventL: \000"
 2000      4576656E 
 2000      744C3A20 
 2000      00
 2001 0065 000000   		.space	3
ARM GAS  /tmp/ccRNZHDK.s 			page 37


 2002              	.LC7:
 2003 0068 2D2D2D20 		.ascii	"--- Mutex : \000"
 2003      4D757465 
 2003      78203A20 
 2003      00
 2004 0075 000000   		.space	3
 2005              	.LC8:
 2006 0078 2D2D2D20 		.ascii	"--- CondV.: \000"
 2006      436F6E64 
 2006      562E3A20 
 2006      00
 2007 0085 000000   		.space	3
 2008              	.LC9:
 2009 0088 2D2D2D20 		.ascii	"--- Queue : \000"
 2009      51756575 
 2009      65203A20 
 2009      00
 2010 0095 000000   		.space	3
 2011              	.LC10:
 2012 0098 2D2D2D20 		.ascii	"--- MailB.: \000"
 2012      4D61696C 
 2012      422E3A20 
 2012      00
 2013 00a5 000000   		.space	3
 2014              	.LC11:
 2015 00a8 2D2D2D20 		.ascii	"--- Score : \000"
 2015      53636F72 
 2015      65203A20 
 2015      00
 2016 00b5 000000   		.space	3
 2017              	.LC12:
 2018 00b8 206C6F63 		.ascii	" lock+unlock/S\000"
 2018      6B2B756E 
 2018      6C6F636B 
 2018      2F5300
 2019 00c7 00       		.space	1
 2020              	.LC13:
 2021 00c8 20776169 		.ascii	" wait+signal/S\000"
 2021      742B7369 
 2021      676E616C 
 2021      2F5300
 2022 00d7 00       		.space	1
 2023              	.LC14:
 2024 00d8 2074696D 		.ascii	" timers/S\000"
 2024      6572732F 
 2024      5300
 2025 00e2 0000     		.space	2
 2026              	.LC15:
 2027 00e4 20627974 		.ascii	" bytes/S\000"
 2027      65732F53 
 2027      00
 2028 00ed 000000   		.space	3
 2029              	.LC16:
 2030 00f0 20746872 		.ascii	" threads/S\000"
 2030      65616473 
 2030      2F5300
 2031 00fb 00       		.space	1
ARM GAS  /tmp/ccRNZHDK.s 			page 38


 2032              	.LC17:
 2033 00fc 20637478 		.ascii	" ctxswc/S\000"
 2033      7377632F 
 2033      5300
 2034 0106 0000     		.space	2
 2035              	.LC18:
 2036 0108 20726573 		.ascii	" reschedules/S, \000"
 2036      63686564 
 2036      756C6573 
 2036      2F532C20 
 2036      00
 2037 0119 000000   		.space	3
 2038              	.LC19:
 2039 011c 206D7367 		.ascii	" msgs/S, \000"
 2039      732F532C 
 2039      2000
 2040 0126 0000     		.space	2
 2041              	.LC20:
 2042 0128 42656E63 		.ascii	"Benchmark, RAM footprint\000"
 2042      686D6172 
 2042      6B2C2052 
 2042      414D2066 
 2042      6F6F7470 
 2043 0141 000000   		.space	3
 2044              	.LC21:
 2045 0144 42656E63 		.ascii	"Benchmark, mutexes lock/unlock\000"
 2045      686D6172 
 2045      6B2C206D 
 2045      75746578 
 2045      6573206C 
 2046 0163 00       		.space	1
 2047              	.LC22:
 2048 0164 42656E63 		.ascii	"Benchmark, semaphores wait/signal\000"
 2048      686D6172 
 2048      6B2C2073 
 2048      656D6170 
 2048      686F7265 
 2049 0186 0000     		.space	2
 2050              	.LC23:
 2051 0188 42656E63 		.ascii	"Benchmark, virtual timers set/reset\000"
 2051      686D6172 
 2051      6B2C2076 
 2051      69727475 
 2051      616C2074 
 2052              	.LC24:
 2053 01ac 42656E63 		.ascii	"Benchmark, I/O Queues throughput\000"
 2053      686D6172 
 2053      6B2C2049 
 2053      2F4F2051 
 2053      75657565 
 2054 01cd 000000   		.space	3
 2055              	.LC25:
 2056 01d0 42656E63 		.ascii	"Benchmark, round robin context switching\000"
 2056      686D6172 
 2056      6B2C2072 
 2056      6F756E64 
 2056      20726F62 
ARM GAS  /tmp/ccRNZHDK.s 			page 39


 2057 01f9 000000   		.space	3
 2058              	.LC26:
 2059 01fc 42656E63 		.ascii	"Benchmark, mass reschedule, 5 threads\000"
 2059      686D6172 
 2059      6B2C206D 
 2059      61737320 
 2059      72657363 
 2060 0222 0000     		.space	2
 2061              	.LC27:
 2062 0224 42656E63 		.ascii	"Benchmark, threads, create only\000"
 2062      686D6172 
 2062      6B2C2074 
 2062      68726561 
 2062      64732C20 
 2063              	.LC28:
 2064 0244 42656E63 		.ascii	"Benchmark, threads, full cycle\000"
 2064      686D6172 
 2064      6B2C2074 
 2064      68726561 
 2064      64732C20 
 2065 0263 00       		.space	1
 2066              	.LC29:
 2067 0264 42656E63 		.ascii	"Benchmark, context switch\000"
 2067      686D6172 
 2067      6B2C2063 
 2067      6F6E7465 
 2067      78742073 
 2068 027e 0000     		.space	2
 2069              	.LC30:
 2070 0280 42656E63 		.ascii	"Benchmark, messages #3\000"
 2070      686D6172 
 2070      6B2C206D 
 2070      65737361 
 2070      67657320 
 2071 0297 00       		.space	1
 2072              	.LC31:
 2073 0298 42656E63 		.ascii	"Benchmark, messages #2\000"
 2073      686D6172 
 2073      6B2C206D 
 2073      65737361 
 2073      67657320 
 2074 02af 00       		.space	1
 2075              	.LC32:
 2076 02b0 42656E63 		.ascii	"Benchmark, messages #1\000"
 2076      686D6172 
 2076      6B2C206D 
 2076      65737361 
 2076      67657320 
 2077 02c7 00       		.section	.bss.vt1.4864,"aw",%nobits
 2078              		.align	2
 2079              		.set	.LANCHOR2,. + 0
 2080              		.type	vt1.4864, %object
 2081              		.size	vt1.4864, 20
 2082              	vt1.4864:
 2083 0000 00000000 		.space	20
 2083      00000000 
 2083      00000000 
ARM GAS  /tmp/ccRNZHDK.s 			page 40


 2083      00000000 
 2083      00000000 
 2084              		.section	.bss.sem1,"aw",%nobits
 2085              		.align	2
 2086              		.set	.LANCHOR1,. + 0
 2087              		.type	sem1, %object
 2088              		.size	sem1, 12
 2089              	sem1:
 2090 0000 00000000 		.space	12
 2090      00000000 
 2090      00000000 
 2091              		.section	.rodata.testbmk1,"a",%progbits
 2092              		.align	2
 2093              		.type	testbmk1, %object
 2094              		.size	testbmk1, 16
 2095              	testbmk1:
 2096 0000 B0020000 		.word	.LC32
 2097 0004 00000000 		.word	0
 2098 0008 00000000 		.word	0
 2099 000c 00000000 		.word	bmk1_execute
 2100              		.section	.rodata.testbmk11,"a",%progbits
 2101              		.align	2
 2102              		.type	testbmk11, %object
 2103              		.size	testbmk11, 16
 2104              	testbmk11:
 2105 0000 64010000 		.word	.LC22
 2106 0004 00000000 		.word	bmk11_setup
 2107 0008 00000000 		.word	0
 2108 000c 00000000 		.word	bmk11_execute
 2109              		.section	.rodata.testbmk12,"a",%progbits
 2110              		.align	2
 2111              		.type	testbmk12, %object
 2112              		.size	testbmk12, 16
 2113              	testbmk12:
 2114 0000 44010000 		.word	.LC21
 2115 0004 00000000 		.word	bmk12_setup
 2116 0008 00000000 		.word	0
 2117 000c 00000000 		.word	bmk12_execute
 2118              		.section	.bss.iq.4852,"aw",%nobits
 2119              		.align	2
 2120              		.set	.LANCHOR4,. + 0
 2121              		.type	iq.4852, %object
 2122              		.size	iq.4852, 36
 2123              	iq.4852:
 2124 0000 00000000 		.space	36
 2124      00000000 
 2124      00000000 
 2124      00000000 
 2124      00000000 
 2125              		.section	.rodata.testbmk5,"a",%progbits
 2126              		.align	2
 2127              		.type	testbmk5, %object
 2128              		.size	testbmk5, 16
 2129              	testbmk5:
 2130 0000 44020000 		.word	.LC28
 2131 0004 00000000 		.word	0
 2132 0008 00000000 		.word	0
ARM GAS  /tmp/ccRNZHDK.s 			page 41


 2133 000c 00000000 		.word	bmk5_execute
 2134              		.section	.rodata.testbmk6,"a",%progbits
 2135              		.align	2
 2136              		.type	testbmk6, %object
 2137              		.size	testbmk6, 16
 2138              	testbmk6:
 2139 0000 24020000 		.word	.LC27
 2140 0004 00000000 		.word	0
 2141 0008 00000000 		.word	0
 2142 000c 00000000 		.word	bmk6_execute
 2143              		.section	.rodata.testbmk7,"a",%progbits
 2144              		.align	2
 2145              		.type	testbmk7, %object
 2146              		.size	testbmk7, 16
 2147              	testbmk7:
 2148 0000 FC010000 		.word	.LC26
 2149 0004 00000000 		.word	bmk7_setup
 2150 0008 00000000 		.word	0
 2151 000c 00000000 		.word	bmk7_execute
 2152              		.text
 2153              	.Letext0:
 2154              		.file 2 "/home/tino/ChibiStudio/tools/GNU Tools ARM Embedded/4.6 2012q2/bin/../lib/gcc/arm-none-ea
 2155              		.file 3 "/home/tino/ChibiStudio/tools/GNU Tools ARM Embedded/4.6 2012q2/bin/../lib/gcc/arm-none-ea
 2156              		.file 4 "../../ChibiOS/os/ports/GCC/ARMCMx/chtypes.h"
 2157              		.file 5 "../../ChibiOS/os/kernel/include/chlists.h"
 2158              		.file 6 "../../ChibiOS/os/kernel/include/chthreads.h"
 2159              		.file 7 "../../ChibiOS/os/ports/GCC/ARMCMx/chcore_v7m.h"
 2160              		.file 8 "../../ChibiOS/os/kernel/include/chvt.h"
 2161              		.file 9 "../../ChibiOS/os/kernel/include/chschd.h"
 2162              		.file 10 "../../ChibiOS/os/kernel/include/chsem.h"
 2163              		.file 11 "../../ChibiOS/os/kernel/include/chmtx.h"
 2164              		.file 12 "../../ChibiOS/os/kernel/include/chqueues.h"
 2165              		.file 13 "../../ChibiOS/test/test.h"