ARM GAS  /tmp/ccd0Hvab.s 			page 1


   1              		.syntax unified
   2              		.cpu cortex-m3
   3              		.fpu softvfp
   4              		.eabi_attribute 20, 1
   5              		.eabi_attribute 21, 1
   6              		.eabi_attribute 23, 3
   7              		.eabi_attribute 24, 1
   8              		.eabi_attribute 25, 1
   9              		.eabi_attribute 26, 1
  10              		.eabi_attribute 30, 2
  11              		.eabi_attribute 34, 1
  12              		.eabi_attribute 18, 4
  13              		.thumb
  14              		.file	"testmbox.c"
  15              		.text
  16              	.Ltext0:
  17              		.cfi_sections	.debug_frame
  18              		.section	.text.mbox1_setup,"ax",%progbits
  19              		.align	2
  20              		.p2align 4,,15
  21              		.thumb
  22              		.thumb_func
  23              		.type	mbox1_setup, %function
  24              	mbox1_setup:
  25              	.LFB7:
  26              		.file 1 "../../ChibiOS/test/testmbox.c"
  27              		.loc 1 71 0
  28              		.cfi_startproc
  29              		@ args = 0, pretend = 0, frame = 0
  30              		@ frame_needed = 0, uses_anonymous_args = 0
  31              		@ link register save eliminated.
  32              		.loc 1 73 0
  33 0000 40F20000 		movw	r0, #:lower16:.LANCHOR0
  34 0004 40F20001 		movw	r1, #:lower16:test
  35 0008 C0F20001 		movt	r1, #:upper16:test
  36 000c C0F20000 		movt	r0, #:upper16:.LANCHOR0
  37 0010 0522     		movs	r2, #5
  38              		.loc 1 74 0
  39              		.loc 1 73 0
  40 0012 FFF7FEBF 		b	chMBInit
  41              		.cfi_endproc
  42              	.LFE7:
  43              		.size	mbox1_setup, .-mbox1_setup
  44 0016 00BFAFF3 		.section	.text.mbox1_execute,"ax",%progbits
  44      0080AFF3 
  44      0080
  45              		.align	2
  46              		.p2align 4,,15
  47              		.thumb
  48              		.thumb_func
  49              		.type	mbox1_execute, %function
  50              	mbox1_execute:
  51              	.LFB8:
  52              		.loc 1 76 0
  53              		.cfi_startproc
  54              		@ args = 0, pretend = 0, frame = 8
  55              		@ frame_needed = 0, uses_anonymous_args = 0
ARM GAS  /tmp/ccd0Hvab.s 			page 2


  56 0000 70B5     		push	{r4, r5, r6, lr}
  57              	.LCFI0:
  58              		.cfi_def_cfa_offset 16
  59              		.cfi_offset 14, -4
  60              		.cfi_offset 6, -8
  61              		.cfi_offset 5, -12
  62              		.cfi_offset 4, -16
  63              		.loc 1 83 0
  64 0002 2A4C     		ldr	r4, .L27
  65 0004 0120     		movs	r0, #1
  66 0006 626A     		ldr	r2, [r4, #36]
  67              		.loc 1 76 0
  68 0008 82B0     		sub	sp, sp, #8
  69              	.LCFI1:
  70              		.cfi_def_cfa_offset 24
  71              		.loc 1 83 0
  72 000a A2F10503 		sub	r3, r2, #5
  73 000e 5942     		rsbs	r1, r3, #0
  74 0010 41EB0301 		adc	r1, r1, r3
  75 0014 FFF7FEFF 		bl	_test_assert
  76 0018 0028     		cmp	r0, #0
  77 001a 45D1     		bne	.L2
  78              		.loc 1 89 0
  79 001c 4221     		movs	r1, #66
  80 001e 4FF0FF32 		mov	r2, #-1
  81 0022 2046     		mov	r0, r4
  82 0024 FFF7FEFF 		bl	chMBPost
  83              	.LVL0:
  84              		.loc 1 90 0
  85 0028 D0F10101 		rsbs	r1, r0, #1
  86 002c 38BF     		it	cc
  87 002e 0021     		movcc	r1, #0
  88 0030 0220     		movs	r0, #2
  89              	.LVL1:
  90 0032 FFF7FEFF 		bl	_test_assert
  91 0036 B8BB     		cbnz	r0, .L2
  92              	.LVL2:
  93              		.loc 1 89 0
  94 0038 4321     		movs	r1, #67
  95 003a 4FF0FF32 		mov	r2, #-1
  96 003e 2046     		mov	r0, r4
  97 0040 FFF7FEFF 		bl	chMBPost
  98              	.LVL3:
  99              		.loc 1 90 0
 100 0044 D0F10101 		rsbs	r1, r0, #1
 101 0048 38BF     		it	cc
 102 004a 0021     		movcc	r1, #0
 103 004c 0220     		movs	r0, #2
 104              	.LVL4:
 105 004e FFF7FEFF 		bl	_test_assert
 106 0052 48BB     		cbnz	r0, .L2
 107              	.LVL5:
 108              		.loc 1 89 0
 109 0054 4421     		movs	r1, #68
 110 0056 4FF0FF32 		mov	r2, #-1
 111 005a 2046     		mov	r0, r4
 112 005c FFF7FEFF 		bl	chMBPost
ARM GAS  /tmp/ccd0Hvab.s 			page 3


 113              	.LVL6:
 114              		.loc 1 90 0
 115 0060 D0F10101 		rsbs	r1, r0, #1
 116 0064 38BF     		it	cc
 117 0066 0021     		movcc	r1, #0
 118 0068 0220     		movs	r0, #2
 119              	.LVL7:
 120 006a FFF7FEFF 		bl	_test_assert
 121 006e D8B9     		cbnz	r0, .L2
 122              	.LVL8:
 123              		.loc 1 89 0
 124 0070 4521     		movs	r1, #69
 125 0072 4FF0FF32 		mov	r2, #-1
 126 0076 2046     		mov	r0, r4
 127 0078 FFF7FEFF 		bl	chMBPost
 128              	.LVL9:
 129              		.loc 1 90 0
 130 007c D0F10101 		rsbs	r1, r0, #1
 131 0080 38BF     		it	cc
 132 0082 0021     		movcc	r1, #0
 133 0084 0220     		movs	r0, #2
 134              	.LVL10:
 135 0086 FFF7FEFF 		bl	_test_assert
 136 008a 68B9     		cbnz	r0, .L2
 137              	.LVL11:
 138              		.loc 1 92 0
 139 008c 4121     		movs	r1, #65
 140 008e 4FF0FF32 		mov	r2, #-1
 141 0092 2046     		mov	r0, r4
 142 0094 FFF7FEFF 		bl	chMBPostAhead
 143              	.LVL12:
 144              		.loc 1 93 0
 145 0098 D0F10101 		rsbs	r1, r0, #1
 146 009c 38BF     		it	cc
 147 009e 0021     		movcc	r1, #0
 148 00a0 0320     		movs	r0, #3
 149              	.LVL13:
 150 00a2 FFF7FEFF 		bl	_test_assert
 151 00a6 18B1     		cbz	r0, .L26
 152              	.LVL14:
 153              	.L2:
 154              		.loc 1 220 0
 155 00a8 02B0     		add	sp, sp, #8
 156 00aa 70BD     		pop	{r4, r5, r6, pc}
 157              	.L28:
 158              		.align	2
 159              	.L27:
 160 00ac 00000000 		.word	.LANCHOR0
 161              	.LVL15:
 162              	.L26:
 163              	.LBB116:
 164              	.LBB117:
 165              		.loc 1 98 0
 166 00b0 5821     		movs	r1, #88
 167 00b2 0122     		movs	r2, #1
 168 00b4 2046     		mov	r0, r4
 169 00b6 FFF7FEFF 		bl	chMBPost
ARM GAS  /tmp/ccd0Hvab.s 			page 4


 170              	.LVL16:
 171              		.loc 1 99 0
 172 00ba A0F1FF35 		sub	r5, r0, #-1
 173 00be 6842     		rsbs	r0, r5, #0
 174              	.LVL17:
 175 00c0 40EB0501 		adc	r1, r0, r5
 176 00c4 0420     		movs	r0, #4
 177 00c6 FFF7FEFF 		bl	_test_assert
 178 00ca 0546     		mov	r5, r0
 179              	.LVL18:
 180 00cc 0028     		cmp	r0, #0
 181 00ce EBD1     		bne	.L2
 182              	.LBB118:
 183              		.loc 1 100 0
 184 00d0 2023     		movs	r3, #32
 185              	.LVL19:
 186              	@ 100 "../../ChibiOS/test/testmbox.c" 1
 187 00d2 83F31188 		msr     BASEPRI, r3
 188              	@ 0 "" 2
 189              	.LVL20:
 190              		.thumb
 191              	.LBE118:
 192 00d6 FFF7FEFF 		bl	dbg_check_lock
 193              	.LVL21:
 194              		.loc 1 101 0
 195 00da 5821     		movs	r1, #88
 196 00dc 2046     		mov	r0, r4
 197 00de FFF7FEFF 		bl	chMBPostI
 198 00e2 0646     		mov	r6, r0
 199              	.LVL22:
 200              		.loc 1 102 0
 201 00e4 FFF7FEFF 		bl	dbg_check_unlock
 202              	.LVL23:
 203              	.LBB119:
 204 00e8 2B46     		mov	r3, r5
 205              	.LVL24:
 206              	@ 102 "../../ChibiOS/test/testmbox.c" 1
 207 00ea 83F31188 		msr     BASEPRI, r3
 208              	@ 0 "" 2
 209              	.LVL25:
 210              		.thumb
 211              	.LBE119:
 212              		.loc 1 103 0
 213 00ee A6F1FF31 		sub	r1, r6, #-1
 214 00f2 D1F1000C 		rsbs	ip, r1, #0
 215 00f6 4CEB0101 		adc	r1, ip, r1
 216 00fa 0520     		movs	r0, #5
 217 00fc FFF7FEFF 		bl	_test_assert
 218              	.LVL26:
 219 0100 0028     		cmp	r0, #0
 220 0102 D1D1     		bne	.L2
 221              		.loc 1 104 0
 222 0104 5821     		movs	r1, #88
 223 0106 0122     		movs	r2, #1
 224 0108 2046     		mov	r0, r4
 225 010a FFF7FEFF 		bl	chMBPostAhead
 226              	.LVL27:
ARM GAS  /tmp/ccd0Hvab.s 			page 5


 227              		.loc 1 105 0
 228 010e A0F1FF32 		sub	r2, r0, #-1
 229 0112 5342     		rsbs	r3, r2, #0
 230 0114 43EB0201 		adc	r1, r3, r2
 231 0118 0620     		movs	r0, #6
 232              	.LVL28:
 233 011a FFF7FEFF 		bl	_test_assert
 234              	.LVL29:
 235 011e 0546     		mov	r5, r0
 236 0120 0028     		cmp	r0, #0
 237 0122 C1D1     		bne	.L2
 238              	.LBB120:
 239              		.loc 1 106 0
 240 0124 2023     		movs	r3, #32
 241              	.LVL30:
 242              	@ 106 "../../ChibiOS/test/testmbox.c" 1
 243 0126 83F31188 		msr     BASEPRI, r3
 244              	@ 0 "" 2
 245              	.LVL31:
 246              		.thumb
 247              	.LBE120:
 248 012a FFF7FEFF 		bl	dbg_check_lock
 249              	.LVL32:
 250              		.loc 1 107 0
 251 012e 5821     		movs	r1, #88
 252 0130 2046     		mov	r0, r4
 253 0132 FFF7FEFF 		bl	chMBPostAheadI
 254 0136 0646     		mov	r6, r0
 255              	.LVL33:
 256              		.loc 1 108 0
 257 0138 FFF7FEFF 		bl	dbg_check_unlock
 258              	.LVL34:
 259              	.LBB121:
 260 013c 2B46     		mov	r3, r5
 261              	.LVL35:
 262              	@ 108 "../../ChibiOS/test/testmbox.c" 1
 263 013e 83F31188 		msr     BASEPRI, r3
 264              	@ 0 "" 2
 265              	.LVL36:
 266              		.thumb
 267              	.LBE121:
 268              		.loc 1 109 0
 269 0142 A6F1FF30 		sub	r0, r6, #-1
 270 0146 D0F1000C 		rsbs	ip, r0, #0
 271 014a 4CEB0001 		adc	r1, ip, r0
 272 014e 0720     		movs	r0, #7
 273 0150 FFF7FEFF 		bl	_test_assert
 274              	.LVL37:
 275 0154 0028     		cmp	r0, #0
 276 0156 A7D1     		bne	.L2
 277              	.LBB122:
 278              		.loc 1 114 0
 279 0158 2023     		movs	r3, #32
 280              	.LVL38:
 281              	@ 114 "../../ChibiOS/test/testmbox.c" 1
 282 015a 83F31188 		msr     BASEPRI, r3
 283              	@ 0 "" 2
ARM GAS  /tmp/ccd0Hvab.s 			page 6


 284              	.LVL39:
 285              		.thumb
 286              	.LBE122:
 287 015e FFF7FEFF 		bl	dbg_check_lock
 288              	.LVL40:
 289 0162 666A     		ldr	r6, [r4, #36]
 290              	.LVL41:
 291 0164 0820     		movs	r0, #8
 292 0166 D6F10101 		rsbs	r1, r6, #1
 293 016a 38BF     		it	cc
 294 016c 0021     		movcc	r1, #0
 295 016e FFF7FEFF 		bl	_test_assert
 296 0172 0646     		mov	r6, r0
 297 0174 0028     		cmp	r0, #0
 298 0176 40F01D83 		bne	.L19
 299 017a FFF7FEFF 		bl	dbg_check_unlock
 300              	.LBB123:
 301 017e 3346     		mov	r3, r6
 302              	.LVL42:
 303              	@ 114 "../../ChibiOS/test/testmbox.c" 1
 304 0180 83F31188 		msr     BASEPRI, r3
 305              	@ 0 "" 2
 306              	.LVL43:
 307              		.thumb
 308              	.LBE123:
 309              	.LBB124:
 310              		.loc 1 115 0
 311 0184 2023     		movs	r3, #32
 312              	.LVL44:
 313              	@ 115 "../../ChibiOS/test/testmbox.c" 1
 314 0186 83F31188 		msr     BASEPRI, r3
 315              	@ 0 "" 2
 316              	.LVL45:
 317              		.thumb
 318              	.LBE124:
 319 018a FFF7FEFF 		bl	dbg_check_lock
 320              	.LVL46:
 321 018e A369     		ldr	r3, [r4, #24]
 322 0190 0920     		movs	r0, #9
 323 0192 A3F10501 		sub	r1, r3, #5
 324 0196 4D42     		rsbs	r5, r1, #0
 325 0198 45EB0101 		adc	r1, r5, r1
 326 019c FFF7FEFF 		bl	_test_assert
 327 01a0 0546     		mov	r5, r0
 328 01a2 0028     		cmp	r0, #0
 329 01a4 40F00C83 		bne	.L23
 330 01a8 FFF7FEFF 		bl	dbg_check_unlock
 331              	.LBB125:
 332 01ac 2B46     		mov	r3, r5
 333              	.LVL47:
 334              	@ 115 "../../ChibiOS/test/testmbox.c" 1
 335 01ae 83F31188 		msr     BASEPRI, r3
 336              	@ 0 "" 2
 337              	.LVL48:
 338              		.thumb
 339              	.LBE125:
 340              	.LBB126:
ARM GAS  /tmp/ccd0Hvab.s 			page 7


 341              		.loc 1 116 0
 342 01b2 2023     		movs	r3, #32
 343              	.LVL49:
 344              	@ 116 "../../ChibiOS/test/testmbox.c" 1
 345 01b4 83F31188 		msr     BASEPRI, r3
 346              	@ 0 "" 2
 347              	.LVL50:
 348              		.thumb
 349              	.LBE126:
 350 01b8 FFF7FEFF 		bl	dbg_check_lock
 351              	.LVL51:
 352 01bc E168     		ldr	r1, [r4, #12]
 353 01be A368     		ldr	r3, [r4, #8]
 354 01c0 0A20     		movs	r0, #10
 355 01c2 CE1A     		subs	r6, r1, r3
 356 01c4 7242     		rsbs	r2, r6, #0
 357 01c6 42EB0601 		adc	r1, r2, r6
 358 01ca FFF7FEFF 		bl	_test_assert
 359 01ce 0646     		mov	r6, r0
 360 01d0 0028     		cmp	r0, #0
 361 01d2 40F0FB82 		bne	.L24
 362 01d6 FFF7FEFF 		bl	dbg_check_unlock
 363              	.LBB127:
 364 01da 3346     		mov	r3, r6
 365              	.LVL52:
 366              	@ 116 "../../ChibiOS/test/testmbox.c" 1
 367 01dc 83F31188 		msr     BASEPRI, r3
 368              	@ 0 "" 2
 369              	.LVL53:
 370              		.thumb
 371              	.LBE127:
 372              		.loc 1 122 0
 373 01e0 4FF0FF32 		mov	r2, #-1
 374 01e4 01A9     		add	r1, sp, #4
 375 01e6 2046     		mov	r0, r4
 376 01e8 FFF7FEFF 		bl	chMBFetch
 377              	.LVL54:
 378              		.loc 1 123 0
 379 01ec D0F10101 		rsbs	r1, r0, #1
 380 01f0 38BF     		it	cc
 381 01f2 0021     		movcc	r1, #0
 382 01f4 0B20     		movs	r0, #11
 383              	.LVL55:
 384 01f6 FFF7FEFF 		bl	_test_assert
 385 01fa 0028     		cmp	r0, #0
 386 01fc 7FF454AF 		bne	.L2
 387              	.LVL56:
 388              		.loc 1 124 0
 389 0200 9DF80400 		ldrb	r0, [sp, #4]	@ zero_extendqisi2
 390 0204 FFF7FEFF 		bl	test_emit_token
 391              	.LVL57:
 392              		.loc 1 122 0
 393 0208 01A9     		add	r1, sp, #4
 394 020a 2046     		mov	r0, r4
 395 020c 4FF0FF32 		mov	r2, #-1
 396 0210 FFF7FEFF 		bl	chMBFetch
 397              	.LVL58:
ARM GAS  /tmp/ccd0Hvab.s 			page 8


 398              		.loc 1 123 0
 399 0214 D0F10101 		rsbs	r1, r0, #1
 400 0218 38BF     		it	cc
 401 021a 0021     		movcc	r1, #0
 402 021c 0B20     		movs	r0, #11
 403              	.LVL59:
 404 021e FFF7FEFF 		bl	_test_assert
 405 0222 0028     		cmp	r0, #0
 406 0224 7FF440AF 		bne	.L2
 407              		.loc 1 124 0
 408 0228 9DF80400 		ldrb	r0, [sp, #4]	@ zero_extendqisi2
 409 022c FFF7FEFF 		bl	test_emit_token
 410              		.loc 1 122 0
 411 0230 01A9     		add	r1, sp, #4
 412 0232 2046     		mov	r0, r4
 413 0234 4FF0FF32 		mov	r2, #-1
 414 0238 FFF7FEFF 		bl	chMBFetch
 415              	.LVL60:
 416              		.loc 1 123 0
 417 023c D0F10101 		rsbs	r1, r0, #1
 418 0240 38BF     		it	cc
 419 0242 0021     		movcc	r1, #0
 420 0244 0B20     		movs	r0, #11
 421              	.LVL61:
 422 0246 FFF7FEFF 		bl	_test_assert
 423 024a 0028     		cmp	r0, #0
 424 024c 7FF42CAF 		bne	.L2
 425              		.loc 1 124 0
 426 0250 9DF80400 		ldrb	r0, [sp, #4]	@ zero_extendqisi2
 427 0254 FFF7FEFF 		bl	test_emit_token
 428              		.loc 1 122 0
 429 0258 01A9     		add	r1, sp, #4
 430 025a 2046     		mov	r0, r4
 431 025c 4FF0FF32 		mov	r2, #-1
 432 0260 FFF7FEFF 		bl	chMBFetch
 433              	.LVL62:
 434              		.loc 1 123 0
 435 0264 D0F10101 		rsbs	r1, r0, #1
 436 0268 38BF     		it	cc
 437 026a 0021     		movcc	r1, #0
 438 026c 0B20     		movs	r0, #11
 439              	.LVL63:
 440 026e FFF7FEFF 		bl	_test_assert
 441 0272 0028     		cmp	r0, #0
 442 0274 7FF418AF 		bne	.L2
 443              		.loc 1 124 0
 444 0278 9DF80400 		ldrb	r0, [sp, #4]	@ zero_extendqisi2
 445 027c FFF7FEFF 		bl	test_emit_token
 446              		.loc 1 122 0
 447 0280 01A9     		add	r1, sp, #4
 448 0282 2046     		mov	r0, r4
 449 0284 4FF0FF32 		mov	r2, #-1
 450 0288 FFF7FEFF 		bl	chMBFetch
 451              	.LVL64:
 452              		.loc 1 123 0
 453 028c D0F10101 		rsbs	r1, r0, #1
 454 0290 38BF     		it	cc
ARM GAS  /tmp/ccd0Hvab.s 			page 9


 455 0292 0021     		movcc	r1, #0
 456 0294 0B20     		movs	r0, #11
 457              	.LVL65:
 458 0296 FFF7FEFF 		bl	_test_assert
 459 029a 0028     		cmp	r0, #0
 460 029c 7FF404AF 		bne	.L2
 461              		.loc 1 124 0
 462 02a0 9DF80400 		ldrb	r0, [sp, #4]	@ zero_extendqisi2
 463 02a4 FFF7FEFF 		bl	test_emit_token
 464              		.loc 1 126 0
 465 02a8 0C20     		movs	r0, #12
 466 02aa CA49     		ldr	r1, .L29
 467 02ac FFF7FEFF 		bl	_test_assert_sequence
 468 02b0 0028     		cmp	r0, #0
 469 02b2 7FF4F9AE 		bne	.L2
 470              		.loc 1 131 0
 471 02b6 4721     		movs	r1, #71
 472 02b8 4FF0FF32 		mov	r2, #-1
 473 02bc 2046     		mov	r0, r4
 474 02be FFF7FEFF 		bl	chMBPost
 475              	.LVL66:
 476              		.loc 1 132 0
 477 02c2 D0F10101 		rsbs	r1, r0, #1
 478 02c6 38BF     		it	cc
 479 02c8 0021     		movcc	r1, #0
 480 02ca 0D20     		movs	r0, #13
 481              	.LVL67:
 482 02cc FFF7FEFF 		bl	_test_assert
 483 02d0 0028     		cmp	r0, #0
 484 02d2 7FF4E9AE 		bne	.L2
 485              		.loc 1 133 0
 486 02d6 C04C     		ldr	r4, .L29+4
 487 02d8 01A9     		add	r1, sp, #4
 488 02da 4FF0FF32 		mov	r2, #-1
 489 02de 2046     		mov	r0, r4
 490 02e0 FFF7FEFF 		bl	chMBFetch
 491              	.LVL68:
 492              		.loc 1 134 0
 493 02e4 D0F10101 		rsbs	r1, r0, #1
 494 02e8 38BF     		it	cc
 495 02ea 0021     		movcc	r1, #0
 496 02ec 0E20     		movs	r0, #14
 497              	.LVL69:
 498 02ee FFF7FEFF 		bl	_test_assert
 499 02f2 0028     		cmp	r0, #0
 500 02f4 7FF4D8AE 		bne	.L2
 501              		.loc 1 135 0
 502 02f8 2168     		ldr	r1, [r4, #0]
 503 02fa A268     		ldr	r2, [r4, #8]
 504 02fc 0F20     		movs	r0, #15
 505 02fe 8B1A     		subs	r3, r1, r2
 506 0300 5A42     		rsbs	r2, r3, #0
 507 0302 42EB0301 		adc	r1, r2, r3
 508 0306 FFF7FEFF 		bl	_test_assert
 509 030a 0028     		cmp	r0, #0
 510 030c 7FF4CCAE 		bne	.L2
 511              		.loc 1 136 0
ARM GAS  /tmp/ccd0Hvab.s 			page 10


 512 0310 E368     		ldr	r3, [r4, #12]
 513 0312 2268     		ldr	r2, [r4, #0]
 514 0314 1020     		movs	r0, #16
 515 0316 D11A     		subs	r1, r2, r3
 516 0318 4B42     		rsbs	r3, r1, #0
 517 031a 43EB0101 		adc	r1, r3, r1
 518 031e FFF7FEFF 		bl	_test_assert
 519 0322 0028     		cmp	r0, #0
 520 0324 7FF4C0AE 		bne	.L2
 521              		.loc 1 141 0
 522 0328 0122     		movs	r2, #1
 523 032a 01A9     		add	r1, sp, #4
 524 032c 2046     		mov	r0, r4
 525 032e FFF7FEFF 		bl	chMBFetch
 526              	.LVL70:
 527              		.loc 1 142 0
 528 0332 A0F1FF3C 		sub	ip, r0, #-1
 529 0336 DCF10005 		rsbs	r5, ip, #0
 530 033a 45EB0C01 		adc	r1, r5, ip
 531 033e 1120     		movs	r0, #17
 532              	.LVL71:
 533 0340 FFF7FEFF 		bl	_test_assert
 534              	.LVL72:
 535 0344 0546     		mov	r5, r0
 536 0346 0028     		cmp	r0, #0
 537 0348 7FF4AEAE 		bne	.L2
 538              	.LBB128:
 539              		.loc 1 143 0
 540 034c 2023     		movs	r3, #32
 541              	.LVL73:
 542              	@ 143 "../../ChibiOS/test/testmbox.c" 1
 543 034e 83F31188 		msr     BASEPRI, r3
 544              	@ 0 "" 2
 545              	.LVL74:
 546              		.thumb
 547              	.LBE128:
 548 0352 FFF7FEFF 		bl	dbg_check_lock
 549              	.LVL75:
 550              		.loc 1 144 0
 551 0356 01A9     		add	r1, sp, #4
 552 0358 2046     		mov	r0, r4
 553 035a FFF7FEFF 		bl	chMBFetchI
 554 035e 0646     		mov	r6, r0
 555              	.LVL76:
 556              		.loc 1 145 0
 557 0360 FFF7FEFF 		bl	dbg_check_unlock
 558              	.LVL77:
 559              	.LBB129:
 560 0364 2B46     		mov	r3, r5
 561              	.LVL78:
 562              	@ 145 "../../ChibiOS/test/testmbox.c" 1
 563 0366 83F31188 		msr     BASEPRI, r3
 564              	@ 0 "" 2
 565              	.LVL79:
 566              		.thumb
 567              	.LBE129:
 568              		.loc 1 146 0
ARM GAS  /tmp/ccd0Hvab.s 			page 11


 569 036a A6F1FF31 		sub	r1, r6, #-1
 570 036e 4842     		rsbs	r0, r1, #0
 571 0370 40EB0101 		adc	r1, r0, r1
 572 0374 1220     		movs	r0, #18
 573 0376 FFF7FEFF 		bl	_test_assert
 574              	.LVL80:
 575 037a 0546     		mov	r5, r0
 576 037c 0028     		cmp	r0, #0
 577 037e 7FF493AE 		bne	.L2
 578              	.LBB130:
 579              		.loc 1 151 0
 580 0382 2023     		movs	r3, #32
 581              	.LVL81:
 582              	@ 151 "../../ChibiOS/test/testmbox.c" 1
 583 0384 83F31188 		msr     BASEPRI, r3
 584              	@ 0 "" 2
 585              	.LVL82:
 586              		.thumb
 587              	.LBE130:
 588 0388 FFF7FEFF 		bl	dbg_check_lock
 589              	.LVL83:
 590 038c 636A     		ldr	r3, [r4, #36]
 591 038e 1320     		movs	r0, #19
 592 0390 A3F10502 		sub	r2, r3, #5
 593 0394 5642     		rsbs	r6, r2, #0
 594              	.LVL84:
 595 0396 46EB0201 		adc	r1, r6, r2
 596 039a FFF7FEFF 		bl	_test_assert
 597 039e 0646     		mov	r6, r0
 598 03a0 0028     		cmp	r0, #0
 599 03a2 40F01382 		bne	.L24
 600 03a6 FFF7FEFF 		bl	dbg_check_unlock
 601              	.LBB131:
 602 03aa 3346     		mov	r3, r6
 603              	.LVL85:
 604              	@ 151 "../../ChibiOS/test/testmbox.c" 1
 605 03ac 83F31188 		msr     BASEPRI, r3
 606              	@ 0 "" 2
 607              	.LVL86:
 608              		.thumb
 609              	.LBE131:
 610              	.LBB132:
 611              		.loc 1 152 0
 612 03b0 2023     		movs	r3, #32
 613              	.LVL87:
 614              	@ 152 "../../ChibiOS/test/testmbox.c" 1
 615 03b2 83F31188 		msr     BASEPRI, r3
 616              	@ 0 "" 2
 617              	.LVL88:
 618              		.thumb
 619              	.LBE132:
 620 03b6 FFF7FEFF 		bl	dbg_check_lock
 621              	.LVL89:
 622 03ba A569     		ldr	r5, [r4, #24]
 623 03bc 1420     		movs	r0, #20
 624 03be D5F10101 		rsbs	r1, r5, #1
 625 03c2 38BF     		it	cc
ARM GAS  /tmp/ccd0Hvab.s 			page 12


 626 03c4 0021     		movcc	r1, #0
 627 03c6 FFF7FEFF 		bl	_test_assert
 628 03ca 0546     		mov	r5, r0
 629 03cc 0028     		cmp	r0, #0
 630 03ce 40F0F781 		bne	.L23
 631 03d2 FFF7FEFF 		bl	dbg_check_unlock
 632              	.LBB133:
 633 03d6 2B46     		mov	r3, r5
 634              	.LVL90:
 635              	@ 152 "../../ChibiOS/test/testmbox.c" 1
 636 03d8 83F31188 		msr     BASEPRI, r3
 637              	@ 0 "" 2
 638              	.LVL91:
 639              		.thumb
 640              	.LBE133:
 641              	.LBB134:
 642              		.loc 1 153 0
 643 03dc 2023     		movs	r3, #32
 644              	.LVL92:
 645              	@ 153 "../../ChibiOS/test/testmbox.c" 1
 646 03de 83F31188 		msr     BASEPRI, r3
 647              	@ 0 "" 2
 648              	.LVL93:
 649              		.thumb
 650              	.LBE134:
 651 03e2 FFF7FEFF 		bl	dbg_check_lock
 652              	.LVL94:
 653 03e6 E268     		ldr	r2, [r4, #12]
 654 03e8 A368     		ldr	r3, [r4, #8]
 655 03ea 1520     		movs	r0, #21
 656 03ec D61A     		subs	r6, r2, r3
 657 03ee 7142     		rsbs	r1, r6, #0
 658 03f0 41EB0601 		adc	r1, r1, r6
 659 03f4 FFF7FEFF 		bl	_test_assert
 660 03f8 0646     		mov	r6, r0
 661 03fa 0028     		cmp	r0, #0
 662 03fc 40F0E681 		bne	.L24
 663 0400 FFF7FEFF 		bl	dbg_check_unlock
 664              	.LBB135:
 665 0404 3346     		mov	r3, r6
 666              	.LVL95:
 667              	@ 153 "../../ChibiOS/test/testmbox.c" 1
 668 0406 83F31188 		msr     BASEPRI, r3
 669              	@ 0 "" 2
 670              	.LVL96:
 671              		.thumb
 672              	.LBE135:
 673              	.LBB136:
 674              		.loc 1 158 0
 675 040a 2023     		movs	r3, #32
 676              	.LVL97:
 677              	@ 158 "../../ChibiOS/test/testmbox.c" 1
 678 040c 83F31188 		msr     BASEPRI, r3
 679              	@ 0 "" 2
 680              	.LVL98:
 681              		.thumb
 682              	.LBE136:
ARM GAS  /tmp/ccd0Hvab.s 			page 13


 683 0410 FFF7FEFF 		bl	dbg_check_lock
 684              	.LVL99:
 685              		.loc 1 159 0
 686 0414 4121     		movs	r1, #65
 687 0416 2046     		mov	r0, r4
 688 0418 FFF7FEFF 		bl	chMBPostI
 689              	.LVL100:
 690              		.loc 1 160 0
 691 041c D0F10101 		rsbs	r1, r0, #1
 692 0420 38BF     		it	cc
 693 0422 0021     		movcc	r1, #0
 694 0424 1620     		movs	r0, #22
 695              	.LVL101:
 696 0426 FFF7FEFF 		bl	_test_assert
 697 042a 0028     		cmp	r0, #0
 698 042c 7FF43CAE 		bne	.L2
 699              		.loc 1 161 0
 700 0430 4221     		movs	r1, #66
 701 0432 2046     		mov	r0, r4
 702 0434 FFF7FEFF 		bl	chMBPostI
 703              	.LVL102:
 704              		.loc 1 162 0
 705 0438 D0F10101 		rsbs	r1, r0, #1
 706 043c 38BF     		it	cc
 707 043e 0021     		movcc	r1, #0
 708 0440 1720     		movs	r0, #23
 709              	.LVL103:
 710 0442 FFF7FEFF 		bl	_test_assert
 711 0446 0028     		cmp	r0, #0
 712 0448 7FF42EAE 		bne	.L2
 713              		.loc 1 163 0
 714 044c 624C     		ldr	r4, .L29+4
 715 044e 4321     		movs	r1, #67
 716 0450 2046     		mov	r0, r4
 717 0452 FFF7FEFF 		bl	chMBPostI
 718              	.LVL104:
 719              		.loc 1 164 0
 720 0456 D0F10101 		rsbs	r1, r0, #1
 721 045a 38BF     		it	cc
 722 045c 0021     		movcc	r1, #0
 723 045e 1820     		movs	r0, #24
 724              	.LVL105:
 725 0460 FFF7FEFF 		bl	_test_assert
 726 0464 0028     		cmp	r0, #0
 727 0466 7FF41FAE 		bne	.L2
 728              		.loc 1 165 0
 729 046a 4421     		movs	r1, #68
 730 046c 2046     		mov	r0, r4
 731 046e FFF7FEFF 		bl	chMBPostI
 732              	.LVL106:
 733              		.loc 1 166 0
 734 0472 D0F10101 		rsbs	r1, r0, #1
 735 0476 38BF     		it	cc
 736 0478 0021     		movcc	r1, #0
 737 047a 1920     		movs	r0, #25
 738              	.LVL107:
 739 047c FFF7FEFF 		bl	_test_assert
ARM GAS  /tmp/ccd0Hvab.s 			page 14


 740 0480 0546     		mov	r5, r0
 741 0482 0028     		cmp	r0, #0
 742 0484 7FF410AE 		bne	.L2
 743              		.loc 1 167 0
 744 0488 4521     		movs	r1, #69
 745 048a 2046     		mov	r0, r4
 746 048c FFF7FEFF 		bl	chMBPostI
 747 0490 0646     		mov	r6, r0
 748              	.LVL108:
 749              		.loc 1 168 0
 750 0492 FFF7FEFF 		bl	dbg_check_unlock
 751              	.LVL109:
 752              	.LBB137:
 753 0496 2B46     		mov	r3, r5
 754              	.LVL110:
 755              	@ 168 "../../ChibiOS/test/testmbox.c" 1
 756 0498 83F31188 		msr     BASEPRI, r3
 757              	@ 0 "" 2
 758              	.LVL111:
 759              		.thumb
 760              	.LBE137:
 761              		.loc 1 169 0
 762 049c D6F10101 		rsbs	r1, r6, #1
 763 04a0 38BF     		it	cc
 764 04a2 0021     		movcc	r1, #0
 765 04a4 1A20     		movs	r0, #26
 766 04a6 FFF7FEFF 		bl	_test_assert
 767              	.LVL112:
 768 04aa 0028     		cmp	r0, #0
 769 04ac 7FF4FCAD 		bne	.L2
 770              		.loc 1 170 0
 771 04b0 E268     		ldr	r2, [r4, #12]
 772 04b2 A368     		ldr	r3, [r4, #8]
 773 04b4 1B20     		movs	r0, #27
 774 04b6 D11A     		subs	r1, r2, r3
 775 04b8 D1F1000C 		rsbs	ip, r1, #0
 776 04bc 4CEB0101 		adc	r1, ip, r1
 777 04c0 FFF7FEFF 		bl	_test_assert
 778 04c4 0028     		cmp	r0, #0
 779 04c6 7FF4EFAD 		bne	.L2
 780 04ca 0525     		movs	r5, #5
 781              	.L10:
 782              	.LBB138:
 783              		.loc 1 172 0
 784 04cc 2023     		movs	r3, #32
 785              	.LVL113:
 786              	@ 172 "../../ChibiOS/test/testmbox.c" 1
 787 04ce 83F31188 		msr     BASEPRI, r3
 788              	@ 0 "" 2
 789              	.LVL114:
 790              		.thumb
 791              	.LBE138:
 792              		.loc 1 173 0
 793 04d2 414C     		ldr	r4, .L29+4
 794              		.loc 1 172 0
 795 04d4 FFF7FEFF 		bl	dbg_check_lock
 796              	.LVL115:
ARM GAS  /tmp/ccd0Hvab.s 			page 15


 797              		.loc 1 173 0
 798 04d8 01A9     		add	r1, sp, #4
 799 04da 2046     		mov	r0, r4
 800 04dc FFF7FEFF 		bl	chMBFetchI
 801 04e0 0646     		mov	r6, r0
 802              	.LVL116:
 803              		.loc 1 174 0
 804 04e2 FFF7FEFF 		bl	dbg_check_unlock
 805              	.LVL117:
 806              	.LBB139:
 807 04e6 0023     		movs	r3, #0
 808              	.LVL118:
 809              	@ 174 "../../ChibiOS/test/testmbox.c" 1
 810 04e8 83F31188 		msr     BASEPRI, r3
 811              	@ 0 "" 2
 812              	.LVL119:
 813              		.thumb
 814              	.LBE139:
 815              		.loc 1 175 0
 816 04ec F01A     		subs	r0, r6, r3
 817              	.LVL120:
 818 04ee D0F1000C 		rsbs	ip, r0, #0
 819 04f2 4CEB0001 		adc	r1, ip, r0
 820 04f6 1C20     		movs	r0, #28
 821 04f8 FFF7FEFF 		bl	_test_assert
 822 04fc 0028     		cmp	r0, #0
 823 04fe 7FF4D3AD 		bne	.L2
 824              		.loc 1 176 0
 825 0502 9DF80400 		ldrb	r0, [sp, #4]	@ zero_extendqisi2
 826 0506 FFF7FEFF 		bl	test_emit_token
 827              		.loc 1 171 0
 828 050a 013D     		subs	r5, r5, #1
 829 050c DED1     		bne	.L10
 830              		.loc 1 178 0
 831 050e 1D20     		movs	r0, #29
 832 0510 3049     		ldr	r1, .L29
 833 0512 FFF7FEFF 		bl	_test_assert_sequence
 834 0516 0028     		cmp	r0, #0
 835 0518 7FF4C6AD 		bne	.L2
 836              	.LBB140:
 837              		.loc 1 179 0
 838 051c 2023     		movs	r3, #32
 839              	.LVL121:
 840              	@ 179 "../../ChibiOS/test/testmbox.c" 1
 841 051e 83F31188 		msr     BASEPRI, r3
 842              	@ 0 "" 2
 843              	.LVL122:
 844              		.thumb
 845              	.LBE140:
 846 0522 FFF7FEFF 		bl	dbg_check_lock
 847              	.LVL123:
 848 0526 636A     		ldr	r3, [r4, #36]
 849 0528 1E20     		movs	r0, #30
 850 052a A3F10502 		sub	r2, r3, #5
 851 052e 5142     		rsbs	r1, r2, #0
 852 0530 41EB0201 		adc	r1, r1, r2
 853 0534 FFF7FEFF 		bl	_test_assert
ARM GAS  /tmp/ccd0Hvab.s 			page 16


 854 0538 0028     		cmp	r0, #0
 855 053a 40F04781 		bne	.L24
 856 053e FFF7FEFF 		bl	dbg_check_unlock
 857              	.LBB141:
 858 0542 2B46     		mov	r3, r5
 859              	.LVL124:
 860              	@ 179 "../../ChibiOS/test/testmbox.c" 1
 861 0544 83F31188 		msr     BASEPRI, r3
 862              	@ 0 "" 2
 863              	.LVL125:
 864              		.thumb
 865              	.LBE141:
 866              	.LBB142:
 867              		.loc 1 180 0
 868 0548 2023     		movs	r3, #32
 869              	.LVL126:
 870              	@ 180 "../../ChibiOS/test/testmbox.c" 1
 871 054a 83F31188 		msr     BASEPRI, r3
 872              	@ 0 "" 2
 873              	.LVL127:
 874              		.thumb
 875              	.LBE142:
 876 054e FFF7FEFF 		bl	dbg_check_lock
 877              	.LVL128:
 878 0552 A169     		ldr	r1, [r4, #24]
 879 0554 1F20     		movs	r0, #31
 880 0556 D1F10101 		rsbs	r1, r1, #1
 881 055a 38BF     		it	cc
 882 055c 0021     		movcc	r1, #0
 883 055e FFF7FEFF 		bl	_test_assert
 884 0562 0028     		cmp	r0, #0
 885 0564 40F03281 		bne	.L24
 886 0568 FFF7FEFF 		bl	dbg_check_unlock
 887              	.LBB143:
 888 056c 2B46     		mov	r3, r5
 889              	.LVL129:
 890              	@ 180 "../../ChibiOS/test/testmbox.c" 1
 891 056e 83F31188 		msr     BASEPRI, r3
 892              	@ 0 "" 2
 893              	.LVL130:
 894              		.thumb
 895              	.LBE143:
 896              		.loc 1 181 0
 897 0572 E168     		ldr	r1, [r4, #12]
 898 0574 A368     		ldr	r3, [r4, #8]
 899              	.LVL131:
 900 0576 2020     		movs	r0, #32
 901 0578 C3EB010C 		rsb	ip, r3, r1
 902 057c DCF10002 		rsbs	r2, ip, #0
 903 0580 42EB0C01 		adc	r1, r2, ip
 904 0584 FFF7FEFF 		bl	_test_assert
 905 0588 0028     		cmp	r0, #0
 906 058a 7FF48DAD 		bne	.L2
 907              	.LBB144:
 908              		.loc 1 183 0
 909 058e 2023     		movs	r3, #32
 910              	.LVL132:
ARM GAS  /tmp/ccd0Hvab.s 			page 17


 911              	@ 183 "../../ChibiOS/test/testmbox.c" 1
 912 0590 83F31188 		msr     BASEPRI, r3
 913              	@ 0 "" 2
 914              	.LVL133:
 915              		.thumb
 916              	.LBE144:
 917 0594 FFF7FEFF 		bl	dbg_check_lock
 918              	.LVL134:
 919              		.loc 1 184 0
 920 0598 4521     		movs	r1, #69
 921 059a 2046     		mov	r0, r4
 922 059c FFF7FEFF 		bl	chMBPostAheadI
 923              	.LVL135:
 924              		.loc 1 185 0
 925 05a0 D0F10101 		rsbs	r1, r0, #1
 926 05a4 38BF     		it	cc
 927 05a6 0021     		movcc	r1, #0
 928 05a8 2120     		movs	r0, #33
 929              	.LVL136:
 930 05aa FFF7FEFF 		bl	_test_assert
 931 05ae 0028     		cmp	r0, #0
 932 05b0 7FF47AAD 		bne	.L2
 933              		.loc 1 186 0
 934 05b4 4421     		movs	r1, #68
 935 05b6 2046     		mov	r0, r4
 936 05b8 FFF7FEFF 		bl	chMBPostAheadI
 937              	.LVL137:
 938              		.loc 1 187 0
 939 05bc D0F10101 		rsbs	r1, r0, #1
 940 05c0 38BF     		it	cc
 941 05c2 0021     		movcc	r1, #0
 942 05c4 2220     		movs	r0, #34
 943              	.LVL138:
 944 05c6 FFF7FEFF 		bl	_test_assert
 945 05ca 0028     		cmp	r0, #0
 946 05cc 7FF46CAD 		bne	.L2
 947 05d0 04E0     		b	.L30
 948              	.L31:
 949 05d2 00BF     		.align	2
 950              	.L29:
 951 05d4 00000000 		.word	.LC0
 952 05d8 00000000 		.word	.LANCHOR0
 953              	.L30:
 954              		.loc 1 188 0
 955 05dc 4321     		movs	r1, #67
 956 05de 2046     		mov	r0, r4
 957 05e0 FFF7FEFF 		bl	chMBPostAheadI
 958              	.LVL139:
 959              		.loc 1 189 0
 960 05e4 D0F10101 		rsbs	r1, r0, #1
 961 05e8 38BF     		it	cc
 962 05ea 0021     		movcc	r1, #0
 963 05ec 2320     		movs	r0, #35
 964              	.LVL140:
 965 05ee FFF7FEFF 		bl	_test_assert
 966 05f2 0028     		cmp	r0, #0
 967 05f4 7FF458AD 		bne	.L2
ARM GAS  /tmp/ccd0Hvab.s 			page 18


 968              		.loc 1 190 0
 969 05f8 4221     		movs	r1, #66
 970 05fa 2046     		mov	r0, r4
 971 05fc FFF7FEFF 		bl	chMBPostAheadI
 972              	.LVL141:
 973              		.loc 1 191 0
 974 0600 D0F10101 		rsbs	r1, r0, #1
 975 0604 38BF     		it	cc
 976 0606 0021     		movcc	r1, #0
 977 0608 2420     		movs	r0, #36
 978              	.LVL142:
 979 060a FFF7FEFF 		bl	_test_assert
 980 060e 0028     		cmp	r0, #0
 981 0610 7FF44AAD 		bne	.L2
 982              		.loc 1 192 0
 983 0614 734C     		ldr	r4, .L32
 984 0616 4121     		movs	r1, #65
 985 0618 2046     		mov	r0, r4
 986 061a FFF7FEFF 		bl	chMBPostAheadI
 987 061e 0546     		mov	r5, r0
 988              	.LVL143:
 989              		.loc 1 193 0
 990 0620 FFF7FEFF 		bl	dbg_check_unlock
 991              	.LVL144:
 992              	.LBB145:
 993 0624 0023     		movs	r3, #0
 994              	.LVL145:
 995              	@ 193 "../../ChibiOS/test/testmbox.c" 1
 996 0626 83F31188 		msr     BASEPRI, r3
 997              	@ 0 "" 2
 998              	.LVL146:
 999              		.thumb
 1000              	.LBE145:
 1001              		.loc 1 194 0
 1002 062a EA1A     		subs	r2, r5, r3
 1003              	.LVL147:
 1004 062c 5042     		rsbs	r0, r2, #0
 1005 062e 40EB0201 		adc	r1, r0, r2
 1006 0632 2520     		movs	r0, #37
 1007 0634 FFF7FEFF 		bl	_test_assert
 1008 0638 0028     		cmp	r0, #0
 1009 063a 7FF435AD 		bne	.L2
 1010              		.loc 1 195 0
 1011 063e A368     		ldr	r3, [r4, #8]
 1012 0640 E268     		ldr	r2, [r4, #12]
 1013 0642 2620     		movs	r0, #38
 1014 0644 D11A     		subs	r1, r2, r3
 1015 0646 4B42     		rsbs	r3, r1, #0
 1016 0648 43EB0101 		adc	r1, r3, r1
 1017 064c FFF7FEFF 		bl	_test_assert
 1018 0650 0028     		cmp	r0, #0
 1019 0652 7FF429AD 		bne	.L2
 1020 0656 0524     		movs	r4, #5
 1021              	.LVL148:
 1022              	.L13:
 1023              	.LBB146:
 1024              		.loc 1 197 0
ARM GAS  /tmp/ccd0Hvab.s 			page 19


 1025 0658 2023     		movs	r3, #32
 1026              	.LVL149:
 1027              	@ 197 "../../ChibiOS/test/testmbox.c" 1
 1028 065a 83F31188 		msr     BASEPRI, r3
 1029              	@ 0 "" 2
 1030              	.LVL150:
 1031              		.thumb
 1032              	.LBE146:
 1033              		.loc 1 198 0
 1034 065e 614D     		ldr	r5, .L32
 1035              		.loc 1 197 0
 1036 0660 FFF7FEFF 		bl	dbg_check_lock
 1037              	.LVL151:
 1038              		.loc 1 198 0
 1039 0664 01A9     		add	r1, sp, #4
 1040 0666 2846     		mov	r0, r5
 1041 0668 FFF7FEFF 		bl	chMBFetchI
 1042 066c 0646     		mov	r6, r0
 1043              	.LVL152:
 1044              		.loc 1 199 0
 1045 066e FFF7FEFF 		bl	dbg_check_unlock
 1046              	.LVL153:
 1047              	.LBB147:
 1048 0672 0023     		movs	r3, #0
 1049              	.LVL154:
 1050              	@ 199 "../../ChibiOS/test/testmbox.c" 1
 1051 0674 83F31188 		msr     BASEPRI, r3
 1052              	@ 0 "" 2
 1053              	.LVL155:
 1054              		.thumb
 1055              	.LBE147:
 1056              		.loc 1 200 0
 1057 0678 F11A     		subs	r1, r6, r3
 1058              	.LVL156:
 1059 067a 4842     		rsbs	r0, r1, #0
 1060 067c 40EB0101 		adc	r1, r0, r1
 1061 0680 2720     		movs	r0, #39
 1062 0682 FFF7FEFF 		bl	_test_assert
 1063 0686 0028     		cmp	r0, #0
 1064 0688 7FF40EAD 		bne	.L2
 1065              		.loc 1 201 0
 1066 068c 9DF80400 		ldrb	r0, [sp, #4]	@ zero_extendqisi2
 1067 0690 FFF7FEFF 		bl	test_emit_token
 1068              		.loc 1 196 0
 1069 0694 013C     		subs	r4, r4, #1
 1070 0696 DFD1     		bne	.L13
 1071              		.loc 1 203 0
 1072 0698 2820     		movs	r0, #40
 1073 069a 5349     		ldr	r1, .L32+4
 1074 069c FFF7FEFF 		bl	_test_assert_sequence
 1075 06a0 0028     		cmp	r0, #0
 1076 06a2 7FF401AD 		bne	.L2
 1077              	.LBB148:
 1078              		.loc 1 204 0
 1079 06a6 2023     		movs	r3, #32
 1080              	.LVL157:
 1081              	@ 204 "../../ChibiOS/test/testmbox.c" 1
ARM GAS  /tmp/ccd0Hvab.s 			page 20


 1082 06a8 83F31188 		msr     BASEPRI, r3
 1083              	@ 0 "" 2
 1084              	.LVL158:
 1085              		.thumb
 1086              	.LBE148:
 1087 06ac FFF7FEFF 		bl	dbg_check_lock
 1088              	.LVL159:
 1089 06b0 6B6A     		ldr	r3, [r5, #36]
 1090 06b2 2920     		movs	r0, #41
 1091 06b4 A3F1050C 		sub	ip, r3, #5
 1092 06b8 DCF10002 		rsbs	r2, ip, #0
 1093 06bc 42EB0C01 		adc	r1, r2, ip
 1094 06c0 FFF7FEFF 		bl	_test_assert
 1095 06c4 0028     		cmp	r0, #0
 1096 06c6 40F08780 		bne	.L22
 1097 06ca FFF7FEFF 		bl	dbg_check_unlock
 1098              	.LBB149:
 1099 06ce 2346     		mov	r3, r4
 1100              	.LVL160:
 1101              	@ 204 "../../ChibiOS/test/testmbox.c" 1
 1102 06d0 83F31188 		msr     BASEPRI, r3
 1103              	@ 0 "" 2
 1104              	.LVL161:
 1105              		.thumb
 1106              	.LBE149:
 1107              	.LBB150:
 1108              		.loc 1 205 0
 1109 06d4 2023     		movs	r3, #32
 1110              	.LVL162:
 1111              	@ 205 "../../ChibiOS/test/testmbox.c" 1
 1112 06d6 83F31188 		msr     BASEPRI, r3
 1113              	@ 0 "" 2
 1114              	.LVL163:
 1115              		.thumb
 1116              	.LBE150:
 1117 06da FFF7FEFF 		bl	dbg_check_lock
 1118              	.LVL164:
 1119 06de A969     		ldr	r1, [r5, #24]
 1120 06e0 2A20     		movs	r0, #42
 1121 06e2 D1F10101 		rsbs	r1, r1, #1
 1122 06e6 38BF     		it	cc
 1123 06e8 0021     		movcc	r1, #0
 1124 06ea FFF7FEFF 		bl	_test_assert
 1125 06ee 0028     		cmp	r0, #0
 1126 06f0 72D1     		bne	.L22
 1127 06f2 FFF7FEFF 		bl	dbg_check_unlock
 1128              	.LBB151:
 1129 06f6 2346     		mov	r3, r4
 1130              	.LVL165:
 1131              	@ 205 "../../ChibiOS/test/testmbox.c" 1
 1132 06f8 83F31188 		msr     BASEPRI, r3
 1133              	@ 0 "" 2
 1134              	.LVL166:
 1135              		.thumb
 1136              	.LBE151:
 1137              		.loc 1 206 0
 1138 06fc E968     		ldr	r1, [r5, #12]
ARM GAS  /tmp/ccd0Hvab.s 			page 21


 1139 06fe AA68     		ldr	r2, [r5, #8]
 1140 0700 2B20     		movs	r0, #43
 1141 0702 8B1A     		subs	r3, r1, r2
 1142              	.LVL167:
 1143 0704 5A42     		rsbs	r2, r3, #0
 1144 0706 42EB0301 		adc	r1, r2, r3
 1145 070a FFF7FEFF 		bl	_test_assert
 1146 070e 0028     		cmp	r0, #0
 1147 0710 7FF4CAAC 		bne	.L2
 1148              		.loc 1 211 0
 1149 0714 2846     		mov	r0, r5
 1150 0716 FFF7FEFF 		bl	chMBReset
 1151              	.LBB152:
 1152              		.loc 1 216 0
 1153 071a 2023     		movs	r3, #32
 1154              	.LVL168:
 1155              	@ 216 "../../ChibiOS/test/testmbox.c" 1
 1156 071c 83F31188 		msr     BASEPRI, r3
 1157              	@ 0 "" 2
 1158              	.LVL169:
 1159              		.thumb
 1160              	.LBE152:
 1161 0720 FFF7FEFF 		bl	dbg_check_lock
 1162              	.LVL170:
 1163 0724 6A6A     		ldr	r2, [r5, #36]
 1164 0726 2C20     		movs	r0, #44
 1165 0728 A2F10501 		sub	r1, r2, #5
 1166 072c 4B42     		rsbs	r3, r1, #0
 1167 072e 43EB0101 		adc	r1, r3, r1
 1168 0732 FFF7FEFF 		bl	_test_assert
 1169 0736 0028     		cmp	r0, #0
 1170 0738 4ED1     		bne	.L22
 1171 073a FFF7FEFF 		bl	dbg_check_unlock
 1172              	.LBB153:
 1173 073e 2346     		mov	r3, r4
 1174              	.LVL171:
 1175              	@ 216 "../../ChibiOS/test/testmbox.c" 1
 1176 0740 83F31188 		msr     BASEPRI, r3
 1177              	@ 0 "" 2
 1178              	.LVL172:
 1179              		.thumb
 1180              	.LBE153:
 1181              	.LBB154:
 1182              		.loc 1 217 0
 1183 0744 2023     		movs	r3, #32
 1184              	.LVL173:
 1185              	@ 217 "../../ChibiOS/test/testmbox.c" 1
 1186 0746 83F31188 		msr     BASEPRI, r3
 1187              	@ 0 "" 2
 1188              	.LVL174:
 1189              		.thumb
 1190              	.LBE154:
 1191 074a FFF7FEFF 		bl	dbg_check_lock
 1192              	.LVL175:
 1193 074e AB69     		ldr	r3, [r5, #24]
 1194 0750 2D20     		movs	r0, #45
 1195 0752 D3F10101 		rsbs	r1, r3, #1
ARM GAS  /tmp/ccd0Hvab.s 			page 22


 1196 0756 38BF     		it	cc
 1197 0758 0021     		movcc	r1, #0
 1198 075a FFF7FEFF 		bl	_test_assert
 1199 075e 0028     		cmp	r0, #0
 1200 0760 3AD1     		bne	.L22
 1201 0762 FFF7FEFF 		bl	dbg_check_unlock
 1202              	.LBB155:
 1203 0766 2346     		mov	r3, r4
 1204              	.LVL176:
 1205              	@ 217 "../../ChibiOS/test/testmbox.c" 1
 1206 0768 83F31188 		msr     BASEPRI, r3
 1207              	@ 0 "" 2
 1208              	.LVL177:
 1209              		.thumb
 1210              	.LBE155:
 1211              	.LBB156:
 1212              		.loc 1 218 0
 1213 076c 2023     		movs	r3, #32
 1214              	.LVL178:
 1215              	@ 218 "../../ChibiOS/test/testmbox.c" 1
 1216 076e 83F31188 		msr     BASEPRI, r3
 1217              	@ 0 "" 2
 1218              	.LVL179:
 1219              		.thumb
 1220              	.LBE156:
 1221 0772 FFF7FEFF 		bl	dbg_check_lock
 1222              	.LVL180:
 1223 0776 2A68     		ldr	r2, [r5, #0]
 1224 0778 AB68     		ldr	r3, [r5, #8]
 1225 077a 2E20     		movs	r0, #46
 1226 077c D11A     		subs	r1, r2, r3
 1227 077e D1F1000C 		rsbs	ip, r1, #0
 1228 0782 4CEB0101 		adc	r1, ip, r1
 1229 0786 FFF7FEFF 		bl	_test_assert
 1230 078a 28BB     		cbnz	r0, .L22
 1231 078c FFF7FEFF 		bl	dbg_check_unlock
 1232              	.LBB157:
 1233 0790 2346     		mov	r3, r4
 1234              	.LVL181:
 1235              	@ 218 "../../ChibiOS/test/testmbox.c" 1
 1236 0792 83F31188 		msr     BASEPRI, r3
 1237              	@ 0 "" 2
 1238              	.LVL182:
 1239              		.thumb
 1240              	.LBE157:
 1241              	.LBB158:
 1242              		.loc 1 219 0
 1243 0796 2023     		movs	r3, #32
 1244              	.LVL183:
 1245              	@ 219 "../../ChibiOS/test/testmbox.c" 1
 1246 0798 83F31188 		msr     BASEPRI, r3
 1247              	@ 0 "" 2
 1248              	.LVL184:
 1249              		.thumb
 1250              	.LBE158:
 1251 079c FFF7FEFF 		bl	dbg_check_lock
 1252              	.LVL185:
ARM GAS  /tmp/ccd0Hvab.s 			page 23


 1253 07a0 2B68     		ldr	r3, [r5, #0]
 1254 07a2 EA68     		ldr	r2, [r5, #12]
 1255 07a4 2F20     		movs	r0, #47
 1256 07a6 991A     		subs	r1, r3, r2
 1257 07a8 D1F1000C 		rsbs	ip, r1, #0
 1258 07ac 4CEB0101 		adc	r1, ip, r1
 1259 07b0 FFF7FEFF 		bl	_test_assert
 1260              	.LVL186:
 1261              	.L19:
 1262 07b4 FFF7FEFF 		bl	dbg_check_unlock
 1263              	.LBB159:
 1264 07b8 0023     		movs	r3, #0
 1265              	@ 219 "../../ChibiOS/test/testmbox.c" 1
 1266 07ba 83F31188 		msr     BASEPRI, r3
 1267              	@ 0 "" 2
 1268              	.LVL187:
 1269              		.thumb
 1270 07be 73E4     		b	.L2
 1271              	.LVL188:
 1272              	.L23:
 1273              	.LBE159:
 1274              		.loc 1 152 0
 1275 07c0 FFF7FEFF 		bl	dbg_check_unlock
 1276              	.LBB160:
 1277 07c4 3346     		mov	r3, r6
 1278              	@ 152 "../../ChibiOS/test/testmbox.c" 1
 1279 07c6 83F31188 		msr     BASEPRI, r3
 1280              	@ 0 "" 2
 1281              	.LVL189:
 1282              		.thumb
 1283 07ca 6DE4     		b	.L2
 1284              	.LVL190:
 1285              	.L24:
 1286              	.LBE160:
 1287              		.loc 1 180 0
 1288 07cc FFF7FEFF 		bl	dbg_check_unlock
 1289              	.LBB161:
 1290 07d0 2B46     		mov	r3, r5
 1291              	@ 180 "../../ChibiOS/test/testmbox.c" 1
 1292 07d2 83F31188 		msr     BASEPRI, r3
 1293              	@ 0 "" 2
 1294              	.LVL191:
 1295              		.thumb
 1296 07d6 67E4     		b	.L2
 1297              	.LVL192:
 1298              	.L22:
 1299              	.LBE161:
 1300              		.loc 1 218 0
 1301 07d8 FFF7FEFF 		bl	dbg_check_unlock
 1302              	.LBB162:
 1303 07dc 2346     		mov	r3, r4
 1304              	@ 218 "../../ChibiOS/test/testmbox.c" 1
 1305 07de 83F31188 		msr     BASEPRI, r3
 1306              	@ 0 "" 2
 1307              	.LVL193:
 1308              		.thumb
 1309 07e2 61E4     		b	.L2
ARM GAS  /tmp/ccd0Hvab.s 			page 24


 1310              	.L33:
 1311              		.align	2
 1312              	.L32:
 1313 07e4 00000000 		.word	.LANCHOR0
 1314 07e8 00000000 		.word	.LC0
 1315              	.LBE162:
 1316              	.LBE117:
 1317              	.LBE116:
 1318              		.cfi_endproc
 1319              	.LFE8:
 1320              		.size	mbox1_execute, .-mbox1_execute
 1321              		.global	patternmbox
 1322              		.global	testmbox1
 1323 07ec AFF30080 		.section	.data.mb1,"aw",%progbits
 1324              		.align	2
 1325              		.set	.LANCHOR0,. + 0
 1326              		.type	mb1, %object
 1327              		.size	mb1, 40
 1328              	mb1:
 1329 0000 00000000 		.word	test
 1330 0004 14000000 		.word	test+20
 1331 0008 00000000 		.word	test
 1332 000c 00000000 		.word	test
 1333 0010 10000000 		.word	mb1+16
 1334 0014 10000000 		.word	mb1+16
 1335 0018 00000000 		.word	0
 1336 001c 1C000000 		.word	mb1+28
 1337 0020 1C000000 		.word	mb1+28
 1338 0024 05000000 		.word	5
 1339              		.section	.rodata.patternmbox,"a",%progbits
 1340              		.align	2
 1341              		.type	patternmbox, %object
 1342              		.size	patternmbox, 8
 1343              	patternmbox:
 1344 0000 00000000 		.word	testmbox1
 1345 0004 00000000 		.word	0
 1346              		.section	.rodata.str1.4,"aMS",%progbits,1
 1347              		.align	2
 1348              	.LC0:
 1349 0000 41424344 		.ascii	"ABCDE\000"
 1349      4500
 1350 0006 0000     		.space	2
 1351              	.LC1:
 1352 0008 4D61696C 		.ascii	"Mailboxes, queuing and timeouts\000"
 1352      626F7865 
 1352      732C2071 
 1352      75657569 
 1352      6E672061 
 1353              		.section	.rodata.testmbox1,"a",%progbits
 1354              		.align	2
 1355              		.type	testmbox1, %object
 1356              		.size	testmbox1, 16
 1357              	testmbox1:
 1358 0000 08000000 		.word	.LC1
 1359 0004 00000000 		.word	mbox1_setup
 1360 0008 00000000 		.word	0
 1361 000c 00000000 		.word	mbox1_execute
ARM GAS  /tmp/ccd0Hvab.s 			page 25


 1362              		.text
 1363              	.Letext0:
 1364              		.file 2 "/home/tino/ChibiStudio/tools/GNU Tools ARM Embedded/4.6 2012q2/bin/../lib/gcc/arm-none-ea
 1365              		.file 3 "../../ChibiOS/os/ports/GCC/ARMCMx/chtypes.h"
 1366              		.file 4 "../../ChibiOS/os/kernel/include/chlists.h"
 1367              		.file 5 "../../ChibiOS/os/kernel/include/chthreads.h"
 1368              		.file 6 "../../ChibiOS/os/ports/GCC/ARMCMx/chcore_v7m.h"
 1369              		.file 7 "../../ChibiOS/os/kernel/include/chsem.h"
 1370              		.file 8 "../../ChibiOS/os/kernel/include/chmtx.h"
 1371              		.file 9 "../../ChibiOS/os/kernel/include/chmboxes.h"
 1372              		.file 10 "../../ChibiOS/test/test.h"
 1373              		.section	.debug_info,"",%progbits
 1374              	.Ldebug_info0:
 1375 0000 580E0000 		.4byte	0xe58
 1376 0004 0200     		.2byte	0x2
 1377 0006 00000000 		.4byte	.Ldebug_abbrev0
 1378 000a 04       		.byte	0x4
 1379 000b 01       		.uleb128 0x1
 1380 000c 9C000000 		.4byte	.LASF80
 1381 0010 01       		.byte	0x1
 1382 0011 4A030000 		.4byte	.LASF81
 1383 0015 E5000000 		.4byte	.LASF82
 1384 0019 00000000 		.4byte	0
 1385 001d 00000000 		.4byte	0
 1386 0021 00000000 		.4byte	.Ldebug_ranges0+0
 1387 0025 00000000 		.4byte	.Ldebug_line0
 1388 0029 02       		.uleb128 0x2
 1389 002a 04       		.byte	0x4
 1390 002b 05       		.byte	0x5
 1391 002c 696E7400 		.ascii	"int\000"
 1392 0030 03       		.uleb128 0x3
 1393 0031 04       		.byte	0x4
 1394 0032 07       		.byte	0x7
 1395 0033 49010000 		.4byte	.LASF0
 1396 0037 03       		.uleb128 0x3
 1397 0038 01       		.byte	0x1
 1398 0039 06       		.byte	0x6
 1399 003a 6D000000 		.4byte	.LASF1
 1400 003e 04       		.uleb128 0x4
 1401 003f 42030000 		.4byte	.LASF5
 1402 0043 02       		.byte	0x2
 1403 0044 2A       		.byte	0x2a
 1404 0045 49000000 		.4byte	0x49
 1405 0049 03       		.uleb128 0x3
 1406 004a 01       		.byte	0x1
 1407 004b 08       		.byte	0x8
 1408 004c 63020000 		.4byte	.LASF2
 1409 0050 03       		.uleb128 0x3
 1410 0051 02       		.byte	0x2
 1411 0052 05       		.byte	0x5
 1412 0053 82020000 		.4byte	.LASF3
 1413 0057 03       		.uleb128 0x3
 1414 0058 02       		.byte	0x2
 1415 0059 07       		.byte	0x7
 1416 005a 9A010000 		.4byte	.LASF4
 1417 005e 04       		.uleb128 0x4
 1418 005f 5B020000 		.4byte	.LASF6
ARM GAS  /tmp/ccd0Hvab.s 			page 26


 1419 0063 02       		.byte	0x2
 1420 0064 4F       		.byte	0x4f
 1421 0065 69000000 		.4byte	0x69
 1422 0069 03       		.uleb128 0x3
 1423 006a 04       		.byte	0x4
 1424 006b 05       		.byte	0x5
 1425 006c 93000000 		.4byte	.LASF7
 1426 0070 04       		.uleb128 0x4
 1427 0071 CF020000 		.4byte	.LASF8
 1428 0075 02       		.byte	0x2
 1429 0076 50       		.byte	0x50
 1430 0077 7B000000 		.4byte	0x7b
 1431 007b 03       		.uleb128 0x3
 1432 007c 04       		.byte	0x4
 1433 007d 07       		.byte	0x7
 1434 007e 60010000 		.4byte	.LASF9
 1435 0082 03       		.uleb128 0x3
 1436 0083 08       		.byte	0x8
 1437 0084 05       		.byte	0x5
 1438 0085 5F000000 		.4byte	.LASF10
 1439 0089 04       		.uleb128 0x4
 1440 008a 0D000000 		.4byte	.LASF11
 1441 008e 02       		.byte	0x2
 1442 008f 78       		.byte	0x78
 1443 0090 94000000 		.4byte	0x94
 1444 0094 03       		.uleb128 0x3
 1445 0095 08       		.byte	0x8
 1446 0096 07       		.byte	0x7
 1447 0097 1E000000 		.4byte	.LASF12
 1448 009b 03       		.uleb128 0x3
 1449 009c 01       		.byte	0x1
 1450 009d 02       		.byte	0x2
 1451 009e 55020000 		.4byte	.LASF13
 1452 00a2 04       		.uleb128 0x4
 1453 00a3 B3010000 		.4byte	.LASF14
 1454 00a7 03       		.byte	0x3
 1455 00a8 25       		.byte	0x25
 1456 00a9 3E000000 		.4byte	0x3e
 1457 00ad 04       		.uleb128 0x4
 1458 00ae 16010000 		.4byte	.LASF15
 1459 00b2 03       		.byte	0x3
 1460 00b3 26       		.byte	0x26
 1461 00b4 3E000000 		.4byte	0x3e
 1462 00b8 04       		.uleb128 0x4
 1463 00b9 36020000 		.4byte	.LASF16
 1464 00bd 03       		.byte	0x3
 1465 00be 27       		.byte	0x27
 1466 00bf 3E000000 		.4byte	0x3e
 1467 00c3 04       		.uleb128 0x4
 1468 00c4 89000000 		.4byte	.LASF17
 1469 00c8 03       		.byte	0x3
 1470 00c9 28       		.byte	0x28
 1471 00ca 3E000000 		.4byte	0x3e
 1472 00ce 04       		.uleb128 0x4
 1473 00cf 4D020000 		.4byte	.LASF18
 1474 00d3 03       		.byte	0x3
 1475 00d4 29       		.byte	0x29
ARM GAS  /tmp/ccd0Hvab.s 			page 27


 1476 00d5 70000000 		.4byte	0x70
 1477 00d9 04       		.uleb128 0x4
 1478 00da AD010000 		.4byte	.LASF19
 1479 00de 03       		.byte	0x3
 1480 00df 2A       		.byte	0x2a
 1481 00e0 5E000000 		.4byte	0x5e
 1482 00e4 04       		.uleb128 0x4
 1483 00e5 D3010000 		.4byte	.LASF20
 1484 00e9 03       		.byte	0x3
 1485 00ea 2C       		.byte	0x2c
 1486 00eb 70000000 		.4byte	0x70
 1487 00ef 04       		.uleb128 0x4
 1488 00f0 E4020000 		.4byte	.LASF21
 1489 00f4 03       		.byte	0x3
 1490 00f5 2E       		.byte	0x2e
 1491 00f6 70000000 		.4byte	0x70
 1492 00fa 04       		.uleb128 0x4
 1493 00fb 38010000 		.4byte	.LASF22
 1494 00ff 03       		.byte	0x3
 1495 0100 2F       		.byte	0x2f
 1496 0101 5E000000 		.4byte	0x5e
 1497 0105 04       		.uleb128 0x4
 1498 0106 B4020000 		.4byte	.LASF23
 1499 010a 04       		.byte	0x4
 1500 010b 23       		.byte	0x23
 1501 010c 10010000 		.4byte	0x110
 1502 0110 05       		.uleb128 0x5
 1503 0111 B4020000 		.4byte	.LASF23
 1504 0115 4C       		.byte	0x4c
 1505 0116 05       		.byte	0x5
 1506 0117 57       		.byte	0x57
 1507 0118 43020000 		.4byte	0x243
 1508 011c 06       		.uleb128 0x6
 1509 011d A5020000 		.4byte	.LASF24
 1510 0121 05       		.byte	0x5
 1511 0122 58       		.byte	0x58
 1512 0123 68020000 		.4byte	0x268
 1513 0127 02       		.byte	0x2
 1514 0128 23       		.byte	0x23
 1515 0129 00       		.uleb128 0
 1516 012a 06       		.uleb128 0x6
 1517 012b 3E020000 		.4byte	.LASF25
 1518 012f 05       		.byte	0x5
 1519 0130 5A       		.byte	0x5a
 1520 0131 68020000 		.4byte	0x268
 1521 0135 02       		.byte	0x2
 1522 0136 23       		.byte	0x23
 1523 0137 04       		.uleb128 0x4
 1524 0138 06       		.uleb128 0x6
 1525 0139 58000000 		.4byte	.LASF26
 1526 013d 05       		.byte	0x5
 1527 013e 5C       		.byte	0x5c
 1528 013f CE000000 		.4byte	0xce
 1529 0143 02       		.byte	0x2
 1530 0144 23       		.byte	0x23
 1531 0145 08       		.uleb128 0x8
 1532 0146 06       		.uleb128 0x6
ARM GAS  /tmp/ccd0Hvab.s 			page 28


 1533 0147 7E030000 		.4byte	.LASF27
 1534 014b 05       		.byte	0x5
 1535 014c 5D       		.byte	0x5d
 1536 014d 41030000 		.4byte	0x341
 1537 0151 02       		.byte	0x2
 1538 0152 23       		.byte	0x23
 1539 0153 0C       		.uleb128 0xc
 1540 0154 06       		.uleb128 0x6
 1541 0155 1F010000 		.4byte	.LASF28
 1542 0159 05       		.byte	0x5
 1543 015a 5F       		.byte	0x5f
 1544 015b 68020000 		.4byte	0x268
 1545 015f 02       		.byte	0x2
 1546 0160 23       		.byte	0x23
 1547 0161 10       		.uleb128 0x10
 1548 0162 06       		.uleb128 0x6
 1549 0163 03020000 		.4byte	.LASF29
 1550 0167 05       		.byte	0x5
 1551 0168 60       		.byte	0x60
 1552 0169 68020000 		.4byte	0x268
 1553 016d 02       		.byte	0x2
 1554 016e 23       		.byte	0x23
 1555 016f 14       		.uleb128 0x14
 1556 0170 06       		.uleb128 0x6
 1557 0171 6F030000 		.4byte	.LASF30
 1558 0175 05       		.byte	0x5
 1559 0176 67       		.byte	0x67
 1560 0177 88040000 		.4byte	0x488
 1561 017b 02       		.byte	0x2
 1562 017c 23       		.byte	0x23
 1563 017d 18       		.uleb128 0x18
 1564 017e 06       		.uleb128 0x6
 1565 017f 3E010000 		.4byte	.LASF31
 1566 0183 05       		.byte	0x5
 1567 0184 6D       		.byte	0x6d
 1568 0185 9A040000 		.4byte	0x49a
 1569 0189 02       		.byte	0x2
 1570 018a 23       		.byte	0x23
 1571 018b 1C       		.uleb128 0x1c
 1572 018c 06       		.uleb128 0x6
 1573 018d 8C020000 		.4byte	.LASF32
 1574 0191 05       		.byte	0x5
 1575 0192 72       		.byte	0x72
 1576 0193 AD000000 		.4byte	0xad
 1577 0197 02       		.byte	0x2
 1578 0198 23       		.byte	0x23
 1579 0199 20       		.uleb128 0x20
 1580 019a 06       		.uleb128 0x6
 1581 019b AC020000 		.4byte	.LASF33
 1582 019f 05       		.byte	0x5
 1583 01a0 76       		.byte	0x76
 1584 01a1 A2000000 		.4byte	0xa2
 1585 01a5 02       		.byte	0x2
 1586 01a6 23       		.byte	0x23
 1587 01a7 21       		.uleb128 0x21
 1588 01a8 06       		.uleb128 0x6
 1589 01a9 3B030000 		.4byte	.LASF34
ARM GAS  /tmp/ccd0Hvab.s 			page 29


 1590 01ad 05       		.byte	0x5
 1591 01ae 7B       		.byte	0x7b
 1592 01af B8000000 		.4byte	0xb8
 1593 01b3 02       		.byte	0x2
 1594 01b4 23       		.byte	0x23
 1595 01b5 22       		.uleb128 0x22
 1596 01b6 06       		.uleb128 0x6
 1597 01b7 94020000 		.4byte	.LASF35
 1598 01bb 05       		.byte	0x5
 1599 01bc 81       		.byte	0x81
 1600 01bd C3000000 		.4byte	0xc3
 1601 01c1 02       		.byte	0x2
 1602 01c2 23       		.byte	0x23
 1603 01c3 23       		.uleb128 0x23
 1604 01c4 06       		.uleb128 0x6
 1605 01c5 00030000 		.4byte	.LASF36
 1606 01c9 05       		.byte	0x5
 1607 01ca 88       		.byte	0x88
 1608 01cb 64030000 		.4byte	0x364
 1609 01cf 02       		.byte	0x2
 1610 01d0 23       		.byte	0x23
 1611 01d1 24       		.uleb128 0x24
 1612 01d2 07       		.uleb128 0x7
 1613 01d3 705F7500 		.ascii	"p_u\000"
 1614 01d7 05       		.byte	0x5
 1615 01d8 AD       		.byte	0xad
 1616 01d9 53040000 		.4byte	0x453
 1617 01dd 02       		.byte	0x2
 1618 01de 23       		.byte	0x23
 1619 01df 28       		.uleb128 0x28
 1620 01e0 06       		.uleb128 0x6
 1621 01e1 84030000 		.4byte	.LASF37
 1622 01e5 05       		.byte	0x5
 1623 01e6 B2       		.byte	0xb2
 1624 01e7 90020000 		.4byte	0x290
 1625 01eb 02       		.byte	0x2
 1626 01ec 23       		.byte	0x23
 1627 01ed 2C       		.uleb128 0x2c
 1628 01ee 06       		.uleb128 0x6
 1629 01ef 0E030000 		.4byte	.LASF38
 1630 01f3 05       		.byte	0x5
 1631 01f4 B8       		.byte	0xb8
 1632 01f5 6E020000 		.4byte	0x26e
 1633 01f9 02       		.byte	0x2
 1634 01fa 23       		.byte	0x23
 1635 01fb 30       		.uleb128 0x30
 1636 01fc 06       		.uleb128 0x6
 1637 01fd 00000000 		.4byte	.LASF39
 1638 0201 05       		.byte	0x5
 1639 0202 BC       		.byte	0xbc
 1640 0203 D9000000 		.4byte	0xd9
 1641 0207 02       		.byte	0x2
 1642 0208 23       		.byte	0x23
 1643 0209 38       		.uleb128 0x38
 1644 020a 06       		.uleb128 0x6
 1645 020b C4020000 		.4byte	.LASF40
 1646 020f 05       		.byte	0x5
ARM GAS  /tmp/ccd0Hvab.s 			page 30


 1647 0210 C2       		.byte	0xc2
 1648 0211 E4000000 		.4byte	0xe4
 1649 0215 02       		.byte	0x2
 1650 0216 23       		.byte	0x23
 1651 0217 3C       		.uleb128 0x3c
 1652 0218 06       		.uleb128 0x6
 1653 0219 78020000 		.4byte	.LASF41
 1654 021d 05       		.byte	0x5
 1655 021e C9       		.byte	0xc9
 1656 021f A0040000 		.4byte	0x4a0
 1657 0223 02       		.byte	0x2
 1658 0224 23       		.byte	0x23
 1659 0225 40       		.uleb128 0x40
 1660 0226 06       		.uleb128 0x6
 1661 0227 EE020000 		.4byte	.LASF42
 1662 022b 05       		.byte	0x5
 1663 022c CD       		.byte	0xcd
 1664 022d CE000000 		.4byte	0xce
 1665 0231 02       		.byte	0x2
 1666 0232 23       		.byte	0x23
 1667 0233 44       		.uleb128 0x44
 1668 0234 06       		.uleb128 0x6
 1669 0235 79000000 		.4byte	.LASF43
 1670 0239 05       		.byte	0x5
 1671 023a D3       		.byte	0xd3
 1672 023b A6020000 		.4byte	0x2a6
 1673 023f 02       		.byte	0x2
 1674 0240 23       		.byte	0x23
 1675 0241 48       		.uleb128 0x48
 1676 0242 00       		.byte	0
 1677 0243 08       		.uleb128 0x8
 1678 0244 08       		.byte	0x8
 1679 0245 04       		.byte	0x4
 1680 0246 5A       		.byte	0x5a
 1681 0247 68020000 		.4byte	0x268
 1682 024b 06       		.uleb128 0x6
 1683 024c A5020000 		.4byte	.LASF24
 1684 0250 04       		.byte	0x4
 1685 0251 5B       		.byte	0x5b
 1686 0252 68020000 		.4byte	0x268
 1687 0256 02       		.byte	0x2
 1688 0257 23       		.byte	0x23
 1689 0258 00       		.uleb128 0
 1690 0259 06       		.uleb128 0x6
 1691 025a 3E020000 		.4byte	.LASF25
 1692 025e 04       		.byte	0x4
 1693 025f 5D       		.byte	0x5d
 1694 0260 68020000 		.4byte	0x268
 1695 0264 02       		.byte	0x2
 1696 0265 23       		.byte	0x23
 1697 0266 04       		.uleb128 0x4
 1698 0267 00       		.byte	0
 1699 0268 09       		.uleb128 0x9
 1700 0269 04       		.byte	0x4
 1701 026a 05010000 		.4byte	0x105
 1702 026e 04       		.uleb128 0x4
 1703 026f 0B020000 		.4byte	.LASF44
ARM GAS  /tmp/ccd0Hvab.s 			page 31


 1704 0273 04       		.byte	0x4
 1705 0274 5F       		.byte	0x5f
 1706 0275 43020000 		.4byte	0x243
 1707 0279 08       		.uleb128 0x8
 1708 027a 04       		.byte	0x4
 1709 027b 04       		.byte	0x4
 1710 027c 64       		.byte	0x64
 1711 027d 90020000 		.4byte	0x290
 1712 0281 06       		.uleb128 0x6
 1713 0282 A5020000 		.4byte	.LASF24
 1714 0286 04       		.byte	0x4
 1715 0287 66       		.byte	0x66
 1716 0288 68020000 		.4byte	0x268
 1717 028c 02       		.byte	0x2
 1718 028d 23       		.byte	0x23
 1719 028e 00       		.uleb128 0
 1720 028f 00       		.byte	0
 1721 0290 04       		.uleb128 0x4
 1722 0291 C7010000 		.4byte	.LASF45
 1723 0295 04       		.byte	0x4
 1724 0296 69       		.byte	0x69
 1725 0297 79020000 		.4byte	0x279
 1726 029b 04       		.uleb128 0x4
 1727 029c 2F010000 		.4byte	.LASF46
 1728 02a0 06       		.byte	0x6
 1729 02a1 DE       		.byte	0xde
 1730 02a2 A6020000 		.4byte	0x2a6
 1731 02a6 0A       		.uleb128 0xa
 1732 02a7 04       		.byte	0x4
 1733 02a8 04       		.uleb128 0x4
 1734 02a9 EF010000 		.4byte	.LASF47
 1735 02ad 06       		.byte	0x6
 1736 02ae E4       		.byte	0xe4
 1737 02af 89000000 		.4byte	0x89
 1738 02b3 0B       		.uleb128 0xb
 1739 02b4 07030000 		.4byte	.LASF48
 1740 02b8 24       		.byte	0x24
 1741 02b9 06       		.byte	0x6
 1742 02ba 0501     		.2byte	0x105
 1743 02bc 41030000 		.4byte	0x341
 1744 02c0 0C       		.uleb128 0xc
 1745 02c1 723400   		.ascii	"r4\000"
 1746 02c4 06       		.byte	0x6
 1747 02c5 1801     		.2byte	0x118
 1748 02c7 9B020000 		.4byte	0x29b
 1749 02cb 02       		.byte	0x2
 1750 02cc 23       		.byte	0x23
 1751 02cd 00       		.uleb128 0
 1752 02ce 0C       		.uleb128 0xc
 1753 02cf 723500   		.ascii	"r5\000"
 1754 02d2 06       		.byte	0x6
 1755 02d3 1901     		.2byte	0x119
 1756 02d5 9B020000 		.4byte	0x29b
 1757 02d9 02       		.byte	0x2
 1758 02da 23       		.byte	0x23
 1759 02db 04       		.uleb128 0x4
 1760 02dc 0C       		.uleb128 0xc
ARM GAS  /tmp/ccd0Hvab.s 			page 32


 1761 02dd 723600   		.ascii	"r6\000"
 1762 02e0 06       		.byte	0x6
 1763 02e1 1A01     		.2byte	0x11a
 1764 02e3 9B020000 		.4byte	0x29b
 1765 02e7 02       		.byte	0x2
 1766 02e8 23       		.byte	0x23
 1767 02e9 08       		.uleb128 0x8
 1768 02ea 0C       		.uleb128 0xc
 1769 02eb 723700   		.ascii	"r7\000"
 1770 02ee 06       		.byte	0x6
 1771 02ef 1B01     		.2byte	0x11b
 1772 02f1 9B020000 		.4byte	0x29b
 1773 02f5 02       		.byte	0x2
 1774 02f6 23       		.byte	0x23
 1775 02f7 0C       		.uleb128 0xc
 1776 02f8 0C       		.uleb128 0xc
 1777 02f9 723800   		.ascii	"r8\000"
 1778 02fc 06       		.byte	0x6
 1779 02fd 1C01     		.2byte	0x11c
 1780 02ff 9B020000 		.4byte	0x29b
 1781 0303 02       		.byte	0x2
 1782 0304 23       		.byte	0x23
 1783 0305 10       		.uleb128 0x10
 1784 0306 0C       		.uleb128 0xc
 1785 0307 723900   		.ascii	"r9\000"
 1786 030a 06       		.byte	0x6
 1787 030b 1D01     		.2byte	0x11d
 1788 030d 9B020000 		.4byte	0x29b
 1789 0311 02       		.byte	0x2
 1790 0312 23       		.byte	0x23
 1791 0313 14       		.uleb128 0x14
 1792 0314 0C       		.uleb128 0xc
 1793 0315 72313000 		.ascii	"r10\000"
 1794 0319 06       		.byte	0x6
 1795 031a 1E01     		.2byte	0x11e
 1796 031c 9B020000 		.4byte	0x29b
 1797 0320 02       		.byte	0x2
 1798 0321 23       		.byte	0x23
 1799 0322 18       		.uleb128 0x18
 1800 0323 0C       		.uleb128 0xc
 1801 0324 72313100 		.ascii	"r11\000"
 1802 0328 06       		.byte	0x6
 1803 0329 1F01     		.2byte	0x11f
 1804 032b 9B020000 		.4byte	0x29b
 1805 032f 02       		.byte	0x2
 1806 0330 23       		.byte	0x23
 1807 0331 1C       		.uleb128 0x1c
 1808 0332 0C       		.uleb128 0xc
 1809 0333 6C7200   		.ascii	"lr\000"
 1810 0336 06       		.byte	0x6
 1811 0337 2001     		.2byte	0x120
 1812 0339 9B020000 		.4byte	0x29b
 1813 033d 02       		.byte	0x2
 1814 033e 23       		.byte	0x23
 1815 033f 20       		.uleb128 0x20
 1816 0340 00       		.byte	0
 1817 0341 0B       		.uleb128 0xb
ARM GAS  /tmp/ccd0Hvab.s 			page 33


 1818 0342 92010000 		.4byte	.LASF49
 1819 0346 04       		.byte	0x4
 1820 0347 06       		.byte	0x6
 1821 0348 2A01     		.2byte	0x12a
 1822 034a 5E030000 		.4byte	0x35e
 1823 034e 0C       		.uleb128 0xc
 1824 034f 72313300 		.ascii	"r13\000"
 1825 0353 06       		.byte	0x6
 1826 0354 2B01     		.2byte	0x12b
 1827 0356 5E030000 		.4byte	0x35e
 1828 035a 02       		.byte	0x2
 1829 035b 23       		.byte	0x23
 1830 035c 00       		.uleb128 0
 1831 035d 00       		.byte	0
 1832 035e 09       		.uleb128 0x9
 1833 035f 04       		.byte	0x4
 1834 0360 B3020000 		.4byte	0x2b3
 1835 0364 0D       		.uleb128 0xd
 1836 0365 EF000000 		.4byte	0xef
 1837 0369 05       		.uleb128 0x5
 1838 036a 19030000 		.4byte	.LASF50
 1839 036e 0C       		.byte	0xc
 1840 036f 07       		.byte	0x7
 1841 0370 25       		.byte	0x25
 1842 0371 92030000 		.4byte	0x392
 1843 0375 06       		.uleb128 0x6
 1844 0376 27010000 		.4byte	.LASF51
 1845 037a 07       		.byte	0x7
 1846 037b 26       		.byte	0x26
 1847 037c 6E020000 		.4byte	0x26e
 1848 0380 02       		.byte	0x2
 1849 0381 23       		.byte	0x23
 1850 0382 00       		.uleb128 0
 1851 0383 06       		.uleb128 0x6
 1852 0384 8C010000 		.4byte	.LASF52
 1853 0388 07       		.byte	0x7
 1854 0389 28       		.byte	0x28
 1855 038a FA000000 		.4byte	0xfa
 1856 038e 02       		.byte	0x2
 1857 038f 23       		.byte	0x23
 1858 0390 08       		.uleb128 0x8
 1859 0391 00       		.byte	0
 1860 0392 04       		.uleb128 0x4
 1861 0393 19030000 		.4byte	.LASF50
 1862 0397 07       		.byte	0x7
 1863 0398 29       		.byte	0x29
 1864 0399 69030000 		.4byte	0x369
 1865 039d 05       		.uleb128 0x5
 1866 039e DF010000 		.4byte	.LASF53
 1867 03a2 10       		.byte	0x10
 1868 03a3 08       		.byte	0x8
 1869 03a4 25       		.byte	0x25
 1870 03a5 D4030000 		.4byte	0x3d4
 1871 03a9 06       		.uleb128 0x6
 1872 03aa 81000000 		.4byte	.LASF54
 1873 03ae 08       		.byte	0x8
 1874 03af 26       		.byte	0x26
ARM GAS  /tmp/ccd0Hvab.s 			page 34


 1875 03b0 6E020000 		.4byte	0x26e
 1876 03b4 02       		.byte	0x2
 1877 03b5 23       		.byte	0x23
 1878 03b6 00       		.uleb128 0
 1879 03b7 06       		.uleb128 0x6
 1880 03b8 76030000 		.4byte	.LASF55
 1881 03bc 08       		.byte	0x8
 1882 03bd 28       		.byte	0x28
 1883 03be 68020000 		.4byte	0x268
 1884 03c2 02       		.byte	0x2
 1885 03c3 23       		.byte	0x23
 1886 03c4 08       		.uleb128 0x8
 1887 03c5 06       		.uleb128 0x6
 1888 03c6 DD020000 		.4byte	.LASF56
 1889 03ca 08       		.byte	0x8
 1890 03cb 2A       		.byte	0x2a
 1891 03cc D4030000 		.4byte	0x3d4
 1892 03d0 02       		.byte	0x2
 1893 03d1 23       		.byte	0x23
 1894 03d2 0C       		.uleb128 0xc
 1895 03d3 00       		.byte	0
 1896 03d4 09       		.uleb128 0x9
 1897 03d5 04       		.byte	0x4
 1898 03d6 9D030000 		.4byte	0x39d
 1899 03da 04       		.uleb128 0x4
 1900 03db DF010000 		.4byte	.LASF53
 1901 03df 08       		.byte	0x8
 1902 03e0 2C       		.byte	0x2c
 1903 03e1 9D030000 		.4byte	0x39d
 1904 03e5 08       		.uleb128 0x8
 1905 03e6 28       		.byte	0x28
 1906 03e7 09       		.byte	0x9
 1907 03e8 2C       		.byte	0x2c
 1908 03e9 42040000 		.4byte	0x442
 1909 03ed 06       		.uleb128 0x6
 1910 03ee 1E020000 		.4byte	.LASF57
 1911 03f2 09       		.byte	0x9
 1912 03f3 2D       		.byte	0x2d
 1913 03f4 42040000 		.4byte	0x442
 1914 03f8 02       		.byte	0x2
 1915 03f9 23       		.byte	0x23
 1916 03fa 00       		.uleb128 0
 1917 03fb 06       		.uleb128 0x6
 1918 03fc 71020000 		.4byte	.LASF58
 1919 0400 09       		.byte	0x9
 1920 0401 2F       		.byte	0x2f
 1921 0402 42040000 		.4byte	0x442
 1922 0406 02       		.byte	0x2
 1923 0407 23       		.byte	0x23
 1924 0408 04       		.uleb128 0x4
 1925 0409 06       		.uleb128 0x6
 1926 040a 4F000000 		.4byte	.LASF59
 1927 040e 09       		.byte	0x9
 1928 040f 31       		.byte	0x31
 1929 0410 42040000 		.4byte	0x442
 1930 0414 02       		.byte	0x2
 1931 0415 23       		.byte	0x23
ARM GAS  /tmp/ccd0Hvab.s 			page 35


 1932 0416 08       		.uleb128 0x8
 1933 0417 06       		.uleb128 0x6
 1934 0418 FA010000 		.4byte	.LASF60
 1935 041c 09       		.byte	0x9
 1936 041d 32       		.byte	0x32
 1937 041e 42040000 		.4byte	0x442
 1938 0422 02       		.byte	0x2
 1939 0423 23       		.byte	0x23
 1940 0424 0C       		.uleb128 0xc
 1941 0425 06       		.uleb128 0x6
 1942 0426 23030000 		.4byte	.LASF61
 1943 042a 09       		.byte	0x9
 1944 042b 33       		.byte	0x33
 1945 042c 92030000 		.4byte	0x392
 1946 0430 02       		.byte	0x2
 1947 0431 23       		.byte	0x23
 1948 0432 10       		.uleb128 0x10
 1949 0433 06       		.uleb128 0x6
 1950 0434 7B010000 		.4byte	.LASF62
 1951 0438 09       		.byte	0x9
 1952 0439 35       		.byte	0x35
 1953 043a 92030000 		.4byte	0x392
 1954 043e 02       		.byte	0x2
 1955 043f 23       		.byte	0x23
 1956 0440 1C       		.uleb128 0x1c
 1957 0441 00       		.byte	0
 1958 0442 09       		.uleb128 0x9
 1959 0443 04       		.byte	0x4
 1960 0444 D9000000 		.4byte	0xd9
 1961 0448 04       		.uleb128 0x4
 1962 0449 16000000 		.4byte	.LASF63
 1963 044d 09       		.byte	0x9
 1964 044e 37       		.byte	0x37
 1965 044f E5030000 		.4byte	0x3e5
 1966 0453 0E       		.uleb128 0xe
 1967 0454 04       		.byte	0x4
 1968 0455 05       		.byte	0x5
 1969 0456 8F       		.byte	0x8f
 1970 0457 88040000 		.4byte	0x488
 1971 045b 0F       		.uleb128 0xf
 1972 045c 06000000 		.4byte	.LASF64
 1973 0460 05       		.byte	0x5
 1974 0461 96       		.byte	0x96
 1975 0462 D9000000 		.4byte	0xd9
 1976 0466 0F       		.uleb128 0xf
 1977 0467 41000000 		.4byte	.LASF65
 1978 046b 05       		.byte	0x5
 1979 046c 9D       		.byte	0x9d
 1980 046d D9000000 		.4byte	0xd9
 1981 0471 0F       		.uleb128 0xf
 1982 0472 68030000 		.4byte	.LASF66
 1983 0476 05       		.byte	0x5
 1984 0477 A4       		.byte	0xa4
 1985 0478 A6020000 		.4byte	0x2a6
 1986 047c 0F       		.uleb128 0xf
 1987 047d 9E020000 		.4byte	.LASF67
 1988 0481 05       		.byte	0x5
ARM GAS  /tmp/ccd0Hvab.s 			page 36


 1989 0482 AB       		.byte	0xab
 1990 0483 E4000000 		.4byte	0xe4
 1991 0487 00       		.byte	0
 1992 0488 09       		.uleb128 0x9
 1993 0489 04       		.byte	0x4
 1994 048a 8E040000 		.4byte	0x48e
 1995 048e 10       		.uleb128 0x10
 1996 048f 93040000 		.4byte	0x493
 1997 0493 03       		.uleb128 0x3
 1998 0494 01       		.byte	0x1
 1999 0495 08       		.byte	0x8
 2000 0496 D8020000 		.4byte	.LASF68
 2001 049a 09       		.uleb128 0x9
 2002 049b 04       		.byte	0x4
 2003 049c A8020000 		.4byte	0x2a8
 2004 04a0 09       		.uleb128 0x9
 2005 04a1 04       		.byte	0x4
 2006 04a2 DA030000 		.4byte	0x3da
 2007 04a6 05       		.uleb128 0x5
 2008 04a7 BB020000 		.4byte	.LASF69
 2009 04ab 10       		.byte	0x10
 2010 04ac 0A       		.byte	0xa
 2011 04ad 3B       		.byte	0x3b
 2012 04ae EB040000 		.4byte	0x4eb
 2013 04b2 06       		.uleb128 0x6
 2014 04b3 87010000 		.4byte	.LASF70
 2015 04b7 0A       		.byte	0xa
 2016 04b8 3C       		.byte	0x3c
 2017 04b9 88040000 		.4byte	0x488
 2018 04bd 02       		.byte	0x2
 2019 04be 23       		.byte	0x23
 2020 04bf 00       		.uleb128 0
 2021 04c0 06       		.uleb128 0x6
 2022 04c1 18020000 		.4byte	.LASF71
 2023 04c5 0A       		.byte	0xa
 2024 04c6 3D       		.byte	0x3d
 2025 04c7 ED040000 		.4byte	0x4ed
 2026 04cb 02       		.byte	0x2
 2027 04cc 23       		.byte	0x23
 2028 04cd 04       		.uleb128 0x4
 2029 04ce 06       		.uleb128 0x6
 2030 04cf 72010000 		.4byte	.LASF72
 2031 04d3 0A       		.byte	0xa
 2032 04d4 3E       		.byte	0x3e
 2033 04d5 ED040000 		.4byte	0x4ed
 2034 04d9 02       		.byte	0x2
 2035 04da 23       		.byte	0x23
 2036 04db 08       		.uleb128 0x8
 2037 04dc 06       		.uleb128 0x6
 2038 04dd 45020000 		.4byte	.LASF73
 2039 04e1 0A       		.byte	0xa
 2040 04e2 3F       		.byte	0x3f
 2041 04e3 ED040000 		.4byte	0x4ed
 2042 04e7 02       		.byte	0x2
 2043 04e8 23       		.byte	0x23
 2044 04e9 0C       		.uleb128 0xc
 2045 04ea 00       		.byte	0
ARM GAS  /tmp/ccd0Hvab.s 			page 37


 2046 04eb 11       		.uleb128 0x11
 2047 04ec 01       		.byte	0x1
 2048 04ed 09       		.uleb128 0x9
 2049 04ee 04       		.byte	0x4
 2050 04ef EB040000 		.4byte	0x4eb
 2051 04f3 12       		.uleb128 0x12
 2052 04f4 500A     		.2byte	0xa50
 2053 04f6 0A       		.byte	0xa
 2054 04f7 44       		.byte	0x44
 2055 04f8 42050000 		.4byte	0x542
 2056 04fc 07       		.uleb128 0x7
 2057 04fd 543000   		.ascii	"T0\000"
 2058 0500 0A       		.byte	0xa
 2059 0501 45       		.byte	0x45
 2060 0502 42050000 		.4byte	0x542
 2061 0506 02       		.byte	0x2
 2062 0507 23       		.byte	0x23
 2063 0508 00       		.uleb128 0
 2064 0509 07       		.uleb128 0x7
 2065 050a 543100   		.ascii	"T1\000"
 2066 050d 0A       		.byte	0xa
 2067 050e 46       		.byte	0x46
 2068 050f 42050000 		.4byte	0x542
 2069 0513 03       		.byte	0x3
 2070 0514 23       		.byte	0x23
 2071 0515 9004     		.uleb128 0x210
 2072 0517 07       		.uleb128 0x7
 2073 0518 543200   		.ascii	"T2\000"
 2074 051b 0A       		.byte	0xa
 2075 051c 47       		.byte	0x47
 2076 051d 42050000 		.4byte	0x542
 2077 0521 03       		.byte	0x3
 2078 0522 23       		.byte	0x23
 2079 0523 A008     		.uleb128 0x420
 2080 0525 07       		.uleb128 0x7
 2081 0526 543300   		.ascii	"T3\000"
 2082 0529 0A       		.byte	0xa
 2083 052a 48       		.byte	0x48
 2084 052b 42050000 		.4byte	0x542
 2085 052f 03       		.byte	0x3
 2086 0530 23       		.byte	0x23
 2087 0531 B00C     		.uleb128 0x630
 2088 0533 07       		.uleb128 0x7
 2089 0534 543400   		.ascii	"T4\000"
 2090 0537 0A       		.byte	0xa
 2091 0538 49       		.byte	0x49
 2092 0539 42050000 		.4byte	0x542
 2093 053d 03       		.byte	0x3
 2094 053e 23       		.byte	0x23
 2095 053f C010     		.uleb128 0x840
 2096 0541 00       		.byte	0
 2097 0542 13       		.uleb128 0x13
 2098 0543 A8020000 		.4byte	0x2a8
 2099 0547 52050000 		.4byte	0x552
 2100 054b 14       		.uleb128 0x14
 2101 054c 30000000 		.4byte	0x30
 2102 0550 41       		.byte	0x41
ARM GAS  /tmp/ccd0Hvab.s 			page 38


 2103 0551 00       		.byte	0
 2104 0552 15       		.uleb128 0x15
 2105 0553 2E030000 		.4byte	.LASF83
 2106 0557 500A     		.2byte	0xa50
 2107 0559 0A       		.byte	0xa
 2108 055a 43       		.byte	0x43
 2109 055b 75050000 		.4byte	0x575
 2110 055f 16       		.uleb128 0x16
 2111 0560 776100   		.ascii	"wa\000"
 2112 0563 0A       		.byte	0xa
 2113 0564 4A       		.byte	0x4a
 2114 0565 F3040000 		.4byte	0x4f3
 2115 0569 0F       		.uleb128 0xf
 2116 056a F9020000 		.4byte	.LASF74
 2117 056e 0A       		.byte	0xa
 2118 056f 4B       		.byte	0x4b
 2119 0570 75050000 		.4byte	0x575
 2120 0574 00       		.byte	0
 2121 0575 13       		.uleb128 0x13
 2122 0576 3E000000 		.4byte	0x3e
 2123 057a 86050000 		.4byte	0x586
 2124 057e 17       		.uleb128 0x17
 2125 057f 30000000 		.4byte	0x30
 2126 0583 4F0A     		.2byte	0xa4f
 2127 0585 00       		.byte	0
 2128 0586 18       		.uleb128 0x18
 2129 0587 28020000 		.4byte	.LASF84
 2130 058b 01       		.byte	0x1
 2131 058c 4C       		.byte	0x4c
 2132 058d 01       		.byte	0x1
 2133 058e 01       		.byte	0x1
 2134 058f 67090000 		.4byte	0x967
 2135 0593 19       		.uleb128 0x19
 2136 0594 56010000 		.4byte	.LASF75
 2137 0598 01       		.byte	0x1
 2138 0599 4D       		.byte	0x4d
 2139 059a D9000000 		.4byte	0xd9
 2140 059e 19       		.uleb128 0x19
 2141 059f 5B010000 		.4byte	.LASF76
 2142 05a3 01       		.byte	0x1
 2143 05a4 4D       		.byte	0x4d
 2144 05a5 D9000000 		.4byte	0xd9
 2145 05a9 1A       		.uleb128 0x1a
 2146 05aa 6900     		.ascii	"i\000"
 2147 05ac 01       		.byte	0x1
 2148 05ad 4E       		.byte	0x4e
 2149 05ae 30000000 		.4byte	0x30
 2150 05b2 1B       		.uleb128 0x1b
 2151 05b3 C3050000 		.4byte	0x5c3
 2152 05b7 1A       		.uleb128 0x1a
 2153 05b8 746D7000 		.ascii	"tmp\000"
 2154 05bc 01       		.byte	0x1
 2155 05bd 64       		.byte	0x64
 2156 05be 70000000 		.4byte	0x70
 2157 05c2 00       		.byte	0
 2158 05c3 1B       		.uleb128 0x1b
 2159 05c4 D4050000 		.4byte	0x5d4
ARM GAS  /tmp/ccd0Hvab.s 			page 39


 2160 05c8 1A       		.uleb128 0x1a
 2161 05c9 746D7000 		.ascii	"tmp\000"
 2162 05cd 01       		.byte	0x1
 2163 05ce 66       		.byte	0x66
 2164 05cf 70000000 		.4byte	0x70
 2165 05d3 00       		.byte	0
 2166 05d4 1B       		.uleb128 0x1b
 2167 05d5 E5050000 		.4byte	0x5e5
 2168 05d9 1A       		.uleb128 0x1a
 2169 05da 746D7000 		.ascii	"tmp\000"
 2170 05de 01       		.byte	0x1
 2171 05df 6A       		.byte	0x6a
 2172 05e0 70000000 		.4byte	0x70
 2173 05e4 00       		.byte	0
 2174 05e5 1B       		.uleb128 0x1b
 2175 05e6 F6050000 		.4byte	0x5f6
 2176 05ea 1A       		.uleb128 0x1a
 2177 05eb 746D7000 		.ascii	"tmp\000"
 2178 05ef 01       		.byte	0x1
 2179 05f0 6C       		.byte	0x6c
 2180 05f1 70000000 		.4byte	0x70
 2181 05f5 00       		.byte	0
 2182 05f6 1B       		.uleb128 0x1b
 2183 05f7 07060000 		.4byte	0x607
 2184 05fb 1A       		.uleb128 0x1a
 2185 05fc 746D7000 		.ascii	"tmp\000"
 2186 0600 01       		.byte	0x1
 2187 0601 72       		.byte	0x72
 2188 0602 70000000 		.4byte	0x70
 2189 0606 00       		.byte	0
 2190 0607 1B       		.uleb128 0x1b
 2191 0608 18060000 		.4byte	0x618
 2192 060c 1A       		.uleb128 0x1a
 2193 060d 746D7000 		.ascii	"tmp\000"
 2194 0611 01       		.byte	0x1
 2195 0612 72       		.byte	0x72
 2196 0613 70000000 		.4byte	0x70
 2197 0617 00       		.byte	0
 2198 0618 1B       		.uleb128 0x1b
 2199 0619 29060000 		.4byte	0x629
 2200 061d 1A       		.uleb128 0x1a
 2201 061e 746D7000 		.ascii	"tmp\000"
 2202 0622 01       		.byte	0x1
 2203 0623 72       		.byte	0x72
 2204 0624 70000000 		.4byte	0x70
 2205 0628 00       		.byte	0
 2206 0629 1B       		.uleb128 0x1b
 2207 062a 3A060000 		.4byte	0x63a
 2208 062e 1A       		.uleb128 0x1a
 2209 062f 746D7000 		.ascii	"tmp\000"
 2210 0633 01       		.byte	0x1
 2211 0634 73       		.byte	0x73
 2212 0635 70000000 		.4byte	0x70
 2213 0639 00       		.byte	0
 2214 063a 1B       		.uleb128 0x1b
 2215 063b 4B060000 		.4byte	0x64b
 2216 063f 1A       		.uleb128 0x1a
ARM GAS  /tmp/ccd0Hvab.s 			page 40


 2217 0640 746D7000 		.ascii	"tmp\000"
 2218 0644 01       		.byte	0x1
 2219 0645 73       		.byte	0x73
 2220 0646 70000000 		.4byte	0x70
 2221 064a 00       		.byte	0
 2222 064b 1B       		.uleb128 0x1b
 2223 064c 5C060000 		.4byte	0x65c
 2224 0650 1A       		.uleb128 0x1a
 2225 0651 746D7000 		.ascii	"tmp\000"
 2226 0655 01       		.byte	0x1
 2227 0656 73       		.byte	0x73
 2228 0657 70000000 		.4byte	0x70
 2229 065b 00       		.byte	0
 2230 065c 1B       		.uleb128 0x1b
 2231 065d 6D060000 		.4byte	0x66d
 2232 0661 1A       		.uleb128 0x1a
 2233 0662 746D7000 		.ascii	"tmp\000"
 2234 0666 01       		.byte	0x1
 2235 0667 74       		.byte	0x74
 2236 0668 70000000 		.4byte	0x70
 2237 066c 00       		.byte	0
 2238 066d 1B       		.uleb128 0x1b
 2239 066e 7E060000 		.4byte	0x67e
 2240 0672 1A       		.uleb128 0x1a
 2241 0673 746D7000 		.ascii	"tmp\000"
 2242 0677 01       		.byte	0x1
 2243 0678 74       		.byte	0x74
 2244 0679 70000000 		.4byte	0x70
 2245 067d 00       		.byte	0
 2246 067e 1B       		.uleb128 0x1b
 2247 067f 8F060000 		.4byte	0x68f
 2248 0683 1A       		.uleb128 0x1a
 2249 0684 746D7000 		.ascii	"tmp\000"
 2250 0688 01       		.byte	0x1
 2251 0689 74       		.byte	0x74
 2252 068a 70000000 		.4byte	0x70
 2253 068e 00       		.byte	0
 2254 068f 1B       		.uleb128 0x1b
 2255 0690 A0060000 		.4byte	0x6a0
 2256 0694 1A       		.uleb128 0x1a
 2257 0695 746D7000 		.ascii	"tmp\000"
 2258 0699 01       		.byte	0x1
 2259 069a 8F       		.byte	0x8f
 2260 069b 70000000 		.4byte	0x70
 2261 069f 00       		.byte	0
 2262 06a0 1B       		.uleb128 0x1b
 2263 06a1 B1060000 		.4byte	0x6b1
 2264 06a5 1A       		.uleb128 0x1a
 2265 06a6 746D7000 		.ascii	"tmp\000"
 2266 06aa 01       		.byte	0x1
 2267 06ab 91       		.byte	0x91
 2268 06ac 70000000 		.4byte	0x70
 2269 06b0 00       		.byte	0
 2270 06b1 1B       		.uleb128 0x1b
 2271 06b2 C2060000 		.4byte	0x6c2
 2272 06b6 1A       		.uleb128 0x1a
 2273 06b7 746D7000 		.ascii	"tmp\000"
ARM GAS  /tmp/ccd0Hvab.s 			page 41


 2274 06bb 01       		.byte	0x1
 2275 06bc 97       		.byte	0x97
 2276 06bd 70000000 		.4byte	0x70
 2277 06c1 00       		.byte	0
 2278 06c2 1B       		.uleb128 0x1b
 2279 06c3 D3060000 		.4byte	0x6d3
 2280 06c7 1A       		.uleb128 0x1a
 2281 06c8 746D7000 		.ascii	"tmp\000"
 2282 06cc 01       		.byte	0x1
 2283 06cd 97       		.byte	0x97
 2284 06ce 70000000 		.4byte	0x70
 2285 06d2 00       		.byte	0
 2286 06d3 1B       		.uleb128 0x1b
 2287 06d4 E4060000 		.4byte	0x6e4
 2288 06d8 1A       		.uleb128 0x1a
 2289 06d9 746D7000 		.ascii	"tmp\000"
 2290 06dd 01       		.byte	0x1
 2291 06de 97       		.byte	0x97
 2292 06df 70000000 		.4byte	0x70
 2293 06e3 00       		.byte	0
 2294 06e4 1B       		.uleb128 0x1b
 2295 06e5 F5060000 		.4byte	0x6f5
 2296 06e9 1A       		.uleb128 0x1a
 2297 06ea 746D7000 		.ascii	"tmp\000"
 2298 06ee 01       		.byte	0x1
 2299 06ef 98       		.byte	0x98
 2300 06f0 70000000 		.4byte	0x70
 2301 06f4 00       		.byte	0
 2302 06f5 1B       		.uleb128 0x1b
 2303 06f6 06070000 		.4byte	0x706
 2304 06fa 1A       		.uleb128 0x1a
 2305 06fb 746D7000 		.ascii	"tmp\000"
 2306 06ff 01       		.byte	0x1
 2307 0700 98       		.byte	0x98
 2308 0701 70000000 		.4byte	0x70
 2309 0705 00       		.byte	0
 2310 0706 1B       		.uleb128 0x1b
 2311 0707 17070000 		.4byte	0x717
 2312 070b 1A       		.uleb128 0x1a
 2313 070c 746D7000 		.ascii	"tmp\000"
 2314 0710 01       		.byte	0x1
 2315 0711 98       		.byte	0x98
 2316 0712 70000000 		.4byte	0x70
 2317 0716 00       		.byte	0
 2318 0717 1B       		.uleb128 0x1b
 2319 0718 28070000 		.4byte	0x728
 2320 071c 1A       		.uleb128 0x1a
 2321 071d 746D7000 		.ascii	"tmp\000"
 2322 0721 01       		.byte	0x1
 2323 0722 99       		.byte	0x99
 2324 0723 70000000 		.4byte	0x70
 2325 0727 00       		.byte	0
 2326 0728 1B       		.uleb128 0x1b
 2327 0729 39070000 		.4byte	0x739
 2328 072d 1A       		.uleb128 0x1a
 2329 072e 746D7000 		.ascii	"tmp\000"
 2330 0732 01       		.byte	0x1
ARM GAS  /tmp/ccd0Hvab.s 			page 42


 2331 0733 99       		.byte	0x99
 2332 0734 70000000 		.4byte	0x70
 2333 0738 00       		.byte	0
 2334 0739 1B       		.uleb128 0x1b
 2335 073a 4A070000 		.4byte	0x74a
 2336 073e 1A       		.uleb128 0x1a
 2337 073f 746D7000 		.ascii	"tmp\000"
 2338 0743 01       		.byte	0x1
 2339 0744 99       		.byte	0x99
 2340 0745 70000000 		.4byte	0x70
 2341 0749 00       		.byte	0
 2342 074a 1B       		.uleb128 0x1b
 2343 074b 5B070000 		.4byte	0x75b
 2344 074f 1A       		.uleb128 0x1a
 2345 0750 746D7000 		.ascii	"tmp\000"
 2346 0754 01       		.byte	0x1
 2347 0755 9E       		.byte	0x9e
 2348 0756 70000000 		.4byte	0x70
 2349 075a 00       		.byte	0
 2350 075b 1B       		.uleb128 0x1b
 2351 075c 6C070000 		.4byte	0x76c
 2352 0760 1A       		.uleb128 0x1a
 2353 0761 746D7000 		.ascii	"tmp\000"
 2354 0765 01       		.byte	0x1
 2355 0766 A8       		.byte	0xa8
 2356 0767 70000000 		.4byte	0x70
 2357 076b 00       		.byte	0
 2358 076c 1B       		.uleb128 0x1b
 2359 076d 7D070000 		.4byte	0x77d
 2360 0771 1A       		.uleb128 0x1a
 2361 0772 746D7000 		.ascii	"tmp\000"
 2362 0776 01       		.byte	0x1
 2363 0777 AC       		.byte	0xac
 2364 0778 70000000 		.4byte	0x70
 2365 077c 00       		.byte	0
 2366 077d 1B       		.uleb128 0x1b
 2367 077e 8E070000 		.4byte	0x78e
 2368 0782 1A       		.uleb128 0x1a
 2369 0783 746D7000 		.ascii	"tmp\000"
 2370 0787 01       		.byte	0x1
 2371 0788 AE       		.byte	0xae
 2372 0789 70000000 		.4byte	0x70
 2373 078d 00       		.byte	0
 2374 078e 1B       		.uleb128 0x1b
 2375 078f 9F070000 		.4byte	0x79f
 2376 0793 1A       		.uleb128 0x1a
 2377 0794 746D7000 		.ascii	"tmp\000"
 2378 0798 01       		.byte	0x1
 2379 0799 B3       		.byte	0xb3
 2380 079a 70000000 		.4byte	0x70
 2381 079e 00       		.byte	0
 2382 079f 1B       		.uleb128 0x1b
 2383 07a0 B0070000 		.4byte	0x7b0
 2384 07a4 1A       		.uleb128 0x1a
 2385 07a5 746D7000 		.ascii	"tmp\000"
 2386 07a9 01       		.byte	0x1
 2387 07aa B3       		.byte	0xb3
ARM GAS  /tmp/ccd0Hvab.s 			page 43


 2388 07ab 70000000 		.4byte	0x70
 2389 07af 00       		.byte	0
 2390 07b0 1B       		.uleb128 0x1b
 2391 07b1 C1070000 		.4byte	0x7c1
 2392 07b5 1A       		.uleb128 0x1a
 2393 07b6 746D7000 		.ascii	"tmp\000"
 2394 07ba 01       		.byte	0x1
 2395 07bb B3       		.byte	0xb3
 2396 07bc 70000000 		.4byte	0x70
 2397 07c0 00       		.byte	0
 2398 07c1 1B       		.uleb128 0x1b
 2399 07c2 D2070000 		.4byte	0x7d2
 2400 07c6 1A       		.uleb128 0x1a
 2401 07c7 746D7000 		.ascii	"tmp\000"
 2402 07cb 01       		.byte	0x1
 2403 07cc B4       		.byte	0xb4
 2404 07cd 70000000 		.4byte	0x70
 2405 07d1 00       		.byte	0
 2406 07d2 1B       		.uleb128 0x1b
 2407 07d3 E3070000 		.4byte	0x7e3
 2408 07d7 1A       		.uleb128 0x1a
 2409 07d8 746D7000 		.ascii	"tmp\000"
 2410 07dc 01       		.byte	0x1
 2411 07dd B4       		.byte	0xb4
 2412 07de 70000000 		.4byte	0x70
 2413 07e2 00       		.byte	0
 2414 07e3 1B       		.uleb128 0x1b
 2415 07e4 F4070000 		.4byte	0x7f4
 2416 07e8 1A       		.uleb128 0x1a
 2417 07e9 746D7000 		.ascii	"tmp\000"
 2418 07ed 01       		.byte	0x1
 2419 07ee B4       		.byte	0xb4
 2420 07ef 70000000 		.4byte	0x70
 2421 07f3 00       		.byte	0
 2422 07f4 1B       		.uleb128 0x1b
 2423 07f5 05080000 		.4byte	0x805
 2424 07f9 1A       		.uleb128 0x1a
 2425 07fa 746D7000 		.ascii	"tmp\000"
 2426 07fe 01       		.byte	0x1
 2427 07ff B7       		.byte	0xb7
 2428 0800 70000000 		.4byte	0x70
 2429 0804 00       		.byte	0
 2430 0805 1B       		.uleb128 0x1b
 2431 0806 16080000 		.4byte	0x816
 2432 080a 1A       		.uleb128 0x1a
 2433 080b 746D7000 		.ascii	"tmp\000"
 2434 080f 01       		.byte	0x1
 2435 0810 C1       		.byte	0xc1
 2436 0811 70000000 		.4byte	0x70
 2437 0815 00       		.byte	0
 2438 0816 1B       		.uleb128 0x1b
 2439 0817 27080000 		.4byte	0x827
 2440 081b 1A       		.uleb128 0x1a
 2441 081c 746D7000 		.ascii	"tmp\000"
 2442 0820 01       		.byte	0x1
 2443 0821 C5       		.byte	0xc5
 2444 0822 70000000 		.4byte	0x70
ARM GAS  /tmp/ccd0Hvab.s 			page 44


 2445 0826 00       		.byte	0
 2446 0827 1B       		.uleb128 0x1b
 2447 0828 38080000 		.4byte	0x838
 2448 082c 1A       		.uleb128 0x1a
 2449 082d 746D7000 		.ascii	"tmp\000"
 2450 0831 01       		.byte	0x1
 2451 0832 C7       		.byte	0xc7
 2452 0833 70000000 		.4byte	0x70
 2453 0837 00       		.byte	0
 2454 0838 1B       		.uleb128 0x1b
 2455 0839 49080000 		.4byte	0x849
 2456 083d 1A       		.uleb128 0x1a
 2457 083e 746D7000 		.ascii	"tmp\000"
 2458 0842 01       		.byte	0x1
 2459 0843 CC       		.byte	0xcc
 2460 0844 70000000 		.4byte	0x70
 2461 0848 00       		.byte	0
 2462 0849 1B       		.uleb128 0x1b
 2463 084a 5A080000 		.4byte	0x85a
 2464 084e 1A       		.uleb128 0x1a
 2465 084f 746D7000 		.ascii	"tmp\000"
 2466 0853 01       		.byte	0x1
 2467 0854 CC       		.byte	0xcc
 2468 0855 70000000 		.4byte	0x70
 2469 0859 00       		.byte	0
 2470 085a 1B       		.uleb128 0x1b
 2471 085b 6B080000 		.4byte	0x86b
 2472 085f 1A       		.uleb128 0x1a
 2473 0860 746D7000 		.ascii	"tmp\000"
 2474 0864 01       		.byte	0x1
 2475 0865 CC       		.byte	0xcc
 2476 0866 70000000 		.4byte	0x70
 2477 086a 00       		.byte	0
 2478 086b 1B       		.uleb128 0x1b
 2479 086c 7C080000 		.4byte	0x87c
 2480 0870 1A       		.uleb128 0x1a
 2481 0871 746D7000 		.ascii	"tmp\000"
 2482 0875 01       		.byte	0x1
 2483 0876 CD       		.byte	0xcd
 2484 0877 70000000 		.4byte	0x70
 2485 087b 00       		.byte	0
 2486 087c 1B       		.uleb128 0x1b
 2487 087d 8D080000 		.4byte	0x88d
 2488 0881 1A       		.uleb128 0x1a
 2489 0882 746D7000 		.ascii	"tmp\000"
 2490 0886 01       		.byte	0x1
 2491 0887 CD       		.byte	0xcd
 2492 0888 70000000 		.4byte	0x70
 2493 088c 00       		.byte	0
 2494 088d 1B       		.uleb128 0x1b
 2495 088e 9E080000 		.4byte	0x89e
 2496 0892 1A       		.uleb128 0x1a
 2497 0893 746D7000 		.ascii	"tmp\000"
 2498 0897 01       		.byte	0x1
 2499 0898 CD       		.byte	0xcd
 2500 0899 70000000 		.4byte	0x70
 2501 089d 00       		.byte	0
ARM GAS  /tmp/ccd0Hvab.s 			page 45


 2502 089e 1B       		.uleb128 0x1b
 2503 089f AF080000 		.4byte	0x8af
 2504 08a3 1A       		.uleb128 0x1a
 2505 08a4 746D7000 		.ascii	"tmp\000"
 2506 08a8 01       		.byte	0x1
 2507 08a9 D8       		.byte	0xd8
 2508 08aa 70000000 		.4byte	0x70
 2509 08ae 00       		.byte	0
 2510 08af 1B       		.uleb128 0x1b
 2511 08b0 C0080000 		.4byte	0x8c0
 2512 08b4 1A       		.uleb128 0x1a
 2513 08b5 746D7000 		.ascii	"tmp\000"
 2514 08b9 01       		.byte	0x1
 2515 08ba D8       		.byte	0xd8
 2516 08bb 70000000 		.4byte	0x70
 2517 08bf 00       		.byte	0
 2518 08c0 1B       		.uleb128 0x1b
 2519 08c1 D1080000 		.4byte	0x8d1
 2520 08c5 1A       		.uleb128 0x1a
 2521 08c6 746D7000 		.ascii	"tmp\000"
 2522 08ca 01       		.byte	0x1
 2523 08cb D8       		.byte	0xd8
 2524 08cc 70000000 		.4byte	0x70
 2525 08d0 00       		.byte	0
 2526 08d1 1B       		.uleb128 0x1b
 2527 08d2 E2080000 		.4byte	0x8e2
 2528 08d6 1A       		.uleb128 0x1a
 2529 08d7 746D7000 		.ascii	"tmp\000"
 2530 08db 01       		.byte	0x1
 2531 08dc D9       		.byte	0xd9
 2532 08dd 70000000 		.4byte	0x70
 2533 08e1 00       		.byte	0
 2534 08e2 1B       		.uleb128 0x1b
 2535 08e3 F3080000 		.4byte	0x8f3
 2536 08e7 1A       		.uleb128 0x1a
 2537 08e8 746D7000 		.ascii	"tmp\000"
 2538 08ec 01       		.byte	0x1
 2539 08ed D9       		.byte	0xd9
 2540 08ee 70000000 		.4byte	0x70
 2541 08f2 00       		.byte	0
 2542 08f3 1B       		.uleb128 0x1b
 2543 08f4 04090000 		.4byte	0x904
 2544 08f8 1A       		.uleb128 0x1a
 2545 08f9 746D7000 		.ascii	"tmp\000"
 2546 08fd 01       		.byte	0x1
 2547 08fe D9       		.byte	0xd9
 2548 08ff 70000000 		.4byte	0x70
 2549 0903 00       		.byte	0
 2550 0904 1B       		.uleb128 0x1b
 2551 0905 15090000 		.4byte	0x915
 2552 0909 1A       		.uleb128 0x1a
 2553 090a 746D7000 		.ascii	"tmp\000"
 2554 090e 01       		.byte	0x1
 2555 090f DA       		.byte	0xda
 2556 0910 70000000 		.4byte	0x70
 2557 0914 00       		.byte	0
 2558 0915 1B       		.uleb128 0x1b
ARM GAS  /tmp/ccd0Hvab.s 			page 46


 2559 0916 26090000 		.4byte	0x926
 2560 091a 1A       		.uleb128 0x1a
 2561 091b 746D7000 		.ascii	"tmp\000"
 2562 091f 01       		.byte	0x1
 2563 0920 DA       		.byte	0xda
 2564 0921 70000000 		.4byte	0x70
 2565 0925 00       		.byte	0
 2566 0926 1B       		.uleb128 0x1b
 2567 0927 37090000 		.4byte	0x937
 2568 092b 1A       		.uleb128 0x1a
 2569 092c 746D7000 		.ascii	"tmp\000"
 2570 0930 01       		.byte	0x1
 2571 0931 DA       		.byte	0xda
 2572 0932 70000000 		.4byte	0x70
 2573 0936 00       		.byte	0
 2574 0937 1B       		.uleb128 0x1b
 2575 0938 48090000 		.4byte	0x948
 2576 093c 1A       		.uleb128 0x1a
 2577 093d 746D7000 		.ascii	"tmp\000"
 2578 0941 01       		.byte	0x1
 2579 0942 DB       		.byte	0xdb
 2580 0943 70000000 		.4byte	0x70
 2581 0947 00       		.byte	0
 2582 0948 1B       		.uleb128 0x1b
 2583 0949 59090000 		.4byte	0x959
 2584 094d 1A       		.uleb128 0x1a
 2585 094e 746D7000 		.ascii	"tmp\000"
 2586 0952 01       		.byte	0x1
 2587 0953 DB       		.byte	0xdb
 2588 0954 70000000 		.4byte	0x70
 2589 0958 00       		.byte	0
 2590 0959 1C       		.uleb128 0x1c
 2591 095a 1A       		.uleb128 0x1a
 2592 095b 746D7000 		.ascii	"tmp\000"
 2593 095f 01       		.byte	0x1
 2594 0960 DB       		.byte	0xdb
 2595 0961 70000000 		.4byte	0x70
 2596 0965 00       		.byte	0
 2597 0966 00       		.byte	0
 2598 0967 1D       		.uleb128 0x1d
 2599 0968 BB010000 		.4byte	.LASF85
 2600 096c 01       		.byte	0x1
 2601 096d 47       		.byte	0x47
 2602 096e 01       		.byte	0x1
 2603 096f 00000000 		.4byte	.LFB7
 2604 0973 16000000 		.4byte	.LFE7
 2605 0977 02       		.byte	0x2
 2606 0978 7D       		.byte	0x7d
 2607 0979 00       		.sleb128 0
 2608 097a 1E       		.uleb128 0x1e
 2609 097b 86050000 		.4byte	0x586
 2610 097f 00000000 		.4byte	.LFB8
 2611 0983 EC070000 		.4byte	.LFE8
 2612 0987 00000000 		.4byte	.LLST0
 2613 098b DF0D0000 		.4byte	0xddf
 2614 098f 1F       		.uleb128 0x1f
 2615 0990 93050000 		.4byte	0x593
ARM GAS  /tmp/ccd0Hvab.s 			page 47


 2616 0994 2C000000 		.4byte	.LLST1
 2617 0998 20       		.uleb128 0x20
 2618 0999 9E050000 		.4byte	0x59e
 2619 099d 1F       		.uleb128 0x1f
 2620 099e A9050000 		.4byte	0x5a9
 2621 09a2 6B000000 		.4byte	.LLST2
 2622 09a6 21       		.uleb128 0x21
 2623 09a7 86050000 		.4byte	0x586
 2624 09ab B0000000 		.4byte	.LBB116
 2625 09af EC070000 		.4byte	.LBE116
 2626 09b3 01       		.byte	0x1
 2627 09b4 4C       		.byte	0x4c
 2628 09b5 22       		.uleb128 0x22
 2629 09b6 B0000000 		.4byte	.LBB117
 2630 09ba EC070000 		.4byte	.LBE117
 2631 09be 1F       		.uleb128 0x1f
 2632 09bf 93050000 		.4byte	0x593
 2633 09c3 AF000000 		.4byte	.LLST3
 2634 09c7 20       		.uleb128 0x20
 2635 09c8 9E050000 		.4byte	0x59e
 2636 09cc 1F       		.uleb128 0x1f
 2637 09cd A9050000 		.4byte	0x5a9
 2638 09d1 49020000 		.4byte	.LLST4
 2639 09d5 23       		.uleb128 0x23
 2640 09d6 D0000000 		.4byte	.LBB118
 2641 09da D6000000 		.4byte	.LBE118
 2642 09de EC090000 		.4byte	0x9ec
 2643 09e2 1F       		.uleb128 0x1f
 2644 09e3 B7050000 		.4byte	0x5b7
 2645 09e7 5D020000 		.4byte	.LLST5
 2646 09eb 00       		.byte	0
 2647 09ec 23       		.uleb128 0x23
 2648 09ed E8000000 		.4byte	.LBB119
 2649 09f1 EE000000 		.4byte	.LBE119
 2650 09f5 030A0000 		.4byte	0xa03
 2651 09f9 1F       		.uleb128 0x1f
 2652 09fa C8050000 		.4byte	0x5c8
 2653 09fe 70020000 		.4byte	.LLST6
 2654 0a02 00       		.byte	0
 2655 0a03 23       		.uleb128 0x23
 2656 0a04 24010000 		.4byte	.LBB120
 2657 0a08 2A010000 		.4byte	.LBE120
 2658 0a0c 1A0A0000 		.4byte	0xa1a
 2659 0a10 1F       		.uleb128 0x1f
 2660 0a11 D9050000 		.4byte	0x5d9
 2661 0a15 83020000 		.4byte	.LLST7
 2662 0a19 00       		.byte	0
 2663 0a1a 23       		.uleb128 0x23
 2664 0a1b 3C010000 		.4byte	.LBB121
 2665 0a1f 42010000 		.4byte	.LBE121
 2666 0a23 310A0000 		.4byte	0xa31
 2667 0a27 1F       		.uleb128 0x1f
 2668 0a28 EA050000 		.4byte	0x5ea
 2669 0a2c 96020000 		.4byte	.LLST8
 2670 0a30 00       		.byte	0
 2671 0a31 23       		.uleb128 0x23
 2672 0a32 58010000 		.4byte	.LBB122
ARM GAS  /tmp/ccd0Hvab.s 			page 48


 2673 0a36 5E010000 		.4byte	.LBE122
 2674 0a3a 480A0000 		.4byte	0xa48
 2675 0a3e 1F       		.uleb128 0x1f
 2676 0a3f FB050000 		.4byte	0x5fb
 2677 0a43 A9020000 		.4byte	.LLST9
 2678 0a47 00       		.byte	0
 2679 0a48 23       		.uleb128 0x23
 2680 0a49 7E010000 		.4byte	.LBB123
 2681 0a4d 84010000 		.4byte	.LBE123
 2682 0a51 5F0A0000 		.4byte	0xa5f
 2683 0a55 1F       		.uleb128 0x1f
 2684 0a56 1D060000 		.4byte	0x61d
 2685 0a5a BC020000 		.4byte	.LLST10
 2686 0a5e 00       		.byte	0
 2687 0a5f 23       		.uleb128 0x23
 2688 0a60 84010000 		.4byte	.LBB124
 2689 0a64 8A010000 		.4byte	.LBE124
 2690 0a68 760A0000 		.4byte	0xa76
 2691 0a6c 1F       		.uleb128 0x1f
 2692 0a6d 2E060000 		.4byte	0x62e
 2693 0a71 CF020000 		.4byte	.LLST11
 2694 0a75 00       		.byte	0
 2695 0a76 23       		.uleb128 0x23
 2696 0a77 AC010000 		.4byte	.LBB125
 2697 0a7b B2010000 		.4byte	.LBE125
 2698 0a7f 8D0A0000 		.4byte	0xa8d
 2699 0a83 1F       		.uleb128 0x1f
 2700 0a84 50060000 		.4byte	0x650
 2701 0a88 E2020000 		.4byte	.LLST12
 2702 0a8c 00       		.byte	0
 2703 0a8d 23       		.uleb128 0x23
 2704 0a8e B2010000 		.4byte	.LBB126
 2705 0a92 B8010000 		.4byte	.LBE126
 2706 0a96 A40A0000 		.4byte	0xaa4
 2707 0a9a 1F       		.uleb128 0x1f
 2708 0a9b 61060000 		.4byte	0x661
 2709 0a9f F5020000 		.4byte	.LLST13
 2710 0aa3 00       		.byte	0
 2711 0aa4 23       		.uleb128 0x23
 2712 0aa5 DA010000 		.4byte	.LBB127
 2713 0aa9 E0010000 		.4byte	.LBE127
 2714 0aad BB0A0000 		.4byte	0xabb
 2715 0ab1 1F       		.uleb128 0x1f
 2716 0ab2 83060000 		.4byte	0x683
 2717 0ab6 08030000 		.4byte	.LLST14
 2718 0aba 00       		.byte	0
 2719 0abb 23       		.uleb128 0x23
 2720 0abc 4C030000 		.4byte	.LBB128
 2721 0ac0 52030000 		.4byte	.LBE128
 2722 0ac4 D20A0000 		.4byte	0xad2
 2723 0ac8 1F       		.uleb128 0x1f
 2724 0ac9 94060000 		.4byte	0x694
 2725 0acd 1B030000 		.4byte	.LLST15
 2726 0ad1 00       		.byte	0
 2727 0ad2 23       		.uleb128 0x23
 2728 0ad3 64030000 		.4byte	.LBB129
 2729 0ad7 6A030000 		.4byte	.LBE129
ARM GAS  /tmp/ccd0Hvab.s 			page 49


 2730 0adb E90A0000 		.4byte	0xae9
 2731 0adf 1F       		.uleb128 0x1f
 2732 0ae0 A5060000 		.4byte	0x6a5
 2733 0ae4 2E030000 		.4byte	.LLST16
 2734 0ae8 00       		.byte	0
 2735 0ae9 23       		.uleb128 0x23
 2736 0aea 82030000 		.4byte	.LBB130
 2737 0aee 88030000 		.4byte	.LBE130
 2738 0af2 000B0000 		.4byte	0xb00
 2739 0af6 1F       		.uleb128 0x1f
 2740 0af7 B6060000 		.4byte	0x6b6
 2741 0afb 41030000 		.4byte	.LLST17
 2742 0aff 00       		.byte	0
 2743 0b00 23       		.uleb128 0x23
 2744 0b01 AA030000 		.4byte	.LBB131
 2745 0b05 B0030000 		.4byte	.LBE131
 2746 0b09 170B0000 		.4byte	0xb17
 2747 0b0d 1F       		.uleb128 0x1f
 2748 0b0e D8060000 		.4byte	0x6d8
 2749 0b12 54030000 		.4byte	.LLST18
 2750 0b16 00       		.byte	0
 2751 0b17 23       		.uleb128 0x23
 2752 0b18 B0030000 		.4byte	.LBB132
 2753 0b1c B6030000 		.4byte	.LBE132
 2754 0b20 2E0B0000 		.4byte	0xb2e
 2755 0b24 1F       		.uleb128 0x1f
 2756 0b25 E9060000 		.4byte	0x6e9
 2757 0b29 67030000 		.4byte	.LLST19
 2758 0b2d 00       		.byte	0
 2759 0b2e 23       		.uleb128 0x23
 2760 0b2f D6030000 		.4byte	.LBB133
 2761 0b33 DC030000 		.4byte	.LBE133
 2762 0b37 450B0000 		.4byte	0xb45
 2763 0b3b 1F       		.uleb128 0x1f
 2764 0b3c 0B070000 		.4byte	0x70b
 2765 0b40 7A030000 		.4byte	.LLST20
 2766 0b44 00       		.byte	0
 2767 0b45 23       		.uleb128 0x23
 2768 0b46 DC030000 		.4byte	.LBB134
 2769 0b4a E2030000 		.4byte	.LBE134
 2770 0b4e 5C0B0000 		.4byte	0xb5c
 2771 0b52 1F       		.uleb128 0x1f
 2772 0b53 1C070000 		.4byte	0x71c
 2773 0b57 8D030000 		.4byte	.LLST21
 2774 0b5b 00       		.byte	0
 2775 0b5c 23       		.uleb128 0x23
 2776 0b5d 04040000 		.4byte	.LBB135
 2777 0b61 0A040000 		.4byte	.LBE135
 2778 0b65 730B0000 		.4byte	0xb73
 2779 0b69 1F       		.uleb128 0x1f
 2780 0b6a 3E070000 		.4byte	0x73e
 2781 0b6e A0030000 		.4byte	.LLST22
 2782 0b72 00       		.byte	0
 2783 0b73 23       		.uleb128 0x23
 2784 0b74 0A040000 		.4byte	.LBB136
 2785 0b78 10040000 		.4byte	.LBE136
 2786 0b7c 8A0B0000 		.4byte	0xb8a
ARM GAS  /tmp/ccd0Hvab.s 			page 50


 2787 0b80 1F       		.uleb128 0x1f
 2788 0b81 4F070000 		.4byte	0x74f
 2789 0b85 B3030000 		.4byte	.LLST23
 2790 0b89 00       		.byte	0
 2791 0b8a 23       		.uleb128 0x23
 2792 0b8b 96040000 		.4byte	.LBB137
 2793 0b8f 9C040000 		.4byte	.LBE137
 2794 0b93 A10B0000 		.4byte	0xba1
 2795 0b97 1F       		.uleb128 0x1f
 2796 0b98 60070000 		.4byte	0x760
 2797 0b9c C6030000 		.4byte	.LLST24
 2798 0ba0 00       		.byte	0
 2799 0ba1 23       		.uleb128 0x23
 2800 0ba2 CC040000 		.4byte	.LBB138
 2801 0ba6 D2040000 		.4byte	.LBE138
 2802 0baa B80B0000 		.4byte	0xbb8
 2803 0bae 1F       		.uleb128 0x1f
 2804 0baf 71070000 		.4byte	0x771
 2805 0bb3 D9030000 		.4byte	.LLST25
 2806 0bb7 00       		.byte	0
 2807 0bb8 23       		.uleb128 0x23
 2808 0bb9 E6040000 		.4byte	.LBB139
 2809 0bbd EC040000 		.4byte	.LBE139
 2810 0bc1 CF0B0000 		.4byte	0xbcf
 2811 0bc5 1F       		.uleb128 0x1f
 2812 0bc6 82070000 		.4byte	0x782
 2813 0bca EC030000 		.4byte	.LLST26
 2814 0bce 00       		.byte	0
 2815 0bcf 23       		.uleb128 0x23
 2816 0bd0 1C050000 		.4byte	.LBB140
 2817 0bd4 22050000 		.4byte	.LBE140
 2818 0bd8 E60B0000 		.4byte	0xbe6
 2819 0bdc 1F       		.uleb128 0x1f
 2820 0bdd 93070000 		.4byte	0x793
 2821 0be1 FF030000 		.4byte	.LLST27
 2822 0be5 00       		.byte	0
 2823 0be6 23       		.uleb128 0x23
 2824 0be7 42050000 		.4byte	.LBB141
 2825 0beb 48050000 		.4byte	.LBE141
 2826 0bef FD0B0000 		.4byte	0xbfd
 2827 0bf3 1F       		.uleb128 0x1f
 2828 0bf4 B5070000 		.4byte	0x7b5
 2829 0bf8 12040000 		.4byte	.LLST28
 2830 0bfc 00       		.byte	0
 2831 0bfd 23       		.uleb128 0x23
 2832 0bfe 48050000 		.4byte	.LBB142
 2833 0c02 4E050000 		.4byte	.LBE142
 2834 0c06 140C0000 		.4byte	0xc14
 2835 0c0a 1F       		.uleb128 0x1f
 2836 0c0b C6070000 		.4byte	0x7c6
 2837 0c0f 25040000 		.4byte	.LLST29
 2838 0c13 00       		.byte	0
 2839 0c14 23       		.uleb128 0x23
 2840 0c15 6C050000 		.4byte	.LBB143
 2841 0c19 72050000 		.4byte	.LBE143
 2842 0c1d 2B0C0000 		.4byte	0xc2b
 2843 0c21 1F       		.uleb128 0x1f
ARM GAS  /tmp/ccd0Hvab.s 			page 51


 2844 0c22 E8070000 		.4byte	0x7e8
 2845 0c26 38040000 		.4byte	.LLST30
 2846 0c2a 00       		.byte	0
 2847 0c2b 23       		.uleb128 0x23
 2848 0c2c 8E050000 		.4byte	.LBB144
 2849 0c30 94050000 		.4byte	.LBE144
 2850 0c34 420C0000 		.4byte	0xc42
 2851 0c38 1F       		.uleb128 0x1f
 2852 0c39 F9070000 		.4byte	0x7f9
 2853 0c3d 4B040000 		.4byte	.LLST31
 2854 0c41 00       		.byte	0
 2855 0c42 23       		.uleb128 0x23
 2856 0c43 24060000 		.4byte	.LBB145
 2857 0c47 2A060000 		.4byte	.LBE145
 2858 0c4b 590C0000 		.4byte	0xc59
 2859 0c4f 1F       		.uleb128 0x1f
 2860 0c50 0A080000 		.4byte	0x80a
 2861 0c54 5E040000 		.4byte	.LLST32
 2862 0c58 00       		.byte	0
 2863 0c59 23       		.uleb128 0x23
 2864 0c5a 58060000 		.4byte	.LBB146
 2865 0c5e 5E060000 		.4byte	.LBE146
 2866 0c62 700C0000 		.4byte	0xc70
 2867 0c66 1F       		.uleb128 0x1f
 2868 0c67 1B080000 		.4byte	0x81b
 2869 0c6b 71040000 		.4byte	.LLST33
 2870 0c6f 00       		.byte	0
 2871 0c70 23       		.uleb128 0x23
 2872 0c71 72060000 		.4byte	.LBB147
 2873 0c75 78060000 		.4byte	.LBE147
 2874 0c79 870C0000 		.4byte	0xc87
 2875 0c7d 1F       		.uleb128 0x1f
 2876 0c7e 2C080000 		.4byte	0x82c
 2877 0c82 84040000 		.4byte	.LLST34
 2878 0c86 00       		.byte	0
 2879 0c87 23       		.uleb128 0x23
 2880 0c88 A6060000 		.4byte	.LBB148
 2881 0c8c AC060000 		.4byte	.LBE148
 2882 0c90 9E0C0000 		.4byte	0xc9e
 2883 0c94 1F       		.uleb128 0x1f
 2884 0c95 3D080000 		.4byte	0x83d
 2885 0c99 97040000 		.4byte	.LLST35
 2886 0c9d 00       		.byte	0
 2887 0c9e 23       		.uleb128 0x23
 2888 0c9f CE060000 		.4byte	.LBB149
 2889 0ca3 D4060000 		.4byte	.LBE149
 2890 0ca7 B50C0000 		.4byte	0xcb5
 2891 0cab 1F       		.uleb128 0x1f
 2892 0cac 5F080000 		.4byte	0x85f
 2893 0cb0 AA040000 		.4byte	.LLST36
 2894 0cb4 00       		.byte	0
 2895 0cb5 23       		.uleb128 0x23
 2896 0cb6 D4060000 		.4byte	.LBB150
 2897 0cba DA060000 		.4byte	.LBE150
 2898 0cbe CC0C0000 		.4byte	0xccc
 2899 0cc2 1F       		.uleb128 0x1f
 2900 0cc3 70080000 		.4byte	0x870
ARM GAS  /tmp/ccd0Hvab.s 			page 52


 2901 0cc7 BD040000 		.4byte	.LLST37
 2902 0ccb 00       		.byte	0
 2903 0ccc 23       		.uleb128 0x23
 2904 0ccd F6060000 		.4byte	.LBB151
 2905 0cd1 FC060000 		.4byte	.LBE151
 2906 0cd5 E30C0000 		.4byte	0xce3
 2907 0cd9 1F       		.uleb128 0x1f
 2908 0cda 92080000 		.4byte	0x892
 2909 0cde D0040000 		.4byte	.LLST38
 2910 0ce2 00       		.byte	0
 2911 0ce3 23       		.uleb128 0x23
 2912 0ce4 1A070000 		.4byte	.LBB152
 2913 0ce8 20070000 		.4byte	.LBE152
 2914 0cec FA0C0000 		.4byte	0xcfa
 2915 0cf0 1F       		.uleb128 0x1f
 2916 0cf1 A3080000 		.4byte	0x8a3
 2917 0cf5 E3040000 		.4byte	.LLST39
 2918 0cf9 00       		.byte	0
 2919 0cfa 23       		.uleb128 0x23
 2920 0cfb 3E070000 		.4byte	.LBB153
 2921 0cff 44070000 		.4byte	.LBE153
 2922 0d03 110D0000 		.4byte	0xd11
 2923 0d07 1F       		.uleb128 0x1f
 2924 0d08 C5080000 		.4byte	0x8c5
 2925 0d0c F6040000 		.4byte	.LLST40
 2926 0d10 00       		.byte	0
 2927 0d11 23       		.uleb128 0x23
 2928 0d12 44070000 		.4byte	.LBB154
 2929 0d16 4A070000 		.4byte	.LBE154
 2930 0d1a 280D0000 		.4byte	0xd28
 2931 0d1e 1F       		.uleb128 0x1f
 2932 0d1f D6080000 		.4byte	0x8d6
 2933 0d23 09050000 		.4byte	.LLST41
 2934 0d27 00       		.byte	0
 2935 0d28 23       		.uleb128 0x23
 2936 0d29 66070000 		.4byte	.LBB155
 2937 0d2d 6C070000 		.4byte	.LBE155
 2938 0d31 3F0D0000 		.4byte	0xd3f
 2939 0d35 1F       		.uleb128 0x1f
 2940 0d36 F8080000 		.4byte	0x8f8
 2941 0d3a 1C050000 		.4byte	.LLST42
 2942 0d3e 00       		.byte	0
 2943 0d3f 23       		.uleb128 0x23
 2944 0d40 6C070000 		.4byte	.LBB156
 2945 0d44 72070000 		.4byte	.LBE156
 2946 0d48 560D0000 		.4byte	0xd56
 2947 0d4c 1F       		.uleb128 0x1f
 2948 0d4d 09090000 		.4byte	0x909
 2949 0d51 2F050000 		.4byte	.LLST43
 2950 0d55 00       		.byte	0
 2951 0d56 23       		.uleb128 0x23
 2952 0d57 90070000 		.4byte	.LBB157
 2953 0d5b 96070000 		.4byte	.LBE157
 2954 0d5f 6D0D0000 		.4byte	0xd6d
 2955 0d63 1F       		.uleb128 0x1f
 2956 0d64 2B090000 		.4byte	0x92b
 2957 0d68 42050000 		.4byte	.LLST44
ARM GAS  /tmp/ccd0Hvab.s 			page 53


 2958 0d6c 00       		.byte	0
 2959 0d6d 23       		.uleb128 0x23
 2960 0d6e 96070000 		.4byte	.LBB158
 2961 0d72 9C070000 		.4byte	.LBE158
 2962 0d76 840D0000 		.4byte	0xd84
 2963 0d7a 1F       		.uleb128 0x1f
 2964 0d7b 3C090000 		.4byte	0x93c
 2965 0d7f 55050000 		.4byte	.LLST45
 2966 0d83 00       		.byte	0
 2967 0d84 23       		.uleb128 0x23
 2968 0d85 B8070000 		.4byte	.LBB159
 2969 0d89 C0070000 		.4byte	.LBE159
 2970 0d8d 9B0D0000 		.4byte	0xd9b
 2971 0d91 1F       		.uleb128 0x1f
 2972 0d92 5A090000 		.4byte	0x95a
 2973 0d96 68050000 		.4byte	.LLST46
 2974 0d9a 00       		.byte	0
 2975 0d9b 23       		.uleb128 0x23
 2976 0d9c C4070000 		.4byte	.LBB160
 2977 0da0 CC070000 		.4byte	.LBE160
 2978 0da4 B20D0000 		.4byte	0xdb2
 2979 0da8 1F       		.uleb128 0x1f
 2980 0da9 FA060000 		.4byte	0x6fa
 2981 0dad 86050000 		.4byte	.LLST47
 2982 0db1 00       		.byte	0
 2983 0db2 23       		.uleb128 0x23
 2984 0db3 D0070000 		.4byte	.LBB161
 2985 0db7 D8070000 		.4byte	.LBE161
 2986 0dbb C90D0000 		.4byte	0xdc9
 2987 0dbf 1F       		.uleb128 0x1f
 2988 0dc0 D7070000 		.4byte	0x7d7
 2989 0dc4 A4050000 		.4byte	.LLST48
 2990 0dc8 00       		.byte	0
 2991 0dc9 22       		.uleb128 0x22
 2992 0dca DC070000 		.4byte	.LBB162
 2993 0dce EC070000 		.4byte	.LBE162
 2994 0dd2 1F       		.uleb128 0x1f
 2995 0dd3 1A090000 		.4byte	0x91a
 2996 0dd7 C2050000 		.4byte	.LLST49
 2997 0ddb 00       		.byte	0
 2998 0ddc 00       		.byte	0
 2999 0ddd 00       		.byte	0
 3000 0dde 00       		.byte	0
 3001 0ddf 24       		.uleb128 0x24
 3002 0de0 4A000000 		.4byte	.LASF77
 3003 0de4 0A       		.byte	0xa
 3004 0de5 A6       		.byte	0xa6
 3005 0de6 52050000 		.4byte	0x552
 3006 0dea 01       		.byte	0x1
 3007 0deb 01       		.byte	0x1
 3008 0dec 25       		.uleb128 0x25
 3009 0ded 6D623100 		.ascii	"mb1\000"
 3010 0df1 01       		.byte	0x1
 3011 0df2 3C       		.byte	0x3c
 3012 0df3 48040000 		.4byte	0x448
 3013 0df7 05       		.byte	0x5
 3014 0df8 03       		.byte	0x3
ARM GAS  /tmp/ccd0Hvab.s 			page 54


 3015 0df9 00000000 		.4byte	mb1
 3016 0dfd 24       		.uleb128 0x24
 3017 0dfe E5010000 		.4byte	.LASF78
 3018 0e02 01       		.byte	0x1
 3019 0e03 DE       		.byte	0xde
 3020 0e04 0A0E0000 		.4byte	0xe0a
 3021 0e08 01       		.byte	0x1
 3022 0e09 01       		.byte	0x1
 3023 0e0a 10       		.uleb128 0x10
 3024 0e0b A6040000 		.4byte	0x4a6
 3025 0e0f 24       		.uleb128 0x24
 3026 0e10 4A000000 		.4byte	.LASF77
 3027 0e14 0A       		.byte	0xa
 3028 0e15 A6       		.byte	0xa6
 3029 0e16 52050000 		.4byte	0x552
 3030 0e1a 01       		.byte	0x1
 3031 0e1b 01       		.byte	0x1
 3032 0e1c 26       		.uleb128 0x26
 3033 0e1d E5010000 		.4byte	.LASF78
 3034 0e21 01       		.byte	0x1
 3035 0e22 DE       		.byte	0xde
 3036 0e23 0A0E0000 		.4byte	0xe0a
 3037 0e27 01       		.byte	0x1
 3038 0e28 05       		.byte	0x5
 3039 0e29 03       		.byte	0x3
 3040 0e2a 00000000 		.4byte	testmbox1
 3041 0e2e 13       		.uleb128 0x13
 3042 0e2f 3E0E0000 		.4byte	0xe3e
 3043 0e33 3E0E0000 		.4byte	0xe3e
 3044 0e37 14       		.uleb128 0x14
 3045 0e38 30000000 		.4byte	0x30
 3046 0e3c 01       		.byte	0x1
 3047 0e3d 00       		.byte	0
 3048 0e3e 09       		.uleb128 0x9
 3049 0e3f 04       		.byte	0x4
 3050 0e40 0A0E0000 		.4byte	0xe0a
 3051 0e44 26       		.uleb128 0x26
 3052 0e45 35000000 		.4byte	.LASF79
 3053 0e49 01       		.byte	0x1
 3054 0e4a EA       		.byte	0xea
 3055 0e4b 560E0000 		.4byte	0xe56
 3056 0e4f 01       		.byte	0x1
 3057 0e50 05       		.byte	0x5
 3058 0e51 03       		.byte	0x3
 3059 0e52 00000000 		.4byte	patternmbox
 3060 0e56 10       		.uleb128 0x10
 3061 0e57 2E0E0000 		.4byte	0xe2e
 3062 0e5b 00       		.byte	0
 3063              		.section	.debug_abbrev,"",%progbits
 3064              	.Ldebug_abbrev0:
 3065 0000 01       		.uleb128 0x1
 3066 0001 11       		.uleb128 0x11
 3067 0002 01       		.byte	0x1
 3068 0003 25       		.uleb128 0x25
 3069 0004 0E       		.uleb128 0xe
 3070 0005 13       		.uleb128 0x13
 3071 0006 0B       		.uleb128 0xb
ARM GAS  /tmp/ccd0Hvab.s 			page 55


 3072 0007 03       		.uleb128 0x3
 3073 0008 0E       		.uleb128 0xe
 3074 0009 1B       		.uleb128 0x1b
 3075 000a 0E       		.uleb128 0xe
 3076 000b 11       		.uleb128 0x11
 3077 000c 01       		.uleb128 0x1
 3078 000d 52       		.uleb128 0x52
 3079 000e 01       		.uleb128 0x1
 3080 000f 55       		.uleb128 0x55
 3081 0010 06       		.uleb128 0x6
 3082 0011 10       		.uleb128 0x10
 3083 0012 06       		.uleb128 0x6
 3084 0013 00       		.byte	0
 3085 0014 00       		.byte	0
 3086 0015 02       		.uleb128 0x2
 3087 0016 24       		.uleb128 0x24
 3088 0017 00       		.byte	0
 3089 0018 0B       		.uleb128 0xb
 3090 0019 0B       		.uleb128 0xb
 3091 001a 3E       		.uleb128 0x3e
 3092 001b 0B       		.uleb128 0xb
 3093 001c 03       		.uleb128 0x3
 3094 001d 08       		.uleb128 0x8
 3095 001e 00       		.byte	0
 3096 001f 00       		.byte	0
 3097 0020 03       		.uleb128 0x3
 3098 0021 24       		.uleb128 0x24
 3099 0022 00       		.byte	0
 3100 0023 0B       		.uleb128 0xb
 3101 0024 0B       		.uleb128 0xb
 3102 0025 3E       		.uleb128 0x3e
 3103 0026 0B       		.uleb128 0xb
 3104 0027 03       		.uleb128 0x3
 3105 0028 0E       		.uleb128 0xe
 3106 0029 00       		.byte	0
 3107 002a 00       		.byte	0
 3108 002b 04       		.uleb128 0x4
 3109 002c 16       		.uleb128 0x16
 3110 002d 00       		.byte	0
 3111 002e 03       		.uleb128 0x3
 3112 002f 0E       		.uleb128 0xe
 3113 0030 3A       		.uleb128 0x3a
 3114 0031 0B       		.uleb128 0xb
 3115 0032 3B       		.uleb128 0x3b
 3116 0033 0B       		.uleb128 0xb
 3117 0034 49       		.uleb128 0x49
 3118 0035 13       		.uleb128 0x13
 3119 0036 00       		.byte	0
 3120 0037 00       		.byte	0
 3121 0038 05       		.uleb128 0x5
 3122 0039 13       		.uleb128 0x13
 3123 003a 01       		.byte	0x1
 3124 003b 03       		.uleb128 0x3
 3125 003c 0E       		.uleb128 0xe
 3126 003d 0B       		.uleb128 0xb
 3127 003e 0B       		.uleb128 0xb
 3128 003f 3A       		.uleb128 0x3a
ARM GAS  /tmp/ccd0Hvab.s 			page 56


 3129 0040 0B       		.uleb128 0xb
 3130 0041 3B       		.uleb128 0x3b
 3131 0042 0B       		.uleb128 0xb
 3132 0043 01       		.uleb128 0x1
 3133 0044 13       		.uleb128 0x13
 3134 0045 00       		.byte	0
 3135 0046 00       		.byte	0
 3136 0047 06       		.uleb128 0x6
 3137 0048 0D       		.uleb128 0xd
 3138 0049 00       		.byte	0
 3139 004a 03       		.uleb128 0x3
 3140 004b 0E       		.uleb128 0xe
 3141 004c 3A       		.uleb128 0x3a
 3142 004d 0B       		.uleb128 0xb
 3143 004e 3B       		.uleb128 0x3b
 3144 004f 0B       		.uleb128 0xb
 3145 0050 49       		.uleb128 0x49
 3146 0051 13       		.uleb128 0x13
 3147 0052 38       		.uleb128 0x38
 3148 0053 0A       		.uleb128 0xa
 3149 0054 00       		.byte	0
 3150 0055 00       		.byte	0
 3151 0056 07       		.uleb128 0x7
 3152 0057 0D       		.uleb128 0xd
 3153 0058 00       		.byte	0
 3154 0059 03       		.uleb128 0x3
 3155 005a 08       		.uleb128 0x8
 3156 005b 3A       		.uleb128 0x3a
 3157 005c 0B       		.uleb128 0xb
 3158 005d 3B       		.uleb128 0x3b
 3159 005e 0B       		.uleb128 0xb
 3160 005f 49       		.uleb128 0x49
 3161 0060 13       		.uleb128 0x13
 3162 0061 38       		.uleb128 0x38
 3163 0062 0A       		.uleb128 0xa
 3164 0063 00       		.byte	0
 3165 0064 00       		.byte	0
 3166 0065 08       		.uleb128 0x8
 3167 0066 13       		.uleb128 0x13
 3168 0067 01       		.byte	0x1
 3169 0068 0B       		.uleb128 0xb
 3170 0069 0B       		.uleb128 0xb
 3171 006a 3A       		.uleb128 0x3a
 3172 006b 0B       		.uleb128 0xb
 3173 006c 3B       		.uleb128 0x3b
 3174 006d 0B       		.uleb128 0xb
 3175 006e 01       		.uleb128 0x1
 3176 006f 13       		.uleb128 0x13
 3177 0070 00       		.byte	0
 3178 0071 00       		.byte	0
 3179 0072 09       		.uleb128 0x9
 3180 0073 0F       		.uleb128 0xf
 3181 0074 00       		.byte	0
 3182 0075 0B       		.uleb128 0xb
 3183 0076 0B       		.uleb128 0xb
 3184 0077 49       		.uleb128 0x49
 3185 0078 13       		.uleb128 0x13
ARM GAS  /tmp/ccd0Hvab.s 			page 57


 3186 0079 00       		.byte	0
 3187 007a 00       		.byte	0
 3188 007b 0A       		.uleb128 0xa
 3189 007c 0F       		.uleb128 0xf
 3190 007d 00       		.byte	0
 3191 007e 0B       		.uleb128 0xb
 3192 007f 0B       		.uleb128 0xb
 3193 0080 00       		.byte	0
 3194 0081 00       		.byte	0
 3195 0082 0B       		.uleb128 0xb
 3196 0083 13       		.uleb128 0x13
 3197 0084 01       		.byte	0x1
 3198 0085 03       		.uleb128 0x3
 3199 0086 0E       		.uleb128 0xe
 3200 0087 0B       		.uleb128 0xb
 3201 0088 0B       		.uleb128 0xb
 3202 0089 3A       		.uleb128 0x3a
 3203 008a 0B       		.uleb128 0xb
 3204 008b 3B       		.uleb128 0x3b
 3205 008c 05       		.uleb128 0x5
 3206 008d 01       		.uleb128 0x1
 3207 008e 13       		.uleb128 0x13
 3208 008f 00       		.byte	0
 3209 0090 00       		.byte	0
 3210 0091 0C       		.uleb128 0xc
 3211 0092 0D       		.uleb128 0xd
 3212 0093 00       		.byte	0
 3213 0094 03       		.uleb128 0x3
 3214 0095 08       		.uleb128 0x8
 3215 0096 3A       		.uleb128 0x3a
 3216 0097 0B       		.uleb128 0xb
 3217 0098 3B       		.uleb128 0x3b
 3218 0099 05       		.uleb128 0x5
 3219 009a 49       		.uleb128 0x49
 3220 009b 13       		.uleb128 0x13
 3221 009c 38       		.uleb128 0x38
 3222 009d 0A       		.uleb128 0xa
 3223 009e 00       		.byte	0
 3224 009f 00       		.byte	0
 3225 00a0 0D       		.uleb128 0xd
 3226 00a1 35       		.uleb128 0x35
 3227 00a2 00       		.byte	0
 3228 00a3 49       		.uleb128 0x49
 3229 00a4 13       		.uleb128 0x13
 3230 00a5 00       		.byte	0
 3231 00a6 00       		.byte	0
 3232 00a7 0E       		.uleb128 0xe
 3233 00a8 17       		.uleb128 0x17
 3234 00a9 01       		.byte	0x1
 3235 00aa 0B       		.uleb128 0xb
 3236 00ab 0B       		.uleb128 0xb
 3237 00ac 3A       		.uleb128 0x3a
 3238 00ad 0B       		.uleb128 0xb
 3239 00ae 3B       		.uleb128 0x3b
 3240 00af 0B       		.uleb128 0xb
 3241 00b0 01       		.uleb128 0x1
 3242 00b1 13       		.uleb128 0x13
ARM GAS  /tmp/ccd0Hvab.s 			page 58


 3243 00b2 00       		.byte	0
 3244 00b3 00       		.byte	0
 3245 00b4 0F       		.uleb128 0xf
 3246 00b5 0D       		.uleb128 0xd
 3247 00b6 00       		.byte	0
 3248 00b7 03       		.uleb128 0x3
 3249 00b8 0E       		.uleb128 0xe
 3250 00b9 3A       		.uleb128 0x3a
 3251 00ba 0B       		.uleb128 0xb
 3252 00bb 3B       		.uleb128 0x3b
 3253 00bc 0B       		.uleb128 0xb
 3254 00bd 49       		.uleb128 0x49
 3255 00be 13       		.uleb128 0x13
 3256 00bf 00       		.byte	0
 3257 00c0 00       		.byte	0
 3258 00c1 10       		.uleb128 0x10
 3259 00c2 26       		.uleb128 0x26
 3260 00c3 00       		.byte	0
 3261 00c4 49       		.uleb128 0x49
 3262 00c5 13       		.uleb128 0x13
 3263 00c6 00       		.byte	0
 3264 00c7 00       		.byte	0
 3265 00c8 11       		.uleb128 0x11
 3266 00c9 15       		.uleb128 0x15
 3267 00ca 00       		.byte	0
 3268 00cb 27       		.uleb128 0x27
 3269 00cc 0C       		.uleb128 0xc
 3270 00cd 00       		.byte	0
 3271 00ce 00       		.byte	0
 3272 00cf 12       		.uleb128 0x12
 3273 00d0 13       		.uleb128 0x13
 3274 00d1 01       		.byte	0x1
 3275 00d2 0B       		.uleb128 0xb
 3276 00d3 05       		.uleb128 0x5
 3277 00d4 3A       		.uleb128 0x3a
 3278 00d5 0B       		.uleb128 0xb
 3279 00d6 3B       		.uleb128 0x3b
 3280 00d7 0B       		.uleb128 0xb
 3281 00d8 01       		.uleb128 0x1
 3282 00d9 13       		.uleb128 0x13
 3283 00da 00       		.byte	0
 3284 00db 00       		.byte	0
 3285 00dc 13       		.uleb128 0x13
 3286 00dd 01       		.uleb128 0x1
 3287 00de 01       		.byte	0x1
 3288 00df 49       		.uleb128 0x49
 3289 00e0 13       		.uleb128 0x13
 3290 00e1 01       		.uleb128 0x1
 3291 00e2 13       		.uleb128 0x13
 3292 00e3 00       		.byte	0
 3293 00e4 00       		.byte	0
 3294 00e5 14       		.uleb128 0x14
 3295 00e6 21       		.uleb128 0x21
 3296 00e7 00       		.byte	0
 3297 00e8 49       		.uleb128 0x49
 3298 00e9 13       		.uleb128 0x13
 3299 00ea 2F       		.uleb128 0x2f
ARM GAS  /tmp/ccd0Hvab.s 			page 59


 3300 00eb 0B       		.uleb128 0xb
 3301 00ec 00       		.byte	0
 3302 00ed 00       		.byte	0
 3303 00ee 15       		.uleb128 0x15
 3304 00ef 17       		.uleb128 0x17
 3305 00f0 01       		.byte	0x1
 3306 00f1 03       		.uleb128 0x3
 3307 00f2 0E       		.uleb128 0xe
 3308 00f3 0B       		.uleb128 0xb
 3309 00f4 05       		.uleb128 0x5
 3310 00f5 3A       		.uleb128 0x3a
 3311 00f6 0B       		.uleb128 0xb
 3312 00f7 3B       		.uleb128 0x3b
 3313 00f8 0B       		.uleb128 0xb
 3314 00f9 01       		.uleb128 0x1
 3315 00fa 13       		.uleb128 0x13
 3316 00fb 00       		.byte	0
 3317 00fc 00       		.byte	0
 3318 00fd 16       		.uleb128 0x16
 3319 00fe 0D       		.uleb128 0xd
 3320 00ff 00       		.byte	0
 3321 0100 03       		.uleb128 0x3
 3322 0101 08       		.uleb128 0x8
 3323 0102 3A       		.uleb128 0x3a
 3324 0103 0B       		.uleb128 0xb
 3325 0104 3B       		.uleb128 0x3b
 3326 0105 0B       		.uleb128 0xb
 3327 0106 49       		.uleb128 0x49
 3328 0107 13       		.uleb128 0x13
 3329 0108 00       		.byte	0
 3330 0109 00       		.byte	0
 3331 010a 17       		.uleb128 0x17
 3332 010b 21       		.uleb128 0x21
 3333 010c 00       		.byte	0
 3334 010d 49       		.uleb128 0x49
 3335 010e 13       		.uleb128 0x13
 3336 010f 2F       		.uleb128 0x2f
 3337 0110 05       		.uleb128 0x5
 3338 0111 00       		.byte	0
 3339 0112 00       		.byte	0
 3340 0113 18       		.uleb128 0x18
 3341 0114 2E       		.uleb128 0x2e
 3342 0115 01       		.byte	0x1
 3343 0116 03       		.uleb128 0x3
 3344 0117 0E       		.uleb128 0xe
 3345 0118 3A       		.uleb128 0x3a
 3346 0119 0B       		.uleb128 0xb
 3347 011a 3B       		.uleb128 0x3b
 3348 011b 0B       		.uleb128 0xb
 3349 011c 27       		.uleb128 0x27
 3350 011d 0C       		.uleb128 0xc
 3351 011e 20       		.uleb128 0x20
 3352 011f 0B       		.uleb128 0xb
 3353 0120 01       		.uleb128 0x1
 3354 0121 13       		.uleb128 0x13
 3355 0122 00       		.byte	0
 3356 0123 00       		.byte	0
ARM GAS  /tmp/ccd0Hvab.s 			page 60


 3357 0124 19       		.uleb128 0x19
 3358 0125 34       		.uleb128 0x34
 3359 0126 00       		.byte	0
 3360 0127 03       		.uleb128 0x3
 3361 0128 0E       		.uleb128 0xe
 3362 0129 3A       		.uleb128 0x3a
 3363 012a 0B       		.uleb128 0xb
 3364 012b 3B       		.uleb128 0x3b
 3365 012c 0B       		.uleb128 0xb
 3366 012d 49       		.uleb128 0x49
 3367 012e 13       		.uleb128 0x13
 3368 012f 00       		.byte	0
 3369 0130 00       		.byte	0
 3370 0131 1A       		.uleb128 0x1a
 3371 0132 34       		.uleb128 0x34
 3372 0133 00       		.byte	0
 3373 0134 03       		.uleb128 0x3
 3374 0135 08       		.uleb128 0x8
 3375 0136 3A       		.uleb128 0x3a
 3376 0137 0B       		.uleb128 0xb
 3377 0138 3B       		.uleb128 0x3b
 3378 0139 0B       		.uleb128 0xb
 3379 013a 49       		.uleb128 0x49
 3380 013b 13       		.uleb128 0x13
 3381 013c 00       		.byte	0
 3382 013d 00       		.byte	0
 3383 013e 1B       		.uleb128 0x1b
 3384 013f 0B       		.uleb128 0xb
 3385 0140 01       		.byte	0x1
 3386 0141 01       		.uleb128 0x1
 3387 0142 13       		.uleb128 0x13
 3388 0143 00       		.byte	0
 3389 0144 00       		.byte	0
 3390 0145 1C       		.uleb128 0x1c
 3391 0146 0B       		.uleb128 0xb
 3392 0147 01       		.byte	0x1
 3393 0148 00       		.byte	0
 3394 0149 00       		.byte	0
 3395 014a 1D       		.uleb128 0x1d
 3396 014b 2E       		.uleb128 0x2e
 3397 014c 00       		.byte	0
 3398 014d 03       		.uleb128 0x3
 3399 014e 0E       		.uleb128 0xe
 3400 014f 3A       		.uleb128 0x3a
 3401 0150 0B       		.uleb128 0xb
 3402 0151 3B       		.uleb128 0x3b
 3403 0152 0B       		.uleb128 0xb
 3404 0153 27       		.uleb128 0x27
 3405 0154 0C       		.uleb128 0xc
 3406 0155 11       		.uleb128 0x11
 3407 0156 01       		.uleb128 0x1
 3408 0157 12       		.uleb128 0x12
 3409 0158 01       		.uleb128 0x1
 3410 0159 40       		.uleb128 0x40
 3411 015a 0A       		.uleb128 0xa
 3412 015b 00       		.byte	0
 3413 015c 00       		.byte	0
ARM GAS  /tmp/ccd0Hvab.s 			page 61


 3414 015d 1E       		.uleb128 0x1e
 3415 015e 2E       		.uleb128 0x2e
 3416 015f 01       		.byte	0x1
 3417 0160 31       		.uleb128 0x31
 3418 0161 13       		.uleb128 0x13
 3419 0162 11       		.uleb128 0x11
 3420 0163 01       		.uleb128 0x1
 3421 0164 12       		.uleb128 0x12
 3422 0165 01       		.uleb128 0x1
 3423 0166 40       		.uleb128 0x40
 3424 0167 06       		.uleb128 0x6
 3425 0168 01       		.uleb128 0x1
 3426 0169 13       		.uleb128 0x13
 3427 016a 00       		.byte	0
 3428 016b 00       		.byte	0
 3429 016c 1F       		.uleb128 0x1f
 3430 016d 34       		.uleb128 0x34
 3431 016e 00       		.byte	0
 3432 016f 31       		.uleb128 0x31
 3433 0170 13       		.uleb128 0x13
 3434 0171 02       		.uleb128 0x2
 3435 0172 06       		.uleb128 0x6
 3436 0173 00       		.byte	0
 3437 0174 00       		.byte	0
 3438 0175 20       		.uleb128 0x20
 3439 0176 34       		.uleb128 0x34
 3440 0177 00       		.byte	0
 3441 0178 31       		.uleb128 0x31
 3442 0179 13       		.uleb128 0x13
 3443 017a 00       		.byte	0
 3444 017b 00       		.byte	0
 3445 017c 21       		.uleb128 0x21
 3446 017d 1D       		.uleb128 0x1d
 3447 017e 01       		.byte	0x1
 3448 017f 31       		.uleb128 0x31
 3449 0180 13       		.uleb128 0x13
 3450 0181 11       		.uleb128 0x11
 3451 0182 01       		.uleb128 0x1
 3452 0183 12       		.uleb128 0x12
 3453 0184 01       		.uleb128 0x1
 3454 0185 58       		.uleb128 0x58
 3455 0186 0B       		.uleb128 0xb
 3456 0187 59       		.uleb128 0x59
 3457 0188 0B       		.uleb128 0xb
 3458 0189 00       		.byte	0
 3459 018a 00       		.byte	0
 3460 018b 22       		.uleb128 0x22
 3461 018c 0B       		.uleb128 0xb
 3462 018d 01       		.byte	0x1
 3463 018e 11       		.uleb128 0x11
 3464 018f 01       		.uleb128 0x1
 3465 0190 12       		.uleb128 0x12
 3466 0191 01       		.uleb128 0x1
 3467 0192 00       		.byte	0
 3468 0193 00       		.byte	0
 3469 0194 23       		.uleb128 0x23
 3470 0195 0B       		.uleb128 0xb
ARM GAS  /tmp/ccd0Hvab.s 			page 62


 3471 0196 01       		.byte	0x1
 3472 0197 11       		.uleb128 0x11
 3473 0198 01       		.uleb128 0x1
 3474 0199 12       		.uleb128 0x12
 3475 019a 01       		.uleb128 0x1
 3476 019b 01       		.uleb128 0x1
 3477 019c 13       		.uleb128 0x13
 3478 019d 00       		.byte	0
 3479 019e 00       		.byte	0
 3480 019f 24       		.uleb128 0x24
 3481 01a0 34       		.uleb128 0x34
 3482 01a1 00       		.byte	0
 3483 01a2 03       		.uleb128 0x3
 3484 01a3 0E       		.uleb128 0xe
 3485 01a4 3A       		.uleb128 0x3a
 3486 01a5 0B       		.uleb128 0xb
 3487 01a6 3B       		.uleb128 0x3b
 3488 01a7 0B       		.uleb128 0xb
 3489 01a8 49       		.uleb128 0x49
 3490 01a9 13       		.uleb128 0x13
 3491 01aa 3F       		.uleb128 0x3f
 3492 01ab 0C       		.uleb128 0xc
 3493 01ac 3C       		.uleb128 0x3c
 3494 01ad 0C       		.uleb128 0xc
 3495 01ae 00       		.byte	0
 3496 01af 00       		.byte	0
 3497 01b0 25       		.uleb128 0x25
 3498 01b1 34       		.uleb128 0x34
 3499 01b2 00       		.byte	0
 3500 01b3 03       		.uleb128 0x3
 3501 01b4 08       		.uleb128 0x8
 3502 01b5 3A       		.uleb128 0x3a
 3503 01b6 0B       		.uleb128 0xb
 3504 01b7 3B       		.uleb128 0x3b
 3505 01b8 0B       		.uleb128 0xb
 3506 01b9 49       		.uleb128 0x49
 3507 01ba 13       		.uleb128 0x13
 3508 01bb 02       		.uleb128 0x2
 3509 01bc 0A       		.uleb128 0xa
 3510 01bd 00       		.byte	0
 3511 01be 00       		.byte	0
 3512 01bf 26       		.uleb128 0x26
 3513 01c0 34       		.uleb128 0x34
 3514 01c1 00       		.byte	0
 3515 01c2 03       		.uleb128 0x3
 3516 01c3 0E       		.uleb128 0xe
 3517 01c4 3A       		.uleb128 0x3a
 3518 01c5 0B       		.uleb128 0xb
 3519 01c6 3B       		.uleb128 0x3b
 3520 01c7 0B       		.uleb128 0xb
 3521 01c8 49       		.uleb128 0x49
 3522 01c9 13       		.uleb128 0x13
 3523 01ca 3F       		.uleb128 0x3f
 3524 01cb 0C       		.uleb128 0xc
 3525 01cc 02       		.uleb128 0x2
 3526 01cd 0A       		.uleb128 0xa
 3527 01ce 00       		.byte	0
ARM GAS  /tmp/ccd0Hvab.s 			page 63


 3528 01cf 00       		.byte	0
 3529 01d0 00       		.byte	0
 3530              		.section	.debug_loc,"",%progbits
 3531              	.Ldebug_loc0:
 3532              	.LLST0:
 3533 0000 00000000 		.4byte	.LFB8
 3534 0004 02000000 		.4byte	.LCFI0
 3535 0008 0200     		.2byte	0x2
 3536 000a 7D       		.byte	0x7d
 3537 000b 00       		.sleb128 0
 3538 000c 02000000 		.4byte	.LCFI0
 3539 0010 0A000000 		.4byte	.LCFI1
 3540 0014 0200     		.2byte	0x2
 3541 0016 7D       		.byte	0x7d
 3542 0017 10       		.sleb128 16
 3543 0018 0A000000 		.4byte	.LCFI1
 3544 001c EC070000 		.4byte	.LFE8
 3545 0020 0200     		.2byte	0x2
 3546 0022 7D       		.byte	0x7d
 3547 0023 18       		.sleb128 24
 3548 0024 00000000 		.4byte	0
 3549 0028 00000000 		.4byte	0
 3550              	.LLST1:
 3551 002c 28000000 		.4byte	.LVL0
 3552 0030 32000000 		.4byte	.LVL1
 3553 0034 0100     		.2byte	0x1
 3554 0036 50       		.byte	0x50
 3555 0037 44000000 		.4byte	.LVL3
 3556 003b 4E000000 		.4byte	.LVL4
 3557 003f 0100     		.2byte	0x1
 3558 0041 50       		.byte	0x50
 3559 0042 60000000 		.4byte	.LVL6
 3560 0046 6A000000 		.4byte	.LVL7
 3561 004a 0100     		.2byte	0x1
 3562 004c 50       		.byte	0x50
 3563 004d 7C000000 		.4byte	.LVL9
 3564 0051 86000000 		.4byte	.LVL10
 3565 0055 0100     		.2byte	0x1
 3566 0057 50       		.byte	0x50
 3567 0058 98000000 		.4byte	.LVL12
 3568 005c A2000000 		.4byte	.LVL13
 3569 0060 0100     		.2byte	0x1
 3570 0062 50       		.byte	0x50
 3571 0063 00000000 		.4byte	0
 3572 0067 00000000 		.4byte	0
 3573              	.LLST2:
 3574 006b 38000000 		.4byte	.LVL2
 3575 006f 54000000 		.4byte	.LVL5
 3576 0073 0200     		.2byte	0x2
 3577 0075 31       		.byte	0x31
 3578 0076 9F       		.byte	0x9f
 3579 0077 54000000 		.4byte	.LVL5
 3580 007b 70000000 		.4byte	.LVL8
 3581 007f 0200     		.2byte	0x2
 3582 0081 32       		.byte	0x32
 3583 0082 9F       		.byte	0x9f
 3584 0083 70000000 		.4byte	.LVL8
ARM GAS  /tmp/ccd0Hvab.s 			page 64


 3585 0087 8C000000 		.4byte	.LVL11
 3586 008b 0200     		.2byte	0x2
 3587 008d 33       		.byte	0x33
 3588 008e 9F       		.byte	0x9f
 3589 008f 8C000000 		.4byte	.LVL11
 3590 0093 A8000000 		.4byte	.LVL14
 3591 0097 0200     		.2byte	0x2
 3592 0099 34       		.byte	0x34
 3593 009a 9F       		.byte	0x9f
 3594 009b B0000000 		.4byte	.LVL15
 3595 009f EC070000 		.4byte	.LFE8
 3596 00a3 0200     		.2byte	0x2
 3597 00a5 34       		.byte	0x34
 3598 00a6 9F       		.byte	0x9f
 3599 00a7 00000000 		.4byte	0
 3600 00ab 00000000 		.4byte	0
 3601              	.LLST3:
 3602 00af BA000000 		.4byte	.LVL16
 3603 00b3 C0000000 		.4byte	.LVL17
 3604 00b7 0100     		.2byte	0x1
 3605 00b9 50       		.byte	0x50
 3606 00ba C0000000 		.4byte	.LVL17
 3607 00be CC000000 		.4byte	.LVL18
 3608 00c2 0300     		.2byte	0x3
 3609 00c4 75       		.byte	0x75
 3610 00c5 7F       		.sleb128 -1
 3611 00c6 9F       		.byte	0x9f
 3612 00c7 E4000000 		.4byte	.LVL22
 3613 00cb E7000000 		.4byte	.LVL23-1
 3614 00cf 0100     		.2byte	0x1
 3615 00d1 50       		.byte	0x50
 3616 00d2 E7000000 		.4byte	.LVL23-1
 3617 00d6 0E010000 		.4byte	.LVL27
 3618 00da 0100     		.2byte	0x1
 3619 00dc 56       		.byte	0x56
 3620 00dd 0E010000 		.4byte	.LVL27
 3621 00e1 1A010000 		.4byte	.LVL28
 3622 00e5 0100     		.2byte	0x1
 3623 00e7 50       		.byte	0x50
 3624 00e8 1A010000 		.4byte	.LVL28
 3625 00ec 1D010000 		.4byte	.LVL29-1
 3626 00f0 0300     		.2byte	0x3
 3627 00f2 72       		.byte	0x72
 3628 00f3 7F       		.sleb128 -1
 3629 00f4 9F       		.byte	0x9f
 3630 00f5 38010000 		.4byte	.LVL33
 3631 00f9 3B010000 		.4byte	.LVL34-1
 3632 00fd 0100     		.2byte	0x1
 3633 00ff 50       		.byte	0x50
 3634 0100 3B010000 		.4byte	.LVL34-1
 3635 0104 64010000 		.4byte	.LVL41
 3636 0108 0100     		.2byte	0x1
 3637 010a 56       		.byte	0x56
 3638 010b EC010000 		.4byte	.LVL54
 3639 010f F6010000 		.4byte	.LVL55
 3640 0113 0100     		.2byte	0x1
 3641 0115 50       		.byte	0x50
ARM GAS  /tmp/ccd0Hvab.s 			page 65


 3642 0116 14020000 		.4byte	.LVL58
 3643 011a 1E020000 		.4byte	.LVL59
 3644 011e 0100     		.2byte	0x1
 3645 0120 50       		.byte	0x50
 3646 0121 3C020000 		.4byte	.LVL60
 3647 0125 46020000 		.4byte	.LVL61
 3648 0129 0100     		.2byte	0x1
 3649 012b 50       		.byte	0x50
 3650 012c 64020000 		.4byte	.LVL62
 3651 0130 6E020000 		.4byte	.LVL63
 3652 0134 0100     		.2byte	0x1
 3653 0136 50       		.byte	0x50
 3654 0137 8C020000 		.4byte	.LVL64
 3655 013b 96020000 		.4byte	.LVL65
 3656 013f 0100     		.2byte	0x1
 3657 0141 50       		.byte	0x50
 3658 0142 C2020000 		.4byte	.LVL66
 3659 0146 CC020000 		.4byte	.LVL67
 3660 014a 0100     		.2byte	0x1
 3661 014c 50       		.byte	0x50
 3662 014d E4020000 		.4byte	.LVL68
 3663 0151 EE020000 		.4byte	.LVL69
 3664 0155 0100     		.2byte	0x1
 3665 0157 50       		.byte	0x50
 3666 0158 32030000 		.4byte	.LVL70
 3667 015c 40030000 		.4byte	.LVL71
 3668 0160 0100     		.2byte	0x1
 3669 0162 50       		.byte	0x50
 3670 0163 40030000 		.4byte	.LVL71
 3671 0167 43030000 		.4byte	.LVL72-1
 3672 016b 0300     		.2byte	0x3
 3673 016d 7C       		.byte	0x7c
 3674 016e 7F       		.sleb128 -1
 3675 016f 9F       		.byte	0x9f
 3676 0170 60030000 		.4byte	.LVL76
 3677 0174 63030000 		.4byte	.LVL77-1
 3678 0178 0100     		.2byte	0x1
 3679 017a 50       		.byte	0x50
 3680 017b 63030000 		.4byte	.LVL77-1
 3681 017f 96030000 		.4byte	.LVL84
 3682 0183 0100     		.2byte	0x1
 3683 0185 56       		.byte	0x56
 3684 0186 1C040000 		.4byte	.LVL100
 3685 018a 26040000 		.4byte	.LVL101
 3686 018e 0100     		.2byte	0x1
 3687 0190 50       		.byte	0x50
 3688 0191 38040000 		.4byte	.LVL102
 3689 0195 42040000 		.4byte	.LVL103
 3690 0199 0100     		.2byte	0x1
 3691 019b 50       		.byte	0x50
 3692 019c 56040000 		.4byte	.LVL104
 3693 01a0 60040000 		.4byte	.LVL105
 3694 01a4 0100     		.2byte	0x1
 3695 01a6 50       		.byte	0x50
 3696 01a7 72040000 		.4byte	.LVL106
 3697 01ab 7C040000 		.4byte	.LVL107
 3698 01af 0100     		.2byte	0x1
ARM GAS  /tmp/ccd0Hvab.s 			page 66


 3699 01b1 50       		.byte	0x50
 3700 01b2 92040000 		.4byte	.LVL108
 3701 01b6 95040000 		.4byte	.LVL109-1
 3702 01ba 0100     		.2byte	0x1
 3703 01bc 50       		.byte	0x50
 3704 01bd 95040000 		.4byte	.LVL109-1
 3705 01c1 E2040000 		.4byte	.LVL116
 3706 01c5 0100     		.2byte	0x1
 3707 01c7 56       		.byte	0x56
 3708 01c8 E2040000 		.4byte	.LVL116
 3709 01cc E5040000 		.4byte	.LVL117-1
 3710 01d0 0100     		.2byte	0x1
 3711 01d2 50       		.byte	0x50
 3712 01d3 E5040000 		.4byte	.LVL117-1
 3713 01d7 A0050000 		.4byte	.LVL135
 3714 01db 0100     		.2byte	0x1
 3715 01dd 56       		.byte	0x56
 3716 01de A0050000 		.4byte	.LVL135
 3717 01e2 AA050000 		.4byte	.LVL136
 3718 01e6 0100     		.2byte	0x1
 3719 01e8 50       		.byte	0x50
 3720 01e9 BC050000 		.4byte	.LVL137
 3721 01ed C6050000 		.4byte	.LVL138
 3722 01f1 0100     		.2byte	0x1
 3723 01f3 50       		.byte	0x50
 3724 01f4 E4050000 		.4byte	.LVL139
 3725 01f8 EE050000 		.4byte	.LVL140
 3726 01fc 0100     		.2byte	0x1
 3727 01fe 50       		.byte	0x50
 3728 01ff 00060000 		.4byte	.LVL141
 3729 0203 0A060000 		.4byte	.LVL142
 3730 0207 0100     		.2byte	0x1
 3731 0209 50       		.byte	0x50
 3732 020a 20060000 		.4byte	.LVL143
 3733 020e 23060000 		.4byte	.LVL144-1
 3734 0212 0100     		.2byte	0x1
 3735 0214 50       		.byte	0x50
 3736 0215 23060000 		.4byte	.LVL144-1
 3737 0219 58060000 		.4byte	.LVL148
 3738 021d 0100     		.2byte	0x1
 3739 021f 55       		.byte	0x55
 3740 0220 6E060000 		.4byte	.LVL152
 3741 0224 71060000 		.4byte	.LVL153-1
 3742 0228 0100     		.2byte	0x1
 3743 022a 50       		.byte	0x50
 3744 022b 71060000 		.4byte	.LVL153-1
 3745 022f B4070000 		.4byte	.LVL186
 3746 0233 0100     		.2byte	0x1
 3747 0235 56       		.byte	0x56
 3748 0236 D8070000 		.4byte	.LVL192
 3749 023a EC070000 		.4byte	.LFE8
 3750 023e 0100     		.2byte	0x1
 3751 0240 56       		.byte	0x56
 3752 0241 00000000 		.4byte	0
 3753 0245 00000000 		.4byte	0
 3754              	.LLST4:
 3755 0249 E0010000 		.4byte	.LVL53
ARM GAS  /tmp/ccd0Hvab.s 			page 67


 3756 024d 08020000 		.4byte	.LVL57
 3757 0251 0200     		.2byte	0x2
 3758 0253 30       		.byte	0x30
 3759 0254 9F       		.byte	0x9f
 3760 0255 00000000 		.4byte	0
 3761 0259 00000000 		.4byte	0
 3762              	.LLST5:
 3763 025d D6000000 		.4byte	.LVL20
 3764 0261 D9000000 		.4byte	.LVL21-1
 3765 0265 0100     		.2byte	0x1
 3766 0267 53       		.byte	0x53
 3767 0268 00000000 		.4byte	0
 3768 026c 00000000 		.4byte	0
 3769              	.LLST6:
 3770 0270 EE000000 		.4byte	.LVL25
 3771 0274 FF000000 		.4byte	.LVL26-1
 3772 0278 0100     		.2byte	0x1
 3773 027a 53       		.byte	0x53
 3774 027b 00000000 		.4byte	0
 3775 027f 00000000 		.4byte	0
 3776              	.LLST7:
 3777 0283 2A010000 		.4byte	.LVL31
 3778 0287 2D010000 		.4byte	.LVL32-1
 3779 028b 0100     		.2byte	0x1
 3780 028d 53       		.byte	0x53
 3781 028e 00000000 		.4byte	0
 3782 0292 00000000 		.4byte	0
 3783              	.LLST8:
 3784 0296 42010000 		.4byte	.LVL36
 3785 029a 53010000 		.4byte	.LVL37-1
 3786 029e 0100     		.2byte	0x1
 3787 02a0 53       		.byte	0x53
 3788 02a1 00000000 		.4byte	0
 3789 02a5 00000000 		.4byte	0
 3790              	.LLST9:
 3791 02a9 5E010000 		.4byte	.LVL39
 3792 02ad 61010000 		.4byte	.LVL40-1
 3793 02b1 0100     		.2byte	0x1
 3794 02b3 53       		.byte	0x53
 3795 02b4 00000000 		.4byte	0
 3796 02b8 00000000 		.4byte	0
 3797              	.LLST10:
 3798 02bc 84010000 		.4byte	.LVL43
 3799 02c0 86010000 		.4byte	.LVL44
 3800 02c4 0100     		.2byte	0x1
 3801 02c6 53       		.byte	0x53
 3802 02c7 00000000 		.4byte	0
 3803 02cb 00000000 		.4byte	0
 3804              	.LLST11:
 3805 02cf 8A010000 		.4byte	.LVL45
 3806 02d3 8D010000 		.4byte	.LVL46-1
 3807 02d7 0100     		.2byte	0x1
 3808 02d9 53       		.byte	0x53
 3809 02da 00000000 		.4byte	0
 3810 02de 00000000 		.4byte	0
 3811              	.LLST12:
 3812 02e2 B2010000 		.4byte	.LVL48
ARM GAS  /tmp/ccd0Hvab.s 			page 68


 3813 02e6 B4010000 		.4byte	.LVL49
 3814 02ea 0100     		.2byte	0x1
 3815 02ec 53       		.byte	0x53
 3816 02ed 00000000 		.4byte	0
 3817 02f1 00000000 		.4byte	0
 3818              	.LLST13:
 3819 02f5 B8010000 		.4byte	.LVL50
 3820 02f9 BB010000 		.4byte	.LVL51-1
 3821 02fd 0100     		.2byte	0x1
 3822 02ff 53       		.byte	0x53
 3823 0300 00000000 		.4byte	0
 3824 0304 00000000 		.4byte	0
 3825              	.LLST14:
 3826 0308 E0010000 		.4byte	.LVL53
 3827 030c EB010000 		.4byte	.LVL54-1
 3828 0310 0100     		.2byte	0x1
 3829 0312 53       		.byte	0x53
 3830 0313 00000000 		.4byte	0
 3831 0317 00000000 		.4byte	0
 3832              	.LLST15:
 3833 031b 52030000 		.4byte	.LVL74
 3834 031f 55030000 		.4byte	.LVL75-1
 3835 0323 0100     		.2byte	0x1
 3836 0325 53       		.byte	0x53
 3837 0326 00000000 		.4byte	0
 3838 032a 00000000 		.4byte	0
 3839              	.LLST16:
 3840 032e 6A030000 		.4byte	.LVL79
 3841 0332 79030000 		.4byte	.LVL80-1
 3842 0336 0100     		.2byte	0x1
 3843 0338 53       		.byte	0x53
 3844 0339 00000000 		.4byte	0
 3845 033d 00000000 		.4byte	0
 3846              	.LLST17:
 3847 0341 88030000 		.4byte	.LVL82
 3848 0345 8B030000 		.4byte	.LVL83-1
 3849 0349 0100     		.2byte	0x1
 3850 034b 53       		.byte	0x53
 3851 034c 00000000 		.4byte	0
 3852 0350 00000000 		.4byte	0
 3853              	.LLST18:
 3854 0354 B0030000 		.4byte	.LVL86
 3855 0358 B2030000 		.4byte	.LVL87
 3856 035c 0100     		.2byte	0x1
 3857 035e 53       		.byte	0x53
 3858 035f 00000000 		.4byte	0
 3859 0363 00000000 		.4byte	0
 3860              	.LLST19:
 3861 0367 B6030000 		.4byte	.LVL88
 3862 036b B9030000 		.4byte	.LVL89-1
 3863 036f 0100     		.2byte	0x1
 3864 0371 53       		.byte	0x53
 3865 0372 00000000 		.4byte	0
 3866 0376 00000000 		.4byte	0
 3867              	.LLST20:
 3868 037a DC030000 		.4byte	.LVL91
 3869 037e DE030000 		.4byte	.LVL92
ARM GAS  /tmp/ccd0Hvab.s 			page 69


 3870 0382 0100     		.2byte	0x1
 3871 0384 53       		.byte	0x53
 3872 0385 00000000 		.4byte	0
 3873 0389 00000000 		.4byte	0
 3874              	.LLST21:
 3875 038d E2030000 		.4byte	.LVL93
 3876 0391 E5030000 		.4byte	.LVL94-1
 3877 0395 0100     		.2byte	0x1
 3878 0397 53       		.byte	0x53
 3879 0398 00000000 		.4byte	0
 3880 039c 00000000 		.4byte	0
 3881              	.LLST22:
 3882 03a0 0A040000 		.4byte	.LVL96
 3883 03a4 0C040000 		.4byte	.LVL97
 3884 03a8 0100     		.2byte	0x1
 3885 03aa 53       		.byte	0x53
 3886 03ab 00000000 		.4byte	0
 3887 03af 00000000 		.4byte	0
 3888              	.LLST23:
 3889 03b3 10040000 		.4byte	.LVL98
 3890 03b7 13040000 		.4byte	.LVL99-1
 3891 03bb 0100     		.2byte	0x1
 3892 03bd 53       		.byte	0x53
 3893 03be 00000000 		.4byte	0
 3894 03c2 00000000 		.4byte	0
 3895              	.LLST24:
 3896 03c6 9C040000 		.4byte	.LVL111
 3897 03ca A9040000 		.4byte	.LVL112-1
 3898 03ce 0100     		.2byte	0x1
 3899 03d0 53       		.byte	0x53
 3900 03d1 00000000 		.4byte	0
 3901 03d5 00000000 		.4byte	0
 3902              	.LLST25:
 3903 03d9 D2040000 		.4byte	.LVL114
 3904 03dd D7040000 		.4byte	.LVL115-1
 3905 03e1 0100     		.2byte	0x1
 3906 03e3 53       		.byte	0x53
 3907 03e4 00000000 		.4byte	0
 3908 03e8 00000000 		.4byte	0
 3909              	.LLST26:
 3910 03ec EC040000 		.4byte	.LVL119
 3911 03f0 EE040000 		.4byte	.LVL120
 3912 03f4 0100     		.2byte	0x1
 3913 03f6 53       		.byte	0x53
 3914 03f7 00000000 		.4byte	0
 3915 03fb 00000000 		.4byte	0
 3916              	.LLST27:
 3917 03ff 22050000 		.4byte	.LVL122
 3918 0403 25050000 		.4byte	.LVL123-1
 3919 0407 0100     		.2byte	0x1
 3920 0409 53       		.byte	0x53
 3921 040a 00000000 		.4byte	0
 3922 040e 00000000 		.4byte	0
 3923              	.LLST28:
 3924 0412 48050000 		.4byte	.LVL125
 3925 0416 4A050000 		.4byte	.LVL126
 3926 041a 0100     		.2byte	0x1
ARM GAS  /tmp/ccd0Hvab.s 			page 70


 3927 041c 53       		.byte	0x53
 3928 041d 00000000 		.4byte	0
 3929 0421 00000000 		.4byte	0
 3930              	.LLST29:
 3931 0425 4E050000 		.4byte	.LVL127
 3932 0429 51050000 		.4byte	.LVL128-1
 3933 042d 0100     		.2byte	0x1
 3934 042f 53       		.byte	0x53
 3935 0430 00000000 		.4byte	0
 3936 0434 00000000 		.4byte	0
 3937              	.LLST30:
 3938 0438 72050000 		.4byte	.LVL130
 3939 043c 76050000 		.4byte	.LVL131
 3940 0440 0100     		.2byte	0x1
 3941 0442 53       		.byte	0x53
 3942 0443 00000000 		.4byte	0
 3943 0447 00000000 		.4byte	0
 3944              	.LLST31:
 3945 044b 94050000 		.4byte	.LVL133
 3946 044f 97050000 		.4byte	.LVL134-1
 3947 0453 0100     		.2byte	0x1
 3948 0455 53       		.byte	0x53
 3949 0456 00000000 		.4byte	0
 3950 045a 00000000 		.4byte	0
 3951              	.LLST32:
 3952 045e 2A060000 		.4byte	.LVL146
 3953 0462 2C060000 		.4byte	.LVL147
 3954 0466 0100     		.2byte	0x1
 3955 0468 53       		.byte	0x53
 3956 0469 00000000 		.4byte	0
 3957 046d 00000000 		.4byte	0
 3958              	.LLST33:
 3959 0471 5E060000 		.4byte	.LVL150
 3960 0475 63060000 		.4byte	.LVL151-1
 3961 0479 0100     		.2byte	0x1
 3962 047b 53       		.byte	0x53
 3963 047c 00000000 		.4byte	0
 3964 0480 00000000 		.4byte	0
 3965              	.LLST34:
 3966 0484 78060000 		.4byte	.LVL155
 3967 0488 7A060000 		.4byte	.LVL156
 3968 048c 0100     		.2byte	0x1
 3969 048e 53       		.byte	0x53
 3970 048f 00000000 		.4byte	0
 3971 0493 00000000 		.4byte	0
 3972              	.LLST35:
 3973 0497 AC060000 		.4byte	.LVL158
 3974 049b AF060000 		.4byte	.LVL159-1
 3975 049f 0100     		.2byte	0x1
 3976 04a1 53       		.byte	0x53
 3977 04a2 00000000 		.4byte	0
 3978 04a6 00000000 		.4byte	0
 3979              	.LLST36:
 3980 04aa D4060000 		.4byte	.LVL161
 3981 04ae D6060000 		.4byte	.LVL162
 3982 04b2 0100     		.2byte	0x1
 3983 04b4 53       		.byte	0x53
ARM GAS  /tmp/ccd0Hvab.s 			page 71


 3984 04b5 00000000 		.4byte	0
 3985 04b9 00000000 		.4byte	0
 3986              	.LLST37:
 3987 04bd DA060000 		.4byte	.LVL163
 3988 04c1 DD060000 		.4byte	.LVL164-1
 3989 04c5 0100     		.2byte	0x1
 3990 04c7 53       		.byte	0x53
 3991 04c8 00000000 		.4byte	0
 3992 04cc 00000000 		.4byte	0
 3993              	.LLST38:
 3994 04d0 FC060000 		.4byte	.LVL166
 3995 04d4 04070000 		.4byte	.LVL167
 3996 04d8 0100     		.2byte	0x1
 3997 04da 53       		.byte	0x53
 3998 04db 00000000 		.4byte	0
 3999 04df 00000000 		.4byte	0
 4000              	.LLST39:
 4001 04e3 20070000 		.4byte	.LVL169
 4002 04e7 23070000 		.4byte	.LVL170-1
 4003 04eb 0100     		.2byte	0x1
 4004 04ed 53       		.byte	0x53
 4005 04ee 00000000 		.4byte	0
 4006 04f2 00000000 		.4byte	0
 4007              	.LLST40:
 4008 04f6 44070000 		.4byte	.LVL172
 4009 04fa 46070000 		.4byte	.LVL173
 4010 04fe 0100     		.2byte	0x1
 4011 0500 53       		.byte	0x53
 4012 0501 00000000 		.4byte	0
 4013 0505 00000000 		.4byte	0
 4014              	.LLST41:
 4015 0509 4A070000 		.4byte	.LVL174
 4016 050d 4D070000 		.4byte	.LVL175-1
 4017 0511 0100     		.2byte	0x1
 4018 0513 53       		.byte	0x53
 4019 0514 00000000 		.4byte	0
 4020 0518 00000000 		.4byte	0
 4021              	.LLST42:
 4022 051c 6C070000 		.4byte	.LVL177
 4023 0520 6E070000 		.4byte	.LVL178
 4024 0524 0100     		.2byte	0x1
 4025 0526 53       		.byte	0x53
 4026 0527 00000000 		.4byte	0
 4027 052b 00000000 		.4byte	0
 4028              	.LLST43:
 4029 052f 72070000 		.4byte	.LVL179
 4030 0533 75070000 		.4byte	.LVL180-1
 4031 0537 0100     		.2byte	0x1
 4032 0539 53       		.byte	0x53
 4033 053a 00000000 		.4byte	0
 4034 053e 00000000 		.4byte	0
 4035              	.LLST44:
 4036 0542 96070000 		.4byte	.LVL182
 4037 0546 98070000 		.4byte	.LVL183
 4038 054a 0100     		.2byte	0x1
 4039 054c 53       		.byte	0x53
 4040 054d 00000000 		.4byte	0
ARM GAS  /tmp/ccd0Hvab.s 			page 72


 4041 0551 00000000 		.4byte	0
 4042              	.LLST45:
 4043 0555 9C070000 		.4byte	.LVL184
 4044 0559 9F070000 		.4byte	.LVL185-1
 4045 055d 0100     		.2byte	0x1
 4046 055f 53       		.byte	0x53
 4047 0560 00000000 		.4byte	0
 4048 0564 00000000 		.4byte	0
 4049              	.LLST46:
 4050 0568 A8000000 		.4byte	.LVL14
 4051 056c B0000000 		.4byte	.LVL15
 4052 0570 0100     		.2byte	0x1
 4053 0572 53       		.byte	0x53
 4054 0573 BE070000 		.4byte	.LVL187
 4055 0577 C0070000 		.4byte	.LVL188
 4056 057b 0100     		.2byte	0x1
 4057 057d 53       		.byte	0x53
 4058 057e 00000000 		.4byte	0
 4059 0582 00000000 		.4byte	0
 4060              	.LLST47:
 4061 0586 A8000000 		.4byte	.LVL14
 4062 058a B0000000 		.4byte	.LVL15
 4063 058e 0100     		.2byte	0x1
 4064 0590 53       		.byte	0x53
 4065 0591 CA070000 		.4byte	.LVL189
 4066 0595 CC070000 		.4byte	.LVL190
 4067 0599 0100     		.2byte	0x1
 4068 059b 53       		.byte	0x53
 4069 059c 00000000 		.4byte	0
 4070 05a0 00000000 		.4byte	0
 4071              	.LLST48:
 4072 05a4 A8000000 		.4byte	.LVL14
 4073 05a8 B0000000 		.4byte	.LVL15
 4074 05ac 0100     		.2byte	0x1
 4075 05ae 53       		.byte	0x53
 4076 05af D6070000 		.4byte	.LVL191
 4077 05b3 D8070000 		.4byte	.LVL192
 4078 05b7 0100     		.2byte	0x1
 4079 05b9 53       		.byte	0x53
 4080 05ba 00000000 		.4byte	0
 4081 05be 00000000 		.4byte	0
 4082              	.LLST49:
 4083 05c2 A8000000 		.4byte	.LVL14
 4084 05c6 B0000000 		.4byte	.LVL15
 4085 05ca 0100     		.2byte	0x1
 4086 05cc 53       		.byte	0x53
 4087 05cd E2070000 		.4byte	.LVL193
 4088 05d1 EC070000 		.4byte	.LFE8
 4089 05d5 0100     		.2byte	0x1
 4090 05d7 53       		.byte	0x53
 4091 05d8 00000000 		.4byte	0
 4092 05dc 00000000 		.4byte	0
 4093              		.section	.debug_aranges,"",%progbits
 4094 0000 24000000 		.4byte	0x24
 4095 0004 0200     		.2byte	0x2
 4096 0006 00000000 		.4byte	.Ldebug_info0
 4097 000a 04       		.byte	0x4
ARM GAS  /tmp/ccd0Hvab.s 			page 73


 4098 000b 00       		.byte	0
 4099 000c 0000     		.2byte	0
 4100 000e 0000     		.2byte	0
 4101 0010 00000000 		.4byte	.LFB7
 4102 0014 16000000 		.4byte	.LFE7-.LFB7
 4103 0018 00000000 		.4byte	.LFB8
 4104 001c EC070000 		.4byte	.LFE8-.LFB8
 4105 0020 00000000 		.4byte	0
 4106 0024 00000000 		.4byte	0
 4107              		.section	.debug_ranges,"",%progbits
 4108              	.Ldebug_ranges0:
 4109 0000 00000000 		.4byte	.LFB7
 4110 0004 16000000 		.4byte	.LFE7
 4111 0008 00000000 		.4byte	.LFB8
 4112 000c EC070000 		.4byte	.LFE8
 4113 0010 00000000 		.4byte	0
 4114 0014 00000000 		.4byte	0
 4115              		.section	.debug_line,"",%progbits
 4116              	.Ldebug_line0:
 4117 0000 29020000 		.section	.debug_str,"MS",%progbits,1
 4117      02006D01 
 4117      00000201 
 4117      FB0E0D00 
 4117      01010101 
 4118              	.LASF39:
 4119 0000 705F6D73 		.ascii	"p_msg\000"
 4119      6700
 4120              	.LASF64:
 4121 0006 7264796D 		.ascii	"rdymsg\000"
 4121      736700
 4122              	.LASF11:
 4123 000d 75696E74 		.ascii	"uint64_t\000"
 4123      36345F74 
 4123      00
 4124              	.LASF63:
 4125 0016 4D61696C 		.ascii	"Mailbox\000"
 4125      626F7800 
 4126              	.LASF12:
 4127 001e 6C6F6E67 		.ascii	"long long unsigned int\000"
 4127      206C6F6E 
 4127      6720756E 
 4127      7369676E 
 4127      65642069 
 4128              	.LASF79:
 4129 0035 70617474 		.ascii	"patternmbox\000"
 4129      65726E6D 
 4129      626F7800 
 4130              	.LASF65:
 4131 0041 65786974 		.ascii	"exitcode\000"
 4131      636F6465 
 4131      00
 4132              	.LASF77:
 4133 004a 74657374 		.ascii	"test\000"
 4133      00
 4134              	.LASF59:
 4135 004f 6D625F77 		.ascii	"mb_wrptr\000"
 4135      72707472 
ARM GAS  /tmp/ccd0Hvab.s 			page 74


 4135      00
 4136              	.LASF26:
 4137 0058 705F7072 		.ascii	"p_prio\000"
 4137      696F00
 4138              	.LASF10:
 4139 005f 6C6F6E67 		.ascii	"long long int\000"
 4139      206C6F6E 
 4139      6720696E 
 4139      7400
 4140              	.LASF1:
 4141 006d 7369676E 		.ascii	"signed char\000"
 4141      65642063 
 4141      68617200 
 4142              	.LASF43:
 4143 0079 705F6D70 		.ascii	"p_mpool\000"
 4143      6F6F6C00 
 4144              	.LASF54:
 4145 0081 6D5F7175 		.ascii	"m_queue\000"
 4145      65756500 
 4146              	.LASF17:
 4147 0089 74736C69 		.ascii	"tslices_t\000"
 4147      6365735F 
 4147      7400
 4148              	.LASF7:
 4149 0093 6C6F6E67 		.ascii	"long int\000"
 4149      20696E74 
 4149      00
 4150              	.LASF80:
 4151 009c 474E5520 		.ascii	"GNU C 4.6.2 20120613 (release) [ARM/embedded-4_6-br"
 4151      4320342E 
 4151      362E3220 
 4151      32303132 
 4151      30363133 
 4152 00cf 616E6368 		.ascii	"anch revision 188521]\000"
 4152      20726576 
 4152      6973696F 
 4152      6E203138 
 4152      38353231 
 4153              	.LASF82:
 4154 00e5 2F686F6D 		.ascii	"/home/tino/workspace/openrobots/R2P_IR_module/fw\000"
 4154      652F7469 
 4154      6E6F2F77 
 4154      6F726B73 
 4154      70616365 
 4155              	.LASF15:
 4156 0116 74737461 		.ascii	"tstate_t\000"
 4156      74655F74 
 4156      00
 4157              	.LASF28:
 4158 011f 705F6E65 		.ascii	"p_newer\000"
 4158      77657200 
 4159              	.LASF51:
 4160 0127 735F7175 		.ascii	"s_queue\000"
 4160      65756500 
 4161              	.LASF46:
 4162 012f 72656761 		.ascii	"regarm_t\000"
 4162      726D5F74 
ARM GAS  /tmp/ccd0Hvab.s 			page 75


 4162      00
 4163              	.LASF22:
 4164 0138 636E745F 		.ascii	"cnt_t\000"
 4164      7400
 4165              	.LASF31:
 4166 013e 705F7374 		.ascii	"p_stklimit\000"
 4166      6B6C696D 
 4166      697400
 4167              	.LASF0:
 4168 0149 756E7369 		.ascii	"unsigned int\000"
 4168      676E6564 
 4168      20696E74 
 4168      00
 4169              	.LASF75:
 4170 0156 6D736731 		.ascii	"msg1\000"
 4170      00
 4171              	.LASF76:
 4172 015b 6D736732 		.ascii	"msg2\000"
 4172      00
 4173              	.LASF9:
 4174 0160 6C6F6E67 		.ascii	"long unsigned int\000"
 4174      20756E73 
 4174      69676E65 
 4174      6420696E 
 4174      7400
 4175              	.LASF72:
 4176 0172 74656172 		.ascii	"teardown\000"
 4176      646F776E 
 4176      00
 4177              	.LASF62:
 4178 017b 6D625F65 		.ascii	"mb_emptysem\000"
 4178      6D707479 
 4178      73656D00 
 4179              	.LASF70:
 4180 0187 6E616D65 		.ascii	"name\000"
 4180      00
 4181              	.LASF52:
 4182 018c 735F636E 		.ascii	"s_cnt\000"
 4182      7400
 4183              	.LASF49:
 4184 0192 636F6E74 		.ascii	"context\000"
 4184      65787400 
 4185              	.LASF4:
 4186 019a 73686F72 		.ascii	"short unsigned int\000"
 4186      7420756E 
 4186      7369676E 
 4186      65642069 
 4186      6E7400
 4187              	.LASF19:
 4188 01ad 6D73675F 		.ascii	"msg_t\000"
 4188      7400
 4189              	.LASF14:
 4190 01b3 746D6F64 		.ascii	"tmode_t\000"
 4190      655F7400 
 4191              	.LASF85:
 4192 01bb 6D626F78 		.ascii	"mbox1_setup\000"
 4192      315F7365 
ARM GAS  /tmp/ccd0Hvab.s 			page 76


 4192      74757000 
 4193              	.LASF45:
 4194 01c7 54687265 		.ascii	"ThreadsList\000"
 4194      6164734C 
 4194      69737400 
 4195              	.LASF20:
 4196 01d3 6576656E 		.ascii	"eventmask_t\000"
 4196      746D6173 
 4196      6B5F7400 
 4197              	.LASF53:
 4198 01df 4D757465 		.ascii	"Mutex\000"
 4198      7800
 4199              	.LASF78:
 4200 01e5 74657374 		.ascii	"testmbox1\000"
 4200      6D626F78 
 4200      3100
 4201              	.LASF47:
 4202 01ef 73746B61 		.ascii	"stkalign_t\000"
 4202      6C69676E 
 4202      5F7400
 4203              	.LASF60:
 4204 01fa 6D625F72 		.ascii	"mb_rdptr\000"
 4204      64707472 
 4204      00
 4205              	.LASF29:
 4206 0203 705F6F6C 		.ascii	"p_older\000"
 4206      64657200 
 4207              	.LASF44:
 4208 020b 54687265 		.ascii	"ThreadsQueue\000"
 4208      61647351 
 4208      75657565 
 4208      00
 4209              	.LASF71:
 4210 0218 73657475 		.ascii	"setup\000"
 4210      7000
 4211              	.LASF57:
 4212 021e 6D625F62 		.ascii	"mb_buffer\000"
 4212      75666665 
 4212      7200
 4213              	.LASF84:
 4214 0228 6D626F78 		.ascii	"mbox1_execute\000"
 4214      315F6578 
 4214      65637574 
 4214      6500
 4215              	.LASF16:
 4216 0236 74726566 		.ascii	"trefs_t\000"
 4216      735F7400 
 4217              	.LASF25:
 4218 023e 705F7072 		.ascii	"p_prev\000"
 4218      657600
 4219              	.LASF73:
 4220 0245 65786563 		.ascii	"execute\000"
 4220      75746500 
 4221              	.LASF18:
 4222 024d 74707269 		.ascii	"tprio_t\000"
 4222      6F5F7400 
 4223              	.LASF13:
ARM GAS  /tmp/ccd0Hvab.s 			page 77


 4224 0255 5F426F6F 		.ascii	"_Bool\000"
 4224      6C00
 4225              	.LASF6:
 4226 025b 696E7433 		.ascii	"int32_t\000"
 4226      325F7400 
 4227              	.LASF2:
 4228 0263 756E7369 		.ascii	"unsigned char\000"
 4228      676E6564 
 4228      20636861 
 4228      7200
 4229              	.LASF58:
 4230 0271 6D625F74 		.ascii	"mb_top\000"
 4230      6F7000
 4231              	.LASF41:
 4232 0278 705F6D74 		.ascii	"p_mtxlist\000"
 4232      786C6973 
 4232      7400
 4233              	.LASF3:
 4234 0282 73686F72 		.ascii	"short int\000"
 4234      7420696E 
 4234      7400
 4235              	.LASF32:
 4236 028c 705F7374 		.ascii	"p_state\000"
 4236      61746500 
 4237              	.LASF35:
 4238 0294 705F7072 		.ascii	"p_preempt\000"
 4238      65656D70 
 4238      7400
 4239              	.LASF67:
 4240 029e 65776D61 		.ascii	"ewmask\000"
 4240      736B00
 4241              	.LASF24:
 4242 02a5 705F6E65 		.ascii	"p_next\000"
 4242      787400
 4243              	.LASF33:
 4244 02ac 705F666C 		.ascii	"p_flags\000"
 4244      61677300 
 4245              	.LASF23:
 4246 02b4 54687265 		.ascii	"Thread\000"
 4246      616400
 4247              	.LASF69:
 4248 02bb 74657374 		.ascii	"testcase\000"
 4248      63617365 
 4248      00
 4249              	.LASF40:
 4250 02c4 705F6570 		.ascii	"p_epending\000"
 4250      656E6469 
 4250      6E6700
 4251              	.LASF8:
 4252 02cf 75696E74 		.ascii	"uint32_t\000"
 4252      33325F74 
 4252      00
 4253              	.LASF68:
 4254 02d8 63686172 		.ascii	"char\000"
 4254      00
 4255              	.LASF56:
 4256 02dd 6D5F6E65 		.ascii	"m_next\000"
ARM GAS  /tmp/ccd0Hvab.s 			page 78


 4256      787400
 4257              	.LASF21:
 4258 02e4 73797374 		.ascii	"systime_t\000"
 4258      696D655F 
 4258      7400
 4259              	.LASF42:
 4260 02ee 705F7265 		.ascii	"p_realprio\000"
 4260      616C7072 
 4260      696F00
 4261              	.LASF74:
 4262 02f9 62756666 		.ascii	"buffer\000"
 4262      657200
 4263              	.LASF36:
 4264 0300 705F7469 		.ascii	"p_time\000"
 4264      6D6500
 4265              	.LASF48:
 4266 0307 696E7463 		.ascii	"intctx\000"
 4266      747800
 4267              	.LASF38:
 4268 030e 705F6D73 		.ascii	"p_msgqueue\000"
 4268      67717565 
 4268      756500
 4269              	.LASF50:
 4270 0319 53656D61 		.ascii	"Semaphore\000"
 4270      70686F72 
 4270      6500
 4271              	.LASF61:
 4272 0323 6D625F66 		.ascii	"mb_fullsem\000"
 4272      756C6C73 
 4272      656D00
 4273              	.LASF83:
 4274 032e 74657374 		.ascii	"test_buffers\000"
 4274      5F627566 
 4274      66657273 
 4274      00
 4275              	.LASF34:
 4276 033b 705F7265 		.ascii	"p_refs\000"
 4276      667300
 4277              	.LASF5:
 4278 0342 75696E74 		.ascii	"uint8_t\000"
 4278      385F7400 
 4279              	.LASF81:
 4280 034a 2E2E2F2E 		.ascii	"../../ChibiOS/test/testmbox.c\000"
 4280      2E2F4368 
 4280      6962694F 
 4280      532F7465 
 4280      73742F74 
 4281              	.LASF66:
 4282 0368 77746F62 		.ascii	"wtobjp\000"
 4282      6A7000
 4283              	.LASF30:
 4284 036f 705F6E61 		.ascii	"p_name\000"
 4284      6D6500
 4285              	.LASF55:
 4286 0376 6D5F6F77 		.ascii	"m_owner\000"
 4286      6E657200 
 4287              	.LASF27:
ARM GAS  /tmp/ccd0Hvab.s 			page 79


 4288 037e 705F6374 		.ascii	"p_ctx\000"
 4288      7800
 4289              	.LASF37:
 4290 0384 705F7761 		.ascii	"p_waiting\000"
 4290      6974696E 
 4290      6700
 4291              		.ident	"GCC: (GNU Tools for ARM Embedded Processors) 4.6.2 20120613 (release) [ARM/embedded-4_6-br
ARM GAS  /tmp/ccd0Hvab.s 			page 80


DEFINED SYMBOLS
                            *ABS*:00000000 testmbox.c
     /tmp/ccd0Hvab.s:19     .text.mbox1_setup:00000000 $t
     /tmp/ccd0Hvab.s:24     .text.mbox1_setup:00000000 mbox1_setup
     /tmp/ccd0Hvab.s:1325   .data.mb1:00000000 .LANCHOR0
     /tmp/ccd0Hvab.s:45     .text.mbox1_execute:00000000 $t
     /tmp/ccd0Hvab.s:50     .text.mbox1_execute:00000000 mbox1_execute
     /tmp/ccd0Hvab.s:160    .text.mbox1_execute:000000ac $d
     /tmp/ccd0Hvab.s:166    .text.mbox1_execute:000000b0 $t
     /tmp/ccd0Hvab.s:951    .text.mbox1_execute:000005d4 $d
     /tmp/ccd0Hvab.s:955    .text.mbox1_execute:000005dc $t
     /tmp/ccd0Hvab.s:1313   .text.mbox1_execute:000007e4 $d
     /tmp/ccd0Hvab.s:1343   .rodata.patternmbox:00000000 patternmbox
     /tmp/ccd0Hvab.s:1357   .rodata.testmbox1:00000000 testmbox1
     /tmp/ccd0Hvab.s:1324   .data.mb1:00000000 $d
     /tmp/ccd0Hvab.s:1328   .data.mb1:00000000 mb1
     /tmp/ccd0Hvab.s:1340   .rodata.patternmbox:00000000 $d
     /tmp/ccd0Hvab.s:1347   .rodata.str1.4:00000000 $d
     /tmp/ccd0Hvab.s:1354   .rodata.testmbox1:00000000 $d
                     .debug_frame:00000010 $d
     /tmp/ccd0Hvab.s:1323   .text.mbox1_execute:000007ec $t

UNDEFINED SYMBOLS
test
chMBInit
_test_assert
chMBPost
chMBPostAhead
dbg_check_lock
chMBPostI
dbg_check_unlock
chMBPostAheadI
chMBFetch
test_emit_token
_test_assert_sequence
chMBFetchI
chMBReset
