ARM GAS  /tmp/cc2eB1jY.s 			page 1


   1              		.syntax unified
   2              		.cpu cortex-m3
   3              		.fpu softvfp
   4              		.eabi_attribute 20, 1
   5              		.eabi_attribute 21, 1
   6              		.eabi_attribute 23, 3
   7              		.eabi_attribute 24, 1
   8              		.eabi_attribute 25, 1
   9              		.eabi_attribute 26, 1
  10              		.eabi_attribute 30, 2
  11              		.eabi_attribute 34, 1
  12              		.eabi_attribute 18, 4
  13              		.thumb
  14              		.file	"testthd.c"
  15              		.text
  16              	.Ltext0:
  17              		.cfi_sections	.debug_frame
  18              		.section	.text.thd3_execute,"ax",%progbits
  19              		.align	2
  20              		.p2align 4,,15
  21              		.thumb
  22              		.thumb_func
  23              		.type	thd3_execute, %function
  24              	thd3_execute:
  25              	.LFB10:
  26              		.file 1 "../../ChibiOS/test/testthd.c"
  27              		.loc 1 126 0
  28              		.cfi_startproc
  29              		@ args = 0, pretend = 0, frame = 0
  30              		@ frame_needed = 0, uses_anonymous_args = 0
  31 0000 F8B5     		push	{r3, r4, r5, r6, r7, lr}
  32              	.LCFI0:
  33              		.cfi_def_cfa_offset 24
  34              		.cfi_offset 14, -4
  35              		.cfi_offset 7, -8
  36              		.cfi_offset 6, -12
  37              		.cfi_offset 5, -16
  38              		.cfi_offset 4, -20
  39              		.cfi_offset 3, -24
  40              		.loc 1 129 0
  41 0002 534E     		ldr	r6, .L5
  42 0004 B069     		ldr	r0, [r6, #24]
  43 0006 8468     		ldr	r4, [r0, #8]
  44              	.LVL0:
  45              		.loc 1 130 0
  46 0008 651C     		adds	r5, r4, #1
  47 000a 2846     		mov	r0, r5
  48 000c FFF7FEFF 		bl	chThdSetPriority
  49              	.LVL1:
  50              		.loc 1 131 0
  51 0010 031B     		subs	r3, r0, r4
  52 0012 5942     		rsbs	r1, r3, #0
  53 0014 41EB0301 		adc	r1, r1, r3
  54              		.loc 1 130 0
  55 0018 0746     		mov	r7, r0
  56              	.LVL2:
  57              		.loc 1 131 0
ARM GAS  /tmp/cc2eB1jY.s 			page 2


  58 001a 0120     		movs	r0, #1
  59              	.LVL3:
  60 001c FFF7FEFF 		bl	_test_assert
  61 0020 00B1     		cbz	r0, .L4
  62              	.LVL4:
  63              	.L1:
  64 0022 F8BD     		pop	{r3, r4, r5, r6, r7, pc}
  65              	.LVL5:
  66              	.L4:
  67              		.loc 1 133 0
  68 0024 B269     		ldr	r2, [r6, #24]
  69 0026 0220     		movs	r0, #2
  70 0028 9368     		ldr	r3, [r2, #8]
  71 002a E91A     		subs	r1, r5, r3
  72 002c 4A42     		rsbs	r2, r1, #0
  73 002e 42EB0101 		adc	r1, r2, r1
  74 0032 FFF7FEFF 		bl	_test_assert
  75 0036 0028     		cmp	r0, #0
  76 0038 F3D1     		bne	.L1
  77              		.loc 1 135 0
  78 003a 3846     		mov	r0, r7
  79 003c FFF7FEFF 		bl	chThdSetPriority
  80              	.LVL6:
  81              		.loc 1 136 0
  82 0040 291A     		subs	r1, r5, r0
  83 0042 4842     		rsbs	r0, r1, #0
  84              	.LVL7:
  85 0044 40EB0101 		adc	r1, r0, r1
  86 0048 0320     		movs	r0, #3
  87 004a FFF7FEFF 		bl	_test_assert
  88 004e 0028     		cmp	r0, #0
  89 0050 E7D1     		bne	.L1
  90              		.loc 1 138 0
  91 0052 B169     		ldr	r1, [r6, #24]
  92 0054 0420     		movs	r0, #4
  93 0056 8A68     		ldr	r2, [r1, #8]
  94 0058 171B     		subs	r7, r2, r4
  95 005a 7B42     		rsbs	r3, r7, #0
  96 005c 43EB0701 		adc	r1, r3, r7
  97 0060 FFF7FEFF 		bl	_test_assert
  98 0064 0746     		mov	r7, r0
  99 0066 0028     		cmp	r0, #0
 100 0068 DBD1     		bne	.L1
 101              	.LBB2:
 102              		.loc 1 143 0
 103 006a 2023     		movs	r3, #32
 104              	.LVL8:
 105              	@ 143 "../../ChibiOS/test/testthd.c" 1
 106 006c 83F31188 		msr     BASEPRI, r3
 107              	@ 0 "" 2
 108              	.LVL9:
 109              		.thumb
 110              	.LBE2:
 111 0070 FFF7FEFF 		bl	dbg_check_lock
 112              	.LVL10:
 113              		.loc 1 144 0
 114 0074 B369     		ldr	r3, [r6, #24]
ARM GAS  /tmp/cc2eB1jY.s 			page 3


 115 0076 9A68     		ldr	r2, [r3, #8]
 116 0078 911C     		adds	r1, r2, #2
 117 007a 9960     		str	r1, [r3, #8]
 118              		.loc 1 145 0
 119 007c FFF7FEFF 		bl	dbg_check_unlock
 120              	.LBB3:
 121 0080 3B46     		mov	r3, r7
 122              	.LVL11:
 123              	@ 145 "../../ChibiOS/test/testthd.c" 1
 124 0082 83F31188 		msr     BASEPRI, r3
 125              	@ 0 "" 2
 126              	.LVL12:
 127              		.thumb
 128              	.LBE3:
 129              		.loc 1 146 0
 130 0086 B069     		ldr	r0, [r6, #24]
 131 0088 A71C     		adds	r7, r4, #2
 132 008a 8268     		ldr	r2, [r0, #8]
 133 008c 0520     		movs	r0, #5
 134 008e C7EB020C 		rsb	ip, r7, r2
 135 0092 DCF10003 		rsbs	r3, ip, #0
 136              	.LVL13:
 137 0096 43EB0C01 		adc	r1, r3, ip
 138 009a FFF7FEFF 		bl	_test_assert
 139 009e 0028     		cmp	r0, #0
 140 00a0 BFD1     		bne	.L1
 141              		.loc 1 150 0
 142 00a2 2846     		mov	r0, r5
 143 00a4 FFF7FEFF 		bl	chThdSetPriority
 144              	.LVL14:
 145              		.loc 1 151 0
 146 00a8 011B     		subs	r1, r0, r4
 147 00aa 4842     		rsbs	r0, r1, #0
 148              	.LVL15:
 149 00ac 40EB0101 		adc	r1, r0, r1
 150 00b0 0620     		movs	r0, #6
 151 00b2 FFF7FEFF 		bl	_test_assert
 152 00b6 0028     		cmp	r0, #0
 153 00b8 B3D1     		bne	.L1
 154              		.loc 1 153 0
 155 00ba B369     		ldr	r3, [r6, #24]
 156 00bc 0720     		movs	r0, #7
 157 00be 9968     		ldr	r1, [r3, #8]
 158 00c0 7A1A     		subs	r2, r7, r1
 159 00c2 5342     		rsbs	r3, r2, #0
 160 00c4 43EB0201 		adc	r1, r3, r2
 161 00c8 FFF7FEFF 		bl	_test_assert
 162 00cc 0028     		cmp	r0, #0
 163 00ce A8D1     		bne	.L1
 164              		.loc 1 155 0
 165 00d0 B269     		ldr	r2, [r6, #24]
 166 00d2 0820     		movs	r0, #8
 167 00d4 536C     		ldr	r3, [r2, #68]
 168 00d6 E91A     		subs	r1, r5, r3
 169 00d8 4A42     		rsbs	r2, r1, #0
 170 00da 42EB0101 		adc	r1, r2, r1
 171 00de FFF7FEFF 		bl	_test_assert
ARM GAS  /tmp/cc2eB1jY.s 			page 4


 172 00e2 0028     		cmp	r0, #0
 173 00e4 9DD1     		bne	.L1
 174              		.loc 1 159 0
 175 00e6 E71C     		adds	r7, r4, #3
 176 00e8 3846     		mov	r0, r7
 177 00ea FFF7FEFF 		bl	chThdSetPriority
 178              	.LVL16:
 179              		.loc 1 160 0
 180 00ee 281A     		subs	r0, r5, r0
 181              	.LVL17:
 182 00f0 D0F1000C 		rsbs	ip, r0, #0
 183 00f4 4CEB0001 		adc	r1, ip, r0
 184 00f8 0920     		movs	r0, #9
 185 00fa FFF7FEFF 		bl	_test_assert
 186 00fe 0028     		cmp	r0, #0
 187 0100 8FD1     		bne	.L1
 188              		.loc 1 162 0
 189 0102 B269     		ldr	r2, [r6, #24]
 190 0104 0A20     		movs	r0, #10
 191 0106 9368     		ldr	r3, [r2, #8]
 192 0108 F91A     		subs	r1, r7, r3
 193 010a D1F1000E 		rsbs	lr, r1, #0
 194 010e 4EEB0101 		adc	r1, lr, r1
 195 0112 FFF7FEFF 		bl	_test_assert
 196 0116 0028     		cmp	r0, #0
 197 0118 83D1     		bne	.L1
 198              		.loc 1 164 0
 199 011a B269     		ldr	r2, [r6, #24]
 200 011c 0B20     		movs	r0, #11
 201 011e 536C     		ldr	r3, [r2, #68]
 202 0120 F91A     		subs	r1, r7, r3
 203 0122 4D42     		rsbs	r5, r1, #0
 204 0124 45EB0101 		adc	r1, r5, r1
 205 0128 FFF7FEFF 		bl	_test_assert
 206 012c 0546     		mov	r5, r0
 207 012e 0028     		cmp	r0, #0
 208 0130 7FF477AF 		bne	.L1
 209              	.LBB4:
 210              		.loc 1 167 0
 211 0134 2023     		movs	r3, #32
 212              	.LVL18:
 213              	@ 167 "../../ChibiOS/test/testthd.c" 1
 214 0136 83F31188 		msr     BASEPRI, r3
 215              	@ 0 "" 2
 216              	.LVL19:
 217              		.thumb
 218              	.LBE4:
 219 013a FFF7FEFF 		bl	dbg_check_lock
 220              	.LVL20:
 221              		.loc 1 168 0
 222 013e B069     		ldr	r0, [r6, #24]
 223 0140 8460     		str	r4, [r0, #8]
 224              		.loc 1 169 0
 225 0142 4464     		str	r4, [r0, #68]
 226              		.loc 1 170 0
 227 0144 FFF7FEFF 		bl	dbg_check_unlock
 228              	.LBB5:
ARM GAS  /tmp/cc2eB1jY.s 			page 5


 229 0148 2B46     		mov	r3, r5
 230              	@ 170 "../../ChibiOS/test/testthd.c" 1
 231 014a 83F31188 		msr     BASEPRI, r3
 232              	@ 0 "" 2
 233              	.LVL21:
 234              		.thumb
 235 014e 68E7     		b	.L1
 236              	.L6:
 237              		.align	2
 238              	.L5:
 239 0150 00000000 		.word	rlist
 240              	.LBE5:
 241              		.cfi_endproc
 242              	.LFE10:
 243              		.size	thd3_execute, .-thd3_execute
 244 0154 AFF30080 		.section	.text.thd2_execute,"ax",%progbits
 244      AFF30080 
 244      AFF30080 
 245              		.align	2
 246              		.p2align 4,,15
 247              		.thumb
 248              		.thumb_func
 249              		.type	thd2_execute, %function
 250              	thd2_execute:
 251              	.LFB9:
 252              		.loc 1 94 0
 253              		.cfi_startproc
 254              		@ args = 0, pretend = 0, frame = 0
 255              		@ frame_needed = 0, uses_anonymous_args = 0
 256 0000 F0B5     		push	{r4, r5, r6, r7, lr}
 257              	.LCFI1:
 258              		.cfi_def_cfa_offset 20
 259              		.cfi_offset 14, -4
 260              		.cfi_offset 7, -8
 261              		.cfi_offset 6, -12
 262              		.cfi_offset 5, -16
 263              		.cfi_offset 4, -20
 264              		.loc 1 96 0
 265 0002 40F20007 		movw	r7, #:lower16:rlist
 266 0006 C0F20007 		movt	r7, #:upper16:rlist
 267 000a B869     		ldr	r0, [r7, #24]
 268 000c 40F20006 		movw	r6, #:lower16:wa
 269 0010 8168     		ldr	r1, [r0, #8]
 270 0012 40F20005 		movw	r5, #:lower16:thread
 271 0016 C0F20006 		movt	r6, #:upper16:wa
 272 001a C0F20005 		movt	r5, #:upper16:thread
 273 001e 40F20004 		movw	r4, #:lower16:.LC0
 274              		.loc 1 94 0
 275 0022 83B0     		sub	sp, sp, #12
 276              	.LCFI2:
 277              		.cfi_def_cfa_offset 32
 278              		.loc 1 96 0
 279 0024 0A1F     		subs	r2, r1, #4
 280 0026 2B46     		mov	r3, r5
 281 0028 7068     		ldr	r0, [r6, #4]
 282 002a 4FF40471 		mov	r1, #528
 283 002e C0F20004 		movt	r4, #:upper16:.LC0
ARM GAS  /tmp/cc2eB1jY.s 			page 6


 284 0032 0094     		str	r4, [sp, #0]
 285 0034 FFF7FEFF 		bl	chThdCreateStatic
 286              		.loc 1 97 0
 287 0038 BC69     		ldr	r4, [r7, #24]
 288              		.loc 1 96 0
 289 003a 8446     		mov	ip, r0
 290              		.loc 1 97 0
 291 003c A268     		ldr	r2, [r4, #8]
 292              		.loc 1 96 0
 293 003e 40F20004 		movw	r4, #:lower16:threads
 294 0042 C0F20004 		movt	r4, #:upper16:threads
 295              		.loc 1 97 0
 296 0046 40F2000E 		movw	lr, #:lower16:.LC1
 297              		.loc 1 96 0
 298 004a C4F804C0 		str	ip, [r4, #4]
 299              		.loc 1 97 0
 300 004e 053A     		subs	r2, r2, #5
 301 0050 2B46     		mov	r3, r5
 302 0052 C0F2000E 		movt	lr, #:upper16:.LC1
 303 0056 3068     		ldr	r0, [r6, #0]
 304 0058 4FF40471 		mov	r1, #528
 305 005c CDF800E0 		str	lr, [sp, #0]
 306 0060 FFF7FEFF 		bl	chThdCreateStatic
 307              		.loc 1 98 0
 308 0064 BB69     		ldr	r3, [r7, #24]
 309              		.loc 1 97 0
 310 0066 8446     		mov	ip, r0
 311              		.loc 1 98 0
 312 0068 9968     		ldr	r1, [r3, #8]
 313 006a 40F2000E 		movw	lr, #:lower16:.LC2
 314 006e 4A1E     		subs	r2, r1, #1
 315              		.loc 1 97 0
 316 0070 C4F800C0 		str	ip, [r4, #0]
 317              		.loc 1 98 0
 318 0074 2B46     		mov	r3, r5
 319 0076 C0F2000E 		movt	lr, #:upper16:.LC2
 320 007a 3069     		ldr	r0, [r6, #16]
 321 007c 4FF40471 		mov	r1, #528
 322 0080 CDF800E0 		str	lr, [sp, #0]
 323 0084 FFF7FEFF 		bl	chThdCreateStatic
 324              		.loc 1 99 0
 325 0088 BA69     		ldr	r2, [r7, #24]
 326              		.loc 1 98 0
 327 008a 8446     		mov	ip, r0
 328              		.loc 1 99 0
 329 008c 9168     		ldr	r1, [r2, #8]
 330 008e 40F2000E 		movw	lr, #:lower16:.LC3
 331 0092 2B46     		mov	r3, r5
 332 0094 8A1E     		subs	r2, r1, #2
 333              		.loc 1 98 0
 334 0096 C4F810C0 		str	ip, [r4, #16]
 335              		.loc 1 99 0
 336 009a C0F2000E 		movt	lr, #:upper16:.LC3
 337 009e F068     		ldr	r0, [r6, #12]
 338 00a0 4FF40471 		mov	r1, #528
 339 00a4 CDF800E0 		str	lr, [sp, #0]
 340 00a8 FFF7FEFF 		bl	chThdCreateStatic
ARM GAS  /tmp/cc2eB1jY.s 			page 7


 341              	.LBB6:
 342              		.loc 1 101 0
 343 00ac 2023     		movs	r3, #32
 344              	.LVL22:
 345              	.LBE6:
 346              		.loc 1 99 0
 347 00ae E060     		str	r0, [r4, #12]
 348              	.LBB7:
 349              		.loc 1 101 0
 350              	@ 101 "../../ChibiOS/test/testthd.c" 1
 351 00b0 83F31188 		msr     BASEPRI, r3
 352              	@ 0 "" 2
 353              	.LVL23:
 354              		.thumb
 355              	.LBE7:
 356 00b4 FFF7FEFF 		bl	dbg_check_lock
 357              	.LVL24:
 358              		.loc 1 102 0
 359 00b8 BB69     		ldr	r3, [r7, #24]
 360 00ba 4FF40471 		mov	r1, #528
 361 00be 9A68     		ldr	r2, [r3, #8]
 362 00c0 2B46     		mov	r3, r5
 363 00c2 40F20005 		movw	r5, #:lower16:.LC4
 364 00c6 033A     		subs	r2, r2, #3
 365 00c8 B068     		ldr	r0, [r6, #8]
 366 00ca C0F20005 		movt	r5, #:upper16:.LC4
 367 00ce 0095     		str	r5, [sp, #0]
 368 00d0 FFF7FEFF 		bl	chThdCreateI
 369 00d4 A060     		str	r0, [r4, #8]
 370              		.loc 1 103 0
 371 00d6 FFF7FEFF 		bl	dbg_check_unlock
 372              	.LBB8:
 373 00da 0023     		movs	r3, #0
 374              	.LVL25:
 375              	@ 103 "../../ChibiOS/test/testthd.c" 1
 376 00dc 83F31188 		msr     BASEPRI, r3
 377              	@ 0 "" 2
 378              	.LVL26:
 379              		.thumb
 380              	.LBE8:
 381              		.loc 1 104 0
 382 00e0 A068     		ldr	r0, [r4, #8]
 383 00e2 FFF7FEFF 		bl	chThdResume
 384              	.LVL27:
 385              		.loc 1 105 0
 386 00e6 FFF7FEFF 		bl	test_wait_threads
 387              		.loc 1 106 0
 388 00ea 40F20001 		movw	r1, #:lower16:.LC5
 389 00ee C0F20001 		movt	r1, #:upper16:.LC5
 390 00f2 0120     		movs	r0, #1
 391              		.loc 1 107 0
 392 00f4 03B0     		add	sp, sp, #12
 393 00f6 BDE8F040 		pop	{r4, r5, r6, r7, lr}
 394              		.loc 1 106 0
 395 00fa FFF7FEBF 		b	_test_assert_sequence
 396              		.cfi_endproc
 397              	.LFE9:
ARM GAS  /tmp/cc2eB1jY.s 			page 8


 398              		.size	thd2_execute, .-thd2_execute
 399 00fe 00BF     		.section	.text.thd1_execute,"ax",%progbits
 400              		.align	2
 401              		.p2align 4,,15
 402              		.thumb
 403              		.thumb_func
 404              		.type	thd1_execute, %function
 405              	thd1_execute:
 406              	.LFB8:
 407              		.loc 1 66 0
 408              		.cfi_startproc
 409              		@ args = 0, pretend = 0, frame = 0
 410              		@ frame_needed = 0, uses_anonymous_args = 0
 411 0000 F0B5     		push	{r4, r5, r6, r7, lr}
 412              	.LCFI3:
 413              		.cfi_def_cfa_offset 20
 414              		.cfi_offset 14, -4
 415              		.cfi_offset 7, -8
 416              		.cfi_offset 6, -12
 417              		.cfi_offset 5, -16
 418              		.cfi_offset 4, -20
 419              		.loc 1 68 0
 420 0002 40F20007 		movw	r7, #:lower16:rlist
 421 0006 C0F20007 		movt	r7, #:upper16:rlist
 422 000a B869     		ldr	r0, [r7, #24]
 423 000c 40F20006 		movw	r6, #:lower16:wa
 424 0010 8368     		ldr	r3, [r0, #8]
 425 0012 40F20005 		movw	r5, #:lower16:thread
 426 0016 C0F20006 		movt	r6, #:upper16:wa
 427 001a C0F20005 		movt	r5, #:upper16:thread
 428 001e 40F20004 		movw	r4, #:lower16:.LC1
 429              		.loc 1 66 0
 430 0022 83B0     		sub	sp, sp, #12
 431              	.LCFI4:
 432              		.cfi_def_cfa_offset 32
 433              		.loc 1 68 0
 434 0024 5A1F     		subs	r2, r3, #5
 435 0026 3068     		ldr	r0, [r6, #0]
 436 0028 2B46     		mov	r3, r5
 437 002a 4FF40471 		mov	r1, #528
 438 002e C0F20004 		movt	r4, #:upper16:.LC1
 439 0032 0094     		str	r4, [sp, #0]
 440 0034 FFF7FEFF 		bl	chThdCreateStatic
 441              		.loc 1 69 0
 442 0038 BC69     		ldr	r4, [r7, #24]
 443              		.loc 1 68 0
 444 003a 8646     		mov	lr, r0
 445              		.loc 1 69 0
 446 003c A168     		ldr	r1, [r4, #8]
 447              		.loc 1 68 0
 448 003e 40F20004 		movw	r4, #:lower16:threads
 449 0042 C0F20004 		movt	r4, #:upper16:threads
 450              		.loc 1 69 0
 451 0046 40F2000C 		movw	ip, #:lower16:.LC0
 452 004a 0A1F     		subs	r2, r1, #4
 453              		.loc 1 68 0
 454 004c C4F800E0 		str	lr, [r4, #0]
ARM GAS  /tmp/cc2eB1jY.s 			page 9


 455              		.loc 1 69 0
 456 0050 2B46     		mov	r3, r5
 457 0052 C0F2000C 		movt	ip, #:upper16:.LC0
 458 0056 7068     		ldr	r0, [r6, #4]
 459 0058 4FF40471 		mov	r1, #528
 460 005c CDF800C0 		str	ip, [sp, #0]
 461 0060 FFF7FEFF 		bl	chThdCreateStatic
 462              		.loc 1 70 0
 463 0064 BA69     		ldr	r2, [r7, #24]
 464              		.loc 1 69 0
 465 0066 8646     		mov	lr, r0
 466              		.loc 1 70 0
 467 0068 9368     		ldr	r3, [r2, #8]
 468 006a 40F2000C 		movw	ip, #:lower16:.LC4
 469 006e DA1E     		subs	r2, r3, #3
 470              		.loc 1 69 0
 471 0070 C4F804E0 		str	lr, [r4, #4]
 472              		.loc 1 70 0
 473 0074 2B46     		mov	r3, r5
 474 0076 C0F2000C 		movt	ip, #:upper16:.LC4
 475 007a B068     		ldr	r0, [r6, #8]
 476 007c 4FF40471 		mov	r1, #528
 477 0080 CDF800C0 		str	ip, [sp, #0]
 478 0084 FFF7FEFF 		bl	chThdCreateStatic
 479              		.loc 1 71 0
 480 0088 B969     		ldr	r1, [r7, #24]
 481              		.loc 1 70 0
 482 008a 8646     		mov	lr, r0
 483              		.loc 1 71 0
 484 008c 8A68     		ldr	r2, [r1, #8]
 485 008e 40F2000C 		movw	ip, #:lower16:.LC3
 486 0092 C0F2000C 		movt	ip, #:upper16:.LC3
 487              		.loc 1 70 0
 488 0096 C4F808E0 		str	lr, [r4, #8]
 489              		.loc 1 71 0
 490 009a 023A     		subs	r2, r2, #2
 491 009c 2B46     		mov	r3, r5
 492 009e F068     		ldr	r0, [r6, #12]
 493 00a0 4FF40471 		mov	r1, #528
 494 00a4 CDF800C0 		str	ip, [sp, #0]
 495 00a8 FFF7FEFF 		bl	chThdCreateStatic
 496              		.loc 1 72 0
 497 00ac BB69     		ldr	r3, [r7, #24]
 498              		.loc 1 71 0
 499 00ae 8646     		mov	lr, r0
 500              		.loc 1 72 0
 501 00b0 9A68     		ldr	r2, [r3, #8]
 502 00b2 2B46     		mov	r3, r5
 503 00b4 40F20005 		movw	r5, #:lower16:.LC2
 504              		.loc 1 71 0
 505 00b8 C4F80CE0 		str	lr, [r4, #12]
 506              		.loc 1 72 0
 507 00bc 4FF40471 		mov	r1, #528
 508 00c0 013A     		subs	r2, r2, #1
 509 00c2 3069     		ldr	r0, [r6, #16]
 510 00c4 C0F20005 		movt	r5, #:upper16:.LC2
 511 00c8 0095     		str	r5, [sp, #0]
ARM GAS  /tmp/cc2eB1jY.s 			page 10


 512 00ca FFF7FEFF 		bl	chThdCreateStatic
 513 00ce 2061     		str	r0, [r4, #16]
 514              		.loc 1 73 0
 515 00d0 FFF7FEFF 		bl	test_wait_threads
 516              		.loc 1 74 0
 517 00d4 40F20001 		movw	r1, #:lower16:.LC5
 518 00d8 C0F20001 		movt	r1, #:upper16:.LC5
 519 00dc 0120     		movs	r0, #1
 520              		.loc 1 75 0
 521 00de 03B0     		add	sp, sp, #12
 522 00e0 BDE8F040 		pop	{r4, r5, r6, r7, lr}
 523              		.loc 1 74 0
 524 00e4 FFF7FEBF 		b	_test_assert_sequence
 525              		.cfi_endproc
 526              	.LFE8:
 527              		.size	thd1_execute, .-thd1_execute
 528 00e8 AFF30080 		.section	.text.thread,"ax",%progbits
 528      AFF30080 
 529              		.align	2
 530              		.p2align 4,,15
 531              		.thumb
 532              		.thumb_func
 533              		.type	thread, %function
 534              	thread:
 535              	.LFB7:
 536              		.loc 1 60 0
 537              		.cfi_startproc
 538              		@ args = 0, pretend = 0, frame = 0
 539              		@ frame_needed = 0, uses_anonymous_args = 0
 540              	.LVL28:
 541 0000 08B5     		push	{r3, lr}
 542              	.LCFI5:
 543              		.cfi_def_cfa_offset 8
 544              		.cfi_offset 14, -4
 545              		.cfi_offset 3, -8
 546              		.loc 1 62 0
 547 0002 0078     		ldrb	r0, [r0, #0]	@ zero_extendqisi2
 548              	.LVL29:
 549 0004 FFF7FEFF 		bl	test_emit_token
 550              		.loc 1 64 0
 551 0008 0020     		movs	r0, #0
 552 000a 08BD     		pop	{r3, pc}
 553              		.cfi_endproc
 554              	.LFE7:
 555              		.size	thread, .-thread
 556 000c AFF30080 		.section	.text.thd4_execute,"ax",%progbits
 557              		.align	2
 558              		.p2align 4,,15
 559              		.thumb
 560              		.thumb_func
 561              		.type	thd4_execute, %function
 562              	thd4_execute:
 563              	.LFB11:
 564              		.loc 1 189 0
 565              		.cfi_startproc
 566              		@ args = 0, pretend = 0, frame = 0
 567              		@ frame_needed = 0, uses_anonymous_args = 0
ARM GAS  /tmp/cc2eB1jY.s 			page 11


 568 0000 38B5     		push	{r3, r4, r5, lr}
 569              	.LCFI6:
 570              		.cfi_def_cfa_offset 16
 571              		.cfi_offset 14, -4
 572              		.cfi_offset 5, -8
 573              		.cfi_offset 4, -12
 574              		.cfi_offset 3, -16
 575              		.loc 1 195 0
 576 0002 1C4C     		ldr	r4, .L13
 577              		.loc 1 192 0
 578 0004 FFF7FEFF 		bl	test_wait_tick
 579              		.loc 1 195 0
 580 0008 E568     		ldr	r5, [r4, #12]
 581              	.LVL30:
 582              		.loc 1 196 0
 583 000a 6420     		movs	r0, #100
 584 000c FFF7FEFF 		bl	chThdSleep
 585              		.loc 1 197 0
 586 0010 05F16401 		add	r1, r5, #100
 587 0014 05F16502 		add	r2, r5, #101
 588 0018 0120     		movs	r0, #1
 589 001a FFF7FEFF 		bl	_test_assert_time_window
 590 001e 00B1     		cbz	r0, .L12
 591              	.LVL31:
 592              	.L10:
 593 0020 38BD     		pop	{r3, r4, r5, pc}
 594              	.LVL32:
 595              	.L12:
 596              		.loc 1 200 0
 597 0022 E568     		ldr	r5, [r4, #12]
 598              	.LVL33:
 599              		.loc 1 201 0
 600 0024 6420     		movs	r0, #100
 601 0026 FFF7FEFF 		bl	chThdSleep
 602              		.loc 1 202 0
 603 002a 05F16401 		add	r1, r5, #100
 604 002e 05F16502 		add	r2, r5, #101
 605 0032 0220     		movs	r0, #2
 606 0034 FFF7FEFF 		bl	_test_assert_time_window
 607 0038 0028     		cmp	r0, #0
 608 003a F1D1     		bne	.L10
 609              	.LBB11:
 610              	.LBB12:
 611              		.loc 1 205 0
 612 003c E568     		ldr	r5, [r4, #12]
 613              	.LVL34:
 614              		.loc 1 206 0
 615 003e 4FF47A70 		mov	r0, #1000
 616 0042 FFF7FEFF 		bl	chThdSleep
 617              		.loc 1 207 0
 618 0046 05F57A71 		add	r1, r5, #1000
 619 004a 4A1C     		adds	r2, r1, #1
 620 004c 0320     		movs	r0, #3
 621 004e FFF7FEFF 		bl	_test_assert_time_window
 622 0052 0028     		cmp	r0, #0
 623 0054 E4D1     		bne	.L10
 624              		.loc 1 210 0
ARM GAS  /tmp/cc2eB1jY.s 			page 12


 625 0056 E568     		ldr	r5, [r4, #12]
 626              	.LVL35:
 627 0058 05F16404 		add	r4, r5, #100
 628              	.LVL36:
 629              		.loc 1 211 0
 630 005c 2046     		mov	r0, r4
 631 005e FFF7FEFF 		bl	chThdSleepUntil
 632              		.loc 1 212 0
 633 0062 05F16502 		add	r2, r5, #101
 634 0066 0420     		movs	r0, #4
 635 0068 2146     		mov	r1, r4
 636              	.LBE12:
 637              	.LBE11:
 638              		.loc 1 213 0
 639 006a BDE83840 		pop	{r3, r4, r5, lr}
 640              	.LBB14:
 641              	.LBB13:
 642              		.loc 1 212 0
 643 006e FFF7FEBF 		b	_test_assert_time_window
 644              	.L14:
 645 0072 00BF     		.align	2
 646              	.L13:
 647 0074 00000000 		.word	vtlist
 648              	.LBE13:
 649              	.LBE14:
 650              		.cfi_endproc
 651              	.LFE11:
 652              		.size	thd4_execute, .-thd4_execute
 653              		.global	patternthd
 654              		.global	testthd4
 655              		.global	testthd3
 656              		.global	testthd2
 657              		.global	testthd1
 658 0078 AFF30080 		.section	.rodata.testthd1,"a",%progbits
 658      AFF30080 
 659              		.align	2
 660              		.type	testthd1, %object
 661              		.size	testthd1, 16
 662              	testthd1:
 663 0000 64000000 		.word	.LC9
 664 0004 00000000 		.word	0
 665 0008 00000000 		.word	0
 666 000c 00000000 		.word	thd1_execute
 667              		.section	.rodata.testthd2,"a",%progbits
 668              		.align	2
 669              		.type	testthd2, %object
 670              		.size	testthd2, 16
 671              	testthd2:
 672 0000 48000000 		.word	.LC8
 673 0004 00000000 		.word	0
 674 0008 00000000 		.word	0
 675 000c 00000000 		.word	thd2_execute
 676              		.section	.rodata.testthd3,"a",%progbits
 677              		.align	2
 678              		.type	testthd3, %object
 679              		.size	testthd3, 16
 680              	testthd3:
ARM GAS  /tmp/cc2eB1jY.s 			page 13


 681 0000 2C000000 		.word	.LC7
 682 0004 00000000 		.word	0
 683 0008 00000000 		.word	0
 684 000c 00000000 		.word	thd3_execute
 685              		.section	.rodata.testthd4,"a",%progbits
 686              		.align	2
 687              		.type	testthd4, %object
 688              		.size	testthd4, 16
 689              	testthd4:
 690 0000 1C000000 		.word	.LC6
 691 0004 00000000 		.word	0
 692 0008 00000000 		.word	0
 693 000c 00000000 		.word	thd4_execute
 694              		.section	.rodata.patternthd,"a",%progbits
 695              		.align	2
 696              		.type	patternthd, %object
 697              		.size	patternthd, 20
 698              	patternthd:
 699 0000 00000000 		.word	testthd1
 700 0004 00000000 		.word	testthd2
 701 0008 00000000 		.word	testthd3
 702 000c 00000000 		.word	testthd4
 703 0010 00000000 		.word	0
 704              		.section	.rodata.str1.4,"aMS",%progbits,1
 705              		.align	2
 706              	.LC0:
 707 0000 4400     		.ascii	"D\000"
 708 0002 0000     		.space	2
 709              	.LC1:
 710 0004 4500     		.ascii	"E\000"
 711 0006 0000     		.space	2
 712              	.LC2:
 713 0008 4100     		.ascii	"A\000"
 714 000a 0000     		.space	2
 715              	.LC3:
 716 000c 4200     		.ascii	"B\000"
 717 000e 0000     		.space	2
 718              	.LC4:
 719 0010 4300     		.ascii	"C\000"
 720 0012 0000     		.space	2
 721              	.LC5:
 722 0014 41424344 		.ascii	"ABCDE\000"
 722      4500
 723 001a 0000     		.space	2
 724              	.LC6:
 725 001c 54687265 		.ascii	"Threads, delays\000"
 725      6164732C 
 725      2064656C 
 725      61797300 
 726              	.LC7:
 727 002c 54687265 		.ascii	"Threads, priority change\000"
 727      6164732C 
 727      20707269 
 727      6F726974 
 727      79206368 
 728 0045 000000   		.space	3
 729              	.LC8:
ARM GAS  /tmp/cc2eB1jY.s 			page 14


 730 0048 54687265 		.ascii	"Threads, enqueuing test #2\000"
 730      6164732C 
 730      20656E71 
 730      75657569 
 730      6E672074 
 731 0063 00       		.space	1
 732              	.LC9:
 733 0064 54687265 		.ascii	"Threads, enqueuing test #1\000"
 733      6164732C 
 733      20656E71 
 733      75657569 
 733      6E672074 
 734 007f 00       		.text
 735              	.Letext0:
 736              		.file 2 "/home/tino/ChibiStudio/tools/GNU Tools ARM Embedded/4.6 2012q2/bin/../lib/gcc/arm-none-ea
 737              		.file 3 "../../ChibiOS/os/ports/GCC/ARMCMx/chtypes.h"
 738              		.file 4 "../../ChibiOS/os/kernel/include/chlists.h"
 739              		.file 5 "../../ChibiOS/os/kernel/include/chthreads.h"
 740              		.file 6 "../../ChibiOS/os/ports/GCC/ARMCMx/chcore_v7m.h"
 741              		.file 7 "../../ChibiOS/os/kernel/include/chvt.h"
 742              		.file 8 "../../ChibiOS/os/kernel/include/chschd.h"
 743              		.file 9 "../../ChibiOS/os/kernel/include/chmtx.h"
 744              		.file 10 "../../ChibiOS/test/test.h"