ARM GAS  /tmp/ccha5Aix.s 			page 1


   1              		.syntax unified
   2              		.cpu cortex-m3
   3              		.fpu softvfp
   4              		.eabi_attribute 20, 1
   5              		.eabi_attribute 21, 1
   6              		.eabi_attribute 23, 3
   7              		.eabi_attribute 24, 1
   8              		.eabi_attribute 25, 1
   9              		.eabi_attribute 26, 1
  10              		.eabi_attribute 30, 2
  11              		.eabi_attribute 34, 1
  12              		.eabi_attribute 18, 4
  13              		.thumb
  14              		.file	"testdyn.c"
  15              		.text
  16              	.Ltext0:
  17              		.cfi_sections	.debug_frame
  18              		.section	.text.regfind,"ax",%progbits
  19              		.align	2
  20              		.p2align 4,,15
  21              		.thumb
  22              		.thumb_func
  23              		.type	regfind, %function
  24              	regfind:
  25              	.LFB12:
  26              		.file 1 "../../ChibiOS/test/testdyn.c"
  27              		.loc 1 191 0
  28              		.cfi_startproc
  29              		@ args = 0, pretend = 0, frame = 0
  30              		@ frame_needed = 0, uses_anonymous_args = 0
  31              	.LVL0:
  32 0000 38B5     		push	{r3, r4, r5, lr}
  33              	.LCFI0:
  34              		.cfi_def_cfa_offset 16
  35              		.cfi_offset 14, -4
  36              		.cfi_offset 5, -8
  37              		.cfi_offset 4, -12
  38              		.cfi_offset 3, -16
  39              		.loc 1 191 0
  40 0002 0546     		mov	r5, r0
  41              		.loc 1 195 0
  42 0004 FFF7FEFF 		bl	chRegFirstThread
  43              	.LVL1:
  44              		.loc 1 193 0
  45 0008 0024     		movs	r4, #0
  46              		.loc 1 195 0
  47 000a 0346     		mov	r3, r0
  48              	.LVL2:
  49              	.L2:
  50              		.loc 1 198 0 discriminator 1
  51 000c 1846     		mov	r0, r3
  52              	.LVL3:
  53              		.loc 1 197 0 discriminator 1
  54 000e AB42     		cmp	r3, r5
  55 0010 08BF     		it	eq
  56 0012 44F00104 		orreq	r4, r4, #1
  57              	.LVL4:
ARM GAS  /tmp/ccha5Aix.s 			page 2


  58              		.loc 1 198 0 discriminator 1
  59 0016 FFF7FEFF 		bl	chRegNextThread
  60              	.LVL5:
  61 001a 0346     		mov	r3, r0
  62              	.LVL6:
  63              		.loc 1 199 0 discriminator 1
  64 001c 0028     		cmp	r0, #0
  65 001e F5D1     		bne	.L2
  66              		.loc 1 201 0
  67 0020 2046     		mov	r0, r4
  68              	.LVL7:
  69 0022 38BD     		pop	{r3, r4, r5, pc}
  70              		.cfi_endproc
  71              	.LFE12:
  72              		.size	regfind, .-regfind
  73 0024 AFF30080 		.section	.text.thread,"ax",%progbits
  73      AFF30080 
  73      AFF30080 
  74              		.align	2
  75              		.p2align 4,,15
  76              		.thumb
  77              		.thumb_func
  78              		.type	thread, %function
  79              	thread:
  80              	.LFB7:
  81              		.loc 1 71 0
  82              		.cfi_startproc
  83              		@ args = 0, pretend = 0, frame = 0
  84              		@ frame_needed = 0, uses_anonymous_args = 0
  85              	.LVL8:
  86 0000 08B5     		push	{r3, lr}
  87              	.LCFI1:
  88              		.cfi_def_cfa_offset 8
  89              		.cfi_offset 14, -4
  90              		.cfi_offset 3, -8
  91              		.loc 1 73 0
  92 0002 0078     		ldrb	r0, [r0, #0]	@ zero_extendqisi2
  93              	.LVL9:
  94 0004 FFF7FEFF 		bl	test_emit_token
  95              		.loc 1 75 0
  96 0008 0020     		movs	r0, #0
  97 000a 08BD     		pop	{r3, pc}
  98              		.cfi_endproc
  99              	.LFE7:
 100              		.size	thread, .-thread
 101 000c AFF30080 		.section	.text.dyn3_setup,"ax",%progbits
 102              		.align	2
 103              		.p2align 4,,15
 104              		.thumb
 105              		.thumb_func
 106              		.type	dyn3_setup, %function
 107              	dyn3_setup:
 108              	.LFB13:
 109              		.loc 1 203 0
 110              		.cfi_startproc
 111              		@ args = 0, pretend = 0, frame = 0
 112              		@ frame_needed = 0, uses_anonymous_args = 0
ARM GAS  /tmp/ccha5Aix.s 			page 3


 113              		@ link register save eliminated.
 114              		.loc 1 205 0
 115 0000 40F20000 		movw	r0, #:lower16:.LANCHOR0
 116 0004 40F20001 		movw	r1, #:lower16:test
 117 0008 C0F20001 		movt	r1, #:upper16:test
 118 000c C0F20000 		movt	r0, #:upper16:.LANCHOR0
 119 0010 4FF42562 		mov	r2, #2640
 120              		.loc 1 206 0
 121              		.loc 1 205 0
 122 0014 FFF7FEBF 		b	chHeapInit
 123              		.cfi_endproc
 124              	.LFE13:
 125              		.size	dyn3_setup, .-dyn3_setup
 126 0018 AFF30080 		.section	.text.dyn1_setup,"ax",%progbits
 126      AFF30080 
 127              		.align	2
 128              		.p2align 4,,15
 129              		.thumb
 130              		.thumb_func
 131              		.type	dyn1_setup, %function
 132              	dyn1_setup:
 133              	.LFB8:
 134              		.loc 1 78 0
 135              		.cfi_startproc
 136              		@ args = 0, pretend = 0, frame = 0
 137              		@ frame_needed = 0, uses_anonymous_args = 0
 138              		@ link register save eliminated.
 139              		.loc 1 80 0
 140 0000 40F20000 		movw	r0, #:lower16:.LANCHOR0
 141 0004 40F20001 		movw	r1, #:lower16:test
 142 0008 C0F20001 		movt	r1, #:upper16:test
 143 000c C0F20000 		movt	r0, #:upper16:.LANCHOR0
 144 0010 4FF42562 		mov	r2, #2640
 145              		.loc 1 81 0
 146              		.loc 1 80 0
 147 0014 FFF7FEBF 		b	chHeapInit
 148              		.cfi_endproc
 149              	.LFE8:
 150              		.size	dyn1_setup, .-dyn1_setup
 151 0018 AFF30080 		.section	.text.dyn2_execute,"ax",%progbits
 151      AFF30080 
 152              		.align	2
 153              		.p2align 4,,15
 154              		.thumb
 155              		.thumb_func
 156              		.type	dyn2_execute, %function
 157              	dyn2_execute:
 158              	.LFB11:
 159              		.loc 1 141 0
 160              		.cfi_startproc
 161              		@ args = 0, pretend = 0, frame = 0
 162              		@ frame_needed = 0, uses_anonymous_args = 0
 163              		.loc 1 143 0
 164 0000 4648     		ldr	r0, .L16
 165              		.loc 1 141 0
 166 0002 70B5     		push	{r4, r5, r6, lr}
 167              	.LCFI2:
ARM GAS  /tmp/ccha5Aix.s 			page 4


 168              		.cfi_def_cfa_offset 16
 169              		.cfi_offset 14, -4
 170              		.cfi_offset 6, -8
 171              		.cfi_offset 5, -12
 172              		.cfi_offset 4, -16
 173              		.loc 1 147 0
 174 0004 464C     		ldr	r4, .L16+4
 175              		.loc 1 143 0
 176 0006 8369     		ldr	r3, [r0, #24]
 177              		.loc 1 147 0
 178 0008 2168     		ldr	r1, [r4, #0]
 179 000a 4648     		ldr	r0, .L16+8
 180              		.loc 1 143 0
 181 000c 9D68     		ldr	r5, [r3, #8]
 182              	.LVL10:
 183              		.loc 1 147 0
 184 000e FFF7FEFF 		bl	chPoolFree
 185              	.LVL11:
 186 0012 6168     		ldr	r1, [r4, #4]
 187 0014 4348     		ldr	r0, .L16+8
 188 0016 FFF7FEFF 		bl	chPoolFree
 189              	.LVL12:
 190 001a A168     		ldr	r1, [r4, #8]
 191 001c 4148     		ldr	r0, .L16+8
 192 001e FFF7FEFF 		bl	chPoolFree
 193              	.LVL13:
 194 0022 E168     		ldr	r1, [r4, #12]
 195 0024 3F48     		ldr	r0, .L16+8
 196 0026 FFF7FEFF 		bl	chPoolFree
 197              	.LVL14:
 198              		.loc 1 150 0
 199 002a 691E     		subs	r1, r5, #1
 200 002c 3E4A     		ldr	r2, .L16+12
 201 002e 3F4B     		ldr	r3, .L16+16
 202 0030 3C48     		ldr	r0, .L16+8
 203 0032 FFF7FEFF 		bl	chThdCreateFromMemoryPool
 204 0036 3E4C     		ldr	r4, .L16+20
 205 0038 0646     		mov	r6, r0
 206              		.loc 1 151 0
 207 003a A91E     		subs	r1, r5, #2
 208 003c 3A4A     		ldr	r2, .L16+12
 209 003e 3D4B     		ldr	r3, .L16+24
 210              		.loc 1 150 0
 211 0040 2660     		str	r6, [r4, #0]
 212              		.loc 1 151 0
 213 0042 3848     		ldr	r0, .L16+8
 214 0044 FFF7FEFF 		bl	chThdCreateFromMemoryPool
 215 0048 0646     		mov	r6, r0
 216              		.loc 1 152 0
 217 004a E91E     		subs	r1, r5, #3
 218 004c 364A     		ldr	r2, .L16+12
 219 004e 3A4B     		ldr	r3, .L16+28
 220              		.loc 1 151 0
 221 0050 6660     		str	r6, [r4, #4]
 222              		.loc 1 152 0
 223 0052 3448     		ldr	r0, .L16+8
 224 0054 FFF7FEFF 		bl	chThdCreateFromMemoryPool
ARM GAS  /tmp/ccha5Aix.s 			page 5


 225 0058 0646     		mov	r6, r0
 226              		.loc 1 153 0
 227 005a 291F     		subs	r1, r5, #4
 228 005c 324A     		ldr	r2, .L16+12
 229 005e 374B     		ldr	r3, .L16+32
 230              		.loc 1 152 0
 231 0060 A660     		str	r6, [r4, #8]
 232              		.loc 1 153 0
 233 0062 3048     		ldr	r0, .L16+8
 234 0064 FFF7FEFF 		bl	chThdCreateFromMemoryPool
 235 0068 0646     		mov	r6, r0
 236              		.loc 1 154 0
 237 006a 691F     		subs	r1, r5, #5
 238 006c 2D48     		ldr	r0, .L16+8
 239 006e 2E4A     		ldr	r2, .L16+12
 240 0070 334B     		ldr	r3, .L16+36
 241              		.loc 1 153 0
 242 0072 E660     		str	r6, [r4, #12]
 243              		.loc 1 154 0
 244 0074 FFF7FEFF 		bl	chThdCreateFromMemoryPool
 245              		.loc 1 156 0
 246 0078 2168     		ldr	r1, [r4, #0]
 247              		.loc 1 154 0
 248 007a 2061     		str	r0, [r4, #16]
 249              		.loc 1 156 0
 250 007c 49B1     		cbz	r1, .L9
 251              		.loc 1 156 0 is_stmt 0 discriminator 1
 252 007e 6168     		ldr	r1, [r4, #4]
 253 0080 39B1     		cbz	r1, .L9
 254              		.loc 1 156 0 discriminator 3
 255 0082 A168     		ldr	r1, [r4, #8]
 256 0084 29B1     		cbz	r1, .L9
 257              		.loc 1 156 0 discriminator 4
 258 0086 E168     		ldr	r1, [r4, #12]
 259 0088 19B1     		cbz	r1, .L9
 260              		.loc 1 141 0 is_stmt 1 discriminator 5
 261 008a D0F10101 		rsbs	r1, r0, #1
 262 008e 38BF     		it	cc
 263 0090 0021     		movcc	r1, #0
 264              	.L9:
 265              		.loc 1 156 0 discriminator 7
 266 0092 0120     		movs	r0, #1
 267 0094 FFF7FEFF 		bl	_test_assert
 268 0098 00B1     		cbz	r0, .L15
 269              	.LVL15:
 270              	.L8:
 271 009a 70BD     		pop	{r4, r5, r6, pc}
 272              	.LVL16:
 273              	.L15:
 274              		.loc 1 164 0
 275 009c FFF7FEFF 		bl	test_wait_threads
 276              		.loc 1 165 0
 277 00a0 0220     		movs	r0, #2
 278 00a2 2849     		ldr	r1, .L16+40
 279 00a4 FFF7FEFF 		bl	_test_assert_sequence
 280 00a8 0028     		cmp	r0, #0
 281 00aa F6D1     		bne	.L8
ARM GAS  /tmp/ccha5Aix.s 			page 6


 282              		.loc 1 169 0
 283 00ac 1D48     		ldr	r0, .L16+8
 284 00ae FFF7FEFF 		bl	chPoolAlloc
 285 00b2 011C     		adds	r1, r0, #0
 286 00b4 18BF     		it	ne
 287 00b6 0121     		movne	r1, #1
 288 00b8 0320     		movs	r0, #3
 289 00ba FFF7FEFF 		bl	_test_assert
 290 00be 0028     		cmp	r0, #0
 291 00c0 EBD1     		bne	.L8
 292              	.LVL17:
 293 00c2 1848     		ldr	r0, .L16+8
 294 00c4 FFF7FEFF 		bl	chPoolAlloc
 295 00c8 011C     		adds	r1, r0, #0
 296 00ca 18BF     		it	ne
 297 00cc 0121     		movne	r1, #1
 298 00ce 0320     		movs	r0, #3
 299 00d0 FFF7FEFF 		bl	_test_assert
 300 00d4 0028     		cmp	r0, #0
 301 00d6 E0D1     		bne	.L8
 302 00d8 1248     		ldr	r0, .L16+8
 303 00da FFF7FEFF 		bl	chPoolAlloc
 304 00de 011C     		adds	r1, r0, #0
 305 00e0 18BF     		it	ne
 306 00e2 0121     		movne	r1, #1
 307 00e4 0320     		movs	r0, #3
 308 00e6 FFF7FEFF 		bl	_test_assert
 309 00ea 0028     		cmp	r0, #0
 310 00ec D5D1     		bne	.L8
 311 00ee 0D48     		ldr	r0, .L16+8
 312 00f0 FFF7FEFF 		bl	chPoolAlloc
 313 00f4 011C     		adds	r1, r0, #0
 314 00f6 18BF     		it	ne
 315 00f8 0121     		movne	r1, #1
 316 00fa 0320     		movs	r0, #3
 317 00fc FFF7FEFF 		bl	_test_assert
 318 0100 0028     		cmp	r0, #0
 319 0102 CAD1     		bne	.L8
 320              		.loc 1 170 0
 321 0104 0748     		ldr	r0, .L16+8
 322 0106 FFF7FEFF 		bl	chPoolAlloc
 323 010a D0F10101 		rsbs	r1, r0, #1
 324 010e 38BF     		it	cc
 325 0110 0021     		movcc	r1, #0
 326 0112 0420     		movs	r0, #4
 327              		.loc 1 171 0
 328 0114 BDE87040 		pop	{r4, r5, r6, lr}
 329              		.loc 1 170 0
 330 0118 FFF7FEBF 		b	_test_assert
 331              	.L17:
 332              		.align	2
 333              	.L16:
 334 011c 00000000 		.word	rlist
 335 0120 00000000 		.word	wa
 336 0124 00000000 		.word	.LANCHOR1
 337 0128 00000000 		.word	thread
 338 012c 00000000 		.word	.LC0
ARM GAS  /tmp/ccha5Aix.s 			page 7


 339 0130 00000000 		.word	threads
 340 0134 04000000 		.word	.LC1
 341 0138 08000000 		.word	.LC2
 342 013c 0C000000 		.word	.LC3
 343 0140 10000000 		.word	.LC4
 344 0144 14000000 		.word	.LC5
 345              		.cfi_endproc
 346              	.LFE11:
 347              		.size	dyn2_execute, .-dyn2_execute
 348 0148 AFF30080 		.section	.text.dyn2_setup,"ax",%progbits
 348      AFF30080 
 349              		.align	2
 350              		.p2align 4,,15
 351              		.thumb
 352              		.thumb_func
 353              		.type	dyn2_setup, %function
 354              	dyn2_setup:
 355              	.LFB10:
 356              		.loc 1 136 0
 357              		.cfi_startproc
 358              		@ args = 0, pretend = 0, frame = 0
 359              		@ frame_needed = 0, uses_anonymous_args = 0
 360              		@ link register save eliminated.
 361              		.loc 1 138 0
 362 0000 40F20000 		movw	r0, #:lower16:.LANCHOR1
 363 0004 C0F20000 		movt	r0, #:upper16:.LANCHOR1
 364 0008 4FF40471 		mov	r1, #528
 365 000c 0022     		movs	r2, #0
 366              		.loc 1 139 0
 367              		.loc 1 138 0
 368 000e FFF7FEBF 		b	chPoolInit
 369              		.cfi_endproc
 370              	.LFE10:
 371              		.size	dyn2_setup, .-dyn2_setup
 372 0012 00BFAFF3 		.section	.text.dyn1_execute,"ax",%progbits
 372      0080AFF3 
 372      0080AFF3 
 372      0080
 373              		.align	2
 374              		.p2align 4,,15
 375              		.thumb
 376              		.thumb_func
 377              		.type	dyn1_execute, %function
 378              	dyn1_execute:
 379              	.LFB9:
 380              		.loc 1 83 0
 381              		.cfi_startproc
 382              		@ args = 0, pretend = 0, frame = 8
 383              		@ frame_needed = 0, uses_anonymous_args = 0
 384 0000 70B5     		push	{r4, r5, r6, lr}
 385              	.LCFI3:
 386              		.cfi_def_cfa_offset 16
 387              		.cfi_offset 14, -4
 388              		.cfi_offset 6, -8
 389              		.cfi_offset 5, -12
 390              		.cfi_offset 4, -16
 391              		.loc 1 86 0
ARM GAS  /tmp/ccha5Aix.s 			page 8


 392 0002 3749     		ldr	r1, .L28
 393              		.loc 1 83 0
 394 0004 84B0     		sub	sp, sp, #16
 395              	.LCFI4:
 396              		.cfi_def_cfa_offset 32
 397              		.loc 1 86 0
 398 0006 8869     		ldr	r0, [r1, #24]
 399              		.loc 1 90 0
 400 0008 364E     		ldr	r6, .L28+4
 401              		.loc 1 86 0
 402 000a 8568     		ldr	r5, [r0, #8]
 403              	.LVL18:
 404              		.loc 1 88 0
 405 000c 03A9     		add	r1, sp, #12
 406              	.LVL19:
 407 000e 3648     		ldr	r0, .L28+8
 408 0010 FFF7FEFF 		bl	chHeapStatus
 409              	.LVL20:
 410              		.loc 1 90 0
 411 0014 6A1E     		subs	r2, r5, #1
 412 0016 4FF40471 		mov	r1, #528
 413 001a 344B     		ldr	r3, .L28+12
 414 001c 3248     		ldr	r0, .L28+8
 415 001e 0096     		str	r6, [sp, #0]
 416 0020 FFF7FEFF 		bl	chThdCreateFromHeap
 417 0024 324C     		ldr	r4, .L28+16
 418 0026 0646     		mov	r6, r0
 419 0028 2660     		str	r6, [r4, #0]
 420              		.loc 1 92 0
 421 002a 324E     		ldr	r6, .L28+20
 422 002c 2F4B     		ldr	r3, .L28+12
 423 002e AA1E     		subs	r2, r5, #2
 424 0030 4FF40471 		mov	r1, #528
 425 0034 2C48     		ldr	r0, .L28+8
 426 0036 0096     		str	r6, [sp, #0]
 427 0038 FFF7FEFF 		bl	chThdCreateFromHeap
 428              		.loc 1 95 0
 429 003c 02A9     		add	r1, sp, #8
 430              		.loc 1 92 0
 431 003e 0246     		mov	r2, r0
 432              		.loc 1 95 0
 433 0040 2948     		ldr	r0, .L28+8
 434              		.loc 1 92 0
 435 0042 6260     		str	r2, [r4, #4]
 436              		.loc 1 95 0
 437 0044 FFF7FEFF 		bl	chHeapStatus
 438              	.LVL21:
 439              		.loc 1 96 0
 440 0048 0299     		ldr	r1, [sp, #8]
 441 004a 2748     		ldr	r0, .L28+8
 442 004c FFF7FEFF 		bl	chHeapAlloc
 443              		.loc 1 97 0
 444 0050 EA1E     		subs	r2, r5, #3
 445 0052 294D     		ldr	r5, .L28+24
 446              	.LVL22:
 447 0054 4FF40471 		mov	r1, #528
 448              		.loc 1 96 0
ARM GAS  /tmp/ccha5Aix.s 			page 9


 449 0058 0646     		mov	r6, r0
 450              	.LVL23:
 451              		.loc 1 97 0
 452 005a 244B     		ldr	r3, .L28+12
 453 005c 2248     		ldr	r0, .L28+8
 454              	.LVL24:
 455 005e 0095     		str	r5, [sp, #0]
 456 0060 FFF7FEFF 		bl	chThdCreateFromHeap
 457              	.LVL25:
 458 0064 0346     		mov	r3, r0
 459              		.loc 1 99 0
 460 0066 3046     		mov	r0, r6
 461              		.loc 1 97 0
 462 0068 A360     		str	r3, [r4, #8]
 463              		.loc 1 99 0
 464 006a FFF7FEFF 		bl	chHeapFree
 465              		.loc 1 101 0
 466 006e 2168     		ldr	r1, [r4, #0]
 467 0070 29B1     		cbz	r1, .L20
 468              		.loc 1 101 0 is_stmt 0 discriminator 1
 469 0072 6168     		ldr	r1, [r4, #4]
 470 0074 19B1     		cbz	r1, .L20
 471              		.loc 1 101 0 discriminator 3
 472 0076 A168     		ldr	r1, [r4, #8]
 473 0078 0029     		cmp	r1, #0
 474 007a 28D0     		beq	.L26
 475              		.loc 1 101 0
 476 007c 0021     		movs	r1, #0
 477              	.L20:
 478              		.loc 1 101 0 discriminator 7
 479 007e 0120     		movs	r0, #1
 480 0080 FFF7FEFF 		bl	_test_assert
 481 0084 08B1     		cbz	r0, .L27
 482              	.LVL26:
 483              	.L19:
 484              		.loc 1 115 0 is_stmt 1
 485 0086 04B0     		add	sp, sp, #16
 486 0088 70BD     		pop	{r4, r5, r6, pc}
 487              	.LVL27:
 488              	.L27:
 489              		.loc 1 109 0
 490 008a FFF7FEFF 		bl	test_wait_threads
 491              		.loc 1 110 0
 492 008e 0220     		movs	r0, #2
 493 0090 1A49     		ldr	r1, .L28+28
 494 0092 FFF7FEFF 		bl	_test_assert_sequence
 495 0096 0028     		cmp	r0, #0
 496 0098 F5D1     		bne	.L19
 497              		.loc 1 113 0
 498 009a 02A9     		add	r1, sp, #8
 499 009c 1248     		ldr	r0, .L28+8
 500 009e FFF7FEFF 		bl	chHeapStatus
 501 00a2 A0F10101 		sub	r1, r0, #1
 502 00a6 4842     		rsbs	r0, r1, #0
 503 00a8 40EB0101 		adc	r1, r0, r1
 504 00ac 0320     		movs	r0, #3
 505 00ae FFF7FEFF 		bl	_test_assert
ARM GAS  /tmp/ccha5Aix.s 			page 10


 506 00b2 0028     		cmp	r0, #0
 507 00b4 E7D1     		bne	.L19
 508              		.loc 1 114 0
 509 00b6 0298     		ldr	r0, [sp, #8]
 510              	.LVL28:
 511 00b8 039B     		ldr	r3, [sp, #12]
 512 00ba C3EB000C 		rsb	ip, r3, r0
 513 00be DCF10002 		rsbs	r2, ip, #0
 514 00c2 42EB0C01 		adc	r1, r2, ip
 515 00c6 0420     		movs	r0, #4
 516 00c8 FFF7FEFF 		bl	_test_assert
 517 00cc DBE7     		b	.L19
 518              	.LVL29:
 519              	.L26:
 520              		.loc 1 101 0 discriminator 4
 521 00ce E368     		ldr	r3, [r4, #12]
 522 00d0 002B     		cmp	r3, #0
 523 00d2 D4D1     		bne	.L20
 524              		.loc 1 83 0 discriminator 5
 525 00d4 2269     		ldr	r2, [r4, #16]
 526 00d6 D2F10101 		rsbs	r1, r2, #1
 527 00da 38BF     		it	cc
 528 00dc 0021     		movcc	r1, #0
 529 00de CEE7     		b	.L20
 530              	.L29:
 531              		.align	2
 532              	.L28:
 533 00e0 00000000 		.word	rlist
 534 00e4 00000000 		.word	.LC0
 535 00e8 00000000 		.word	.LANCHOR0
 536 00ec 00000000 		.word	thread
 537 00f0 00000000 		.word	threads
 538 00f4 04000000 		.word	.LC1
 539 00f8 08000000 		.word	.LC2
 540 00fc 1C000000 		.word	.LC6
 541              		.cfi_endproc
 542              	.LFE9:
 543              		.size	dyn1_execute, .-dyn1_execute
 544              		.section	.text.dyn3_execute,"ax",%progbits
 545              		.align	2
 546              		.p2align 4,,15
 547              		.thumb
 548              		.thumb_func
 549              		.type	dyn3_execute, %function
 550              	dyn3_execute:
 551              	.LFB14:
 552              		.loc 1 208 0
 553              		.cfi_startproc
 554              		@ args = 0, pretend = 0, frame = 0
 555              		@ frame_needed = 0, uses_anonymous_args = 0
 556              	.LVL30:
 557              		.loc 1 210 0
 558 0000 5949     		ldr	r1, .L37
 559              		.loc 1 208 0
 560 0002 70B5     		push	{r4, r5, r6, lr}
 561              	.LCFI5:
 562              		.cfi_def_cfa_offset 16
ARM GAS  /tmp/ccha5Aix.s 			page 11


 563              		.cfi_offset 14, -4
 564              		.cfi_offset 6, -8
 565              		.cfi_offset 5, -12
 566              		.cfi_offset 4, -16
 567              		.loc 1 210 0
 568 0004 8A69     		ldr	r2, [r1, #24]
 569              		.loc 1 213 0
 570 0006 594C     		ldr	r4, .L37+4
 571 0008 9068     		ldr	r0, [r2, #8]
 572              		.loc 1 208 0
 573 000a 82B0     		sub	sp, sp, #8
 574              	.LCFI6:
 575              		.cfi_def_cfa_offset 24
 576              		.loc 1 213 0
 577 000c 421E     		subs	r2, r0, #1
 578 000e 4FF40471 		mov	r1, #528
 579 0012 574B     		ldr	r3, .L37+8
 580 0014 5748     		ldr	r0, .L37+12
 581 0016 0094     		str	r4, [sp, #0]
 582 0018 FFF7FEFF 		bl	chThdCreateFromHeap
 583              	.LVL31:
 584              		.loc 1 214 0
 585 001c 90F82230 		ldrb	r3, [r0, #34]	@ zero_extendqisi2
 586              		.loc 1 213 0
 587 0020 0446     		mov	r4, r0
 588              	.LVL32:
 589              		.loc 1 214 0
 590 0022 0120     		movs	r0, #1
 591              	.LVL33:
 592 0024 1A1A     		subs	r2, r3, r0
 593 0026 5142     		rsbs	r1, r2, #0
 594 0028 41EB0201 		adc	r1, r1, r2
 595 002c FFF7FEFF 		bl	_test_assert
 596 0030 08B1     		cbz	r0, .L36
 597              	.L30:
 598              		.loc 1 236 0
 599 0032 02B0     		add	sp, sp, #8
 600 0034 70BD     		pop	{r4, r5, r6, pc}
 601              	.L36:
 602              		.loc 1 215 0
 603 0036 2046     		mov	r0, r4
 604 0038 FFF7FEFF 		bl	chThdAddRef
 605              		.loc 1 216 0
 606 003c 94F82230 		ldrb	r3, [r4, #34]	@ zero_extendqisi2
 607 0040 0220     		movs	r0, #2
 608 0042 C0EB030C 		rsb	ip, r0, r3
 609 0046 DCF10002 		rsbs	r2, ip, #0
 610 004a 42EB0C01 		adc	r1, r2, ip
 611 004e FFF7FEFF 		bl	_test_assert
 612 0052 0028     		cmp	r0, #0
 613 0054 EDD1     		bne	.L30
 614              		.loc 1 217 0
 615 0056 2046     		mov	r0, r4
 616 0058 FFF7FEFF 		bl	chThdRelease
 617              		.loc 1 218 0
 618 005c 94F82220 		ldrb	r2, [r4, #34]	@ zero_extendqisi2
 619 0060 0320     		movs	r0, #3
ARM GAS  /tmp/ccha5Aix.s 			page 12


 620 0062 A2F10101 		sub	r1, r2, #1
 621 0066 4E42     		rsbs	r6, r1, #0
 622 0068 46EB0101 		adc	r1, r6, r1
 623 006c FFF7FEFF 		bl	_test_assert
 624 0070 0646     		mov	r6, r0
 625 0072 0028     		cmp	r0, #0
 626 0074 DDD1     		bne	.L30
 627              	.LVL34:
 628              	.LBB6:
 629              	.LBB7:
 630              		.loc 1 195 0
 631 0076 FFF7FEFF 		bl	chRegFirstThread
 632 007a 0546     		mov	r5, r0
 633              	.LVL35:
 634              	.L32:
 635              		.loc 1 198 0
 636 007c 2846     		mov	r0, r5
 637              	.LVL36:
 638 007e FFF7FEFF 		bl	chRegNextThread
 639              		.loc 1 197 0
 640 0082 AC42     		cmp	r4, r5
 641 0084 08BF     		it	eq
 642 0086 46F00106 		orreq	r6, r6, #1
 643              	.LVL37:
 644 008a F6B2     		uxtb	r6, r6
 645              	.LVL38:
 646              		.loc 1 198 0
 647 008c 0546     		mov	r5, r0
 648              	.LVL39:
 649              		.loc 1 199 0
 650 008e 0028     		cmp	r0, #0
 651 0090 F4D1     		bne	.L32
 652              	.LBE7:
 653              	.LBE6:
 654              		.loc 1 221 0
 655 0092 0420     		movs	r0, #4
 656              	.LVL40:
 657 0094 3146     		mov	r1, r6
 658 0096 FFF7FEFF 		bl	_test_assert
 659 009a 0028     		cmp	r0, #0
 660 009c C9D1     		bne	.L30
 661              	.LVL41:
 662              	.LBB8:
 663              	.LBB9:
 664              		.loc 1 195 0
 665 009e FFF7FEFF 		bl	chRegFirstThread
 666              	.LVL42:
 667              	.L33:
 668              		.loc 1 197 0
 669 00a2 8442     		cmp	r4, r0
 670 00a4 08BF     		it	eq
 671 00a6 45F00105 		orreq	r5, r5, #1
 672              	.LVL43:
 673 00aa EDB2     		uxtb	r5, r5
 674              	.LVL44:
 675              		.loc 1 198 0
 676 00ac FFF7FEFF 		bl	chRegNextThread
ARM GAS  /tmp/ccha5Aix.s 			page 13


 677              	.LVL45:
 678              		.loc 1 199 0
 679 00b0 0028     		cmp	r0, #0
 680 00b2 F6D1     		bne	.L33
 681              	.LBE9:
 682              	.LBE8:
 683              		.loc 1 222 0
 684 00b4 0520     		movs	r0, #5
 685              	.LVL46:
 686 00b6 2946     		mov	r1, r5
 687 00b8 FFF7FEFF 		bl	_test_assert
 688 00bc 0028     		cmp	r0, #0
 689 00be B8D1     		bne	.L30
 690              		.loc 1 225 0
 691 00c0 2046     		mov	r0, r4
 692 00c2 FFF7FEFF 		bl	chThdRelease
 693              		.loc 1 226 0
 694 00c6 94F82230 		ldrb	r3, [r4, #34]	@ zero_extendqisi2
 695 00ca 0620     		movs	r0, #6
 696 00cc D3F10101 		rsbs	r1, r3, #1
 697 00d0 38BF     		it	cc
 698 00d2 0021     		movcc	r1, #0
 699 00d4 FFF7FEFF 		bl	_test_assert
 700 00d8 0028     		cmp	r0, #0
 701 00da AAD1     		bne	.L30
 702              		.loc 1 227 0
 703 00dc 94F820E0 		ldrb	lr, [r4, #32]	@ zero_extendqisi2
 704 00e0 0720     		movs	r0, #7
 705 00e2 DEF10101 		rsbs	r1, lr, #1
 706 00e6 38BF     		it	cc
 707 00e8 0021     		movcc	r1, #0
 708 00ea FFF7FEFF 		bl	_test_assert
 709 00ee 0028     		cmp	r0, #0
 710 00f0 9FD1     		bne	.L30
 711              		.loc 1 228 0
 712 00f2 2046     		mov	r0, r4
 713 00f4 FFF7FEFF 		bl	regfind
 714 00f8 0146     		mov	r1, r0
 715 00fa 0820     		movs	r0, #8
 716 00fc FFF7FEFF 		bl	_test_assert
 717 0100 0028     		cmp	r0, #0
 718 0102 96D1     		bne	.L30
 719              		.loc 1 229 0
 720 0104 2046     		mov	r0, r4
 721 0106 FFF7FEFF 		bl	regfind
 722 010a 0146     		mov	r1, r0
 723 010c 0920     		movs	r0, #9
 724 010e FFF7FEFF 		bl	_test_assert
 725 0112 0028     		cmp	r0, #0
 726 0114 8DD1     		bne	.L30
 727              		.loc 1 230 0
 728 0116 3220     		movs	r0, #50
 729 0118 FFF7FEFF 		bl	chThdSleep
 730              		.loc 1 231 0
 731 011c 94F82020 		ldrb	r2, [r4, #32]	@ zero_extendqisi2
 732 0120 0A20     		movs	r0, #10
 733 0122 A2F10E01 		sub	r1, r2, #14
ARM GAS  /tmp/ccha5Aix.s 			page 14


 734 0126 D1F1000C 		rsbs	ip, r1, #0
 735 012a 4CEB0101 		adc	r1, ip, r1
 736 012e FFF7FEFF 		bl	_test_assert
 737 0132 0028     		cmp	r0, #0
 738 0134 7FF47DAF 		bne	.L30
 739              		.loc 1 234 0
 740 0138 2046     		mov	r0, r4
 741 013a FFF7FEFF 		bl	regfind
 742 013e 0146     		mov	r1, r0
 743 0140 0B20     		movs	r0, #11
 744 0142 FFF7FEFF 		bl	_test_assert
 745 0146 0028     		cmp	r0, #0
 746 0148 7FF473AF 		bne	.L30
 747              		.loc 1 235 0
 748 014c 2046     		mov	r0, r4
 749 014e FFF7FEFF 		bl	regfind
 750 0152 D0F10101 		rsbs	r1, r0, #1
 751 0156 38BF     		it	cc
 752 0158 0021     		movcc	r1, #0
 753 015a 0C20     		movs	r0, #12
 754              		.loc 1 236 0
 755 015c 02B0     		add	sp, sp, #8
 756 015e BDE87040 		pop	{r4, r5, r6, lr}
 757              		.loc 1 235 0
 758 0162 FFF7FEBF 		b	_test_assert
 759              	.L38:
 760 0166 00BF     		.align	2
 761              	.L37:
 762 0168 00000000 		.word	rlist
 763 016c 00000000 		.word	.LC0
 764 0170 00000000 		.word	thread
 765 0174 00000000 		.word	.LANCHOR0
 766              		.cfi_endproc
 767              	.LFE14:
 768              		.size	dyn3_execute, .-dyn3_execute
 769              		.global	patterndyn
 770              		.global	testdyn3
 771              		.global	testdyn2
 772              		.global	testdyn1
 773 0178 AFF30080 		.section	.rodata.testdyn1,"a",%progbits
 773      AFF30080 
 774              		.align	2
 775              		.type	testdyn1, %object
 776              		.size	testdyn1, 16
 777              	testdyn1:
 778 0000 78000000 		.word	.LC9
 779 0004 00000000 		.word	dyn1_setup
 780 0008 00000000 		.word	0
 781 000c 00000000 		.word	dyn1_execute
 782              		.section	.rodata.testdyn2,"a",%progbits
 783              		.align	2
 784              		.type	testdyn2, %object
 785              		.size	testdyn2, 16
 786              	testdyn2:
 787 0000 48000000 		.word	.LC8
 788 0004 00000000 		.word	dyn2_setup
 789 0008 00000000 		.word	0
ARM GAS  /tmp/ccha5Aix.s 			page 15


 790 000c 00000000 		.word	dyn2_execute
 791              		.section	.rodata.testdyn3,"a",%progbits
 792              		.align	2
 793              		.type	testdyn3, %object
 794              		.size	testdyn3, 16
 795              	testdyn3:
 796 0000 20000000 		.word	.LC7
 797 0004 00000000 		.word	dyn3_setup
 798 0008 00000000 		.word	0
 799 000c 00000000 		.word	dyn3_execute
 800              		.section	.bss.mp1,"aw",%nobits
 801              		.align	2
 802              		.set	.LANCHOR1,. + 0
 803              		.type	mp1, %object
 804              		.size	mp1, 12
 805              	mp1:
 806 0000 00000000 		.space	12
 806      00000000 
 806      00000000 
 807              		.section	.rodata.str1.4,"aMS",%progbits,1
 808              		.align	2
 809              	.LC0:
 810 0000 4100     		.ascii	"A\000"
 811 0002 0000     		.space	2
 812              	.LC1:
 813 0004 4200     		.ascii	"B\000"
 814 0006 0000     		.space	2
 815              	.LC2:
 816 0008 4300     		.ascii	"C\000"
 817 000a 0000     		.space	2
 818              	.LC3:
 819 000c 4400     		.ascii	"D\000"
 820 000e 0000     		.space	2
 821              	.LC4:
 822 0010 4500     		.ascii	"E\000"
 823 0012 0000     		.space	2
 824              	.LC5:
 825 0014 41424344 		.ascii	"ABCD\000"
 825      00
 826 0019 000000   		.space	3
 827              	.LC6:
 828 001c 414200   		.ascii	"AB\000"
 829 001f 00       		.space	1
 830              	.LC7:
 831 0020 44796E61 		.ascii	"Dynamic APIs, registry and references\000"
 831      6D696320 
 831      41504973 
 831      2C207265 
 831      67697374 
 832 0046 0000     		.space	2
 833              	.LC8:
 834 0048 44796E61 		.ascii	"Dynamic APIs, threads creation from memory pool\000"
 834      6D696320 
 834      41504973 
 834      2C207468 
 834      72656164 
 835              	.LC9:
ARM GAS  /tmp/ccha5Aix.s 			page 16


 836 0078 44796E61 		.ascii	"Dynamic APIs, threads creation from heap\000"
 836      6D696320 
 836      41504973 
 836      2C207468 
 836      72656164 
 837 00a1 000000   		.section	.rodata.patterndyn,"a",%progbits
 838              		.align	2
 839              		.type	patterndyn, %object
 840              		.size	patterndyn, 16
 841              	patterndyn:
 842 0000 00000000 		.word	testdyn1
 843 0004 00000000 		.word	testdyn2
 844 0008 00000000 		.word	testdyn3
 845 000c 00000000 		.word	0
 846              		.section	.bss.heap1,"aw",%nobits
 847              		.align	3
 848              		.set	.LANCHOR0,. + 0
 849              		.type	heap1, %object
 850              		.size	heap1, 32
 851              	heap1:
 852 0000 00000000 		.space	32
 852      00000000 
 852      00000000 
 852      00000000 
 852      00000000 
 853              		.text
 854              	.Letext0:
 855              		.file 2 "/home/tino/ChibiStudio/tools/GNU Tools ARM Embedded/4.6 2012q2/bin/../lib/gcc/arm-none-ea
 856              		.file 3 "/home/tino/ChibiStudio/tools/GNU Tools ARM Embedded/4.6 2012q2/bin/../lib/gcc/arm-none-ea
 857              		.file 4 "../../ChibiOS/os/ports/GCC/ARMCMx/chtypes.h"
 858              		.file 5 "../../ChibiOS/os/kernel/include/chlists.h"
 859              		.file 6 "../../ChibiOS/os/kernel/include/chthreads.h"
 860              		.file 7 "../../ChibiOS/os/ports/GCC/ARMCMx/chcore_v7m.h"
 861              		.file 8 "../../ChibiOS/os/kernel/include/chschd.h"
 862              		.file 9 "../../ChibiOS/os/kernel/include/chmtx.h"
 863              		.file 10 "../../ChibiOS/os/kernel/include/chmemcore.h"
 864              		.file 11 "../../ChibiOS/os/kernel/include/chheap.h"
 865              		.file 12 "../../ChibiOS/os/kernel/include/chmempools.h"
 866              		.file 13 "../../ChibiOS/test/test.h"
 867              		.section	.debug_info,"",%progbits
 868              	.Ldebug_info0:
 869 0000 A8090000 		.4byte	0x9a8
 870 0004 0200     		.2byte	0x2
 871 0006 00000000 		.4byte	.Ldebug_abbrev0
 872 000a 04       		.byte	0x4
 873 000b 01       		.uleb128 0x1
 874 000c C7000000 		.4byte	.LASF107
 875 0010 01       		.byte	0x1
 876 0011 52030000 		.4byte	.LASF108
 877 0015 10010000 		.4byte	.LASF109
 878 0019 00000000 		.4byte	0
 879 001d 00000000 		.4byte	0
 880 0021 00000000 		.4byte	.Ldebug_ranges0+0
 881 0025 00000000 		.4byte	.Ldebug_line0
 882 0029 02       		.uleb128 0x2
 883 002a 04       		.byte	0x4
 884 002b 05       		.byte	0x5
ARM GAS  /tmp/ccha5Aix.s 			page 17


 885 002c 696E7400 		.ascii	"int\000"
 886 0030 03       		.uleb128 0x3
 887 0031 06000000 		.4byte	.LASF2
 888 0035 02       		.byte	0x2
 889 0036 D4       		.byte	0xd4
 890 0037 3B000000 		.4byte	0x3b
 891 003b 04       		.uleb128 0x4
 892 003c 04       		.byte	0x4
 893 003d 07       		.byte	0x7
 894 003e 9D010000 		.4byte	.LASF0
 895 0042 04       		.uleb128 0x4
 896 0043 01       		.byte	0x1
 897 0044 06       		.byte	0x6
 898 0045 8B000000 		.4byte	.LASF1
 899 0049 03       		.uleb128 0x3
 900 004a 35040000 		.4byte	.LASF3
 901 004e 03       		.byte	0x3
 902 004f 2A       		.byte	0x2a
 903 0050 54000000 		.4byte	0x54
 904 0054 04       		.uleb128 0x4
 905 0055 01       		.byte	0x1
 906 0056 08       		.byte	0x8
 907 0057 EA020000 		.4byte	.LASF4
 908 005b 04       		.uleb128 0x4
 909 005c 02       		.byte	0x2
 910 005d 05       		.byte	0x5
 911 005e 0D030000 		.4byte	.LASF5
 912 0062 04       		.uleb128 0x4
 913 0063 02       		.byte	0x2
 914 0064 07       		.byte	0x7
 915 0065 E2010000 		.4byte	.LASF6
 916 0069 03       		.uleb128 0x3
 917 006a E2020000 		.4byte	.LASF7
 918 006e 03       		.byte	0x3
 919 006f 4F       		.byte	0x4f
 920 0070 74000000 		.4byte	0x74
 921 0074 04       		.uleb128 0x4
 922 0075 04       		.byte	0x4
 923 0076 05       		.byte	0x5
 924 0077 BE000000 		.4byte	.LASF8
 925 007b 03       		.uleb128 0x3
 926 007c 8A030000 		.4byte	.LASF9
 927 0080 03       		.byte	0x3
 928 0081 50       		.byte	0x50
 929 0082 86000000 		.4byte	0x86
 930 0086 04       		.uleb128 0x4
 931 0087 04       		.byte	0x4
 932 0088 07       		.byte	0x7
 933 0089 AA010000 		.4byte	.LASF10
 934 008d 04       		.uleb128 0x4
 935 008e 08       		.byte	0x8
 936 008f 05       		.byte	0x5
 937 0090 7D000000 		.4byte	.LASF11
 938 0094 03       		.uleb128 0x3
 939 0095 19000000 		.4byte	.LASF12
 940 0099 03       		.byte	0x3
 941 009a 78       		.byte	0x78
ARM GAS  /tmp/ccha5Aix.s 			page 18


 942 009b 9F000000 		.4byte	0x9f
 943 009f 04       		.uleb128 0x4
 944 00a0 08       		.byte	0x8
 945 00a1 07       		.byte	0x7
 946 00a2 3A000000 		.4byte	.LASF13
 947 00a6 03       		.uleb128 0x3
 948 00a7 A5000000 		.4byte	.LASF14
 949 00ab 04       		.byte	0x4
 950 00ac 24       		.byte	0x24
 951 00ad B1000000 		.4byte	0xb1
 952 00b1 04       		.uleb128 0x4
 953 00b2 01       		.byte	0x1
 954 00b3 02       		.byte	0x2
 955 00b4 DC020000 		.4byte	.LASF15
 956 00b8 03       		.uleb128 0x3
 957 00b9 08020000 		.4byte	.LASF16
 958 00bd 04       		.byte	0x4
 959 00be 25       		.byte	0x25
 960 00bf 49000000 		.4byte	0x49
 961 00c3 03       		.uleb128 0x3
 962 00c4 41010000 		.4byte	.LASF17
 963 00c8 04       		.byte	0x4
 964 00c9 26       		.byte	0x26
 965 00ca 49000000 		.4byte	0x49
 966 00ce 03       		.uleb128 0x3
 967 00cf B6020000 		.4byte	.LASF18
 968 00d3 04       		.byte	0x4
 969 00d4 27       		.byte	0x27
 970 00d5 49000000 		.4byte	0x49
 971 00d9 03       		.uleb128 0x3
 972 00da B4000000 		.4byte	.LASF19
 973 00de 04       		.byte	0x4
 974 00df 28       		.byte	0x28
 975 00e0 49000000 		.4byte	0x49
 976 00e4 03       		.uleb128 0x3
 977 00e5 CD020000 		.4byte	.LASF20
 978 00e9 04       		.byte	0x4
 979 00ea 29       		.byte	0x29
 980 00eb 7B000000 		.4byte	0x7b
 981 00ef 03       		.uleb128 0x3
 982 00f0 02020000 		.4byte	.LASF21
 983 00f4 04       		.byte	0x4
 984 00f5 2A       		.byte	0x2a
 985 00f6 69000000 		.4byte	0x69
 986 00fa 03       		.uleb128 0x3
 987 00fb 1C020000 		.4byte	.LASF22
 988 00ff 04       		.byte	0x4
 989 0100 2C       		.byte	0x2c
 990 0101 7B000000 		.4byte	0x7b
 991 0105 03       		.uleb128 0x3
 992 0106 B7030000 		.4byte	.LASF23
 993 010a 04       		.byte	0x4
 994 010b 2E       		.byte	0x2e
 995 010c 7B000000 		.4byte	0x7b
 996 0110 03       		.uleb128 0x3
 997 0111 6F030000 		.4byte	.LASF24
 998 0115 05       		.byte	0x5
ARM GAS  /tmp/ccha5Aix.s 			page 19


 999 0116 23       		.byte	0x23
 1000 0117 1B010000 		.4byte	0x11b
 1001 011b 05       		.uleb128 0x5
 1002 011c 6F030000 		.4byte	.LASF24
 1003 0120 4C       		.byte	0x4c
 1004 0121 06       		.byte	0x6
 1005 0122 57       		.byte	0x57
 1006 0123 4E020000 		.4byte	0x24e
 1007 0127 06       		.uleb128 0x6
 1008 0128 4B030000 		.4byte	.LASF25
 1009 012c 06       		.byte	0x6
 1010 012d 58       		.byte	0x58
 1011 012e 73020000 		.4byte	0x273
 1012 0132 02       		.byte	0x2
 1013 0133 23       		.byte	0x23
 1014 0134 00       		.uleb128 0
 1015 0135 06       		.uleb128 0x6
 1016 0136 BE020000 		.4byte	.LASF26
 1017 013a 06       		.byte	0x6
 1018 013b 5A       		.byte	0x5a
 1019 013c 73020000 		.4byte	0x273
 1020 0140 02       		.byte	0x2
 1021 0141 23       		.byte	0x23
 1022 0142 04       		.uleb128 0x4
 1023 0143 06       		.uleb128 0x6
 1024 0144 6B000000 		.4byte	.LASF27
 1025 0148 06       		.byte	0x6
 1026 0149 5C       		.byte	0x5c
 1027 014a E4000000 		.4byte	0xe4
 1028 014e 02       		.byte	0x2
 1029 014f 23       		.byte	0x23
 1030 0150 08       		.uleb128 0x8
 1031 0151 06       		.uleb128 0x6
 1032 0152 53040000 		.4byte	.LASF28
 1033 0156 06       		.byte	0x6
 1034 0157 5D       		.byte	0x5d
 1035 0158 4C030000 		.4byte	0x34c
 1036 015c 02       		.byte	0x2
 1037 015d 23       		.byte	0x23
 1038 015e 0C       		.uleb128 0xc
 1039 015f 06       		.uleb128 0x6
 1040 0160 5F010000 		.4byte	.LASF29
 1041 0164 06       		.byte	0x6
 1042 0165 5F       		.byte	0x5f
 1043 0166 73020000 		.4byte	0x273
 1044 016a 02       		.byte	0x2
 1045 016b 23       		.byte	0x23
 1046 016c 10       		.uleb128 0x10
 1047 016d 06       		.uleb128 0x6
 1048 016e 61020000 		.4byte	.LASF30
 1049 0172 06       		.byte	0x6
 1050 0173 60       		.byte	0x60
 1051 0174 73020000 		.4byte	0x273
 1052 0178 02       		.byte	0x2
 1053 0179 23       		.byte	0x23
 1054 017a 14       		.uleb128 0x14
 1055 017b 06       		.uleb128 0x6
ARM GAS  /tmp/ccha5Aix.s 			page 20


 1056 017c 44040000 		.4byte	.LASF31
 1057 0180 06       		.byte	0x6
 1058 0181 67       		.byte	0x67
 1059 0182 8A050000 		.4byte	0x58a
 1060 0186 02       		.byte	0x2
 1061 0187 23       		.byte	0x23
 1062 0188 18       		.uleb128 0x18
 1063 0189 06       		.uleb128 0x6
 1064 018a 92010000 		.4byte	.LASF32
 1065 018e 06       		.byte	0x6
 1066 018f 6D       		.byte	0x6d
 1067 0190 9C050000 		.4byte	0x59c
 1068 0194 02       		.byte	0x2
 1069 0195 23       		.byte	0x23
 1070 0196 1C       		.uleb128 0x1c
 1071 0197 06       		.uleb128 0x6
 1072 0198 17030000 		.4byte	.LASF33
 1073 019c 06       		.byte	0x6
 1074 019d 72       		.byte	0x72
 1075 019e C3000000 		.4byte	0xc3
 1076 01a2 02       		.byte	0x2
 1077 01a3 23       		.byte	0x23
 1078 01a4 20       		.uleb128 0x20
 1079 01a5 06       		.uleb128 0x6
 1080 01a6 8A010000 		.4byte	.LASF34
 1081 01aa 06       		.byte	0x6
 1082 01ab 76       		.byte	0x76
 1083 01ac B8000000 		.4byte	0xb8
 1084 01b0 02       		.byte	0x2
 1085 01b1 23       		.byte	0x23
 1086 01b2 21       		.uleb128 0x21
 1087 01b3 06       		.uleb128 0x6
 1088 01b4 16040000 		.4byte	.LASF35
 1089 01b8 06       		.byte	0x6
 1090 01b9 7B       		.byte	0x7b
 1091 01ba CE000000 		.4byte	0xce
 1092 01be 02       		.byte	0x2
 1093 01bf 23       		.byte	0x23
 1094 01c0 22       		.uleb128 0x22
 1095 01c1 06       		.uleb128 0x6
 1096 01c2 1F030000 		.4byte	.LASF36
 1097 01c6 06       		.byte	0x6
 1098 01c7 81       		.byte	0x81
 1099 01c8 D9000000 		.4byte	0xd9
 1100 01cc 02       		.byte	0x2
 1101 01cd 23       		.byte	0x23
 1102 01ce 23       		.uleb128 0x23
 1103 01cf 06       		.uleb128 0x6
 1104 01d0 DE030000 		.4byte	.LASF37
 1105 01d4 06       		.byte	0x6
 1106 01d5 88       		.byte	0x88
 1107 01d6 6F030000 		.4byte	0x36f
 1108 01da 02       		.byte	0x2
 1109 01db 23       		.byte	0x23
 1110 01dc 24       		.uleb128 0x24
 1111 01dd 07       		.uleb128 0x7
 1112 01de 705F7500 		.ascii	"p_u\000"
ARM GAS  /tmp/ccha5Aix.s 			page 21


 1113 01e2 06       		.byte	0x6
 1114 01e3 AD       		.byte	0xad
 1115 01e4 55050000 		.4byte	0x555
 1116 01e8 02       		.byte	0x2
 1117 01e9 23       		.byte	0x23
 1118 01ea 28       		.uleb128 0x28
 1119 01eb 06       		.uleb128 0x6
 1120 01ec 59040000 		.4byte	.LASF38
 1121 01f0 06       		.byte	0x6
 1122 01f1 B2       		.byte	0xb2
 1123 01f2 9B020000 		.4byte	0x29b
 1124 01f6 02       		.byte	0x2
 1125 01f7 23       		.byte	0x23
 1126 01f8 2C       		.uleb128 0x2c
 1127 01f9 06       		.uleb128 0x6
 1128 01fa EC030000 		.4byte	.LASF39
 1129 01fe 06       		.byte	0x6
 1130 01ff B8       		.byte	0xb8
 1131 0200 79020000 		.4byte	0x279
 1132 0204 02       		.byte	0x2
 1133 0205 23       		.byte	0x23
 1134 0206 30       		.uleb128 0x30
 1135 0207 06       		.uleb128 0x6
 1136 0208 00000000 		.4byte	.LASF40
 1137 020c 06       		.byte	0x6
 1138 020d BC       		.byte	0xbc
 1139 020e EF000000 		.4byte	0xef
 1140 0212 02       		.byte	0x2
 1141 0213 23       		.byte	0x23
 1142 0214 38       		.uleb128 0x38
 1143 0215 06       		.uleb128 0x6
 1144 0216 7F030000 		.4byte	.LASF41
 1145 021a 06       		.byte	0x6
 1146 021b C2       		.byte	0xc2
 1147 021c FA000000 		.4byte	0xfa
 1148 0220 02       		.byte	0x2
 1149 0221 23       		.byte	0x23
 1150 0222 3C       		.uleb128 0x3c
 1151 0223 06       		.uleb128 0x6
 1152 0224 03030000 		.4byte	.LASF42
 1153 0228 06       		.byte	0x6
 1154 0229 C9       		.byte	0xc9
 1155 022a A2050000 		.4byte	0x5a2
 1156 022e 02       		.byte	0x2
 1157 022f 23       		.byte	0x23
 1158 0230 40       		.uleb128 0x40
 1159 0231 06       		.uleb128 0x6
 1160 0232 C1030000 		.4byte	.LASF43
 1161 0236 06       		.byte	0x6
 1162 0237 CD       		.byte	0xcd
 1163 0238 E4000000 		.4byte	0xe4
 1164 023c 02       		.byte	0x2
 1165 023d 23       		.byte	0x23
 1166 023e 44       		.uleb128 0x44
 1167 023f 06       		.uleb128 0x6
 1168 0240 9D000000 		.4byte	.LASF44
 1169 0244 06       		.byte	0x6
ARM GAS  /tmp/ccha5Aix.s 			page 22


 1170 0245 D3       		.byte	0xd3
 1171 0246 B1020000 		.4byte	0x2b1
 1172 024a 02       		.byte	0x2
 1173 024b 23       		.byte	0x23
 1174 024c 48       		.uleb128 0x48
 1175 024d 00       		.byte	0
 1176 024e 08       		.uleb128 0x8
 1177 024f 08       		.byte	0x8
 1178 0250 05       		.byte	0x5
 1179 0251 5A       		.byte	0x5a
 1180 0252 73020000 		.4byte	0x273
 1181 0256 06       		.uleb128 0x6
 1182 0257 4B030000 		.4byte	.LASF25
 1183 025b 05       		.byte	0x5
 1184 025c 5B       		.byte	0x5b
 1185 025d 73020000 		.4byte	0x273
 1186 0261 02       		.byte	0x2
 1187 0262 23       		.byte	0x23
 1188 0263 00       		.uleb128 0
 1189 0264 06       		.uleb128 0x6
 1190 0265 BE020000 		.4byte	.LASF26
 1191 0269 05       		.byte	0x5
 1192 026a 5D       		.byte	0x5d
 1193 026b 73020000 		.4byte	0x273
 1194 026f 02       		.byte	0x2
 1195 0270 23       		.byte	0x23
 1196 0271 04       		.uleb128 0x4
 1197 0272 00       		.byte	0
 1198 0273 09       		.uleb128 0x9
 1199 0274 04       		.byte	0x4
 1200 0275 10010000 		.4byte	0x110
 1201 0279 03       		.uleb128 0x3
 1202 027a 6F020000 		.4byte	.LASF45
 1203 027e 05       		.byte	0x5
 1204 027f 5F       		.byte	0x5f
 1205 0280 4E020000 		.4byte	0x24e
 1206 0284 08       		.uleb128 0x8
 1207 0285 04       		.byte	0x4
 1208 0286 05       		.byte	0x5
 1209 0287 64       		.byte	0x64
 1210 0288 9B020000 		.4byte	0x29b
 1211 028c 06       		.uleb128 0x6
 1212 028d 4B030000 		.4byte	.LASF25
 1213 0291 05       		.byte	0x5
 1214 0292 66       		.byte	0x66
 1215 0293 73020000 		.4byte	0x273
 1216 0297 02       		.byte	0x2
 1217 0298 23       		.byte	0x23
 1218 0299 00       		.uleb128 0
 1219 029a 00       		.byte	0
 1220 029b 03       		.uleb128 0x3
 1221 029c 10020000 		.4byte	.LASF46
 1222 02a0 05       		.byte	0x5
 1223 02a1 69       		.byte	0x69
 1224 02a2 84020000 		.4byte	0x284
 1225 02a6 03       		.uleb128 0x3
 1226 02a7 7B010000 		.4byte	.LASF47
ARM GAS  /tmp/ccha5Aix.s 			page 23


 1227 02ab 07       		.byte	0x7
 1228 02ac DE       		.byte	0xde
 1229 02ad B1020000 		.4byte	0x2b1
 1230 02b1 0A       		.uleb128 0xa
 1231 02b2 04       		.byte	0x4
 1232 02b3 03       		.uleb128 0x3
 1233 02b4 2E020000 		.4byte	.LASF48
 1234 02b8 07       		.byte	0x7
 1235 02b9 E4       		.byte	0xe4
 1236 02ba 94000000 		.4byte	0x94
 1237 02be 0B       		.uleb128 0xb
 1238 02bf E5030000 		.4byte	.LASF49
 1239 02c3 24       		.byte	0x24
 1240 02c4 07       		.byte	0x7
 1241 02c5 0501     		.2byte	0x105
 1242 02c7 4C030000 		.4byte	0x34c
 1243 02cb 0C       		.uleb128 0xc
 1244 02cc 723400   		.ascii	"r4\000"
 1245 02cf 07       		.byte	0x7
 1246 02d0 1801     		.2byte	0x118
 1247 02d2 A6020000 		.4byte	0x2a6
 1248 02d6 02       		.byte	0x2
 1249 02d7 23       		.byte	0x23
 1250 02d8 00       		.uleb128 0
 1251 02d9 0C       		.uleb128 0xc
 1252 02da 723500   		.ascii	"r5\000"
 1253 02dd 07       		.byte	0x7
 1254 02de 1901     		.2byte	0x119
 1255 02e0 A6020000 		.4byte	0x2a6
 1256 02e4 02       		.byte	0x2
 1257 02e5 23       		.byte	0x23
 1258 02e6 04       		.uleb128 0x4
 1259 02e7 0C       		.uleb128 0xc
 1260 02e8 723600   		.ascii	"r6\000"
 1261 02eb 07       		.byte	0x7
 1262 02ec 1A01     		.2byte	0x11a
 1263 02ee A6020000 		.4byte	0x2a6
 1264 02f2 02       		.byte	0x2
 1265 02f3 23       		.byte	0x23
 1266 02f4 08       		.uleb128 0x8
 1267 02f5 0C       		.uleb128 0xc
 1268 02f6 723700   		.ascii	"r7\000"
 1269 02f9 07       		.byte	0x7
 1270 02fa 1B01     		.2byte	0x11b
 1271 02fc A6020000 		.4byte	0x2a6
 1272 0300 02       		.byte	0x2
 1273 0301 23       		.byte	0x23
 1274 0302 0C       		.uleb128 0xc
 1275 0303 0C       		.uleb128 0xc
 1276 0304 723800   		.ascii	"r8\000"
 1277 0307 07       		.byte	0x7
 1278 0308 1C01     		.2byte	0x11c
 1279 030a A6020000 		.4byte	0x2a6
 1280 030e 02       		.byte	0x2
 1281 030f 23       		.byte	0x23
 1282 0310 10       		.uleb128 0x10
 1283 0311 0C       		.uleb128 0xc
ARM GAS  /tmp/ccha5Aix.s 			page 24


 1284 0312 723900   		.ascii	"r9\000"
 1285 0315 07       		.byte	0x7
 1286 0316 1D01     		.2byte	0x11d
 1287 0318 A6020000 		.4byte	0x2a6
 1288 031c 02       		.byte	0x2
 1289 031d 23       		.byte	0x23
 1290 031e 14       		.uleb128 0x14
 1291 031f 0C       		.uleb128 0xc
 1292 0320 72313000 		.ascii	"r10\000"
 1293 0324 07       		.byte	0x7
 1294 0325 1E01     		.2byte	0x11e
 1295 0327 A6020000 		.4byte	0x2a6
 1296 032b 02       		.byte	0x2
 1297 032c 23       		.byte	0x23
 1298 032d 18       		.uleb128 0x18
 1299 032e 0C       		.uleb128 0xc
 1300 032f 72313100 		.ascii	"r11\000"
 1301 0333 07       		.byte	0x7
 1302 0334 1F01     		.2byte	0x11f
 1303 0336 A6020000 		.4byte	0x2a6
 1304 033a 02       		.byte	0x2
 1305 033b 23       		.byte	0x23
 1306 033c 1C       		.uleb128 0x1c
 1307 033d 0C       		.uleb128 0xc
 1308 033e 6C7200   		.ascii	"lr\000"
 1309 0341 07       		.byte	0x7
 1310 0342 2001     		.2byte	0x120
 1311 0344 A6020000 		.4byte	0x2a6
 1312 0348 02       		.byte	0x2
 1313 0349 23       		.byte	0x23
 1314 034a 20       		.uleb128 0x20
 1315 034b 00       		.byte	0
 1316 034c 0B       		.uleb128 0xb
 1317 034d D5010000 		.4byte	.LASF50
 1318 0351 04       		.byte	0x4
 1319 0352 07       		.byte	0x7
 1320 0353 2A01     		.2byte	0x12a
 1321 0355 69030000 		.4byte	0x369
 1322 0359 0C       		.uleb128 0xc
 1323 035a 72313300 		.ascii	"r13\000"
 1324 035e 07       		.byte	0x7
 1325 035f 2B01     		.2byte	0x12b
 1326 0361 69030000 		.4byte	0x369
 1327 0365 02       		.byte	0x2
 1328 0366 23       		.byte	0x23
 1329 0367 00       		.uleb128 0
 1330 0368 00       		.byte	0
 1331 0369 09       		.uleb128 0x9
 1332 036a 04       		.byte	0x4
 1333 036b BE020000 		.4byte	0x2be
 1334 036f 0D       		.uleb128 0xd
 1335 0370 05010000 		.4byte	0x105
 1336 0374 08       		.uleb128 0x8
 1337 0375 1C       		.byte	0x1c
 1338 0376 08       		.byte	0x8
 1339 0377 57       		.byte	0x57
 1340 0378 D1030000 		.4byte	0x3d1
ARM GAS  /tmp/ccha5Aix.s 			page 25


 1341 037c 06       		.uleb128 0x6
 1342 037d 93030000 		.4byte	.LASF51
 1343 0381 08       		.byte	0x8
 1344 0382 58       		.byte	0x58
 1345 0383 79020000 		.4byte	0x279
 1346 0387 02       		.byte	0x2
 1347 0388 23       		.byte	0x23
 1348 0389 00       		.uleb128 0
 1349 038a 06       		.uleb128 0x6
 1350 038b 31030000 		.4byte	.LASF52
 1351 038f 08       		.byte	0x8
 1352 0390 59       		.byte	0x59
 1353 0391 E4000000 		.4byte	0xe4
 1354 0395 02       		.byte	0x2
 1355 0396 23       		.byte	0x23
 1356 0397 08       		.uleb128 0x8
 1357 0398 06       		.uleb128 0x6
 1358 0399 69020000 		.4byte	.LASF53
 1359 039d 08       		.byte	0x8
 1360 039e 5B       		.byte	0x5b
 1361 039f 4C030000 		.4byte	0x34c
 1362 03a3 02       		.byte	0x2
 1363 03a4 23       		.byte	0x23
 1364 03a5 0C       		.uleb128 0xc
 1365 03a6 06       		.uleb128 0x6
 1366 03a7 67010000 		.4byte	.LASF54
 1367 03ab 08       		.byte	0x8
 1368 03ac 5E       		.byte	0x5e
 1369 03ad 73020000 		.4byte	0x273
 1370 03b1 02       		.byte	0x2
 1371 03b2 23       		.byte	0x23
 1372 03b3 10       		.uleb128 0x10
 1373 03b4 06       		.uleb128 0x6
 1374 03b5 9B020000 		.4byte	.LASF55
 1375 03b9 08       		.byte	0x8
 1376 03ba 5F       		.byte	0x5f
 1377 03bb 73020000 		.4byte	0x273
 1378 03bf 02       		.byte	0x2
 1379 03c0 23       		.byte	0x23
 1380 03c1 14       		.uleb128 0x14
 1381 03c2 06       		.uleb128 0x6
 1382 03c3 91020000 		.4byte	.LASF56
 1383 03c7 08       		.byte	0x8
 1384 03c8 62       		.byte	0x62
 1385 03c9 73020000 		.4byte	0x273
 1386 03cd 02       		.byte	0x2
 1387 03ce 23       		.byte	0x23
 1388 03cf 18       		.uleb128 0x18
 1389 03d0 00       		.byte	0
 1390 03d1 03       		.uleb128 0x3
 1391 03d2 1D040000 		.4byte	.LASF57
 1392 03d6 08       		.byte	0x8
 1393 03d7 64       		.byte	0x64
 1394 03d8 74030000 		.4byte	0x374
 1395 03dc 05       		.uleb128 0x5
 1396 03dd 28020000 		.4byte	.LASF58
 1397 03e1 10       		.byte	0x10
ARM GAS  /tmp/ccha5Aix.s 			page 26


 1398 03e2 09       		.byte	0x9
 1399 03e3 25       		.byte	0x25
 1400 03e4 13040000 		.4byte	0x413
 1401 03e8 06       		.uleb128 0x6
 1402 03e9 AC000000 		.4byte	.LASF59
 1403 03ed 09       		.byte	0x9
 1404 03ee 26       		.byte	0x26
 1405 03ef 79020000 		.4byte	0x279
 1406 03f3 02       		.byte	0x2
 1407 03f4 23       		.byte	0x23
 1408 03f5 00       		.uleb128 0
 1409 03f6 06       		.uleb128 0x6
 1410 03f7 4B040000 		.4byte	.LASF60
 1411 03fb 09       		.byte	0x9
 1412 03fc 28       		.byte	0x28
 1413 03fd 73020000 		.4byte	0x273
 1414 0401 02       		.byte	0x2
 1415 0402 23       		.byte	0x23
 1416 0403 08       		.uleb128 0x8
 1417 0404 06       		.uleb128 0x6
 1418 0405 B0030000 		.4byte	.LASF61
 1419 0409 09       		.byte	0x9
 1420 040a 2A       		.byte	0x2a
 1421 040b 13040000 		.4byte	0x413
 1422 040f 02       		.byte	0x2
 1423 0410 23       		.byte	0x23
 1424 0411 0C       		.uleb128 0xc
 1425 0412 00       		.byte	0
 1426 0413 09       		.uleb128 0x9
 1427 0414 04       		.byte	0x4
 1428 0415 DC030000 		.4byte	0x3dc
 1429 0419 03       		.uleb128 0x3
 1430 041a 28020000 		.4byte	.LASF58
 1431 041e 09       		.byte	0x9
 1432 041f 2C       		.byte	0x2c
 1433 0420 DC030000 		.4byte	0x3dc
 1434 0424 03       		.uleb128 0x3
 1435 0425 2D000000 		.4byte	.LASF62
 1436 0429 0A       		.byte	0xa
 1437 042a 25       		.byte	0x25
 1438 042b 2F040000 		.4byte	0x42f
 1439 042f 09       		.uleb128 0x9
 1440 0430 04       		.byte	0x4
 1441 0431 35040000 		.4byte	0x435
 1442 0435 0E       		.uleb128 0xe
 1443 0436 01       		.byte	0x1
 1444 0437 B1020000 		.4byte	0x2b1
 1445 043b 45040000 		.4byte	0x445
 1446 043f 0F       		.uleb128 0xf
 1447 0440 30000000 		.4byte	0x30
 1448 0444 00       		.byte	0
 1449 0445 03       		.uleb128 0x3
 1450 0446 A3020000 		.4byte	.LASF63
 1451 044a 0B       		.byte	0xb
 1452 044b 2D       		.byte	0x2d
 1453 044c 50040000 		.4byte	0x450
 1454 0450 05       		.uleb128 0x5
ARM GAS  /tmp/ccha5Aix.s 			page 27


 1455 0451 69040000 		.4byte	.LASF64
 1456 0455 20       		.byte	0x20
 1457 0456 0B       		.byte	0xb
 1458 0457 40       		.byte	0x40
 1459 0458 87040000 		.4byte	0x487
 1460 045c 06       		.uleb128 0x6
 1461 045d F8020000 		.4byte	.LASF65
 1462 0461 0B       		.byte	0xb
 1463 0462 41       		.byte	0x41
 1464 0463 24040000 		.4byte	0x424
 1465 0467 02       		.byte	0x2
 1466 0468 23       		.byte	0x23
 1467 0469 00       		.uleb128 0
 1468 046a 06       		.uleb128 0x6
 1469 046b 5A000000 		.4byte	.LASF66
 1470 046f 0B       		.byte	0xb
 1471 0470 43       		.byte	0x43
 1472 0471 A6040000 		.4byte	0x4a6
 1473 0475 02       		.byte	0x2
 1474 0476 23       		.byte	0x23
 1475 0477 08       		.uleb128 0x8
 1476 0478 06       		.uleb128 0x6
 1477 0479 97000000 		.4byte	.LASF67
 1478 047d 0B       		.byte	0xb
 1479 047e 45       		.byte	0x45
 1480 047f 19040000 		.4byte	0x419
 1481 0483 02       		.byte	0x2
 1482 0484 23       		.byte	0x23
 1483 0485 10       		.uleb128 0x10
 1484 0486 00       		.byte	0
 1485 0487 10       		.uleb128 0x10
 1486 0488 04       		.byte	0x4
 1487 0489 0B       		.byte	0xb
 1488 048a 35       		.byte	0x35
 1489 048b A6040000 		.4byte	0x4a6
 1490 048f 11       		.uleb128 0x11
 1491 0490 66000000 		.4byte	.LASF68
 1492 0494 0B       		.byte	0xb
 1493 0495 36       		.byte	0x36
 1494 0496 C7040000 		.4byte	0x4c7
 1495 049a 11       		.uleb128 0x11
 1496 049b 9B030000 		.4byte	.LASF69
 1497 049f 0B       		.byte	0xb
 1498 04a0 37       		.byte	0x37
 1499 04a1 CD040000 		.4byte	0x4cd
 1500 04a5 00       		.byte	0
 1501 04a6 12       		.uleb128 0x12
 1502 04a7 38030000 		.4byte	.LASF88
 1503 04ab 08       		.byte	0x8
 1504 04ac 0B       		.byte	0xb
 1505 04ad 32       		.byte	0x32
 1506 04ae C7040000 		.4byte	0x4c7
 1507 04b2 11       		.uleb128 0x11
 1508 04b3 84010000 		.4byte	.LASF70
 1509 04b7 0B       		.byte	0xb
 1510 04b8 33       		.byte	0x33
 1511 04b9 B3020000 		.4byte	0x2b3
ARM GAS  /tmp/ccha5Aix.s 			page 28


 1512 04bd 13       		.uleb128 0x13
 1513 04be 6800     		.ascii	"h\000"
 1514 04c0 0B       		.byte	0xb
 1515 04c1 3A       		.byte	0x3a
 1516 04c2 D3040000 		.4byte	0x4d3
 1517 04c6 00       		.byte	0
 1518 04c7 09       		.uleb128 0x9
 1519 04c8 04       		.byte	0x4
 1520 04c9 A6040000 		.4byte	0x4a6
 1521 04cd 09       		.uleb128 0x9
 1522 04ce 04       		.byte	0x4
 1523 04cf 45040000 		.4byte	0x445
 1524 04d3 08       		.uleb128 0x8
 1525 04d4 08       		.byte	0x8
 1526 04d5 0B       		.byte	0xb
 1527 04d6 34       		.byte	0x34
 1528 04d7 F6040000 		.4byte	0x4f6
 1529 04db 07       		.uleb128 0x7
 1530 04dc 7500     		.ascii	"u\000"
 1531 04de 0B       		.byte	0xb
 1532 04df 38       		.byte	0x38
 1533 04e0 87040000 		.4byte	0x487
 1534 04e4 02       		.byte	0x2
 1535 04e5 23       		.byte	0x23
 1536 04e6 00       		.uleb128 0
 1537 04e7 06       		.uleb128 0x6
 1538 04e8 DD010000 		.4byte	.LASF71
 1539 04ec 0B       		.byte	0xb
 1540 04ed 39       		.byte	0x39
 1541 04ee 30000000 		.4byte	0x30
 1542 04f2 02       		.byte	0x2
 1543 04f3 23       		.byte	0x23
 1544 04f4 04       		.uleb128 0x4
 1545 04f5 00       		.byte	0
 1546 04f6 05       		.uleb128 0x5
 1547 04f7 0A040000 		.4byte	.LASF72
 1548 04fb 04       		.byte	0x4
 1549 04fc 0C       		.byte	0xc
 1550 04fd 25       		.byte	0x25
 1551 04fe 11050000 		.4byte	0x511
 1552 0502 06       		.uleb128 0x6
 1553 0503 AE020000 		.4byte	.LASF73
 1554 0507 0C       		.byte	0xc
 1555 0508 26       		.byte	0x26
 1556 0509 11050000 		.4byte	0x511
 1557 050d 02       		.byte	0x2
 1558 050e 23       		.byte	0x23
 1559 050f 00       		.uleb128 0
 1560 0510 00       		.byte	0
 1561 0511 09       		.uleb128 0x9
 1562 0512 04       		.byte	0x4
 1563 0513 F6040000 		.4byte	0x4f6
 1564 0517 08       		.uleb128 0x8
 1565 0518 0C       		.byte	0xc
 1566 0519 0C       		.byte	0xc
 1567 051a 2D       		.byte	0x2d
 1568 051b 4A050000 		.4byte	0x54a
ARM GAS  /tmp/ccha5Aix.s 			page 29


 1569 051f 06       		.uleb128 0x6
 1570 0520 4A010000 		.4byte	.LASF74
 1571 0524 0C       		.byte	0xc
 1572 0525 2E       		.byte	0x2e
 1573 0526 11050000 		.4byte	0x511
 1574 052a 02       		.byte	0x2
 1575 052b 23       		.byte	0x23
 1576 052c 00       		.uleb128 0
 1577 052d 06       		.uleb128 0x6
 1578 052e 7C020000 		.4byte	.LASF75
 1579 0532 0C       		.byte	0xc
 1580 0533 2F       		.byte	0x2f
 1581 0534 30000000 		.4byte	0x30
 1582 0538 02       		.byte	0x2
 1583 0539 23       		.byte	0x23
 1584 053a 04       		.uleb128 0x4
 1585 053b 06       		.uleb128 0x6
 1586 053c 6F010000 		.4byte	.LASF76
 1587 0540 0C       		.byte	0xc
 1588 0541 31       		.byte	0x31
 1589 0542 24040000 		.4byte	0x424
 1590 0546 02       		.byte	0x2
 1591 0547 23       		.byte	0x23
 1592 0548 08       		.uleb128 0x8
 1593 0549 00       		.byte	0
 1594 054a 03       		.uleb128 0x3
 1595 054b 22000000 		.4byte	.LASF77
 1596 054f 0C       		.byte	0xc
 1597 0550 33       		.byte	0x33
 1598 0551 17050000 		.4byte	0x517
 1599 0555 10       		.uleb128 0x10
 1600 0556 04       		.byte	0x4
 1601 0557 06       		.byte	0x6
 1602 0558 8F       		.byte	0x8f
 1603 0559 8A050000 		.4byte	0x58a
 1604 055d 11       		.uleb128 0x11
 1605 055e 12000000 		.4byte	.LASF78
 1606 0562 06       		.byte	0x6
 1607 0563 96       		.byte	0x96
 1608 0564 EF000000 		.4byte	0xef
 1609 0568 11       		.uleb128 0x11
 1610 0569 51000000 		.4byte	.LASF79
 1611 056d 06       		.byte	0x6
 1612 056e 9D       		.byte	0x9d
 1613 056f EF000000 		.4byte	0xef
 1614 0573 11       		.uleb128 0x11
 1615 0574 3D040000 		.4byte	.LASF80
 1616 0578 06       		.byte	0x6
 1617 0579 A4       		.byte	0xa4
 1618 057a B1020000 		.4byte	0x2b1
 1619 057e 11       		.uleb128 0x11
 1620 057f 44030000 		.4byte	.LASF81
 1621 0583 06       		.byte	0x6
 1622 0584 AB       		.byte	0xab
 1623 0585 FA000000 		.4byte	0xfa
 1624 0589 00       		.byte	0
 1625 058a 09       		.uleb128 0x9
ARM GAS  /tmp/ccha5Aix.s 			page 30


 1626 058b 04       		.byte	0x4
 1627 058c 90050000 		.4byte	0x590
 1628 0590 14       		.uleb128 0x14
 1629 0591 95050000 		.4byte	0x595
 1630 0595 04       		.uleb128 0x4
 1631 0596 01       		.byte	0x1
 1632 0597 08       		.byte	0x8
 1633 0598 A0030000 		.4byte	.LASF82
 1634 059c 09       		.uleb128 0x9
 1635 059d 04       		.byte	0x4
 1636 059e B3020000 		.4byte	0x2b3
 1637 05a2 09       		.uleb128 0x9
 1638 05a3 04       		.byte	0x4
 1639 05a4 19040000 		.4byte	0x419
 1640 05a8 05       		.uleb128 0x5
 1641 05a9 76030000 		.4byte	.LASF83
 1642 05ad 10       		.byte	0x10
 1643 05ae 0D       		.byte	0xd
 1644 05af 3B       		.byte	0x3b
 1645 05b0 ED050000 		.4byte	0x5ed
 1646 05b4 06       		.uleb128 0x6
 1647 05b5 D0010000 		.4byte	.LASF84
 1648 05b9 0D       		.byte	0xd
 1649 05ba 3C       		.byte	0x3c
 1650 05bb 8A050000 		.4byte	0x58a
 1651 05bf 02       		.byte	0x2
 1652 05c0 23       		.byte	0x23
 1653 05c1 00       		.uleb128 0
 1654 05c2 06       		.uleb128 0x6
 1655 05c3 8B020000 		.4byte	.LASF85
 1656 05c7 0D       		.byte	0xd
 1657 05c8 3D       		.byte	0x3d
 1658 05c9 EF050000 		.4byte	0x5ef
 1659 05cd 02       		.byte	0x2
 1660 05ce 23       		.byte	0x23
 1661 05cf 04       		.uleb128 0x4
 1662 05d0 06       		.uleb128 0x6
 1663 05d1 BC010000 		.4byte	.LASF86
 1664 05d5 0D       		.byte	0xd
 1665 05d6 3E       		.byte	0x3e
 1666 05d7 EF050000 		.4byte	0x5ef
 1667 05db 02       		.byte	0x2
 1668 05dc 23       		.byte	0x23
 1669 05dd 08       		.uleb128 0x8
 1670 05de 06       		.uleb128 0x6
 1671 05df C5020000 		.4byte	.LASF87
 1672 05e3 0D       		.byte	0xd
 1673 05e4 3F       		.byte	0x3f
 1674 05e5 EF050000 		.4byte	0x5ef
 1675 05e9 02       		.byte	0x2
 1676 05ea 23       		.byte	0x23
 1677 05eb 0C       		.uleb128 0xc
 1678 05ec 00       		.byte	0
 1679 05ed 15       		.uleb128 0x15
 1680 05ee 01       		.byte	0x1
 1681 05ef 09       		.uleb128 0x9
 1682 05f0 04       		.byte	0x4
ARM GAS  /tmp/ccha5Aix.s 			page 31


 1683 05f1 ED050000 		.4byte	0x5ed
 1684 05f5 16       		.uleb128 0x16
 1685 05f6 500A     		.2byte	0xa50
 1686 05f8 0D       		.byte	0xd
 1687 05f9 44       		.byte	0x44
 1688 05fa 44060000 		.4byte	0x644
 1689 05fe 07       		.uleb128 0x7
 1690 05ff 543000   		.ascii	"T0\000"
 1691 0602 0D       		.byte	0xd
 1692 0603 45       		.byte	0x45
 1693 0604 44060000 		.4byte	0x644
 1694 0608 02       		.byte	0x2
 1695 0609 23       		.byte	0x23
 1696 060a 00       		.uleb128 0
 1697 060b 07       		.uleb128 0x7
 1698 060c 543100   		.ascii	"T1\000"
 1699 060f 0D       		.byte	0xd
 1700 0610 46       		.byte	0x46
 1701 0611 44060000 		.4byte	0x644
 1702 0615 03       		.byte	0x3
 1703 0616 23       		.byte	0x23
 1704 0617 9004     		.uleb128 0x210
 1705 0619 07       		.uleb128 0x7
 1706 061a 543200   		.ascii	"T2\000"
 1707 061d 0D       		.byte	0xd
 1708 061e 47       		.byte	0x47
 1709 061f 44060000 		.4byte	0x644
 1710 0623 03       		.byte	0x3
 1711 0624 23       		.byte	0x23
 1712 0625 A008     		.uleb128 0x420
 1713 0627 07       		.uleb128 0x7
 1714 0628 543300   		.ascii	"T3\000"
 1715 062b 0D       		.byte	0xd
 1716 062c 48       		.byte	0x48
 1717 062d 44060000 		.4byte	0x644
 1718 0631 03       		.byte	0x3
 1719 0632 23       		.byte	0x23
 1720 0633 B00C     		.uleb128 0x630
 1721 0635 07       		.uleb128 0x7
 1722 0636 543400   		.ascii	"T4\000"
 1723 0639 0D       		.byte	0xd
 1724 063a 49       		.byte	0x49
 1725 063b 44060000 		.4byte	0x644
 1726 063f 03       		.byte	0x3
 1727 0640 23       		.byte	0x23
 1728 0641 C010     		.uleb128 0x840
 1729 0643 00       		.byte	0
 1730 0644 17       		.uleb128 0x17
 1731 0645 B3020000 		.4byte	0x2b3
 1732 0649 54060000 		.4byte	0x654
 1733 064d 18       		.uleb128 0x18
 1734 064e 3B000000 		.4byte	0x3b
 1735 0652 41       		.byte	0x41
 1736 0653 00       		.byte	0
 1737 0654 19       		.uleb128 0x19
 1738 0655 FD030000 		.4byte	.LASF89
 1739 0659 500A     		.2byte	0xa50
ARM GAS  /tmp/ccha5Aix.s 			page 32


 1740 065b 0D       		.byte	0xd
 1741 065c 43       		.byte	0x43
 1742 065d 77060000 		.4byte	0x677
 1743 0661 13       		.uleb128 0x13
 1744 0662 776100   		.ascii	"wa\000"
 1745 0665 0D       		.byte	0xd
 1746 0666 4A       		.byte	0x4a
 1747 0667 F5050000 		.4byte	0x5f5
 1748 066b 11       		.uleb128 0x11
 1749 066c CC030000 		.4byte	.LASF90
 1750 0670 0D       		.byte	0xd
 1751 0671 4B       		.byte	0x4b
 1752 0672 77060000 		.4byte	0x677
 1753 0676 00       		.byte	0
 1754 0677 17       		.uleb128 0x17
 1755 0678 49000000 		.4byte	0x49
 1756 067c 88060000 		.4byte	0x688
 1757 0680 1A       		.uleb128 0x1a
 1758 0681 3B000000 		.4byte	0x3b
 1759 0685 4F0A     		.2byte	0xa4f
 1760 0687 00       		.byte	0
 1761 0688 1B       		.uleb128 0x1b
 1762 0689 27040000 		.4byte	.LASF110
 1763 068d 01       		.byte	0x1
 1764 068e BF       		.byte	0xbf
 1765 068f 01       		.byte	0x1
 1766 0690 A6000000 		.4byte	0xa6
 1767 0694 01       		.byte	0x1
 1768 0695 BA060000 		.4byte	0x6ba
 1769 0699 1C       		.uleb128 0x1c
 1770 069a 747000   		.ascii	"tp\000"
 1771 069d 01       		.byte	0x1
 1772 069e BF       		.byte	0xbf
 1773 069f 73020000 		.4byte	0x273
 1774 06a3 1D       		.uleb128 0x1d
 1775 06a4 66747000 		.ascii	"ftp\000"
 1776 06a8 01       		.byte	0x1
 1777 06a9 C0       		.byte	0xc0
 1778 06aa 73020000 		.4byte	0x273
 1779 06ae 1E       		.uleb128 0x1e
 1780 06af F7030000 		.4byte	.LASF91
 1781 06b3 01       		.byte	0x1
 1782 06b4 C1       		.byte	0xc1
 1783 06b5 A6000000 		.4byte	0xa6
 1784 06b9 00       		.byte	0
 1785 06ba 1F       		.uleb128 0x1f
 1786 06bb 88060000 		.4byte	0x688
 1787 06bf 00000000 		.4byte	.LFB12
 1788 06c3 24000000 		.4byte	.LFE12
 1789 06c7 00000000 		.4byte	.LLST0
 1790 06cb EB060000 		.4byte	0x6eb
 1791 06cf 20       		.uleb128 0x20
 1792 06d0 99060000 		.4byte	0x699
 1793 06d4 20000000 		.4byte	.LLST1
 1794 06d8 21       		.uleb128 0x21
 1795 06d9 A3060000 		.4byte	0x6a3
 1796 06dd 3E000000 		.4byte	.LLST2
ARM GAS  /tmp/ccha5Aix.s 			page 33


 1797 06e1 21       		.uleb128 0x21
 1798 06e2 AE060000 		.4byte	0x6ae
 1799 06e6 72000000 		.4byte	.LLST3
 1800 06ea 00       		.byte	0
 1801 06eb 22       		.uleb128 0x22
 1802 06ec D5020000 		.4byte	.LASF111
 1803 06f0 01       		.byte	0x1
 1804 06f1 47       		.byte	0x47
 1805 06f2 01       		.byte	0x1
 1806 06f3 EF000000 		.4byte	0xef
 1807 06f7 00000000 		.4byte	.LFB7
 1808 06fb 0C000000 		.4byte	.LFE7
 1809 06ff 91000000 		.4byte	.LLST4
 1810 0703 15070000 		.4byte	0x715
 1811 0707 23       		.uleb128 0x23
 1812 0708 7000     		.ascii	"p\000"
 1813 070a 01       		.byte	0x1
 1814 070b 47       		.byte	0x47
 1815 070c B1020000 		.4byte	0x2b1
 1816 0710 B1000000 		.4byte	.LLST5
 1817 0714 00       		.byte	0
 1818 0715 24       		.uleb128 0x24
 1819 0716 A5030000 		.4byte	.LASF92
 1820 071a 01       		.byte	0x1
 1821 071b CB       		.byte	0xcb
 1822 071c 01       		.byte	0x1
 1823 071d 00000000 		.4byte	.LFB13
 1824 0721 18000000 		.4byte	.LFE13
 1825 0725 02       		.byte	0x2
 1826 0726 7D       		.byte	0x7d
 1827 0727 00       		.sleb128 0
 1828 0728 24       		.uleb128 0x24
 1829 0729 C5010000 		.4byte	.LASF93
 1830 072d 01       		.byte	0x1
 1831 072e 4E       		.byte	0x4e
 1832 072f 01       		.byte	0x1
 1833 0730 00000000 		.4byte	.LFB8
 1834 0734 18000000 		.4byte	.LFE8
 1835 0738 02       		.byte	0x2
 1836 0739 7D       		.byte	0x7d
 1837 073a 00       		.sleb128 0
 1838 073b 25       		.uleb128 0x25
 1839 073c F5010000 		.4byte	.LASF96
 1840 0740 01       		.byte	0x1
 1841 0741 8D       		.byte	0x8d
 1842 0742 01       		.byte	0x1
 1843 0743 00000000 		.4byte	.LFB11
 1844 0747 48010000 		.4byte	.LFE11
 1845 074b C4000000 		.4byte	.LLST6
 1846 074f 70070000 		.4byte	0x770
 1847 0753 26       		.uleb128 0x26
 1848 0754 6900     		.ascii	"i\000"
 1849 0756 01       		.byte	0x1
 1850 0757 8E       		.byte	0x8e
 1851 0758 29000000 		.4byte	0x29
 1852 075c E4000000 		.4byte	.LLST7
 1853 0760 27       		.uleb128 0x27
ARM GAS  /tmp/ccha5Aix.s 			page 34


 1854 0761 0D000000 		.4byte	.LASF94
 1855 0765 01       		.byte	0x1
 1856 0766 8F       		.byte	0x8f
 1857 0767 E4000000 		.4byte	0xe4
 1858 076b 34010000 		.4byte	.LLST8
 1859 076f 00       		.byte	0
 1860 0770 24       		.uleb128 0x24
 1861 0771 72000000 		.4byte	.LASF95
 1862 0775 01       		.byte	0x1
 1863 0776 88       		.byte	0x88
 1864 0777 01       		.byte	0x1
 1865 0778 00000000 		.4byte	.LFB10
 1866 077c 12000000 		.4byte	.LFE10
 1867 0780 02       		.byte	0x2
 1868 0781 7D       		.byte	0x7d
 1869 0782 00       		.sleb128 0
 1870 0783 25       		.uleb128 0x25
 1871 0784 52010000 		.4byte	.LASF97
 1872 0788 01       		.byte	0x1
 1873 0789 53       		.byte	0x53
 1874 078a 01       		.byte	0x1
 1875 078b 00000000 		.4byte	.LFB9
 1876 078f 00010000 		.4byte	.LFE9
 1877 0793 47010000 		.4byte	.LLST9
 1878 0797 D3070000 		.4byte	0x7d3
 1879 079b 28       		.uleb128 0x28
 1880 079c 6E00     		.ascii	"n\000"
 1881 079e 01       		.byte	0x1
 1882 079f 54       		.byte	0x54
 1883 07a0 30000000 		.4byte	0x30
 1884 07a4 02       		.byte	0x2
 1885 07a5 91       		.byte	0x91
 1886 07a6 68       		.sleb128 -24
 1887 07a7 26       		.uleb128 0x26
 1888 07a8 737A00   		.ascii	"sz\000"
 1889 07ab 01       		.byte	0x1
 1890 07ac 54       		.byte	0x54
 1891 07ad 30000000 		.4byte	0x30
 1892 07b1 73010000 		.4byte	.LLST10
 1893 07b5 26       		.uleb128 0x26
 1894 07b6 703100   		.ascii	"p1\000"
 1895 07b9 01       		.byte	0x1
 1896 07ba 55       		.byte	0x55
 1897 07bb B1020000 		.4byte	0x2b1
 1898 07bf 93010000 		.4byte	.LLST11
 1899 07c3 27       		.uleb128 0x27
 1900 07c4 0D000000 		.4byte	.LASF94
 1901 07c8 01       		.byte	0x1
 1902 07c9 56       		.byte	0x56
 1903 07ca E4000000 		.4byte	0xe4
 1904 07ce B1010000 		.4byte	.LLST12
 1905 07d2 00       		.byte	0
 1906 07d3 25       		.uleb128 0x25
 1907 07d4 54020000 		.4byte	.LASF98
 1908 07d8 01       		.byte	0x1
 1909 07d9 D0       		.byte	0xd0
 1910 07da 01       		.byte	0x1
ARM GAS  /tmp/ccha5Aix.s 			page 35


 1911 07db 00000000 		.4byte	.LFB14
 1912 07df 78010000 		.4byte	.LFE14
 1913 07e3 E0010000 		.4byte	.LLST13
 1914 07e7 6F080000 		.4byte	0x86f
 1915 07eb 26       		.uleb128 0x26
 1916 07ec 747000   		.ascii	"tp\000"
 1917 07ef 01       		.byte	0x1
 1918 07f0 D1       		.byte	0xd1
 1919 07f1 73020000 		.4byte	0x273
 1920 07f5 0C020000 		.4byte	.LLST14
 1921 07f9 1E       		.uleb128 0x1e
 1922 07fa 0D000000 		.4byte	.LASF94
 1923 07fe 01       		.byte	0x1
 1924 07ff D2       		.byte	0xd2
 1925 0800 E4000000 		.4byte	0xe4
 1926 0804 29       		.uleb128 0x29
 1927 0805 88060000 		.4byte	0x688
 1928 0809 76000000 		.4byte	.LBB6
 1929 080d 92000000 		.4byte	.LBE6
 1930 0811 01       		.byte	0x1
 1931 0812 DD       		.byte	0xdd
 1932 0813 3B080000 		.4byte	0x83b
 1933 0817 2A       		.uleb128 0x2a
 1934 0818 99060000 		.4byte	0x699
 1935 081c 01       		.byte	0x1
 1936 081d 54       		.byte	0x54
 1937 081e 2B       		.uleb128 0x2b
 1938 081f 76000000 		.4byte	.LBB7
 1939 0823 92000000 		.4byte	.LBE7
 1940 0827 21       		.uleb128 0x21
 1941 0828 A3060000 		.4byte	0x6a3
 1942 082c 2A020000 		.4byte	.LLST15
 1943 0830 21       		.uleb128 0x21
 1944 0831 AE060000 		.4byte	0x6ae
 1945 0835 5E020000 		.4byte	.LLST16
 1946 0839 00       		.byte	0
 1947 083a 00       		.byte	0
 1948 083b 2C       		.uleb128 0x2c
 1949 083c 88060000 		.4byte	0x688
 1950 0840 9E000000 		.4byte	.LBB8
 1951 0844 B4000000 		.4byte	.LBE8
 1952 0848 01       		.byte	0x1
 1953 0849 DE       		.byte	0xde
 1954 084a 2A       		.uleb128 0x2a
 1955 084b 99060000 		.4byte	0x699
 1956 084f 01       		.byte	0x1
 1957 0850 54       		.byte	0x54
 1958 0851 2B       		.uleb128 0x2b
 1959 0852 9E000000 		.4byte	.LBB9
 1960 0856 B4000000 		.4byte	.LBE9
 1961 085a 21       		.uleb128 0x21
 1962 085b A3060000 		.4byte	0x6a3
 1963 085f 88020000 		.4byte	.LLST17
 1964 0863 21       		.uleb128 0x21
 1965 0864 AE060000 		.4byte	0x6ae
 1966 0868 A6020000 		.4byte	.LLST18
 1967 086c 00       		.byte	0
ARM GAS  /tmp/ccha5Aix.s 			page 36


 1968 086d 00       		.byte	0
 1969 086e 00       		.byte	0
 1970 086f 2D       		.uleb128 0x2d
 1971 0870 2F040000 		.4byte	.LASF99
 1972 0874 08       		.byte	0x8
 1973 0875 68       		.byte	0x68
 1974 0876 D1030000 		.4byte	0x3d1
 1975 087a 01       		.byte	0x1
 1976 087b 01       		.byte	0x1
 1977 087c 17       		.uleb128 0x17
 1978 087d 73020000 		.4byte	0x273
 1979 0881 8C080000 		.4byte	0x88c
 1980 0885 18       		.uleb128 0x18
 1981 0886 3B000000 		.4byte	0x3b
 1982 088a 04       		.byte	0x4
 1983 088b 00       		.byte	0
 1984 088c 2D       		.uleb128 0x2d
 1985 088d 29030000 		.4byte	.LASF100
 1986 0891 0D       		.byte	0xd
 1987 0892 A5       		.byte	0xa5
 1988 0893 7C080000 		.4byte	0x87c
 1989 0897 01       		.byte	0x1
 1990 0898 01       		.byte	0x1
 1991 0899 2D       		.uleb128 0x2d
 1992 089a 61000000 		.4byte	.LASF101
 1993 089e 0D       		.byte	0xd
 1994 089f A6       		.byte	0xa6
 1995 08a0 54060000 		.4byte	0x654
 1996 08a4 01       		.byte	0x1
 1997 08a5 01       		.byte	0x1
 1998 08a6 17       		.uleb128 0x17
 1999 08a7 B1020000 		.4byte	0x2b1
 2000 08ab B1080000 		.4byte	0x8b1
 2001 08af 2E       		.uleb128 0x2e
 2002 08b0 00       		.byte	0
 2003 08b1 2F       		.uleb128 0x2f
 2004 08b2 776100   		.ascii	"wa\000"
 2005 08b5 0D       		.byte	0xd
 2006 08b6 A7       		.byte	0xa7
 2007 08b7 BD080000 		.4byte	0x8bd
 2008 08bb 01       		.byte	0x1
 2009 08bc 01       		.byte	0x1
 2010 08bd 14       		.uleb128 0x14
 2011 08be A6080000 		.4byte	0x8a6
 2012 08c2 30       		.uleb128 0x30
 2013 08c3 63040000 		.4byte	.LASF102
 2014 08c7 01       		.byte	0x1
 2015 08c8 36       		.byte	0x36
 2016 08c9 45040000 		.4byte	0x445
 2017 08cd 05       		.byte	0x5
 2018 08ce 03       		.byte	0x3
 2019 08cf 00000000 		.4byte	heap1
 2020 08d3 28       		.uleb128 0x28
 2021 08d4 6D703100 		.ascii	"mp1\000"
 2022 08d8 01       		.byte	0x1
 2023 08d9 39       		.byte	0x39
 2024 08da 4A050000 		.4byte	0x54a
ARM GAS  /tmp/ccha5Aix.s 			page 37


 2025 08de 05       		.byte	0x5
 2026 08df 03       		.byte	0x3
 2027 08e0 00000000 		.4byte	mp1
 2028 08e4 2D       		.uleb128 0x2d
 2029 08e5 39020000 		.4byte	.LASF103
 2030 08e9 01       		.byte	0x1
 2031 08ea 75       		.byte	0x75
 2032 08eb F1080000 		.4byte	0x8f1
 2033 08ef 01       		.byte	0x1
 2034 08f0 01       		.byte	0x1
 2035 08f1 14       		.uleb128 0x14
 2036 08f2 A8050000 		.4byte	0x5a8
 2037 08f6 2D       		.uleb128 0x2d
 2038 08f7 42020000 		.4byte	.LASF104
 2039 08fb 01       		.byte	0x1
 2040 08fc AD       		.byte	0xad
 2041 08fd F1080000 		.4byte	0x8f1
 2042 0901 01       		.byte	0x1
 2043 0902 01       		.byte	0x1
 2044 0903 2D       		.uleb128 0x2d
 2045 0904 4B020000 		.4byte	.LASF105
 2046 0908 01       		.byte	0x1
 2047 0909 EE       		.byte	0xee
 2048 090a F1080000 		.4byte	0x8f1
 2049 090e 01       		.byte	0x1
 2050 090f 01       		.byte	0x1
 2051 0910 2D       		.uleb128 0x2d
 2052 0911 2F040000 		.4byte	.LASF99
 2053 0915 08       		.byte	0x8
 2054 0916 68       		.byte	0x68
 2055 0917 D1030000 		.4byte	0x3d1
 2056 091b 01       		.byte	0x1
 2057 091c 01       		.byte	0x1
 2058 091d 2D       		.uleb128 0x2d
 2059 091e 29030000 		.4byte	.LASF100
 2060 0922 0D       		.byte	0xd
 2061 0923 A5       		.byte	0xa5
 2062 0924 7C080000 		.4byte	0x87c
 2063 0928 01       		.byte	0x1
 2064 0929 01       		.byte	0x1
 2065 092a 2D       		.uleb128 0x2d
 2066 092b 61000000 		.4byte	.LASF101
 2067 092f 0D       		.byte	0xd
 2068 0930 A6       		.byte	0xa6
 2069 0931 54060000 		.4byte	0x654
 2070 0935 01       		.byte	0x1
 2071 0936 01       		.byte	0x1
 2072 0937 2F       		.uleb128 0x2f
 2073 0938 776100   		.ascii	"wa\000"
 2074 093b 0D       		.byte	0xd
 2075 093c A7       		.byte	0xa7
 2076 093d 43090000 		.4byte	0x943
 2077 0941 01       		.byte	0x1
 2078 0942 01       		.byte	0x1
 2079 0943 14       		.uleb128 0x14
 2080 0944 A6080000 		.4byte	0x8a6
 2081 0948 31       		.uleb128 0x31
ARM GAS  /tmp/ccha5Aix.s 			page 38


 2082 0949 39020000 		.4byte	.LASF103
 2083 094d 01       		.byte	0x1
 2084 094e 75       		.byte	0x75
 2085 094f F1080000 		.4byte	0x8f1
 2086 0953 01       		.byte	0x1
 2087 0954 05       		.byte	0x5
 2088 0955 03       		.byte	0x3
 2089 0956 00000000 		.4byte	testdyn1
 2090 095a 31       		.uleb128 0x31
 2091 095b 42020000 		.4byte	.LASF104
 2092 095f 01       		.byte	0x1
 2093 0960 AD       		.byte	0xad
 2094 0961 F1080000 		.4byte	0x8f1
 2095 0965 01       		.byte	0x1
 2096 0966 05       		.byte	0x5
 2097 0967 03       		.byte	0x3
 2098 0968 00000000 		.4byte	testdyn2
 2099 096c 31       		.uleb128 0x31
 2100 096d 4B020000 		.4byte	.LASF105
 2101 0971 01       		.byte	0x1
 2102 0972 EE       		.byte	0xee
 2103 0973 F1080000 		.4byte	0x8f1
 2104 0977 01       		.byte	0x1
 2105 0978 05       		.byte	0x5
 2106 0979 03       		.byte	0x3
 2107 097a 00000000 		.4byte	testdyn3
 2108 097e 17       		.uleb128 0x17
 2109 097f 8E090000 		.4byte	0x98e
 2110 0983 8E090000 		.4byte	0x98e
 2111 0987 18       		.uleb128 0x18
 2112 0988 3B000000 		.4byte	0x3b
 2113 098c 03       		.byte	0x3
 2114 098d 00       		.byte	0
 2115 098e 09       		.uleb128 0x9
 2116 098f 04       		.byte	0x4
 2117 0990 F1080000 		.4byte	0x8f1
 2118 0994 31       		.uleb128 0x31
 2119 0995 D3030000 		.4byte	.LASF106
 2120 0999 01       		.byte	0x1
 2121 099a FA       		.byte	0xfa
 2122 099b A6090000 		.4byte	0x9a6
 2123 099f 01       		.byte	0x1
 2124 09a0 05       		.byte	0x5
 2125 09a1 03       		.byte	0x3
 2126 09a2 00000000 		.4byte	patterndyn
 2127 09a6 14       		.uleb128 0x14
 2128 09a7 7E090000 		.4byte	0x97e
 2129 09ab 00       		.byte	0
 2130              		.section	.debug_abbrev,"",%progbits
 2131              	.Ldebug_abbrev0:
 2132 0000 01       		.uleb128 0x1
 2133 0001 11       		.uleb128 0x11
 2134 0002 01       		.byte	0x1
 2135 0003 25       		.uleb128 0x25
 2136 0004 0E       		.uleb128 0xe
 2137 0005 13       		.uleb128 0x13
 2138 0006 0B       		.uleb128 0xb
ARM GAS  /tmp/ccha5Aix.s 			page 39


 2139 0007 03       		.uleb128 0x3
 2140 0008 0E       		.uleb128 0xe
 2141 0009 1B       		.uleb128 0x1b
 2142 000a 0E       		.uleb128 0xe
 2143 000b 11       		.uleb128 0x11
 2144 000c 01       		.uleb128 0x1
 2145 000d 52       		.uleb128 0x52
 2146 000e 01       		.uleb128 0x1
 2147 000f 55       		.uleb128 0x55
 2148 0010 06       		.uleb128 0x6
 2149 0011 10       		.uleb128 0x10
 2150 0012 06       		.uleb128 0x6
 2151 0013 00       		.byte	0
 2152 0014 00       		.byte	0
 2153 0015 02       		.uleb128 0x2
 2154 0016 24       		.uleb128 0x24
 2155 0017 00       		.byte	0
 2156 0018 0B       		.uleb128 0xb
 2157 0019 0B       		.uleb128 0xb
 2158 001a 3E       		.uleb128 0x3e
 2159 001b 0B       		.uleb128 0xb
 2160 001c 03       		.uleb128 0x3
 2161 001d 08       		.uleb128 0x8
 2162 001e 00       		.byte	0
 2163 001f 00       		.byte	0
 2164 0020 03       		.uleb128 0x3
 2165 0021 16       		.uleb128 0x16
 2166 0022 00       		.byte	0
 2167 0023 03       		.uleb128 0x3
 2168 0024 0E       		.uleb128 0xe
 2169 0025 3A       		.uleb128 0x3a
 2170 0026 0B       		.uleb128 0xb
 2171 0027 3B       		.uleb128 0x3b
 2172 0028 0B       		.uleb128 0xb
 2173 0029 49       		.uleb128 0x49
 2174 002a 13       		.uleb128 0x13
 2175 002b 00       		.byte	0
 2176 002c 00       		.byte	0
 2177 002d 04       		.uleb128 0x4
 2178 002e 24       		.uleb128 0x24
 2179 002f 00       		.byte	0
 2180 0030 0B       		.uleb128 0xb
 2181 0031 0B       		.uleb128 0xb
 2182 0032 3E       		.uleb128 0x3e
 2183 0033 0B       		.uleb128 0xb
 2184 0034 03       		.uleb128 0x3
 2185 0035 0E       		.uleb128 0xe
 2186 0036 00       		.byte	0
 2187 0037 00       		.byte	0
 2188 0038 05       		.uleb128 0x5
 2189 0039 13       		.uleb128 0x13
 2190 003a 01       		.byte	0x1
 2191 003b 03       		.uleb128 0x3
 2192 003c 0E       		.uleb128 0xe
 2193 003d 0B       		.uleb128 0xb
 2194 003e 0B       		.uleb128 0xb
 2195 003f 3A       		.uleb128 0x3a
ARM GAS  /tmp/ccha5Aix.s 			page 40


 2196 0040 0B       		.uleb128 0xb
 2197 0041 3B       		.uleb128 0x3b
 2198 0042 0B       		.uleb128 0xb
 2199 0043 01       		.uleb128 0x1
 2200 0044 13       		.uleb128 0x13
 2201 0045 00       		.byte	0
 2202 0046 00       		.byte	0
 2203 0047 06       		.uleb128 0x6
 2204 0048 0D       		.uleb128 0xd
 2205 0049 00       		.byte	0
 2206 004a 03       		.uleb128 0x3
 2207 004b 0E       		.uleb128 0xe
 2208 004c 3A       		.uleb128 0x3a
 2209 004d 0B       		.uleb128 0xb
 2210 004e 3B       		.uleb128 0x3b
 2211 004f 0B       		.uleb128 0xb
 2212 0050 49       		.uleb128 0x49
 2213 0051 13       		.uleb128 0x13
 2214 0052 38       		.uleb128 0x38
 2215 0053 0A       		.uleb128 0xa
 2216 0054 00       		.byte	0
 2217 0055 00       		.byte	0
 2218 0056 07       		.uleb128 0x7
 2219 0057 0D       		.uleb128 0xd
 2220 0058 00       		.byte	0
 2221 0059 03       		.uleb128 0x3
 2222 005a 08       		.uleb128 0x8
 2223 005b 3A       		.uleb128 0x3a
 2224 005c 0B       		.uleb128 0xb
 2225 005d 3B       		.uleb128 0x3b
 2226 005e 0B       		.uleb128 0xb
 2227 005f 49       		.uleb128 0x49
 2228 0060 13       		.uleb128 0x13
 2229 0061 38       		.uleb128 0x38
 2230 0062 0A       		.uleb128 0xa
 2231 0063 00       		.byte	0
 2232 0064 00       		.byte	0
 2233 0065 08       		.uleb128 0x8
 2234 0066 13       		.uleb128 0x13
 2235 0067 01       		.byte	0x1
 2236 0068 0B       		.uleb128 0xb
 2237 0069 0B       		.uleb128 0xb
 2238 006a 3A       		.uleb128 0x3a
 2239 006b 0B       		.uleb128 0xb
 2240 006c 3B       		.uleb128 0x3b
 2241 006d 0B       		.uleb128 0xb
 2242 006e 01       		.uleb128 0x1
 2243 006f 13       		.uleb128 0x13
 2244 0070 00       		.byte	0
 2245 0071 00       		.byte	0
 2246 0072 09       		.uleb128 0x9
 2247 0073 0F       		.uleb128 0xf
 2248 0074 00       		.byte	0
 2249 0075 0B       		.uleb128 0xb
 2250 0076 0B       		.uleb128 0xb
 2251 0077 49       		.uleb128 0x49
 2252 0078 13       		.uleb128 0x13
ARM GAS  /tmp/ccha5Aix.s 			page 41


 2253 0079 00       		.byte	0
 2254 007a 00       		.byte	0
 2255 007b 0A       		.uleb128 0xa
 2256 007c 0F       		.uleb128 0xf
 2257 007d 00       		.byte	0
 2258 007e 0B       		.uleb128 0xb
 2259 007f 0B       		.uleb128 0xb
 2260 0080 00       		.byte	0
 2261 0081 00       		.byte	0
 2262 0082 0B       		.uleb128 0xb
 2263 0083 13       		.uleb128 0x13
 2264 0084 01       		.byte	0x1
 2265 0085 03       		.uleb128 0x3
 2266 0086 0E       		.uleb128 0xe
 2267 0087 0B       		.uleb128 0xb
 2268 0088 0B       		.uleb128 0xb
 2269 0089 3A       		.uleb128 0x3a
 2270 008a 0B       		.uleb128 0xb
 2271 008b 3B       		.uleb128 0x3b
 2272 008c 05       		.uleb128 0x5
 2273 008d 01       		.uleb128 0x1
 2274 008e 13       		.uleb128 0x13
 2275 008f 00       		.byte	0
 2276 0090 00       		.byte	0
 2277 0091 0C       		.uleb128 0xc
 2278 0092 0D       		.uleb128 0xd
 2279 0093 00       		.byte	0
 2280 0094 03       		.uleb128 0x3
 2281 0095 08       		.uleb128 0x8
 2282 0096 3A       		.uleb128 0x3a
 2283 0097 0B       		.uleb128 0xb
 2284 0098 3B       		.uleb128 0x3b
 2285 0099 05       		.uleb128 0x5
 2286 009a 49       		.uleb128 0x49
 2287 009b 13       		.uleb128 0x13
 2288 009c 38       		.uleb128 0x38
 2289 009d 0A       		.uleb128 0xa
 2290 009e 00       		.byte	0
 2291 009f 00       		.byte	0
 2292 00a0 0D       		.uleb128 0xd
 2293 00a1 35       		.uleb128 0x35
 2294 00a2 00       		.byte	0
 2295 00a3 49       		.uleb128 0x49
 2296 00a4 13       		.uleb128 0x13
 2297 00a5 00       		.byte	0
 2298 00a6 00       		.byte	0
 2299 00a7 0E       		.uleb128 0xe
 2300 00a8 15       		.uleb128 0x15
 2301 00a9 01       		.byte	0x1
 2302 00aa 27       		.uleb128 0x27
 2303 00ab 0C       		.uleb128 0xc
 2304 00ac 49       		.uleb128 0x49
 2305 00ad 13       		.uleb128 0x13
 2306 00ae 01       		.uleb128 0x1
 2307 00af 13       		.uleb128 0x13
 2308 00b0 00       		.byte	0
 2309 00b1 00       		.byte	0
ARM GAS  /tmp/ccha5Aix.s 			page 42


 2310 00b2 0F       		.uleb128 0xf
 2311 00b3 05       		.uleb128 0x5
 2312 00b4 00       		.byte	0
 2313 00b5 49       		.uleb128 0x49
 2314 00b6 13       		.uleb128 0x13
 2315 00b7 00       		.byte	0
 2316 00b8 00       		.byte	0
 2317 00b9 10       		.uleb128 0x10
 2318 00ba 17       		.uleb128 0x17
 2319 00bb 01       		.byte	0x1
 2320 00bc 0B       		.uleb128 0xb
 2321 00bd 0B       		.uleb128 0xb
 2322 00be 3A       		.uleb128 0x3a
 2323 00bf 0B       		.uleb128 0xb
 2324 00c0 3B       		.uleb128 0x3b
 2325 00c1 0B       		.uleb128 0xb
 2326 00c2 01       		.uleb128 0x1
 2327 00c3 13       		.uleb128 0x13
 2328 00c4 00       		.byte	0
 2329 00c5 00       		.byte	0
 2330 00c6 11       		.uleb128 0x11
 2331 00c7 0D       		.uleb128 0xd
 2332 00c8 00       		.byte	0
 2333 00c9 03       		.uleb128 0x3
 2334 00ca 0E       		.uleb128 0xe
 2335 00cb 3A       		.uleb128 0x3a
 2336 00cc 0B       		.uleb128 0xb
 2337 00cd 3B       		.uleb128 0x3b
 2338 00ce 0B       		.uleb128 0xb
 2339 00cf 49       		.uleb128 0x49
 2340 00d0 13       		.uleb128 0x13
 2341 00d1 00       		.byte	0
 2342 00d2 00       		.byte	0
 2343 00d3 12       		.uleb128 0x12
 2344 00d4 17       		.uleb128 0x17
 2345 00d5 01       		.byte	0x1
 2346 00d6 03       		.uleb128 0x3
 2347 00d7 0E       		.uleb128 0xe
 2348 00d8 0B       		.uleb128 0xb
 2349 00d9 0B       		.uleb128 0xb
 2350 00da 3A       		.uleb128 0x3a
 2351 00db 0B       		.uleb128 0xb
 2352 00dc 3B       		.uleb128 0x3b
 2353 00dd 0B       		.uleb128 0xb
 2354 00de 01       		.uleb128 0x1
 2355 00df 13       		.uleb128 0x13
 2356 00e0 00       		.byte	0
 2357 00e1 00       		.byte	0
 2358 00e2 13       		.uleb128 0x13
 2359 00e3 0D       		.uleb128 0xd
 2360 00e4 00       		.byte	0
 2361 00e5 03       		.uleb128 0x3
 2362 00e6 08       		.uleb128 0x8
 2363 00e7 3A       		.uleb128 0x3a
 2364 00e8 0B       		.uleb128 0xb
 2365 00e9 3B       		.uleb128 0x3b
 2366 00ea 0B       		.uleb128 0xb
ARM GAS  /tmp/ccha5Aix.s 			page 43


 2367 00eb 49       		.uleb128 0x49
 2368 00ec 13       		.uleb128 0x13
 2369 00ed 00       		.byte	0
 2370 00ee 00       		.byte	0
 2371 00ef 14       		.uleb128 0x14
 2372 00f0 26       		.uleb128 0x26
 2373 00f1 00       		.byte	0
 2374 00f2 49       		.uleb128 0x49
 2375 00f3 13       		.uleb128 0x13
 2376 00f4 00       		.byte	0
 2377 00f5 00       		.byte	0
 2378 00f6 15       		.uleb128 0x15
 2379 00f7 15       		.uleb128 0x15
 2380 00f8 00       		.byte	0
 2381 00f9 27       		.uleb128 0x27
 2382 00fa 0C       		.uleb128 0xc
 2383 00fb 00       		.byte	0
 2384 00fc 00       		.byte	0
 2385 00fd 16       		.uleb128 0x16
 2386 00fe 13       		.uleb128 0x13
 2387 00ff 01       		.byte	0x1
 2388 0100 0B       		.uleb128 0xb
 2389 0101 05       		.uleb128 0x5
 2390 0102 3A       		.uleb128 0x3a
 2391 0103 0B       		.uleb128 0xb
 2392 0104 3B       		.uleb128 0x3b
 2393 0105 0B       		.uleb128 0xb
 2394 0106 01       		.uleb128 0x1
 2395 0107 13       		.uleb128 0x13
 2396 0108 00       		.byte	0
 2397 0109 00       		.byte	0
 2398 010a 17       		.uleb128 0x17
 2399 010b 01       		.uleb128 0x1
 2400 010c 01       		.byte	0x1
 2401 010d 49       		.uleb128 0x49
 2402 010e 13       		.uleb128 0x13
 2403 010f 01       		.uleb128 0x1
 2404 0110 13       		.uleb128 0x13
 2405 0111 00       		.byte	0
 2406 0112 00       		.byte	0
 2407 0113 18       		.uleb128 0x18
 2408 0114 21       		.uleb128 0x21
 2409 0115 00       		.byte	0
 2410 0116 49       		.uleb128 0x49
 2411 0117 13       		.uleb128 0x13
 2412 0118 2F       		.uleb128 0x2f
 2413 0119 0B       		.uleb128 0xb
 2414 011a 00       		.byte	0
 2415 011b 00       		.byte	0
 2416 011c 19       		.uleb128 0x19
 2417 011d 17       		.uleb128 0x17
 2418 011e 01       		.byte	0x1
 2419 011f 03       		.uleb128 0x3
 2420 0120 0E       		.uleb128 0xe
 2421 0121 0B       		.uleb128 0xb
 2422 0122 05       		.uleb128 0x5
 2423 0123 3A       		.uleb128 0x3a
ARM GAS  /tmp/ccha5Aix.s 			page 44


 2424 0124 0B       		.uleb128 0xb
 2425 0125 3B       		.uleb128 0x3b
 2426 0126 0B       		.uleb128 0xb
 2427 0127 01       		.uleb128 0x1
 2428 0128 13       		.uleb128 0x13
 2429 0129 00       		.byte	0
 2430 012a 00       		.byte	0
 2431 012b 1A       		.uleb128 0x1a
 2432 012c 21       		.uleb128 0x21
 2433 012d 00       		.byte	0
 2434 012e 49       		.uleb128 0x49
 2435 012f 13       		.uleb128 0x13
 2436 0130 2F       		.uleb128 0x2f
 2437 0131 05       		.uleb128 0x5
 2438 0132 00       		.byte	0
 2439 0133 00       		.byte	0
 2440 0134 1B       		.uleb128 0x1b
 2441 0135 2E       		.uleb128 0x2e
 2442 0136 01       		.byte	0x1
 2443 0137 03       		.uleb128 0x3
 2444 0138 0E       		.uleb128 0xe
 2445 0139 3A       		.uleb128 0x3a
 2446 013a 0B       		.uleb128 0xb
 2447 013b 3B       		.uleb128 0x3b
 2448 013c 0B       		.uleb128 0xb
 2449 013d 27       		.uleb128 0x27
 2450 013e 0C       		.uleb128 0xc
 2451 013f 49       		.uleb128 0x49
 2452 0140 13       		.uleb128 0x13
 2453 0141 20       		.uleb128 0x20
 2454 0142 0B       		.uleb128 0xb
 2455 0143 01       		.uleb128 0x1
 2456 0144 13       		.uleb128 0x13
 2457 0145 00       		.byte	0
 2458 0146 00       		.byte	0
 2459 0147 1C       		.uleb128 0x1c
 2460 0148 05       		.uleb128 0x5
 2461 0149 00       		.byte	0
 2462 014a 03       		.uleb128 0x3
 2463 014b 08       		.uleb128 0x8
 2464 014c 3A       		.uleb128 0x3a
 2465 014d 0B       		.uleb128 0xb
 2466 014e 3B       		.uleb128 0x3b
 2467 014f 0B       		.uleb128 0xb
 2468 0150 49       		.uleb128 0x49
 2469 0151 13       		.uleb128 0x13
 2470 0152 00       		.byte	0
 2471 0153 00       		.byte	0
 2472 0154 1D       		.uleb128 0x1d
 2473 0155 34       		.uleb128 0x34
 2474 0156 00       		.byte	0
 2475 0157 03       		.uleb128 0x3
 2476 0158 08       		.uleb128 0x8
 2477 0159 3A       		.uleb128 0x3a
 2478 015a 0B       		.uleb128 0xb
 2479 015b 3B       		.uleb128 0x3b
 2480 015c 0B       		.uleb128 0xb
ARM GAS  /tmp/ccha5Aix.s 			page 45


 2481 015d 49       		.uleb128 0x49
 2482 015e 13       		.uleb128 0x13
 2483 015f 00       		.byte	0
 2484 0160 00       		.byte	0
 2485 0161 1E       		.uleb128 0x1e
 2486 0162 34       		.uleb128 0x34
 2487 0163 00       		.byte	0
 2488 0164 03       		.uleb128 0x3
 2489 0165 0E       		.uleb128 0xe
 2490 0166 3A       		.uleb128 0x3a
 2491 0167 0B       		.uleb128 0xb
 2492 0168 3B       		.uleb128 0x3b
 2493 0169 0B       		.uleb128 0xb
 2494 016a 49       		.uleb128 0x49
 2495 016b 13       		.uleb128 0x13
 2496 016c 00       		.byte	0
 2497 016d 00       		.byte	0
 2498 016e 1F       		.uleb128 0x1f
 2499 016f 2E       		.uleb128 0x2e
 2500 0170 01       		.byte	0x1
 2501 0171 31       		.uleb128 0x31
 2502 0172 13       		.uleb128 0x13
 2503 0173 11       		.uleb128 0x11
 2504 0174 01       		.uleb128 0x1
 2505 0175 12       		.uleb128 0x12
 2506 0176 01       		.uleb128 0x1
 2507 0177 40       		.uleb128 0x40
 2508 0178 06       		.uleb128 0x6
 2509 0179 01       		.uleb128 0x1
 2510 017a 13       		.uleb128 0x13
 2511 017b 00       		.byte	0
 2512 017c 00       		.byte	0
 2513 017d 20       		.uleb128 0x20
 2514 017e 05       		.uleb128 0x5
 2515 017f 00       		.byte	0
 2516 0180 31       		.uleb128 0x31
 2517 0181 13       		.uleb128 0x13
 2518 0182 02       		.uleb128 0x2
 2519 0183 06       		.uleb128 0x6
 2520 0184 00       		.byte	0
 2521 0185 00       		.byte	0
 2522 0186 21       		.uleb128 0x21
 2523 0187 34       		.uleb128 0x34
 2524 0188 00       		.byte	0
 2525 0189 31       		.uleb128 0x31
 2526 018a 13       		.uleb128 0x13
 2527 018b 02       		.uleb128 0x2
 2528 018c 06       		.uleb128 0x6
 2529 018d 00       		.byte	0
 2530 018e 00       		.byte	0
 2531 018f 22       		.uleb128 0x22
 2532 0190 2E       		.uleb128 0x2e
 2533 0191 01       		.byte	0x1
 2534 0192 03       		.uleb128 0x3
 2535 0193 0E       		.uleb128 0xe
 2536 0194 3A       		.uleb128 0x3a
 2537 0195 0B       		.uleb128 0xb
ARM GAS  /tmp/ccha5Aix.s 			page 46


 2538 0196 3B       		.uleb128 0x3b
 2539 0197 0B       		.uleb128 0xb
 2540 0198 27       		.uleb128 0x27
 2541 0199 0C       		.uleb128 0xc
 2542 019a 49       		.uleb128 0x49
 2543 019b 13       		.uleb128 0x13
 2544 019c 11       		.uleb128 0x11
 2545 019d 01       		.uleb128 0x1
 2546 019e 12       		.uleb128 0x12
 2547 019f 01       		.uleb128 0x1
 2548 01a0 40       		.uleb128 0x40
 2549 01a1 06       		.uleb128 0x6
 2550 01a2 01       		.uleb128 0x1
 2551 01a3 13       		.uleb128 0x13
 2552 01a4 00       		.byte	0
 2553 01a5 00       		.byte	0
 2554 01a6 23       		.uleb128 0x23
 2555 01a7 05       		.uleb128 0x5
 2556 01a8 00       		.byte	0
 2557 01a9 03       		.uleb128 0x3
 2558 01aa 08       		.uleb128 0x8
 2559 01ab 3A       		.uleb128 0x3a
 2560 01ac 0B       		.uleb128 0xb
 2561 01ad 3B       		.uleb128 0x3b
 2562 01ae 0B       		.uleb128 0xb
 2563 01af 49       		.uleb128 0x49
 2564 01b0 13       		.uleb128 0x13
 2565 01b1 02       		.uleb128 0x2
 2566 01b2 06       		.uleb128 0x6
 2567 01b3 00       		.byte	0
 2568 01b4 00       		.byte	0
 2569 01b5 24       		.uleb128 0x24
 2570 01b6 2E       		.uleb128 0x2e
 2571 01b7 00       		.byte	0
 2572 01b8 03       		.uleb128 0x3
 2573 01b9 0E       		.uleb128 0xe
 2574 01ba 3A       		.uleb128 0x3a
 2575 01bb 0B       		.uleb128 0xb
 2576 01bc 3B       		.uleb128 0x3b
 2577 01bd 0B       		.uleb128 0xb
 2578 01be 27       		.uleb128 0x27
 2579 01bf 0C       		.uleb128 0xc
 2580 01c0 11       		.uleb128 0x11
 2581 01c1 01       		.uleb128 0x1
 2582 01c2 12       		.uleb128 0x12
 2583 01c3 01       		.uleb128 0x1
 2584 01c4 40       		.uleb128 0x40
 2585 01c5 0A       		.uleb128 0xa
 2586 01c6 00       		.byte	0
 2587 01c7 00       		.byte	0
 2588 01c8 25       		.uleb128 0x25
 2589 01c9 2E       		.uleb128 0x2e
 2590 01ca 01       		.byte	0x1
 2591 01cb 03       		.uleb128 0x3
 2592 01cc 0E       		.uleb128 0xe
 2593 01cd 3A       		.uleb128 0x3a
 2594 01ce 0B       		.uleb128 0xb
ARM GAS  /tmp/ccha5Aix.s 			page 47


 2595 01cf 3B       		.uleb128 0x3b
 2596 01d0 0B       		.uleb128 0xb
 2597 01d1 27       		.uleb128 0x27
 2598 01d2 0C       		.uleb128 0xc
 2599 01d3 11       		.uleb128 0x11
 2600 01d4 01       		.uleb128 0x1
 2601 01d5 12       		.uleb128 0x12
 2602 01d6 01       		.uleb128 0x1
 2603 01d7 40       		.uleb128 0x40
 2604 01d8 06       		.uleb128 0x6
 2605 01d9 01       		.uleb128 0x1
 2606 01da 13       		.uleb128 0x13
 2607 01db 00       		.byte	0
 2608 01dc 00       		.byte	0
 2609 01dd 26       		.uleb128 0x26
 2610 01de 34       		.uleb128 0x34
 2611 01df 00       		.byte	0
 2612 01e0 03       		.uleb128 0x3
 2613 01e1 08       		.uleb128 0x8
 2614 01e2 3A       		.uleb128 0x3a
 2615 01e3 0B       		.uleb128 0xb
 2616 01e4 3B       		.uleb128 0x3b
 2617 01e5 0B       		.uleb128 0xb
 2618 01e6 49       		.uleb128 0x49
 2619 01e7 13       		.uleb128 0x13
 2620 01e8 02       		.uleb128 0x2
 2621 01e9 06       		.uleb128 0x6
 2622 01ea 00       		.byte	0
 2623 01eb 00       		.byte	0
 2624 01ec 27       		.uleb128 0x27
 2625 01ed 34       		.uleb128 0x34
 2626 01ee 00       		.byte	0
 2627 01ef 03       		.uleb128 0x3
 2628 01f0 0E       		.uleb128 0xe
 2629 01f1 3A       		.uleb128 0x3a
 2630 01f2 0B       		.uleb128 0xb
 2631 01f3 3B       		.uleb128 0x3b
 2632 01f4 0B       		.uleb128 0xb
 2633 01f5 49       		.uleb128 0x49
 2634 01f6 13       		.uleb128 0x13
 2635 01f7 02       		.uleb128 0x2
 2636 01f8 06       		.uleb128 0x6
 2637 01f9 00       		.byte	0
 2638 01fa 00       		.byte	0
 2639 01fb 28       		.uleb128 0x28
 2640 01fc 34       		.uleb128 0x34
 2641 01fd 00       		.byte	0
 2642 01fe 03       		.uleb128 0x3
 2643 01ff 08       		.uleb128 0x8
 2644 0200 3A       		.uleb128 0x3a
 2645 0201 0B       		.uleb128 0xb
 2646 0202 3B       		.uleb128 0x3b
 2647 0203 0B       		.uleb128 0xb
 2648 0204 49       		.uleb128 0x49
 2649 0205 13       		.uleb128 0x13
 2650 0206 02       		.uleb128 0x2
 2651 0207 0A       		.uleb128 0xa
ARM GAS  /tmp/ccha5Aix.s 			page 48


 2652 0208 00       		.byte	0
 2653 0209 00       		.byte	0
 2654 020a 29       		.uleb128 0x29
 2655 020b 1D       		.uleb128 0x1d
 2656 020c 01       		.byte	0x1
 2657 020d 31       		.uleb128 0x31
 2658 020e 13       		.uleb128 0x13
 2659 020f 11       		.uleb128 0x11
 2660 0210 01       		.uleb128 0x1
 2661 0211 12       		.uleb128 0x12
 2662 0212 01       		.uleb128 0x1
 2663 0213 58       		.uleb128 0x58
 2664 0214 0B       		.uleb128 0xb
 2665 0215 59       		.uleb128 0x59
 2666 0216 0B       		.uleb128 0xb
 2667 0217 01       		.uleb128 0x1
 2668 0218 13       		.uleb128 0x13
 2669 0219 00       		.byte	0
 2670 021a 00       		.byte	0
 2671 021b 2A       		.uleb128 0x2a
 2672 021c 05       		.uleb128 0x5
 2673 021d 00       		.byte	0
 2674 021e 31       		.uleb128 0x31
 2675 021f 13       		.uleb128 0x13
 2676 0220 02       		.uleb128 0x2
 2677 0221 0A       		.uleb128 0xa
 2678 0222 00       		.byte	0
 2679 0223 00       		.byte	0
 2680 0224 2B       		.uleb128 0x2b
 2681 0225 0B       		.uleb128 0xb
 2682 0226 01       		.byte	0x1
 2683 0227 11       		.uleb128 0x11
 2684 0228 01       		.uleb128 0x1
 2685 0229 12       		.uleb128 0x12
 2686 022a 01       		.uleb128 0x1
 2687 022b 00       		.byte	0
 2688 022c 00       		.byte	0
 2689 022d 2C       		.uleb128 0x2c
 2690 022e 1D       		.uleb128 0x1d
 2691 022f 01       		.byte	0x1
 2692 0230 31       		.uleb128 0x31
 2693 0231 13       		.uleb128 0x13
 2694 0232 11       		.uleb128 0x11
 2695 0233 01       		.uleb128 0x1
 2696 0234 12       		.uleb128 0x12
 2697 0235 01       		.uleb128 0x1
 2698 0236 58       		.uleb128 0x58
 2699 0237 0B       		.uleb128 0xb
 2700 0238 59       		.uleb128 0x59
 2701 0239 0B       		.uleb128 0xb
 2702 023a 00       		.byte	0
 2703 023b 00       		.byte	0
 2704 023c 2D       		.uleb128 0x2d
 2705 023d 34       		.uleb128 0x34
 2706 023e 00       		.byte	0
 2707 023f 03       		.uleb128 0x3
 2708 0240 0E       		.uleb128 0xe
ARM GAS  /tmp/ccha5Aix.s 			page 49


 2709 0241 3A       		.uleb128 0x3a
 2710 0242 0B       		.uleb128 0xb
 2711 0243 3B       		.uleb128 0x3b
 2712 0244 0B       		.uleb128 0xb
 2713 0245 49       		.uleb128 0x49
 2714 0246 13       		.uleb128 0x13
 2715 0247 3F       		.uleb128 0x3f
 2716 0248 0C       		.uleb128 0xc
 2717 0249 3C       		.uleb128 0x3c
 2718 024a 0C       		.uleb128 0xc
 2719 024b 00       		.byte	0
 2720 024c 00       		.byte	0
 2721 024d 2E       		.uleb128 0x2e
 2722 024e 21       		.uleb128 0x21
 2723 024f 00       		.byte	0
 2724 0250 00       		.byte	0
 2725 0251 00       		.byte	0
 2726 0252 2F       		.uleb128 0x2f
 2727 0253 34       		.uleb128 0x34
 2728 0254 00       		.byte	0
 2729 0255 03       		.uleb128 0x3
 2730 0256 08       		.uleb128 0x8
 2731 0257 3A       		.uleb128 0x3a
 2732 0258 0B       		.uleb128 0xb
 2733 0259 3B       		.uleb128 0x3b
 2734 025a 0B       		.uleb128 0xb
 2735 025b 49       		.uleb128 0x49
 2736 025c 13       		.uleb128 0x13
 2737 025d 3F       		.uleb128 0x3f
 2738 025e 0C       		.uleb128 0xc
 2739 025f 3C       		.uleb128 0x3c
 2740 0260 0C       		.uleb128 0xc
 2741 0261 00       		.byte	0
 2742 0262 00       		.byte	0
 2743 0263 30       		.uleb128 0x30
 2744 0264 34       		.uleb128 0x34
 2745 0265 00       		.byte	0
 2746 0266 03       		.uleb128 0x3
 2747 0267 0E       		.uleb128 0xe
 2748 0268 3A       		.uleb128 0x3a
 2749 0269 0B       		.uleb128 0xb
 2750 026a 3B       		.uleb128 0x3b
 2751 026b 0B       		.uleb128 0xb
 2752 026c 49       		.uleb128 0x49
 2753 026d 13       		.uleb128 0x13
 2754 026e 02       		.uleb128 0x2
 2755 026f 0A       		.uleb128 0xa
 2756 0270 00       		.byte	0
 2757 0271 00       		.byte	0
 2758 0272 31       		.uleb128 0x31
 2759 0273 34       		.uleb128 0x34
 2760 0274 00       		.byte	0
 2761 0275 03       		.uleb128 0x3
 2762 0276 0E       		.uleb128 0xe
 2763 0277 3A       		.uleb128 0x3a
 2764 0278 0B       		.uleb128 0xb
 2765 0279 3B       		.uleb128 0x3b
ARM GAS  /tmp/ccha5Aix.s 			page 50


 2766 027a 0B       		.uleb128 0xb
 2767 027b 49       		.uleb128 0x49
 2768 027c 13       		.uleb128 0x13
 2769 027d 3F       		.uleb128 0x3f
 2770 027e 0C       		.uleb128 0xc
 2771 027f 02       		.uleb128 0x2
 2772 0280 0A       		.uleb128 0xa
 2773 0281 00       		.byte	0
 2774 0282 00       		.byte	0
 2775 0283 00       		.byte	0
 2776              		.section	.debug_loc,"",%progbits
 2777              	.Ldebug_loc0:
 2778              	.LLST0:
 2779 0000 00000000 		.4byte	.LFB12
 2780 0004 02000000 		.4byte	.LCFI0
 2781 0008 0200     		.2byte	0x2
 2782 000a 7D       		.byte	0x7d
 2783 000b 00       		.sleb128 0
 2784 000c 02000000 		.4byte	.LCFI0
 2785 0010 24000000 		.4byte	.LFE12
 2786 0014 0200     		.2byte	0x2
 2787 0016 7D       		.byte	0x7d
 2788 0017 10       		.sleb128 16
 2789 0018 00000000 		.4byte	0
 2790 001c 00000000 		.4byte	0
 2791              	.LLST1:
 2792 0020 00000000 		.4byte	.LVL0
 2793 0024 07000000 		.4byte	.LVL1-1
 2794 0028 0100     		.2byte	0x1
 2795 002a 50       		.byte	0x50
 2796 002b 07000000 		.4byte	.LVL1-1
 2797 002f 24000000 		.4byte	.LFE12
 2798 0033 0100     		.2byte	0x1
 2799 0035 55       		.byte	0x55
 2800 0036 00000000 		.4byte	0
 2801 003a 00000000 		.4byte	0
 2802              	.LLST2:
 2803 003e 0C000000 		.4byte	.LVL2
 2804 0042 0E000000 		.4byte	.LVL3
 2805 0046 0100     		.2byte	0x1
 2806 0048 50       		.byte	0x50
 2807 0049 0E000000 		.4byte	.LVL3
 2808 004d 19000000 		.4byte	.LVL5-1
 2809 0051 0100     		.2byte	0x1
 2810 0053 53       		.byte	0x53
 2811 0054 1C000000 		.4byte	.LVL6
 2812 0058 22000000 		.4byte	.LVL7
 2813 005c 0100     		.2byte	0x1
 2814 005e 50       		.byte	0x50
 2815 005f 22000000 		.4byte	.LVL7
 2816 0063 24000000 		.4byte	.LFE12
 2817 0067 0100     		.2byte	0x1
 2818 0069 53       		.byte	0x53
 2819 006a 00000000 		.4byte	0
 2820 006e 00000000 		.4byte	0
 2821              	.LLST3:
 2822 0072 00000000 		.4byte	.LVL0
ARM GAS  /tmp/ccha5Aix.s 			page 51


 2823 0076 0C000000 		.4byte	.LVL2
 2824 007a 0200     		.2byte	0x2
 2825 007c 30       		.byte	0x30
 2826 007d 9F       		.byte	0x9f
 2827 007e 0C000000 		.4byte	.LVL2
 2828 0082 24000000 		.4byte	.LFE12
 2829 0086 0100     		.2byte	0x1
 2830 0088 54       		.byte	0x54
 2831 0089 00000000 		.4byte	0
 2832 008d 00000000 		.4byte	0
 2833              	.LLST4:
 2834 0091 00000000 		.4byte	.LFB7
 2835 0095 02000000 		.4byte	.LCFI1
 2836 0099 0200     		.2byte	0x2
 2837 009b 7D       		.byte	0x7d
 2838 009c 00       		.sleb128 0
 2839 009d 02000000 		.4byte	.LCFI1
 2840 00a1 0C000000 		.4byte	.LFE7
 2841 00a5 0200     		.2byte	0x2
 2842 00a7 7D       		.byte	0x7d
 2843 00a8 08       		.sleb128 8
 2844 00a9 00000000 		.4byte	0
 2845 00ad 00000000 		.4byte	0
 2846              	.LLST5:
 2847 00b1 00000000 		.4byte	.LVL8
 2848 00b5 04000000 		.4byte	.LVL9
 2849 00b9 0100     		.2byte	0x1
 2850 00bb 50       		.byte	0x50
 2851 00bc 00000000 		.4byte	0
 2852 00c0 00000000 		.4byte	0
 2853              	.LLST6:
 2854 00c4 00000000 		.4byte	.LFB11
 2855 00c8 04000000 		.4byte	.LCFI2
 2856 00cc 0200     		.2byte	0x2
 2857 00ce 7D       		.byte	0x7d
 2858 00cf 00       		.sleb128 0
 2859 00d0 04000000 		.4byte	.LCFI2
 2860 00d4 48010000 		.4byte	.LFE11
 2861 00d8 0200     		.2byte	0x2
 2862 00da 7D       		.byte	0x7d
 2863 00db 10       		.sleb128 16
 2864 00dc 00000000 		.4byte	0
 2865 00e0 00000000 		.4byte	0
 2866              	.LLST7:
 2867 00e4 0E000000 		.4byte	.LVL10
 2868 00e8 12000000 		.4byte	.LVL11
 2869 00ec 0200     		.2byte	0x2
 2870 00ee 30       		.byte	0x30
 2871 00ef 9F       		.byte	0x9f
 2872 00f0 12000000 		.4byte	.LVL11
 2873 00f4 1A000000 		.4byte	.LVL12
 2874 00f8 0200     		.2byte	0x2
 2875 00fa 31       		.byte	0x31
 2876 00fb 9F       		.byte	0x9f
 2877 00fc 1A000000 		.4byte	.LVL12
 2878 0100 22000000 		.4byte	.LVL13
 2879 0104 0200     		.2byte	0x2
ARM GAS  /tmp/ccha5Aix.s 			page 52


 2880 0106 32       		.byte	0x32
 2881 0107 9F       		.byte	0x9f
 2882 0108 22000000 		.4byte	.LVL13
 2883 010c 2A000000 		.4byte	.LVL14
 2884 0110 0200     		.2byte	0x2
 2885 0112 33       		.byte	0x33
 2886 0113 9F       		.byte	0x9f
 2887 0114 2A000000 		.4byte	.LVL14
 2888 0118 9A000000 		.4byte	.LVL15
 2889 011c 0200     		.2byte	0x2
 2890 011e 34       		.byte	0x34
 2891 011f 9F       		.byte	0x9f
 2892 0120 9C000000 		.4byte	.LVL16
 2893 0124 C2000000 		.4byte	.LVL17
 2894 0128 0200     		.2byte	0x2
 2895 012a 34       		.byte	0x34
 2896 012b 9F       		.byte	0x9f
 2897 012c 00000000 		.4byte	0
 2898 0130 00000000 		.4byte	0
 2899              	.LLST8:
 2900 0134 11000000 		.4byte	.LVL11-1
 2901 0138 48010000 		.4byte	.LFE11
 2902 013c 0100     		.2byte	0x1
 2903 013e 55       		.byte	0x55
 2904 013f 00000000 		.4byte	0
 2905 0143 00000000 		.4byte	0
 2906              	.LLST9:
 2907 0147 00000000 		.4byte	.LFB9
 2908 014b 02000000 		.4byte	.LCFI3
 2909 014f 0200     		.2byte	0x2
 2910 0151 7D       		.byte	0x7d
 2911 0152 00       		.sleb128 0
 2912 0153 02000000 		.4byte	.LCFI3
 2913 0157 06000000 		.4byte	.LCFI4
 2914 015b 0200     		.2byte	0x2
 2915 015d 7D       		.byte	0x7d
 2916 015e 10       		.sleb128 16
 2917 015f 06000000 		.4byte	.LCFI4
 2918 0163 00010000 		.4byte	.LFE9
 2919 0167 0200     		.2byte	0x2
 2920 0169 7D       		.byte	0x7d
 2921 016a 20       		.sleb128 32
 2922 016b 00000000 		.4byte	0
 2923 016f 00000000 		.4byte	0
 2924              	.LLST10:
 2925 0173 86000000 		.4byte	.LVL26
 2926 0177 8A000000 		.4byte	.LVL27
 2927 017b 0200     		.2byte	0x2
 2928 017d 91       		.byte	0x91
 2929 017e 6C       		.sleb128 -20
 2930 017f B8000000 		.4byte	.LVL28
 2931 0183 CE000000 		.4byte	.LVL29
 2932 0187 0200     		.2byte	0x2
 2933 0189 91       		.byte	0x91
 2934 018a 6C       		.sleb128 -20
 2935 018b 00000000 		.4byte	0
 2936 018f 00000000 		.4byte	0
ARM GAS  /tmp/ccha5Aix.s 			page 53


 2937              	.LLST11:
 2938 0193 5A000000 		.4byte	.LVL23
 2939 0197 5E000000 		.4byte	.LVL24
 2940 019b 0100     		.2byte	0x1
 2941 019d 50       		.byte	0x50
 2942 019e 5E000000 		.4byte	.LVL24
 2943 01a2 00010000 		.4byte	.LFE9
 2944 01a6 0100     		.2byte	0x1
 2945 01a8 56       		.byte	0x56
 2946 01a9 00000000 		.4byte	0
 2947 01ad 00000000 		.4byte	0
 2948              	.LLST12:
 2949 01b1 0C000000 		.4byte	.LVL18
 2950 01b5 0E000000 		.4byte	.LVL19
 2951 01b9 0500     		.2byte	0x5
 2952 01bb 71       		.byte	0x71
 2953 01bc 18       		.sleb128 24
 2954 01bd 06       		.byte	0x6
 2955 01be 23       		.byte	0x23
 2956 01bf 08       		.uleb128 0x8
 2957 01c0 13000000 		.4byte	.LVL20-1
 2958 01c4 54000000 		.4byte	.LVL22
 2959 01c8 0100     		.2byte	0x1
 2960 01ca 55       		.byte	0x55
 2961 01cb 54000000 		.4byte	.LVL22
 2962 01cf 63000000 		.4byte	.LVL25-1
 2963 01d3 0300     		.2byte	0x3
 2964 01d5 72       		.byte	0x72
 2965 01d6 03       		.sleb128 3
 2966 01d7 9F       		.byte	0x9f
 2967 01d8 00000000 		.4byte	0
 2968 01dc 00000000 		.4byte	0
 2969              	.LLST13:
 2970 01e0 00000000 		.4byte	.LFB14
 2971 01e4 04000000 		.4byte	.LCFI5
 2972 01e8 0200     		.2byte	0x2
 2973 01ea 7D       		.byte	0x7d
 2974 01eb 00       		.sleb128 0
 2975 01ec 04000000 		.4byte	.LCFI5
 2976 01f0 0C000000 		.4byte	.LCFI6
 2977 01f4 0200     		.2byte	0x2
 2978 01f6 7D       		.byte	0x7d
 2979 01f7 10       		.sleb128 16
 2980 01f8 0C000000 		.4byte	.LCFI6
 2981 01fc 78010000 		.4byte	.LFE14
 2982 0200 0200     		.2byte	0x2
 2983 0202 7D       		.byte	0x7d
 2984 0203 18       		.sleb128 24
 2985 0204 00000000 		.4byte	0
 2986 0208 00000000 		.4byte	0
 2987              	.LLST14:
 2988 020c 22000000 		.4byte	.LVL32
 2989 0210 24000000 		.4byte	.LVL33
 2990 0214 0100     		.2byte	0x1
 2991 0216 50       		.byte	0x50
 2992 0217 24000000 		.4byte	.LVL33
 2993 021b 78010000 		.4byte	.LFE14
ARM GAS  /tmp/ccha5Aix.s 			page 54


 2994 021f 0100     		.2byte	0x1
 2995 0221 54       		.byte	0x54
 2996 0222 00000000 		.4byte	0
 2997 0226 00000000 		.4byte	0
 2998              	.LLST15:
 2999 022a 7C000000 		.4byte	.LVL35
 3000 022e 7E000000 		.4byte	.LVL36
 3001 0232 0100     		.2byte	0x1
 3002 0234 50       		.byte	0x50
 3003 0235 7E000000 		.4byte	.LVL36
 3004 0239 8E000000 		.4byte	.LVL39
 3005 023d 0100     		.2byte	0x1
 3006 023f 55       		.byte	0x55
 3007 0240 8E000000 		.4byte	.LVL39
 3008 0244 94000000 		.4byte	.LVL40
 3009 0248 0100     		.2byte	0x1
 3010 024a 50       		.byte	0x50
 3011 024b 94000000 		.4byte	.LVL40
 3012 024f A2000000 		.4byte	.LVL42
 3013 0253 0100     		.2byte	0x1
 3014 0255 55       		.byte	0x55
 3015 0256 00000000 		.4byte	0
 3016 025a 00000000 		.4byte	0
 3017              	.LLST16:
 3018 025e 76000000 		.4byte	.LVL34
 3019 0262 7C000000 		.4byte	.LVL35
 3020 0266 0200     		.2byte	0x2
 3021 0268 30       		.byte	0x30
 3022 0269 9F       		.byte	0x9f
 3023 026a 7C000000 		.4byte	.LVL35
 3024 026e 8A000000 		.4byte	.LVL37
 3025 0272 0100     		.2byte	0x1
 3026 0274 56       		.byte	0x56
 3027 0275 8C000000 		.4byte	.LVL38
 3028 0279 78010000 		.4byte	.LFE14
 3029 027d 0100     		.2byte	0x1
 3030 027f 56       		.byte	0x56
 3031 0280 00000000 		.4byte	0
 3032 0284 00000000 		.4byte	0
 3033              	.LLST17:
 3034 0288 A2000000 		.4byte	.LVL42
 3035 028c AF000000 		.4byte	.LVL45-1
 3036 0290 0100     		.2byte	0x1
 3037 0292 50       		.byte	0x50
 3038 0293 B0000000 		.4byte	.LVL45
 3039 0297 B6000000 		.4byte	.LVL46
 3040 029b 0100     		.2byte	0x1
 3041 029d 50       		.byte	0x50
 3042 029e 00000000 		.4byte	0
 3043 02a2 00000000 		.4byte	0
 3044              	.LLST18:
 3045 02a6 9E000000 		.4byte	.LVL41
 3046 02aa A2000000 		.4byte	.LVL42
 3047 02ae 0200     		.2byte	0x2
 3048 02b0 30       		.byte	0x30
 3049 02b1 9F       		.byte	0x9f
 3050 02b2 A2000000 		.4byte	.LVL42
ARM GAS  /tmp/ccha5Aix.s 			page 55


 3051 02b6 AA000000 		.4byte	.LVL43
 3052 02ba 0100     		.2byte	0x1
 3053 02bc 55       		.byte	0x55
 3054 02bd AC000000 		.4byte	.LVL44
 3055 02c1 78010000 		.4byte	.LFE14
 3056 02c5 0100     		.2byte	0x1
 3057 02c7 55       		.byte	0x55
 3058 02c8 00000000 		.4byte	0
 3059 02cc 00000000 		.4byte	0
 3060              		.section	.debug_aranges,"",%progbits
 3061 0000 54000000 		.4byte	0x54
 3062 0004 0200     		.2byte	0x2
 3063 0006 00000000 		.4byte	.Ldebug_info0
 3064 000a 04       		.byte	0x4
 3065 000b 00       		.byte	0
 3066 000c 0000     		.2byte	0
 3067 000e 0000     		.2byte	0
 3068 0010 00000000 		.4byte	.LFB12
 3069 0014 24000000 		.4byte	.LFE12-.LFB12
 3070 0018 00000000 		.4byte	.LFB7
 3071 001c 0C000000 		.4byte	.LFE7-.LFB7
 3072 0020 00000000 		.4byte	.LFB13
 3073 0024 18000000 		.4byte	.LFE13-.LFB13
 3074 0028 00000000 		.4byte	.LFB8
 3075 002c 18000000 		.4byte	.LFE8-.LFB8
 3076 0030 00000000 		.4byte	.LFB11
 3077 0034 48010000 		.4byte	.LFE11-.LFB11
 3078 0038 00000000 		.4byte	.LFB10
 3079 003c 12000000 		.4byte	.LFE10-.LFB10
 3080 0040 00000000 		.4byte	.LFB9
 3081 0044 00010000 		.4byte	.LFE9-.LFB9
 3082 0048 00000000 		.4byte	.LFB14
 3083 004c 78010000 		.4byte	.LFE14-.LFB14
 3084 0050 00000000 		.4byte	0
 3085 0054 00000000 		.4byte	0
 3086              		.section	.debug_ranges,"",%progbits
 3087              	.Ldebug_ranges0:
 3088 0000 00000000 		.4byte	.LFB12
 3089 0004 24000000 		.4byte	.LFE12
 3090 0008 00000000 		.4byte	.LFB7
 3091 000c 0C000000 		.4byte	.LFE7
 3092 0010 00000000 		.4byte	.LFB13
 3093 0014 18000000 		.4byte	.LFE13
 3094 0018 00000000 		.4byte	.LFB8
 3095 001c 18000000 		.4byte	.LFE8
 3096 0020 00000000 		.4byte	.LFB11
 3097 0024 48010000 		.4byte	.LFE11
 3098 0028 00000000 		.4byte	.LFB10
 3099 002c 12000000 		.4byte	.LFE10
 3100 0030 00000000 		.4byte	.LFB9
 3101 0034 00010000 		.4byte	.LFE9
 3102 0038 00000000 		.4byte	.LFB14
 3103 003c 78010000 		.4byte	.LFE14
 3104 0040 00000000 		.4byte	0
 3105 0044 00000000 		.4byte	0
 3106              		.section	.debug_line,"",%progbits
 3107              	.Ldebug_line0:
ARM GAS  /tmp/ccha5Aix.s 			page 56


 3108 0000 56030000 		.section	.debug_str,"MS",%progbits,1
 3108      02000002 
 3108      00000201 
 3108      FB0E0D00 
 3108      01010101 
 3109              	.LASF40:
 3110 0000 705F6D73 		.ascii	"p_msg\000"
 3110      6700
 3111              	.LASF2:
 3112 0006 73697A65 		.ascii	"size_t\000"
 3112      5F7400
 3113              	.LASF94:
 3114 000d 7072696F 		.ascii	"prio\000"
 3114      00
 3115              	.LASF78:
 3116 0012 7264796D 		.ascii	"rdymsg\000"
 3116      736700
 3117              	.LASF12:
 3118 0019 75696E74 		.ascii	"uint64_t\000"
 3118      36345F74 
 3118      00
 3119              	.LASF77:
 3120 0022 4D656D6F 		.ascii	"MemoryPool\000"
 3120      7279506F 
 3120      6F6C00
 3121              	.LASF62:
 3122 002d 6D656D67 		.ascii	"memgetfunc_t\000"
 3122      65746675 
 3122      6E635F74 
 3122      00
 3123              	.LASF13:
 3124 003a 6C6F6E67 		.ascii	"long long unsigned int\000"
 3124      206C6F6E 
 3124      6720756E 
 3124      7369676E 
 3124      65642069 
 3125              	.LASF79:
 3126 0051 65786974 		.ascii	"exitcode\000"
 3126      636F6465 
 3126      00
 3127              	.LASF66:
 3128 005a 685F6672 		.ascii	"h_free\000"
 3128      656500
 3129              	.LASF101:
 3130 0061 74657374 		.ascii	"test\000"
 3130      00
 3131              	.LASF68:
 3132 0066 6E657874 		.ascii	"next\000"
 3132      00
 3133              	.LASF27:
 3134 006b 705F7072 		.ascii	"p_prio\000"
 3134      696F00
 3135              	.LASF95:
 3136 0072 64796E32 		.ascii	"dyn2_setup\000"
 3136      5F736574 
 3136      757000
 3137              	.LASF11:
ARM GAS  /tmp/ccha5Aix.s 			page 57


 3138 007d 6C6F6E67 		.ascii	"long long int\000"
 3138      206C6F6E 
 3138      6720696E 
 3138      7400
 3139              	.LASF1:
 3140 008b 7369676E 		.ascii	"signed char\000"
 3140      65642063 
 3140      68617200 
 3141              	.LASF67:
 3142 0097 685F6D74 		.ascii	"h_mtx\000"
 3142      7800
 3143              	.LASF44:
 3144 009d 705F6D70 		.ascii	"p_mpool\000"
 3144      6F6F6C00 
 3145              	.LASF14:
 3146 00a5 626F6F6C 		.ascii	"bool_t\000"
 3146      5F7400
 3147              	.LASF59:
 3148 00ac 6D5F7175 		.ascii	"m_queue\000"
 3148      65756500 
 3149              	.LASF19:
 3150 00b4 74736C69 		.ascii	"tslices_t\000"
 3150      6365735F 
 3150      7400
 3151              	.LASF8:
 3152 00be 6C6F6E67 		.ascii	"long int\000"
 3152      20696E74 
 3152      00
 3153              	.LASF107:
 3154 00c7 474E5520 		.ascii	"GNU C 4.6.2 20120613 (release) [ARM/embedded-4_6-br"
 3154      4320342E 
 3154      362E3220 
 3154      32303132 
 3154      30363133 
 3155 00fa 616E6368 		.ascii	"anch revision 188521]\000"
 3155      20726576 
 3155      6973696F 
 3155      6E203138 
 3155      38353231 
 3156              	.LASF109:
 3157 0110 2F686F6D 		.ascii	"/home/tino/workspace/openrobots/R2P_IR_module/fw\000"
 3157      652F7469 
 3157      6E6F2F77 
 3157      6F726B73 
 3157      70616365 
 3158              	.LASF17:
 3159 0141 74737461 		.ascii	"tstate_t\000"
 3159      74655F74 
 3159      00
 3160              	.LASF74:
 3161 014a 6D705F6E 		.ascii	"mp_next\000"
 3161      65787400 
 3162              	.LASF97:
 3163 0152 64796E31 		.ascii	"dyn1_execute\000"
 3163      5F657865 
 3163      63757465 
 3163      00
ARM GAS  /tmp/ccha5Aix.s 			page 58


 3164              	.LASF29:
 3165 015f 705F6E65 		.ascii	"p_newer\000"
 3165      77657200 
 3166              	.LASF54:
 3167 0167 725F6E65 		.ascii	"r_newer\000"
 3167      77657200 
 3168              	.LASF76:
 3169 016f 6D705F70 		.ascii	"mp_provider\000"
 3169      726F7669 
 3169      64657200 
 3170              	.LASF47:
 3171 017b 72656761 		.ascii	"regarm_t\000"
 3171      726D5F74 
 3171      00
 3172              	.LASF70:
 3173 0184 616C6967 		.ascii	"align\000"
 3173      6E00
 3174              	.LASF34:
 3175 018a 705F666C 		.ascii	"p_flags\000"
 3175      61677300 
 3176              	.LASF32:
 3177 0192 705F7374 		.ascii	"p_stklimit\000"
 3177      6B6C696D 
 3177      697400
 3178              	.LASF0:
 3179 019d 756E7369 		.ascii	"unsigned int\000"
 3179      676E6564 
 3179      20696E74 
 3179      00
 3180              	.LASF10:
 3181 01aa 6C6F6E67 		.ascii	"long unsigned int\000"
 3181      20756E73 
 3181      69676E65 
 3181      6420696E 
 3181      7400
 3182              	.LASF86:
 3183 01bc 74656172 		.ascii	"teardown\000"
 3183      646F776E 
 3183      00
 3184              	.LASF93:
 3185 01c5 64796E31 		.ascii	"dyn1_setup\000"
 3185      5F736574 
 3185      757000
 3186              	.LASF84:
 3187 01d0 6E616D65 		.ascii	"name\000"
 3187      00
 3188              	.LASF50:
 3189 01d5 636F6E74 		.ascii	"context\000"
 3189      65787400 
 3190              	.LASF71:
 3191 01dd 73697A65 		.ascii	"size\000"
 3191      00
 3192              	.LASF6:
 3193 01e2 73686F72 		.ascii	"short unsigned int\000"
 3193      7420756E 
 3193      7369676E 
 3193      65642069 
ARM GAS  /tmp/ccha5Aix.s 			page 59


 3193      6E7400
 3194              	.LASF96:
 3195 01f5 64796E32 		.ascii	"dyn2_execute\000"
 3195      5F657865 
 3195      63757465 
 3195      00
 3196              	.LASF21:
 3197 0202 6D73675F 		.ascii	"msg_t\000"
 3197      7400
 3198              	.LASF16:
 3199 0208 746D6F64 		.ascii	"tmode_t\000"
 3199      655F7400 
 3200              	.LASF46:
 3201 0210 54687265 		.ascii	"ThreadsList\000"
 3201      6164734C 
 3201      69737400 
 3202              	.LASF22:
 3203 021c 6576656E 		.ascii	"eventmask_t\000"
 3203      746D6173 
 3203      6B5F7400 
 3204              	.LASF58:
 3205 0228 4D757465 		.ascii	"Mutex\000"
 3205      7800
 3206              	.LASF48:
 3207 022e 73746B61 		.ascii	"stkalign_t\000"
 3207      6C69676E 
 3207      5F7400
 3208              	.LASF103:
 3209 0239 74657374 		.ascii	"testdyn1\000"
 3209      64796E31 
 3209      00
 3210              	.LASF104:
 3211 0242 74657374 		.ascii	"testdyn2\000"
 3211      64796E32 
 3211      00
 3212              	.LASF105:
 3213 024b 74657374 		.ascii	"testdyn3\000"
 3213      64796E33 
 3213      00
 3214              	.LASF98:
 3215 0254 64796E33 		.ascii	"dyn3_execute\000"
 3215      5F657865 
 3215      63757465 
 3215      00
 3216              	.LASF30:
 3217 0261 705F6F6C 		.ascii	"p_older\000"
 3217      64657200 
 3218              	.LASF53:
 3219 0269 725F6374 		.ascii	"r_ctx\000"
 3219      7800
 3220              	.LASF45:
 3221 026f 54687265 		.ascii	"ThreadsQueue\000"
 3221      61647351 
 3221      75657565 
 3221      00
 3222              	.LASF75:
 3223 027c 6D705F6F 		.ascii	"mp_object_size\000"
ARM GAS  /tmp/ccha5Aix.s 			page 60


 3223      626A6563 
 3223      745F7369 
 3223      7A6500
 3224              	.LASF85:
 3225 028b 73657475 		.ascii	"setup\000"
 3225      7000
 3226              	.LASF56:
 3227 0291 725F6375 		.ascii	"r_current\000"
 3227      7272656E 
 3227      7400
 3228              	.LASF55:
 3229 029b 725F6F6C 		.ascii	"r_older\000"
 3229      64657200 
 3230              	.LASF63:
 3231 02a3 4D656D6F 		.ascii	"MemoryHeap\000"
 3231      72794865 
 3231      617000
 3232              	.LASF73:
 3233 02ae 70685F6E 		.ascii	"ph_next\000"
 3233      65787400 
 3234              	.LASF18:
 3235 02b6 74726566 		.ascii	"trefs_t\000"
 3235      735F7400 
 3236              	.LASF26:
 3237 02be 705F7072 		.ascii	"p_prev\000"
 3237      657600
 3238              	.LASF87:
 3239 02c5 65786563 		.ascii	"execute\000"
 3239      75746500 
 3240              	.LASF20:
 3241 02cd 74707269 		.ascii	"tprio_t\000"
 3241      6F5F7400 
 3242              	.LASF111:
 3243 02d5 74687265 		.ascii	"thread\000"
 3243      616400
 3244              	.LASF15:
 3245 02dc 5F426F6F 		.ascii	"_Bool\000"
 3245      6C00
 3246              	.LASF7:
 3247 02e2 696E7433 		.ascii	"int32_t\000"
 3247      325F7400 
 3248              	.LASF4:
 3249 02ea 756E7369 		.ascii	"unsigned char\000"
 3249      676E6564 
 3249      20636861 
 3249      7200
 3250              	.LASF65:
 3251 02f8 685F7072 		.ascii	"h_provider\000"
 3251      6F766964 
 3251      657200
 3252              	.LASF42:
 3253 0303 705F6D74 		.ascii	"p_mtxlist\000"
 3253      786C6973 
 3253      7400
 3254              	.LASF5:
 3255 030d 73686F72 		.ascii	"short int\000"
 3255      7420696E 
ARM GAS  /tmp/ccha5Aix.s 			page 61


 3255      7400
 3256              	.LASF33:
 3257 0317 705F7374 		.ascii	"p_state\000"
 3257      61746500 
 3258              	.LASF36:
 3259 031f 705F7072 		.ascii	"p_preempt\000"
 3259      65656D70 
 3259      7400
 3260              	.LASF100:
 3261 0329 74687265 		.ascii	"threads\000"
 3261      61647300 
 3262              	.LASF52:
 3263 0331 725F7072 		.ascii	"r_prio\000"
 3263      696F00
 3264              	.LASF88:
 3265 0338 68656170 		.ascii	"heap_header\000"
 3265      5F686561 
 3265      64657200 
 3266              	.LASF81:
 3267 0344 65776D61 		.ascii	"ewmask\000"
 3267      736B00
 3268              	.LASF25:
 3269 034b 705F6E65 		.ascii	"p_next\000"
 3269      787400
 3270              	.LASF108:
 3271 0352 2E2E2F2E 		.ascii	"../../ChibiOS/test/testdyn.c\000"
 3271      2E2F4368 
 3271      6962694F 
 3271      532F7465 
 3271      73742F74 
 3272              	.LASF24:
 3273 036f 54687265 		.ascii	"Thread\000"
 3273      616400
 3274              	.LASF83:
 3275 0376 74657374 		.ascii	"testcase\000"
 3275      63617365 
 3275      00
 3276              	.LASF41:
 3277 037f 705F6570 		.ascii	"p_epending\000"
 3277      656E6469 
 3277      6E6700
 3278              	.LASF9:
 3279 038a 75696E74 		.ascii	"uint32_t\000"
 3279      33325F74 
 3279      00
 3280              	.LASF51:
 3281 0393 725F7175 		.ascii	"r_queue\000"
 3281      65756500 
 3282              	.LASF69:
 3283 039b 68656170 		.ascii	"heap\000"
 3283      00
 3284              	.LASF82:
 3285 03a0 63686172 		.ascii	"char\000"
 3285      00
 3286              	.LASF92:
 3287 03a5 64796E33 		.ascii	"dyn3_setup\000"
 3287      5F736574 
ARM GAS  /tmp/ccha5Aix.s 			page 62


 3287      757000
 3288              	.LASF61:
 3289 03b0 6D5F6E65 		.ascii	"m_next\000"
 3289      787400
 3290              	.LASF23:
 3291 03b7 73797374 		.ascii	"systime_t\000"
 3291      696D655F 
 3291      7400
 3292              	.LASF43:
 3293 03c1 705F7265 		.ascii	"p_realprio\000"
 3293      616C7072 
 3293      696F00
 3294              	.LASF90:
 3295 03cc 62756666 		.ascii	"buffer\000"
 3295      657200
 3296              	.LASF106:
 3297 03d3 70617474 		.ascii	"patterndyn\000"
 3297      65726E64 
 3297      796E00
 3298              	.LASF37:
 3299 03de 705F7469 		.ascii	"p_time\000"
 3299      6D6500
 3300              	.LASF49:
 3301 03e5 696E7463 		.ascii	"intctx\000"
 3301      747800
 3302              	.LASF39:
 3303 03ec 705F6D73 		.ascii	"p_msgqueue\000"
 3303      67717565 
 3303      756500
 3304              	.LASF91:
 3305 03f7 666F756E 		.ascii	"found\000"
 3305      6400
 3306              	.LASF89:
 3307 03fd 74657374 		.ascii	"test_buffers\000"
 3307      5F627566 
 3307      66657273 
 3307      00
 3308              	.LASF72:
 3309 040a 706F6F6C 		.ascii	"pool_header\000"
 3309      5F686561 
 3309      64657200 
 3310              	.LASF35:
 3311 0416 705F7265 		.ascii	"p_refs\000"
 3311      667300
 3312              	.LASF57:
 3313 041d 52656164 		.ascii	"ReadyList\000"
 3313      794C6973 
 3313      7400
 3314              	.LASF110:
 3315 0427 72656766 		.ascii	"regfind\000"
 3315      696E6400 
 3316              	.LASF99:
 3317 042f 726C6973 		.ascii	"rlist\000"
 3317      7400
 3318              	.LASF3:
 3319 0435 75696E74 		.ascii	"uint8_t\000"
 3319      385F7400 
ARM GAS  /tmp/ccha5Aix.s 			page 63


 3320              	.LASF80:
 3321 043d 77746F62 		.ascii	"wtobjp\000"
 3321      6A7000
 3322              	.LASF31:
 3323 0444 705F6E61 		.ascii	"p_name\000"
 3323      6D6500
 3324              	.LASF60:
 3325 044b 6D5F6F77 		.ascii	"m_owner\000"
 3325      6E657200 
 3326              	.LASF28:
 3327 0453 705F6374 		.ascii	"p_ctx\000"
 3327      7800
 3328              	.LASF38:
 3329 0459 705F7761 		.ascii	"p_waiting\000"
 3329      6974696E 
 3329      6700
 3330              	.LASF102:
 3331 0463 68656170 		.ascii	"heap1\000"
 3331      3100
 3332              	.LASF64:
 3333 0469 6D656D6F 		.ascii	"memory_heap\000"
 3333      72795F68 
 3333      65617000 
 3334              		.ident	"GCC: (GNU Tools for ARM Embedded Processors) 4.6.2 20120613 (release) [ARM/embedded-4_6-br
ARM GAS  /tmp/ccha5Aix.s 			page 64


DEFINED SYMBOLS
                            *ABS*:00000000 testdyn.c
     /tmp/ccha5Aix.s:19     .text.regfind:00000000 $t
     /tmp/ccha5Aix.s:24     .text.regfind:00000000 regfind
     /tmp/ccha5Aix.s:74     .text.thread:00000000 $t
     /tmp/ccha5Aix.s:79     .text.thread:00000000 thread
     /tmp/ccha5Aix.s:102    .text.dyn3_setup:00000000 $t
     /tmp/ccha5Aix.s:107    .text.dyn3_setup:00000000 dyn3_setup
     /tmp/ccha5Aix.s:848    .bss.heap1:00000000 .LANCHOR0
     /tmp/ccha5Aix.s:127    .text.dyn1_setup:00000000 $t
     /tmp/ccha5Aix.s:132    .text.dyn1_setup:00000000 dyn1_setup
     /tmp/ccha5Aix.s:152    .text.dyn2_execute:00000000 $t
     /tmp/ccha5Aix.s:157    .text.dyn2_execute:00000000 dyn2_execute
     /tmp/ccha5Aix.s:334    .text.dyn2_execute:0000011c $d
     /tmp/ccha5Aix.s:349    .text.dyn2_setup:00000000 $t
     /tmp/ccha5Aix.s:354    .text.dyn2_setup:00000000 dyn2_setup
     /tmp/ccha5Aix.s:802    .bss.mp1:00000000 .LANCHOR1
     /tmp/ccha5Aix.s:373    .text.dyn1_execute:00000000 $t
     /tmp/ccha5Aix.s:378    .text.dyn1_execute:00000000 dyn1_execute
     /tmp/ccha5Aix.s:533    .text.dyn1_execute:000000e0 $d
     /tmp/ccha5Aix.s:545    .text.dyn3_execute:00000000 $t
     /tmp/ccha5Aix.s:550    .text.dyn3_execute:00000000 dyn3_execute
     /tmp/ccha5Aix.s:762    .text.dyn3_execute:00000168 $d
     /tmp/ccha5Aix.s:841    .rodata.patterndyn:00000000 patterndyn
     /tmp/ccha5Aix.s:795    .rodata.testdyn3:00000000 testdyn3
     /tmp/ccha5Aix.s:786    .rodata.testdyn2:00000000 testdyn2
     /tmp/ccha5Aix.s:777    .rodata.testdyn1:00000000 testdyn1
     /tmp/ccha5Aix.s:774    .rodata.testdyn1:00000000 $d
     /tmp/ccha5Aix.s:783    .rodata.testdyn2:00000000 $d
     /tmp/ccha5Aix.s:792    .rodata.testdyn3:00000000 $d
     /tmp/ccha5Aix.s:801    .bss.mp1:00000000 $d
     /tmp/ccha5Aix.s:805    .bss.mp1:00000000 mp1
     /tmp/ccha5Aix.s:808    .rodata.str1.4:00000000 $d
     /tmp/ccha5Aix.s:838    .rodata.patterndyn:00000000 $d
     /tmp/ccha5Aix.s:847    .bss.heap1:00000000 $d
     /tmp/ccha5Aix.s:851    .bss.heap1:00000000 heap1
                     .debug_frame:00000010 $d
     /tmp/ccha5Aix.s:348    .text.dyn2_execute:00000148 $t
     /tmp/ccha5Aix.s:773    .text.dyn3_execute:00000178 $t

UNDEFINED SYMBOLS
chRegFirstThread
chRegNextThread
test_emit_token
test
chHeapInit
chPoolFree
chThdCreateFromMemoryPool
_test_assert
test_wait_threads
_test_assert_sequence
chPoolAlloc
rlist
wa
threads
chPoolInit
chHeapStatus
ARM GAS  /tmp/ccha5Aix.s 			page 65


chThdCreateFromHeap
chHeapAlloc
chHeapFree
chThdAddRef
chThdRelease
chThdSleep
