ARM GAS  /tmp/cc2eB1jY.s 			page 1


   1              		.syntax unified
   2              		.cpu cortex-m3
   3              		.fpu softvfp
   4              		.eabi_attribute 20, 1
   5              		.eabi_attribute 21, 1
   6              		.eabi_attribute 23, 3
   7              		.eabi_attribute 24, 1
   8              		.eabi_attribute 25, 1
   9              		.eabi_attribute 26, 1
  10              		.eabi_attribute 30, 2
  11              		.eabi_attribute 34, 1
  12              		.eabi_attribute 18, 4
  13              		.thumb
  14              		.file	"testthd.c"
  15              		.text
  16              	.Ltext0:
  17              		.cfi_sections	.debug_frame
  18              		.section	.text.thd3_execute,"ax",%progbits
  19              		.align	2
  20              		.p2align 4,,15
  21              		.thumb
  22              		.thumb_func
  23              		.type	thd3_execute, %function
  24              	thd3_execute:
  25              	.LFB10:
  26              		.file 1 "../../ChibiOS/test/testthd.c"
  27              		.loc 1 126 0
  28              		.cfi_startproc
  29              		@ args = 0, pretend = 0, frame = 0
  30              		@ frame_needed = 0, uses_anonymous_args = 0
  31 0000 F8B5     		push	{r3, r4, r5, r6, r7, lr}
  32              	.LCFI0:
  33              		.cfi_def_cfa_offset 24
  34              		.cfi_offset 14, -4
  35              		.cfi_offset 7, -8
  36              		.cfi_offset 6, -12
  37              		.cfi_offset 5, -16
  38              		.cfi_offset 4, -20
  39              		.cfi_offset 3, -24
  40              		.loc 1 129 0
  41 0002 534E     		ldr	r6, .L5
  42 0004 B069     		ldr	r0, [r6, #24]
  43 0006 8468     		ldr	r4, [r0, #8]
  44              	.LVL0:
  45              		.loc 1 130 0
  46 0008 651C     		adds	r5, r4, #1
  47 000a 2846     		mov	r0, r5
  48 000c FFF7FEFF 		bl	chThdSetPriority
  49              	.LVL1:
  50              		.loc 1 131 0
  51 0010 031B     		subs	r3, r0, r4
  52 0012 5942     		rsbs	r1, r3, #0
  53 0014 41EB0301 		adc	r1, r1, r3
  54              		.loc 1 130 0
  55 0018 0746     		mov	r7, r0
  56              	.LVL2:
  57              		.loc 1 131 0
ARM GAS  /tmp/cc2eB1jY.s 			page 2


  58 001a 0120     		movs	r0, #1
  59              	.LVL3:
  60 001c FFF7FEFF 		bl	_test_assert
  61 0020 00B1     		cbz	r0, .L4
  62              	.LVL4:
  63              	.L1:
  64 0022 F8BD     		pop	{r3, r4, r5, r6, r7, pc}
  65              	.LVL5:
  66              	.L4:
  67              		.loc 1 133 0
  68 0024 B269     		ldr	r2, [r6, #24]
  69 0026 0220     		movs	r0, #2
  70 0028 9368     		ldr	r3, [r2, #8]
  71 002a E91A     		subs	r1, r5, r3
  72 002c 4A42     		rsbs	r2, r1, #0
  73 002e 42EB0101 		adc	r1, r2, r1
  74 0032 FFF7FEFF 		bl	_test_assert
  75 0036 0028     		cmp	r0, #0
  76 0038 F3D1     		bne	.L1
  77              		.loc 1 135 0
  78 003a 3846     		mov	r0, r7
  79 003c FFF7FEFF 		bl	chThdSetPriority
  80              	.LVL6:
  81              		.loc 1 136 0
  82 0040 291A     		subs	r1, r5, r0
  83 0042 4842     		rsbs	r0, r1, #0
  84              	.LVL7:
  85 0044 40EB0101 		adc	r1, r0, r1
  86 0048 0320     		movs	r0, #3
  87 004a FFF7FEFF 		bl	_test_assert
  88 004e 0028     		cmp	r0, #0
  89 0050 E7D1     		bne	.L1
  90              		.loc 1 138 0
  91 0052 B169     		ldr	r1, [r6, #24]
  92 0054 0420     		movs	r0, #4
  93 0056 8A68     		ldr	r2, [r1, #8]
  94 0058 171B     		subs	r7, r2, r4
  95 005a 7B42     		rsbs	r3, r7, #0
  96 005c 43EB0701 		adc	r1, r3, r7
  97 0060 FFF7FEFF 		bl	_test_assert
  98 0064 0746     		mov	r7, r0
  99 0066 0028     		cmp	r0, #0
 100 0068 DBD1     		bne	.L1
 101              	.LBB2:
 102              		.loc 1 143 0
 103 006a 2023     		movs	r3, #32
 104              	.LVL8:
 105              	@ 143 "../../ChibiOS/test/testthd.c" 1
 106 006c 83F31188 		msr     BASEPRI, r3
 107              	@ 0 "" 2
 108              	.LVL9:
 109              		.thumb
 110              	.LBE2:
 111 0070 FFF7FEFF 		bl	dbg_check_lock
 112              	.LVL10:
 113              		.loc 1 144 0
 114 0074 B369     		ldr	r3, [r6, #24]
ARM GAS  /tmp/cc2eB1jY.s 			page 3


 115 0076 9A68     		ldr	r2, [r3, #8]
 116 0078 911C     		adds	r1, r2, #2
 117 007a 9960     		str	r1, [r3, #8]
 118              		.loc 1 145 0
 119 007c FFF7FEFF 		bl	dbg_check_unlock
 120              	.LBB3:
 121 0080 3B46     		mov	r3, r7
 122              	.LVL11:
 123              	@ 145 "../../ChibiOS/test/testthd.c" 1
 124 0082 83F31188 		msr     BASEPRI, r3
 125              	@ 0 "" 2
 126              	.LVL12:
 127              		.thumb
 128              	.LBE3:
 129              		.loc 1 146 0
 130 0086 B069     		ldr	r0, [r6, #24]
 131 0088 A71C     		adds	r7, r4, #2
 132 008a 8268     		ldr	r2, [r0, #8]
 133 008c 0520     		movs	r0, #5
 134 008e C7EB020C 		rsb	ip, r7, r2
 135 0092 DCF10003 		rsbs	r3, ip, #0
 136              	.LVL13:
 137 0096 43EB0C01 		adc	r1, r3, ip
 138 009a FFF7FEFF 		bl	_test_assert
 139 009e 0028     		cmp	r0, #0
 140 00a0 BFD1     		bne	.L1
 141              		.loc 1 150 0
 142 00a2 2846     		mov	r0, r5
 143 00a4 FFF7FEFF 		bl	chThdSetPriority
 144              	.LVL14:
 145              		.loc 1 151 0
 146 00a8 011B     		subs	r1, r0, r4
 147 00aa 4842     		rsbs	r0, r1, #0
 148              	.LVL15:
 149 00ac 40EB0101 		adc	r1, r0, r1
 150 00b0 0620     		movs	r0, #6
 151 00b2 FFF7FEFF 		bl	_test_assert
 152 00b6 0028     		cmp	r0, #0
 153 00b8 B3D1     		bne	.L1
 154              		.loc 1 153 0
 155 00ba B369     		ldr	r3, [r6, #24]
 156 00bc 0720     		movs	r0, #7
 157 00be 9968     		ldr	r1, [r3, #8]
 158 00c0 7A1A     		subs	r2, r7, r1
 159 00c2 5342     		rsbs	r3, r2, #0
 160 00c4 43EB0201 		adc	r1, r3, r2
 161 00c8 FFF7FEFF 		bl	_test_assert
 162 00cc 0028     		cmp	r0, #0
 163 00ce A8D1     		bne	.L1
 164              		.loc 1 155 0
 165 00d0 B269     		ldr	r2, [r6, #24]
 166 00d2 0820     		movs	r0, #8
 167 00d4 536C     		ldr	r3, [r2, #68]
 168 00d6 E91A     		subs	r1, r5, r3
 169 00d8 4A42     		rsbs	r2, r1, #0
 170 00da 42EB0101 		adc	r1, r2, r1
 171 00de FFF7FEFF 		bl	_test_assert
ARM GAS  /tmp/cc2eB1jY.s 			page 4


 172 00e2 0028     		cmp	r0, #0
 173 00e4 9DD1     		bne	.L1
 174              		.loc 1 159 0
 175 00e6 E71C     		adds	r7, r4, #3
 176 00e8 3846     		mov	r0, r7
 177 00ea FFF7FEFF 		bl	chThdSetPriority
 178              	.LVL16:
 179              		.loc 1 160 0
 180 00ee 281A     		subs	r0, r5, r0
 181              	.LVL17:
 182 00f0 D0F1000C 		rsbs	ip, r0, #0
 183 00f4 4CEB0001 		adc	r1, ip, r0
 184 00f8 0920     		movs	r0, #9
 185 00fa FFF7FEFF 		bl	_test_assert
 186 00fe 0028     		cmp	r0, #0
 187 0100 8FD1     		bne	.L1
 188              		.loc 1 162 0
 189 0102 B269     		ldr	r2, [r6, #24]
 190 0104 0A20     		movs	r0, #10
 191 0106 9368     		ldr	r3, [r2, #8]
 192 0108 F91A     		subs	r1, r7, r3
 193 010a D1F1000E 		rsbs	lr, r1, #0
 194 010e 4EEB0101 		adc	r1, lr, r1
 195 0112 FFF7FEFF 		bl	_test_assert
 196 0116 0028     		cmp	r0, #0
 197 0118 83D1     		bne	.L1
 198              		.loc 1 164 0
 199 011a B269     		ldr	r2, [r6, #24]
 200 011c 0B20     		movs	r0, #11
 201 011e 536C     		ldr	r3, [r2, #68]
 202 0120 F91A     		subs	r1, r7, r3
 203 0122 4D42     		rsbs	r5, r1, #0
 204 0124 45EB0101 		adc	r1, r5, r1
 205 0128 FFF7FEFF 		bl	_test_assert
 206 012c 0546     		mov	r5, r0
 207 012e 0028     		cmp	r0, #0
 208 0130 7FF477AF 		bne	.L1
 209              	.LBB4:
 210              		.loc 1 167 0
 211 0134 2023     		movs	r3, #32
 212              	.LVL18:
 213              	@ 167 "../../ChibiOS/test/testthd.c" 1
 214 0136 83F31188 		msr     BASEPRI, r3
 215              	@ 0 "" 2
 216              	.LVL19:
 217              		.thumb
 218              	.LBE4:
 219 013a FFF7FEFF 		bl	dbg_check_lock
 220              	.LVL20:
 221              		.loc 1 168 0
 222 013e B069     		ldr	r0, [r6, #24]
 223 0140 8460     		str	r4, [r0, #8]
 224              		.loc 1 169 0
 225 0142 4464     		str	r4, [r0, #68]
 226              		.loc 1 170 0
 227 0144 FFF7FEFF 		bl	dbg_check_unlock
 228              	.LBB5:
ARM GAS  /tmp/cc2eB1jY.s 			page 5


 229 0148 2B46     		mov	r3, r5
 230              	@ 170 "../../ChibiOS/test/testthd.c" 1
 231 014a 83F31188 		msr     BASEPRI, r3
 232              	@ 0 "" 2
 233              	.LVL21:
 234              		.thumb
 235 014e 68E7     		b	.L1
 236              	.L6:
 237              		.align	2
 238              	.L5:
 239 0150 00000000 		.word	rlist
 240              	.LBE5:
 241              		.cfi_endproc
 242              	.LFE10:
 243              		.size	thd3_execute, .-thd3_execute
 244 0154 AFF30080 		.section	.text.thd2_execute,"ax",%progbits
 244      AFF30080 
 244      AFF30080 
 245              		.align	2
 246              		.p2align 4,,15
 247              		.thumb
 248              		.thumb_func
 249              		.type	thd2_execute, %function
 250              	thd2_execute:
 251              	.LFB9:
 252              		.loc 1 94 0
 253              		.cfi_startproc
 254              		@ args = 0, pretend = 0, frame = 0
 255              		@ frame_needed = 0, uses_anonymous_args = 0
 256 0000 F0B5     		push	{r4, r5, r6, r7, lr}
 257              	.LCFI1:
 258              		.cfi_def_cfa_offset 20
 259              		.cfi_offset 14, -4
 260              		.cfi_offset 7, -8
 261              		.cfi_offset 6, -12
 262              		.cfi_offset 5, -16
 263              		.cfi_offset 4, -20
 264              		.loc 1 96 0
 265 0002 40F20007 		movw	r7, #:lower16:rlist
 266 0006 C0F20007 		movt	r7, #:upper16:rlist
 267 000a B869     		ldr	r0, [r7, #24]
 268 000c 40F20006 		movw	r6, #:lower16:wa
 269 0010 8168     		ldr	r1, [r0, #8]
 270 0012 40F20005 		movw	r5, #:lower16:thread
 271 0016 C0F20006 		movt	r6, #:upper16:wa
 272 001a C0F20005 		movt	r5, #:upper16:thread
 273 001e 40F20004 		movw	r4, #:lower16:.LC0
 274              		.loc 1 94 0
 275 0022 83B0     		sub	sp, sp, #12
 276              	.LCFI2:
 277              		.cfi_def_cfa_offset 32
 278              		.loc 1 96 0
 279 0024 0A1F     		subs	r2, r1, #4
 280 0026 2B46     		mov	r3, r5
 281 0028 7068     		ldr	r0, [r6, #4]
 282 002a 4FF40471 		mov	r1, #528
 283 002e C0F20004 		movt	r4, #:upper16:.LC0
ARM GAS  /tmp/cc2eB1jY.s 			page 6


 284 0032 0094     		str	r4, [sp, #0]
 285 0034 FFF7FEFF 		bl	chThdCreateStatic
 286              		.loc 1 97 0
 287 0038 BC69     		ldr	r4, [r7, #24]
 288              		.loc 1 96 0
 289 003a 8446     		mov	ip, r0
 290              		.loc 1 97 0
 291 003c A268     		ldr	r2, [r4, #8]
 292              		.loc 1 96 0
 293 003e 40F20004 		movw	r4, #:lower16:threads
 294 0042 C0F20004 		movt	r4, #:upper16:threads
 295              		.loc 1 97 0
 296 0046 40F2000E 		movw	lr, #:lower16:.LC1
 297              		.loc 1 96 0
 298 004a C4F804C0 		str	ip, [r4, #4]
 299              		.loc 1 97 0
 300 004e 053A     		subs	r2, r2, #5
 301 0050 2B46     		mov	r3, r5
 302 0052 C0F2000E 		movt	lr, #:upper16:.LC1
 303 0056 3068     		ldr	r0, [r6, #0]
 304 0058 4FF40471 		mov	r1, #528
 305 005c CDF800E0 		str	lr, [sp, #0]
 306 0060 FFF7FEFF 		bl	chThdCreateStatic
 307              		.loc 1 98 0
 308 0064 BB69     		ldr	r3, [r7, #24]
 309              		.loc 1 97 0
 310 0066 8446     		mov	ip, r0
 311              		.loc 1 98 0
 312 0068 9968     		ldr	r1, [r3, #8]
 313 006a 40F2000E 		movw	lr, #:lower16:.LC2
 314 006e 4A1E     		subs	r2, r1, #1
 315              		.loc 1 97 0
 316 0070 C4F800C0 		str	ip, [r4, #0]
 317              		.loc 1 98 0
 318 0074 2B46     		mov	r3, r5
 319 0076 C0F2000E 		movt	lr, #:upper16:.LC2
 320 007a 3069     		ldr	r0, [r6, #16]
 321 007c 4FF40471 		mov	r1, #528
 322 0080 CDF800E0 		str	lr, [sp, #0]
 323 0084 FFF7FEFF 		bl	chThdCreateStatic
 324              		.loc 1 99 0
 325 0088 BA69     		ldr	r2, [r7, #24]
 326              		.loc 1 98 0
 327 008a 8446     		mov	ip, r0
 328              		.loc 1 99 0
 329 008c 9168     		ldr	r1, [r2, #8]
 330 008e 40F2000E 		movw	lr, #:lower16:.LC3
 331 0092 2B46     		mov	r3, r5
 332 0094 8A1E     		subs	r2, r1, #2
 333              		.loc 1 98 0
 334 0096 C4F810C0 		str	ip, [r4, #16]
 335              		.loc 1 99 0
 336 009a C0F2000E 		movt	lr, #:upper16:.LC3
 337 009e F068     		ldr	r0, [r6, #12]
 338 00a0 4FF40471 		mov	r1, #528
 339 00a4 CDF800E0 		str	lr, [sp, #0]
 340 00a8 FFF7FEFF 		bl	chThdCreateStatic
ARM GAS  /tmp/cc2eB1jY.s 			page 7


 341              	.LBB6:
 342              		.loc 1 101 0
 343 00ac 2023     		movs	r3, #32
 344              	.LVL22:
 345              	.LBE6:
 346              		.loc 1 99 0
 347 00ae E060     		str	r0, [r4, #12]
 348              	.LBB7:
 349              		.loc 1 101 0
 350              	@ 101 "../../ChibiOS/test/testthd.c" 1
 351 00b0 83F31188 		msr     BASEPRI, r3
 352              	@ 0 "" 2
 353              	.LVL23:
 354              		.thumb
 355              	.LBE7:
 356 00b4 FFF7FEFF 		bl	dbg_check_lock
 357              	.LVL24:
 358              		.loc 1 102 0
 359 00b8 BB69     		ldr	r3, [r7, #24]
 360 00ba 4FF40471 		mov	r1, #528
 361 00be 9A68     		ldr	r2, [r3, #8]
 362 00c0 2B46     		mov	r3, r5
 363 00c2 40F20005 		movw	r5, #:lower16:.LC4
 364 00c6 033A     		subs	r2, r2, #3
 365 00c8 B068     		ldr	r0, [r6, #8]
 366 00ca C0F20005 		movt	r5, #:upper16:.LC4
 367 00ce 0095     		str	r5, [sp, #0]
 368 00d0 FFF7FEFF 		bl	chThdCreateI
 369 00d4 A060     		str	r0, [r4, #8]
 370              		.loc 1 103 0
 371 00d6 FFF7FEFF 		bl	dbg_check_unlock
 372              	.LBB8:
 373 00da 0023     		movs	r3, #0
 374              	.LVL25:
 375              	@ 103 "../../ChibiOS/test/testthd.c" 1
 376 00dc 83F31188 		msr     BASEPRI, r3
 377              	@ 0 "" 2
 378              	.LVL26:
 379              		.thumb
 380              	.LBE8:
 381              		.loc 1 104 0
 382 00e0 A068     		ldr	r0, [r4, #8]
 383 00e2 FFF7FEFF 		bl	chThdResume
 384              	.LVL27:
 385              		.loc 1 105 0
 386 00e6 FFF7FEFF 		bl	test_wait_threads
 387              		.loc 1 106 0
 388 00ea 40F20001 		movw	r1, #:lower16:.LC5
 389 00ee C0F20001 		movt	r1, #:upper16:.LC5
 390 00f2 0120     		movs	r0, #1
 391              		.loc 1 107 0
 392 00f4 03B0     		add	sp, sp, #12
 393 00f6 BDE8F040 		pop	{r4, r5, r6, r7, lr}
 394              		.loc 1 106 0
 395 00fa FFF7FEBF 		b	_test_assert_sequence
 396              		.cfi_endproc
 397              	.LFE9:
ARM GAS  /tmp/cc2eB1jY.s 			page 8


 398              		.size	thd2_execute, .-thd2_execute
 399 00fe 00BF     		.section	.text.thd1_execute,"ax",%progbits
 400              		.align	2
 401              		.p2align 4,,15
 402              		.thumb
 403              		.thumb_func
 404              		.type	thd1_execute, %function
 405              	thd1_execute:
 406              	.LFB8:
 407              		.loc 1 66 0
 408              		.cfi_startproc
 409              		@ args = 0, pretend = 0, frame = 0
 410              		@ frame_needed = 0, uses_anonymous_args = 0
 411 0000 F0B5     		push	{r4, r5, r6, r7, lr}
 412              	.LCFI3:
 413              		.cfi_def_cfa_offset 20
 414              		.cfi_offset 14, -4
 415              		.cfi_offset 7, -8
 416              		.cfi_offset 6, -12
 417              		.cfi_offset 5, -16
 418              		.cfi_offset 4, -20
 419              		.loc 1 68 0
 420 0002 40F20007 		movw	r7, #:lower16:rlist
 421 0006 C0F20007 		movt	r7, #:upper16:rlist
 422 000a B869     		ldr	r0, [r7, #24]
 423 000c 40F20006 		movw	r6, #:lower16:wa
 424 0010 8368     		ldr	r3, [r0, #8]
 425 0012 40F20005 		movw	r5, #:lower16:thread
 426 0016 C0F20006 		movt	r6, #:upper16:wa
 427 001a C0F20005 		movt	r5, #:upper16:thread
 428 001e 40F20004 		movw	r4, #:lower16:.LC1
 429              		.loc 1 66 0
 430 0022 83B0     		sub	sp, sp, #12
 431              	.LCFI4:
 432              		.cfi_def_cfa_offset 32
 433              		.loc 1 68 0
 434 0024 5A1F     		subs	r2, r3, #5
 435 0026 3068     		ldr	r0, [r6, #0]
 436 0028 2B46     		mov	r3, r5
 437 002a 4FF40471 		mov	r1, #528
 438 002e C0F20004 		movt	r4, #:upper16:.LC1
 439 0032 0094     		str	r4, [sp, #0]
 440 0034 FFF7FEFF 		bl	chThdCreateStatic
 441              		.loc 1 69 0
 442 0038 BC69     		ldr	r4, [r7, #24]
 443              		.loc 1 68 0
 444 003a 8646     		mov	lr, r0
 445              		.loc 1 69 0
 446 003c A168     		ldr	r1, [r4, #8]
 447              		.loc 1 68 0
 448 003e 40F20004 		movw	r4, #:lower16:threads
 449 0042 C0F20004 		movt	r4, #:upper16:threads
 450              		.loc 1 69 0
 451 0046 40F2000C 		movw	ip, #:lower16:.LC0
 452 004a 0A1F     		subs	r2, r1, #4
 453              		.loc 1 68 0
 454 004c C4F800E0 		str	lr, [r4, #0]
ARM GAS  /tmp/cc2eB1jY.s 			page 9


 455              		.loc 1 69 0
 456 0050 2B46     		mov	r3, r5
 457 0052 C0F2000C 		movt	ip, #:upper16:.LC0
 458 0056 7068     		ldr	r0, [r6, #4]
 459 0058 4FF40471 		mov	r1, #528
 460 005c CDF800C0 		str	ip, [sp, #0]
 461 0060 FFF7FEFF 		bl	chThdCreateStatic
 462              		.loc 1 70 0
 463 0064 BA69     		ldr	r2, [r7, #24]
 464              		.loc 1 69 0
 465 0066 8646     		mov	lr, r0
 466              		.loc 1 70 0
 467 0068 9368     		ldr	r3, [r2, #8]
 468 006a 40F2000C 		movw	ip, #:lower16:.LC4
 469 006e DA1E     		subs	r2, r3, #3
 470              		.loc 1 69 0
 471 0070 C4F804E0 		str	lr, [r4, #4]
 472              		.loc 1 70 0
 473 0074 2B46     		mov	r3, r5
 474 0076 C0F2000C 		movt	ip, #:upper16:.LC4
 475 007a B068     		ldr	r0, [r6, #8]
 476 007c 4FF40471 		mov	r1, #528
 477 0080 CDF800C0 		str	ip, [sp, #0]
 478 0084 FFF7FEFF 		bl	chThdCreateStatic
 479              		.loc 1 71 0
 480 0088 B969     		ldr	r1, [r7, #24]
 481              		.loc 1 70 0
 482 008a 8646     		mov	lr, r0
 483              		.loc 1 71 0
 484 008c 8A68     		ldr	r2, [r1, #8]
 485 008e 40F2000C 		movw	ip, #:lower16:.LC3
 486 0092 C0F2000C 		movt	ip, #:upper16:.LC3
 487              		.loc 1 70 0
 488 0096 C4F808E0 		str	lr, [r4, #8]
 489              		.loc 1 71 0
 490 009a 023A     		subs	r2, r2, #2
 491 009c 2B46     		mov	r3, r5
 492 009e F068     		ldr	r0, [r6, #12]
 493 00a0 4FF40471 		mov	r1, #528
 494 00a4 CDF800C0 		str	ip, [sp, #0]
 495 00a8 FFF7FEFF 		bl	chThdCreateStatic
 496              		.loc 1 72 0
 497 00ac BB69     		ldr	r3, [r7, #24]
 498              		.loc 1 71 0
 499 00ae 8646     		mov	lr, r0
 500              		.loc 1 72 0
 501 00b0 9A68     		ldr	r2, [r3, #8]
 502 00b2 2B46     		mov	r3, r5
 503 00b4 40F20005 		movw	r5, #:lower16:.LC2
 504              		.loc 1 71 0
 505 00b8 C4F80CE0 		str	lr, [r4, #12]
 506              		.loc 1 72 0
 507 00bc 4FF40471 		mov	r1, #528
 508 00c0 013A     		subs	r2, r2, #1
 509 00c2 3069     		ldr	r0, [r6, #16]
 510 00c4 C0F20005 		movt	r5, #:upper16:.LC2
 511 00c8 0095     		str	r5, [sp, #0]
ARM GAS  /tmp/cc2eB1jY.s 			page 10


 512 00ca FFF7FEFF 		bl	chThdCreateStatic
 513 00ce 2061     		str	r0, [r4, #16]
 514              		.loc 1 73 0
 515 00d0 FFF7FEFF 		bl	test_wait_threads
 516              		.loc 1 74 0
 517 00d4 40F20001 		movw	r1, #:lower16:.LC5
 518 00d8 C0F20001 		movt	r1, #:upper16:.LC5
 519 00dc 0120     		movs	r0, #1
 520              		.loc 1 75 0
 521 00de 03B0     		add	sp, sp, #12
 522 00e0 BDE8F040 		pop	{r4, r5, r6, r7, lr}
 523              		.loc 1 74 0
 524 00e4 FFF7FEBF 		b	_test_assert_sequence
 525              		.cfi_endproc
 526              	.LFE8:
 527              		.size	thd1_execute, .-thd1_execute
 528 00e8 AFF30080 		.section	.text.thread,"ax",%progbits
 528      AFF30080 
 529              		.align	2
 530              		.p2align 4,,15
 531              		.thumb
 532              		.thumb_func
 533              		.type	thread, %function
 534              	thread:
 535              	.LFB7:
 536              		.loc 1 60 0
 537              		.cfi_startproc
 538              		@ args = 0, pretend = 0, frame = 0
 539              		@ frame_needed = 0, uses_anonymous_args = 0
 540              	.LVL28:
 541 0000 08B5     		push	{r3, lr}
 542              	.LCFI5:
 543              		.cfi_def_cfa_offset 8
 544              		.cfi_offset 14, -4
 545              		.cfi_offset 3, -8
 546              		.loc 1 62 0
 547 0002 0078     		ldrb	r0, [r0, #0]	@ zero_extendqisi2
 548              	.LVL29:
 549 0004 FFF7FEFF 		bl	test_emit_token
 550              		.loc 1 64 0
 551 0008 0020     		movs	r0, #0
 552 000a 08BD     		pop	{r3, pc}
 553              		.cfi_endproc
 554              	.LFE7:
 555              		.size	thread, .-thread
 556 000c AFF30080 		.section	.text.thd4_execute,"ax",%progbits
 557              		.align	2
 558              		.p2align 4,,15
 559              		.thumb
 560              		.thumb_func
 561              		.type	thd4_execute, %function
 562              	thd4_execute:
 563              	.LFB11:
 564              		.loc 1 189 0
 565              		.cfi_startproc
 566              		@ args = 0, pretend = 0, frame = 0
 567              		@ frame_needed = 0, uses_anonymous_args = 0
ARM GAS  /tmp/cc2eB1jY.s 			page 11


 568 0000 38B5     		push	{r3, r4, r5, lr}
 569              	.LCFI6:
 570              		.cfi_def_cfa_offset 16
 571              		.cfi_offset 14, -4
 572              		.cfi_offset 5, -8
 573              		.cfi_offset 4, -12
 574              		.cfi_offset 3, -16
 575              		.loc 1 195 0
 576 0002 1C4C     		ldr	r4, .L13
 577              		.loc 1 192 0
 578 0004 FFF7FEFF 		bl	test_wait_tick
 579              		.loc 1 195 0
 580 0008 E568     		ldr	r5, [r4, #12]
 581              	.LVL30:
 582              		.loc 1 196 0
 583 000a 6420     		movs	r0, #100
 584 000c FFF7FEFF 		bl	chThdSleep
 585              		.loc 1 197 0
 586 0010 05F16401 		add	r1, r5, #100
 587 0014 05F16502 		add	r2, r5, #101
 588 0018 0120     		movs	r0, #1
 589 001a FFF7FEFF 		bl	_test_assert_time_window
 590 001e 00B1     		cbz	r0, .L12
 591              	.LVL31:
 592              	.L10:
 593 0020 38BD     		pop	{r3, r4, r5, pc}
 594              	.LVL32:
 595              	.L12:
 596              		.loc 1 200 0
 597 0022 E568     		ldr	r5, [r4, #12]
 598              	.LVL33:
 599              		.loc 1 201 0
 600 0024 6420     		movs	r0, #100
 601 0026 FFF7FEFF 		bl	chThdSleep
 602              		.loc 1 202 0
 603 002a 05F16401 		add	r1, r5, #100
 604 002e 05F16502 		add	r2, r5, #101
 605 0032 0220     		movs	r0, #2
 606 0034 FFF7FEFF 		bl	_test_assert_time_window
 607 0038 0028     		cmp	r0, #0
 608 003a F1D1     		bne	.L10
 609              	.LBB11:
 610              	.LBB12:
 611              		.loc 1 205 0
 612 003c E568     		ldr	r5, [r4, #12]
 613              	.LVL34:
 614              		.loc 1 206 0
 615 003e 4FF47A70 		mov	r0, #1000
 616 0042 FFF7FEFF 		bl	chThdSleep
 617              		.loc 1 207 0
 618 0046 05F57A71 		add	r1, r5, #1000
 619 004a 4A1C     		adds	r2, r1, #1
 620 004c 0320     		movs	r0, #3
 621 004e FFF7FEFF 		bl	_test_assert_time_window
 622 0052 0028     		cmp	r0, #0
 623 0054 E4D1     		bne	.L10
 624              		.loc 1 210 0
ARM GAS  /tmp/cc2eB1jY.s 			page 12


 625 0056 E568     		ldr	r5, [r4, #12]
 626              	.LVL35:
 627 0058 05F16404 		add	r4, r5, #100
 628              	.LVL36:
 629              		.loc 1 211 0
 630 005c 2046     		mov	r0, r4
 631 005e FFF7FEFF 		bl	chThdSleepUntil
 632              		.loc 1 212 0
 633 0062 05F16502 		add	r2, r5, #101
 634 0066 0420     		movs	r0, #4
 635 0068 2146     		mov	r1, r4
 636              	.LBE12:
 637              	.LBE11:
 638              		.loc 1 213 0
 639 006a BDE83840 		pop	{r3, r4, r5, lr}
 640              	.LBB14:
 641              	.LBB13:
 642              		.loc 1 212 0
 643 006e FFF7FEBF 		b	_test_assert_time_window
 644              	.L14:
 645 0072 00BF     		.align	2
 646              	.L13:
 647 0074 00000000 		.word	vtlist
 648              	.LBE13:
 649              	.LBE14:
 650              		.cfi_endproc
 651              	.LFE11:
 652              		.size	thd4_execute, .-thd4_execute
 653              		.global	patternthd
 654              		.global	testthd4
 655              		.global	testthd3
 656              		.global	testthd2
 657              		.global	testthd1
 658 0078 AFF30080 		.section	.rodata.testthd1,"a",%progbits
 658      AFF30080 
 659              		.align	2
 660              		.type	testthd1, %object
 661              		.size	testthd1, 16
 662              	testthd1:
 663 0000 64000000 		.word	.LC9
 664 0004 00000000 		.word	0
 665 0008 00000000 		.word	0
 666 000c 00000000 		.word	thd1_execute
 667              		.section	.rodata.testthd2,"a",%progbits
 668              		.align	2
 669              		.type	testthd2, %object
 670              		.size	testthd2, 16
 671              	testthd2:
 672 0000 48000000 		.word	.LC8
 673 0004 00000000 		.word	0
 674 0008 00000000 		.word	0
 675 000c 00000000 		.word	thd2_execute
 676              		.section	.rodata.testthd3,"a",%progbits
 677              		.align	2
 678              		.type	testthd3, %object
 679              		.size	testthd3, 16
 680              	testthd3:
ARM GAS  /tmp/cc2eB1jY.s 			page 13


 681 0000 2C000000 		.word	.LC7
 682 0004 00000000 		.word	0
 683 0008 00000000 		.word	0
 684 000c 00000000 		.word	thd3_execute
 685              		.section	.rodata.testthd4,"a",%progbits
 686              		.align	2
 687              		.type	testthd4, %object
 688              		.size	testthd4, 16
 689              	testthd4:
 690 0000 1C000000 		.word	.LC6
 691 0004 00000000 		.word	0
 692 0008 00000000 		.word	0
 693 000c 00000000 		.word	thd4_execute
 694              		.section	.rodata.patternthd,"a",%progbits
 695              		.align	2
 696              		.type	patternthd, %object
 697              		.size	patternthd, 20
 698              	patternthd:
 699 0000 00000000 		.word	testthd1
 700 0004 00000000 		.word	testthd2
 701 0008 00000000 		.word	testthd3
 702 000c 00000000 		.word	testthd4
 703 0010 00000000 		.word	0
 704              		.section	.rodata.str1.4,"aMS",%progbits,1
 705              		.align	2
 706              	.LC0:
 707 0000 4400     		.ascii	"D\000"
 708 0002 0000     		.space	2
 709              	.LC1:
 710 0004 4500     		.ascii	"E\000"
 711 0006 0000     		.space	2
 712              	.LC2:
 713 0008 4100     		.ascii	"A\000"
 714 000a 0000     		.space	2
 715              	.LC3:
 716 000c 4200     		.ascii	"B\000"
 717 000e 0000     		.space	2
 718              	.LC4:
 719 0010 4300     		.ascii	"C\000"
 720 0012 0000     		.space	2
 721              	.LC5:
 722 0014 41424344 		.ascii	"ABCDE\000"
 722      4500
 723 001a 0000     		.space	2
 724              	.LC6:
 725 001c 54687265 		.ascii	"Threads, delays\000"
 725      6164732C 
 725      2064656C 
 725      61797300 
 726              	.LC7:
 727 002c 54687265 		.ascii	"Threads, priority change\000"
 727      6164732C 
 727      20707269 
 727      6F726974 
 727      79206368 
 728 0045 000000   		.space	3
 729              	.LC8:
ARM GAS  /tmp/cc2eB1jY.s 			page 14


 730 0048 54687265 		.ascii	"Threads, enqueuing test #2\000"
 730      6164732C 
 730      20656E71 
 730      75657569 
 730      6E672074 
 731 0063 00       		.space	1
 732              	.LC9:
 733 0064 54687265 		.ascii	"Threads, enqueuing test #1\000"
 733      6164732C 
 733      20656E71 
 733      75657569 
 733      6E672074 
 734 007f 00       		.text
 735              	.Letext0:
 736              		.file 2 "/home/tino/ChibiStudio/tools/GNU Tools ARM Embedded/4.6 2012q2/bin/../lib/gcc/arm-none-ea
 737              		.file 3 "../../ChibiOS/os/ports/GCC/ARMCMx/chtypes.h"
 738              		.file 4 "../../ChibiOS/os/kernel/include/chlists.h"
 739              		.file 5 "../../ChibiOS/os/kernel/include/chthreads.h"
 740              		.file 6 "../../ChibiOS/os/ports/GCC/ARMCMx/chcore_v7m.h"
 741              		.file 7 "../../ChibiOS/os/kernel/include/chvt.h"
 742              		.file 8 "../../ChibiOS/os/kernel/include/chschd.h"
 743              		.file 9 "../../ChibiOS/os/kernel/include/chmtx.h"
 744              		.file 10 "../../ChibiOS/test/test.h"
 745              		.section	.debug_info,"",%progbits
 746              	.Ldebug_info0:
 747 0000 37080000 		.4byte	0x837
 748 0004 0200     		.2byte	0x2
 749 0006 00000000 		.4byte	.Ldebug_abbrev0
 750 000a 04       		.byte	0x4
 751 000b 01       		.uleb128 0x1
 752 000c 86000000 		.4byte	.LASF90
 753 0010 01       		.byte	0x1
 754 0011 A5010000 		.4byte	.LASF91
 755 0015 CF000000 		.4byte	.LASF92
 756 0019 00000000 		.4byte	0
 757 001d 00000000 		.4byte	0
 758 0021 48000000 		.4byte	.Ldebug_ranges0+0x48
 759 0025 00000000 		.4byte	.Ldebug_line0
 760 0029 02       		.uleb128 0x2
 761 002a 04       		.byte	0x4
 762 002b 05       		.byte	0x5
 763 002c 696E7400 		.ascii	"int\000"
 764 0030 03       		.uleb128 0x3
 765 0031 04       		.byte	0x4
 766 0032 07       		.byte	0x7
 767 0033 42010000 		.4byte	.LASF0
 768 0037 03       		.uleb128 0x3
 769 0038 01       		.byte	0x1
 770 0039 06       		.byte	0x6
 771 003a 57000000 		.4byte	.LASF1
 772 003e 04       		.uleb128 0x4
 773 003f AB030000 		.4byte	.LASF5
 774 0043 02       		.byte	0x2
 775 0044 2A       		.byte	0x2a
 776 0045 49000000 		.4byte	0x49
 777 0049 03       		.uleb128 0x3
 778 004a 01       		.byte	0x1
ARM GAS  /tmp/cc2eB1jY.s 			page 15


 779 004b 08       		.byte	0x8
 780 004c A0020000 		.4byte	.LASF2
 781 0050 03       		.uleb128 0x3
 782 0051 02       		.byte	0x2
 783 0052 05       		.byte	0x5
 784 0053 B8020000 		.4byte	.LASF3
 785 0057 03       		.uleb128 0x3
 786 0058 02       		.byte	0x2
 787 0059 07       		.byte	0x7
 788 005a 7F010000 		.4byte	.LASF4
 789 005e 04       		.uleb128 0x4
 790 005f 98020000 		.4byte	.LASF6
 791 0063 02       		.byte	0x2
 792 0064 4F       		.byte	0x4f
 793 0065 69000000 		.4byte	0x69
 794 0069 03       		.uleb128 0x3
 795 006a 04       		.byte	0x4
 796 006b 05       		.byte	0x5
 797 006c 7D000000 		.4byte	.LASF7
 798 0070 04       		.uleb128 0x4
 799 0071 14030000 		.4byte	.LASF8
 800 0075 02       		.byte	0x2
 801 0076 50       		.byte	0x50
 802 0077 7B000000 		.4byte	0x7b
 803 007b 03       		.uleb128 0x3
 804 007c 04       		.byte	0x4
 805 007d 07       		.byte	0x7
 806 007e 57010000 		.4byte	.LASF9
 807 0082 03       		.uleb128 0x3
 808 0083 08       		.byte	0x8
 809 0084 05       		.byte	0x5
 810 0085 49000000 		.4byte	.LASF10
 811 0089 04       		.uleb128 0x4
 812 008a 12000000 		.4byte	.LASF11
 813 008e 02       		.byte	0x2
 814 008f 78       		.byte	0x78
 815 0090 94000000 		.4byte	0x94
 816 0094 03       		.uleb128 0x3
 817 0095 08       		.byte	0x8
 818 0096 07       		.byte	0x7
 819 0097 22000000 		.4byte	.LASF12
 820 009b 03       		.uleb128 0x3
 821 009c 01       		.byte	0x1
 822 009d 02       		.byte	0x2
 823 009e 92020000 		.4byte	.LASF13
 824 00a2 04       		.uleb128 0x4
 825 00a3 C2010000 		.4byte	.LASF14
 826 00a7 03       		.byte	0x3
 827 00a8 25       		.byte	0x25
 828 00a9 3E000000 		.4byte	0x3e
 829 00ad 04       		.uleb128 0x4
 830 00ae 00010000 		.4byte	.LASF15
 831 00b2 03       		.byte	0x3
 832 00b3 26       		.byte	0x26
 833 00b4 3E000000 		.4byte	0x3e
 834 00b8 04       		.uleb128 0x4
 835 00b9 5F020000 		.4byte	.LASF16
ARM GAS  /tmp/cc2eB1jY.s 			page 16


 836 00bd 03       		.byte	0x3
 837 00be 27       		.byte	0x27
 838 00bf 3E000000 		.4byte	0x3e
 839 00c3 04       		.uleb128 0x4
 840 00c4 73000000 		.4byte	.LASF17
 841 00c8 03       		.byte	0x3
 842 00c9 28       		.byte	0x28
 843 00ca 3E000000 		.4byte	0x3e
 844 00ce 04       		.uleb128 0x4
 845 00cf 83020000 		.4byte	.LASF18
 846 00d3 03       		.byte	0x3
 847 00d4 29       		.byte	0x29
 848 00d5 70000000 		.4byte	0x70
 849 00d9 04       		.uleb128 0x4
 850 00da 9F010000 		.4byte	.LASF19
 851 00de 03       		.byte	0x3
 852 00df 2A       		.byte	0x2a
 853 00e0 5E000000 		.4byte	0x5e
 854 00e4 04       		.uleb128 0x4
 855 00e5 D6010000 		.4byte	.LASF20
 856 00e9 03       		.byte	0x3
 857 00ea 2C       		.byte	0x2c
 858 00eb 70000000 		.4byte	0x70
 859 00ef 04       		.uleb128 0x4
 860 00f0 56030000 		.4byte	.LASF21
 861 00f4 03       		.byte	0x3
 862 00f5 2E       		.byte	0x2e
 863 00f6 70000000 		.4byte	0x70
 864 00fa 04       		.uleb128 0x4
 865 00fb F9020000 		.4byte	.LASF22
 866 00ff 04       		.byte	0x4
 867 0100 23       		.byte	0x23
 868 0101 05010000 		.4byte	0x105
 869 0105 05       		.uleb128 0x5
 870 0106 F9020000 		.4byte	.LASF22
 871 010a 4C       		.byte	0x4c
 872 010b 05       		.byte	0x5
 873 010c 57       		.byte	0x57
 874 010d 38020000 		.4byte	0x238
 875 0111 06       		.uleb128 0x6
 876 0112 EA020000 		.4byte	.LASF23
 877 0116 05       		.byte	0x5
 878 0117 58       		.byte	0x58
 879 0118 5D020000 		.4byte	0x25d
 880 011c 02       		.byte	0x2
 881 011d 23       		.byte	0x23
 882 011e 00       		.uleb128 0
 883 011f 06       		.uleb128 0x6
 884 0120 74020000 		.4byte	.LASF24
 885 0124 05       		.byte	0x5
 886 0125 5A       		.byte	0x5a
 887 0126 5D020000 		.4byte	0x25d
 888 012a 02       		.byte	0x2
 889 012b 23       		.byte	0x23
 890 012c 04       		.uleb128 0x4
 891 012d 06       		.uleb128 0x6
 892 012e 42000000 		.4byte	.LASF25
ARM GAS  /tmp/cc2eB1jY.s 			page 17


 893 0132 05       		.byte	0x5
 894 0133 5C       		.byte	0x5c
 895 0134 CE000000 		.4byte	0xce
 896 0138 02       		.byte	0x2
 897 0139 23       		.byte	0x23
 898 013a 08       		.uleb128 0x8
 899 013b 06       		.uleb128 0x6
 900 013c DB030000 		.4byte	.LASF26
 901 0140 05       		.byte	0x5
 902 0141 5D       		.byte	0x5d
 903 0142 36030000 		.4byte	0x336
 904 0146 02       		.byte	0x2
 905 0147 23       		.byte	0x23
 906 0148 0C       		.uleb128 0xc
 907 0149 06       		.uleb128 0x6
 908 014a 09010000 		.4byte	.LASF27
 909 014e 05       		.byte	0x5
 910 014f 5F       		.byte	0x5f
 911 0150 5D020000 		.4byte	0x25d
 912 0154 02       		.byte	0x2
 913 0155 23       		.byte	0x23
 914 0156 10       		.uleb128 0x10
 915 0157 06       		.uleb128 0x6
 916 0158 27020000 		.4byte	.LASF28
 917 015c 05       		.byte	0x5
 918 015d 60       		.byte	0x60
 919 015e 5D020000 		.4byte	0x25d
 920 0162 02       		.byte	0x2
 921 0163 23       		.byte	0x23
 922 0164 14       		.uleb128 0x14
 923 0165 06       		.uleb128 0x6
 924 0166 BA030000 		.4byte	.LASF29
 925 016a 05       		.byte	0x5
 926 016b 67       		.byte	0x67
 927 016c 10050000 		.4byte	0x510
 928 0170 02       		.byte	0x2
 929 0171 23       		.byte	0x23
 930 0172 18       		.uleb128 0x18
 931 0173 06       		.uleb128 0x6
 932 0174 37010000 		.4byte	.LASF30
 933 0178 05       		.byte	0x5
 934 0179 6D       		.byte	0x6d
 935 017a 22050000 		.4byte	0x522
 936 017e 02       		.byte	0x2
 937 017f 23       		.byte	0x23
 938 0180 1C       		.uleb128 0x1c
 939 0181 06       		.uleb128 0x6
 940 0182 C2020000 		.4byte	.LASF31
 941 0186 05       		.byte	0x5
 942 0187 72       		.byte	0x72
 943 0188 AD000000 		.4byte	0xad
 944 018c 02       		.byte	0x2
 945 018d 23       		.byte	0x23
 946 018e 20       		.uleb128 0x20
 947 018f 06       		.uleb128 0x6
 948 0190 F1020000 		.4byte	.LASF32
 949 0194 05       		.byte	0x5
ARM GAS  /tmp/cc2eB1jY.s 			page 18


 950 0195 76       		.byte	0x76
 951 0196 A2000000 		.4byte	0xa2
 952 019a 02       		.byte	0x2
 953 019b 23       		.byte	0x23
 954 019c 21       		.uleb128 0x21
 955 019d 06       		.uleb128 0x6
 956 019e 94030000 		.4byte	.LASF33
 957 01a2 05       		.byte	0x5
 958 01a3 7B       		.byte	0x7b
 959 01a4 B8000000 		.4byte	0xb8
 960 01a8 02       		.byte	0x2
 961 01a9 23       		.byte	0x23
 962 01aa 22       		.uleb128 0x22
 963 01ab 06       		.uleb128 0x6
 964 01ac CA020000 		.4byte	.LASF34
 965 01b0 05       		.byte	0x5
 966 01b1 81       		.byte	0x81
 967 01b2 C3000000 		.4byte	0xc3
 968 01b6 02       		.byte	0x2
 969 01b7 23       		.byte	0x23
 970 01b8 23       		.uleb128 0x23
 971 01b9 06       		.uleb128 0x6
 972 01ba 74030000 		.4byte	.LASF35
 973 01be 05       		.byte	0x5
 974 01bf 88       		.byte	0x88
 975 01c0 1B040000 		.4byte	0x41b
 976 01c4 02       		.byte	0x2
 977 01c5 23       		.byte	0x23
 978 01c6 24       		.uleb128 0x24
 979 01c7 07       		.uleb128 0x7
 980 01c8 705F7500 		.ascii	"p_u\000"
 981 01cc 05       		.byte	0x5
 982 01cd AD       		.byte	0xad
 983 01ce DB040000 		.4byte	0x4db
 984 01d2 02       		.byte	0x2
 985 01d3 23       		.byte	0x23
 986 01d4 28       		.uleb128 0x28
 987 01d5 06       		.uleb128 0x6
 988 01d6 E1030000 		.4byte	.LASF36
 989 01da 05       		.byte	0x5
 990 01db B2       		.byte	0xb2
 991 01dc 85020000 		.4byte	0x285
 992 01e0 02       		.byte	0x2
 993 01e1 23       		.byte	0x23
 994 01e2 2C       		.uleb128 0x2c
 995 01e3 06       		.uleb128 0x6
 996 01e4 82030000 		.4byte	.LASF37
 997 01e8 05       		.byte	0x5
 998 01e9 B8       		.byte	0xb8
 999 01ea 63020000 		.4byte	0x263
 1000 01ee 02       		.byte	0x2
 1001 01ef 23       		.byte	0x23
 1002 01f0 30       		.uleb128 0x30
 1003 01f1 06       		.uleb128 0x6
 1004 01f2 00000000 		.4byte	.LASF38
 1005 01f6 05       		.byte	0x5
 1006 01f7 BC       		.byte	0xbc
ARM GAS  /tmp/cc2eB1jY.s 			page 19


 1007 01f8 D9000000 		.4byte	0xd9
 1008 01fc 02       		.byte	0x2
 1009 01fd 23       		.byte	0x23
 1010 01fe 38       		.uleb128 0x38
 1011 01ff 06       		.uleb128 0x6
 1012 0200 09030000 		.4byte	.LASF39
 1013 0204 05       		.byte	0x5
 1014 0205 C2       		.byte	0xc2
 1015 0206 E4000000 		.4byte	0xe4
 1016 020a 02       		.byte	0x2
 1017 020b 23       		.byte	0x23
 1018 020c 3C       		.uleb128 0x3c
 1019 020d 06       		.uleb128 0x6
 1020 020e AE020000 		.4byte	.LASF40
 1021 0212 05       		.byte	0x5
 1022 0213 C9       		.byte	0xc9
 1023 0214 28050000 		.4byte	0x528
 1024 0218 02       		.byte	0x2
 1025 0219 23       		.byte	0x23
 1026 021a 40       		.uleb128 0x40
 1027 021b 06       		.uleb128 0x6
 1028 021c 60030000 		.4byte	.LASF41
 1029 0220 05       		.byte	0x5
 1030 0221 CD       		.byte	0xcd
 1031 0222 CE000000 		.4byte	0xce
 1032 0226 02       		.byte	0x2
 1033 0227 23       		.byte	0x23
 1034 0228 44       		.uleb128 0x44
 1035 0229 06       		.uleb128 0x6
 1036 022a 63000000 		.4byte	.LASF42
 1037 022e 05       		.byte	0x5
 1038 022f D3       		.byte	0xd3
 1039 0230 9B020000 		.4byte	0x29b
 1040 0234 02       		.byte	0x2
 1041 0235 23       		.byte	0x23
 1042 0236 48       		.uleb128 0x48
 1043 0237 00       		.byte	0
 1044 0238 08       		.uleb128 0x8
 1045 0239 08       		.byte	0x8
 1046 023a 04       		.byte	0x4
 1047 023b 5A       		.byte	0x5a
 1048 023c 5D020000 		.4byte	0x25d
 1049 0240 06       		.uleb128 0x6
 1050 0241 EA020000 		.4byte	.LASF23
 1051 0245 04       		.byte	0x4
 1052 0246 5B       		.byte	0x5b
 1053 0247 5D020000 		.4byte	0x25d
 1054 024b 02       		.byte	0x2
 1055 024c 23       		.byte	0x23
 1056 024d 00       		.uleb128 0
 1057 024e 06       		.uleb128 0x6
 1058 024f 74020000 		.4byte	.LASF24
 1059 0253 04       		.byte	0x4
 1060 0254 5D       		.byte	0x5d
 1061 0255 5D020000 		.4byte	0x25d
 1062 0259 02       		.byte	0x2
 1063 025a 23       		.byte	0x23
ARM GAS  /tmp/cc2eB1jY.s 			page 20


 1064 025b 04       		.uleb128 0x4
 1065 025c 00       		.byte	0
 1066 025d 09       		.uleb128 0x9
 1067 025e 04       		.byte	0x4
 1068 025f FA000000 		.4byte	0xfa
 1069 0263 04       		.uleb128 0x4
 1070 0264 35020000 		.4byte	.LASF43
 1071 0268 04       		.byte	0x4
 1072 0269 5F       		.byte	0x5f
 1073 026a 38020000 		.4byte	0x238
 1074 026e 08       		.uleb128 0x8
 1075 026f 04       		.byte	0x4
 1076 0270 04       		.byte	0x4
 1077 0271 64       		.byte	0x64
 1078 0272 85020000 		.4byte	0x285
 1079 0276 06       		.uleb128 0x6
 1080 0277 EA020000 		.4byte	.LASF23
 1081 027b 04       		.byte	0x4
 1082 027c 66       		.byte	0x66
 1083 027d 5D020000 		.4byte	0x25d
 1084 0281 02       		.byte	0x2
 1085 0282 23       		.byte	0x23
 1086 0283 00       		.uleb128 0
 1087 0284 00       		.byte	0
 1088 0285 04       		.uleb128 0x4
 1089 0286 CA010000 		.4byte	.LASF44
 1090 028a 04       		.byte	0x4
 1091 028b 69       		.byte	0x69
 1092 028c 6E020000 		.4byte	0x26e
 1093 0290 04       		.uleb128 0x4
 1094 0291 19010000 		.4byte	.LASF45
 1095 0295 06       		.byte	0x6
 1096 0296 DE       		.byte	0xde
 1097 0297 9B020000 		.4byte	0x29b
 1098 029b 0A       		.uleb128 0xa
 1099 029c 04       		.byte	0x4
 1100 029d 04       		.uleb128 0x4
 1101 029e E8010000 		.4byte	.LASF46
 1102 02a2 06       		.byte	0x6
 1103 02a3 E4       		.byte	0xe4
 1104 02a4 89000000 		.4byte	0x89
 1105 02a8 0B       		.uleb128 0xb
 1106 02a9 7B030000 		.4byte	.LASF47
 1107 02ad 24       		.byte	0x24
 1108 02ae 06       		.byte	0x6
 1109 02af 0501     		.2byte	0x105
 1110 02b1 36030000 		.4byte	0x336
 1111 02b5 0C       		.uleb128 0xc
 1112 02b6 723400   		.ascii	"r4\000"
 1113 02b9 06       		.byte	0x6
 1114 02ba 1801     		.2byte	0x118
 1115 02bc 90020000 		.4byte	0x290
 1116 02c0 02       		.byte	0x2
 1117 02c1 23       		.byte	0x23
 1118 02c2 00       		.uleb128 0
 1119 02c3 0C       		.uleb128 0xc
 1120 02c4 723500   		.ascii	"r5\000"
ARM GAS  /tmp/cc2eB1jY.s 			page 21


 1121 02c7 06       		.byte	0x6
 1122 02c8 1901     		.2byte	0x119
 1123 02ca 90020000 		.4byte	0x290
 1124 02ce 02       		.byte	0x2
 1125 02cf 23       		.byte	0x23
 1126 02d0 04       		.uleb128 0x4
 1127 02d1 0C       		.uleb128 0xc
 1128 02d2 723600   		.ascii	"r6\000"
 1129 02d5 06       		.byte	0x6
 1130 02d6 1A01     		.2byte	0x11a
 1131 02d8 90020000 		.4byte	0x290
 1132 02dc 02       		.byte	0x2
 1133 02dd 23       		.byte	0x23
 1134 02de 08       		.uleb128 0x8
 1135 02df 0C       		.uleb128 0xc
 1136 02e0 723700   		.ascii	"r7\000"
 1137 02e3 06       		.byte	0x6
 1138 02e4 1B01     		.2byte	0x11b
 1139 02e6 90020000 		.4byte	0x290
 1140 02ea 02       		.byte	0x2
 1141 02eb 23       		.byte	0x23
 1142 02ec 0C       		.uleb128 0xc
 1143 02ed 0C       		.uleb128 0xc
 1144 02ee 723800   		.ascii	"r8\000"
 1145 02f1 06       		.byte	0x6
 1146 02f2 1C01     		.2byte	0x11c
 1147 02f4 90020000 		.4byte	0x290
 1148 02f8 02       		.byte	0x2
 1149 02f9 23       		.byte	0x23
 1150 02fa 10       		.uleb128 0x10
 1151 02fb 0C       		.uleb128 0xc
 1152 02fc 723900   		.ascii	"r9\000"
 1153 02ff 06       		.byte	0x6
 1154 0300 1D01     		.2byte	0x11d
 1155 0302 90020000 		.4byte	0x290
 1156 0306 02       		.byte	0x2
 1157 0307 23       		.byte	0x23
 1158 0308 14       		.uleb128 0x14
 1159 0309 0C       		.uleb128 0xc
 1160 030a 72313000 		.ascii	"r10\000"
 1161 030e 06       		.byte	0x6
 1162 030f 1E01     		.2byte	0x11e
 1163 0311 90020000 		.4byte	0x290
 1164 0315 02       		.byte	0x2
 1165 0316 23       		.byte	0x23
 1166 0317 18       		.uleb128 0x18
 1167 0318 0C       		.uleb128 0xc
 1168 0319 72313100 		.ascii	"r11\000"
 1169 031d 06       		.byte	0x6
 1170 031e 1F01     		.2byte	0x11f
 1171 0320 90020000 		.4byte	0x290
 1172 0324 02       		.byte	0x2
 1173 0325 23       		.byte	0x23
 1174 0326 1C       		.uleb128 0x1c
 1175 0327 0C       		.uleb128 0xc
 1176 0328 6C7200   		.ascii	"lr\000"
 1177 032b 06       		.byte	0x6
ARM GAS  /tmp/cc2eB1jY.s 			page 22


 1178 032c 2001     		.2byte	0x120
 1179 032e 90020000 		.4byte	0x290
 1180 0332 02       		.byte	0x2
 1181 0333 23       		.byte	0x23
 1182 0334 20       		.uleb128 0x20
 1183 0335 00       		.byte	0
 1184 0336 0B       		.uleb128 0xb
 1185 0337 77010000 		.4byte	.LASF48
 1186 033b 04       		.byte	0x4
 1187 033c 06       		.byte	0x6
 1188 033d 2A01     		.2byte	0x12a
 1189 033f 53030000 		.4byte	0x353
 1190 0343 0C       		.uleb128 0xc
 1191 0344 72313300 		.ascii	"r13\000"
 1192 0348 06       		.byte	0x6
 1193 0349 2B01     		.2byte	0x12b
 1194 034b 53030000 		.4byte	0x353
 1195 034f 02       		.byte	0x2
 1196 0350 23       		.byte	0x23
 1197 0351 00       		.uleb128 0
 1198 0352 00       		.byte	0
 1199 0353 09       		.uleb128 0x9
 1200 0354 04       		.byte	0x4
 1201 0355 A8020000 		.4byte	0x2a8
 1202 0359 04       		.uleb128 0x4
 1203 035a 6B030000 		.4byte	.LASF49
 1204 035e 07       		.byte	0x7
 1205 035f 4E       		.byte	0x4e
 1206 0360 64030000 		.4byte	0x364
 1207 0364 09       		.uleb128 0x9
 1208 0365 04       		.byte	0x4
 1209 0366 6A030000 		.4byte	0x36a
 1210 036a 0D       		.uleb128 0xd
 1211 036b 01       		.byte	0x1
 1212 036c 76030000 		.4byte	0x376
 1213 0370 0E       		.uleb128 0xe
 1214 0371 9B020000 		.4byte	0x29b
 1215 0375 00       		.byte	0
 1216 0376 04       		.uleb128 0x4
 1217 0377 25030000 		.4byte	.LASF50
 1218 037b 07       		.byte	0x7
 1219 037c 53       		.byte	0x53
 1220 037d 81030000 		.4byte	0x381
 1221 0381 05       		.uleb128 0x5
 1222 0382 25030000 		.4byte	.LASF50
 1223 0386 14       		.byte	0x14
 1224 0387 07       		.byte	0x7
 1225 0388 5A       		.byte	0x5a
 1226 0389 D4030000 		.4byte	0x3d4
 1227 038d 06       		.uleb128 0x6
 1228 038e 4F010000 		.4byte	.LASF51
 1229 0392 07       		.byte	0x7
 1230 0393 5B       		.byte	0x5b
 1231 0394 D4030000 		.4byte	0x3d4
 1232 0398 02       		.byte	0x2
 1233 0399 23       		.byte	0x23
 1234 039a 00       		.uleb128 0
ARM GAS  /tmp/cc2eB1jY.s 			page 23


 1235 039b 06       		.uleb128 0x6
 1236 039c 22010000 		.4byte	.LASF52
 1237 03a0 07       		.byte	0x7
 1238 03a1 5D       		.byte	0x5d
 1239 03a2 D4030000 		.4byte	0x3d4
 1240 03a6 02       		.byte	0x2
 1241 03a7 23       		.byte	0x23
 1242 03a8 04       		.uleb128 0x4
 1243 03a9 06       		.uleb128 0x6
 1244 03aa F3010000 		.4byte	.LASF53
 1245 03ae 07       		.byte	0x7
 1246 03af 5F       		.byte	0x5f
 1247 03b0 EF000000 		.4byte	0xef
 1248 03b4 02       		.byte	0x2
 1249 03b5 23       		.byte	0x23
 1250 03b6 08       		.uleb128 0x8
 1251 03b7 06       		.uleb128 0x6
 1252 03b8 1F020000 		.4byte	.LASF54
 1253 03bc 07       		.byte	0x7
 1254 03bd 60       		.byte	0x60
 1255 03be 59030000 		.4byte	0x359
 1256 03c2 02       		.byte	0x2
 1257 03c3 23       		.byte	0x23
 1258 03c4 0C       		.uleb128 0xc
 1259 03c5 06       		.uleb128 0x6
 1260 03c6 8D030000 		.4byte	.LASF55
 1261 03ca 07       		.byte	0x7
 1262 03cb 62       		.byte	0x62
 1263 03cc 9B020000 		.4byte	0x29b
 1264 03d0 02       		.byte	0x2
 1265 03d1 23       		.byte	0x23
 1266 03d2 10       		.uleb128 0x10
 1267 03d3 00       		.byte	0
 1268 03d4 09       		.uleb128 0x9
 1269 03d5 04       		.byte	0x4
 1270 03d6 76030000 		.4byte	0x376
 1271 03da 08       		.uleb128 0x8
 1272 03db 10       		.byte	0x10
 1273 03dc 07       		.byte	0x7
 1274 03dd 6C       		.byte	0x6c
 1275 03de 1B040000 		.4byte	0x41b
 1276 03e2 06       		.uleb128 0x6
 1277 03e3 4F010000 		.4byte	.LASF51
 1278 03e7 07       		.byte	0x7
 1279 03e8 6D       		.byte	0x6d
 1280 03e9 D4030000 		.4byte	0x3d4
 1281 03ed 02       		.byte	0x2
 1282 03ee 23       		.byte	0x23
 1283 03ef 00       		.uleb128 0
 1284 03f0 06       		.uleb128 0x6
 1285 03f1 22010000 		.4byte	.LASF52
 1286 03f5 07       		.byte	0x7
 1287 03f6 6F       		.byte	0x6f
 1288 03f7 D4030000 		.4byte	0x3d4
 1289 03fb 02       		.byte	0x2
 1290 03fc 23       		.byte	0x23
 1291 03fd 04       		.uleb128 0x4
ARM GAS  /tmp/cc2eB1jY.s 			page 24


 1292 03fe 06       		.uleb128 0x6
 1293 03ff F3010000 		.4byte	.LASF53
 1294 0403 07       		.byte	0x7
 1295 0404 71       		.byte	0x71
 1296 0405 EF000000 		.4byte	0xef
 1297 0409 02       		.byte	0x2
 1298 040a 23       		.byte	0x23
 1299 040b 08       		.uleb128 0x8
 1300 040c 06       		.uleb128 0x6
 1301 040d C1030000 		.4byte	.LASF56
 1302 0411 07       		.byte	0x7
 1303 0412 72       		.byte	0x72
 1304 0413 1B040000 		.4byte	0x41b
 1305 0417 02       		.byte	0x2
 1306 0418 23       		.byte	0x23
 1307 0419 0C       		.uleb128 0xc
 1308 041a 00       		.byte	0
 1309 041b 0F       		.uleb128 0xf
 1310 041c EF000000 		.4byte	0xef
 1311 0420 04       		.uleb128 0x4
 1312 0421 CC030000 		.4byte	.LASF57
 1313 0425 07       		.byte	0x7
 1314 0426 73       		.byte	0x73
 1315 0427 DA030000 		.4byte	0x3da
 1316 042b 08       		.uleb128 0x8
 1317 042c 1C       		.byte	0x1c
 1318 042d 08       		.byte	0x8
 1319 042e 57       		.byte	0x57
 1320 042f 88040000 		.4byte	0x488
 1321 0433 06       		.uleb128 0x6
 1322 0434 1D030000 		.4byte	.LASF58
 1323 0438 08       		.byte	0x8
 1324 0439 58       		.byte	0x58
 1325 043a 63020000 		.4byte	0x263
 1326 043e 02       		.byte	0x2
 1327 043f 23       		.byte	0x23
 1328 0440 00       		.uleb128 0
 1329 0441 06       		.uleb128 0x6
 1330 0442 DC020000 		.4byte	.LASF59
 1331 0446 08       		.byte	0x8
 1332 0447 59       		.byte	0x59
 1333 0448 CE000000 		.4byte	0xce
 1334 044c 02       		.byte	0x2
 1335 044d 23       		.byte	0x23
 1336 044e 08       		.uleb128 0x8
 1337 044f 06       		.uleb128 0x6
 1338 0450 2F020000 		.4byte	.LASF60
 1339 0454 08       		.byte	0x8
 1340 0455 5B       		.byte	0x5b
 1341 0456 36030000 		.4byte	0x336
 1342 045a 02       		.byte	0x2
 1343 045b 23       		.byte	0x23
 1344 045c 0C       		.uleb128 0xc
 1345 045d 06       		.uleb128 0x6
 1346 045e 11010000 		.4byte	.LASF61
 1347 0462 08       		.byte	0x8
 1348 0463 5E       		.byte	0x5e
ARM GAS  /tmp/cc2eB1jY.s 			page 25


 1349 0464 5D020000 		.4byte	0x25d
 1350 0468 02       		.byte	0x2
 1351 0469 23       		.byte	0x23
 1352 046a 10       		.uleb128 0x10
 1353 046b 06       		.uleb128 0x6
 1354 046c 57020000 		.4byte	.LASF62
 1355 0470 08       		.byte	0x8
 1356 0471 5F       		.byte	0x5f
 1357 0472 5D020000 		.4byte	0x25d
 1358 0476 02       		.byte	0x2
 1359 0477 23       		.byte	0x23
 1360 0478 14       		.uleb128 0x14
 1361 0479 06       		.uleb128 0x6
 1362 047a 4D020000 		.4byte	.LASF63
 1363 047e 08       		.byte	0x8
 1364 047f 62       		.byte	0x62
 1365 0480 5D020000 		.4byte	0x25d
 1366 0484 02       		.byte	0x2
 1367 0485 23       		.byte	0x23
 1368 0486 18       		.uleb128 0x18
 1369 0487 00       		.byte	0
 1370 0488 04       		.uleb128 0x4
 1371 0489 9B030000 		.4byte	.LASF64
 1372 048d 08       		.byte	0x8
 1373 048e 64       		.byte	0x64
 1374 048f 2B040000 		.4byte	0x42b
 1375 0493 05       		.uleb128 0x5
 1376 0494 E2010000 		.4byte	.LASF65
 1377 0498 10       		.byte	0x10
 1378 0499 09       		.byte	0x9
 1379 049a 25       		.byte	0x25
 1380 049b CA040000 		.4byte	0x4ca
 1381 049f 06       		.uleb128 0x6
 1382 04a0 6B000000 		.4byte	.LASF66
 1383 04a4 09       		.byte	0x9
 1384 04a5 26       		.byte	0x26
 1385 04a6 63020000 		.4byte	0x263
 1386 04aa 02       		.byte	0x2
 1387 04ab 23       		.byte	0x23
 1388 04ac 00       		.uleb128 0
 1389 04ad 06       		.uleb128 0x6
 1390 04ae D3030000 		.4byte	.LASF67
 1391 04b2 09       		.byte	0x9
 1392 04b3 28       		.byte	0x28
 1393 04b4 5D020000 		.4byte	0x25d
 1394 04b8 02       		.byte	0x2
 1395 04b9 23       		.byte	0x23
 1396 04ba 08       		.uleb128 0x8
 1397 04bb 06       		.uleb128 0x6
 1398 04bc 4F030000 		.4byte	.LASF68
 1399 04c0 09       		.byte	0x9
 1400 04c1 2A       		.byte	0x2a
 1401 04c2 CA040000 		.4byte	0x4ca
 1402 04c6 02       		.byte	0x2
 1403 04c7 23       		.byte	0x23
 1404 04c8 0C       		.uleb128 0xc
 1405 04c9 00       		.byte	0
ARM GAS  /tmp/cc2eB1jY.s 			page 26


 1406 04ca 09       		.uleb128 0x9
 1407 04cb 04       		.byte	0x4
 1408 04cc 93040000 		.4byte	0x493
 1409 04d0 04       		.uleb128 0x4
 1410 04d1 E2010000 		.4byte	.LASF65
 1411 04d5 09       		.byte	0x9
 1412 04d6 2C       		.byte	0x2c
 1413 04d7 93040000 		.4byte	0x493
 1414 04db 10       		.uleb128 0x10
 1415 04dc 04       		.byte	0x4
 1416 04dd 05       		.byte	0x5
 1417 04de 8F       		.byte	0x8f
 1418 04df 10050000 		.4byte	0x510
 1419 04e3 11       		.uleb128 0x11
 1420 04e4 0B000000 		.4byte	.LASF69
 1421 04e8 05       		.byte	0x5
 1422 04e9 96       		.byte	0x96
 1423 04ea D9000000 		.4byte	0xd9
 1424 04ee 11       		.uleb128 0x11
 1425 04ef 39000000 		.4byte	.LASF70
 1426 04f3 05       		.byte	0x5
 1427 04f4 9D       		.byte	0x9d
 1428 04f5 D9000000 		.4byte	0xd9
 1429 04f9 11       		.uleb128 0x11
 1430 04fa B3030000 		.4byte	.LASF71
 1431 04fe 05       		.byte	0x5
 1432 04ff A4       		.byte	0xa4
 1433 0500 9B020000 		.4byte	0x29b
 1434 0504 11       		.uleb128 0x11
 1435 0505 E3020000 		.4byte	.LASF72
 1436 0509 05       		.byte	0x5
 1437 050a AB       		.byte	0xab
 1438 050b E4000000 		.4byte	0xe4
 1439 050f 00       		.byte	0
 1440 0510 09       		.uleb128 0x9
 1441 0511 04       		.byte	0x4
 1442 0512 16050000 		.4byte	0x516
 1443 0516 12       		.uleb128 0x12
 1444 0517 1B050000 		.4byte	0x51b
 1445 051b 03       		.uleb128 0x3
 1446 051c 01       		.byte	0x1
 1447 051d 08       		.byte	0x8
 1448 051e 32030000 		.4byte	.LASF73
 1449 0522 09       		.uleb128 0x9
 1450 0523 04       		.byte	0x4
 1451 0524 9D020000 		.4byte	0x29d
 1452 0528 09       		.uleb128 0x9
 1453 0529 04       		.byte	0x4
 1454 052a D0040000 		.4byte	0x4d0
 1455 052e 05       		.uleb128 0x5
 1456 052f 00030000 		.4byte	.LASF74
 1457 0533 10       		.byte	0x10
 1458 0534 0A       		.byte	0xa
 1459 0535 3B       		.byte	0x3b
 1460 0536 73050000 		.4byte	0x573
 1461 053a 06       		.uleb128 0x6
 1462 053b 72010000 		.4byte	.LASF75
ARM GAS  /tmp/cc2eB1jY.s 			page 27


 1463 053f 0A       		.byte	0xa
 1464 0540 3C       		.byte	0x3c
 1465 0541 10050000 		.4byte	0x510
 1466 0545 02       		.byte	0x2
 1467 0546 23       		.byte	0x23
 1468 0547 00       		.uleb128 0
 1469 0548 06       		.uleb128 0x6
 1470 0549 42020000 		.4byte	.LASF76
 1471 054d 0A       		.byte	0xa
 1472 054e 3D       		.byte	0x3d
 1473 054f 75050000 		.4byte	0x575
 1474 0553 02       		.byte	0x2
 1475 0554 23       		.byte	0x23
 1476 0555 04       		.uleb128 0x4
 1477 0556 06       		.uleb128 0x6
 1478 0557 69010000 		.4byte	.LASF77
 1479 055b 0A       		.byte	0xa
 1480 055c 3E       		.byte	0x3e
 1481 055d 75050000 		.4byte	0x575
 1482 0561 02       		.byte	0x2
 1483 0562 23       		.byte	0x23
 1484 0563 08       		.uleb128 0x8
 1485 0564 06       		.uleb128 0x6
 1486 0565 7B020000 		.4byte	.LASF78
 1487 0569 0A       		.byte	0xa
 1488 056a 3F       		.byte	0x3f
 1489 056b 75050000 		.4byte	0x575
 1490 056f 02       		.byte	0x2
 1491 0570 23       		.byte	0x23
 1492 0571 0C       		.uleb128 0xc
 1493 0572 00       		.byte	0
 1494 0573 13       		.uleb128 0x13
 1495 0574 01       		.byte	0x1
 1496 0575 09       		.uleb128 0x9
 1497 0576 04       		.byte	0x4
 1498 0577 73050000 		.4byte	0x573
 1499 057b 14       		.uleb128 0x14
 1500 057c 37030000 		.4byte	.LASF93
 1501 0580 01       		.byte	0x1
 1502 0581 BD       		.byte	0xbd
 1503 0582 01       		.byte	0x1
 1504 0583 01       		.byte	0x1
 1505 0584 94050000 		.4byte	0x594
 1506 0588 15       		.uleb128 0x15
 1507 0589 48020000 		.4byte	.LASF94
 1508 058d 01       		.byte	0x1
 1509 058e BE       		.byte	0xbe
 1510 058f EF000000 		.4byte	0xef
 1511 0593 00       		.byte	0
 1512 0594 16       		.uleb128 0x16
 1513 0595 67020000 		.4byte	.LASF80
 1514 0599 01       		.byte	0x1
 1515 059a 7E       		.byte	0x7e
 1516 059b 01       		.byte	0x1
 1517 059c 00000000 		.4byte	.LFB10
 1518 05a0 54010000 		.4byte	.LFE10
 1519 05a4 00000000 		.4byte	.LLST0
ARM GAS  /tmp/cc2eB1jY.s 			page 28


 1520 05a8 3A060000 		.4byte	0x63a
 1521 05ac 17       		.uleb128 0x17
 1522 05ad 06000000 		.4byte	.LASF79
 1523 05b1 01       		.byte	0x1
 1524 05b2 7F       		.byte	0x7f
 1525 05b3 CE000000 		.4byte	0xce
 1526 05b7 20000000 		.4byte	.LLST1
 1527 05bb 18       		.uleb128 0x18
 1528 05bc 703100   		.ascii	"p1\000"
 1529 05bf 01       		.byte	0x1
 1530 05c0 7F       		.byte	0x7f
 1531 05c1 CE000000 		.4byte	0xce
 1532 05c5 42000000 		.4byte	.LLST2
 1533 05c9 19       		.uleb128 0x19
 1534 05ca 6A000000 		.4byte	.LBB2
 1535 05ce 70000000 		.4byte	.LBE2
 1536 05d2 E6050000 		.4byte	0x5e6
 1537 05d6 18       		.uleb128 0x18
 1538 05d7 746D7000 		.ascii	"tmp\000"
 1539 05db 01       		.byte	0x1
 1540 05dc 8F       		.byte	0x8f
 1541 05dd 70000000 		.4byte	0x70
 1542 05e1 8C000000 		.4byte	.LLST3
 1543 05e5 00       		.byte	0
 1544 05e6 19       		.uleb128 0x19
 1545 05e7 80000000 		.4byte	.LBB3
 1546 05eb 86000000 		.4byte	.LBE3
 1547 05ef 03060000 		.4byte	0x603
 1548 05f3 18       		.uleb128 0x18
 1549 05f4 746D7000 		.ascii	"tmp\000"
 1550 05f8 01       		.byte	0x1
 1551 05f9 91       		.byte	0x91
 1552 05fa 70000000 		.4byte	0x70
 1553 05fe 9F000000 		.4byte	.LLST4
 1554 0602 00       		.byte	0
 1555 0603 19       		.uleb128 0x19
 1556 0604 34010000 		.4byte	.LBB4
 1557 0608 3A010000 		.4byte	.LBE4
 1558 060c 20060000 		.4byte	0x620
 1559 0610 18       		.uleb128 0x18
 1560 0611 746D7000 		.ascii	"tmp\000"
 1561 0615 01       		.byte	0x1
 1562 0616 A7       		.byte	0xa7
 1563 0617 70000000 		.4byte	0x70
 1564 061b B2000000 		.4byte	.LLST5
 1565 061f 00       		.byte	0
 1566 0620 1A       		.uleb128 0x1a
 1567 0621 48010000 		.4byte	.LBB5
 1568 0625 54010000 		.4byte	.LBE5
 1569 0629 18       		.uleb128 0x18
 1570 062a 746D7000 		.ascii	"tmp\000"
 1571 062e 01       		.byte	0x1
 1572 062f AA       		.byte	0xaa
 1573 0630 70000000 		.4byte	0x70
 1574 0634 C5000000 		.4byte	.LLST6
 1575 0638 00       		.byte	0
 1576 0639 00       		.byte	0
ARM GAS  /tmp/cc2eB1jY.s 			page 29


 1577 063a 16       		.uleb128 0x16
 1578 063b 92010000 		.4byte	.LASF81
 1579 063f 01       		.byte	0x1
 1580 0640 5E       		.byte	0x5e
 1581 0641 01       		.byte	0x1
 1582 0642 00000000 		.4byte	.LFB9
 1583 0646 FE000000 		.4byte	.LFE9
 1584 064a E3000000 		.4byte	.LLST7
 1585 064e 85060000 		.4byte	0x685
 1586 0652 1B       		.uleb128 0x1b
 1587 0653 00000000 		.4byte	.Ldebug_ranges0+0
 1588 0657 6B060000 		.4byte	0x66b
 1589 065b 18       		.uleb128 0x18
 1590 065c 746D7000 		.ascii	"tmp\000"
 1591 0660 01       		.byte	0x1
 1592 0661 65       		.byte	0x65
 1593 0662 70000000 		.4byte	0x70
 1594 0666 0F010000 		.4byte	.LLST8
 1595 066a 00       		.byte	0
 1596 066b 1A       		.uleb128 0x1a
 1597 066c DA000000 		.4byte	.LBB8
 1598 0670 E0000000 		.4byte	.LBE8
 1599 0674 18       		.uleb128 0x18
 1600 0675 746D7000 		.ascii	"tmp\000"
 1601 0679 01       		.byte	0x1
 1602 067a 67       		.byte	0x67
 1603 067b 70000000 		.4byte	0x70
 1604 067f 22010000 		.4byte	.LLST9
 1605 0683 00       		.byte	0
 1606 0684 00       		.byte	0
 1607 0685 1C       		.uleb128 0x1c
 1608 0686 2A010000 		.4byte	.LASF95
 1609 068a 01       		.byte	0x1
 1610 068b 42       		.byte	0x42
 1611 068c 01       		.byte	0x1
 1612 068d 00000000 		.4byte	.LFB8
 1613 0691 E8000000 		.4byte	.LFE8
 1614 0695 35010000 		.4byte	.LLST10
 1615 0699 1D       		.uleb128 0x1d
 1616 069a 8B020000 		.4byte	.LASF96
 1617 069e 01       		.byte	0x1
 1618 069f 3C       		.byte	0x3c
 1619 06a0 01       		.byte	0x1
 1620 06a1 D9000000 		.4byte	0xd9
 1621 06a5 00000000 		.4byte	.LFB7
 1622 06a9 0C000000 		.4byte	.LFE7
 1623 06ad 61010000 		.4byte	.LLST11
 1624 06b1 C3060000 		.4byte	0x6c3
 1625 06b5 1E       		.uleb128 0x1e
 1626 06b6 7000     		.ascii	"p\000"
 1627 06b8 01       		.byte	0x1
 1628 06b9 3C       		.byte	0x3c
 1629 06ba 9B020000 		.4byte	0x29b
 1630 06be 81010000 		.4byte	.LLST12
 1631 06c2 00       		.byte	0
 1632 06c3 1F       		.uleb128 0x1f
 1633 06c4 7B050000 		.4byte	0x57b
ARM GAS  /tmp/cc2eB1jY.s 			page 30


 1634 06c8 00000000 		.4byte	.LFB11
 1635 06cc 78000000 		.4byte	.LFE11
 1636 06d0 94010000 		.4byte	.LLST13
 1637 06d4 01070000 		.4byte	0x701
 1638 06d8 20       		.uleb128 0x20
 1639 06d9 88050000 		.4byte	0x588
 1640 06dd B4010000 		.4byte	.LLST14
 1641 06e1 21       		.uleb128 0x21
 1642 06e2 7B050000 		.4byte	0x57b
 1643 06e6 3C000000 		.4byte	.LBB11
 1644 06ea 18000000 		.4byte	.Ldebug_ranges0+0x18
 1645 06ee 01       		.byte	0x1
 1646 06ef BD       		.byte	0xbd
 1647 06f0 22       		.uleb128 0x22
 1648 06f1 30000000 		.4byte	.Ldebug_ranges0+0x30
 1649 06f5 20       		.uleb128 0x20
 1650 06f6 88050000 		.4byte	0x588
 1651 06fa D2010000 		.4byte	.LLST15
 1652 06fe 00       		.byte	0
 1653 06ff 00       		.byte	0
 1654 0700 00       		.byte	0
 1655 0701 23       		.uleb128 0x23
 1656 0702 1B000000 		.4byte	.LASF82
 1657 0706 07       		.byte	0x7
 1658 0707 D1       		.byte	0xd1
 1659 0708 20040000 		.4byte	0x420
 1660 070c 01       		.byte	0x1
 1661 070d 01       		.byte	0x1
 1662 070e 23       		.uleb128 0x23
 1663 070f A5030000 		.4byte	.LASF83
 1664 0713 08       		.byte	0x8
 1665 0714 68       		.byte	0x68
 1666 0715 88040000 		.4byte	0x488
 1667 0719 01       		.byte	0x1
 1668 071a 01       		.byte	0x1
 1669 071b 24       		.uleb128 0x24
 1670 071c 5D020000 		.4byte	0x25d
 1671 0720 2B070000 		.4byte	0x72b
 1672 0724 25       		.uleb128 0x25
 1673 0725 30000000 		.4byte	0x30
 1674 0729 04       		.byte	0x4
 1675 072a 00       		.byte	0
 1676 072b 23       		.uleb128 0x23
 1677 072c D4020000 		.4byte	.LASF84
 1678 0730 0A       		.byte	0xa
 1679 0731 A5       		.byte	0xa5
 1680 0732 1B070000 		.4byte	0x71b
 1681 0736 01       		.byte	0x1
 1682 0737 01       		.byte	0x1
 1683 0738 24       		.uleb128 0x24
 1684 0739 9B020000 		.4byte	0x29b
 1685 073d 43070000 		.4byte	0x743
 1686 0741 26       		.uleb128 0x26
 1687 0742 00       		.byte	0
 1688 0743 27       		.uleb128 0x27
 1689 0744 776100   		.ascii	"wa\000"
 1690 0747 0A       		.byte	0xa
ARM GAS  /tmp/cc2eB1jY.s 			page 31


 1691 0748 A7       		.byte	0xa7
 1692 0749 4F070000 		.4byte	0x74f
 1693 074d 01       		.byte	0x1
 1694 074e 01       		.byte	0x1
 1695 074f 12       		.uleb128 0x12
 1696 0750 38070000 		.4byte	0x738
 1697 0754 23       		.uleb128 0x23
 1698 0755 FB010000 		.4byte	.LASF85
 1699 0759 01       		.byte	0x1
 1700 075a 4D       		.byte	0x4d
 1701 075b 61070000 		.4byte	0x761
 1702 075f 01       		.byte	0x1
 1703 0760 01       		.byte	0x1
 1704 0761 12       		.uleb128 0x12
 1705 0762 2E050000 		.4byte	0x52e
 1706 0766 23       		.uleb128 0x23
 1707 0767 04020000 		.4byte	.LASF86
 1708 076b 01       		.byte	0x1
 1709 076c 6D       		.byte	0x6d
 1710 076d 61070000 		.4byte	0x761
 1711 0771 01       		.byte	0x1
 1712 0772 01       		.byte	0x1
 1713 0773 23       		.uleb128 0x23
 1714 0774 0D020000 		.4byte	.LASF87
 1715 0778 01       		.byte	0x1
 1716 0779 AE       		.byte	0xae
 1717 077a 61070000 		.4byte	0x761
 1718 077e 01       		.byte	0x1
 1719 077f 01       		.byte	0x1
 1720 0780 23       		.uleb128 0x23
 1721 0781 16020000 		.4byte	.LASF88
 1722 0785 01       		.byte	0x1
 1723 0786 D7       		.byte	0xd7
 1724 0787 61070000 		.4byte	0x761
 1725 078b 01       		.byte	0x1
 1726 078c 01       		.byte	0x1
 1727 078d 23       		.uleb128 0x23
 1728 078e 1B000000 		.4byte	.LASF82
 1729 0792 07       		.byte	0x7
 1730 0793 D1       		.byte	0xd1
 1731 0794 20040000 		.4byte	0x420
 1732 0798 01       		.byte	0x1
 1733 0799 01       		.byte	0x1
 1734 079a 23       		.uleb128 0x23
 1735 079b A5030000 		.4byte	.LASF83
 1736 079f 08       		.byte	0x8
 1737 07a0 68       		.byte	0x68
 1738 07a1 88040000 		.4byte	0x488
 1739 07a5 01       		.byte	0x1
 1740 07a6 01       		.byte	0x1
 1741 07a7 23       		.uleb128 0x23
 1742 07a8 D4020000 		.4byte	.LASF84
 1743 07ac 0A       		.byte	0xa
 1744 07ad A5       		.byte	0xa5
 1745 07ae 1B070000 		.4byte	0x71b
 1746 07b2 01       		.byte	0x1
 1747 07b3 01       		.byte	0x1
ARM GAS  /tmp/cc2eB1jY.s 			page 32


 1748 07b4 27       		.uleb128 0x27
 1749 07b5 776100   		.ascii	"wa\000"
 1750 07b8 0A       		.byte	0xa
 1751 07b9 A7       		.byte	0xa7
 1752 07ba C0070000 		.4byte	0x7c0
 1753 07be 01       		.byte	0x1
 1754 07bf 01       		.byte	0x1
 1755 07c0 12       		.uleb128 0x12
 1756 07c1 38070000 		.4byte	0x738
 1757 07c5 28       		.uleb128 0x28
 1758 07c6 FB010000 		.4byte	.LASF85
 1759 07ca 01       		.byte	0x1
 1760 07cb 4D       		.byte	0x4d
 1761 07cc 61070000 		.4byte	0x761
 1762 07d0 01       		.byte	0x1
 1763 07d1 05       		.byte	0x5
 1764 07d2 03       		.byte	0x3
 1765 07d3 00000000 		.4byte	testthd1
 1766 07d7 28       		.uleb128 0x28
 1767 07d8 04020000 		.4byte	.LASF86
 1768 07dc 01       		.byte	0x1
 1769 07dd 6D       		.byte	0x6d
 1770 07de 61070000 		.4byte	0x761
 1771 07e2 01       		.byte	0x1
 1772 07e3 05       		.byte	0x5
 1773 07e4 03       		.byte	0x3
 1774 07e5 00000000 		.4byte	testthd2
 1775 07e9 28       		.uleb128 0x28
 1776 07ea 0D020000 		.4byte	.LASF87
 1777 07ee 01       		.byte	0x1
 1778 07ef AE       		.byte	0xae
 1779 07f0 61070000 		.4byte	0x761
 1780 07f4 01       		.byte	0x1
 1781 07f5 05       		.byte	0x5
 1782 07f6 03       		.byte	0x3
 1783 07f7 00000000 		.4byte	testthd3
 1784 07fb 28       		.uleb128 0x28
 1785 07fc 16020000 		.4byte	.LASF88
 1786 0800 01       		.byte	0x1
 1787 0801 D7       		.byte	0xd7
 1788 0802 61070000 		.4byte	0x761
 1789 0806 01       		.byte	0x1
 1790 0807 05       		.byte	0x5
 1791 0808 03       		.byte	0x3
 1792 0809 00000000 		.4byte	testthd4
 1793 080d 24       		.uleb128 0x24
 1794 080e 1D080000 		.4byte	0x81d
 1795 0812 1D080000 		.4byte	0x81d
 1796 0816 25       		.uleb128 0x25
 1797 0817 30000000 		.4byte	0x30
 1798 081b 04       		.byte	0x4
 1799 081c 00       		.byte	0
 1800 081d 09       		.uleb128 0x9
 1801 081e 04       		.byte	0x4
 1802 081f 61070000 		.4byte	0x761
 1803 0823 28       		.uleb128 0x28
 1804 0824 44030000 		.4byte	.LASF89
ARM GAS  /tmp/cc2eB1jY.s 			page 33


 1805 0828 01       		.byte	0x1
 1806 0829 E1       		.byte	0xe1
 1807 082a 35080000 		.4byte	0x835
 1808 082e 01       		.byte	0x1
 1809 082f 05       		.byte	0x5
 1810 0830 03       		.byte	0x3
 1811 0831 00000000 		.4byte	patternthd
 1812 0835 12       		.uleb128 0x12
 1813 0836 0D080000 		.4byte	0x80d
 1814 083a 00       		.byte	0
 1815              		.section	.debug_abbrev,"",%progbits
 1816              	.Ldebug_abbrev0:
 1817 0000 01       		.uleb128 0x1
 1818 0001 11       		.uleb128 0x11
 1819 0002 01       		.byte	0x1
 1820 0003 25       		.uleb128 0x25
 1821 0004 0E       		.uleb128 0xe
 1822 0005 13       		.uleb128 0x13
 1823 0006 0B       		.uleb128 0xb
 1824 0007 03       		.uleb128 0x3
 1825 0008 0E       		.uleb128 0xe
 1826 0009 1B       		.uleb128 0x1b
 1827 000a 0E       		.uleb128 0xe
 1828 000b 11       		.uleb128 0x11
 1829 000c 01       		.uleb128 0x1
 1830 000d 52       		.uleb128 0x52
 1831 000e 01       		.uleb128 0x1
 1832 000f 55       		.uleb128 0x55
 1833 0010 06       		.uleb128 0x6
 1834 0011 10       		.uleb128 0x10
 1835 0012 06       		.uleb128 0x6
 1836 0013 00       		.byte	0
 1837 0014 00       		.byte	0
 1838 0015 02       		.uleb128 0x2
 1839 0016 24       		.uleb128 0x24
 1840 0017 00       		.byte	0
 1841 0018 0B       		.uleb128 0xb
 1842 0019 0B       		.uleb128 0xb
 1843 001a 3E       		.uleb128 0x3e
 1844 001b 0B       		.uleb128 0xb
 1845 001c 03       		.uleb128 0x3
 1846 001d 08       		.uleb128 0x8
 1847 001e 00       		.byte	0
 1848 001f 00       		.byte	0
 1849 0020 03       		.uleb128 0x3
 1850 0021 24       		.uleb128 0x24
 1851 0022 00       		.byte	0
 1852 0023 0B       		.uleb128 0xb
 1853 0024 0B       		.uleb128 0xb
 1854 0025 3E       		.uleb128 0x3e
 1855 0026 0B       		.uleb128 0xb
 1856 0027 03       		.uleb128 0x3
 1857 0028 0E       		.uleb128 0xe
 1858 0029 00       		.byte	0
 1859 002a 00       		.byte	0
 1860 002b 04       		.uleb128 0x4
 1861 002c 16       		.uleb128 0x16
ARM GAS  /tmp/cc2eB1jY.s 			page 34


 1862 002d 00       		.byte	0
 1863 002e 03       		.uleb128 0x3
 1864 002f 0E       		.uleb128 0xe
 1865 0030 3A       		.uleb128 0x3a
 1866 0031 0B       		.uleb128 0xb
 1867 0032 3B       		.uleb128 0x3b
 1868 0033 0B       		.uleb128 0xb
 1869 0034 49       		.uleb128 0x49
 1870 0035 13       		.uleb128 0x13
 1871 0036 00       		.byte	0
 1872 0037 00       		.byte	0
 1873 0038 05       		.uleb128 0x5
 1874 0039 13       		.uleb128 0x13
 1875 003a 01       		.byte	0x1
 1876 003b 03       		.uleb128 0x3
 1877 003c 0E       		.uleb128 0xe
 1878 003d 0B       		.uleb128 0xb
 1879 003e 0B       		.uleb128 0xb
 1880 003f 3A       		.uleb128 0x3a
 1881 0040 0B       		.uleb128 0xb
 1882 0041 3B       		.uleb128 0x3b
 1883 0042 0B       		.uleb128 0xb
 1884 0043 01       		.uleb128 0x1
 1885 0044 13       		.uleb128 0x13
 1886 0045 00       		.byte	0
 1887 0046 00       		.byte	0
 1888 0047 06       		.uleb128 0x6
 1889 0048 0D       		.uleb128 0xd
 1890 0049 00       		.byte	0
 1891 004a 03       		.uleb128 0x3
 1892 004b 0E       		.uleb128 0xe
 1893 004c 3A       		.uleb128 0x3a
 1894 004d 0B       		.uleb128 0xb
 1895 004e 3B       		.uleb128 0x3b
 1896 004f 0B       		.uleb128 0xb
 1897 0050 49       		.uleb128 0x49
 1898 0051 13       		.uleb128 0x13
 1899 0052 38       		.uleb128 0x38
 1900 0053 0A       		.uleb128 0xa
 1901 0054 00       		.byte	0
 1902 0055 00       		.byte	0
 1903 0056 07       		.uleb128 0x7
 1904 0057 0D       		.uleb128 0xd
 1905 0058 00       		.byte	0
 1906 0059 03       		.uleb128 0x3
 1907 005a 08       		.uleb128 0x8
 1908 005b 3A       		.uleb128 0x3a
 1909 005c 0B       		.uleb128 0xb
 1910 005d 3B       		.uleb128 0x3b
 1911 005e 0B       		.uleb128 0xb
 1912 005f 49       		.uleb128 0x49
 1913 0060 13       		.uleb128 0x13
 1914 0061 38       		.uleb128 0x38
 1915 0062 0A       		.uleb128 0xa
 1916 0063 00       		.byte	0
 1917 0064 00       		.byte	0
 1918 0065 08       		.uleb128 0x8
ARM GAS  /tmp/cc2eB1jY.s 			page 35


 1919 0066 13       		.uleb128 0x13
 1920 0067 01       		.byte	0x1
 1921 0068 0B       		.uleb128 0xb
 1922 0069 0B       		.uleb128 0xb
 1923 006a 3A       		.uleb128 0x3a
 1924 006b 0B       		.uleb128 0xb
 1925 006c 3B       		.uleb128 0x3b
 1926 006d 0B       		.uleb128 0xb
 1927 006e 01       		.uleb128 0x1
 1928 006f 13       		.uleb128 0x13
 1929 0070 00       		.byte	0
 1930 0071 00       		.byte	0
 1931 0072 09       		.uleb128 0x9
 1932 0073 0F       		.uleb128 0xf
 1933 0074 00       		.byte	0
 1934 0075 0B       		.uleb128 0xb
 1935 0076 0B       		.uleb128 0xb
 1936 0077 49       		.uleb128 0x49
 1937 0078 13       		.uleb128 0x13
 1938 0079 00       		.byte	0
 1939 007a 00       		.byte	0
 1940 007b 0A       		.uleb128 0xa
 1941 007c 0F       		.uleb128 0xf
 1942 007d 00       		.byte	0
 1943 007e 0B       		.uleb128 0xb
 1944 007f 0B       		.uleb128 0xb
 1945 0080 00       		.byte	0
 1946 0081 00       		.byte	0
 1947 0082 0B       		.uleb128 0xb
 1948 0083 13       		.uleb128 0x13
 1949 0084 01       		.byte	0x1
 1950 0085 03       		.uleb128 0x3
 1951 0086 0E       		.uleb128 0xe
 1952 0087 0B       		.uleb128 0xb
 1953 0088 0B       		.uleb128 0xb
 1954 0089 3A       		.uleb128 0x3a
 1955 008a 0B       		.uleb128 0xb
 1956 008b 3B       		.uleb128 0x3b
 1957 008c 05       		.uleb128 0x5
 1958 008d 01       		.uleb128 0x1
 1959 008e 13       		.uleb128 0x13
 1960 008f 00       		.byte	0
 1961 0090 00       		.byte	0
 1962 0091 0C       		.uleb128 0xc
 1963 0092 0D       		.uleb128 0xd
 1964 0093 00       		.byte	0
 1965 0094 03       		.uleb128 0x3
 1966 0095 08       		.uleb128 0x8
 1967 0096 3A       		.uleb128 0x3a
 1968 0097 0B       		.uleb128 0xb
 1969 0098 3B       		.uleb128 0x3b
 1970 0099 05       		.uleb128 0x5
 1971 009a 49       		.uleb128 0x49
 1972 009b 13       		.uleb128 0x13
 1973 009c 38       		.uleb128 0x38
 1974 009d 0A       		.uleb128 0xa
 1975 009e 00       		.byte	0
ARM GAS  /tmp/cc2eB1jY.s 			page 36


 1976 009f 00       		.byte	0
 1977 00a0 0D       		.uleb128 0xd
 1978 00a1 15       		.uleb128 0x15
 1979 00a2 01       		.byte	0x1
 1980 00a3 27       		.uleb128 0x27
 1981 00a4 0C       		.uleb128 0xc
 1982 00a5 01       		.uleb128 0x1
 1983 00a6 13       		.uleb128 0x13
 1984 00a7 00       		.byte	0
 1985 00a8 00       		.byte	0
 1986 00a9 0E       		.uleb128 0xe
 1987 00aa 05       		.uleb128 0x5
 1988 00ab 00       		.byte	0
 1989 00ac 49       		.uleb128 0x49
 1990 00ad 13       		.uleb128 0x13
 1991 00ae 00       		.byte	0
 1992 00af 00       		.byte	0
 1993 00b0 0F       		.uleb128 0xf
 1994 00b1 35       		.uleb128 0x35
 1995 00b2 00       		.byte	0
 1996 00b3 49       		.uleb128 0x49
 1997 00b4 13       		.uleb128 0x13
 1998 00b5 00       		.byte	0
 1999 00b6 00       		.byte	0
 2000 00b7 10       		.uleb128 0x10
 2001 00b8 17       		.uleb128 0x17
 2002 00b9 01       		.byte	0x1
 2003 00ba 0B       		.uleb128 0xb
 2004 00bb 0B       		.uleb128 0xb
 2005 00bc 3A       		.uleb128 0x3a
 2006 00bd 0B       		.uleb128 0xb
 2007 00be 3B       		.uleb128 0x3b
 2008 00bf 0B       		.uleb128 0xb
 2009 00c0 01       		.uleb128 0x1
 2010 00c1 13       		.uleb128 0x13
 2011 00c2 00       		.byte	0
 2012 00c3 00       		.byte	0
 2013 00c4 11       		.uleb128 0x11
 2014 00c5 0D       		.uleb128 0xd
 2015 00c6 00       		.byte	0
 2016 00c7 03       		.uleb128 0x3
 2017 00c8 0E       		.uleb128 0xe
 2018 00c9 3A       		.uleb128 0x3a
 2019 00ca 0B       		.uleb128 0xb
 2020 00cb 3B       		.uleb128 0x3b
 2021 00cc 0B       		.uleb128 0xb
 2022 00cd 49       		.uleb128 0x49
 2023 00ce 13       		.uleb128 0x13
 2024 00cf 00       		.byte	0
 2025 00d0 00       		.byte	0
 2026 00d1 12       		.uleb128 0x12
 2027 00d2 26       		.uleb128 0x26
 2028 00d3 00       		.byte	0
 2029 00d4 49       		.uleb128 0x49
 2030 00d5 13       		.uleb128 0x13
 2031 00d6 00       		.byte	0
 2032 00d7 00       		.byte	0
ARM GAS  /tmp/cc2eB1jY.s 			page 37


 2033 00d8 13       		.uleb128 0x13
 2034 00d9 15       		.uleb128 0x15
 2035 00da 00       		.byte	0
 2036 00db 27       		.uleb128 0x27
 2037 00dc 0C       		.uleb128 0xc
 2038 00dd 00       		.byte	0
 2039 00de 00       		.byte	0
 2040 00df 14       		.uleb128 0x14
 2041 00e0 2E       		.uleb128 0x2e
 2042 00e1 01       		.byte	0x1
 2043 00e2 03       		.uleb128 0x3
 2044 00e3 0E       		.uleb128 0xe
 2045 00e4 3A       		.uleb128 0x3a
 2046 00e5 0B       		.uleb128 0xb
 2047 00e6 3B       		.uleb128 0x3b
 2048 00e7 0B       		.uleb128 0xb
 2049 00e8 27       		.uleb128 0x27
 2050 00e9 0C       		.uleb128 0xc
 2051 00ea 20       		.uleb128 0x20
 2052 00eb 0B       		.uleb128 0xb
 2053 00ec 01       		.uleb128 0x1
 2054 00ed 13       		.uleb128 0x13
 2055 00ee 00       		.byte	0
 2056 00ef 00       		.byte	0
 2057 00f0 15       		.uleb128 0x15
 2058 00f1 34       		.uleb128 0x34
 2059 00f2 00       		.byte	0
 2060 00f3 03       		.uleb128 0x3
 2061 00f4 0E       		.uleb128 0xe
 2062 00f5 3A       		.uleb128 0x3a
 2063 00f6 0B       		.uleb128 0xb
 2064 00f7 3B       		.uleb128 0x3b
 2065 00f8 0B       		.uleb128 0xb
 2066 00f9 49       		.uleb128 0x49
 2067 00fa 13       		.uleb128 0x13
 2068 00fb 00       		.byte	0
 2069 00fc 00       		.byte	0
 2070 00fd 16       		.uleb128 0x16
 2071 00fe 2E       		.uleb128 0x2e
 2072 00ff 01       		.byte	0x1
 2073 0100 03       		.uleb128 0x3
 2074 0101 0E       		.uleb128 0xe
 2075 0102 3A       		.uleb128 0x3a
 2076 0103 0B       		.uleb128 0xb
 2077 0104 3B       		.uleb128 0x3b
 2078 0105 0B       		.uleb128 0xb
 2079 0106 27       		.uleb128 0x27
 2080 0107 0C       		.uleb128 0xc
 2081 0108 11       		.uleb128 0x11
 2082 0109 01       		.uleb128 0x1
 2083 010a 12       		.uleb128 0x12
 2084 010b 01       		.uleb128 0x1
 2085 010c 40       		.uleb128 0x40
 2086 010d 06       		.uleb128 0x6
 2087 010e 01       		.uleb128 0x1
 2088 010f 13       		.uleb128 0x13
 2089 0110 00       		.byte	0
ARM GAS  /tmp/cc2eB1jY.s 			page 38


 2090 0111 00       		.byte	0
 2091 0112 17       		.uleb128 0x17
 2092 0113 34       		.uleb128 0x34
 2093 0114 00       		.byte	0
 2094 0115 03       		.uleb128 0x3
 2095 0116 0E       		.uleb128 0xe
 2096 0117 3A       		.uleb128 0x3a
 2097 0118 0B       		.uleb128 0xb
 2098 0119 3B       		.uleb128 0x3b
 2099 011a 0B       		.uleb128 0xb
 2100 011b 49       		.uleb128 0x49
 2101 011c 13       		.uleb128 0x13
 2102 011d 02       		.uleb128 0x2
 2103 011e 06       		.uleb128 0x6
 2104 011f 00       		.byte	0
 2105 0120 00       		.byte	0
 2106 0121 18       		.uleb128 0x18
 2107 0122 34       		.uleb128 0x34
 2108 0123 00       		.byte	0
 2109 0124 03       		.uleb128 0x3
 2110 0125 08       		.uleb128 0x8
 2111 0126 3A       		.uleb128 0x3a
 2112 0127 0B       		.uleb128 0xb
 2113 0128 3B       		.uleb128 0x3b
 2114 0129 0B       		.uleb128 0xb
 2115 012a 49       		.uleb128 0x49
 2116 012b 13       		.uleb128 0x13
 2117 012c 02       		.uleb128 0x2
 2118 012d 06       		.uleb128 0x6
 2119 012e 00       		.byte	0
 2120 012f 00       		.byte	0
 2121 0130 19       		.uleb128 0x19
 2122 0131 0B       		.uleb128 0xb
 2123 0132 01       		.byte	0x1
 2124 0133 11       		.uleb128 0x11
 2125 0134 01       		.uleb128 0x1
 2126 0135 12       		.uleb128 0x12
 2127 0136 01       		.uleb128 0x1
 2128 0137 01       		.uleb128 0x1
 2129 0138 13       		.uleb128 0x13
 2130 0139 00       		.byte	0
 2131 013a 00       		.byte	0
 2132 013b 1A       		.uleb128 0x1a
 2133 013c 0B       		.uleb128 0xb
 2134 013d 01       		.byte	0x1
 2135 013e 11       		.uleb128 0x11
 2136 013f 01       		.uleb128 0x1
 2137 0140 12       		.uleb128 0x12
 2138 0141 01       		.uleb128 0x1
 2139 0142 00       		.byte	0
 2140 0143 00       		.byte	0
 2141 0144 1B       		.uleb128 0x1b
 2142 0145 0B       		.uleb128 0xb
 2143 0146 01       		.byte	0x1
 2144 0147 55       		.uleb128 0x55
 2145 0148 06       		.uleb128 0x6
 2146 0149 01       		.uleb128 0x1
ARM GAS  /tmp/cc2eB1jY.s 			page 39


 2147 014a 13       		.uleb128 0x13
 2148 014b 00       		.byte	0
 2149 014c 00       		.byte	0
 2150 014d 1C       		.uleb128 0x1c
 2151 014e 2E       		.uleb128 0x2e
 2152 014f 00       		.byte	0
 2153 0150 03       		.uleb128 0x3
 2154 0151 0E       		.uleb128 0xe
 2155 0152 3A       		.uleb128 0x3a
 2156 0153 0B       		.uleb128 0xb
 2157 0154 3B       		.uleb128 0x3b
 2158 0155 0B       		.uleb128 0xb
 2159 0156 27       		.uleb128 0x27
 2160 0157 0C       		.uleb128 0xc
 2161 0158 11       		.uleb128 0x11
 2162 0159 01       		.uleb128 0x1
 2163 015a 12       		.uleb128 0x12
 2164 015b 01       		.uleb128 0x1
 2165 015c 40       		.uleb128 0x40
 2166 015d 06       		.uleb128 0x6
 2167 015e 00       		.byte	0
 2168 015f 00       		.byte	0
 2169 0160 1D       		.uleb128 0x1d
 2170 0161 2E       		.uleb128 0x2e
 2171 0162 01       		.byte	0x1
 2172 0163 03       		.uleb128 0x3
 2173 0164 0E       		.uleb128 0xe
 2174 0165 3A       		.uleb128 0x3a
 2175 0166 0B       		.uleb128 0xb
 2176 0167 3B       		.uleb128 0x3b
 2177 0168 0B       		.uleb128 0xb
 2178 0169 27       		.uleb128 0x27
 2179 016a 0C       		.uleb128 0xc
 2180 016b 49       		.uleb128 0x49
 2181 016c 13       		.uleb128 0x13
 2182 016d 11       		.uleb128 0x11
 2183 016e 01       		.uleb128 0x1
 2184 016f 12       		.uleb128 0x12
 2185 0170 01       		.uleb128 0x1
 2186 0171 40       		.uleb128 0x40
 2187 0172 06       		.uleb128 0x6
 2188 0173 01       		.uleb128 0x1
 2189 0174 13       		.uleb128 0x13
 2190 0175 00       		.byte	0
 2191 0176 00       		.byte	0
 2192 0177 1E       		.uleb128 0x1e
 2193 0178 05       		.uleb128 0x5
 2194 0179 00       		.byte	0
 2195 017a 03       		.uleb128 0x3
 2196 017b 08       		.uleb128 0x8
 2197 017c 3A       		.uleb128 0x3a
 2198 017d 0B       		.uleb128 0xb
 2199 017e 3B       		.uleb128 0x3b
 2200 017f 0B       		.uleb128 0xb
 2201 0180 49       		.uleb128 0x49
 2202 0181 13       		.uleb128 0x13
 2203 0182 02       		.uleb128 0x2
ARM GAS  /tmp/cc2eB1jY.s 			page 40


 2204 0183 06       		.uleb128 0x6
 2205 0184 00       		.byte	0
 2206 0185 00       		.byte	0
 2207 0186 1F       		.uleb128 0x1f
 2208 0187 2E       		.uleb128 0x2e
 2209 0188 01       		.byte	0x1
 2210 0189 31       		.uleb128 0x31
 2211 018a 13       		.uleb128 0x13
 2212 018b 11       		.uleb128 0x11
 2213 018c 01       		.uleb128 0x1
 2214 018d 12       		.uleb128 0x12
 2215 018e 01       		.uleb128 0x1
 2216 018f 40       		.uleb128 0x40
 2217 0190 06       		.uleb128 0x6
 2218 0191 01       		.uleb128 0x1
 2219 0192 13       		.uleb128 0x13
 2220 0193 00       		.byte	0
 2221 0194 00       		.byte	0
 2222 0195 20       		.uleb128 0x20
 2223 0196 34       		.uleb128 0x34
 2224 0197 00       		.byte	0
 2225 0198 31       		.uleb128 0x31
 2226 0199 13       		.uleb128 0x13
 2227 019a 02       		.uleb128 0x2
 2228 019b 06       		.uleb128 0x6
 2229 019c 00       		.byte	0
 2230 019d 00       		.byte	0
 2231 019e 21       		.uleb128 0x21
 2232 019f 1D       		.uleb128 0x1d
 2233 01a0 01       		.byte	0x1
 2234 01a1 31       		.uleb128 0x31
 2235 01a2 13       		.uleb128 0x13
 2236 01a3 52       		.uleb128 0x52
 2237 01a4 01       		.uleb128 0x1
 2238 01a5 55       		.uleb128 0x55
 2239 01a6 06       		.uleb128 0x6
 2240 01a7 58       		.uleb128 0x58
 2241 01a8 0B       		.uleb128 0xb
 2242 01a9 59       		.uleb128 0x59
 2243 01aa 0B       		.uleb128 0xb
 2244 01ab 00       		.byte	0
 2245 01ac 00       		.byte	0
 2246 01ad 22       		.uleb128 0x22
 2247 01ae 0B       		.uleb128 0xb
 2248 01af 01       		.byte	0x1
 2249 01b0 55       		.uleb128 0x55
 2250 01b1 06       		.uleb128 0x6
 2251 01b2 00       		.byte	0
 2252 01b3 00       		.byte	0
 2253 01b4 23       		.uleb128 0x23
 2254 01b5 34       		.uleb128 0x34
 2255 01b6 00       		.byte	0
 2256 01b7 03       		.uleb128 0x3
 2257 01b8 0E       		.uleb128 0xe
 2258 01b9 3A       		.uleb128 0x3a
 2259 01ba 0B       		.uleb128 0xb
 2260 01bb 3B       		.uleb128 0x3b
ARM GAS  /tmp/cc2eB1jY.s 			page 41


 2261 01bc 0B       		.uleb128 0xb
 2262 01bd 49       		.uleb128 0x49
 2263 01be 13       		.uleb128 0x13
 2264 01bf 3F       		.uleb128 0x3f
 2265 01c0 0C       		.uleb128 0xc
 2266 01c1 3C       		.uleb128 0x3c
 2267 01c2 0C       		.uleb128 0xc
 2268 01c3 00       		.byte	0
 2269 01c4 00       		.byte	0
 2270 01c5 24       		.uleb128 0x24
 2271 01c6 01       		.uleb128 0x1
 2272 01c7 01       		.byte	0x1
 2273 01c8 49       		.uleb128 0x49
 2274 01c9 13       		.uleb128 0x13
 2275 01ca 01       		.uleb128 0x1
 2276 01cb 13       		.uleb128 0x13
 2277 01cc 00       		.byte	0
 2278 01cd 00       		.byte	0
 2279 01ce 25       		.uleb128 0x25
 2280 01cf 21       		.uleb128 0x21
 2281 01d0 00       		.byte	0
 2282 01d1 49       		.uleb128 0x49
 2283 01d2 13       		.uleb128 0x13
 2284 01d3 2F       		.uleb128 0x2f
 2285 01d4 0B       		.uleb128 0xb
 2286 01d5 00       		.byte	0
 2287 01d6 00       		.byte	0
 2288 01d7 26       		.uleb128 0x26
 2289 01d8 21       		.uleb128 0x21
 2290 01d9 00       		.byte	0
 2291 01da 00       		.byte	0
 2292 01db 00       		.byte	0
 2293 01dc 27       		.uleb128 0x27
 2294 01dd 34       		.uleb128 0x34
 2295 01de 00       		.byte	0
 2296 01df 03       		.uleb128 0x3
 2297 01e0 08       		.uleb128 0x8
 2298 01e1 3A       		.uleb128 0x3a
 2299 01e2 0B       		.uleb128 0xb
 2300 01e3 3B       		.uleb128 0x3b
 2301 01e4 0B       		.uleb128 0xb
 2302 01e5 49       		.uleb128 0x49
 2303 01e6 13       		.uleb128 0x13
 2304 01e7 3F       		.uleb128 0x3f
 2305 01e8 0C       		.uleb128 0xc
 2306 01e9 3C       		.uleb128 0x3c
 2307 01ea 0C       		.uleb128 0xc
 2308 01eb 00       		.byte	0
 2309 01ec 00       		.byte	0
 2310 01ed 28       		.uleb128 0x28
 2311 01ee 34       		.uleb128 0x34
 2312 01ef 00       		.byte	0
 2313 01f0 03       		.uleb128 0x3
 2314 01f1 0E       		.uleb128 0xe
 2315 01f2 3A       		.uleb128 0x3a
 2316 01f3 0B       		.uleb128 0xb
 2317 01f4 3B       		.uleb128 0x3b
ARM GAS  /tmp/cc2eB1jY.s 			page 42


 2318 01f5 0B       		.uleb128 0xb
 2319 01f6 49       		.uleb128 0x49
 2320 01f7 13       		.uleb128 0x13
 2321 01f8 3F       		.uleb128 0x3f
 2322 01f9 0C       		.uleb128 0xc
 2323 01fa 02       		.uleb128 0x2
 2324 01fb 0A       		.uleb128 0xa
 2325 01fc 00       		.byte	0
 2326 01fd 00       		.byte	0
 2327 01fe 00       		.byte	0
 2328              		.section	.debug_loc,"",%progbits
 2329              	.Ldebug_loc0:
 2330              	.LLST0:
 2331 0000 00000000 		.4byte	.LFB10
 2332 0004 02000000 		.4byte	.LCFI0
 2333 0008 0200     		.2byte	0x2
 2334 000a 7D       		.byte	0x7d
 2335 000b 00       		.sleb128 0
 2336 000c 02000000 		.4byte	.LCFI0
 2337 0010 54010000 		.4byte	.LFE10
 2338 0014 0200     		.2byte	0x2
 2339 0016 7D       		.byte	0x7d
 2340 0017 18       		.sleb128 24
 2341 0018 00000000 		.4byte	0
 2342 001c 00000000 		.4byte	0
 2343              	.LLST1:
 2344 0020 08000000 		.4byte	.LVL0
 2345 0024 0F000000 		.4byte	.LVL1-1
 2346 0028 0500     		.2byte	0x5
 2347 002a 76       		.byte	0x76
 2348 002b 18       		.sleb128 24
 2349 002c 06       		.byte	0x6
 2350 002d 23       		.byte	0x23
 2351 002e 08       		.uleb128 0x8
 2352 002f 0F000000 		.4byte	.LVL1-1
 2353 0033 54010000 		.4byte	.LFE10
 2354 0037 0100     		.2byte	0x1
 2355 0039 54       		.byte	0x54
 2356 003a 00000000 		.4byte	0
 2357 003e 00000000 		.4byte	0
 2358              	.LLST2:
 2359 0042 1A000000 		.4byte	.LVL2
 2360 0046 1C000000 		.4byte	.LVL3
 2361 004a 0100     		.2byte	0x1
 2362 004c 50       		.byte	0x50
 2363 004d 1C000000 		.4byte	.LVL3
 2364 0051 22000000 		.4byte	.LVL4
 2365 0055 0100     		.2byte	0x1
 2366 0057 57       		.byte	0x57
 2367 0058 24000000 		.4byte	.LVL5
 2368 005c 40000000 		.4byte	.LVL6
 2369 0060 0100     		.2byte	0x1
 2370 0062 57       		.byte	0x57
 2371 0063 40000000 		.4byte	.LVL6
 2372 0067 44000000 		.4byte	.LVL7
 2373 006b 0100     		.2byte	0x1
 2374 006d 50       		.byte	0x50
ARM GAS  /tmp/cc2eB1jY.s 			page 43


 2375 006e A8000000 		.4byte	.LVL14
 2376 0072 AC000000 		.4byte	.LVL15
 2377 0076 0100     		.2byte	0x1
 2378 0078 50       		.byte	0x50
 2379 0079 EE000000 		.4byte	.LVL16
 2380 007d F0000000 		.4byte	.LVL17
 2381 0081 0100     		.2byte	0x1
 2382 0083 50       		.byte	0x50
 2383 0084 00000000 		.4byte	0
 2384 0088 00000000 		.4byte	0
 2385              	.LLST3:
 2386 008c 70000000 		.4byte	.LVL9
 2387 0090 73000000 		.4byte	.LVL10-1
 2388 0094 0100     		.2byte	0x1
 2389 0096 53       		.byte	0x53
 2390 0097 00000000 		.4byte	0
 2391 009b 00000000 		.4byte	0
 2392              	.LLST4:
 2393 009f 86000000 		.4byte	.LVL12
 2394 00a3 96000000 		.4byte	.LVL13
 2395 00a7 0100     		.2byte	0x1
 2396 00a9 53       		.byte	0x53
 2397 00aa 00000000 		.4byte	0
 2398 00ae 00000000 		.4byte	0
 2399              	.LLST5:
 2400 00b2 3A010000 		.4byte	.LVL19
 2401 00b6 3D010000 		.4byte	.LVL20-1
 2402 00ba 0100     		.2byte	0x1
 2403 00bc 53       		.byte	0x53
 2404 00bd 00000000 		.4byte	0
 2405 00c1 00000000 		.4byte	0
 2406              	.LLST6:
 2407 00c5 22000000 		.4byte	.LVL4
 2408 00c9 24000000 		.4byte	.LVL5
 2409 00cd 0100     		.2byte	0x1
 2410 00cf 53       		.byte	0x53
 2411 00d0 4E010000 		.4byte	.LVL21
 2412 00d4 54010000 		.4byte	.LFE10
 2413 00d8 0100     		.2byte	0x1
 2414 00da 53       		.byte	0x53
 2415 00db 00000000 		.4byte	0
 2416 00df 00000000 		.4byte	0
 2417              	.LLST7:
 2418 00e3 00000000 		.4byte	.LFB9
 2419 00e7 02000000 		.4byte	.LCFI1
 2420 00eb 0200     		.2byte	0x2
 2421 00ed 7D       		.byte	0x7d
 2422 00ee 00       		.sleb128 0
 2423 00ef 02000000 		.4byte	.LCFI1
 2424 00f3 24000000 		.4byte	.LCFI2
 2425 00f7 0200     		.2byte	0x2
 2426 00f9 7D       		.byte	0x7d
 2427 00fa 14       		.sleb128 20
 2428 00fb 24000000 		.4byte	.LCFI2
 2429 00ff FE000000 		.4byte	.LFE9
 2430 0103 0200     		.2byte	0x2
 2431 0105 7D       		.byte	0x7d
ARM GAS  /tmp/cc2eB1jY.s 			page 44


 2432 0106 20       		.sleb128 32
 2433 0107 00000000 		.4byte	0
 2434 010b 00000000 		.4byte	0
 2435              	.LLST8:
 2436 010f B4000000 		.4byte	.LVL23
 2437 0113 B7000000 		.4byte	.LVL24-1
 2438 0117 0100     		.2byte	0x1
 2439 0119 53       		.byte	0x53
 2440 011a 00000000 		.4byte	0
 2441 011e 00000000 		.4byte	0
 2442              	.LLST9:
 2443 0122 E0000000 		.4byte	.LVL26
 2444 0126 E5000000 		.4byte	.LVL27-1
 2445 012a 0100     		.2byte	0x1
 2446 012c 53       		.byte	0x53
 2447 012d 00000000 		.4byte	0
 2448 0131 00000000 		.4byte	0
 2449              	.LLST10:
 2450 0135 00000000 		.4byte	.LFB8
 2451 0139 02000000 		.4byte	.LCFI3
 2452 013d 0200     		.2byte	0x2
 2453 013f 7D       		.byte	0x7d
 2454 0140 00       		.sleb128 0
 2455 0141 02000000 		.4byte	.LCFI3
 2456 0145 24000000 		.4byte	.LCFI4
 2457 0149 0200     		.2byte	0x2
 2458 014b 7D       		.byte	0x7d
 2459 014c 14       		.sleb128 20
 2460 014d 24000000 		.4byte	.LCFI4
 2461 0151 E8000000 		.4byte	.LFE8
 2462 0155 0200     		.2byte	0x2
 2463 0157 7D       		.byte	0x7d
 2464 0158 20       		.sleb128 32
 2465 0159 00000000 		.4byte	0
 2466 015d 00000000 		.4byte	0
 2467              	.LLST11:
 2468 0161 00000000 		.4byte	.LFB7
 2469 0165 02000000 		.4byte	.LCFI5
 2470 0169 0200     		.2byte	0x2
 2471 016b 7D       		.byte	0x7d
 2472 016c 00       		.sleb128 0
 2473 016d 02000000 		.4byte	.LCFI5
 2474 0171 0C000000 		.4byte	.LFE7
 2475 0175 0200     		.2byte	0x2
 2476 0177 7D       		.byte	0x7d
 2477 0178 08       		.sleb128 8
 2478 0179 00000000 		.4byte	0
 2479 017d 00000000 		.4byte	0
 2480              	.LLST12:
 2481 0181 00000000 		.4byte	.LVL28
 2482 0185 04000000 		.4byte	.LVL29
 2483 0189 0100     		.2byte	0x1
 2484 018b 50       		.byte	0x50
 2485 018c 00000000 		.4byte	0
 2486 0190 00000000 		.4byte	0
 2487              	.LLST13:
 2488 0194 00000000 		.4byte	.LFB11
ARM GAS  /tmp/cc2eB1jY.s 			page 45


 2489 0198 02000000 		.4byte	.LCFI6
 2490 019c 0200     		.2byte	0x2
 2491 019e 7D       		.byte	0x7d
 2492 019f 00       		.sleb128 0
 2493 01a0 02000000 		.4byte	.LCFI6
 2494 01a4 78000000 		.4byte	.LFE11
 2495 01a8 0200     		.2byte	0x2
 2496 01aa 7D       		.byte	0x7d
 2497 01ab 10       		.sleb128 16
 2498 01ac 00000000 		.4byte	0
 2499 01b0 00000000 		.4byte	0
 2500              	.LLST14:
 2501 01b4 0A000000 		.4byte	.LVL30
 2502 01b8 20000000 		.4byte	.LVL31
 2503 01bc 0100     		.2byte	0x1
 2504 01be 55       		.byte	0x55
 2505 01bf 22000000 		.4byte	.LVL32
 2506 01c3 3E000000 		.4byte	.LVL34
 2507 01c7 0100     		.2byte	0x1
 2508 01c9 55       		.byte	0x55
 2509 01ca 00000000 		.4byte	0
 2510 01ce 00000000 		.4byte	0
 2511              	.LLST15:
 2512 01d2 3E000000 		.4byte	.LVL34
 2513 01d6 58000000 		.4byte	.LVL35
 2514 01da 0100     		.2byte	0x1
 2515 01dc 55       		.byte	0x55
 2516 01dd 5C000000 		.4byte	.LVL36
 2517 01e1 78000000 		.4byte	.LFE11
 2518 01e5 0100     		.2byte	0x1
 2519 01e7 54       		.byte	0x54
 2520 01e8 00000000 		.4byte	0
 2521 01ec 00000000 		.4byte	0
 2522              		.section	.debug_aranges,"",%progbits
 2523 0000 3C000000 		.4byte	0x3c
 2524 0004 0200     		.2byte	0x2
 2525 0006 00000000 		.4byte	.Ldebug_info0
 2526 000a 04       		.byte	0x4
 2527 000b 00       		.byte	0
 2528 000c 0000     		.2byte	0
 2529 000e 0000     		.2byte	0
 2530 0010 00000000 		.4byte	.LFB10
 2531 0014 54010000 		.4byte	.LFE10-.LFB10
 2532 0018 00000000 		.4byte	.LFB9
 2533 001c FE000000 		.4byte	.LFE9-.LFB9
 2534 0020 00000000 		.4byte	.LFB8
 2535 0024 E8000000 		.4byte	.LFE8-.LFB8
 2536 0028 00000000 		.4byte	.LFB7
 2537 002c 0C000000 		.4byte	.LFE7-.LFB7
 2538 0030 00000000 		.4byte	.LFB11
 2539 0034 78000000 		.4byte	.LFE11-.LFB11
 2540 0038 00000000 		.4byte	0
 2541 003c 00000000 		.4byte	0
 2542              		.section	.debug_ranges,"",%progbits
 2543              	.Ldebug_ranges0:
 2544 0000 AC000000 		.4byte	.LBB6
 2545 0004 AE000000 		.4byte	.LBE6
ARM GAS  /tmp/cc2eB1jY.s 			page 46


 2546 0008 B0000000 		.4byte	.LBB7
 2547 000c B4000000 		.4byte	.LBE7
 2548 0010 00000000 		.4byte	0
 2549 0014 00000000 		.4byte	0
 2550 0018 3C000000 		.4byte	.LBB11
 2551 001c 6A000000 		.4byte	.LBE11
 2552 0020 6E000000 		.4byte	.LBB14
 2553 0024 78000000 		.4byte	.LBE14
 2554 0028 00000000 		.4byte	0
 2555 002c 00000000 		.4byte	0
 2556 0030 3C000000 		.4byte	.LBB12
 2557 0034 6A000000 		.4byte	.LBE12
 2558 0038 6E000000 		.4byte	.LBB13
 2559 003c 78000000 		.4byte	.LBE13
 2560 0040 00000000 		.4byte	0
 2561 0044 00000000 		.4byte	0
 2562 0048 00000000 		.4byte	.LFB10
 2563 004c 54010000 		.4byte	.LFE10
 2564 0050 00000000 		.4byte	.LFB9
 2565 0054 FE000000 		.4byte	.LFE9
 2566 0058 00000000 		.4byte	.LFB8
 2567 005c E8000000 		.4byte	.LFE8
 2568 0060 00000000 		.4byte	.LFB7
 2569 0064 0C000000 		.4byte	.LFE7
 2570 0068 00000000 		.4byte	.LFB11
 2571 006c 78000000 		.4byte	.LFE11
 2572 0070 00000000 		.4byte	0
 2573 0074 00000000 		.4byte	0
 2574              		.section	.debug_line,"",%progbits
 2575              	.Ldebug_line0:
 2576 0000 24020000 		.section	.debug_str,"MS",%progbits,1
 2576      02006901 
 2576      00000201 
 2576      FB0E0D00 
 2576      01010101 
 2577              	.LASF38:
 2578 0000 705F6D73 		.ascii	"p_msg\000"
 2578      6700
 2579              	.LASF79:
 2580 0006 7072696F 		.ascii	"prio\000"
 2580      00
 2581              	.LASF69:
 2582 000b 7264796D 		.ascii	"rdymsg\000"
 2582      736700
 2583              	.LASF11:
 2584 0012 75696E74 		.ascii	"uint64_t\000"
 2584      36345F74 
 2584      00
 2585              	.LASF82:
 2586 001b 76746C69 		.ascii	"vtlist\000"
 2586      737400
 2587              	.LASF12:
 2588 0022 6C6F6E67 		.ascii	"long long unsigned int\000"
 2588      206C6F6E 
 2588      6720756E 
 2588      7369676E 
 2588      65642069 
ARM GAS  /tmp/cc2eB1jY.s 			page 47


 2589              	.LASF70:
 2590 0039 65786974 		.ascii	"exitcode\000"
 2590      636F6465 
 2590      00
 2591              	.LASF25:
 2592 0042 705F7072 		.ascii	"p_prio\000"
 2592      696F00
 2593              	.LASF10:
 2594 0049 6C6F6E67 		.ascii	"long long int\000"
 2594      206C6F6E 
 2594      6720696E 
 2594      7400
 2595              	.LASF1:
 2596 0057 7369676E 		.ascii	"signed char\000"
 2596      65642063 
 2596      68617200 
 2597              	.LASF42:
 2598 0063 705F6D70 		.ascii	"p_mpool\000"
 2598      6F6F6C00 
 2599              	.LASF66:
 2600 006b 6D5F7175 		.ascii	"m_queue\000"
 2600      65756500 
 2601              	.LASF17:
 2602 0073 74736C69 		.ascii	"tslices_t\000"
 2602      6365735F 
 2602      7400
 2603              	.LASF7:
 2604 007d 6C6F6E67 		.ascii	"long int\000"
 2604      20696E74 
 2604      00
 2605              	.LASF90:
 2606 0086 474E5520 		.ascii	"GNU C 4.6.2 20120613 (release) [ARM/embedded-4_6-br"
 2606      4320342E 
 2606      362E3220 
 2606      32303132 
 2606      30363133 
 2607 00b9 616E6368 		.ascii	"anch revision 188521]\000"
 2607      20726576 
 2607      6973696F 
 2607      6E203138 
 2607      38353231 
 2608              	.LASF92:
 2609 00cf 2F686F6D 		.ascii	"/home/tino/workspace/openrobots/R2P_IR_module/fw\000"
 2609      652F7469 
 2609      6E6F2F77 
 2609      6F726B73 
 2609      70616365 
 2610              	.LASF15:
 2611 0100 74737461 		.ascii	"tstate_t\000"
 2611      74655F74 
 2611      00
 2612              	.LASF27:
 2613 0109 705F6E65 		.ascii	"p_newer\000"
 2613      77657200 
 2614              	.LASF61:
 2615 0111 725F6E65 		.ascii	"r_newer\000"
 2615      77657200 
ARM GAS  /tmp/cc2eB1jY.s 			page 48


 2616              	.LASF45:
 2617 0119 72656761 		.ascii	"regarm_t\000"
 2617      726D5F74 
 2617      00
 2618              	.LASF52:
 2619 0122 76745F70 		.ascii	"vt_prev\000"
 2619      72657600 
 2620              	.LASF95:
 2621 012a 74686431 		.ascii	"thd1_execute\000"
 2621      5F657865 
 2621      63757465 
 2621      00
 2622              	.LASF30:
 2623 0137 705F7374 		.ascii	"p_stklimit\000"
 2623      6B6C696D 
 2623      697400
 2624              	.LASF0:
 2625 0142 756E7369 		.ascii	"unsigned int\000"
 2625      676E6564 
 2625      20696E74 
 2625      00
 2626              	.LASF51:
 2627 014f 76745F6E 		.ascii	"vt_next\000"
 2627      65787400 
 2628              	.LASF9:
 2629 0157 6C6F6E67 		.ascii	"long unsigned int\000"
 2629      20756E73 
 2629      69676E65 
 2629      6420696E 
 2629      7400
 2630              	.LASF77:
 2631 0169 74656172 		.ascii	"teardown\000"
 2631      646F776E 
 2631      00
 2632              	.LASF75:
 2633 0172 6E616D65 		.ascii	"name\000"
 2633      00
 2634              	.LASF48:
 2635 0177 636F6E74 		.ascii	"context\000"
 2635      65787400 
 2636              	.LASF4:
 2637 017f 73686F72 		.ascii	"short unsigned int\000"
 2637      7420756E 
 2637      7369676E 
 2637      65642069 
 2637      6E7400
 2638              	.LASF81:
 2639 0192 74686432 		.ascii	"thd2_execute\000"
 2639      5F657865 
 2639      63757465 
 2639      00
 2640              	.LASF19:
 2641 019f 6D73675F 		.ascii	"msg_t\000"
 2641      7400
 2642              	.LASF91:
 2643 01a5 2E2E2F2E 		.ascii	"../../ChibiOS/test/testthd.c\000"
 2643      2E2F4368 
ARM GAS  /tmp/cc2eB1jY.s 			page 49


 2643      6962694F 
 2643      532F7465 
 2643      73742F74 
 2644              	.LASF14:
 2645 01c2 746D6F64 		.ascii	"tmode_t\000"
 2645      655F7400 
 2646              	.LASF44:
 2647 01ca 54687265 		.ascii	"ThreadsList\000"
 2647      6164734C 
 2647      69737400 
 2648              	.LASF20:
 2649 01d6 6576656E 		.ascii	"eventmask_t\000"
 2649      746D6173 
 2649      6B5F7400 
 2650              	.LASF65:
 2651 01e2 4D757465 		.ascii	"Mutex\000"
 2651      7800
 2652              	.LASF46:
 2653 01e8 73746B61 		.ascii	"stkalign_t\000"
 2653      6C69676E 
 2653      5F7400
 2654              	.LASF53:
 2655 01f3 76745F74 		.ascii	"vt_time\000"
 2655      696D6500 
 2656              	.LASF85:
 2657 01fb 74657374 		.ascii	"testthd1\000"
 2657      74686431 
 2657      00
 2658              	.LASF86:
 2659 0204 74657374 		.ascii	"testthd2\000"
 2659      74686432 
 2659      00
 2660              	.LASF87:
 2661 020d 74657374 		.ascii	"testthd3\000"
 2661      74686433 
 2661      00
 2662              	.LASF88:
 2663 0216 74657374 		.ascii	"testthd4\000"
 2663      74686434 
 2663      00
 2664              	.LASF54:
 2665 021f 76745F66 		.ascii	"vt_func\000"
 2665      756E6300 
 2666              	.LASF28:
 2667 0227 705F6F6C 		.ascii	"p_older\000"
 2667      64657200 
 2668              	.LASF60:
 2669 022f 725F6374 		.ascii	"r_ctx\000"
 2669      7800
 2670              	.LASF43:
 2671 0235 54687265 		.ascii	"ThreadsQueue\000"
 2671      61647351 
 2671      75657565 
 2671      00
 2672              	.LASF76:
 2673 0242 73657475 		.ascii	"setup\000"
 2673      7000
ARM GAS  /tmp/cc2eB1jY.s 			page 50


 2674              	.LASF94:
 2675 0248 74696D65 		.ascii	"time\000"
 2675      00
 2676              	.LASF63:
 2677 024d 725F6375 		.ascii	"r_current\000"
 2677      7272656E 
 2677      7400
 2678              	.LASF62:
 2679 0257 725F6F6C 		.ascii	"r_older\000"
 2679      64657200 
 2680              	.LASF16:
 2681 025f 74726566 		.ascii	"trefs_t\000"
 2681      735F7400 
 2682              	.LASF80:
 2683 0267 74686433 		.ascii	"thd3_execute\000"
 2683      5F657865 
 2683      63757465 
 2683      00
 2684              	.LASF24:
 2685 0274 705F7072 		.ascii	"p_prev\000"
 2685      657600
 2686              	.LASF78:
 2687 027b 65786563 		.ascii	"execute\000"
 2687      75746500 
 2688              	.LASF18:
 2689 0283 74707269 		.ascii	"tprio_t\000"
 2689      6F5F7400 
 2690              	.LASF96:
 2691 028b 74687265 		.ascii	"thread\000"
 2691      616400
 2692              	.LASF13:
 2693 0292 5F426F6F 		.ascii	"_Bool\000"
 2693      6C00
 2694              	.LASF6:
 2695 0298 696E7433 		.ascii	"int32_t\000"
 2695      325F7400 
 2696              	.LASF2:
 2697 02a0 756E7369 		.ascii	"unsigned char\000"
 2697      676E6564 
 2697      20636861 
 2697      7200
 2698              	.LASF40:
 2699 02ae 705F6D74 		.ascii	"p_mtxlist\000"
 2699      786C6973 
 2699      7400
 2700              	.LASF3:
 2701 02b8 73686F72 		.ascii	"short int\000"
 2701      7420696E 
 2701      7400
 2702              	.LASF31:
 2703 02c2 705F7374 		.ascii	"p_state\000"
 2703      61746500 
 2704              	.LASF34:
 2705 02ca 705F7072 		.ascii	"p_preempt\000"
 2705      65656D70 
 2705      7400
 2706              	.LASF84:
ARM GAS  /tmp/cc2eB1jY.s 			page 51


 2707 02d4 74687265 		.ascii	"threads\000"
 2707      61647300 
 2708              	.LASF59:
 2709 02dc 725F7072 		.ascii	"r_prio\000"
 2709      696F00
 2710              	.LASF72:
 2711 02e3 65776D61 		.ascii	"ewmask\000"
 2711      736B00
 2712              	.LASF23:
 2713 02ea 705F6E65 		.ascii	"p_next\000"
 2713      787400
 2714              	.LASF32:
 2715 02f1 705F666C 		.ascii	"p_flags\000"
 2715      61677300 
 2716              	.LASF22:
 2717 02f9 54687265 		.ascii	"Thread\000"
 2717      616400
 2718              	.LASF74:
 2719 0300 74657374 		.ascii	"testcase\000"
 2719      63617365 
 2719      00
 2720              	.LASF39:
 2721 0309 705F6570 		.ascii	"p_epending\000"
 2721      656E6469 
 2721      6E6700
 2722              	.LASF8:
 2723 0314 75696E74 		.ascii	"uint32_t\000"
 2723      33325F74 
 2723      00
 2724              	.LASF58:
 2725 031d 725F7175 		.ascii	"r_queue\000"
 2725      65756500 
 2726              	.LASF50:
 2727 0325 56697274 		.ascii	"VirtualTimer\000"
 2727      75616C54 
 2727      696D6572 
 2727      00
 2728              	.LASF73:
 2729 0332 63686172 		.ascii	"char\000"
 2729      00
 2730              	.LASF93:
 2731 0337 74686434 		.ascii	"thd4_execute\000"
 2731      5F657865 
 2731      63757465 
 2731      00
 2732              	.LASF89:
 2733 0344 70617474 		.ascii	"patternthd\000"
 2733      65726E74 
 2733      686400
 2734              	.LASF68:
 2735 034f 6D5F6E65 		.ascii	"m_next\000"
 2735      787400
 2736              	.LASF21:
 2737 0356 73797374 		.ascii	"systime_t\000"
 2737      696D655F 
 2737      7400
 2738              	.LASF41:
ARM GAS  /tmp/cc2eB1jY.s 			page 52


 2739 0360 705F7265 		.ascii	"p_realprio\000"
 2739      616C7072 
 2739      696F00
 2740              	.LASF49:
 2741 036b 76746675 		.ascii	"vtfunc_t\000"
 2741      6E635F74 
 2741      00
 2742              	.LASF35:
 2743 0374 705F7469 		.ascii	"p_time\000"
 2743      6D6500
 2744              	.LASF47:
 2745 037b 696E7463 		.ascii	"intctx\000"
 2745      747800
 2746              	.LASF37:
 2747 0382 705F6D73 		.ascii	"p_msgqueue\000"
 2747      67717565 
 2747      756500
 2748              	.LASF55:
 2749 038d 76745F70 		.ascii	"vt_par\000"
 2749      617200
 2750              	.LASF33:
 2751 0394 705F7265 		.ascii	"p_refs\000"
 2751      667300
 2752              	.LASF64:
 2753 039b 52656164 		.ascii	"ReadyList\000"
 2753      794C6973 
 2753      7400
 2754              	.LASF83:
 2755 03a5 726C6973 		.ascii	"rlist\000"
 2755      7400
 2756              	.LASF5:
 2757 03ab 75696E74 		.ascii	"uint8_t\000"
 2757      385F7400 
 2758              	.LASF71:
 2759 03b3 77746F62 		.ascii	"wtobjp\000"
 2759      6A7000
 2760              	.LASF29:
 2761 03ba 705F6E61 		.ascii	"p_name\000"
 2761      6D6500
 2762              	.LASF56:
 2763 03c1 76745F73 		.ascii	"vt_systime\000"
 2763      79737469 
 2763      6D6500
 2764              	.LASF57:
 2765 03cc 56544C69 		.ascii	"VTList\000"
 2765      737400
 2766              	.LASF67:
 2767 03d3 6D5F6F77 		.ascii	"m_owner\000"
 2767      6E657200 
 2768              	.LASF26:
 2769 03db 705F6374 		.ascii	"p_ctx\000"
 2769      7800
 2770              	.LASF36:
 2771 03e1 705F7761 		.ascii	"p_waiting\000"
 2771      6974696E 
 2771      6700
 2772              		.ident	"GCC: (GNU Tools for ARM Embedded Processors) 4.6.2 20120613 (release) [ARM/embedded-4_6-br
ARM GAS  /tmp/cc2eB1jY.s 			page 53


ARM GAS  /tmp/cc2eB1jY.s 			page 54


DEFINED SYMBOLS
                            *ABS*:00000000 testthd.c
     /tmp/cc2eB1jY.s:19     .text.thd3_execute:00000000 $t
     /tmp/cc2eB1jY.s:24     .text.thd3_execute:00000000 thd3_execute
     /tmp/cc2eB1jY.s:239    .text.thd3_execute:00000150 $d
     /tmp/cc2eB1jY.s:245    .text.thd2_execute:00000000 $t
     /tmp/cc2eB1jY.s:250    .text.thd2_execute:00000000 thd2_execute
     /tmp/cc2eB1jY.s:534    .text.thread:00000000 thread
     /tmp/cc2eB1jY.s:706    .rodata.str1.4:00000000 .LC0
     /tmp/cc2eB1jY.s:709    .rodata.str1.4:00000004 .LC1
     /tmp/cc2eB1jY.s:712    .rodata.str1.4:00000008 .LC2
     /tmp/cc2eB1jY.s:715    .rodata.str1.4:0000000c .LC3
     /tmp/cc2eB1jY.s:718    .rodata.str1.4:00000010 .LC4
     /tmp/cc2eB1jY.s:721    .rodata.str1.4:00000014 .LC5
     /tmp/cc2eB1jY.s:400    .text.thd1_execute:00000000 $t
     /tmp/cc2eB1jY.s:405    .text.thd1_execute:00000000 thd1_execute
     /tmp/cc2eB1jY.s:529    .text.thread:00000000 $t
     /tmp/cc2eB1jY.s:557    .text.thd4_execute:00000000 $t
     /tmp/cc2eB1jY.s:562    .text.thd4_execute:00000000 thd4_execute
     /tmp/cc2eB1jY.s:647    .text.thd4_execute:00000074 $d
     /tmp/cc2eB1jY.s:698    .rodata.patternthd:00000000 patternthd
     /tmp/cc2eB1jY.s:689    .rodata.testthd4:00000000 testthd4
     /tmp/cc2eB1jY.s:680    .rodata.testthd3:00000000 testthd3
     /tmp/cc2eB1jY.s:671    .rodata.testthd2:00000000 testthd2
     /tmp/cc2eB1jY.s:662    .rodata.testthd1:00000000 testthd1
     /tmp/cc2eB1jY.s:659    .rodata.testthd1:00000000 $d
     /tmp/cc2eB1jY.s:668    .rodata.testthd2:00000000 $d
     /tmp/cc2eB1jY.s:677    .rodata.testthd3:00000000 $d
     /tmp/cc2eB1jY.s:686    .rodata.testthd4:00000000 $d
     /tmp/cc2eB1jY.s:695    .rodata.patternthd:00000000 $d
     /tmp/cc2eB1jY.s:705    .rodata.str1.4:00000000 $d
                     .debug_frame:00000010 $d
     /tmp/cc2eB1jY.s:244    .text.thd3_execute:00000154 $t
     /tmp/cc2eB1jY.s:658    .text.thd4_execute:00000078 $t

UNDEFINED SYMBOLS
chThdSetPriority
_test_assert
dbg_check_lock
dbg_check_unlock
rlist
wa
chThdCreateStatic
threads
chThdCreateI
chThdResume
test_wait_threads
_test_assert_sequence
test_emit_token
test_wait_tick
chThdSleep
_test_assert_time_window
chThdSleepUntil
vtlist
