ARM GAS  /tmp/ccQeRi3A.s 			page 1


   1              		.syntax unified
   2              		.cpu cortex-m3
   3              		.fpu softvfp
   4              		.eabi_attribute 20, 1
   5              		.eabi_attribute 21, 1
   6              		.eabi_attribute 23, 3
   7              		.eabi_attribute 24, 1
   8              		.eabi_attribute 25, 1
   9              		.eabi_attribute 26, 1
  10              		.eabi_attribute 30, 2
  11              		.eabi_attribute 34, 1
  12              		.eabi_attribute 18, 4
  13              		.thumb
  14              		.file	"testqueues.c"
  15              		.text
  16              	.Ltext0:
  17              		.cfi_sections	.debug_frame
  18              		.section	.text.notify,"ax",%progbits
  19              		.align	2
  20              		.p2align 4,,15
  21              		.thumb
  22              		.thumb_func
  23              		.type	notify, %function
  24              	notify:
  25              	.LFB7:
  26              		.file 1 "../../ChibiOS/test/testqueues.c"
  27              		.loc 1 57 0
  28              		.cfi_startproc
  29              		@ args = 0, pretend = 0, frame = 0
  30              		@ frame_needed = 0, uses_anonymous_args = 0
  31              		@ link register save eliminated.
  32              	.LVL0:
  33              		.loc 1 59 0
  34 0000 7047     		bx	lr
  35              		.cfi_endproc
  36              	.LFE7:
  37              		.size	notify, .-notify
  38 0002 00BFAFF3 		.section	.text.thread2,"ax",%progbits
  38      0080AFF3 
  38      0080AFF3 
  38      0080
  39              		.align	2
  40              		.p2align 4,,15
  41              		.thumb
  42              		.thumb_func
  43              		.type	thread2, %function
  44              	thread2:
  45              	.LFB12:
  46              		.loc 1 170 0
  47              		.cfi_startproc
  48              		@ args = 0, pretend = 0, frame = 0
  49              		@ frame_needed = 0, uses_anonymous_args = 0
  50              	.LVL1:
  51              		.loc 1 173 0
  52 0000 40F20000 		movw	r0, #:lower16:.LANCHOR0
  53              	.LVL2:
  54              		.loc 1 170 0
ARM GAS  /tmp/ccQeRi3A.s 			page 2


  55 0004 08B5     		push	{r3, lr}
  56              	.LCFI0:
  57              		.cfi_def_cfa_offset 8
  58              		.cfi_offset 14, -4
  59              		.cfi_offset 3, -8
  60              		.loc 1 173 0
  61 0006 0021     		movs	r1, #0
  62 0008 C822     		movs	r2, #200
  63 000a C0F20000 		movt	r0, #:upper16:.LANCHOR0
  64 000e FFF7FEFF 		bl	chOQPutTimeout
  65              		.loc 1 175 0
  66 0012 0020     		movs	r0, #0
  67 0014 08BD     		pop	{r3, pc}
  68              		.cfi_endproc
  69              	.LFE12:
  70              		.size	thread2, .-thread2
  71 0016 00BFAFF3 		.section	.text.queues2_setup,"ax",%progbits
  71      0080AFF3 
  71      0080
  72              		.align	2
  73              		.p2align 4,,15
  74              		.thumb
  75              		.thumb_func
  76              		.type	queues2_setup, %function
  77              	queues2_setup:
  78              	.LFB11:
  79              		.loc 1 165 0
  80              		.cfi_startproc
  81              		@ args = 0, pretend = 0, frame = 0
  82              		@ frame_needed = 0, uses_anonymous_args = 0
  83 0000 00B5     		push	{lr}
  84              	.LCFI1:
  85              		.cfi_def_cfa_offset 4
  86              		.cfi_offset 14, -4
  87              		.loc 1 167 0
  88 0002 40F20003 		movw	r3, #:lower16:wa
  89 0006 C0F20003 		movt	r3, #:upper16:wa
  90 000a 0022     		movs	r2, #0
  91              		.loc 1 165 0
  92 000c 83B0     		sub	sp, sp, #12
  93              	.LCFI2:
  94              		.cfi_def_cfa_offset 16
  95              		.loc 1 167 0
  96 000e 1968     		ldr	r1, [r3, #0]
  97 0010 40F20000 		movw	r0, #:lower16:.LANCHOR0
  98 0014 40F20003 		movw	r3, #:lower16:notify
  99 0018 0092     		str	r2, [sp, #0]
 100 001a C0F20003 		movt	r3, #:upper16:notify
 101 001e C0F20000 		movt	r0, #:upper16:.LANCHOR0
 102 0022 0422     		movs	r2, #4
 103 0024 FFF7FEFF 		bl	chOQInit
 104              		.loc 1 168 0
 105 0028 03B0     		add	sp, sp, #12
 106 002a 00BD     		pop	{pc}
 107              		.cfi_endproc
 108              	.LFE11:
 109              		.size	queues2_setup, .-queues2_setup
ARM GAS  /tmp/ccQeRi3A.s 			page 3


 110 002c AFF30080 		.section	.text.thread1,"ax",%progbits
 111              		.align	2
 112              		.p2align 4,,15
 113              		.thumb
 114              		.thumb_func
 115              		.type	thread1, %function
 116              	thread1:
 117              	.LFB9:
 118              		.loc 1 83 0
 119              		.cfi_startproc
 120              		@ args = 0, pretend = 0, frame = 0
 121              		@ frame_needed = 0, uses_anonymous_args = 0
 122              	.LVL3:
 123              		.loc 1 86 0
 124 0000 40F20000 		movw	r0, #:lower16:.LANCHOR1
 125              	.LVL4:
 126              		.loc 1 83 0
 127 0004 08B5     		push	{r3, lr}
 128              	.LCFI3:
 129              		.cfi_def_cfa_offset 8
 130              		.cfi_offset 14, -4
 131              		.cfi_offset 3, -8
 132              		.loc 1 86 0
 133 0006 C821     		movs	r1, #200
 134 0008 C0F20000 		movt	r0, #:upper16:.LANCHOR1
 135 000c FFF7FEFF 		bl	chIQGetTimeout
 136              		.loc 1 88 0
 137 0010 0020     		movs	r0, #0
 138 0012 08BD     		pop	{r3, pc}
 139              		.cfi_endproc
 140              	.LFE9:
 141              		.size	thread1, .-thread1
 142 0014 AFF30080 		.section	.text.queues1_setup,"ax",%progbits
 142      AFF30080 
 142      AFF30080 
 143              		.align	2
 144              		.p2align 4,,15
 145              		.thumb
 146              		.thumb_func
 147              		.type	queues1_setup, %function
 148              	queues1_setup:
 149              	.LFB8:
 150              		.loc 1 78 0
 151              		.cfi_startproc
 152              		@ args = 0, pretend = 0, frame = 0
 153              		@ frame_needed = 0, uses_anonymous_args = 0
 154 0000 00B5     		push	{lr}
 155              	.LCFI4:
 156              		.cfi_def_cfa_offset 4
 157              		.cfi_offset 14, -4
 158              		.loc 1 80 0
 159 0002 40F20003 		movw	r3, #:lower16:wa
 160 0006 C0F20003 		movt	r3, #:upper16:wa
 161 000a 0022     		movs	r2, #0
 162              		.loc 1 78 0
 163 000c 83B0     		sub	sp, sp, #12
 164              	.LCFI5:
ARM GAS  /tmp/ccQeRi3A.s 			page 4


 165              		.cfi_def_cfa_offset 16
 166              		.loc 1 80 0
 167 000e 1968     		ldr	r1, [r3, #0]
 168 0010 40F20000 		movw	r0, #:lower16:.LANCHOR1
 169 0014 40F20003 		movw	r3, #:lower16:notify
 170 0018 0092     		str	r2, [sp, #0]
 171 001a C0F20003 		movt	r3, #:upper16:notify
 172 001e C0F20000 		movt	r0, #:upper16:.LANCHOR1
 173 0022 0422     		movs	r2, #4
 174 0024 FFF7FEFF 		bl	chIQInit
 175              		.loc 1 81 0
 176 0028 03B0     		add	sp, sp, #12
 177 002a 00BD     		pop	{pc}
 178              		.cfi_endproc
 179              	.LFE8:
 180              		.size	queues1_setup, .-queues1_setup
 181 002c AFF30080 		.section	.text.queues2_execute,"ax",%progbits
 182              		.align	2
 183              		.p2align 4,,15
 184              		.thumb
 185              		.thumb_func
 186              		.type	queues2_execute, %function
 187              	queues2_execute:
 188              	.LFB13:
 189              		.loc 1 177 0
 190              		.cfi_startproc
 191              		@ args = 0, pretend = 0, frame = 0
 192              		@ frame_needed = 0, uses_anonymous_args = 0
 193 0000 2DE9F041 		push	{r4, r5, r6, r7, r8, lr}
 194              	.LCFI6:
 195              		.cfi_def_cfa_offset 24
 196              		.cfi_offset 14, -4
 197              		.cfi_offset 8, -8
 198              		.cfi_offset 7, -12
 199              		.cfi_offset 6, -16
 200              		.cfi_offset 5, -20
 201              		.cfi_offset 4, -24
 202              	.LBB96:
 203              		.loc 1 182 0
 204 0004 2023     		movs	r3, #32
 205              	.LVL5:
 206              	.LBE96:
 207              		.loc 1 177 0
 208 0006 82B0     		sub	sp, sp, #8
 209              	.LCFI7:
 210              		.cfi_def_cfa_offset 32
 211              	.LBB97:
 212              		.loc 1 182 0
 213              	@ 182 "../../ChibiOS/test/testqueues.c" 1
 214 0008 83F31188 		msr     BASEPRI, r3
 215              	@ 0 "" 2
 216              	.LVL6:
 217              		.thumb
 218              	.LBE97:
 219 000c BE4D     		ldr	r5, .L29
 220 000e FFF7FEFF 		bl	dbg_check_lock
 221              	.LVL7:
ARM GAS  /tmp/ccQeRi3A.s 			page 5


 222 0012 6A69     		ldr	r2, [r5, #20]
 223 0014 AB69     		ldr	r3, [r5, #24]
 224 0016 9A42     		cmp	r2, r3
 225 0018 00F09081 		beq	.L24
 226 001c 0021     		movs	r1, #0
 227              	.L7:
 228              		.loc 1 182 0 is_stmt 0 discriminator 4
 229 001e 0120     		movs	r0, #1
 230 0020 FFF7FEFF 		bl	_test_assert
 231 0024 0646     		mov	r6, r0
 232 0026 0028     		cmp	r0, #0
 233 0028 40F07A81 		bne	.L21
 234              	.LBB98:
 235              	.LBB99:
 236              		.loc 1 182 0
 237 002c FFF7FEFF 		bl	dbg_check_unlock
 238              	.LBB100:
 239 0030 3346     		mov	r3, r6
 240              	.LVL8:
 241              	@ 182 "../../ChibiOS/test/testqueues.c" 1
 242 0032 83F31188 		msr     BASEPRI, r3
 243              	@ 0 "" 2
 244              	.LVL9:
 245              		.thumb
 246              	.LBE100:
 247              		.loc 1 186 0 is_stmt 1
 248 0036 B44C     		ldr	r4, .L29
 249 0038 4121     		movs	r1, #65
 250 003a 2046     		mov	r0, r4
 251 003c 4FF0FF32 		mov	r2, #-1
 252 0040 FFF7FEFF 		bl	chOQPutTimeout
 253              	.LVL10:
 254 0044 4221     		movs	r1, #66
 255 0046 2046     		mov	r0, r4
 256 0048 4FF0FF32 		mov	r2, #-1
 257 004c FFF7FEFF 		bl	chOQPutTimeout
 258              	.LVL11:
 259 0050 4321     		movs	r1, #67
 260 0052 2046     		mov	r0, r4
 261 0054 4FF0FF32 		mov	r2, #-1
 262 0058 FFF7FEFF 		bl	chOQPutTimeout
 263              	.LVL12:
 264 005c 2046     		mov	r0, r4
 265 005e 4421     		movs	r1, #68
 266 0060 4FF0FF32 		mov	r2, #-1
 267 0064 FFF7FEFF 		bl	chOQPutTimeout
 268              	.LVL13:
 269              	.LBB101:
 270              		.loc 1 187 0
 271 0068 2023     		movs	r3, #32
 272              	.LVL14:
 273              	@ 187 "../../ChibiOS/test/testqueues.c" 1
 274 006a 83F31188 		msr     BASEPRI, r3
 275              	@ 0 "" 2
 276              	.LVL15:
 277              		.thumb
 278              	.LBE101:
ARM GAS  /tmp/ccQeRi3A.s 			page 6


 279 006e FFF7FEFF 		bl	dbg_check_lock
 280              	.LVL16:
 281 0072 AD68     		ldr	r5, [r5, #8]
 282 0074 0220     		movs	r0, #2
 283 0076 D5F10101 		rsbs	r1, r5, #1
 284 007a 38BF     		it	cc
 285 007c 0021     		movcc	r1, #0
 286 007e FFF7FEFF 		bl	_test_assert
 287 0082 0546     		mov	r5, r0
 288 0084 0028     		cmp	r0, #0
 289 0086 40F05381 		bne	.L25
 290 008a FFF7FEFF 		bl	dbg_check_unlock
 291              	.LBB102:
 292 008e 2B46     		mov	r3, r5
 293              	.LVL17:
 294              	@ 187 "../../ChibiOS/test/testqueues.c" 1
 295 0090 83F31188 		msr     BASEPRI, r3
 296              	@ 0 "" 2
 297              	.LVL18:
 298              		.thumb
 299              	.LBE102:
 300              	.LBB103:
 301              	.LBB104:
 302              		.loc 1 193 0
 303 0094 2023     		movs	r3, #32
 304              	.LVL19:
 305              	@ 193 "../../ChibiOS/test/testqueues.c" 1
 306 0096 83F31188 		msr     BASEPRI, r3
 307              	@ 0 "" 2
 308              	.LVL20:
 309              		.thumb
 310              	.LBE104:
 311 009a FFF7FEFF 		bl	dbg_check_lock
 312              	.LVL21:
 313              		.loc 1 194 0
 314 009e 2046     		mov	r0, r4
 315 00a0 FFF7FEFF 		bl	chOQGetI
 316 00a4 0646     		mov	r6, r0
 317              	.LVL22:
 318              		.loc 1 195 0
 319 00a6 FFF7FEFF 		bl	dbg_check_unlock
 320              	.LVL23:
 321              	.LBB105:
 322 00aa 2B46     		mov	r3, r5
 323              	.LVL24:
 324              	@ 195 "../../ChibiOS/test/testqueues.c" 1
 325 00ac 83F31188 		msr     BASEPRI, r3
 326              	@ 0 "" 2
 327              	.LVL25:
 328              		.thumb
 329              	.LBE105:
 330              		.loc 1 196 0
 331 00b0 F0B2     		uxtb	r0, r6
 332 00b2 FFF7FEFF 		bl	test_emit_token
 333              	.LVL26:
 334              	.LBB106:
 335              		.loc 1 193 0
ARM GAS  /tmp/ccQeRi3A.s 			page 7


 336 00b6 2023     		movs	r3, #32
 337              	@ 193 "../../ChibiOS/test/testqueues.c" 1
 338 00b8 83F31188 		msr     BASEPRI, r3
 339              	@ 0 "" 2
 340              	.LVL27:
 341              		.thumb
 342              	.LBE106:
 343 00bc FFF7FEFF 		bl	dbg_check_lock
 344              	.LVL28:
 345              		.loc 1 194 0
 346 00c0 2046     		mov	r0, r4
 347 00c2 FFF7FEFF 		bl	chOQGetI
 348 00c6 0646     		mov	r6, r0
 349              	.LVL29:
 350              		.loc 1 195 0
 351 00c8 FFF7FEFF 		bl	dbg_check_unlock
 352              	.LVL30:
 353              	.LBB107:
 354 00cc 2B46     		mov	r3, r5
 355              	@ 195 "../../ChibiOS/test/testqueues.c" 1
 356 00ce 83F31188 		msr     BASEPRI, r3
 357              	@ 0 "" 2
 358              	.LVL31:
 359              		.thumb
 360              	.LBE107:
 361              		.loc 1 196 0
 362 00d2 F0B2     		uxtb	r0, r6
 363 00d4 FFF7FEFF 		bl	test_emit_token
 364              	.LVL32:
 365              	.LBB108:
 366              		.loc 1 193 0
 367 00d8 2023     		movs	r3, #32
 368              	@ 193 "../../ChibiOS/test/testqueues.c" 1
 369 00da 83F31188 		msr     BASEPRI, r3
 370              	@ 0 "" 2
 371              	.LVL33:
 372              		.thumb
 373              	.LBE108:
 374 00de FFF7FEFF 		bl	dbg_check_lock
 375              	.LVL34:
 376              		.loc 1 194 0
 377 00e2 2046     		mov	r0, r4
 378 00e4 FFF7FEFF 		bl	chOQGetI
 379 00e8 0646     		mov	r6, r0
 380              	.LVL35:
 381              		.loc 1 195 0
 382 00ea FFF7FEFF 		bl	dbg_check_unlock
 383              	.LVL36:
 384              	.LBB109:
 385 00ee 2B46     		mov	r3, r5
 386              	@ 195 "../../ChibiOS/test/testqueues.c" 1
 387 00f0 83F31188 		msr     BASEPRI, r3
 388              	@ 0 "" 2
 389              	.LVL37:
 390              		.thumb
 391              	.LBE109:
 392              		.loc 1 196 0
ARM GAS  /tmp/ccQeRi3A.s 			page 8


 393 00f4 F0B2     		uxtb	r0, r6
 394 00f6 FFF7FEFF 		bl	test_emit_token
 395              	.LVL38:
 396              	.LBB110:
 397              		.loc 1 193 0
 398 00fa 2023     		movs	r3, #32
 399              	@ 193 "../../ChibiOS/test/testqueues.c" 1
 400 00fc 83F31188 		msr     BASEPRI, r3
 401              	@ 0 "" 2
 402              	.LVL39:
 403              		.thumb
 404              	.LBE110:
 405 0100 FFF7FEFF 		bl	dbg_check_lock
 406              	.LVL40:
 407              		.loc 1 194 0
 408 0104 2046     		mov	r0, r4
 409 0106 FFF7FEFF 		bl	chOQGetI
 410 010a 0646     		mov	r6, r0
 411              	.LVL41:
 412              		.loc 1 195 0
 413 010c FFF7FEFF 		bl	dbg_check_unlock
 414              	.LVL42:
 415              	.LBB111:
 416 0110 2B46     		mov	r3, r5
 417              	@ 195 "../../ChibiOS/test/testqueues.c" 1
 418 0112 83F31188 		msr     BASEPRI, r3
 419              	@ 0 "" 2
 420              	.LVL43:
 421              		.thumb
 422              	.LBE111:
 423              		.loc 1 196 0
 424 0116 F0B2     		uxtb	r0, r6
 425 0118 FFF7FEFF 		bl	test_emit_token
 426              	.LVL44:
 427              	.LBE103:
 428              	.LBB112:
 429              		.loc 1 198 0
 430 011c 2023     		movs	r3, #32
 431              	.LVL45:
 432              	@ 198 "../../ChibiOS/test/testqueues.c" 1
 433 011e 83F31188 		msr     BASEPRI, r3
 434              	@ 0 "" 2
 435              	.LVL46:
 436              		.thumb
 437              	.LBE112:
 438 0122 FFF7FEFF 		bl	dbg_check_lock
 439              	.LVL47:
 440 0126 6069     		ldr	r0, [r4, #20]
 441 0128 A269     		ldr	r2, [r4, #24]
 442 012a 9042     		cmp	r0, r2
 443 012c 00F00B81 		beq	.L26
 444 0130 2946     		mov	r1, r5
 445              	.L11:
 446 0132 0320     		movs	r0, #3
 447 0134 FFF7FEFF 		bl	_test_assert
 448 0138 0446     		mov	r4, r0
 449 013a 0028     		cmp	r0, #0
ARM GAS  /tmp/ccQeRi3A.s 			page 9


 450 013c 40F0F080 		bne	.L21
 451 0140 FFF7FEFF 		bl	dbg_check_unlock
 452              	.LBB113:
 453 0144 2346     		mov	r3, r4
 454              	.LVL48:
 455              	@ 198 "../../ChibiOS/test/testqueues.c" 1
 456 0146 83F31188 		msr     BASEPRI, r3
 457              	@ 0 "" 2
 458              	.LVL49:
 459              		.thumb
 460              	.LBE113:
 461              		.loc 1 199 0
 462 014a 0420     		movs	r0, #4
 463 014c 6F49     		ldr	r1, .L29+4
 464 014e FFF7FEFF 		bl	_test_assert_sequence
 465              	.LVL50:
 466 0152 0546     		mov	r5, r0
 467 0154 0028     		cmp	r0, #0
 468 0156 40F0E880 		bne	.L6
 469              	.LBB114:
 470              		.loc 1 200 0
 471 015a 2023     		movs	r3, #32
 472              	.LVL51:
 473              	@ 200 "../../ChibiOS/test/testqueues.c" 1
 474 015c 83F31188 		msr     BASEPRI, r3
 475              	@ 0 "" 2
 476              	.LVL52:
 477              		.thumb
 478              	.LBE114:
 479 0160 694C     		ldr	r4, .L29
 480 0162 FFF7FEFF 		bl	dbg_check_lock
 481              	.LVL53:
 482 0166 2046     		mov	r0, r4
 483 0168 FFF7FEFF 		bl	chOQGetI
 484 016c 0330     		adds	r0, r0, #3
 485 016e 14BF     		ite	ne
 486 0170 0021     		movne	r1, #0
 487 0172 0121     		moveq	r1, #1
 488 0174 0520     		movs	r0, #5
 489 0176 FFF7FEFF 		bl	_test_assert
 490 017a 0746     		mov	r7, r0
 491 017c 0028     		cmp	r0, #0
 492 017e 40F0E780 		bne	.L22
 493 0182 FFF7FEFF 		bl	dbg_check_unlock
 494              	.LBB115:
 495 0186 3B46     		mov	r3, r7
 496              	.LVL54:
 497              	@ 200 "../../ChibiOS/test/testqueues.c" 1
 498 0188 83F31188 		msr     BASEPRI, r3
 499              	@ 0 "" 2
 500              	.LVL55:
 501              		.thumb
 502              	.LBE115:
 503              		.loc 1 203 0
 504 018c 604D     		ldr	r5, .L29+8
 505 018e 0822     		movs	r2, #8
 506 0190 6E68     		ldr	r6, [r5, #4]
ARM GAS  /tmp/ccQeRi3A.s 			page 10


 507              	.LVL56:
 508 0192 2046     		mov	r0, r4
 509 0194 3146     		mov	r1, r6
 510 0196 FFF7FEFF 		bl	chOQWriteTimeout
 511              	.LVL57:
 512              		.loc 1 204 0
 513 019a A0F10401 		sub	r1, r0, #4
 514 019e 4B42     		rsbs	r3, r1, #0
 515 01a0 43EB0101 		adc	r1, r3, r1
 516 01a4 0620     		movs	r0, #6
 517              	.LVL58:
 518 01a6 FFF7FEFF 		bl	_test_assert
 519 01aa 8046     		mov	r8, r0
 520 01ac 0028     		cmp	r0, #0
 521 01ae 40F0BC80 		bne	.L6
 522              	.LBB116:
 523              		.loc 1 205 0
 524 01b2 2023     		movs	r3, #32
 525              	.LVL59:
 526              	@ 205 "../../ChibiOS/test/testqueues.c" 1
 527 01b4 83F31188 		msr     BASEPRI, r3
 528              	@ 0 "" 2
 529              	.LVL60:
 530              		.thumb
 531              	.LBE116:
 532 01b8 FFF7FEFF 		bl	dbg_check_lock
 533              	.LVL61:
 534 01bc A768     		ldr	r7, [r4, #8]
 535 01be 0720     		movs	r0, #7
 536 01c0 D7F10101 		rsbs	r1, r7, #1
 537 01c4 38BF     		it	cc
 538 01c6 0021     		movcc	r1, #0
 539 01c8 FFF7FEFF 		bl	_test_assert
 540 01cc 0746     		mov	r7, r0
 541 01ce 0028     		cmp	r0, #0
 542 01d0 40F0C480 		bne	.L27
 543 01d4 FFF7FEFF 		bl	dbg_check_unlock
 544              	.LBB117:
 545 01d8 3B46     		mov	r3, r7
 546              	.LVL62:
 547              	@ 205 "../../ChibiOS/test/testqueues.c" 1
 548 01da 83F31188 		msr     BASEPRI, r3
 549              	@ 0 "" 2
 550              	.LVL63:
 551              		.thumb
 552              	.LBE117:
 553              		.loc 1 206 0
 554 01de 2868     		ldr	r0, [r5, #0]
 555 01e0 4C4D     		ldr	r5, .L29+12
 556 01e2 A969     		ldr	r1, [r5, #24]
 557 01e4 8B68     		ldr	r3, [r1, #8]
 558              	.LVL64:
 559 01e6 4FF40471 		mov	r1, #528
 560 01ea 5A1C     		adds	r2, r3, #1
 561 01ec 4A4B     		ldr	r3, .L29+16
 562 01ee 0097     		str	r7, [sp, #0]
 563 01f0 FFF7FEFF 		bl	chThdCreateStatic
ARM GAS  /tmp/ccQeRi3A.s 			page 11


 564 01f4 494A     		ldr	r2, .L29+20
 565              	.LBB118:
 566              		.loc 1 207 0
 567 01f6 2023     		movs	r3, #32
 568              	.LVL65:
 569              	.LBE118:
 570              		.loc 1 206 0
 571 01f8 1060     		str	r0, [r2, #0]
 572              	.LBB119:
 573              		.loc 1 207 0
 574              	@ 207 "../../ChibiOS/test/testqueues.c" 1
 575 01fa 83F31188 		msr     BASEPRI, r3
 576              	@ 0 "" 2
 577              	.LVL66:
 578              		.thumb
 579              	.LBE119:
 580 01fe FFF7FEFF 		bl	dbg_check_lock
 581              	.LVL67:
 582 0202 2169     		ldr	r1, [r4, #16]
 583 0204 E568     		ldr	r5, [r4, #12]
 584 0206 A368     		ldr	r3, [r4, #8]
 585 0208 C5EB010C 		rsb	ip, r5, r1
 586 020c C3EB0C02 		rsb	r2, r3, ip
 587 0210 A2F10400 		sub	r0, r2, #4
 588 0214 4542     		rsbs	r5, r0, #0
 589 0216 45EB0001 		adc	r1, r5, r0
 590 021a 0820     		movs	r0, #8
 591 021c FFF7FEFF 		bl	_test_assert
 592 0220 0546     		mov	r5, r0
 593 0222 0028     		cmp	r0, #0
 594 0224 40F0A080 		bne	.L28
 595 0228 FFF7FEFF 		bl	dbg_check_unlock
 596              	.LBB120:
 597 022c 2B46     		mov	r3, r5
 598              	.LVL68:
 599              	@ 207 "../../ChibiOS/test/testqueues.c" 1
 600 022e 83F31188 		msr     BASEPRI, r3
 601              	@ 0 "" 2
 602              	.LVL69:
 603              		.thumb
 604              	.LBE120:
 605              		.loc 1 208 0
 606 0232 FFF7FEFF 		bl	test_wait_threads
 607              	.LVL70:
 608              	.LBB121:
 609              		.loc 1 211 0
 610 0236 2023     		movs	r3, #32
 611              	.LVL71:
 612              	@ 211 "../../ChibiOS/test/testqueues.c" 1
 613 0238 83F31188 		msr     BASEPRI, r3
 614              	@ 0 "" 2
 615              	.LVL72:
 616              		.thumb
 617              	.LBE121:
 618 023c FFF7FEFF 		bl	dbg_check_lock
 619              	.LVL73:
 620              		.loc 1 212 0
ARM GAS  /tmp/ccQeRi3A.s 			page 12


 621 0240 2046     		mov	r0, r4
 622 0242 FFF7FEFF 		bl	chOQResetI
 623              		.loc 1 213 0
 624 0246 FFF7FEFF 		bl	dbg_check_unlock
 625              	.LBB122:
 626 024a 2B46     		mov	r3, r5
 627              	.LVL74:
 628              	@ 213 "../../ChibiOS/test/testqueues.c" 1
 629 024c 83F31188 		msr     BASEPRI, r3
 630              	@ 0 "" 2
 631              	.LVL75:
 632              		.thumb
 633              	.LBE122:
 634              	.LBB123:
 635              		.loc 1 214 0
 636 0250 2023     		movs	r3, #32
 637              	.LVL76:
 638              	@ 214 "../../ChibiOS/test/testqueues.c" 1
 639 0252 83F31188 		msr     BASEPRI, r3
 640              	@ 0 "" 2
 641              	.LVL77:
 642              		.thumb
 643              	.LBE123:
 644 0256 FFF7FEFF 		bl	dbg_check_lock
 645              	.LVL78:
 646 025a 2169     		ldr	r1, [r4, #16]
 647 025c E068     		ldr	r0, [r4, #12]
 648 025e A368     		ldr	r3, [r4, #8]
 649 0260 0A1A     		subs	r2, r1, r0
 650 0262 D71A     		subs	r7, r2, r3
 651 0264 7842     		rsbs	r0, r7, #0
 652 0266 40EB0701 		adc	r1, r0, r7
 653 026a 0920     		movs	r0, #9
 654 026c FFF7FEFF 		bl	_test_assert
 655 0270 0746     		mov	r7, r0
 656 0272 0028     		cmp	r0, #0
 657 0274 6CD1     		bne	.L22
 658 0276 FFF7FEFF 		bl	dbg_check_unlock
 659              	.LBB124:
 660 027a 3B46     		mov	r3, r7
 661              	.LVL79:
 662              	@ 214 "../../ChibiOS/test/testqueues.c" 1
 663 027c 83F31188 		msr     BASEPRI, r3
 664              	@ 0 "" 2
 665              	.LVL80:
 666              		.thumb
 667              	.LBE124:
 668              		.loc 1 217 0
 669 0280 0222     		movs	r2, #2
 670 0282 3146     		mov	r1, r6
 671 0284 2046     		mov	r0, r4
 672 0286 FFF7FEFF 		bl	chOQWriteTimeout
 673              	.LVL81:
 674              		.loc 1 218 0
 675 028a A0F10203 		sub	r3, r0, #2
 676 028e 5A42     		rsbs	r2, r3, #0
 677 0290 42EB0301 		adc	r1, r2, r3
ARM GAS  /tmp/ccQeRi3A.s 			page 13


 678 0294 0A20     		movs	r0, #10
 679              	.LVL82:
 680 0296 FFF7FEFF 		bl	_test_assert
 681              	.LVL83:
 682 029a 0346     		mov	r3, r0
 683 029c 0028     		cmp	r0, #0
 684 029e 44D1     		bne	.L6
 685              		.loc 1 219 0
 686 02a0 3146     		mov	r1, r6
 687 02a2 0222     		movs	r2, #2
 688 02a4 2046     		mov	r0, r4
 689 02a6 FFF7FEFF 		bl	chOQWriteTimeout
 690              	.LVL84:
 691              		.loc 1 220 0
 692 02aa A0F10201 		sub	r1, r0, #2
 693 02ae D1F1000C 		rsbs	ip, r1, #0
 694 02b2 4CEB0101 		adc	r1, ip, r1
 695 02b6 0B20     		movs	r0, #11
 696              	.LVL85:
 697 02b8 FFF7FEFF 		bl	_test_assert
 698 02bc 0028     		cmp	r0, #0
 699 02be 34D1     		bne	.L6
 700              	.LBB125:
 701              		.loc 1 221 0
 702 02c0 2023     		movs	r3, #32
 703              	.LVL86:
 704              	@ 221 "../../ChibiOS/test/testqueues.c" 1
 705 02c2 83F31188 		msr     BASEPRI, r3
 706              	@ 0 "" 2
 707              	.LVL87:
 708              		.thumb
 709              	.LBE125:
 710 02c6 FFF7FEFF 		bl	dbg_check_lock
 711              	.LVL88:
 712 02ca A268     		ldr	r2, [r4, #8]
 713 02cc 0C20     		movs	r0, #12
 714 02ce D2F10101 		rsbs	r1, r2, #1
 715 02d2 38BF     		it	cc
 716 02d4 0021     		movcc	r1, #0
 717 02d6 FFF7FEFF 		bl	_test_assert
 718 02da 08BB     		cbnz	r0, .L21
 719 02dc FFF7FEFF 		bl	dbg_check_unlock
 720              	.LBB126:
 721 02e0 0023     		movs	r3, #0
 722              	.LVL89:
 723              	@ 221 "../../ChibiOS/test/testqueues.c" 1
 724 02e2 83F31188 		msr     BASEPRI, r3
 725              	@ 0 "" 2
 726              	.LVL90:
 727              		.thumb
 728              	.LBE126:
 729              		.loc 1 224 0
 730 02e6 0A22     		movs	r2, #10
 731 02e8 1946     		mov	r1, r3
 732 02ea 0748     		ldr	r0, .L29
 733 02ec FFF7FEFF 		bl	chOQPutTimeout
 734              	.LVL91:
ARM GAS  /tmp/ccQeRi3A.s 			page 14


 735 02f0 A0F1FF33 		sub	r3, r0, #-1
 736 02f4 5842     		rsbs	r0, r3, #0
 737 02f6 40EB0301 		adc	r1, r0, r3
 738 02fa 0D20     		movs	r0, #13
 739              	.LBE99:
 740              	.LBE98:
 741              		.loc 1 225 0
 742 02fc 02B0     		add	sp, sp, #8
 743 02fe BDE8F041 		pop	{r4, r5, r6, r7, r8, lr}
 744              	.LBB135:
 745              	.LBB132:
 746              		.loc 1 224 0
 747 0302 FFF7FEBF 		b	_test_assert
 748              	.L30:
 749 0306 00BF     		.align	2
 750              	.L29:
 751 0308 00000000 		.word	.LANCHOR0
 752 030c 00000000 		.word	.LC0
 753 0310 00000000 		.word	wa
 754 0314 00000000 		.word	rlist
 755 0318 00000000 		.word	thread2
 756 031c 00000000 		.word	threads
 757              	.L21:
 758              		.loc 1 221 0
 759 0320 FFF7FEFF 		bl	dbg_check_unlock
 760              	.LBB127:
 761 0324 0023     		movs	r3, #0
 762              	.LVL92:
 763              	@ 221 "../../ChibiOS/test/testqueues.c" 1
 764 0326 83F31188 		msr     BASEPRI, r3
 765              	@ 0 "" 2
 766              	.LVL93:
 767              		.thumb
 768              	.L6:
 769              	.LBE127:
 770              	.LBE132:
 771              	.LBE135:
 772              		.loc 1 225 0
 773 032a 02B0     		add	sp, sp, #8
 774 032c BDE8F081 		pop	{r4, r5, r6, r7, r8, pc}
 775              	.LVL94:
 776              	.L25:
 777              	.LBB136:
 778              	.LBB133:
 779              		.loc 1 187 0
 780 0330 FFF7FEFF 		bl	dbg_check_unlock
 781              	.LBB128:
 782 0334 3346     		mov	r3, r6
 783              	@ 187 "../../ChibiOS/test/testqueues.c" 1
 784 0336 83F31188 		msr     BASEPRI, r3
 785              	@ 0 "" 2
 786              	.LVL95:
 787              		.thumb
 788 033a F6E7     		b	.L6
 789              	.LVL96:
 790              	.L24:
 791              	.LBE128:
ARM GAS  /tmp/ccQeRi3A.s 			page 15


 792              	.LBE133:
 793              	.LBE136:
 794              		.loc 1 177 0 discriminator 1
 795 033c A968     		ldr	r1, [r5, #8]
 796 033e 0031     		adds	r1, r1, #0
 797 0340 18BF     		it	ne
 798 0342 0121     		movne	r1, #1
 799 0344 6BE6     		b	.L7
 800              	.LVL97:
 801              	.L26:
 802              	.LBB137:
 803              	.LBB134:
 804              		.loc 1 177 0 is_stmt 0
 805 0346 A468     		ldr	r4, [r4, #8]
 806 0348 211C     		adds	r1, r4, #0
 807 034a 18BF     		it	ne
 808 034c 0121     		movne	r1, #1
 809 034e F0E6     		b	.L11
 810              	.LVL98:
 811              	.L22:
 812              		.loc 1 214 0 is_stmt 1
 813 0350 FFF7FEFF 		bl	dbg_check_unlock
 814              	.LBB129:
 815 0354 2B46     		mov	r3, r5
 816              	@ 214 "../../ChibiOS/test/testqueues.c" 1
 817 0356 83F31188 		msr     BASEPRI, r3
 818              	@ 0 "" 2
 819              	.LVL99:
 820              		.thumb
 821 035a E6E7     		b	.L6
 822              	.LVL100:
 823              	.L27:
 824              	.LBE129:
 825              		.loc 1 205 0
 826 035c FFF7FEFF 		bl	dbg_check_unlock
 827              	.LBB130:
 828 0360 4346     		mov	r3, r8
 829              	@ 205 "../../ChibiOS/test/testqueues.c" 1
 830 0362 83F31188 		msr     BASEPRI, r3
 831              	@ 0 "" 2
 832              	.LVL101:
 833              		.thumb
 834 0366 E0E7     		b	.L6
 835              	.LVL102:
 836              	.L28:
 837              	.LBE130:
 838              		.loc 1 207 0
 839 0368 FFF7FEFF 		bl	dbg_check_unlock
 840              	.LBB131:
 841 036c 3B46     		mov	r3, r7
 842              	@ 207 "../../ChibiOS/test/testqueues.c" 1
 843 036e 83F31188 		msr     BASEPRI, r3
 844              	@ 0 "" 2
 845              	.LVL103:
 846              		.thumb
 847 0372 DAE7     		b	.L6
 848              	.LBE131:
ARM GAS  /tmp/ccQeRi3A.s 			page 16


 849              	.LBE134:
 850              	.LBE137:
 851              		.cfi_endproc
 852              	.LFE13:
 853              		.size	queues2_execute, .-queues2_execute
 854 0374 AFF30080 		.section	.text.queues1_execute,"ax",%progbits
 854      AFF30080 
 854      AFF30080 
 855              		.align	2
 856              		.p2align 4,,15
 857              		.thumb
 858              		.thumb_func
 859              		.type	queues1_execute, %function
 860              	queues1_execute:
 861              	.LFB10:
 862              		.loc 1 90 0
 863              		.cfi_startproc
 864              		@ args = 0, pretend = 0, frame = 0
 865              		@ frame_needed = 0, uses_anonymous_args = 0
 866 0000 2DE9F043 		push	{r4, r5, r6, r7, r8, r9, lr}
 867              	.LCFI8:
 868              		.cfi_def_cfa_offset 28
 869              		.cfi_offset 14, -4
 870              		.cfi_offset 9, -8
 871              		.cfi_offset 8, -12
 872              		.cfi_offset 7, -16
 873              		.cfi_offset 6, -20
 874              		.cfi_offset 5, -24
 875              		.cfi_offset 4, -28
 876              	.LBB174:
 877              		.loc 1 95 0
 878 0004 2023     		movs	r3, #32
 879              	.LVL104:
 880              	.LBE174:
 881              		.loc 1 90 0
 882 0006 83B0     		sub	sp, sp, #12
 883              	.LCFI9:
 884              		.cfi_def_cfa_offset 40
 885              	.LBB175:
 886              		.loc 1 95 0
 887              	@ 95 "../../ChibiOS/test/testqueues.c" 1
 888 0008 83F31188 		msr     BASEPRI, r3
 889              	@ 0 "" 2
 890              	.LVL105:
 891              		.thumb
 892              	.LBE175:
 893 000c C54C     		ldr	r4, .L50
 894 000e FFF7FEFF 		bl	dbg_check_lock
 895              	.LVL106:
 896 0012 A168     		ldr	r1, [r4, #8]
 897 0014 0120     		movs	r0, #1
 898 0016 D1F10101 		rsbs	r1, r1, #1
 899 001a 38BF     		it	cc
 900 001c 0021     		movcc	r1, #0
 901 001e FFF7FEFF 		bl	_test_assert
 902 0022 0546     		mov	r5, r0
 903 0024 0028     		cmp	r0, #0
ARM GAS  /tmp/ccQeRi3A.s 			page 17


 904 0026 40F08E81 		bne	.L43
 905              	.LBB176:
 906              	.LBB177:
 907 002a FFF7FEFF 		bl	dbg_check_unlock
 908              	.LBB178:
 909 002e 2B46     		mov	r3, r5
 910              	.LVL107:
 911              	@ 95 "../../ChibiOS/test/testqueues.c" 1
 912 0030 83F31188 		msr     BASEPRI, r3
 913              	@ 0 "" 2
 914              	.LVL108:
 915              		.thumb
 916              	.LBE178:
 917              	.LBB179:
 918              		.loc 1 98 0
 919 0034 2023     		movs	r3, #32
 920              	.LVL109:
 921              	@ 98 "../../ChibiOS/test/testqueues.c" 1
 922 0036 83F31188 		msr     BASEPRI, r3
 923              	@ 0 "" 2
 924              	.LVL110:
 925              		.thumb
 926              	.LBE179:
 927 003a FFF7FEFF 		bl	dbg_check_lock
 928              	.LVL111:
 929              		.loc 1 100 0
 930 003e 4121     		movs	r1, #65
 931 0040 2046     		mov	r0, r4
 932 0042 FFF7FEFF 		bl	chIQPutI
 933              	.LVL112:
 934 0046 4221     		movs	r1, #66
 935 0048 2046     		mov	r0, r4
 936 004a FFF7FEFF 		bl	chIQPutI
 937              	.LVL113:
 938 004e 4321     		movs	r1, #67
 939 0050 2046     		mov	r0, r4
 940 0052 FFF7FEFF 		bl	chIQPutI
 941              	.LVL114:
 942 0056 4421     		movs	r1, #68
 943 0058 2046     		mov	r0, r4
 944 005a FFF7FEFF 		bl	chIQPutI
 945              	.LVL115:
 946              		.loc 1 101 0
 947 005e FFF7FEFF 		bl	dbg_check_unlock
 948              	.LBB180:
 949 0062 2B46     		mov	r3, r5
 950              	.LVL116:
 951              	@ 101 "../../ChibiOS/test/testqueues.c" 1
 952 0064 83F31188 		msr     BASEPRI, r3
 953              	@ 0 "" 2
 954              	.LVL117:
 955              		.thumb
 956              	.LBE180:
 957              	.LBB181:
 958              		.loc 1 102 0
 959 0068 2023     		movs	r3, #32
 960              	.LVL118:
ARM GAS  /tmp/ccQeRi3A.s 			page 18


 961              	@ 102 "../../ChibiOS/test/testqueues.c" 1
 962 006a 83F31188 		msr     BASEPRI, r3
 963              	@ 0 "" 2
 964              	.LVL119:
 965              		.thumb
 966              	.LBE181:
 967 006e FFF7FEFF 		bl	dbg_check_lock
 968              	.LVL120:
 969 0072 6269     		ldr	r2, [r4, #20]
 970 0074 A369     		ldr	r3, [r4, #24]
 971 0076 9A42     		cmp	r2, r3
 972 0078 00F07981 		beq	.L44
 973 007c 2946     		mov	r1, r5
 974              	.L34:
 975 007e 0220     		movs	r0, #2
 976 0080 FFF7FEFF 		bl	_test_assert
 977 0084 0646     		mov	r6, r0
 978 0086 0028     		cmp	r0, #0
 979 0088 40F05D81 		bne	.L43
 980 008c FFF7FEFF 		bl	dbg_check_unlock
 981              	.LBB182:
 982 0090 3346     		mov	r3, r6
 983              	.LVL121:
 984              	@ 102 "../../ChibiOS/test/testqueues.c" 1
 985 0092 83F31188 		msr     BASEPRI, r3
 986              	@ 0 "" 2
 987              	.LVL122:
 988              		.thumb
 989              	.LBE182:
 990              	.LBB183:
 991              		.loc 1 103 0
 992 0096 2023     		movs	r3, #32
 993              	.LVL123:
 994              	@ 103 "../../ChibiOS/test/testqueues.c" 1
 995 0098 83F31188 		msr     BASEPRI, r3
 996              	@ 0 "" 2
 997              	.LVL124:
 998              		.thumb
 999              	.LBE183:
 1000 009c A14D     		ldr	r5, .L50
 1001 009e FFF7FEFF 		bl	dbg_check_lock
 1002              	.LVL125:
 1003 00a2 3146     		mov	r1, r6
 1004 00a4 2846     		mov	r0, r5
 1005 00a6 FFF7FEFF 		bl	chIQPutI
 1006 00aa 0430     		adds	r0, r0, #4
 1007 00ac 14BF     		ite	ne
 1008 00ae 0021     		movne	r1, #0
 1009 00b0 0121     		moveq	r1, #1
 1010 00b2 0320     		movs	r0, #3
 1011 00b4 FFF7FEFF 		bl	_test_assert
 1012 00b8 0746     		mov	r7, r0
 1013 00ba 0028     		cmp	r0, #0
 1014 00bc 40F05181 		bne	.L45
 1015 00c0 FFF7FEFF 		bl	dbg_check_unlock
 1016              	.LBB184:
 1017 00c4 3B46     		mov	r3, r7
ARM GAS  /tmp/ccQeRi3A.s 			page 19


 1018              	.LVL126:
 1019              	@ 103 "../../ChibiOS/test/testqueues.c" 1
 1020 00c6 83F31188 		msr     BASEPRI, r3
 1021              	@ 0 "" 2
 1022              	.LVL127:
 1023              		.thumb
 1024              	.LBE184:
 1025              		.loc 1 107 0
 1026 00ca 4FF0FF31 		mov	r1, #-1
 1027 00ce 2846     		mov	r0, r5
 1028 00d0 FFF7FEFF 		bl	chIQGetTimeout
 1029              	.LVL128:
 1030 00d4 C0B2     		uxtb	r0, r0
 1031 00d6 FFF7FEFF 		bl	test_emit_token
 1032              	.LVL129:
 1033 00da 4FF0FF31 		mov	r1, #-1
 1034 00de 2846     		mov	r0, r5
 1035 00e0 FFF7FEFF 		bl	chIQGetTimeout
 1036 00e4 C0B2     		uxtb	r0, r0
 1037 00e6 FFF7FEFF 		bl	test_emit_token
 1038 00ea 4FF0FF31 		mov	r1, #-1
 1039 00ee 2846     		mov	r0, r5
 1040 00f0 FFF7FEFF 		bl	chIQGetTimeout
 1041 00f4 C0B2     		uxtb	r0, r0
 1042 00f6 FFF7FEFF 		bl	test_emit_token
 1043 00fa 4FF0FF31 		mov	r1, #-1
 1044 00fe 2846     		mov	r0, r5
 1045 0100 FFF7FEFF 		bl	chIQGetTimeout
 1046 0104 C0B2     		uxtb	r0, r0
 1047 0106 FFF7FEFF 		bl	test_emit_token
 1048              	.LBB185:
 1049              		.loc 1 108 0
 1050 010a 2023     		movs	r3, #32
 1051              	.LVL130:
 1052              	@ 108 "../../ChibiOS/test/testqueues.c" 1
 1053 010c 83F31188 		msr     BASEPRI, r3
 1054              	@ 0 "" 2
 1055              	.LVL131:
 1056              		.thumb
 1057              	.LBE185:
 1058 0110 FFF7FEFF 		bl	dbg_check_lock
 1059              	.LVL132:
 1060 0114 AE68     		ldr	r6, [r5, #8]
 1061 0116 0420     		movs	r0, #4
 1062 0118 D6F10101 		rsbs	r1, r6, #1
 1063 011c 38BF     		it	cc
 1064 011e 0021     		movcc	r1, #0
 1065 0120 FFF7FEFF 		bl	_test_assert
 1066 0124 0646     		mov	r6, r0
 1067 0126 0028     		cmp	r0, #0
 1068 0128 40F01581 		bne	.L46
 1069 012c FFF7FEFF 		bl	dbg_check_unlock
 1070              	.LBB186:
 1071 0130 3346     		mov	r3, r6
 1072              	.LVL133:
 1073              	@ 108 "../../ChibiOS/test/testqueues.c" 1
 1074 0132 83F31188 		msr     BASEPRI, r3
ARM GAS  /tmp/ccQeRi3A.s 			page 20


 1075              	@ 0 "" 2
 1076              	.LVL134:
 1077              		.thumb
 1078              	.LBE186:
 1079              		.loc 1 109 0
 1080 0136 0520     		movs	r0, #5
 1081 0138 7B49     		ldr	r1, .L50+4
 1082 013a FFF7FEFF 		bl	_test_assert_sequence
 1083              	.LVL135:
 1084 013e 0646     		mov	r6, r0
 1085 0140 0028     		cmp	r0, #0
 1086 0142 40F00581 		bne	.L31
 1087              	.LBB187:
 1088              		.loc 1 112 0
 1089 0146 2023     		movs	r3, #32
 1090              	.LVL136:
 1091              	@ 112 "../../ChibiOS/test/testqueues.c" 1
 1092 0148 83F31188 		msr     BASEPRI, r3
 1093              	@ 0 "" 2
 1094              	.LVL137:
 1095              		.thumb
 1096              	.LBE187:
 1097 014c FFF7FEFF 		bl	dbg_check_lock
 1098              	.LVL138:
 1099              		.loc 1 114 0
 1100 0150 4121     		movs	r1, #65
 1101 0152 2846     		mov	r0, r5
 1102 0154 FFF7FEFF 		bl	chIQPutI
 1103              	.LVL139:
 1104 0158 4221     		movs	r1, #66
 1105 015a 2846     		mov	r0, r5
 1106 015c FFF7FEFF 		bl	chIQPutI
 1107              	.LVL140:
 1108 0160 4321     		movs	r1, #67
 1109 0162 2846     		mov	r0, r5
 1110 0164 FFF7FEFF 		bl	chIQPutI
 1111              	.LVL141:
 1112 0168 4421     		movs	r1, #68
 1113 016a 2846     		mov	r0, r5
 1114 016c FFF7FEFF 		bl	chIQPutI
 1115              	.LVL142:
 1116              		.loc 1 115 0
 1117 0170 FFF7FEFF 		bl	dbg_check_unlock
 1118              	.LBB188:
 1119 0174 3346     		mov	r3, r6
 1120              	.LVL143:
 1121              	@ 115 "../../ChibiOS/test/testqueues.c" 1
 1122 0176 83F31188 		msr     BASEPRI, r3
 1123              	@ 0 "" 2
 1124              	.LVL144:
 1125              		.thumb
 1126              	.LBE188:
 1127              		.loc 1 118 0
 1128 017a 6C4F     		ldr	r7, .L50+8
 1129 017c 0822     		movs	r2, #8
 1130 017e D7F80480 		ldr	r8, [r7, #4]
 1131 0182 2846     		mov	r0, r5
ARM GAS  /tmp/ccQeRi3A.s 			page 21


 1132 0184 4146     		mov	r1, r8
 1133 0186 FFF7FEFF 		bl	chIQReadTimeout
 1134              	.LVL145:
 1135              		.loc 1 119 0
 1136 018a A0F10401 		sub	r1, r0, #4
 1137 018e D1F10009 		rsbs	r9, r1, #0
 1138 0192 49EB0101 		adc	r1, r9, r1
 1139 0196 0620     		movs	r0, #6
 1140              	.LVL146:
 1141 0198 FFF7FEFF 		bl	_test_assert
 1142 019c 8146     		mov	r9, r0
 1143 019e 0028     		cmp	r0, #0
 1144 01a0 40F0D680 		bne	.L31
 1145              	.LBB189:
 1146              		.loc 1 120 0
 1147 01a4 2023     		movs	r3, #32
 1148              	.LVL147:
 1149              	@ 120 "../../ChibiOS/test/testqueues.c" 1
 1150 01a6 83F31188 		msr     BASEPRI, r3
 1151              	@ 0 "" 2
 1152              	.LVL148:
 1153              		.thumb
 1154              	.LBE189:
 1155 01aa FFF7FEFF 		bl	dbg_check_lock
 1156              	.LVL149:
 1157 01ae AA68     		ldr	r2, [r5, #8]
 1158 01b0 0720     		movs	r0, #7
 1159 01b2 D2F10101 		rsbs	r1, r2, #1
 1160 01b6 38BF     		it	cc
 1161 01b8 0021     		movcc	r1, #0
 1162 01ba FFF7FEFF 		bl	_test_assert
 1163 01be 0646     		mov	r6, r0
 1164 01c0 0028     		cmp	r0, #0
 1165 01c2 40F0D980 		bne	.L47
 1166 01c6 FFF7FEFF 		bl	dbg_check_unlock
 1167              	.LBB190:
 1168 01ca 3346     		mov	r3, r6
 1169              	.LVL150:
 1170              	@ 120 "../../ChibiOS/test/testqueues.c" 1
 1171 01cc 83F31188 		msr     BASEPRI, r3
 1172              	@ 0 "" 2
 1173              	.LVL151:
 1174              		.thumb
 1175              	.LBE190:
 1176              	.LBB191:
 1177              		.loc 1 123 0
 1178 01d0 2023     		movs	r3, #32
 1179              	.LVL152:
 1180              	@ 123 "../../ChibiOS/test/testqueues.c" 1
 1181 01d2 83F31188 		msr     BASEPRI, r3
 1182              	@ 0 "" 2
 1183              	.LVL153:
 1184              		.thumb
 1185              	.LBE191:
 1186 01d6 FFF7FEFF 		bl	dbg_check_lock
 1187              	.LVL154:
 1188              		.loc 1 125 0
ARM GAS  /tmp/ccQeRi3A.s 			page 22


 1189 01da 4121     		movs	r1, #65
 1190 01dc 2846     		mov	r0, r5
 1191 01de FFF7FEFF 		bl	chIQPutI
 1192              	.LVL155:
 1193 01e2 4221     		movs	r1, #66
 1194 01e4 2846     		mov	r0, r5
 1195 01e6 FFF7FEFF 		bl	chIQPutI
 1196              	.LVL156:
 1197 01ea 4321     		movs	r1, #67
 1198 01ec 2846     		mov	r0, r5
 1199 01ee FFF7FEFF 		bl	chIQPutI
 1200              	.LVL157:
 1201 01f2 4421     		movs	r1, #68
 1202 01f4 2846     		mov	r0, r5
 1203 01f6 FFF7FEFF 		bl	chIQPutI
 1204              	.LVL158:
 1205              		.loc 1 126 0
 1206 01fa FFF7FEFF 		bl	dbg_check_unlock
 1207              	.LBB192:
 1208 01fe 3346     		mov	r3, r6
 1209              	.LVL159:
 1210              	@ 126 "../../ChibiOS/test/testqueues.c" 1
 1211 0200 83F31188 		msr     BASEPRI, r3
 1212              	@ 0 "" 2
 1213              	.LVL160:
 1214              		.thumb
 1215              	.LBE192:
 1216              		.loc 1 129 0
 1217 0204 0222     		movs	r2, #2
 1218 0206 4146     		mov	r1, r8
 1219 0208 2846     		mov	r0, r5
 1220 020a FFF7FEFF 		bl	chIQReadTimeout
 1221              	.LVL161:
 1222              		.loc 1 130 0
 1223 020e A0F10200 		sub	r0, r0, #2
 1224              	.LVL162:
 1225 0212 4342     		rsbs	r3, r0, #0
 1226 0214 43EB0001 		adc	r1, r3, r0
 1227 0218 0820     		movs	r0, #8
 1228              	.LVL163:
 1229 021a FFF7FEFF 		bl	_test_assert
 1230 021e 0028     		cmp	r0, #0
 1231 0220 40F09680 		bne	.L31
 1232              		.loc 1 131 0
 1233 0224 4146     		mov	r1, r8
 1234 0226 0222     		movs	r2, #2
 1235 0228 0346     		mov	r3, r0
 1236 022a 2846     		mov	r0, r5
 1237 022c FFF7FEFF 		bl	chIQReadTimeout
 1238              	.LVL164:
 1239              		.loc 1 132 0
 1240 0230 A0F10201 		sub	r1, r0, #2
 1241 0234 D1F10008 		rsbs	r8, r1, #0
 1242 0238 48EB0101 		adc	r1, r8, r1
 1243 023c 0920     		movs	r0, #9
 1244              	.LVL165:
 1245 023e FFF7FEFF 		bl	_test_assert
ARM GAS  /tmp/ccQeRi3A.s 			page 23


 1246 0242 8046     		mov	r8, r0
 1247 0244 0028     		cmp	r0, #0
 1248 0246 40F08380 		bne	.L31
 1249              	.LBB193:
 1250              		.loc 1 133 0
 1251 024a 2023     		movs	r3, #32
 1252              	.LVL166:
 1253              	@ 133 "../../ChibiOS/test/testqueues.c" 1
 1254 024c 83F31188 		msr     BASEPRI, r3
 1255              	@ 0 "" 2
 1256              	.LVL167:
 1257              		.thumb
 1258              	.LBE193:
 1259 0250 FFF7FEFF 		bl	dbg_check_lock
 1260              	.LVL168:
 1261 0254 AE68     		ldr	r6, [r5, #8]
 1262 0256 0A20     		movs	r0, #10
 1263 0258 D6F10101 		rsbs	r1, r6, #1
 1264 025c 38BF     		it	cc
 1265 025e 0021     		movcc	r1, #0
 1266 0260 FFF7FEFF 		bl	_test_assert
 1267 0264 0646     		mov	r6, r0
 1268 0266 0028     		cmp	r0, #0
 1269 0268 40F08C80 		bne	.L48
 1270 026c FFF7FEFF 		bl	dbg_check_unlock
 1271              	.LBB194:
 1272 0270 3346     		mov	r3, r6
 1273              	.LVL169:
 1274              	@ 133 "../../ChibiOS/test/testqueues.c" 1
 1275 0272 83F31188 		msr     BASEPRI, r3
 1276              	@ 0 "" 2
 1277              	.LVL170:
 1278              		.thumb
 1279              	.LBE194:
 1280              	.LBB195:
 1281              		.loc 1 136 0
 1282 0276 2023     		movs	r3, #32
 1283              	.LVL171:
 1284              	@ 136 "../../ChibiOS/test/testqueues.c" 1
 1285 0278 83F31188 		msr     BASEPRI, r3
 1286              	@ 0 "" 2
 1287              	.LVL172:
 1288              		.thumb
 1289              	.LBE195:
 1290 027c FFF7FEFF 		bl	dbg_check_lock
 1291              	.LVL173:
 1292              		.loc 1 137 0
 1293 0280 3146     		mov	r1, r6
 1294 0282 2846     		mov	r0, r5
 1295 0284 FFF7FEFF 		bl	chIQPutI
 1296              		.loc 1 138 0
 1297 0288 2846     		mov	r0, r5
 1298 028a FFF7FEFF 		bl	chIQResetI
 1299              		.loc 1 139 0
 1300 028e FFF7FEFF 		bl	dbg_check_unlock
 1301              	.LBB196:
 1302 0292 3346     		mov	r3, r6
ARM GAS  /tmp/ccQeRi3A.s 			page 24


 1303              	.LVL174:
 1304              	@ 139 "../../ChibiOS/test/testqueues.c" 1
 1305 0294 83F31188 		msr     BASEPRI, r3
 1306              	@ 0 "" 2
 1307              	.LVL175:
 1308              		.thumb
 1309              	.LBE196:
 1310              	.LBB197:
 1311              		.loc 1 140 0
 1312 0298 2023     		movs	r3, #32
 1313              	.LVL176:
 1314              	@ 140 "../../ChibiOS/test/testqueues.c" 1
 1315 029a 83F31188 		msr     BASEPRI, r3
 1316              	@ 0 "" 2
 1317              	.LVL177:
 1318              		.thumb
 1319              	.LBE197:
 1320 029e FFF7FEFF 		bl	dbg_check_lock
 1321              	.LVL178:
 1322 02a2 AA68     		ldr	r2, [r5, #8]
 1323 02a4 0B20     		movs	r0, #11
 1324 02a6 D2F10101 		rsbs	r1, r2, #1
 1325 02aa 38BF     		it	cc
 1326 02ac 0021     		movcc	r1, #0
 1327 02ae FFF7FEFF 		bl	_test_assert
 1328 02b2 0028     		cmp	r0, #0
 1329 02b4 47D1     		bne	.L43
 1330 02b6 FFF7FEFF 		bl	dbg_check_unlock
 1331              	.LBB198:
 1332 02ba 0023     		movs	r3, #0
 1333              	.LVL179:
 1334              	@ 140 "../../ChibiOS/test/testqueues.c" 1
 1335 02bc 83F31188 		msr     BASEPRI, r3
 1336              	@ 0 "" 2
 1337              	.LVL180:
 1338              		.thumb
 1339              	.LBE198:
 1340              		.loc 1 141 0
 1341 02c0 1B48     		ldr	r0, .L50+12
 1342 02c2 1D46     		mov	r5, r3
 1343 02c4 8169     		ldr	r1, [r0, #24]
 1344 02c6 3868     		ldr	r0, [r7, #0]
 1345 02c8 8B68     		ldr	r3, [r1, #8]
 1346              	.LVL181:
 1347 02ca 4FF40471 		mov	r1, #528
 1348 02ce 5A1C     		adds	r2, r3, #1
 1349 02d0 184B     		ldr	r3, .L50+16
 1350 02d2 0095     		str	r5, [sp, #0]
 1351 02d4 FFF7FEFF 		bl	chThdCreateStatic
 1352 02d8 174A     		ldr	r2, .L50+20
 1353              	.LBB199:
 1354              		.loc 1 142 0
 1355 02da 2023     		movs	r3, #32
 1356              	.LVL182:
 1357              	.LBE199:
 1358              		.loc 1 141 0
 1359 02dc 1060     		str	r0, [r2, #0]
ARM GAS  /tmp/ccQeRi3A.s 			page 25


 1360              	.LBB200:
 1361              		.loc 1 142 0
 1362              	@ 142 "../../ChibiOS/test/testqueues.c" 1
 1363 02de 83F31188 		msr     BASEPRI, r3
 1364              	@ 0 "" 2
 1365              	.LVL183:
 1366              		.thumb
 1367              	.LBE200:
 1368 02e2 FFF7FEFF 		bl	dbg_check_lock
 1369              	.LVL184:
 1370 02e6 A168     		ldr	r1, [r4, #8]
 1371 02e8 0C20     		movs	r0, #12
 1372 02ea 4B1B     		subs	r3, r1, r5
 1373 02ec 5C42     		rsbs	r4, r3, #0
 1374 02ee 44EB0301 		adc	r1, r4, r3
 1375 02f2 FFF7FEFF 		bl	_test_assert
 1376 02f6 0446     		mov	r4, r0
 1377 02f8 0028     		cmp	r0, #0
 1378 02fa 49D1     		bne	.L49
 1379 02fc FFF7FEFF 		bl	dbg_check_unlock
 1380              	.LBB201:
 1381 0300 2346     		mov	r3, r4
 1382              	.LVL185:
 1383              	@ 142 "../../ChibiOS/test/testqueues.c" 1
 1384 0302 83F31188 		msr     BASEPRI, r3
 1385              	@ 0 "" 2
 1386              	.LVL186:
 1387              		.thumb
 1388              	.LBE201:
 1389              		.loc 1 143 0
 1390 0306 FFF7FEFF 		bl	test_wait_threads
 1391              	.LVL187:
 1392              		.loc 1 146 0
 1393 030a 0A21     		movs	r1, #10
 1394 030c 0548     		ldr	r0, .L50
 1395 030e FFF7FEFF 		bl	chIQGetTimeout
 1396 0312 A0F1FF3C 		sub	ip, r0, #-1
 1397 0316 DCF10002 		rsbs	r2, ip, #0
 1398 031a 42EB0C01 		adc	r1, r2, ip
 1399 031e 0D20     		movs	r0, #13
 1400 0320 0CE0     		b	.L51
 1401              	.L52:
 1402 0322 00BF     		.align	2
 1403              	.L50:
 1404 0324 00000000 		.word	.LANCHOR1
 1405 0328 00000000 		.word	.LC0
 1406 032c 00000000 		.word	wa
 1407 0330 00000000 		.word	rlist
 1408 0334 00000000 		.word	thread1
 1409 0338 00000000 		.word	threads
 1410              	.L51:
 1411              	.LBE177:
 1412              	.LBE176:
 1413              		.loc 1 147 0
 1414 033c 03B0     		add	sp, sp, #12
 1415 033e BDE8F043 		pop	{r4, r5, r6, r7, r8, r9, lr}
 1416              	.LBB210:
ARM GAS  /tmp/ccQeRi3A.s 			page 26


 1417              	.LBB208:
 1418              		.loc 1 146 0
 1419 0342 FFF7FEBF 		b	_test_assert
 1420              	.LVL188:
 1421              	.L43:
 1422              		.loc 1 140 0
 1423 0346 FFF7FEFF 		bl	dbg_check_unlock
 1424              	.LBB202:
 1425 034a 0023     		movs	r3, #0
 1426              	.LVL189:
 1427              	@ 140 "../../ChibiOS/test/testqueues.c" 1
 1428 034c 83F31188 		msr     BASEPRI, r3
 1429              	@ 0 "" 2
 1430              	.LVL190:
 1431              		.thumb
 1432              	.L31:
 1433              	.LBE202:
 1434              	.LBE208:
 1435              	.LBE210:
 1436              		.loc 1 147 0
 1437 0350 03B0     		add	sp, sp, #12
 1438 0352 BDE8F083 		pop	{r4, r5, r6, r7, r8, r9, pc}
 1439              	.LVL191:
 1440              	.L46:
 1441              	.LBB211:
 1442              	.LBB209:
 1443              		.loc 1 108 0
 1444 0356 FFF7FEFF 		bl	dbg_check_unlock
 1445              	.LBB203:
 1446 035a 3B46     		mov	r3, r7
 1447              	@ 108 "../../ChibiOS/test/testqueues.c" 1
 1448 035c 83F31188 		msr     BASEPRI, r3
 1449              	@ 0 "" 2
 1450              	.LVL192:
 1451              		.thumb
 1452 0360 F6E7     		b	.L31
 1453              	.LVL193:
 1454              	.L45:
 1455              	.LBE203:
 1456              		.loc 1 103 0
 1457 0362 FFF7FEFF 		bl	dbg_check_unlock
 1458              	.LBB204:
 1459 0366 3346     		mov	r3, r6
 1460              	@ 103 "../../ChibiOS/test/testqueues.c" 1
 1461 0368 83F31188 		msr     BASEPRI, r3
 1462              	@ 0 "" 2
 1463              	.LVL194:
 1464              		.thumb
 1465 036c F0E7     		b	.L31
 1466              	.LVL195:
 1467              	.L44:
 1468              	.LBE204:
 1469              		.loc 1 90 0
 1470 036e A068     		ldr	r0, [r4, #8]
 1471 0370 011C     		adds	r1, r0, #0
 1472 0372 18BF     		it	ne
 1473 0374 0121     		movne	r1, #1
ARM GAS  /tmp/ccQeRi3A.s 			page 27


 1474 0376 82E6     		b	.L34
 1475              	.L47:
 1476              		.loc 1 120 0
 1477 0378 FFF7FEFF 		bl	dbg_check_unlock
 1478              	.LBB205:
 1479 037c 4B46     		mov	r3, r9
 1480              	@ 120 "../../ChibiOS/test/testqueues.c" 1
 1481 037e 83F31188 		msr     BASEPRI, r3
 1482              	@ 0 "" 2
 1483              	.LVL196:
 1484              		.thumb
 1485 0382 E5E7     		b	.L31
 1486              	.LVL197:
 1487              	.L48:
 1488              	.LBE205:
 1489              		.loc 1 133 0
 1490 0384 FFF7FEFF 		bl	dbg_check_unlock
 1491              	.LBB206:
 1492 0388 4346     		mov	r3, r8
 1493              	@ 133 "../../ChibiOS/test/testqueues.c" 1
 1494 038a 83F31188 		msr     BASEPRI, r3
 1495              	@ 0 "" 2
 1496              	.LVL198:
 1497              		.thumb
 1498 038e DFE7     		b	.L31
 1499              	.LVL199:
 1500              	.L49:
 1501              	.LBE206:
 1502              		.loc 1 142 0
 1503 0390 FFF7FEFF 		bl	dbg_check_unlock
 1504              	.LBB207:
 1505 0394 2B46     		mov	r3, r5
 1506              	@ 142 "../../ChibiOS/test/testqueues.c" 1
 1507 0396 83F31188 		msr     BASEPRI, r3
 1508              	@ 0 "" 2
 1509              	.LVL200:
 1510              		.thumb
 1511 039a D9E7     		b	.L31
 1512              	.LBE207:
 1513              	.LBE209:
 1514              	.LBE211:
 1515              		.cfi_endproc
 1516              	.LFE10:
 1517              		.size	queues1_execute, .-queues1_execute
 1518              		.global	patternqueues
 1519              		.global	testqueues2
 1520              		.global	testqueues1
 1521 039c AFF30080 		.section	.rodata.testqueues1,"a",%progbits
 1522              		.align	2
 1523              		.type	testqueues1, %object
 1524              		.size	testqueues1, 16
 1525              	testqueues1:
 1526 0000 20000000 		.word	.LC2
 1527 0004 00000000 		.word	queues1_setup
 1528 0008 00000000 		.word	0
 1529 000c 00000000 		.word	queues1_execute
 1530              		.section	.rodata.testqueues2,"a",%progbits
ARM GAS  /tmp/ccQeRi3A.s 			page 28


 1531              		.align	2
 1532              		.type	testqueues2, %object
 1533              		.size	testqueues2, 16
 1534              	testqueues2:
 1535 0000 08000000 		.word	.LC1
 1536 0004 00000000 		.word	queues2_setup
 1537 0008 00000000 		.word	0
 1538 000c 00000000 		.word	queues2_execute
 1539              		.section	.rodata.str1.4,"aMS",%progbits,1
 1540              		.align	2
 1541              	.LC0:
 1542 0000 41424344 		.ascii	"ABCD\000"
 1542      00
 1543 0005 000000   		.space	3
 1544              	.LC1:
 1545 0008 51756575 		.ascii	"Queues, output queues\000"
 1545      65732C20 
 1545      6F757470 
 1545      75742071 
 1545      75657565 
 1546 001e 0000     		.space	2
 1547              	.LC2:
 1548 0020 51756575 		.ascii	"Queues, input queues\000"
 1548      65732C20 
 1548      696E7075 
 1548      74207175 
 1548      65756573 
 1549 0035 000000   		.section	.rodata.patternqueues,"a",%progbits
 1550              		.align	2
 1551              		.type	patternqueues, %object
 1552              		.size	patternqueues, 12
 1553              	patternqueues:
 1554 0000 00000000 		.word	testqueues1
 1555 0004 00000000 		.word	testqueues2
 1556 0008 00000000 		.word	0
 1557              		.section	.data.oq,"aw",%progbits
 1558              		.align	2
 1559              		.set	.LANCHOR0,. + 0
 1560              		.type	oq, %object
 1561              		.size	oq, 36
 1562              	oq:
 1563 0000 00000000 		.word	oq
 1564 0004 00000000 		.word	oq
 1565 0008 04000000 		.word	4
 1566 000c 10020000 		.word	test+528
 1567 0010 14020000 		.word	test+532
 1568 0014 10020000 		.word	test+528
 1569 0018 10020000 		.word	test+528
 1570 001c 00000000 		.word	notify
 1571 0020 00000000 		.word	0
 1572              		.section	.data.iq,"aw",%progbits
 1573              		.align	2
 1574              		.set	.LANCHOR1,. + 0
 1575              		.type	iq, %object
 1576              		.size	iq, 36
 1577              	iq:
 1578 0000 00000000 		.word	iq
ARM GAS  /tmp/ccQeRi3A.s 			page 29


 1579 0004 00000000 		.word	iq
 1580 0008 00000000 		.word	0
 1581 000c 00000000 		.word	test
 1582 0010 04000000 		.word	test+4
 1583 0014 00000000 		.word	test
 1584 0018 00000000 		.word	test
 1585 001c 00000000 		.word	notify
 1586 0020 00000000 		.word	0
 1587              		.text
 1588              	.Letext0:
 1589              		.file 2 "/home/tino/ChibiStudio/tools/GNU Tools ARM Embedded/4.6 2012q2/bin/../lib/gcc/arm-none-ea
 1590              		.file 3 "/home/tino/ChibiStudio/tools/GNU Tools ARM Embedded/4.6 2012q2/bin/../lib/gcc/arm-none-ea
 1591              		.file 4 "../../ChibiOS/os/ports/GCC/ARMCMx/chtypes.h"
 1592              		.file 5 "../../ChibiOS/os/kernel/include/chlists.h"
 1593              		.file 6 "../../ChibiOS/os/kernel/include/chthreads.h"
 1594              		.file 7 "../../ChibiOS/os/ports/GCC/ARMCMx/chcore_v7m.h"
 1595              		.file 8 "../../ChibiOS/os/kernel/include/chschd.h"
 1596              		.file 9 "../../ChibiOS/os/kernel/include/chmtx.h"
 1597              		.file 10 "../../ChibiOS/os/kernel/include/chqueues.h"
 1598              		.file 11 "../../ChibiOS/test/test.h"
 1599              		.section	.debug_info,"",%progbits
 1600              	.Ldebug_info0:
 1601 0000 89110000 		.4byte	0x1189
 1602 0004 0200     		.2byte	0x2
 1603 0006 00000000 		.4byte	.Ldebug_abbrev0
 1604 000a 04       		.byte	0x4
 1605 000b 01       		.uleb128 0x1
 1606 000c BF000000 		.4byte	.LASF97
 1607 0010 01       		.byte	0x1
 1608 0011 9A020000 		.4byte	.LASF98
 1609 0015 08010000 		.4byte	.LASF99
 1610 0019 00000000 		.4byte	0
 1611 001d 00000000 		.4byte	0
 1612 0021 40010000 		.4byte	.Ldebug_ranges0+0x140
 1613 0025 00000000 		.4byte	.Ldebug_line0
 1614 0029 02       		.uleb128 0x2
 1615 002a 04       		.byte	0x4
 1616 002b 05       		.byte	0x5
 1617 002c 696E7400 		.ascii	"int\000"
 1618 0030 03       		.uleb128 0x3
 1619 0031 06000000 		.4byte	.LASF2
 1620 0035 02       		.byte	0x2
 1621 0036 D4       		.byte	0xd4
 1622 0037 3B000000 		.4byte	0x3b
 1623 003b 04       		.uleb128 0x4
 1624 003c 04       		.byte	0x4
 1625 003d 07       		.byte	0x7
 1626 003e 77010000 		.4byte	.LASF0
 1627 0042 04       		.uleb128 0x4
 1628 0043 01       		.byte	0x1
 1629 0044 06       		.byte	0x6
 1630 0045 89000000 		.4byte	.LASF1
 1631 0049 03       		.uleb128 0x3
 1632 004a 00040000 		.4byte	.LASF3
 1633 004e 03       		.byte	0x3
 1634 004f 2A       		.byte	0x2a
 1635 0050 54000000 		.4byte	0x54
ARM GAS  /tmp/ccQeRi3A.s 			page 30


 1636 0054 04       		.uleb128 0x4
 1637 0055 01       		.byte	0x1
 1638 0056 08       		.byte	0x8
 1639 0057 07030000 		.4byte	.LASF4
 1640 005b 04       		.uleb128 0x4
 1641 005c 02       		.byte	0x2
 1642 005d 05       		.byte	0x5
 1643 005e 1F030000 		.4byte	.LASF5
 1644 0062 04       		.uleb128 0x4
 1645 0063 02       		.byte	0x2
 1646 0064 07       		.byte	0x7
 1647 0065 AC010000 		.4byte	.LASF6
 1648 0069 03       		.uleb128 0x3
 1649 006a FF020000 		.4byte	.LASF7
 1650 006e 03       		.byte	0x3
 1651 006f 4F       		.byte	0x4f
 1652 0070 74000000 		.4byte	0x74
 1653 0074 04       		.uleb128 0x4
 1654 0075 04       		.byte	0x4
 1655 0076 05       		.byte	0x5
 1656 0077 B6000000 		.4byte	.LASF8
 1657 007b 03       		.uleb128 0x3
 1658 007c 7B030000 		.4byte	.LASF9
 1659 0080 03       		.byte	0x3
 1660 0081 50       		.byte	0x50
 1661 0082 86000000 		.4byte	0x86
 1662 0086 04       		.uleb128 0x4
 1663 0087 04       		.byte	0x4
 1664 0088 07       		.byte	0x7
 1665 0089 84010000 		.4byte	.LASF10
 1666 008d 04       		.uleb128 0x4
 1667 008e 08       		.byte	0x8
 1668 008f 05       		.byte	0x5
 1669 0090 7B000000 		.4byte	.LASF11
 1670 0094 03       		.uleb128 0x3
 1671 0095 14000000 		.4byte	.LASF12
 1672 0099 03       		.byte	0x3
 1673 009a 78       		.byte	0x78
 1674 009b 9F000000 		.4byte	0x9f
 1675 009f 04       		.uleb128 0x4
 1676 00a0 08       		.byte	0x8
 1677 00a1 07       		.byte	0x7
 1678 00a2 37000000 		.4byte	.LASF13
 1679 00a6 03       		.uleb128 0x3
 1680 00a7 9D000000 		.4byte	.LASF14
 1681 00ab 04       		.byte	0x4
 1682 00ac 24       		.byte	0x24
 1683 00ad B1000000 		.4byte	0xb1
 1684 00b1 04       		.uleb128 0x4
 1685 00b2 01       		.byte	0x1
 1686 00b3 02       		.byte	0x2
 1687 00b4 F9020000 		.4byte	.LASF15
 1688 00b8 03       		.uleb128 0x3
 1689 00b9 E1010000 		.4byte	.LASF16
 1690 00bd 04       		.byte	0x4
 1691 00be 25       		.byte	0x25
 1692 00bf 49000000 		.4byte	0x49
ARM GAS  /tmp/ccQeRi3A.s 			page 31


 1693 00c3 03       		.uleb128 0x3
 1694 00c4 39010000 		.4byte	.LASF17
 1695 00c8 04       		.byte	0x4
 1696 00c9 26       		.byte	0x26
 1697 00ca 49000000 		.4byte	0x49
 1698 00ce 03       		.uleb128 0x3
 1699 00cf C8020000 		.4byte	.LASF18
 1700 00d3 04       		.byte	0x4
 1701 00d4 27       		.byte	0x27
 1702 00d5 49000000 		.4byte	0x49
 1703 00d9 03       		.uleb128 0x3
 1704 00da AC000000 		.4byte	.LASF19
 1705 00de 04       		.byte	0x4
 1706 00df 28       		.byte	0x28
 1707 00e0 49000000 		.4byte	0x49
 1708 00e4 03       		.uleb128 0x3
 1709 00e5 E9020000 		.4byte	.LASF20
 1710 00e9 04       		.byte	0x4
 1711 00ea 29       		.byte	0x29
 1712 00eb 7B000000 		.4byte	0x7b
 1713 00ef 03       		.uleb128 0x3
 1714 00f0 DB010000 		.4byte	.LASF21
 1715 00f4 04       		.byte	0x4
 1716 00f5 2A       		.byte	0x2a
 1717 00f6 69000000 		.4byte	0x69
 1718 00fa 03       		.uleb128 0x3
 1719 00fb F5010000 		.4byte	.LASF22
 1720 00ff 04       		.byte	0x4
 1721 0100 2C       		.byte	0x2c
 1722 0101 7B000000 		.4byte	0x7b
 1723 0105 03       		.uleb128 0x3
 1724 0106 A5030000 		.4byte	.LASF23
 1725 010a 04       		.byte	0x4
 1726 010b 2E       		.byte	0x2e
 1727 010c 7B000000 		.4byte	0x7b
 1728 0110 03       		.uleb128 0x3
 1729 0111 60030000 		.4byte	.LASF24
 1730 0115 05       		.byte	0x5
 1731 0116 23       		.byte	0x23
 1732 0117 1B010000 		.4byte	0x11b
 1733 011b 05       		.uleb128 0x5
 1734 011c 60030000 		.4byte	.LASF24
 1735 0120 4C       		.byte	0x4c
 1736 0121 06       		.byte	0x6
 1737 0122 57       		.byte	0x57
 1738 0123 4E020000 		.4byte	0x24e
 1739 0127 06       		.uleb128 0x6
 1740 0128 51030000 		.4byte	.LASF25
 1741 012c 06       		.byte	0x6
 1742 012d 58       		.byte	0x58
 1743 012e 73020000 		.4byte	0x273
 1744 0132 02       		.byte	0x2
 1745 0133 23       		.byte	0x23
 1746 0134 00       		.uleb128 0
 1747 0135 06       		.uleb128 0x6
 1748 0136 DA020000 		.4byte	.LASF26
 1749 013a 06       		.byte	0x6
ARM GAS  /tmp/ccQeRi3A.s 			page 32


 1750 013b 5A       		.byte	0x5a
 1751 013c 73020000 		.4byte	0x273
 1752 0140 02       		.byte	0x2
 1753 0141 23       		.byte	0x23
 1754 0142 04       		.uleb128 0x4
 1755 0143 06       		.uleb128 0x6
 1756 0144 6A000000 		.4byte	.LASF27
 1757 0148 06       		.byte	0x6
 1758 0149 5C       		.byte	0x5c
 1759 014a E4000000 		.4byte	0xe4
 1760 014e 02       		.byte	0x2
 1761 014f 23       		.byte	0x23
 1762 0150 08       		.uleb128 0x8
 1763 0151 06       		.uleb128 0x6
 1764 0152 25040000 		.4byte	.LASF28
 1765 0156 06       		.byte	0x6
 1766 0157 5D       		.byte	0x5d
 1767 0158 4C030000 		.4byte	0x34c
 1768 015c 02       		.byte	0x2
 1769 015d 23       		.byte	0x23
 1770 015e 0C       		.uleb128 0xc
 1771 015f 06       		.uleb128 0x6
 1772 0160 53010000 		.4byte	.LASF29
 1773 0164 06       		.byte	0x6
 1774 0165 5F       		.byte	0x5f
 1775 0166 73020000 		.4byte	0x273
 1776 016a 02       		.byte	0x2
 1777 016b 23       		.byte	0x23
 1778 016c 10       		.uleb128 0x10
 1779 016d 06       		.uleb128 0x6
 1780 016e 57020000 		.4byte	.LASF30
 1781 0172 06       		.byte	0x6
 1782 0173 60       		.byte	0x60
 1783 0174 73020000 		.4byte	0x273
 1784 0178 02       		.byte	0x2
 1785 0179 23       		.byte	0x23
 1786 017a 14       		.uleb128 0x14
 1787 017b 06       		.uleb128 0x6
 1788 017c 0F040000 		.4byte	.LASF31
 1789 0180 06       		.byte	0x6
 1790 0181 67       		.byte	0x67
 1791 0182 59040000 		.4byte	0x459
 1792 0186 02       		.byte	0x2
 1793 0187 23       		.byte	0x23
 1794 0188 18       		.uleb128 0x18
 1795 0189 06       		.uleb128 0x6
 1796 018a 6C010000 		.4byte	.LASF32
 1797 018e 06       		.byte	0x6
 1798 018f 6D       		.byte	0x6d
 1799 0190 6B040000 		.4byte	0x46b
 1800 0194 02       		.byte	0x2
 1801 0195 23       		.byte	0x23
 1802 0196 1C       		.uleb128 0x1c
 1803 0197 06       		.uleb128 0x6
 1804 0198 29030000 		.4byte	.LASF33
 1805 019c 06       		.byte	0x6
 1806 019d 72       		.byte	0x72
ARM GAS  /tmp/ccQeRi3A.s 			page 33


 1807 019e C3000000 		.4byte	0xc3
 1808 01a2 02       		.byte	0x2
 1809 01a3 23       		.byte	0x23
 1810 01a4 20       		.uleb128 0x20
 1811 01a5 06       		.uleb128 0x6
 1812 01a6 58030000 		.4byte	.LASF34
 1813 01aa 06       		.byte	0x6
 1814 01ab 76       		.byte	0x76
 1815 01ac B8000000 		.4byte	0xb8
 1816 01b0 02       		.byte	0x2
 1817 01b1 23       		.byte	0x23
 1818 01b2 21       		.uleb128 0x21
 1819 01b3 06       		.uleb128 0x6
 1820 01b4 E0030000 		.4byte	.LASF35
 1821 01b8 06       		.byte	0x6
 1822 01b9 7B       		.byte	0x7b
 1823 01ba CE000000 		.4byte	0xce
 1824 01be 02       		.byte	0x2
 1825 01bf 23       		.byte	0x23
 1826 01c0 22       		.uleb128 0x22
 1827 01c1 06       		.uleb128 0x6
 1828 01c2 31030000 		.4byte	.LASF36
 1829 01c6 06       		.byte	0x6
 1830 01c7 81       		.byte	0x81
 1831 01c8 D9000000 		.4byte	0xd9
 1832 01cc 02       		.byte	0x2
 1833 01cd 23       		.byte	0x23
 1834 01ce 23       		.uleb128 0x23
 1835 01cf 06       		.uleb128 0x6
 1836 01d0 C1030000 		.4byte	.LASF37
 1837 01d4 06       		.byte	0x6
 1838 01d5 88       		.byte	0x88
 1839 01d6 6F030000 		.4byte	0x36f
 1840 01da 02       		.byte	0x2
 1841 01db 23       		.byte	0x23
 1842 01dc 24       		.uleb128 0x24
 1843 01dd 07       		.uleb128 0x7
 1844 01de 705F7500 		.ascii	"p_u\000"
 1845 01e2 06       		.byte	0x6
 1846 01e3 AD       		.byte	0xad
 1847 01e4 24040000 		.4byte	0x424
 1848 01e8 02       		.byte	0x2
 1849 01e9 23       		.byte	0x23
 1850 01ea 28       		.uleb128 0x28
 1851 01eb 06       		.uleb128 0x6
 1852 01ec 2B040000 		.4byte	.LASF38
 1853 01f0 06       		.byte	0x6
 1854 01f1 B2       		.byte	0xb2
 1855 01f2 9B020000 		.4byte	0x29b
 1856 01f6 02       		.byte	0x2
 1857 01f7 23       		.byte	0x23
 1858 01f8 2C       		.uleb128 0x2c
 1859 01f9 06       		.uleb128 0x6
 1860 01fa CF030000 		.4byte	.LASF39
 1861 01fe 06       		.byte	0x6
 1862 01ff B8       		.byte	0xb8
 1863 0200 79020000 		.4byte	0x279
ARM GAS  /tmp/ccQeRi3A.s 			page 34


 1864 0204 02       		.byte	0x2
 1865 0205 23       		.byte	0x23
 1866 0206 30       		.uleb128 0x30
 1867 0207 06       		.uleb128 0x6
 1868 0208 00000000 		.4byte	.LASF40
 1869 020c 06       		.byte	0x6
 1870 020d BC       		.byte	0xbc
 1871 020e EF000000 		.4byte	0xef
 1872 0212 02       		.byte	0x2
 1873 0213 23       		.byte	0x23
 1874 0214 38       		.uleb128 0x38
 1875 0215 06       		.uleb128 0x6
 1876 0216 70030000 		.4byte	.LASF41
 1877 021a 06       		.byte	0x6
 1878 021b C2       		.byte	0xc2
 1879 021c FA000000 		.4byte	0xfa
 1880 0220 02       		.byte	0x2
 1881 0221 23       		.byte	0x23
 1882 0222 3C       		.uleb128 0x3c
 1883 0223 06       		.uleb128 0x6
 1884 0224 15030000 		.4byte	.LASF42
 1885 0228 06       		.byte	0x6
 1886 0229 C9       		.byte	0xc9
 1887 022a 71040000 		.4byte	0x471
 1888 022e 02       		.byte	0x2
 1889 022f 23       		.byte	0x23
 1890 0230 40       		.uleb128 0x40
 1891 0231 06       		.uleb128 0x6
 1892 0232 AF030000 		.4byte	.LASF43
 1893 0236 06       		.byte	0x6
 1894 0237 CD       		.byte	0xcd
 1895 0238 E4000000 		.4byte	0xe4
 1896 023c 02       		.byte	0x2
 1897 023d 23       		.byte	0x23
 1898 023e 44       		.uleb128 0x44
 1899 023f 06       		.uleb128 0x6
 1900 0240 95000000 		.4byte	.LASF44
 1901 0244 06       		.byte	0x6
 1902 0245 D3       		.byte	0xd3
 1903 0246 B1020000 		.4byte	0x2b1
 1904 024a 02       		.byte	0x2
 1905 024b 23       		.byte	0x23
 1906 024c 48       		.uleb128 0x48
 1907 024d 00       		.byte	0
 1908 024e 08       		.uleb128 0x8
 1909 024f 08       		.byte	0x8
 1910 0250 05       		.byte	0x5
 1911 0251 5A       		.byte	0x5a
 1912 0252 73020000 		.4byte	0x273
 1913 0256 06       		.uleb128 0x6
 1914 0257 51030000 		.4byte	.LASF25
 1915 025b 05       		.byte	0x5
 1916 025c 5B       		.byte	0x5b
 1917 025d 73020000 		.4byte	0x273
 1918 0261 02       		.byte	0x2
 1919 0262 23       		.byte	0x23
 1920 0263 00       		.uleb128 0
ARM GAS  /tmp/ccQeRi3A.s 			page 35


 1921 0264 06       		.uleb128 0x6
 1922 0265 DA020000 		.4byte	.LASF26
 1923 0269 05       		.byte	0x5
 1924 026a 5D       		.byte	0x5d
 1925 026b 73020000 		.4byte	0x273
 1926 026f 02       		.byte	0x2
 1927 0270 23       		.byte	0x23
 1928 0271 04       		.uleb128 0x4
 1929 0272 00       		.byte	0
 1930 0273 09       		.uleb128 0x9
 1931 0274 04       		.byte	0x4
 1932 0275 10010000 		.4byte	0x110
 1933 0279 03       		.uleb128 0x3
 1934 027a 75020000 		.4byte	.LASF45
 1935 027e 05       		.byte	0x5
 1936 027f 5F       		.byte	0x5f
 1937 0280 4E020000 		.4byte	0x24e
 1938 0284 08       		.uleb128 0x8
 1939 0285 04       		.byte	0x4
 1940 0286 05       		.byte	0x5
 1941 0287 64       		.byte	0x64
 1942 0288 9B020000 		.4byte	0x29b
 1943 028c 06       		.uleb128 0x6
 1944 028d 51030000 		.4byte	.LASF25
 1945 0291 05       		.byte	0x5
 1946 0292 66       		.byte	0x66
 1947 0293 73020000 		.4byte	0x273
 1948 0297 02       		.byte	0x2
 1949 0298 23       		.byte	0x23
 1950 0299 00       		.uleb128 0
 1951 029a 00       		.byte	0
 1952 029b 03       		.uleb128 0x3
 1953 029c E9010000 		.4byte	.LASF46
 1954 02a0 05       		.byte	0x5
 1955 02a1 69       		.byte	0x69
 1956 02a2 84020000 		.4byte	0x284
 1957 02a6 03       		.uleb128 0x3
 1958 02a7 63010000 		.4byte	.LASF47
 1959 02ab 07       		.byte	0x7
 1960 02ac DE       		.byte	0xde
 1961 02ad B1020000 		.4byte	0x2b1
 1962 02b1 0A       		.uleb128 0xa
 1963 02b2 04       		.byte	0x4
 1964 02b3 03       		.uleb128 0x3
 1965 02b4 1F020000 		.4byte	.LASF48
 1966 02b8 07       		.byte	0x7
 1967 02b9 E4       		.byte	0xe4
 1968 02ba 94000000 		.4byte	0x94
 1969 02be 0B       		.uleb128 0xb
 1970 02bf C8030000 		.4byte	.LASF49
 1971 02c3 24       		.byte	0x24
 1972 02c4 07       		.byte	0x7
 1973 02c5 0501     		.2byte	0x105
 1974 02c7 4C030000 		.4byte	0x34c
 1975 02cb 0C       		.uleb128 0xc
 1976 02cc 723400   		.ascii	"r4\000"
 1977 02cf 07       		.byte	0x7
ARM GAS  /tmp/ccQeRi3A.s 			page 36


 1978 02d0 1801     		.2byte	0x118
 1979 02d2 A6020000 		.4byte	0x2a6
 1980 02d6 02       		.byte	0x2
 1981 02d7 23       		.byte	0x23
 1982 02d8 00       		.uleb128 0
 1983 02d9 0C       		.uleb128 0xc
 1984 02da 723500   		.ascii	"r5\000"
 1985 02dd 07       		.byte	0x7
 1986 02de 1901     		.2byte	0x119
 1987 02e0 A6020000 		.4byte	0x2a6
 1988 02e4 02       		.byte	0x2
 1989 02e5 23       		.byte	0x23
 1990 02e6 04       		.uleb128 0x4
 1991 02e7 0C       		.uleb128 0xc
 1992 02e8 723600   		.ascii	"r6\000"
 1993 02eb 07       		.byte	0x7
 1994 02ec 1A01     		.2byte	0x11a
 1995 02ee A6020000 		.4byte	0x2a6
 1996 02f2 02       		.byte	0x2
 1997 02f3 23       		.byte	0x23
 1998 02f4 08       		.uleb128 0x8
 1999 02f5 0C       		.uleb128 0xc
 2000 02f6 723700   		.ascii	"r7\000"
 2001 02f9 07       		.byte	0x7
 2002 02fa 1B01     		.2byte	0x11b
 2003 02fc A6020000 		.4byte	0x2a6
 2004 0300 02       		.byte	0x2
 2005 0301 23       		.byte	0x23
 2006 0302 0C       		.uleb128 0xc
 2007 0303 0C       		.uleb128 0xc
 2008 0304 723800   		.ascii	"r8\000"
 2009 0307 07       		.byte	0x7
 2010 0308 1C01     		.2byte	0x11c
 2011 030a A6020000 		.4byte	0x2a6
 2012 030e 02       		.byte	0x2
 2013 030f 23       		.byte	0x23
 2014 0310 10       		.uleb128 0x10
 2015 0311 0C       		.uleb128 0xc
 2016 0312 723900   		.ascii	"r9\000"
 2017 0315 07       		.byte	0x7
 2018 0316 1D01     		.2byte	0x11d
 2019 0318 A6020000 		.4byte	0x2a6
 2020 031c 02       		.byte	0x2
 2021 031d 23       		.byte	0x23
 2022 031e 14       		.uleb128 0x14
 2023 031f 0C       		.uleb128 0xc
 2024 0320 72313000 		.ascii	"r10\000"
 2025 0324 07       		.byte	0x7
 2026 0325 1E01     		.2byte	0x11e
 2027 0327 A6020000 		.4byte	0x2a6
 2028 032b 02       		.byte	0x2
 2029 032c 23       		.byte	0x23
 2030 032d 18       		.uleb128 0x18
 2031 032e 0C       		.uleb128 0xc
 2032 032f 72313100 		.ascii	"r11\000"
 2033 0333 07       		.byte	0x7
 2034 0334 1F01     		.2byte	0x11f
ARM GAS  /tmp/ccQeRi3A.s 			page 37


 2035 0336 A6020000 		.4byte	0x2a6
 2036 033a 02       		.byte	0x2
 2037 033b 23       		.byte	0x23
 2038 033c 1C       		.uleb128 0x1c
 2039 033d 0C       		.uleb128 0xc
 2040 033e 6C7200   		.ascii	"lr\000"
 2041 0341 07       		.byte	0x7
 2042 0342 2001     		.2byte	0x120
 2043 0344 A6020000 		.4byte	0x2a6
 2044 0348 02       		.byte	0x2
 2045 0349 23       		.byte	0x23
 2046 034a 20       		.uleb128 0x20
 2047 034b 00       		.byte	0
 2048 034c 0B       		.uleb128 0xb
 2049 034d A4010000 		.4byte	.LASF50
 2050 0351 04       		.byte	0x4
 2051 0352 07       		.byte	0x7
 2052 0353 2A01     		.2byte	0x12a
 2053 0355 69030000 		.4byte	0x369
 2054 0359 0C       		.uleb128 0xc
 2055 035a 72313300 		.ascii	"r13\000"
 2056 035e 07       		.byte	0x7
 2057 035f 2B01     		.2byte	0x12b
 2058 0361 69030000 		.4byte	0x369
 2059 0365 02       		.byte	0x2
 2060 0366 23       		.byte	0x23
 2061 0367 00       		.uleb128 0
 2062 0368 00       		.byte	0
 2063 0369 09       		.uleb128 0x9
 2064 036a 04       		.byte	0x4
 2065 036b BE020000 		.4byte	0x2be
 2066 036f 0D       		.uleb128 0xd
 2067 0370 05010000 		.4byte	0x105
 2068 0374 08       		.uleb128 0x8
 2069 0375 1C       		.byte	0x1c
 2070 0376 08       		.byte	0x8
 2071 0377 57       		.byte	0x57
 2072 0378 D1030000 		.4byte	0x3d1
 2073 037c 06       		.uleb128 0x6
 2074 037d 84030000 		.4byte	.LASF51
 2075 0381 08       		.byte	0x8
 2076 0382 58       		.byte	0x58
 2077 0383 79020000 		.4byte	0x279
 2078 0387 02       		.byte	0x2
 2079 0388 23       		.byte	0x23
 2080 0389 00       		.uleb128 0
 2081 038a 06       		.uleb128 0x6
 2082 038b 43030000 		.4byte	.LASF52
 2083 038f 08       		.byte	0x8
 2084 0390 59       		.byte	0x59
 2085 0391 E4000000 		.4byte	0xe4
 2086 0395 02       		.byte	0x2
 2087 0396 23       		.byte	0x23
 2088 0397 08       		.uleb128 0x8
 2089 0398 06       		.uleb128 0x6
 2090 0399 6F020000 		.4byte	.LASF53
 2091 039d 08       		.byte	0x8
ARM GAS  /tmp/ccQeRi3A.s 			page 38


 2092 039e 5B       		.byte	0x5b
 2093 039f 4C030000 		.4byte	0x34c
 2094 03a3 02       		.byte	0x2
 2095 03a4 23       		.byte	0x23
 2096 03a5 0C       		.uleb128 0xc
 2097 03a6 06       		.uleb128 0x6
 2098 03a7 5B010000 		.4byte	.LASF54
 2099 03ab 08       		.byte	0x8
 2100 03ac 5E       		.byte	0x5e
 2101 03ad 73020000 		.4byte	0x273
 2102 03b1 02       		.byte	0x2
 2103 03b2 23       		.byte	0x23
 2104 03b3 10       		.uleb128 0x10
 2105 03b4 06       		.uleb128 0x6
 2106 03b5 92020000 		.4byte	.LASF55
 2107 03b9 08       		.byte	0x8
 2108 03ba 5F       		.byte	0x5f
 2109 03bb 73020000 		.4byte	0x273
 2110 03bf 02       		.byte	0x2
 2111 03c0 23       		.byte	0x23
 2112 03c1 14       		.uleb128 0x14
 2113 03c2 06       		.uleb128 0x6
 2114 03c3 88020000 		.4byte	.LASF56
 2115 03c7 08       		.byte	0x8
 2116 03c8 62       		.byte	0x62
 2117 03c9 73020000 		.4byte	0x273
 2118 03cd 02       		.byte	0x2
 2119 03ce 23       		.byte	0x23
 2120 03cf 18       		.uleb128 0x18
 2121 03d0 00       		.byte	0
 2122 03d1 03       		.uleb128 0x3
 2123 03d2 E7030000 		.4byte	.LASF57
 2124 03d6 08       		.byte	0x8
 2125 03d7 64       		.byte	0x64
 2126 03d8 74030000 		.4byte	0x374
 2127 03dc 05       		.uleb128 0x5
 2128 03dd 0C020000 		.4byte	.LASF58
 2129 03e1 10       		.byte	0x10
 2130 03e2 09       		.byte	0x9
 2131 03e3 25       		.byte	0x25
 2132 03e4 13040000 		.4byte	0x413
 2133 03e8 06       		.uleb128 0x6
 2134 03e9 A4000000 		.4byte	.LASF59
 2135 03ed 09       		.byte	0x9
 2136 03ee 26       		.byte	0x26
 2137 03ef 79020000 		.4byte	0x279
 2138 03f3 02       		.byte	0x2
 2139 03f4 23       		.byte	0x23
 2140 03f5 00       		.uleb128 0
 2141 03f6 06       		.uleb128 0x6
 2142 03f7 1D040000 		.4byte	.LASF60
 2143 03fb 09       		.byte	0x9
 2144 03fc 28       		.byte	0x28
 2145 03fd 73020000 		.4byte	0x273
 2146 0401 02       		.byte	0x2
 2147 0402 23       		.byte	0x23
 2148 0403 08       		.uleb128 0x8
ARM GAS  /tmp/ccQeRi3A.s 			page 39


 2149 0404 06       		.uleb128 0x6
 2150 0405 9E030000 		.4byte	.LASF61
 2151 0409 09       		.byte	0x9
 2152 040a 2A       		.byte	0x2a
 2153 040b 13040000 		.4byte	0x413
 2154 040f 02       		.byte	0x2
 2155 0410 23       		.byte	0x23
 2156 0411 0C       		.uleb128 0xc
 2157 0412 00       		.byte	0
 2158 0413 09       		.uleb128 0x9
 2159 0414 04       		.byte	0x4
 2160 0415 DC030000 		.4byte	0x3dc
 2161 0419 03       		.uleb128 0x3
 2162 041a 0C020000 		.4byte	.LASF58
 2163 041e 09       		.byte	0x9
 2164 041f 2C       		.byte	0x2c
 2165 0420 DC030000 		.4byte	0x3dc
 2166 0424 0E       		.uleb128 0xe
 2167 0425 04       		.byte	0x4
 2168 0426 06       		.byte	0x6
 2169 0427 8F       		.byte	0x8f
 2170 0428 59040000 		.4byte	0x459
 2171 042c 0F       		.uleb128 0xf
 2172 042d 0D000000 		.4byte	.LASF62
 2173 0431 06       		.byte	0x6
 2174 0432 96       		.byte	0x96
 2175 0433 EF000000 		.4byte	0xef
 2176 0437 0F       		.uleb128 0xf
 2177 0438 4E000000 		.4byte	.LASF63
 2178 043c 06       		.byte	0x6
 2179 043d 9D       		.byte	0x9d
 2180 043e EF000000 		.4byte	0xef
 2181 0442 0F       		.uleb128 0xf
 2182 0443 08040000 		.4byte	.LASF64
 2183 0447 06       		.byte	0x6
 2184 0448 A4       		.byte	0xa4
 2185 0449 B1020000 		.4byte	0x2b1
 2186 044d 0F       		.uleb128 0xf
 2187 044e 4A030000 		.4byte	.LASF65
 2188 0452 06       		.byte	0x6
 2189 0453 AB       		.byte	0xab
 2190 0454 FA000000 		.4byte	0xfa
 2191 0458 00       		.byte	0
 2192 0459 09       		.uleb128 0x9
 2193 045a 04       		.byte	0x4
 2194 045b 5F040000 		.4byte	0x45f
 2195 045f 10       		.uleb128 0x10
 2196 0460 64040000 		.4byte	0x464
 2197 0464 04       		.uleb128 0x4
 2198 0465 01       		.byte	0x1
 2199 0466 08       		.byte	0x8
 2200 0467 8C030000 		.4byte	.LASF66
 2201 046b 09       		.uleb128 0x9
 2202 046c 04       		.byte	0x4
 2203 046d B3020000 		.4byte	0x2b3
 2204 0471 09       		.uleb128 0x9
 2205 0472 04       		.byte	0x4
ARM GAS  /tmp/ccQeRi3A.s 			page 40


 2206 0473 19040000 		.4byte	0x419
 2207 0477 03       		.uleb128 0x3
 2208 0478 12020000 		.4byte	.LASF67
 2209 047c 0A       		.byte	0xa
 2210 047d 30       		.byte	0x30
 2211 047e 82040000 		.4byte	0x482
 2212 0482 05       		.uleb128 0x5
 2213 0483 12020000 		.4byte	.LASF67
 2214 0487 24       		.byte	0x24
 2215 0488 0A       		.byte	0xa
 2216 0489 3E       		.byte	0x3e
 2217 048a FF040000 		.4byte	0x4ff
 2218 048e 06       		.uleb128 0x6
 2219 048f 71000000 		.4byte	.LASF68
 2220 0493 0A       		.byte	0xa
 2221 0494 3F       		.byte	0x3f
 2222 0495 79020000 		.4byte	0x279
 2223 0499 02       		.byte	0x2
 2224 049a 23       		.byte	0x23
 2225 049b 00       		.uleb128 0
 2226 049c 06       		.uleb128 0x6
 2227 049d 41020000 		.4byte	.LASF69
 2228 04a1 0A       		.byte	0xa
 2229 04a2 40       		.byte	0x40
 2230 04a3 30000000 		.4byte	0x30
 2231 04a7 02       		.byte	0x2
 2232 04a8 23       		.byte	0x23
 2233 04a9 08       		.uleb128 0x8
 2234 04aa 06       		.uleb128 0x6
 2235 04ab 42010000 		.4byte	.LASF70
 2236 04af 0A       		.byte	0xa
 2237 04b0 41       		.byte	0x41
 2238 04b1 22050000 		.4byte	0x522
 2239 04b5 02       		.byte	0x2
 2240 04b6 23       		.byte	0x23
 2241 04b7 0C       		.uleb128 0xc
 2242 04b8 06       		.uleb128 0x6
 2243 04b9 DA030000 		.4byte	.LASF71
 2244 04bd 0A       		.byte	0xa
 2245 04be 42       		.byte	0x42
 2246 04bf 22050000 		.4byte	0x522
 2247 04c3 02       		.byte	0x2
 2248 04c4 23       		.byte	0x23
 2249 04c5 10       		.uleb128 0x10
 2250 04c6 06       		.uleb128 0x6
 2251 04c7 4B010000 		.4byte	.LASF72
 2252 04cb 0A       		.byte	0xa
 2253 04cc 44       		.byte	0x44
 2254 04cd 22050000 		.4byte	0x522
 2255 04d1 02       		.byte	0x2
 2256 04d2 23       		.byte	0x23
 2257 04d3 14       		.uleb128 0x14
 2258 04d4 06       		.uleb128 0x6
 2259 04d5 F1020000 		.4byte	.LASF73
 2260 04d9 0A       		.byte	0xa
 2261 04da 45       		.byte	0x45
 2262 04db 22050000 		.4byte	0x522
ARM GAS  /tmp/ccQeRi3A.s 			page 41


 2263 04df 02       		.byte	0x2
 2264 04e0 23       		.byte	0x23
 2265 04e1 18       		.uleb128 0x18
 2266 04e2 06       		.uleb128 0x6
 2267 04e3 F1030000 		.4byte	.LASF74
 2268 04e7 0A       		.byte	0xa
 2269 04e8 46       		.byte	0x46
 2270 04e9 FF040000 		.4byte	0x4ff
 2271 04ed 02       		.byte	0x2
 2272 04ee 23       		.byte	0x23
 2273 04ef 1C       		.uleb128 0x1c
 2274 04f0 06       		.uleb128 0x6
 2275 04f1 16040000 		.4byte	.LASF75
 2276 04f5 0A       		.byte	0xa
 2277 04f6 47       		.byte	0x47
 2278 04f7 B1020000 		.4byte	0x2b1
 2279 04fb 02       		.byte	0x2
 2280 04fc 23       		.byte	0x23
 2281 04fd 20       		.uleb128 0x20
 2282 04fe 00       		.byte	0
 2283 04ff 03       		.uleb128 0x3
 2284 0500 D0020000 		.4byte	.LASF76
 2285 0504 0A       		.byte	0xa
 2286 0505 33       		.byte	0x33
 2287 0506 0A050000 		.4byte	0x50a
 2288 050a 09       		.uleb128 0x9
 2289 050b 04       		.byte	0x4
 2290 050c 10050000 		.4byte	0x510
 2291 0510 11       		.uleb128 0x11
 2292 0511 01       		.byte	0x1
 2293 0512 1C050000 		.4byte	0x51c
 2294 0516 12       		.uleb128 0x12
 2295 0517 1C050000 		.4byte	0x51c
 2296 051b 00       		.byte	0
 2297 051c 09       		.uleb128 0x9
 2298 051d 04       		.byte	0x4
 2299 051e 77040000 		.4byte	0x477
 2300 0522 09       		.uleb128 0x9
 2301 0523 04       		.byte	0x4
 2302 0524 49000000 		.4byte	0x49
 2303 0528 03       		.uleb128 0x3
 2304 0529 01020000 		.4byte	.LASF77
 2305 052d 0A       		.byte	0xa
 2306 052e 7B       		.byte	0x7b
 2307 052f 77040000 		.4byte	0x477
 2308 0533 03       		.uleb128 0x3
 2309 0534 1D000000 		.4byte	.LASF78
 2310 0538 0A       		.byte	0xa
 2311 0539 EE       		.byte	0xee
 2312 053a 77040000 		.4byte	0x477
 2313 053e 05       		.uleb128 0x5
 2314 053f 67030000 		.4byte	.LASF79
 2315 0543 10       		.byte	0x10
 2316 0544 0B       		.byte	0xb
 2317 0545 3B       		.byte	0x3b
 2318 0546 83050000 		.4byte	0x583
 2319 054a 06       		.uleb128 0x6
ARM GAS  /tmp/ccQeRi3A.s 			page 42


 2320 054b 9F010000 		.4byte	.LASF80
 2321 054f 0B       		.byte	0xb
 2322 0550 3C       		.byte	0x3c
 2323 0551 59040000 		.4byte	0x459
 2324 0555 02       		.byte	0x2
 2325 0556 23       		.byte	0x23
 2326 0557 00       		.uleb128 0
 2327 0558 06       		.uleb128 0x6
 2328 0559 82020000 		.4byte	.LASF81
 2329 055d 0B       		.byte	0xb
 2330 055e 3D       		.byte	0x3d
 2331 055f 85050000 		.4byte	0x585
 2332 0563 02       		.byte	0x2
 2333 0564 23       		.byte	0x23
 2334 0565 04       		.uleb128 0x4
 2335 0566 06       		.uleb128 0x6
 2336 0567 96010000 		.4byte	.LASF82
 2337 056b 0B       		.byte	0xb
 2338 056c 3E       		.byte	0x3e
 2339 056d 85050000 		.4byte	0x585
 2340 0571 02       		.byte	0x2
 2341 0572 23       		.byte	0x23
 2342 0573 08       		.uleb128 0x8
 2343 0574 06       		.uleb128 0x6
 2344 0575 E1020000 		.4byte	.LASF83
 2345 0579 0B       		.byte	0xb
 2346 057a 3F       		.byte	0x3f
 2347 057b 85050000 		.4byte	0x585
 2348 057f 02       		.byte	0x2
 2349 0580 23       		.byte	0x23
 2350 0581 0C       		.uleb128 0xc
 2351 0582 00       		.byte	0
 2352 0583 13       		.uleb128 0x13
 2353 0584 01       		.byte	0x1
 2354 0585 09       		.uleb128 0x9
 2355 0586 04       		.byte	0x4
 2356 0587 83050000 		.4byte	0x583
 2357 058b 14       		.uleb128 0x14
 2358 058c 500A     		.2byte	0xa50
 2359 058e 0B       		.byte	0xb
 2360 058f 44       		.byte	0x44
 2361 0590 DA050000 		.4byte	0x5da
 2362 0594 07       		.uleb128 0x7
 2363 0595 543000   		.ascii	"T0\000"
 2364 0598 0B       		.byte	0xb
 2365 0599 45       		.byte	0x45
 2366 059a DA050000 		.4byte	0x5da
 2367 059e 02       		.byte	0x2
 2368 059f 23       		.byte	0x23
 2369 05a0 00       		.uleb128 0
 2370 05a1 07       		.uleb128 0x7
 2371 05a2 543100   		.ascii	"T1\000"
 2372 05a5 0B       		.byte	0xb
 2373 05a6 46       		.byte	0x46
 2374 05a7 DA050000 		.4byte	0x5da
 2375 05ab 03       		.byte	0x3
 2376 05ac 23       		.byte	0x23
ARM GAS  /tmp/ccQeRi3A.s 			page 43


 2377 05ad 9004     		.uleb128 0x210
 2378 05af 07       		.uleb128 0x7
 2379 05b0 543200   		.ascii	"T2\000"
 2380 05b3 0B       		.byte	0xb
 2381 05b4 47       		.byte	0x47
 2382 05b5 DA050000 		.4byte	0x5da
 2383 05b9 03       		.byte	0x3
 2384 05ba 23       		.byte	0x23
 2385 05bb A008     		.uleb128 0x420
 2386 05bd 07       		.uleb128 0x7
 2387 05be 543300   		.ascii	"T3\000"
 2388 05c1 0B       		.byte	0xb
 2389 05c2 48       		.byte	0x48
 2390 05c3 DA050000 		.4byte	0x5da
 2391 05c7 03       		.byte	0x3
 2392 05c8 23       		.byte	0x23
 2393 05c9 B00C     		.uleb128 0x630
 2394 05cb 07       		.uleb128 0x7
 2395 05cc 543400   		.ascii	"T4\000"
 2396 05cf 0B       		.byte	0xb
 2397 05d0 49       		.byte	0x49
 2398 05d1 DA050000 		.4byte	0x5da
 2399 05d5 03       		.byte	0x3
 2400 05d6 23       		.byte	0x23
 2401 05d7 C010     		.uleb128 0x840
 2402 05d9 00       		.byte	0
 2403 05da 15       		.uleb128 0x15
 2404 05db B3020000 		.4byte	0x2b3
 2405 05df EA050000 		.4byte	0x5ea
 2406 05e3 16       		.uleb128 0x16
 2407 05e4 3B000000 		.4byte	0x3b
 2408 05e8 41       		.byte	0x41
 2409 05e9 00       		.byte	0
 2410 05ea 17       		.uleb128 0x17
 2411 05eb 91030000 		.4byte	.LASF100
 2412 05ef 500A     		.2byte	0xa50
 2413 05f1 0B       		.byte	0xb
 2414 05f2 43       		.byte	0x43
 2415 05f3 0D060000 		.4byte	0x60d
 2416 05f7 18       		.uleb128 0x18
 2417 05f8 776100   		.ascii	"wa\000"
 2418 05fb 0B       		.byte	0xb
 2419 05fc 4A       		.byte	0x4a
 2420 05fd 8B050000 		.4byte	0x58b
 2421 0601 0F       		.uleb128 0xf
 2422 0602 BA030000 		.4byte	.LASF84
 2423 0606 0B       		.byte	0xb
 2424 0607 4B       		.byte	0x4b
 2425 0608 0D060000 		.4byte	0x60d
 2426 060c 00       		.byte	0
 2427 060d 15       		.uleb128 0x15
 2428 060e 49000000 		.4byte	0x49
 2429 0612 1E060000 		.4byte	0x61e
 2430 0616 19       		.uleb128 0x19
 2431 0617 3B000000 		.4byte	0x3b
 2432 061b 4F0A     		.2byte	0xa4f
 2433 061d 00       		.byte	0
ARM GAS  /tmp/ccQeRi3A.s 			page 44


 2434 061e 1A       		.uleb128 0x1a
 2435 061f 31020000 		.4byte	.LASF85
 2436 0623 01       		.byte	0x1
 2437 0624 B1       		.byte	0xb1
 2438 0625 01       		.byte	0x1
 2439 0626 01       		.byte	0x1
 2440 0627 21080000 		.4byte	0x821
 2441 062b 1B       		.uleb128 0x1b
 2442 062c 6900     		.ascii	"i\000"
 2443 062e 01       		.byte	0x1
 2444 062f B2       		.byte	0xb2
 2445 0630 3B000000 		.4byte	0x3b
 2446 0634 1B       		.uleb128 0x1b
 2447 0635 6E00     		.ascii	"n\000"
 2448 0637 01       		.byte	0x1
 2449 0638 B3       		.byte	0xb3
 2450 0639 30000000 		.4byte	0x30
 2451 063d 1C       		.uleb128 0x1c
 2452 063e 4E060000 		.4byte	0x64e
 2453 0642 1B       		.uleb128 0x1b
 2454 0643 746D7000 		.ascii	"tmp\000"
 2455 0647 01       		.byte	0x1
 2456 0648 B6       		.byte	0xb6
 2457 0649 7B000000 		.4byte	0x7b
 2458 064d 00       		.byte	0
 2459 064e 1C       		.uleb128 0x1c
 2460 064f 5F060000 		.4byte	0x65f
 2461 0653 1B       		.uleb128 0x1b
 2462 0654 746D7000 		.ascii	"tmp\000"
 2463 0658 01       		.byte	0x1
 2464 0659 B6       		.byte	0xb6
 2465 065a 7B000000 		.4byte	0x7b
 2466 065e 00       		.byte	0
 2467 065f 1C       		.uleb128 0x1c
 2468 0660 70060000 		.4byte	0x670
 2469 0664 1B       		.uleb128 0x1b
 2470 0665 746D7000 		.ascii	"tmp\000"
 2471 0669 01       		.byte	0x1
 2472 066a B6       		.byte	0xb6
 2473 066b 7B000000 		.4byte	0x7b
 2474 066f 00       		.byte	0
 2475 0670 1C       		.uleb128 0x1c
 2476 0671 81060000 		.4byte	0x681
 2477 0675 1B       		.uleb128 0x1b
 2478 0676 746D7000 		.ascii	"tmp\000"
 2479 067a 01       		.byte	0x1
 2480 067b BB       		.byte	0xbb
 2481 067c 7B000000 		.4byte	0x7b
 2482 0680 00       		.byte	0
 2483 0681 1C       		.uleb128 0x1c
 2484 0682 92060000 		.4byte	0x692
 2485 0686 1B       		.uleb128 0x1b
 2486 0687 746D7000 		.ascii	"tmp\000"
 2487 068b 01       		.byte	0x1
 2488 068c BB       		.byte	0xbb
 2489 068d 7B000000 		.4byte	0x7b
 2490 0691 00       		.byte	0
ARM GAS  /tmp/ccQeRi3A.s 			page 45


 2491 0692 1C       		.uleb128 0x1c
 2492 0693 A3060000 		.4byte	0x6a3
 2493 0697 1B       		.uleb128 0x1b
 2494 0698 746D7000 		.ascii	"tmp\000"
 2495 069c 01       		.byte	0x1
 2496 069d BB       		.byte	0xbb
 2497 069e 7B000000 		.4byte	0x7b
 2498 06a2 00       		.byte	0
 2499 06a3 1C       		.uleb128 0x1c
 2500 06a4 D0060000 		.4byte	0x6d0
 2501 06a8 1B       		.uleb128 0x1b
 2502 06a9 6300     		.ascii	"c\000"
 2503 06ab 01       		.byte	0x1
 2504 06ac BF       		.byte	0xbf
 2505 06ad 64040000 		.4byte	0x464
 2506 06b1 1C       		.uleb128 0x1c
 2507 06b2 C2060000 		.4byte	0x6c2
 2508 06b6 1B       		.uleb128 0x1b
 2509 06b7 746D7000 		.ascii	"tmp\000"
 2510 06bb 01       		.byte	0x1
 2511 06bc C1       		.byte	0xc1
 2512 06bd 7B000000 		.4byte	0x7b
 2513 06c1 00       		.byte	0
 2514 06c2 1D       		.uleb128 0x1d
 2515 06c3 1B       		.uleb128 0x1b
 2516 06c4 746D7000 		.ascii	"tmp\000"
 2517 06c8 01       		.byte	0x1
 2518 06c9 C3       		.byte	0xc3
 2519 06ca 7B000000 		.4byte	0x7b
 2520 06ce 00       		.byte	0
 2521 06cf 00       		.byte	0
 2522 06d0 1C       		.uleb128 0x1c
 2523 06d1 E1060000 		.4byte	0x6e1
 2524 06d5 1B       		.uleb128 0x1b
 2525 06d6 746D7000 		.ascii	"tmp\000"
 2526 06da 01       		.byte	0x1
 2527 06db C6       		.byte	0xc6
 2528 06dc 7B000000 		.4byte	0x7b
 2529 06e0 00       		.byte	0
 2530 06e1 1C       		.uleb128 0x1c
 2531 06e2 F2060000 		.4byte	0x6f2
 2532 06e6 1B       		.uleb128 0x1b
 2533 06e7 746D7000 		.ascii	"tmp\000"
 2534 06eb 01       		.byte	0x1
 2535 06ec C6       		.byte	0xc6
 2536 06ed 7B000000 		.4byte	0x7b
 2537 06f1 00       		.byte	0
 2538 06f2 1C       		.uleb128 0x1c
 2539 06f3 03070000 		.4byte	0x703
 2540 06f7 1B       		.uleb128 0x1b
 2541 06f8 746D7000 		.ascii	"tmp\000"
 2542 06fc 01       		.byte	0x1
 2543 06fd C6       		.byte	0xc6
 2544 06fe 7B000000 		.4byte	0x7b
 2545 0702 00       		.byte	0
 2546 0703 1C       		.uleb128 0x1c
 2547 0704 14070000 		.4byte	0x714
ARM GAS  /tmp/ccQeRi3A.s 			page 46


 2548 0708 1B       		.uleb128 0x1b
 2549 0709 746D7000 		.ascii	"tmp\000"
 2550 070d 01       		.byte	0x1
 2551 070e C8       		.byte	0xc8
 2552 070f 7B000000 		.4byte	0x7b
 2553 0713 00       		.byte	0
 2554 0714 1C       		.uleb128 0x1c
 2555 0715 25070000 		.4byte	0x725
 2556 0719 1B       		.uleb128 0x1b
 2557 071a 746D7000 		.ascii	"tmp\000"
 2558 071e 01       		.byte	0x1
 2559 071f C8       		.byte	0xc8
 2560 0720 7B000000 		.4byte	0x7b
 2561 0724 00       		.byte	0
 2562 0725 1C       		.uleb128 0x1c
 2563 0726 36070000 		.4byte	0x736
 2564 072a 1B       		.uleb128 0x1b
 2565 072b 746D7000 		.ascii	"tmp\000"
 2566 072f 01       		.byte	0x1
 2567 0730 C8       		.byte	0xc8
 2568 0731 7B000000 		.4byte	0x7b
 2569 0735 00       		.byte	0
 2570 0736 1C       		.uleb128 0x1c
 2571 0737 47070000 		.4byte	0x747
 2572 073b 1B       		.uleb128 0x1b
 2573 073c 746D7000 		.ascii	"tmp\000"
 2574 0740 01       		.byte	0x1
 2575 0741 CD       		.byte	0xcd
 2576 0742 7B000000 		.4byte	0x7b
 2577 0746 00       		.byte	0
 2578 0747 1C       		.uleb128 0x1c
 2579 0748 58070000 		.4byte	0x758
 2580 074c 1B       		.uleb128 0x1b
 2581 074d 746D7000 		.ascii	"tmp\000"
 2582 0751 01       		.byte	0x1
 2583 0752 CD       		.byte	0xcd
 2584 0753 7B000000 		.4byte	0x7b
 2585 0757 00       		.byte	0
 2586 0758 1C       		.uleb128 0x1c
 2587 0759 69070000 		.4byte	0x769
 2588 075d 1B       		.uleb128 0x1b
 2589 075e 746D7000 		.ascii	"tmp\000"
 2590 0762 01       		.byte	0x1
 2591 0763 CD       		.byte	0xcd
 2592 0764 7B000000 		.4byte	0x7b
 2593 0768 00       		.byte	0
 2594 0769 1C       		.uleb128 0x1c
 2595 076a 7A070000 		.4byte	0x77a
 2596 076e 1B       		.uleb128 0x1b
 2597 076f 746D7000 		.ascii	"tmp\000"
 2598 0773 01       		.byte	0x1
 2599 0774 CF       		.byte	0xcf
 2600 0775 7B000000 		.4byte	0x7b
 2601 0779 00       		.byte	0
 2602 077a 1C       		.uleb128 0x1c
 2603 077b 8B070000 		.4byte	0x78b
 2604 077f 1B       		.uleb128 0x1b
ARM GAS  /tmp/ccQeRi3A.s 			page 47


 2605 0780 746D7000 		.ascii	"tmp\000"
 2606 0784 01       		.byte	0x1
 2607 0785 CF       		.byte	0xcf
 2608 0786 7B000000 		.4byte	0x7b
 2609 078a 00       		.byte	0
 2610 078b 1C       		.uleb128 0x1c
 2611 078c 9C070000 		.4byte	0x79c
 2612 0790 1B       		.uleb128 0x1b
 2613 0791 746D7000 		.ascii	"tmp\000"
 2614 0795 01       		.byte	0x1
 2615 0796 CF       		.byte	0xcf
 2616 0797 7B000000 		.4byte	0x7b
 2617 079b 00       		.byte	0
 2618 079c 1C       		.uleb128 0x1c
 2619 079d AD070000 		.4byte	0x7ad
 2620 07a1 1B       		.uleb128 0x1b
 2621 07a2 746D7000 		.ascii	"tmp\000"
 2622 07a6 01       		.byte	0x1
 2623 07a7 D3       		.byte	0xd3
 2624 07a8 7B000000 		.4byte	0x7b
 2625 07ac 00       		.byte	0
 2626 07ad 1C       		.uleb128 0x1c
 2627 07ae BE070000 		.4byte	0x7be
 2628 07b2 1B       		.uleb128 0x1b
 2629 07b3 746D7000 		.ascii	"tmp\000"
 2630 07b7 01       		.byte	0x1
 2631 07b8 D5       		.byte	0xd5
 2632 07b9 7B000000 		.4byte	0x7b
 2633 07bd 00       		.byte	0
 2634 07be 1C       		.uleb128 0x1c
 2635 07bf CF070000 		.4byte	0x7cf
 2636 07c3 1B       		.uleb128 0x1b
 2637 07c4 746D7000 		.ascii	"tmp\000"
 2638 07c8 01       		.byte	0x1
 2639 07c9 D6       		.byte	0xd6
 2640 07ca 7B000000 		.4byte	0x7b
 2641 07ce 00       		.byte	0
 2642 07cf 1C       		.uleb128 0x1c
 2643 07d0 E0070000 		.4byte	0x7e0
 2644 07d4 1B       		.uleb128 0x1b
 2645 07d5 746D7000 		.ascii	"tmp\000"
 2646 07d9 01       		.byte	0x1
 2647 07da D6       		.byte	0xd6
 2648 07db 7B000000 		.4byte	0x7b
 2649 07df 00       		.byte	0
 2650 07e0 1C       		.uleb128 0x1c
 2651 07e1 F1070000 		.4byte	0x7f1
 2652 07e5 1B       		.uleb128 0x1b
 2653 07e6 746D7000 		.ascii	"tmp\000"
 2654 07ea 01       		.byte	0x1
 2655 07eb D6       		.byte	0xd6
 2656 07ec 7B000000 		.4byte	0x7b
 2657 07f0 00       		.byte	0
 2658 07f1 1C       		.uleb128 0x1c
 2659 07f2 02080000 		.4byte	0x802
 2660 07f6 1B       		.uleb128 0x1b
 2661 07f7 746D7000 		.ascii	"tmp\000"
ARM GAS  /tmp/ccQeRi3A.s 			page 48


 2662 07fb 01       		.byte	0x1
 2663 07fc DD       		.byte	0xdd
 2664 07fd 7B000000 		.4byte	0x7b
 2665 0801 00       		.byte	0
 2666 0802 1C       		.uleb128 0x1c
 2667 0803 13080000 		.4byte	0x813
 2668 0807 1B       		.uleb128 0x1b
 2669 0808 746D7000 		.ascii	"tmp\000"
 2670 080c 01       		.byte	0x1
 2671 080d DD       		.byte	0xdd
 2672 080e 7B000000 		.4byte	0x7b
 2673 0812 00       		.byte	0
 2674 0813 1D       		.uleb128 0x1d
 2675 0814 1B       		.uleb128 0x1b
 2676 0815 746D7000 		.ascii	"tmp\000"
 2677 0819 01       		.byte	0x1
 2678 081a DD       		.byte	0xdd
 2679 081b 7B000000 		.4byte	0x7b
 2680 081f 00       		.byte	0
 2681 0820 00       		.byte	0
 2682 0821 1A       		.uleb128 0x1a
 2683 0822 BF010000 		.4byte	.LASF86
 2684 0826 01       		.byte	0x1
 2685 0827 5A       		.byte	0x5a
 2686 0828 01       		.byte	0x1
 2687 0829 01       		.byte	0x1
 2688 082a 5D0A0000 		.4byte	0xa5d
 2689 082e 1B       		.uleb128 0x1b
 2690 082f 6900     		.ascii	"i\000"
 2691 0831 01       		.byte	0x1
 2692 0832 5B       		.byte	0x5b
 2693 0833 3B000000 		.4byte	0x3b
 2694 0837 1B       		.uleb128 0x1b
 2695 0838 6E00     		.ascii	"n\000"
 2696 083a 01       		.byte	0x1
 2697 083b 5C       		.byte	0x5c
 2698 083c 30000000 		.4byte	0x30
 2699 0840 1C       		.uleb128 0x1c
 2700 0841 51080000 		.4byte	0x851
 2701 0845 1B       		.uleb128 0x1b
 2702 0846 746D7000 		.ascii	"tmp\000"
 2703 084a 01       		.byte	0x1
 2704 084b 5F       		.byte	0x5f
 2705 084c 7B000000 		.4byte	0x7b
 2706 0850 00       		.byte	0
 2707 0851 1C       		.uleb128 0x1c
 2708 0852 62080000 		.4byte	0x862
 2709 0856 1B       		.uleb128 0x1b
 2710 0857 746D7000 		.ascii	"tmp\000"
 2711 085b 01       		.byte	0x1
 2712 085c 5F       		.byte	0x5f
 2713 085d 7B000000 		.4byte	0x7b
 2714 0861 00       		.byte	0
 2715 0862 1C       		.uleb128 0x1c
 2716 0863 73080000 		.4byte	0x873
 2717 0867 1B       		.uleb128 0x1b
 2718 0868 746D7000 		.ascii	"tmp\000"
ARM GAS  /tmp/ccQeRi3A.s 			page 49


 2719 086c 01       		.byte	0x1
 2720 086d 5F       		.byte	0x5f
 2721 086e 7B000000 		.4byte	0x7b
 2722 0872 00       		.byte	0
 2723 0873 1C       		.uleb128 0x1c
 2724 0874 84080000 		.4byte	0x884
 2725 0878 1B       		.uleb128 0x1b
 2726 0879 746D7000 		.ascii	"tmp\000"
 2727 087d 01       		.byte	0x1
 2728 087e 62       		.byte	0x62
 2729 087f 7B000000 		.4byte	0x7b
 2730 0883 00       		.byte	0
 2731 0884 1C       		.uleb128 0x1c
 2732 0885 95080000 		.4byte	0x895
 2733 0889 1B       		.uleb128 0x1b
 2734 088a 746D7000 		.ascii	"tmp\000"
 2735 088e 01       		.byte	0x1
 2736 088f 65       		.byte	0x65
 2737 0890 7B000000 		.4byte	0x7b
 2738 0894 00       		.byte	0
 2739 0895 1C       		.uleb128 0x1c
 2740 0896 A6080000 		.4byte	0x8a6
 2741 089a 1B       		.uleb128 0x1b
 2742 089b 746D7000 		.ascii	"tmp\000"
 2743 089f 01       		.byte	0x1
 2744 08a0 66       		.byte	0x66
 2745 08a1 7B000000 		.4byte	0x7b
 2746 08a5 00       		.byte	0
 2747 08a6 1C       		.uleb128 0x1c
 2748 08a7 B7080000 		.4byte	0x8b7
 2749 08ab 1B       		.uleb128 0x1b
 2750 08ac 746D7000 		.ascii	"tmp\000"
 2751 08b0 01       		.byte	0x1
 2752 08b1 66       		.byte	0x66
 2753 08b2 7B000000 		.4byte	0x7b
 2754 08b6 00       		.byte	0
 2755 08b7 1C       		.uleb128 0x1c
 2756 08b8 C8080000 		.4byte	0x8c8
 2757 08bc 1B       		.uleb128 0x1b
 2758 08bd 746D7000 		.ascii	"tmp\000"
 2759 08c1 01       		.byte	0x1
 2760 08c2 66       		.byte	0x66
 2761 08c3 7B000000 		.4byte	0x7b
 2762 08c7 00       		.byte	0
 2763 08c8 1C       		.uleb128 0x1c
 2764 08c9 D9080000 		.4byte	0x8d9
 2765 08cd 1B       		.uleb128 0x1b
 2766 08ce 746D7000 		.ascii	"tmp\000"
 2767 08d2 01       		.byte	0x1
 2768 08d3 67       		.byte	0x67
 2769 08d4 7B000000 		.4byte	0x7b
 2770 08d8 00       		.byte	0
 2771 08d9 1C       		.uleb128 0x1c
 2772 08da EA080000 		.4byte	0x8ea
 2773 08de 1B       		.uleb128 0x1b
 2774 08df 746D7000 		.ascii	"tmp\000"
 2775 08e3 01       		.byte	0x1
ARM GAS  /tmp/ccQeRi3A.s 			page 50


 2776 08e4 67       		.byte	0x67
 2777 08e5 7B000000 		.4byte	0x7b
 2778 08e9 00       		.byte	0
 2779 08ea 1C       		.uleb128 0x1c
 2780 08eb FB080000 		.4byte	0x8fb
 2781 08ef 1B       		.uleb128 0x1b
 2782 08f0 746D7000 		.ascii	"tmp\000"
 2783 08f4 01       		.byte	0x1
 2784 08f5 67       		.byte	0x67
 2785 08f6 7B000000 		.4byte	0x7b
 2786 08fa 00       		.byte	0
 2787 08fb 1C       		.uleb128 0x1c
 2788 08fc 0C090000 		.4byte	0x90c
 2789 0900 1B       		.uleb128 0x1b
 2790 0901 746D7000 		.ascii	"tmp\000"
 2791 0905 01       		.byte	0x1
 2792 0906 6C       		.byte	0x6c
 2793 0907 7B000000 		.4byte	0x7b
 2794 090b 00       		.byte	0
 2795 090c 1C       		.uleb128 0x1c
 2796 090d 1D090000 		.4byte	0x91d
 2797 0911 1B       		.uleb128 0x1b
 2798 0912 746D7000 		.ascii	"tmp\000"
 2799 0916 01       		.byte	0x1
 2800 0917 6C       		.byte	0x6c
 2801 0918 7B000000 		.4byte	0x7b
 2802 091c 00       		.byte	0
 2803 091d 1C       		.uleb128 0x1c
 2804 091e 2E090000 		.4byte	0x92e
 2805 0922 1B       		.uleb128 0x1b
 2806 0923 746D7000 		.ascii	"tmp\000"
 2807 0927 01       		.byte	0x1
 2808 0928 6C       		.byte	0x6c
 2809 0929 7B000000 		.4byte	0x7b
 2810 092d 00       		.byte	0
 2811 092e 1C       		.uleb128 0x1c
 2812 092f 3F090000 		.4byte	0x93f
 2813 0933 1B       		.uleb128 0x1b
 2814 0934 746D7000 		.ascii	"tmp\000"
 2815 0938 01       		.byte	0x1
 2816 0939 70       		.byte	0x70
 2817 093a 7B000000 		.4byte	0x7b
 2818 093e 00       		.byte	0
 2819 093f 1C       		.uleb128 0x1c
 2820 0940 50090000 		.4byte	0x950
 2821 0944 1B       		.uleb128 0x1b
 2822 0945 746D7000 		.ascii	"tmp\000"
 2823 0949 01       		.byte	0x1
 2824 094a 73       		.byte	0x73
 2825 094b 7B000000 		.4byte	0x7b
 2826 094f 00       		.byte	0
 2827 0950 1C       		.uleb128 0x1c
 2828 0951 61090000 		.4byte	0x961
 2829 0955 1B       		.uleb128 0x1b
 2830 0956 746D7000 		.ascii	"tmp\000"
 2831 095a 01       		.byte	0x1
 2832 095b 78       		.byte	0x78
ARM GAS  /tmp/ccQeRi3A.s 			page 51


 2833 095c 7B000000 		.4byte	0x7b
 2834 0960 00       		.byte	0
 2835 0961 1C       		.uleb128 0x1c
 2836 0962 72090000 		.4byte	0x972
 2837 0966 1B       		.uleb128 0x1b
 2838 0967 746D7000 		.ascii	"tmp\000"
 2839 096b 01       		.byte	0x1
 2840 096c 78       		.byte	0x78
 2841 096d 7B000000 		.4byte	0x7b
 2842 0971 00       		.byte	0
 2843 0972 1C       		.uleb128 0x1c
 2844 0973 83090000 		.4byte	0x983
 2845 0977 1B       		.uleb128 0x1b
 2846 0978 746D7000 		.ascii	"tmp\000"
 2847 097c 01       		.byte	0x1
 2848 097d 78       		.byte	0x78
 2849 097e 7B000000 		.4byte	0x7b
 2850 0982 00       		.byte	0
 2851 0983 1C       		.uleb128 0x1c
 2852 0984 94090000 		.4byte	0x994
 2853 0988 1B       		.uleb128 0x1b
 2854 0989 746D7000 		.ascii	"tmp\000"
 2855 098d 01       		.byte	0x1
 2856 098e 7B       		.byte	0x7b
 2857 098f 7B000000 		.4byte	0x7b
 2858 0993 00       		.byte	0
 2859 0994 1C       		.uleb128 0x1c
 2860 0995 A5090000 		.4byte	0x9a5
 2861 0999 1B       		.uleb128 0x1b
 2862 099a 746D7000 		.ascii	"tmp\000"
 2863 099e 01       		.byte	0x1
 2864 099f 7E       		.byte	0x7e
 2865 09a0 7B000000 		.4byte	0x7b
 2866 09a4 00       		.byte	0
 2867 09a5 1C       		.uleb128 0x1c
 2868 09a6 B6090000 		.4byte	0x9b6
 2869 09aa 1B       		.uleb128 0x1b
 2870 09ab 746D7000 		.ascii	"tmp\000"
 2871 09af 01       		.byte	0x1
 2872 09b0 85       		.byte	0x85
 2873 09b1 7B000000 		.4byte	0x7b
 2874 09b5 00       		.byte	0
 2875 09b6 1C       		.uleb128 0x1c
 2876 09b7 C7090000 		.4byte	0x9c7
 2877 09bb 1B       		.uleb128 0x1b
 2878 09bc 746D7000 		.ascii	"tmp\000"
 2879 09c0 01       		.byte	0x1
 2880 09c1 85       		.byte	0x85
 2881 09c2 7B000000 		.4byte	0x7b
 2882 09c6 00       		.byte	0
 2883 09c7 1C       		.uleb128 0x1c
 2884 09c8 D8090000 		.4byte	0x9d8
 2885 09cc 1B       		.uleb128 0x1b
 2886 09cd 746D7000 		.ascii	"tmp\000"
 2887 09d1 01       		.byte	0x1
 2888 09d2 85       		.byte	0x85
 2889 09d3 7B000000 		.4byte	0x7b
ARM GAS  /tmp/ccQeRi3A.s 			page 52


 2890 09d7 00       		.byte	0
 2891 09d8 1C       		.uleb128 0x1c
 2892 09d9 E9090000 		.4byte	0x9e9
 2893 09dd 1B       		.uleb128 0x1b
 2894 09de 746D7000 		.ascii	"tmp\000"
 2895 09e2 01       		.byte	0x1
 2896 09e3 88       		.byte	0x88
 2897 09e4 7B000000 		.4byte	0x7b
 2898 09e8 00       		.byte	0
 2899 09e9 1C       		.uleb128 0x1c
 2900 09ea FA090000 		.4byte	0x9fa
 2901 09ee 1B       		.uleb128 0x1b
 2902 09ef 746D7000 		.ascii	"tmp\000"
 2903 09f3 01       		.byte	0x1
 2904 09f4 8B       		.byte	0x8b
 2905 09f5 7B000000 		.4byte	0x7b
 2906 09f9 00       		.byte	0
 2907 09fa 1C       		.uleb128 0x1c
 2908 09fb 0B0A0000 		.4byte	0xa0b
 2909 09ff 1B       		.uleb128 0x1b
 2910 0a00 746D7000 		.ascii	"tmp\000"
 2911 0a04 01       		.byte	0x1
 2912 0a05 8C       		.byte	0x8c
 2913 0a06 7B000000 		.4byte	0x7b
 2914 0a0a 00       		.byte	0
 2915 0a0b 1C       		.uleb128 0x1c
 2916 0a0c 1C0A0000 		.4byte	0xa1c
 2917 0a10 1B       		.uleb128 0x1b
 2918 0a11 746D7000 		.ascii	"tmp\000"
 2919 0a15 01       		.byte	0x1
 2920 0a16 8C       		.byte	0x8c
 2921 0a17 7B000000 		.4byte	0x7b
 2922 0a1b 00       		.byte	0
 2923 0a1c 1C       		.uleb128 0x1c
 2924 0a1d 2D0A0000 		.4byte	0xa2d
 2925 0a21 1B       		.uleb128 0x1b
 2926 0a22 746D7000 		.ascii	"tmp\000"
 2927 0a26 01       		.byte	0x1
 2928 0a27 8C       		.byte	0x8c
 2929 0a28 7B000000 		.4byte	0x7b
 2930 0a2c 00       		.byte	0
 2931 0a2d 1C       		.uleb128 0x1c
 2932 0a2e 3E0A0000 		.4byte	0xa3e
 2933 0a32 1B       		.uleb128 0x1b
 2934 0a33 746D7000 		.ascii	"tmp\000"
 2935 0a37 01       		.byte	0x1
 2936 0a38 8E       		.byte	0x8e
 2937 0a39 7B000000 		.4byte	0x7b
 2938 0a3d 00       		.byte	0
 2939 0a3e 1C       		.uleb128 0x1c
 2940 0a3f 4F0A0000 		.4byte	0xa4f
 2941 0a43 1B       		.uleb128 0x1b
 2942 0a44 746D7000 		.ascii	"tmp\000"
 2943 0a48 01       		.byte	0x1
 2944 0a49 8E       		.byte	0x8e
 2945 0a4a 7B000000 		.4byte	0x7b
 2946 0a4e 00       		.byte	0
ARM GAS  /tmp/ccQeRi3A.s 			page 53


 2947 0a4f 1D       		.uleb128 0x1d
 2948 0a50 1B       		.uleb128 0x1b
 2949 0a51 746D7000 		.ascii	"tmp\000"
 2950 0a55 01       		.byte	0x1
 2951 0a56 8E       		.byte	0x8e
 2952 0a57 7B000000 		.4byte	0x7b
 2953 0a5b 00       		.byte	0
 2954 0a5c 00       		.byte	0
 2955 0a5d 1E       		.uleb128 0x1e
 2956 0a5e 2A020000 		.4byte	.LASF101
 2957 0a62 01       		.byte	0x1
 2958 0a63 39       		.byte	0x39
 2959 0a64 01       		.byte	0x1
 2960 0a65 00000000 		.4byte	.LFB7
 2961 0a69 02000000 		.4byte	.LFE7
 2962 0a6d 02       		.byte	0x2
 2963 0a6e 7D       		.byte	0x7d
 2964 0a6f 00       		.sleb128 0
 2965 0a70 810A0000 		.4byte	0xa81
 2966 0a74 1F       		.uleb128 0x1f
 2967 0a75 717000   		.ascii	"qp\000"
 2968 0a78 01       		.byte	0x1
 2969 0a79 39       		.byte	0x39
 2970 0a7a 1C050000 		.4byte	0x51c
 2971 0a7e 01       		.byte	0x1
 2972 0a7f 50       		.byte	0x50
 2973 0a80 00       		.byte	0
 2974 0a81 20       		.uleb128 0x20
 2975 0a82 67020000 		.4byte	.LASF87
 2976 0a86 01       		.byte	0x1
 2977 0a87 AA       		.byte	0xaa
 2978 0a88 01       		.byte	0x1
 2979 0a89 EF000000 		.4byte	0xef
 2980 0a8d 00000000 		.4byte	.LFB12
 2981 0a91 16000000 		.4byte	.LFE12
 2982 0a95 00000000 		.4byte	.LLST0
 2983 0a99 AB0A0000 		.4byte	0xaab
 2984 0a9d 21       		.uleb128 0x21
 2985 0a9e 7000     		.ascii	"p\000"
 2986 0aa0 01       		.byte	0x1
 2987 0aa1 AA       		.byte	0xaa
 2988 0aa2 B1020000 		.4byte	0x2b1
 2989 0aa6 20000000 		.4byte	.LLST1
 2990 0aaa 00       		.byte	0
 2991 0aab 22       		.uleb128 0x22
 2992 0aac 57000000 		.4byte	.LASF89
 2993 0ab0 01       		.byte	0x1
 2994 0ab1 A5       		.byte	0xa5
 2995 0ab2 01       		.byte	0x1
 2996 0ab3 00000000 		.4byte	.LFB11
 2997 0ab7 2C000000 		.4byte	.LFE11
 2998 0abb 33000000 		.4byte	.LLST2
 2999 0abf 20       		.uleb128 0x20
 3000 0ac0 5F020000 		.4byte	.LASF88
 3001 0ac4 01       		.byte	0x1
 3002 0ac5 53       		.byte	0x53
 3003 0ac6 01       		.byte	0x1
ARM GAS  /tmp/ccQeRi3A.s 			page 54


 3004 0ac7 EF000000 		.4byte	0xef
 3005 0acb 00000000 		.4byte	.LFB9
 3006 0acf 14000000 		.4byte	.LFE9
 3007 0ad3 5F000000 		.4byte	.LLST3
 3008 0ad7 E90A0000 		.4byte	0xae9
 3009 0adb 21       		.uleb128 0x21
 3010 0adc 7000     		.ascii	"p\000"
 3011 0ade 01       		.byte	0x1
 3012 0adf 53       		.byte	0x53
 3013 0ae0 B1020000 		.4byte	0x2b1
 3014 0ae4 7F000000 		.4byte	.LLST4
 3015 0ae8 00       		.byte	0
 3016 0ae9 22       		.uleb128 0x22
 3017 0aea BA020000 		.4byte	.LASF90
 3018 0aee 01       		.byte	0x1
 3019 0aef 4E       		.byte	0x4e
 3020 0af0 01       		.byte	0x1
 3021 0af1 00000000 		.4byte	.LFB8
 3022 0af5 2C000000 		.4byte	.LFE8
 3023 0af9 92000000 		.4byte	.LLST5
 3024 0afd 23       		.uleb128 0x23
 3025 0afe 1E060000 		.4byte	0x61e
 3026 0b02 00000000 		.4byte	.LFB13
 3027 0b06 74030000 		.4byte	.LFE13
 3028 0b0a BE000000 		.4byte	.LLST6
 3029 0b0e 830D0000 		.4byte	0xd83
 3030 0b12 24       		.uleb128 0x24
 3031 0b13 2B060000 		.4byte	0x62b
 3032 0b17 24       		.uleb128 0x24
 3033 0b18 34060000 		.4byte	0x634
 3034 0b1c 25       		.uleb128 0x25
 3035 0b1d 00000000 		.4byte	.Ldebug_ranges0+0
 3036 0b21 2F0B0000 		.4byte	0xb2f
 3037 0b25 26       		.uleb128 0x26
 3038 0b26 42060000 		.4byte	0x642
 3039 0b2a EA000000 		.4byte	.LLST7
 3040 0b2e 00       		.byte	0
 3041 0b2f 27       		.uleb128 0x27
 3042 0b30 1E060000 		.4byte	0x61e
 3043 0b34 2C000000 		.4byte	.LBB98
 3044 0b38 18000000 		.4byte	.Ldebug_ranges0+0x18
 3045 0b3c 01       		.byte	0x1
 3046 0b3d B1       		.byte	0xb1
 3047 0b3e 28       		.uleb128 0x28
 3048 0b3f 40000000 		.4byte	.Ldebug_ranges0+0x40
 3049 0b43 26       		.uleb128 0x26
 3050 0b44 2B060000 		.4byte	0x62b
 3051 0b48 FD000000 		.4byte	.LLST8
 3052 0b4c 26       		.uleb128 0x26
 3053 0b4d 34060000 		.4byte	0x634
 3054 0b51 59010000 		.4byte	.LLST9
 3055 0b55 29       		.uleb128 0x29
 3056 0b56 30000000 		.4byte	.LBB100
 3057 0b5a 36000000 		.4byte	.LBE100
 3058 0b5e 6C0B0000 		.4byte	0xb6c
 3059 0b62 26       		.uleb128 0x26
 3060 0b63 64060000 		.4byte	0x664
ARM GAS  /tmp/ccQeRi3A.s 			page 55


 3061 0b67 8F010000 		.4byte	.LLST10
 3062 0b6b 00       		.byte	0
 3063 0b6c 29       		.uleb128 0x29
 3064 0b6d 68000000 		.4byte	.LBB101
 3065 0b71 6E000000 		.4byte	.LBE101
 3066 0b75 830B0000 		.4byte	0xb83
 3067 0b79 26       		.uleb128 0x26
 3068 0b7a 75060000 		.4byte	0x675
 3069 0b7e A2010000 		.4byte	.LLST11
 3070 0b82 00       		.byte	0
 3071 0b83 29       		.uleb128 0x29
 3072 0b84 8E000000 		.4byte	.LBB102
 3073 0b88 94000000 		.4byte	.LBE102
 3074 0b8c 9A0B0000 		.4byte	0xb9a
 3075 0b90 26       		.uleb128 0x26
 3076 0b91 97060000 		.4byte	0x697
 3077 0b95 B5010000 		.4byte	.LLST12
 3078 0b99 00       		.byte	0
 3079 0b9a 29       		.uleb128 0x29
 3080 0b9b 94000000 		.4byte	.LBB103
 3081 0b9f 1C010000 		.4byte	.LBE103
 3082 0ba3 D30B0000 		.4byte	0xbd3
 3083 0ba7 26       		.uleb128 0x26
 3084 0ba8 A8060000 		.4byte	0x6a8
 3085 0bac C8010000 		.4byte	.LLST13
 3086 0bb0 25       		.uleb128 0x25
 3087 0bb1 68000000 		.4byte	.Ldebug_ranges0+0x68
 3088 0bb5 C30B0000 		.4byte	0xbc3
 3089 0bb9 26       		.uleb128 0x26
 3090 0bba B6060000 		.4byte	0x6b6
 3091 0bbe 33020000 		.4byte	.LLST14
 3092 0bc2 00       		.byte	0
 3093 0bc3 28       		.uleb128 0x28
 3094 0bc4 90000000 		.4byte	.Ldebug_ranges0+0x90
 3095 0bc8 26       		.uleb128 0x26
 3096 0bc9 C3060000 		.4byte	0x6c3
 3097 0bcd 67020000 		.4byte	.LLST15
 3098 0bd1 00       		.byte	0
 3099 0bd2 00       		.byte	0
 3100 0bd3 29       		.uleb128 0x29
 3101 0bd4 1C010000 		.4byte	.LBB112
 3102 0bd8 22010000 		.4byte	.LBE112
 3103 0bdc EA0B0000 		.4byte	0xbea
 3104 0be0 26       		.uleb128 0x26
 3105 0be1 D5060000 		.4byte	0x6d5
 3106 0be5 9B020000 		.4byte	.LLST16
 3107 0be9 00       		.byte	0
 3108 0bea 29       		.uleb128 0x29
 3109 0beb 44010000 		.4byte	.LBB113
 3110 0bef 4A010000 		.4byte	.LBE113
 3111 0bf3 010C0000 		.4byte	0xc01
 3112 0bf7 26       		.uleb128 0x26
 3113 0bf8 F7060000 		.4byte	0x6f7
 3114 0bfc AE020000 		.4byte	.LLST17
 3115 0c00 00       		.byte	0
 3116 0c01 29       		.uleb128 0x29
 3117 0c02 5A010000 		.4byte	.LBB114
ARM GAS  /tmp/ccQeRi3A.s 			page 56


 3118 0c06 60010000 		.4byte	.LBE114
 3119 0c0a 180C0000 		.4byte	0xc18
 3120 0c0e 26       		.uleb128 0x26
 3121 0c0f 08070000 		.4byte	0x708
 3122 0c13 C1020000 		.4byte	.LLST18
 3123 0c17 00       		.byte	0
 3124 0c18 29       		.uleb128 0x29
 3125 0c19 86010000 		.4byte	.LBB115
 3126 0c1d 8C010000 		.4byte	.LBE115
 3127 0c21 2F0C0000 		.4byte	0xc2f
 3128 0c25 26       		.uleb128 0x26
 3129 0c26 2A070000 		.4byte	0x72a
 3130 0c2a D4020000 		.4byte	.LLST19
 3131 0c2e 00       		.byte	0
 3132 0c2f 29       		.uleb128 0x29
 3133 0c30 B2010000 		.4byte	.LBB116
 3134 0c34 B8010000 		.4byte	.LBE116
 3135 0c38 460C0000 		.4byte	0xc46
 3136 0c3c 26       		.uleb128 0x26
 3137 0c3d 3B070000 		.4byte	0x73b
 3138 0c41 E7020000 		.4byte	.LLST20
 3139 0c45 00       		.byte	0
 3140 0c46 29       		.uleb128 0x29
 3141 0c47 D8010000 		.4byte	.LBB117
 3142 0c4b DE010000 		.4byte	.LBE117
 3143 0c4f 5D0C0000 		.4byte	0xc5d
 3144 0c53 26       		.uleb128 0x26
 3145 0c54 5D070000 		.4byte	0x75d
 3146 0c58 FA020000 		.4byte	.LLST21
 3147 0c5c 00       		.byte	0
 3148 0c5d 25       		.uleb128 0x25
 3149 0c5e B8000000 		.4byte	.Ldebug_ranges0+0xb8
 3150 0c62 700C0000 		.4byte	0xc70
 3151 0c66 26       		.uleb128 0x26
 3152 0c67 6E070000 		.4byte	0x76e
 3153 0c6b 0D030000 		.4byte	.LLST22
 3154 0c6f 00       		.byte	0
 3155 0c70 29       		.uleb128 0x29
 3156 0c71 2C020000 		.4byte	.LBB120
 3157 0c75 32020000 		.4byte	.LBE120
 3158 0c79 870C0000 		.4byte	0xc87
 3159 0c7d 26       		.uleb128 0x26
 3160 0c7e 90070000 		.4byte	0x790
 3161 0c82 20030000 		.4byte	.LLST23
 3162 0c86 00       		.byte	0
 3163 0c87 29       		.uleb128 0x29
 3164 0c88 36020000 		.4byte	.LBB121
 3165 0c8c 3C020000 		.4byte	.LBE121
 3166 0c90 9E0C0000 		.4byte	0xc9e
 3167 0c94 26       		.uleb128 0x26
 3168 0c95 A1070000 		.4byte	0x7a1
 3169 0c99 33030000 		.4byte	.LLST24
 3170 0c9d 00       		.byte	0
 3171 0c9e 29       		.uleb128 0x29
 3172 0c9f 4A020000 		.4byte	.LBB122
 3173 0ca3 50020000 		.4byte	.LBE122
 3174 0ca7 B50C0000 		.4byte	0xcb5
ARM GAS  /tmp/ccQeRi3A.s 			page 57


 3175 0cab 26       		.uleb128 0x26
 3176 0cac B2070000 		.4byte	0x7b2
 3177 0cb0 46030000 		.4byte	.LLST25
 3178 0cb4 00       		.byte	0
 3179 0cb5 29       		.uleb128 0x29
 3180 0cb6 50020000 		.4byte	.LBB123
 3181 0cba 56020000 		.4byte	.LBE123
 3182 0cbe CC0C0000 		.4byte	0xccc
 3183 0cc2 26       		.uleb128 0x26
 3184 0cc3 C3070000 		.4byte	0x7c3
 3185 0cc7 59030000 		.4byte	.LLST26
 3186 0ccb 00       		.byte	0
 3187 0ccc 29       		.uleb128 0x29
 3188 0ccd 7A020000 		.4byte	.LBB124
 3189 0cd1 80020000 		.4byte	.LBE124
 3190 0cd5 E30C0000 		.4byte	0xce3
 3191 0cd9 26       		.uleb128 0x26
 3192 0cda E5070000 		.4byte	0x7e5
 3193 0cde 6C030000 		.4byte	.LLST27
 3194 0ce2 00       		.byte	0
 3195 0ce3 29       		.uleb128 0x29
 3196 0ce4 C0020000 		.4byte	.LBB125
 3197 0ce8 C6020000 		.4byte	.LBE125
 3198 0cec FA0C0000 		.4byte	0xcfa
 3199 0cf0 26       		.uleb128 0x26
 3200 0cf1 F6070000 		.4byte	0x7f6
 3201 0cf5 7F030000 		.4byte	.LLST28
 3202 0cf9 00       		.byte	0
 3203 0cfa 29       		.uleb128 0x29
 3204 0cfb E0020000 		.4byte	.LBB126
 3205 0cff E6020000 		.4byte	.LBE126
 3206 0d03 110D0000 		.4byte	0xd11
 3207 0d07 26       		.uleb128 0x26
 3208 0d08 14080000 		.4byte	0x814
 3209 0d0c 92030000 		.4byte	.LLST29
 3210 0d10 00       		.byte	0
 3211 0d11 29       		.uleb128 0x29
 3212 0d12 24030000 		.4byte	.LBB127
 3213 0d16 2A030000 		.4byte	.LBE127
 3214 0d1a 280D0000 		.4byte	0xd28
 3215 0d1e 26       		.uleb128 0x26
 3216 0d1f 07080000 		.4byte	0x807
 3217 0d23 A5030000 		.4byte	.LLST30
 3218 0d27 00       		.byte	0
 3219 0d28 29       		.uleb128 0x29
 3220 0d29 34030000 		.4byte	.LBB128
 3221 0d2d 3C030000 		.4byte	.LBE128
 3222 0d31 3F0D0000 		.4byte	0xd3f
 3223 0d35 26       		.uleb128 0x26
 3224 0d36 86060000 		.4byte	0x686
 3225 0d3a B8030000 		.4byte	.LLST31
 3226 0d3e 00       		.byte	0
 3227 0d3f 29       		.uleb128 0x29
 3228 0d40 54030000 		.4byte	.LBB129
 3229 0d44 5C030000 		.4byte	.LBE129
 3230 0d48 560D0000 		.4byte	0xd56
 3231 0d4c 26       		.uleb128 0x26
ARM GAS  /tmp/ccQeRi3A.s 			page 58


 3232 0d4d D4070000 		.4byte	0x7d4
 3233 0d51 D6030000 		.4byte	.LLST32
 3234 0d55 00       		.byte	0
 3235 0d56 29       		.uleb128 0x29
 3236 0d57 60030000 		.4byte	.LBB130
 3237 0d5b 68030000 		.4byte	.LBE130
 3238 0d5f 6D0D0000 		.4byte	0xd6d
 3239 0d63 26       		.uleb128 0x26
 3240 0d64 4C070000 		.4byte	0x74c
 3241 0d68 F4030000 		.4byte	.LLST33
 3242 0d6c 00       		.byte	0
 3243 0d6d 2A       		.uleb128 0x2a
 3244 0d6e 6C030000 		.4byte	.LBB131
 3245 0d72 74030000 		.4byte	.LBE131
 3246 0d76 26       		.uleb128 0x26
 3247 0d77 7F070000 		.4byte	0x77f
 3248 0d7b 12040000 		.4byte	.LLST34
 3249 0d7f 00       		.byte	0
 3250 0d80 00       		.byte	0
 3251 0d81 00       		.byte	0
 3252 0d82 00       		.byte	0
 3253 0d83 23       		.uleb128 0x23
 3254 0d84 21080000 		.4byte	0x821
 3255 0d88 00000000 		.4byte	.LFB10
 3256 0d8c 9C030000 		.4byte	.LFE10
 3257 0d90 30040000 		.4byte	.LLST35
 3258 0d94 71100000 		.4byte	0x1071
 3259 0d98 24       		.uleb128 0x24
 3260 0d99 2E080000 		.4byte	0x82e
 3261 0d9d 24       		.uleb128 0x24
 3262 0d9e 37080000 		.4byte	0x837
 3263 0da2 25       		.uleb128 0x25
 3264 0da3 D0000000 		.4byte	.Ldebug_ranges0+0xd0
 3265 0da7 B50D0000 		.4byte	0xdb5
 3266 0dab 26       		.uleb128 0x26
 3267 0dac 45080000 		.4byte	0x845
 3268 0db0 5C040000 		.4byte	.LLST36
 3269 0db4 00       		.byte	0
 3270 0db5 27       		.uleb128 0x27
 3271 0db6 21080000 		.4byte	0x821
 3272 0dba 2A000000 		.4byte	.LBB176
 3273 0dbe E8000000 		.4byte	.Ldebug_ranges0+0xe8
 3274 0dc2 01       		.byte	0x1
 3275 0dc3 5A       		.byte	0x5a
 3276 0dc4 28       		.uleb128 0x28
 3277 0dc5 08010000 		.4byte	.Ldebug_ranges0+0x108
 3278 0dc9 26       		.uleb128 0x26
 3279 0dca 2E080000 		.4byte	0x82e
 3280 0dce 6F040000 		.4byte	.LLST37
 3281 0dd2 26       		.uleb128 0x26
 3282 0dd3 37080000 		.4byte	0x837
 3283 0dd7 43050000 		.4byte	.LLST38
 3284 0ddb 29       		.uleb128 0x29
 3285 0ddc 2E000000 		.4byte	.LBB178
 3286 0de0 34000000 		.4byte	.LBE178
 3287 0de4 F20D0000 		.4byte	0xdf2
 3288 0de8 26       		.uleb128 0x26
ARM GAS  /tmp/ccQeRi3A.s 			page 59


 3289 0de9 67080000 		.4byte	0x867
 3290 0ded 79050000 		.4byte	.LLST39
 3291 0df1 00       		.byte	0
 3292 0df2 29       		.uleb128 0x29
 3293 0df3 34000000 		.4byte	.LBB179
 3294 0df7 3A000000 		.4byte	.LBE179
 3295 0dfb 090E0000 		.4byte	0xe09
 3296 0dff 26       		.uleb128 0x26
 3297 0e00 78080000 		.4byte	0x878
 3298 0e04 8C050000 		.4byte	.LLST40
 3299 0e08 00       		.byte	0
 3300 0e09 29       		.uleb128 0x29
 3301 0e0a 62000000 		.4byte	.LBB180
 3302 0e0e 68000000 		.4byte	.LBE180
 3303 0e12 200E0000 		.4byte	0xe20
 3304 0e16 26       		.uleb128 0x26
 3305 0e17 89080000 		.4byte	0x889
 3306 0e1b 9F050000 		.4byte	.LLST41
 3307 0e1f 00       		.byte	0
 3308 0e20 29       		.uleb128 0x29
 3309 0e21 68000000 		.4byte	.LBB181
 3310 0e25 6E000000 		.4byte	.LBE181
 3311 0e29 370E0000 		.4byte	0xe37
 3312 0e2d 26       		.uleb128 0x26
 3313 0e2e 9A080000 		.4byte	0x89a
 3314 0e32 B2050000 		.4byte	.LLST42
 3315 0e36 00       		.byte	0
 3316 0e37 29       		.uleb128 0x29
 3317 0e38 90000000 		.4byte	.LBB182
 3318 0e3c 96000000 		.4byte	.LBE182
 3319 0e40 4E0E0000 		.4byte	0xe4e
 3320 0e44 26       		.uleb128 0x26
 3321 0e45 BC080000 		.4byte	0x8bc
 3322 0e49 C5050000 		.4byte	.LLST43
 3323 0e4d 00       		.byte	0
 3324 0e4e 29       		.uleb128 0x29
 3325 0e4f 96000000 		.4byte	.LBB183
 3326 0e53 9C000000 		.4byte	.LBE183
 3327 0e57 650E0000 		.4byte	0xe65
 3328 0e5b 26       		.uleb128 0x26
 3329 0e5c CD080000 		.4byte	0x8cd
 3330 0e60 D8050000 		.4byte	.LLST44
 3331 0e64 00       		.byte	0
 3332 0e65 29       		.uleb128 0x29
 3333 0e66 C4000000 		.4byte	.LBB184
 3334 0e6a CA000000 		.4byte	.LBE184
 3335 0e6e 7C0E0000 		.4byte	0xe7c
 3336 0e72 26       		.uleb128 0x26
 3337 0e73 EF080000 		.4byte	0x8ef
 3338 0e77 EB050000 		.4byte	.LLST45
 3339 0e7b 00       		.byte	0
 3340 0e7c 29       		.uleb128 0x29
 3341 0e7d 0A010000 		.4byte	.LBB185
 3342 0e81 10010000 		.4byte	.LBE185
 3343 0e85 930E0000 		.4byte	0xe93
 3344 0e89 26       		.uleb128 0x26
 3345 0e8a 00090000 		.4byte	0x900
ARM GAS  /tmp/ccQeRi3A.s 			page 60


 3346 0e8e FE050000 		.4byte	.LLST46
 3347 0e92 00       		.byte	0
 3348 0e93 29       		.uleb128 0x29
 3349 0e94 30010000 		.4byte	.LBB186
 3350 0e98 36010000 		.4byte	.LBE186
 3351 0e9c AA0E0000 		.4byte	0xeaa
 3352 0ea0 26       		.uleb128 0x26
 3353 0ea1 22090000 		.4byte	0x922
 3354 0ea5 11060000 		.4byte	.LLST47
 3355 0ea9 00       		.byte	0
 3356 0eaa 29       		.uleb128 0x29
 3357 0eab 46010000 		.4byte	.LBB187
 3358 0eaf 4C010000 		.4byte	.LBE187
 3359 0eb3 C10E0000 		.4byte	0xec1
 3360 0eb7 26       		.uleb128 0x26
 3361 0eb8 33090000 		.4byte	0x933
 3362 0ebc 24060000 		.4byte	.LLST48
 3363 0ec0 00       		.byte	0
 3364 0ec1 29       		.uleb128 0x29
 3365 0ec2 74010000 		.4byte	.LBB188
 3366 0ec6 7A010000 		.4byte	.LBE188
 3367 0eca D80E0000 		.4byte	0xed8
 3368 0ece 26       		.uleb128 0x26
 3369 0ecf 44090000 		.4byte	0x944
 3370 0ed3 37060000 		.4byte	.LLST49
 3371 0ed7 00       		.byte	0
 3372 0ed8 29       		.uleb128 0x29
 3373 0ed9 A4010000 		.4byte	.LBB189
 3374 0edd AA010000 		.4byte	.LBE189
 3375 0ee1 EF0E0000 		.4byte	0xeef
 3376 0ee5 26       		.uleb128 0x26
 3377 0ee6 55090000 		.4byte	0x955
 3378 0eea 4A060000 		.4byte	.LLST50
 3379 0eee 00       		.byte	0
 3380 0eef 29       		.uleb128 0x29
 3381 0ef0 CA010000 		.4byte	.LBB190
 3382 0ef4 D0010000 		.4byte	.LBE190
 3383 0ef8 060F0000 		.4byte	0xf06
 3384 0efc 26       		.uleb128 0x26
 3385 0efd 77090000 		.4byte	0x977
 3386 0f01 5D060000 		.4byte	.LLST51
 3387 0f05 00       		.byte	0
 3388 0f06 29       		.uleb128 0x29
 3389 0f07 D0010000 		.4byte	.LBB191
 3390 0f0b D6010000 		.4byte	.LBE191
 3391 0f0f 1D0F0000 		.4byte	0xf1d
 3392 0f13 26       		.uleb128 0x26
 3393 0f14 88090000 		.4byte	0x988
 3394 0f18 70060000 		.4byte	.LLST52
 3395 0f1c 00       		.byte	0
 3396 0f1d 29       		.uleb128 0x29
 3397 0f1e FE010000 		.4byte	.LBB192
 3398 0f22 04020000 		.4byte	.LBE192
 3399 0f26 340F0000 		.4byte	0xf34
 3400 0f2a 26       		.uleb128 0x26
 3401 0f2b 99090000 		.4byte	0x999
 3402 0f2f 83060000 		.4byte	.LLST53
ARM GAS  /tmp/ccQeRi3A.s 			page 61


 3403 0f33 00       		.byte	0
 3404 0f34 29       		.uleb128 0x29
 3405 0f35 4A020000 		.4byte	.LBB193
 3406 0f39 50020000 		.4byte	.LBE193
 3407 0f3d 4B0F0000 		.4byte	0xf4b
 3408 0f41 26       		.uleb128 0x26
 3409 0f42 AA090000 		.4byte	0x9aa
 3410 0f46 96060000 		.4byte	.LLST54
 3411 0f4a 00       		.byte	0
 3412 0f4b 29       		.uleb128 0x29
 3413 0f4c 70020000 		.4byte	.LBB194
 3414 0f50 76020000 		.4byte	.LBE194
 3415 0f54 620F0000 		.4byte	0xf62
 3416 0f58 26       		.uleb128 0x26
 3417 0f59 CC090000 		.4byte	0x9cc
 3418 0f5d A9060000 		.4byte	.LLST55
 3419 0f61 00       		.byte	0
 3420 0f62 29       		.uleb128 0x29
 3421 0f63 76020000 		.4byte	.LBB195
 3422 0f67 7C020000 		.4byte	.LBE195
 3423 0f6b 790F0000 		.4byte	0xf79
 3424 0f6f 26       		.uleb128 0x26
 3425 0f70 DD090000 		.4byte	0x9dd
 3426 0f74 BC060000 		.4byte	.LLST56
 3427 0f78 00       		.byte	0
 3428 0f79 29       		.uleb128 0x29
 3429 0f7a 92020000 		.4byte	.LBB196
 3430 0f7e 98020000 		.4byte	.LBE196
 3431 0f82 900F0000 		.4byte	0xf90
 3432 0f86 26       		.uleb128 0x26
 3433 0f87 EE090000 		.4byte	0x9ee
 3434 0f8b CF060000 		.4byte	.LLST57
 3435 0f8f 00       		.byte	0
 3436 0f90 29       		.uleb128 0x29
 3437 0f91 98020000 		.4byte	.LBB197
 3438 0f95 9E020000 		.4byte	.LBE197
 3439 0f99 A70F0000 		.4byte	0xfa7
 3440 0f9d 26       		.uleb128 0x26
 3441 0f9e FF090000 		.4byte	0x9ff
 3442 0fa2 E2060000 		.4byte	.LLST58
 3443 0fa6 00       		.byte	0
 3444 0fa7 29       		.uleb128 0x29
 3445 0fa8 BA020000 		.4byte	.LBB198
 3446 0fac C0020000 		.4byte	.LBE198
 3447 0fb0 BE0F0000 		.4byte	0xfbe
 3448 0fb4 26       		.uleb128 0x26
 3449 0fb5 210A0000 		.4byte	0xa21
 3450 0fb9 F5060000 		.4byte	.LLST59
 3451 0fbd 00       		.byte	0
 3452 0fbe 25       		.uleb128 0x25
 3453 0fbf 28010000 		.4byte	.Ldebug_ranges0+0x128
 3454 0fc3 D10F0000 		.4byte	0xfd1
 3455 0fc7 26       		.uleb128 0x26
 3456 0fc8 320A0000 		.4byte	0xa32
 3457 0fcc 08070000 		.4byte	.LLST60
 3458 0fd0 00       		.byte	0
 3459 0fd1 29       		.uleb128 0x29
ARM GAS  /tmp/ccQeRi3A.s 			page 62


 3460 0fd2 00030000 		.4byte	.LBB201
 3461 0fd6 06030000 		.4byte	.LBE201
 3462 0fda E80F0000 		.4byte	0xfe8
 3463 0fde 26       		.uleb128 0x26
 3464 0fdf 500A0000 		.4byte	0xa50
 3465 0fe3 1B070000 		.4byte	.LLST61
 3466 0fe7 00       		.byte	0
 3467 0fe8 29       		.uleb128 0x29
 3468 0fe9 4A030000 		.4byte	.LBB202
 3469 0fed 50030000 		.4byte	.LBE202
 3470 0ff1 FF0F0000 		.4byte	0xfff
 3471 0ff5 26       		.uleb128 0x26
 3472 0ff6 100A0000 		.4byte	0xa10
 3473 0ffa 2E070000 		.4byte	.LLST62
 3474 0ffe 00       		.byte	0
 3475 0fff 29       		.uleb128 0x29
 3476 1000 5A030000 		.4byte	.LBB203
 3477 1004 62030000 		.4byte	.LBE203
 3478 1008 16100000 		.4byte	0x1016
 3479 100c 26       		.uleb128 0x26
 3480 100d 11090000 		.4byte	0x911
 3481 1011 41070000 		.4byte	.LLST63
 3482 1015 00       		.byte	0
 3483 1016 29       		.uleb128 0x29
 3484 1017 66030000 		.4byte	.LBB204
 3485 101b 6E030000 		.4byte	.LBE204
 3486 101f 2D100000 		.4byte	0x102d
 3487 1023 26       		.uleb128 0x26
 3488 1024 DE080000 		.4byte	0x8de
 3489 1028 5F070000 		.4byte	.LLST64
 3490 102c 00       		.byte	0
 3491 102d 29       		.uleb128 0x29
 3492 102e 7C030000 		.4byte	.LBB205
 3493 1032 84030000 		.4byte	.LBE205
 3494 1036 44100000 		.4byte	0x1044
 3495 103a 26       		.uleb128 0x26
 3496 103b 66090000 		.4byte	0x966
 3497 103f 7D070000 		.4byte	.LLST65
 3498 1043 00       		.byte	0
 3499 1044 29       		.uleb128 0x29
 3500 1045 88030000 		.4byte	.LBB206
 3501 1049 90030000 		.4byte	.LBE206
 3502 104d 5B100000 		.4byte	0x105b
 3503 1051 26       		.uleb128 0x26
 3504 1052 BB090000 		.4byte	0x9bb
 3505 1056 9B070000 		.4byte	.LLST66
 3506 105a 00       		.byte	0
 3507 105b 2A       		.uleb128 0x2a
 3508 105c 94030000 		.4byte	.LBB207
 3509 1060 9C030000 		.4byte	.LBE207
 3510 1064 26       		.uleb128 0x26
 3511 1065 430A0000 		.4byte	0xa43
 3512 1069 B9070000 		.4byte	.LLST67
 3513 106d 00       		.byte	0
 3514 106e 00       		.byte	0
 3515 106f 00       		.byte	0
 3516 1070 00       		.byte	0
ARM GAS  /tmp/ccQeRi3A.s 			page 63


 3517 1071 2B       		.uleb128 0x2b
 3518 1072 FA030000 		.4byte	.LASF91
 3519 1076 08       		.byte	0x8
 3520 1077 68       		.byte	0x68
 3521 1078 D1030000 		.4byte	0x3d1
 3522 107c 01       		.byte	0x1
 3523 107d 01       		.byte	0x1
 3524 107e 15       		.uleb128 0x15
 3525 107f 73020000 		.4byte	0x273
 3526 1083 8E100000 		.4byte	0x108e
 3527 1087 16       		.uleb128 0x16
 3528 1088 3B000000 		.4byte	0x3b
 3529 108c 04       		.byte	0x4
 3530 108d 00       		.byte	0
 3531 108e 2B       		.uleb128 0x2b
 3532 108f 3B030000 		.4byte	.LASF92
 3533 1093 0B       		.byte	0xb
 3534 1094 A5       		.byte	0xa5
 3535 1095 7E100000 		.4byte	0x107e
 3536 1099 01       		.byte	0x1
 3537 109a 01       		.byte	0x1
 3538 109b 2B       		.uleb128 0x2b
 3539 109c 65000000 		.4byte	.LASF93
 3540 10a0 0B       		.byte	0xb
 3541 10a1 A6       		.byte	0xa6
 3542 10a2 EA050000 		.4byte	0x5ea
 3543 10a6 01       		.byte	0x1
 3544 10a7 01       		.byte	0x1
 3545 10a8 15       		.uleb128 0x15
 3546 10a9 B1020000 		.4byte	0x2b1
 3547 10ad B3100000 		.4byte	0x10b3
 3548 10b1 2C       		.uleb128 0x2c
 3549 10b2 00       		.byte	0
 3550 10b3 2D       		.uleb128 0x2d
 3551 10b4 776100   		.ascii	"wa\000"
 3552 10b7 0B       		.byte	0xb
 3553 10b8 A7       		.byte	0xa7
 3554 10b9 BF100000 		.4byte	0x10bf
 3555 10bd 01       		.byte	0x1
 3556 10be 01       		.byte	0x1
 3557 10bf 10       		.uleb128 0x10
 3558 10c0 A8100000 		.4byte	0x10a8
 3559 10c4 2E       		.uleb128 0x2e
 3560 10c5 697100   		.ascii	"iq\000"
 3561 10c8 01       		.byte	0x1
 3562 10c9 42       		.byte	0x42
 3563 10ca 28050000 		.4byte	0x528
 3564 10ce 05       		.byte	0x5
 3565 10cf 03       		.byte	0x3
 3566 10d0 00000000 		.4byte	iq
 3567 10d4 2E       		.uleb128 0x2e
 3568 10d5 6F7100   		.ascii	"oq\000"
 3569 10d8 01       		.byte	0x1
 3570 10d9 43       		.byte	0x43
 3571 10da 33050000 		.4byte	0x533
 3572 10de 05       		.byte	0x5
 3573 10df 03       		.byte	0x3
ARM GAS  /tmp/ccQeRi3A.s 			page 64


 3574 10e0 00000000 		.4byte	oq
 3575 10e4 2B       		.uleb128 0x2b
 3576 10e5 CF010000 		.4byte	.LASF94
 3577 10e9 01       		.byte	0x1
 3578 10ea 95       		.byte	0x95
 3579 10eb F1100000 		.4byte	0x10f1
 3580 10ef 01       		.byte	0x1
 3581 10f0 01       		.byte	0x1
 3582 10f1 10       		.uleb128 0x10
 3583 10f2 3E050000 		.4byte	0x53e
 3584 10f6 2B       		.uleb128 0x2b
 3585 10f7 4B020000 		.4byte	.LASF95
 3586 10fb 01       		.byte	0x1
 3587 10fc E3       		.byte	0xe3
 3588 10fd F1100000 		.4byte	0x10f1
 3589 1101 01       		.byte	0x1
 3590 1102 01       		.byte	0x1
 3591 1103 2B       		.uleb128 0x2b
 3592 1104 FA030000 		.4byte	.LASF91
 3593 1108 08       		.byte	0x8
 3594 1109 68       		.byte	0x68
 3595 110a D1030000 		.4byte	0x3d1
 3596 110e 01       		.byte	0x1
 3597 110f 01       		.byte	0x1
 3598 1110 2B       		.uleb128 0x2b
 3599 1111 3B030000 		.4byte	.LASF92
 3600 1115 0B       		.byte	0xb
 3601 1116 A5       		.byte	0xa5
 3602 1117 7E100000 		.4byte	0x107e
 3603 111b 01       		.byte	0x1
 3604 111c 01       		.byte	0x1
 3605 111d 2B       		.uleb128 0x2b
 3606 111e 65000000 		.4byte	.LASF93
 3607 1122 0B       		.byte	0xb
 3608 1123 A6       		.byte	0xa6
 3609 1124 EA050000 		.4byte	0x5ea
 3610 1128 01       		.byte	0x1
 3611 1129 01       		.byte	0x1
 3612 112a 2D       		.uleb128 0x2d
 3613 112b 776100   		.ascii	"wa\000"
 3614 112e 0B       		.byte	0xb
 3615 112f A7       		.byte	0xa7
 3616 1130 36110000 		.4byte	0x1136
 3617 1134 01       		.byte	0x1
 3618 1135 01       		.byte	0x1
 3619 1136 10       		.uleb128 0x10
 3620 1137 A8100000 		.4byte	0x10a8
 3621 113b 2F       		.uleb128 0x2f
 3622 113c CF010000 		.4byte	.LASF94
 3623 1140 01       		.byte	0x1
 3624 1141 95       		.byte	0x95
 3625 1142 F1100000 		.4byte	0x10f1
 3626 1146 01       		.byte	0x1
 3627 1147 05       		.byte	0x5
 3628 1148 03       		.byte	0x3
 3629 1149 00000000 		.4byte	testqueues1
 3630 114d 2F       		.uleb128 0x2f
ARM GAS  /tmp/ccQeRi3A.s 			page 65


 3631 114e 4B020000 		.4byte	.LASF95
 3632 1152 01       		.byte	0x1
 3633 1153 E3       		.byte	0xe3
 3634 1154 F1100000 		.4byte	0x10f1
 3635 1158 01       		.byte	0x1
 3636 1159 05       		.byte	0x5
 3637 115a 03       		.byte	0x3
 3638 115b 00000000 		.4byte	testqueues2
 3639 115f 15       		.uleb128 0x15
 3640 1160 6F110000 		.4byte	0x116f
 3641 1164 6F110000 		.4byte	0x116f
 3642 1168 16       		.uleb128 0x16
 3643 1169 3B000000 		.4byte	0x3b
 3644 116d 02       		.byte	0x2
 3645 116e 00       		.byte	0
 3646 116f 09       		.uleb128 0x9
 3647 1170 04       		.byte	0x4
 3648 1171 F1100000 		.4byte	0x10f1
 3649 1175 2F       		.uleb128 0x2f
 3650 1176 29000000 		.4byte	.LASF96
 3651 117a 01       		.byte	0x1
 3652 117b EE       		.byte	0xee
 3653 117c 87110000 		.4byte	0x1187
 3654 1180 01       		.byte	0x1
 3655 1181 05       		.byte	0x5
 3656 1182 03       		.byte	0x3
 3657 1183 00000000 		.4byte	patternqueues
 3658 1187 10       		.uleb128 0x10
 3659 1188 5F110000 		.4byte	0x115f
 3660 118c 00       		.byte	0
 3661              		.section	.debug_abbrev,"",%progbits
 3662              	.Ldebug_abbrev0:
 3663 0000 01       		.uleb128 0x1
 3664 0001 11       		.uleb128 0x11
 3665 0002 01       		.byte	0x1
 3666 0003 25       		.uleb128 0x25
 3667 0004 0E       		.uleb128 0xe
 3668 0005 13       		.uleb128 0x13
 3669 0006 0B       		.uleb128 0xb
 3670 0007 03       		.uleb128 0x3
 3671 0008 0E       		.uleb128 0xe
 3672 0009 1B       		.uleb128 0x1b
 3673 000a 0E       		.uleb128 0xe
 3674 000b 11       		.uleb128 0x11
 3675 000c 01       		.uleb128 0x1
 3676 000d 52       		.uleb128 0x52
 3677 000e 01       		.uleb128 0x1
 3678 000f 55       		.uleb128 0x55
 3679 0010 06       		.uleb128 0x6
 3680 0011 10       		.uleb128 0x10
 3681 0012 06       		.uleb128 0x6
 3682 0013 00       		.byte	0
 3683 0014 00       		.byte	0
 3684 0015 02       		.uleb128 0x2
 3685 0016 24       		.uleb128 0x24
 3686 0017 00       		.byte	0
 3687 0018 0B       		.uleb128 0xb
ARM GAS  /tmp/ccQeRi3A.s 			page 66


 3688 0019 0B       		.uleb128 0xb
 3689 001a 3E       		.uleb128 0x3e
 3690 001b 0B       		.uleb128 0xb
 3691 001c 03       		.uleb128 0x3
 3692 001d 08       		.uleb128 0x8
 3693 001e 00       		.byte	0
 3694 001f 00       		.byte	0
 3695 0020 03       		.uleb128 0x3
 3696 0021 16       		.uleb128 0x16
 3697 0022 00       		.byte	0
 3698 0023 03       		.uleb128 0x3
 3699 0024 0E       		.uleb128 0xe
 3700 0025 3A       		.uleb128 0x3a
 3701 0026 0B       		.uleb128 0xb
 3702 0027 3B       		.uleb128 0x3b
 3703 0028 0B       		.uleb128 0xb
 3704 0029 49       		.uleb128 0x49
 3705 002a 13       		.uleb128 0x13
 3706 002b 00       		.byte	0
 3707 002c 00       		.byte	0
 3708 002d 04       		.uleb128 0x4
 3709 002e 24       		.uleb128 0x24
 3710 002f 00       		.byte	0
 3711 0030 0B       		.uleb128 0xb
 3712 0031 0B       		.uleb128 0xb
 3713 0032 3E       		.uleb128 0x3e
 3714 0033 0B       		.uleb128 0xb
 3715 0034 03       		.uleb128 0x3
 3716 0035 0E       		.uleb128 0xe
 3717 0036 00       		.byte	0
 3718 0037 00       		.byte	0
 3719 0038 05       		.uleb128 0x5
 3720 0039 13       		.uleb128 0x13
 3721 003a 01       		.byte	0x1
 3722 003b 03       		.uleb128 0x3
 3723 003c 0E       		.uleb128 0xe
 3724 003d 0B       		.uleb128 0xb
 3725 003e 0B       		.uleb128 0xb
 3726 003f 3A       		.uleb128 0x3a
 3727 0040 0B       		.uleb128 0xb
 3728 0041 3B       		.uleb128 0x3b
 3729 0042 0B       		.uleb128 0xb
 3730 0043 01       		.uleb128 0x1
 3731 0044 13       		.uleb128 0x13
 3732 0045 00       		.byte	0
 3733 0046 00       		.byte	0
 3734 0047 06       		.uleb128 0x6
 3735 0048 0D       		.uleb128 0xd
 3736 0049 00       		.byte	0
 3737 004a 03       		.uleb128 0x3
 3738 004b 0E       		.uleb128 0xe
 3739 004c 3A       		.uleb128 0x3a
 3740 004d 0B       		.uleb128 0xb
 3741 004e 3B       		.uleb128 0x3b
 3742 004f 0B       		.uleb128 0xb
 3743 0050 49       		.uleb128 0x49
 3744 0051 13       		.uleb128 0x13
ARM GAS  /tmp/ccQeRi3A.s 			page 67


 3745 0052 38       		.uleb128 0x38
 3746 0053 0A       		.uleb128 0xa
 3747 0054 00       		.byte	0
 3748 0055 00       		.byte	0
 3749 0056 07       		.uleb128 0x7
 3750 0057 0D       		.uleb128 0xd
 3751 0058 00       		.byte	0
 3752 0059 03       		.uleb128 0x3
 3753 005a 08       		.uleb128 0x8
 3754 005b 3A       		.uleb128 0x3a
 3755 005c 0B       		.uleb128 0xb
 3756 005d 3B       		.uleb128 0x3b
 3757 005e 0B       		.uleb128 0xb
 3758 005f 49       		.uleb128 0x49
 3759 0060 13       		.uleb128 0x13
 3760 0061 38       		.uleb128 0x38
 3761 0062 0A       		.uleb128 0xa
 3762 0063 00       		.byte	0
 3763 0064 00       		.byte	0
 3764 0065 08       		.uleb128 0x8
 3765 0066 13       		.uleb128 0x13
 3766 0067 01       		.byte	0x1
 3767 0068 0B       		.uleb128 0xb
 3768 0069 0B       		.uleb128 0xb
 3769 006a 3A       		.uleb128 0x3a
 3770 006b 0B       		.uleb128 0xb
 3771 006c 3B       		.uleb128 0x3b
 3772 006d 0B       		.uleb128 0xb
 3773 006e 01       		.uleb128 0x1
 3774 006f 13       		.uleb128 0x13
 3775 0070 00       		.byte	0
 3776 0071 00       		.byte	0
 3777 0072 09       		.uleb128 0x9
 3778 0073 0F       		.uleb128 0xf
 3779 0074 00       		.byte	0
 3780 0075 0B       		.uleb128 0xb
 3781 0076 0B       		.uleb128 0xb
 3782 0077 49       		.uleb128 0x49
 3783 0078 13       		.uleb128 0x13
 3784 0079 00       		.byte	0
 3785 007a 00       		.byte	0
 3786 007b 0A       		.uleb128 0xa
 3787 007c 0F       		.uleb128 0xf
 3788 007d 00       		.byte	0
 3789 007e 0B       		.uleb128 0xb
 3790 007f 0B       		.uleb128 0xb
 3791 0080 00       		.byte	0
 3792 0081 00       		.byte	0
 3793 0082 0B       		.uleb128 0xb
 3794 0083 13       		.uleb128 0x13
 3795 0084 01       		.byte	0x1
 3796 0085 03       		.uleb128 0x3
 3797 0086 0E       		.uleb128 0xe
 3798 0087 0B       		.uleb128 0xb
 3799 0088 0B       		.uleb128 0xb
 3800 0089 3A       		.uleb128 0x3a
 3801 008a 0B       		.uleb128 0xb
ARM GAS  /tmp/ccQeRi3A.s 			page 68


 3802 008b 3B       		.uleb128 0x3b
 3803 008c 05       		.uleb128 0x5
 3804 008d 01       		.uleb128 0x1
 3805 008e 13       		.uleb128 0x13
 3806 008f 00       		.byte	0
 3807 0090 00       		.byte	0
 3808 0091 0C       		.uleb128 0xc
 3809 0092 0D       		.uleb128 0xd
 3810 0093 00       		.byte	0
 3811 0094 03       		.uleb128 0x3
 3812 0095 08       		.uleb128 0x8
 3813 0096 3A       		.uleb128 0x3a
 3814 0097 0B       		.uleb128 0xb
 3815 0098 3B       		.uleb128 0x3b
 3816 0099 05       		.uleb128 0x5
 3817 009a 49       		.uleb128 0x49
 3818 009b 13       		.uleb128 0x13
 3819 009c 38       		.uleb128 0x38
 3820 009d 0A       		.uleb128 0xa
 3821 009e 00       		.byte	0
 3822 009f 00       		.byte	0
 3823 00a0 0D       		.uleb128 0xd
 3824 00a1 35       		.uleb128 0x35
 3825 00a2 00       		.byte	0
 3826 00a3 49       		.uleb128 0x49
 3827 00a4 13       		.uleb128 0x13
 3828 00a5 00       		.byte	0
 3829 00a6 00       		.byte	0
 3830 00a7 0E       		.uleb128 0xe
 3831 00a8 17       		.uleb128 0x17
 3832 00a9 01       		.byte	0x1
 3833 00aa 0B       		.uleb128 0xb
 3834 00ab 0B       		.uleb128 0xb
 3835 00ac 3A       		.uleb128 0x3a
 3836 00ad 0B       		.uleb128 0xb
 3837 00ae 3B       		.uleb128 0x3b
 3838 00af 0B       		.uleb128 0xb
 3839 00b0 01       		.uleb128 0x1
 3840 00b1 13       		.uleb128 0x13
 3841 00b2 00       		.byte	0
 3842 00b3 00       		.byte	0
 3843 00b4 0F       		.uleb128 0xf
 3844 00b5 0D       		.uleb128 0xd
 3845 00b6 00       		.byte	0
 3846 00b7 03       		.uleb128 0x3
 3847 00b8 0E       		.uleb128 0xe
 3848 00b9 3A       		.uleb128 0x3a
 3849 00ba 0B       		.uleb128 0xb
 3850 00bb 3B       		.uleb128 0x3b
 3851 00bc 0B       		.uleb128 0xb
 3852 00bd 49       		.uleb128 0x49
 3853 00be 13       		.uleb128 0x13
 3854 00bf 00       		.byte	0
 3855 00c0 00       		.byte	0
 3856 00c1 10       		.uleb128 0x10
 3857 00c2 26       		.uleb128 0x26
 3858 00c3 00       		.byte	0
ARM GAS  /tmp/ccQeRi3A.s 			page 69


 3859 00c4 49       		.uleb128 0x49
 3860 00c5 13       		.uleb128 0x13
 3861 00c6 00       		.byte	0
 3862 00c7 00       		.byte	0
 3863 00c8 11       		.uleb128 0x11
 3864 00c9 15       		.uleb128 0x15
 3865 00ca 01       		.byte	0x1
 3866 00cb 27       		.uleb128 0x27
 3867 00cc 0C       		.uleb128 0xc
 3868 00cd 01       		.uleb128 0x1
 3869 00ce 13       		.uleb128 0x13
 3870 00cf 00       		.byte	0
 3871 00d0 00       		.byte	0
 3872 00d1 12       		.uleb128 0x12
 3873 00d2 05       		.uleb128 0x5
 3874 00d3 00       		.byte	0
 3875 00d4 49       		.uleb128 0x49
 3876 00d5 13       		.uleb128 0x13
 3877 00d6 00       		.byte	0
 3878 00d7 00       		.byte	0
 3879 00d8 13       		.uleb128 0x13
 3880 00d9 15       		.uleb128 0x15
 3881 00da 00       		.byte	0
 3882 00db 27       		.uleb128 0x27
 3883 00dc 0C       		.uleb128 0xc
 3884 00dd 00       		.byte	0
 3885 00de 00       		.byte	0
 3886 00df 14       		.uleb128 0x14
 3887 00e0 13       		.uleb128 0x13
 3888 00e1 01       		.byte	0x1
 3889 00e2 0B       		.uleb128 0xb
 3890 00e3 05       		.uleb128 0x5
 3891 00e4 3A       		.uleb128 0x3a
 3892 00e5 0B       		.uleb128 0xb
 3893 00e6 3B       		.uleb128 0x3b
 3894 00e7 0B       		.uleb128 0xb
 3895 00e8 01       		.uleb128 0x1
 3896 00e9 13       		.uleb128 0x13
 3897 00ea 00       		.byte	0
 3898 00eb 00       		.byte	0
 3899 00ec 15       		.uleb128 0x15
 3900 00ed 01       		.uleb128 0x1
 3901 00ee 01       		.byte	0x1
 3902 00ef 49       		.uleb128 0x49
 3903 00f0 13       		.uleb128 0x13
 3904 00f1 01       		.uleb128 0x1
 3905 00f2 13       		.uleb128 0x13
 3906 00f3 00       		.byte	0
 3907 00f4 00       		.byte	0
 3908 00f5 16       		.uleb128 0x16
 3909 00f6 21       		.uleb128 0x21
 3910 00f7 00       		.byte	0
 3911 00f8 49       		.uleb128 0x49
 3912 00f9 13       		.uleb128 0x13
 3913 00fa 2F       		.uleb128 0x2f
 3914 00fb 0B       		.uleb128 0xb
 3915 00fc 00       		.byte	0
ARM GAS  /tmp/ccQeRi3A.s 			page 70


 3916 00fd 00       		.byte	0
 3917 00fe 17       		.uleb128 0x17
 3918 00ff 17       		.uleb128 0x17
 3919 0100 01       		.byte	0x1
 3920 0101 03       		.uleb128 0x3
 3921 0102 0E       		.uleb128 0xe
 3922 0103 0B       		.uleb128 0xb
 3923 0104 05       		.uleb128 0x5
 3924 0105 3A       		.uleb128 0x3a
 3925 0106 0B       		.uleb128 0xb
 3926 0107 3B       		.uleb128 0x3b
 3927 0108 0B       		.uleb128 0xb
 3928 0109 01       		.uleb128 0x1
 3929 010a 13       		.uleb128 0x13
 3930 010b 00       		.byte	0
 3931 010c 00       		.byte	0
 3932 010d 18       		.uleb128 0x18
 3933 010e 0D       		.uleb128 0xd
 3934 010f 00       		.byte	0
 3935 0110 03       		.uleb128 0x3
 3936 0111 08       		.uleb128 0x8
 3937 0112 3A       		.uleb128 0x3a
 3938 0113 0B       		.uleb128 0xb
 3939 0114 3B       		.uleb128 0x3b
 3940 0115 0B       		.uleb128 0xb
 3941 0116 49       		.uleb128 0x49
 3942 0117 13       		.uleb128 0x13
 3943 0118 00       		.byte	0
 3944 0119 00       		.byte	0
 3945 011a 19       		.uleb128 0x19
 3946 011b 21       		.uleb128 0x21
 3947 011c 00       		.byte	0
 3948 011d 49       		.uleb128 0x49
 3949 011e 13       		.uleb128 0x13
 3950 011f 2F       		.uleb128 0x2f
 3951 0120 05       		.uleb128 0x5
 3952 0121 00       		.byte	0
 3953 0122 00       		.byte	0
 3954 0123 1A       		.uleb128 0x1a
 3955 0124 2E       		.uleb128 0x2e
 3956 0125 01       		.byte	0x1
 3957 0126 03       		.uleb128 0x3
 3958 0127 0E       		.uleb128 0xe
 3959 0128 3A       		.uleb128 0x3a
 3960 0129 0B       		.uleb128 0xb
 3961 012a 3B       		.uleb128 0x3b
 3962 012b 0B       		.uleb128 0xb
 3963 012c 27       		.uleb128 0x27
 3964 012d 0C       		.uleb128 0xc
 3965 012e 20       		.uleb128 0x20
 3966 012f 0B       		.uleb128 0xb
 3967 0130 01       		.uleb128 0x1
 3968 0131 13       		.uleb128 0x13
 3969 0132 00       		.byte	0
 3970 0133 00       		.byte	0
 3971 0134 1B       		.uleb128 0x1b
 3972 0135 34       		.uleb128 0x34
ARM GAS  /tmp/ccQeRi3A.s 			page 71


 3973 0136 00       		.byte	0
 3974 0137 03       		.uleb128 0x3
 3975 0138 08       		.uleb128 0x8
 3976 0139 3A       		.uleb128 0x3a
 3977 013a 0B       		.uleb128 0xb
 3978 013b 3B       		.uleb128 0x3b
 3979 013c 0B       		.uleb128 0xb
 3980 013d 49       		.uleb128 0x49
 3981 013e 13       		.uleb128 0x13
 3982 013f 00       		.byte	0
 3983 0140 00       		.byte	0
 3984 0141 1C       		.uleb128 0x1c
 3985 0142 0B       		.uleb128 0xb
 3986 0143 01       		.byte	0x1
 3987 0144 01       		.uleb128 0x1
 3988 0145 13       		.uleb128 0x13
 3989 0146 00       		.byte	0
 3990 0147 00       		.byte	0
 3991 0148 1D       		.uleb128 0x1d
 3992 0149 0B       		.uleb128 0xb
 3993 014a 01       		.byte	0x1
 3994 014b 00       		.byte	0
 3995 014c 00       		.byte	0
 3996 014d 1E       		.uleb128 0x1e
 3997 014e 2E       		.uleb128 0x2e
 3998 014f 01       		.byte	0x1
 3999 0150 03       		.uleb128 0x3
 4000 0151 0E       		.uleb128 0xe
 4001 0152 3A       		.uleb128 0x3a
 4002 0153 0B       		.uleb128 0xb
 4003 0154 3B       		.uleb128 0x3b
 4004 0155 0B       		.uleb128 0xb
 4005 0156 27       		.uleb128 0x27
 4006 0157 0C       		.uleb128 0xc
 4007 0158 11       		.uleb128 0x11
 4008 0159 01       		.uleb128 0x1
 4009 015a 12       		.uleb128 0x12
 4010 015b 01       		.uleb128 0x1
 4011 015c 40       		.uleb128 0x40
 4012 015d 0A       		.uleb128 0xa
 4013 015e 01       		.uleb128 0x1
 4014 015f 13       		.uleb128 0x13
 4015 0160 00       		.byte	0
 4016 0161 00       		.byte	0
 4017 0162 1F       		.uleb128 0x1f
 4018 0163 05       		.uleb128 0x5
 4019 0164 00       		.byte	0
 4020 0165 03       		.uleb128 0x3
 4021 0166 08       		.uleb128 0x8
 4022 0167 3A       		.uleb128 0x3a
 4023 0168 0B       		.uleb128 0xb
 4024 0169 3B       		.uleb128 0x3b
 4025 016a 0B       		.uleb128 0xb
 4026 016b 49       		.uleb128 0x49
 4027 016c 13       		.uleb128 0x13
 4028 016d 02       		.uleb128 0x2
 4029 016e 0A       		.uleb128 0xa
ARM GAS  /tmp/ccQeRi3A.s 			page 72


 4030 016f 00       		.byte	0
 4031 0170 00       		.byte	0
 4032 0171 20       		.uleb128 0x20
 4033 0172 2E       		.uleb128 0x2e
 4034 0173 01       		.byte	0x1
 4035 0174 03       		.uleb128 0x3
 4036 0175 0E       		.uleb128 0xe
 4037 0176 3A       		.uleb128 0x3a
 4038 0177 0B       		.uleb128 0xb
 4039 0178 3B       		.uleb128 0x3b
 4040 0179 0B       		.uleb128 0xb
 4041 017a 27       		.uleb128 0x27
 4042 017b 0C       		.uleb128 0xc
 4043 017c 49       		.uleb128 0x49
 4044 017d 13       		.uleb128 0x13
 4045 017e 11       		.uleb128 0x11
 4046 017f 01       		.uleb128 0x1
 4047 0180 12       		.uleb128 0x12
 4048 0181 01       		.uleb128 0x1
 4049 0182 40       		.uleb128 0x40
 4050 0183 06       		.uleb128 0x6
 4051 0184 01       		.uleb128 0x1
 4052 0185 13       		.uleb128 0x13
 4053 0186 00       		.byte	0
 4054 0187 00       		.byte	0
 4055 0188 21       		.uleb128 0x21
 4056 0189 05       		.uleb128 0x5
 4057 018a 00       		.byte	0
 4058 018b 03       		.uleb128 0x3
 4059 018c 08       		.uleb128 0x8
 4060 018d 3A       		.uleb128 0x3a
 4061 018e 0B       		.uleb128 0xb
 4062 018f 3B       		.uleb128 0x3b
 4063 0190 0B       		.uleb128 0xb
 4064 0191 49       		.uleb128 0x49
 4065 0192 13       		.uleb128 0x13
 4066 0193 02       		.uleb128 0x2
 4067 0194 06       		.uleb128 0x6
 4068 0195 00       		.byte	0
 4069 0196 00       		.byte	0
 4070 0197 22       		.uleb128 0x22
 4071 0198 2E       		.uleb128 0x2e
 4072 0199 00       		.byte	0
 4073 019a 03       		.uleb128 0x3
 4074 019b 0E       		.uleb128 0xe
 4075 019c 3A       		.uleb128 0x3a
 4076 019d 0B       		.uleb128 0xb
 4077 019e 3B       		.uleb128 0x3b
 4078 019f 0B       		.uleb128 0xb
 4079 01a0 27       		.uleb128 0x27
 4080 01a1 0C       		.uleb128 0xc
 4081 01a2 11       		.uleb128 0x11
 4082 01a3 01       		.uleb128 0x1
 4083 01a4 12       		.uleb128 0x12
 4084 01a5 01       		.uleb128 0x1
 4085 01a6 40       		.uleb128 0x40
 4086 01a7 06       		.uleb128 0x6
ARM GAS  /tmp/ccQeRi3A.s 			page 73


 4087 01a8 00       		.byte	0
 4088 01a9 00       		.byte	0
 4089 01aa 23       		.uleb128 0x23
 4090 01ab 2E       		.uleb128 0x2e
 4091 01ac 01       		.byte	0x1
 4092 01ad 31       		.uleb128 0x31
 4093 01ae 13       		.uleb128 0x13
 4094 01af 11       		.uleb128 0x11
 4095 01b0 01       		.uleb128 0x1
 4096 01b1 12       		.uleb128 0x12
 4097 01b2 01       		.uleb128 0x1
 4098 01b3 40       		.uleb128 0x40
 4099 01b4 06       		.uleb128 0x6
 4100 01b5 01       		.uleb128 0x1
 4101 01b6 13       		.uleb128 0x13
 4102 01b7 00       		.byte	0
 4103 01b8 00       		.byte	0
 4104 01b9 24       		.uleb128 0x24
 4105 01ba 34       		.uleb128 0x34
 4106 01bb 00       		.byte	0
 4107 01bc 31       		.uleb128 0x31
 4108 01bd 13       		.uleb128 0x13
 4109 01be 00       		.byte	0
 4110 01bf 00       		.byte	0
 4111 01c0 25       		.uleb128 0x25
 4112 01c1 0B       		.uleb128 0xb
 4113 01c2 01       		.byte	0x1
 4114 01c3 55       		.uleb128 0x55
 4115 01c4 06       		.uleb128 0x6
 4116 01c5 01       		.uleb128 0x1
 4117 01c6 13       		.uleb128 0x13
 4118 01c7 00       		.byte	0
 4119 01c8 00       		.byte	0
 4120 01c9 26       		.uleb128 0x26
 4121 01ca 34       		.uleb128 0x34
 4122 01cb 00       		.byte	0
 4123 01cc 31       		.uleb128 0x31
 4124 01cd 13       		.uleb128 0x13
 4125 01ce 02       		.uleb128 0x2
 4126 01cf 06       		.uleb128 0x6
 4127 01d0 00       		.byte	0
 4128 01d1 00       		.byte	0
 4129 01d2 27       		.uleb128 0x27
 4130 01d3 1D       		.uleb128 0x1d
 4131 01d4 01       		.byte	0x1
 4132 01d5 31       		.uleb128 0x31
 4133 01d6 13       		.uleb128 0x13
 4134 01d7 52       		.uleb128 0x52
 4135 01d8 01       		.uleb128 0x1
 4136 01d9 55       		.uleb128 0x55
 4137 01da 06       		.uleb128 0x6
 4138 01db 58       		.uleb128 0x58
 4139 01dc 0B       		.uleb128 0xb
 4140 01dd 59       		.uleb128 0x59
 4141 01de 0B       		.uleb128 0xb
 4142 01df 00       		.byte	0
 4143 01e0 00       		.byte	0
ARM GAS  /tmp/ccQeRi3A.s 			page 74


 4144 01e1 28       		.uleb128 0x28
 4145 01e2 0B       		.uleb128 0xb
 4146 01e3 01       		.byte	0x1
 4147 01e4 55       		.uleb128 0x55
 4148 01e5 06       		.uleb128 0x6
 4149 01e6 00       		.byte	0
 4150 01e7 00       		.byte	0
 4151 01e8 29       		.uleb128 0x29
 4152 01e9 0B       		.uleb128 0xb
 4153 01ea 01       		.byte	0x1
 4154 01eb 11       		.uleb128 0x11
 4155 01ec 01       		.uleb128 0x1
 4156 01ed 12       		.uleb128 0x12
 4157 01ee 01       		.uleb128 0x1
 4158 01ef 01       		.uleb128 0x1
 4159 01f0 13       		.uleb128 0x13
 4160 01f1 00       		.byte	0
 4161 01f2 00       		.byte	0
 4162 01f3 2A       		.uleb128 0x2a
 4163 01f4 0B       		.uleb128 0xb
 4164 01f5 01       		.byte	0x1
 4165 01f6 11       		.uleb128 0x11
 4166 01f7 01       		.uleb128 0x1
 4167 01f8 12       		.uleb128 0x12
 4168 01f9 01       		.uleb128 0x1
 4169 01fa 00       		.byte	0
 4170 01fb 00       		.byte	0
 4171 01fc 2B       		.uleb128 0x2b
 4172 01fd 34       		.uleb128 0x34
 4173 01fe 00       		.byte	0
 4174 01ff 03       		.uleb128 0x3
 4175 0200 0E       		.uleb128 0xe
 4176 0201 3A       		.uleb128 0x3a
 4177 0202 0B       		.uleb128 0xb
 4178 0203 3B       		.uleb128 0x3b
 4179 0204 0B       		.uleb128 0xb
 4180 0205 49       		.uleb128 0x49
 4181 0206 13       		.uleb128 0x13
 4182 0207 3F       		.uleb128 0x3f
 4183 0208 0C       		.uleb128 0xc
 4184 0209 3C       		.uleb128 0x3c
 4185 020a 0C       		.uleb128 0xc
 4186 020b 00       		.byte	0
 4187 020c 00       		.byte	0
 4188 020d 2C       		.uleb128 0x2c
 4189 020e 21       		.uleb128 0x21
 4190 020f 00       		.byte	0
 4191 0210 00       		.byte	0
 4192 0211 00       		.byte	0
 4193 0212 2D       		.uleb128 0x2d
 4194 0213 34       		.uleb128 0x34
 4195 0214 00       		.byte	0
 4196 0215 03       		.uleb128 0x3
 4197 0216 08       		.uleb128 0x8
 4198 0217 3A       		.uleb128 0x3a
 4199 0218 0B       		.uleb128 0xb
 4200 0219 3B       		.uleb128 0x3b
ARM GAS  /tmp/ccQeRi3A.s 			page 75


 4201 021a 0B       		.uleb128 0xb
 4202 021b 49       		.uleb128 0x49
 4203 021c 13       		.uleb128 0x13
 4204 021d 3F       		.uleb128 0x3f
 4205 021e 0C       		.uleb128 0xc
 4206 021f 3C       		.uleb128 0x3c
 4207 0220 0C       		.uleb128 0xc
 4208 0221 00       		.byte	0
 4209 0222 00       		.byte	0
 4210 0223 2E       		.uleb128 0x2e
 4211 0224 34       		.uleb128 0x34
 4212 0225 00       		.byte	0
 4213 0226 03       		.uleb128 0x3
 4214 0227 08       		.uleb128 0x8
 4215 0228 3A       		.uleb128 0x3a
 4216 0229 0B       		.uleb128 0xb
 4217 022a 3B       		.uleb128 0x3b
 4218 022b 0B       		.uleb128 0xb
 4219 022c 49       		.uleb128 0x49
 4220 022d 13       		.uleb128 0x13
 4221 022e 02       		.uleb128 0x2
 4222 022f 0A       		.uleb128 0xa
 4223 0230 00       		.byte	0
 4224 0231 00       		.byte	0
 4225 0232 2F       		.uleb128 0x2f
 4226 0233 34       		.uleb128 0x34
 4227 0234 00       		.byte	0
 4228 0235 03       		.uleb128 0x3
 4229 0236 0E       		.uleb128 0xe
 4230 0237 3A       		.uleb128 0x3a
 4231 0238 0B       		.uleb128 0xb
 4232 0239 3B       		.uleb128 0x3b
 4233 023a 0B       		.uleb128 0xb
 4234 023b 49       		.uleb128 0x49
 4235 023c 13       		.uleb128 0x13
 4236 023d 3F       		.uleb128 0x3f
 4237 023e 0C       		.uleb128 0xc
 4238 023f 02       		.uleb128 0x2
 4239 0240 0A       		.uleb128 0xa
 4240 0241 00       		.byte	0
 4241 0242 00       		.byte	0
 4242 0243 00       		.byte	0
 4243              		.section	.debug_loc,"",%progbits
 4244              	.Ldebug_loc0:
 4245              	.LLST0:
 4246 0000 00000000 		.4byte	.LFB12
 4247 0004 06000000 		.4byte	.LCFI0
 4248 0008 0200     		.2byte	0x2
 4249 000a 7D       		.byte	0x7d
 4250 000b 00       		.sleb128 0
 4251 000c 06000000 		.4byte	.LCFI0
 4252 0010 16000000 		.4byte	.LFE12
 4253 0014 0200     		.2byte	0x2
 4254 0016 7D       		.byte	0x7d
 4255 0017 08       		.sleb128 8
 4256 0018 00000000 		.4byte	0
 4257 001c 00000000 		.4byte	0
ARM GAS  /tmp/ccQeRi3A.s 			page 76


 4258              	.LLST1:
 4259 0020 00000000 		.4byte	.LVL1
 4260 0024 04000000 		.4byte	.LVL2
 4261 0028 0100     		.2byte	0x1
 4262 002a 50       		.byte	0x50
 4263 002b 00000000 		.4byte	0
 4264 002f 00000000 		.4byte	0
 4265              	.LLST2:
 4266 0033 00000000 		.4byte	.LFB11
 4267 0037 02000000 		.4byte	.LCFI1
 4268 003b 0200     		.2byte	0x2
 4269 003d 7D       		.byte	0x7d
 4270 003e 00       		.sleb128 0
 4271 003f 02000000 		.4byte	.LCFI1
 4272 0043 0E000000 		.4byte	.LCFI2
 4273 0047 0200     		.2byte	0x2
 4274 0049 7D       		.byte	0x7d
 4275 004a 04       		.sleb128 4
 4276 004b 0E000000 		.4byte	.LCFI2
 4277 004f 2C000000 		.4byte	.LFE11
 4278 0053 0200     		.2byte	0x2
 4279 0055 7D       		.byte	0x7d
 4280 0056 10       		.sleb128 16
 4281 0057 00000000 		.4byte	0
 4282 005b 00000000 		.4byte	0
 4283              	.LLST3:
 4284 005f 00000000 		.4byte	.LFB9
 4285 0063 06000000 		.4byte	.LCFI3
 4286 0067 0200     		.2byte	0x2
 4287 0069 7D       		.byte	0x7d
 4288 006a 00       		.sleb128 0
 4289 006b 06000000 		.4byte	.LCFI3
 4290 006f 14000000 		.4byte	.LFE9
 4291 0073 0200     		.2byte	0x2
 4292 0075 7D       		.byte	0x7d
 4293 0076 08       		.sleb128 8
 4294 0077 00000000 		.4byte	0
 4295 007b 00000000 		.4byte	0
 4296              	.LLST4:
 4297 007f 00000000 		.4byte	.LVL3
 4298 0083 04000000 		.4byte	.LVL4
 4299 0087 0100     		.2byte	0x1
 4300 0089 50       		.byte	0x50
 4301 008a 00000000 		.4byte	0
 4302 008e 00000000 		.4byte	0
 4303              	.LLST5:
 4304 0092 00000000 		.4byte	.LFB8
 4305 0096 02000000 		.4byte	.LCFI4
 4306 009a 0200     		.2byte	0x2
 4307 009c 7D       		.byte	0x7d
 4308 009d 00       		.sleb128 0
 4309 009e 02000000 		.4byte	.LCFI4
 4310 00a2 0E000000 		.4byte	.LCFI5
 4311 00a6 0200     		.2byte	0x2
 4312 00a8 7D       		.byte	0x7d
 4313 00a9 04       		.sleb128 4
 4314 00aa 0E000000 		.4byte	.LCFI5
ARM GAS  /tmp/ccQeRi3A.s 			page 77


 4315 00ae 2C000000 		.4byte	.LFE8
 4316 00b2 0200     		.2byte	0x2
 4317 00b4 7D       		.byte	0x7d
 4318 00b5 10       		.sleb128 16
 4319 00b6 00000000 		.4byte	0
 4320 00ba 00000000 		.4byte	0
 4321              	.LLST6:
 4322 00be 00000000 		.4byte	.LFB13
 4323 00c2 04000000 		.4byte	.LCFI6
 4324 00c6 0200     		.2byte	0x2
 4325 00c8 7D       		.byte	0x7d
 4326 00c9 00       		.sleb128 0
 4327 00ca 04000000 		.4byte	.LCFI6
 4328 00ce 08000000 		.4byte	.LCFI7
 4329 00d2 0200     		.2byte	0x2
 4330 00d4 7D       		.byte	0x7d
 4331 00d5 18       		.sleb128 24
 4332 00d6 08000000 		.4byte	.LCFI7
 4333 00da 74030000 		.4byte	.LFE13
 4334 00de 0200     		.2byte	0x2
 4335 00e0 7D       		.byte	0x7d
 4336 00e1 20       		.sleb128 32
 4337 00e2 00000000 		.4byte	0
 4338 00e6 00000000 		.4byte	0
 4339              	.LLST7:
 4340 00ea 0C000000 		.4byte	.LVL6
 4341 00ee 11000000 		.4byte	.LVL7-1
 4342 00f2 0100     		.2byte	0x1
 4343 00f4 53       		.byte	0x53
 4344 00f5 00000000 		.4byte	0
 4345 00f9 00000000 		.4byte	0
 4346              	.LLST8:
 4347 00fd 36000000 		.4byte	.LVL9
 4348 0101 44000000 		.4byte	.LVL10
 4349 0105 0200     		.2byte	0x2
 4350 0107 30       		.byte	0x30
 4351 0108 9F       		.byte	0x9f
 4352 0109 44000000 		.4byte	.LVL10
 4353 010d 50000000 		.4byte	.LVL11
 4354 0111 0200     		.2byte	0x2
 4355 0113 31       		.byte	0x31
 4356 0114 9F       		.byte	0x9f
 4357 0115 50000000 		.4byte	.LVL11
 4358 0119 5C000000 		.4byte	.LVL12
 4359 011d 0200     		.2byte	0x2
 4360 011f 32       		.byte	0x32
 4361 0120 9F       		.byte	0x9f
 4362 0121 5C000000 		.4byte	.LVL12
 4363 0125 68000000 		.4byte	.LVL13
 4364 0129 0200     		.2byte	0x2
 4365 012b 33       		.byte	0x33
 4366 012c 9F       		.byte	0x9f
 4367 012d 68000000 		.4byte	.LVL13
 4368 0131 94000000 		.4byte	.LVL18
 4369 0135 0200     		.2byte	0x2
 4370 0137 34       		.byte	0x34
 4371 0138 9F       		.byte	0x9f
ARM GAS  /tmp/ccQeRi3A.s 			page 78


 4372 0139 94000000 		.4byte	.LVL18
 4373 013d B6000000 		.4byte	.LVL26
 4374 0141 0200     		.2byte	0x2
 4375 0143 30       		.byte	0x30
 4376 0144 9F       		.byte	0x9f
 4377 0145 30030000 		.4byte	.LVL94
 4378 0149 3C030000 		.4byte	.LVL96
 4379 014d 0200     		.2byte	0x2
 4380 014f 34       		.byte	0x34
 4381 0150 9F       		.byte	0x9f
 4382 0151 00000000 		.4byte	0
 4383 0155 00000000 		.4byte	0
 4384              	.LLST9:
 4385 0159 9A010000 		.4byte	.LVL57
 4386 015d A6010000 		.4byte	.LVL58
 4387 0161 0100     		.2byte	0x1
 4388 0163 50       		.byte	0x50
 4389 0164 8A020000 		.4byte	.LVL81
 4390 0168 96020000 		.4byte	.LVL82
 4391 016c 0100     		.2byte	0x1
 4392 016e 50       		.byte	0x50
 4393 016f 96020000 		.4byte	.LVL82
 4394 0173 99020000 		.4byte	.LVL83-1
 4395 0177 0300     		.2byte	0x3
 4396 0179 73       		.byte	0x73
 4397 017a 02       		.sleb128 2
 4398 017b 9F       		.byte	0x9f
 4399 017c AA020000 		.4byte	.LVL84
 4400 0180 B8020000 		.4byte	.LVL85
 4401 0184 0100     		.2byte	0x1
 4402 0186 50       		.byte	0x50
 4403 0187 00000000 		.4byte	0
 4404 018b 00000000 		.4byte	0
 4405              	.LLST10:
 4406 018f 36000000 		.4byte	.LVL9
 4407 0193 43000000 		.4byte	.LVL10-1
 4408 0197 0100     		.2byte	0x1
 4409 0199 53       		.byte	0x53
 4410 019a 00000000 		.4byte	0
 4411 019e 00000000 		.4byte	0
 4412              	.LLST11:
 4413 01a2 6E000000 		.4byte	.LVL15
 4414 01a6 71000000 		.4byte	.LVL16-1
 4415 01aa 0100     		.2byte	0x1
 4416 01ac 53       		.byte	0x53
 4417 01ad 00000000 		.4byte	0
 4418 01b1 00000000 		.4byte	0
 4419              	.LLST12:
 4420 01b5 94000000 		.4byte	.LVL18
 4421 01b9 96000000 		.4byte	.LVL19
 4422 01bd 0100     		.2byte	0x1
 4423 01bf 53       		.byte	0x53
 4424 01c0 00000000 		.4byte	0
 4425 01c4 00000000 		.4byte	0
 4426              	.LLST13:
 4427 01c8 A6000000 		.4byte	.LVL22
 4428 01cc A9000000 		.4byte	.LVL23-1
ARM GAS  /tmp/ccQeRi3A.s 			page 79


 4429 01d0 0100     		.2byte	0x1
 4430 01d2 50       		.byte	0x50
 4431 01d3 A9000000 		.4byte	.LVL23-1
 4432 01d7 C8000000 		.4byte	.LVL29
 4433 01db 0100     		.2byte	0x1
 4434 01dd 56       		.byte	0x56
 4435 01de C8000000 		.4byte	.LVL29
 4436 01e2 CB000000 		.4byte	.LVL30-1
 4437 01e6 0100     		.2byte	0x1
 4438 01e8 50       		.byte	0x50
 4439 01e9 CB000000 		.4byte	.LVL30-1
 4440 01ed EA000000 		.4byte	.LVL35
 4441 01f1 0100     		.2byte	0x1
 4442 01f3 56       		.byte	0x56
 4443 01f4 EA000000 		.4byte	.LVL35
 4444 01f8 ED000000 		.4byte	.LVL36-1
 4445 01fc 0100     		.2byte	0x1
 4446 01fe 50       		.byte	0x50
 4447 01ff ED000000 		.4byte	.LVL36-1
 4448 0203 0C010000 		.4byte	.LVL41
 4449 0207 0100     		.2byte	0x1
 4450 0209 56       		.byte	0x56
 4451 020a 0C010000 		.4byte	.LVL41
 4452 020e 0F010000 		.4byte	.LVL42-1
 4453 0212 0100     		.2byte	0x1
 4454 0214 50       		.byte	0x50
 4455 0215 0F010000 		.4byte	.LVL42-1
 4456 0219 92010000 		.4byte	.LVL56
 4457 021d 0100     		.2byte	0x1
 4458 021f 56       		.byte	0x56
 4459 0220 46030000 		.4byte	.LVL97
 4460 0224 50030000 		.4byte	.LVL98
 4461 0228 0100     		.2byte	0x1
 4462 022a 56       		.byte	0x56
 4463 022b 00000000 		.4byte	0
 4464 022f 00000000 		.4byte	0
 4465              	.LLST14:
 4466 0233 9A000000 		.4byte	.LVL20
 4467 0237 9D000000 		.4byte	.LVL21-1
 4468 023b 0100     		.2byte	0x1
 4469 023d 53       		.byte	0x53
 4470 023e BC000000 		.4byte	.LVL27
 4471 0242 BF000000 		.4byte	.LVL28-1
 4472 0246 0100     		.2byte	0x1
 4473 0248 53       		.byte	0x53
 4474 0249 DE000000 		.4byte	.LVL33
 4475 024d E1000000 		.4byte	.LVL34-1
 4476 0251 0100     		.2byte	0x1
 4477 0253 53       		.byte	0x53
 4478 0254 00010000 		.4byte	.LVL39
 4479 0258 03010000 		.4byte	.LVL40-1
 4480 025c 0100     		.2byte	0x1
 4481 025e 53       		.byte	0x53
 4482 025f 00000000 		.4byte	0
 4483 0263 00000000 		.4byte	0
 4484              	.LLST15:
 4485 0267 B0000000 		.4byte	.LVL25
ARM GAS  /tmp/ccQeRi3A.s 			page 80


 4486 026b B5000000 		.4byte	.LVL26-1
 4487 026f 0100     		.2byte	0x1
 4488 0271 53       		.byte	0x53
 4489 0272 D2000000 		.4byte	.LVL31
 4490 0276 D7000000 		.4byte	.LVL32-1
 4491 027a 0100     		.2byte	0x1
 4492 027c 53       		.byte	0x53
 4493 027d F4000000 		.4byte	.LVL37
 4494 0281 F9000000 		.4byte	.LVL38-1
 4495 0285 0100     		.2byte	0x1
 4496 0287 53       		.byte	0x53
 4497 0288 16010000 		.4byte	.LVL43
 4498 028c 1B010000 		.4byte	.LVL44-1
 4499 0290 0100     		.2byte	0x1
 4500 0292 53       		.byte	0x53
 4501 0293 00000000 		.4byte	0
 4502 0297 00000000 		.4byte	0
 4503              	.LLST16:
 4504 029b 22010000 		.4byte	.LVL46
 4505 029f 25010000 		.4byte	.LVL47-1
 4506 02a3 0100     		.2byte	0x1
 4507 02a5 53       		.byte	0x53
 4508 02a6 00000000 		.4byte	0
 4509 02aa 00000000 		.4byte	0
 4510              	.LLST17:
 4511 02ae 4A010000 		.4byte	.LVL49
 4512 02b2 51010000 		.4byte	.LVL50-1
 4513 02b6 0100     		.2byte	0x1
 4514 02b8 53       		.byte	0x53
 4515 02b9 00000000 		.4byte	0
 4516 02bd 00000000 		.4byte	0
 4517              	.LLST18:
 4518 02c1 60010000 		.4byte	.LVL52
 4519 02c5 65010000 		.4byte	.LVL53-1
 4520 02c9 0100     		.2byte	0x1
 4521 02cb 53       		.byte	0x53
 4522 02cc 00000000 		.4byte	0
 4523 02d0 00000000 		.4byte	0
 4524              	.LLST19:
 4525 02d4 8C010000 		.4byte	.LVL55
 4526 02d8 99010000 		.4byte	.LVL57-1
 4527 02dc 0100     		.2byte	0x1
 4528 02de 53       		.byte	0x53
 4529 02df 00000000 		.4byte	0
 4530 02e3 00000000 		.4byte	0
 4531              	.LLST20:
 4532 02e7 B8010000 		.4byte	.LVL60
 4533 02eb BB010000 		.4byte	.LVL61-1
 4534 02ef 0100     		.2byte	0x1
 4535 02f1 53       		.byte	0x53
 4536 02f2 00000000 		.4byte	0
 4537 02f6 00000000 		.4byte	0
 4538              	.LLST21:
 4539 02fa DE010000 		.4byte	.LVL63
 4540 02fe E6010000 		.4byte	.LVL64
 4541 0302 0100     		.2byte	0x1
 4542 0304 53       		.byte	0x53
ARM GAS  /tmp/ccQeRi3A.s 			page 81


 4543 0305 00000000 		.4byte	0
 4544 0309 00000000 		.4byte	0
 4545              	.LLST22:
 4546 030d FE010000 		.4byte	.LVL66
 4547 0311 01020000 		.4byte	.LVL67-1
 4548 0315 0100     		.2byte	0x1
 4549 0317 53       		.byte	0x53
 4550 0318 00000000 		.4byte	0
 4551 031c 00000000 		.4byte	0
 4552              	.LLST23:
 4553 0320 32020000 		.4byte	.LVL69
 4554 0324 35020000 		.4byte	.LVL70-1
 4555 0328 0100     		.2byte	0x1
 4556 032a 53       		.byte	0x53
 4557 032b 00000000 		.4byte	0
 4558 032f 00000000 		.4byte	0
 4559              	.LLST24:
 4560 0333 3C020000 		.4byte	.LVL72
 4561 0337 3F020000 		.4byte	.LVL73-1
 4562 033b 0100     		.2byte	0x1
 4563 033d 53       		.byte	0x53
 4564 033e 00000000 		.4byte	0
 4565 0342 00000000 		.4byte	0
 4566              	.LLST25:
 4567 0346 50020000 		.4byte	.LVL75
 4568 034a 52020000 		.4byte	.LVL76
 4569 034e 0100     		.2byte	0x1
 4570 0350 53       		.byte	0x53
 4571 0351 00000000 		.4byte	0
 4572 0355 00000000 		.4byte	0
 4573              	.LLST26:
 4574 0359 56020000 		.4byte	.LVL77
 4575 035d 59020000 		.4byte	.LVL78-1
 4576 0361 0100     		.2byte	0x1
 4577 0363 53       		.byte	0x53
 4578 0364 00000000 		.4byte	0
 4579 0368 00000000 		.4byte	0
 4580              	.LLST27:
 4581 036c 80020000 		.4byte	.LVL80
 4582 0370 89020000 		.4byte	.LVL81-1
 4583 0374 0100     		.2byte	0x1
 4584 0376 53       		.byte	0x53
 4585 0377 00000000 		.4byte	0
 4586 037b 00000000 		.4byte	0
 4587              	.LLST28:
 4588 037f C6020000 		.4byte	.LVL87
 4589 0383 C9020000 		.4byte	.LVL88-1
 4590 0387 0100     		.2byte	0x1
 4591 0389 53       		.byte	0x53
 4592 038a 00000000 		.4byte	0
 4593 038e 00000000 		.4byte	0
 4594              	.LLST29:
 4595 0392 E6020000 		.4byte	.LVL90
 4596 0396 EF020000 		.4byte	.LVL91-1
 4597 039a 0100     		.2byte	0x1
 4598 039c 53       		.byte	0x53
 4599 039d 00000000 		.4byte	0
ARM GAS  /tmp/ccQeRi3A.s 			page 82


 4600 03a1 00000000 		.4byte	0
 4601              	.LLST30:
 4602 03a5 2A030000 		.4byte	.LVL93
 4603 03a9 30030000 		.4byte	.LVL94
 4604 03ad 0100     		.2byte	0x1
 4605 03af 53       		.byte	0x53
 4606 03b0 00000000 		.4byte	0
 4607 03b4 00000000 		.4byte	0
 4608              	.LLST31:
 4609 03b8 2A030000 		.4byte	.LVL93
 4610 03bc 30030000 		.4byte	.LVL94
 4611 03c0 0100     		.2byte	0x1
 4612 03c2 53       		.byte	0x53
 4613 03c3 3A030000 		.4byte	.LVL95
 4614 03c7 3C030000 		.4byte	.LVL96
 4615 03cb 0100     		.2byte	0x1
 4616 03cd 53       		.byte	0x53
 4617 03ce 00000000 		.4byte	0
 4618 03d2 00000000 		.4byte	0
 4619              	.LLST32:
 4620 03d6 2A030000 		.4byte	.LVL93
 4621 03da 30030000 		.4byte	.LVL94
 4622 03de 0100     		.2byte	0x1
 4623 03e0 53       		.byte	0x53
 4624 03e1 5A030000 		.4byte	.LVL99
 4625 03e5 5C030000 		.4byte	.LVL100
 4626 03e9 0100     		.2byte	0x1
 4627 03eb 53       		.byte	0x53
 4628 03ec 00000000 		.4byte	0
 4629 03f0 00000000 		.4byte	0
 4630              	.LLST33:
 4631 03f4 2A030000 		.4byte	.LVL93
 4632 03f8 30030000 		.4byte	.LVL94
 4633 03fc 0100     		.2byte	0x1
 4634 03fe 53       		.byte	0x53
 4635 03ff 66030000 		.4byte	.LVL101
 4636 0403 68030000 		.4byte	.LVL102
 4637 0407 0100     		.2byte	0x1
 4638 0409 53       		.byte	0x53
 4639 040a 00000000 		.4byte	0
 4640 040e 00000000 		.4byte	0
 4641              	.LLST34:
 4642 0412 2A030000 		.4byte	.LVL93
 4643 0416 30030000 		.4byte	.LVL94
 4644 041a 0100     		.2byte	0x1
 4645 041c 53       		.byte	0x53
 4646 041d 72030000 		.4byte	.LVL103
 4647 0421 74030000 		.4byte	.LFE13
 4648 0425 0100     		.2byte	0x1
 4649 0427 53       		.byte	0x53
 4650 0428 00000000 		.4byte	0
 4651 042c 00000000 		.4byte	0
 4652              	.LLST35:
 4653 0430 00000000 		.4byte	.LFB10
 4654 0434 04000000 		.4byte	.LCFI8
 4655 0438 0200     		.2byte	0x2
 4656 043a 7D       		.byte	0x7d
ARM GAS  /tmp/ccQeRi3A.s 			page 83


 4657 043b 00       		.sleb128 0
 4658 043c 04000000 		.4byte	.LCFI8
 4659 0440 08000000 		.4byte	.LCFI9
 4660 0444 0200     		.2byte	0x2
 4661 0446 7D       		.byte	0x7d
 4662 0447 1C       		.sleb128 28
 4663 0448 08000000 		.4byte	.LCFI9
 4664 044c 9C030000 		.4byte	.LFE10
 4665 0450 0200     		.2byte	0x2
 4666 0452 7D       		.byte	0x7d
 4667 0453 28       		.sleb128 40
 4668 0454 00000000 		.4byte	0
 4669 0458 00000000 		.4byte	0
 4670              	.LLST36:
 4671 045c 0C000000 		.4byte	.LVL105
 4672 0460 11000000 		.4byte	.LVL106-1
 4673 0464 0100     		.2byte	0x1
 4674 0466 53       		.byte	0x53
 4675 0467 00000000 		.4byte	0
 4676 046b 00000000 		.4byte	0
 4677              	.LLST37:
 4678 046f 3E000000 		.4byte	.LVL111
 4679 0473 46000000 		.4byte	.LVL112
 4680 0477 0200     		.2byte	0x2
 4681 0479 30       		.byte	0x30
 4682 047a 9F       		.byte	0x9f
 4683 047b 46000000 		.4byte	.LVL112
 4684 047f 4E000000 		.4byte	.LVL113
 4685 0483 0200     		.2byte	0x2
 4686 0485 31       		.byte	0x31
 4687 0486 9F       		.byte	0x9f
 4688 0487 4E000000 		.4byte	.LVL113
 4689 048b 56000000 		.4byte	.LVL114
 4690 048f 0200     		.2byte	0x2
 4691 0491 32       		.byte	0x32
 4692 0492 9F       		.byte	0x9f
 4693 0493 56000000 		.4byte	.LVL114
 4694 0497 5E000000 		.4byte	.LVL115
 4695 049b 0200     		.2byte	0x2
 4696 049d 33       		.byte	0x33
 4697 049e 9F       		.byte	0x9f
 4698 049f 5E000000 		.4byte	.LVL115
 4699 04a3 CA000000 		.4byte	.LVL127
 4700 04a7 0200     		.2byte	0x2
 4701 04a9 34       		.byte	0x34
 4702 04aa 9F       		.byte	0x9f
 4703 04ab CA000000 		.4byte	.LVL127
 4704 04af DA000000 		.4byte	.LVL129
 4705 04b3 0200     		.2byte	0x2
 4706 04b5 30       		.byte	0x30
 4707 04b6 9F       		.byte	0x9f
 4708 04b7 50010000 		.4byte	.LVL138
 4709 04bb 58010000 		.4byte	.LVL139
 4710 04bf 0200     		.2byte	0x2
 4711 04c1 30       		.byte	0x30
 4712 04c2 9F       		.byte	0x9f
 4713 04c3 58010000 		.4byte	.LVL139
ARM GAS  /tmp/ccQeRi3A.s 			page 84


 4714 04c7 60010000 		.4byte	.LVL140
 4715 04cb 0200     		.2byte	0x2
 4716 04cd 31       		.byte	0x31
 4717 04ce 9F       		.byte	0x9f
 4718 04cf 60010000 		.4byte	.LVL140
 4719 04d3 68010000 		.4byte	.LVL141
 4720 04d7 0200     		.2byte	0x2
 4721 04d9 32       		.byte	0x32
 4722 04da 9F       		.byte	0x9f
 4723 04db 68010000 		.4byte	.LVL141
 4724 04df 70010000 		.4byte	.LVL142
 4725 04e3 0200     		.2byte	0x2
 4726 04e5 33       		.byte	0x33
 4727 04e6 9F       		.byte	0x9f
 4728 04e7 70010000 		.4byte	.LVL142
 4729 04eb DA010000 		.4byte	.LVL154
 4730 04ef 0200     		.2byte	0x2
 4731 04f1 34       		.byte	0x34
 4732 04f2 9F       		.byte	0x9f
 4733 04f3 DA010000 		.4byte	.LVL154
 4734 04f7 E2010000 		.4byte	.LVL155
 4735 04fb 0200     		.2byte	0x2
 4736 04fd 30       		.byte	0x30
 4737 04fe 9F       		.byte	0x9f
 4738 04ff E2010000 		.4byte	.LVL155
 4739 0503 EA010000 		.4byte	.LVL156
 4740 0507 0200     		.2byte	0x2
 4741 0509 31       		.byte	0x31
 4742 050a 9F       		.byte	0x9f
 4743 050b EA010000 		.4byte	.LVL156
 4744 050f F2010000 		.4byte	.LVL157
 4745 0513 0200     		.2byte	0x2
 4746 0515 32       		.byte	0x32
 4747 0516 9F       		.byte	0x9f
 4748 0517 F2010000 		.4byte	.LVL157
 4749 051b FA010000 		.4byte	.LVL158
 4750 051f 0200     		.2byte	0x2
 4751 0521 33       		.byte	0x33
 4752 0522 9F       		.byte	0x9f
 4753 0523 FA010000 		.4byte	.LVL158
 4754 0527 46030000 		.4byte	.LVL188
 4755 052b 0200     		.2byte	0x2
 4756 052d 34       		.byte	0x34
 4757 052e 9F       		.byte	0x9f
 4758 052f 62030000 		.4byte	.LVL193
 4759 0533 9C030000 		.4byte	.LFE10
 4760 0537 0200     		.2byte	0x2
 4761 0539 34       		.byte	0x34
 4762 053a 9F       		.byte	0x9f
 4763 053b 00000000 		.4byte	0
 4764 053f 00000000 		.4byte	0
 4765              	.LLST38:
 4766 0543 8A010000 		.4byte	.LVL145
 4767 0547 98010000 		.4byte	.LVL146
 4768 054b 0100     		.2byte	0x1
 4769 054d 50       		.byte	0x50
 4770 054e 0E020000 		.4byte	.LVL161
ARM GAS  /tmp/ccQeRi3A.s 			page 85


 4771 0552 12020000 		.4byte	.LVL162
 4772 0556 0100     		.2byte	0x1
 4773 0558 50       		.byte	0x50
 4774 0559 12020000 		.4byte	.LVL162
 4775 055d 1A020000 		.4byte	.LVL163
 4776 0561 0300     		.2byte	0x3
 4777 0563 70       		.byte	0x70
 4778 0564 02       		.sleb128 2
 4779 0565 9F       		.byte	0x9f
 4780 0566 30020000 		.4byte	.LVL164
 4781 056a 3E020000 		.4byte	.LVL165
 4782 056e 0100     		.2byte	0x1
 4783 0570 50       		.byte	0x50
 4784 0571 00000000 		.4byte	0
 4785 0575 00000000 		.4byte	0
 4786              	.LLST39:
 4787 0579 34000000 		.4byte	.LVL108
 4788 057d 36000000 		.4byte	.LVL109
 4789 0581 0100     		.2byte	0x1
 4790 0583 53       		.byte	0x53
 4791 0584 00000000 		.4byte	0
 4792 0588 00000000 		.4byte	0
 4793              	.LLST40:
 4794 058c 3A000000 		.4byte	.LVL110
 4795 0590 3D000000 		.4byte	.LVL111-1
 4796 0594 0100     		.2byte	0x1
 4797 0596 53       		.byte	0x53
 4798 0597 00000000 		.4byte	0
 4799 059b 00000000 		.4byte	0
 4800              	.LLST41:
 4801 059f 68000000 		.4byte	.LVL117
 4802 05a3 6A000000 		.4byte	.LVL118
 4803 05a7 0100     		.2byte	0x1
 4804 05a9 53       		.byte	0x53
 4805 05aa 00000000 		.4byte	0
 4806 05ae 00000000 		.4byte	0
 4807              	.LLST42:
 4808 05b2 6E000000 		.4byte	.LVL119
 4809 05b6 71000000 		.4byte	.LVL120-1
 4810 05ba 0100     		.2byte	0x1
 4811 05bc 53       		.byte	0x53
 4812 05bd 00000000 		.4byte	0
 4813 05c1 00000000 		.4byte	0
 4814              	.LLST43:
 4815 05c5 96000000 		.4byte	.LVL122
 4816 05c9 98000000 		.4byte	.LVL123
 4817 05cd 0100     		.2byte	0x1
 4818 05cf 53       		.byte	0x53
 4819 05d0 00000000 		.4byte	0
 4820 05d4 00000000 		.4byte	0
 4821              	.LLST44:
 4822 05d8 9C000000 		.4byte	.LVL124
 4823 05dc A1000000 		.4byte	.LVL125-1
 4824 05e0 0100     		.2byte	0x1
 4825 05e2 53       		.byte	0x53
 4826 05e3 00000000 		.4byte	0
 4827 05e7 00000000 		.4byte	0
ARM GAS  /tmp/ccQeRi3A.s 			page 86


 4828              	.LLST45:
 4829 05eb CA000000 		.4byte	.LVL127
 4830 05ef D3000000 		.4byte	.LVL128-1
 4831 05f3 0100     		.2byte	0x1
 4832 05f5 53       		.byte	0x53
 4833 05f6 00000000 		.4byte	0
 4834 05fa 00000000 		.4byte	0
 4835              	.LLST46:
 4836 05fe 10010000 		.4byte	.LVL131
 4837 0602 13010000 		.4byte	.LVL132-1
 4838 0606 0100     		.2byte	0x1
 4839 0608 53       		.byte	0x53
 4840 0609 00000000 		.4byte	0
 4841 060d 00000000 		.4byte	0
 4842              	.LLST47:
 4843 0611 36010000 		.4byte	.LVL134
 4844 0615 3D010000 		.4byte	.LVL135-1
 4845 0619 0100     		.2byte	0x1
 4846 061b 53       		.byte	0x53
 4847 061c 00000000 		.4byte	0
 4848 0620 00000000 		.4byte	0
 4849              	.LLST48:
 4850 0624 4C010000 		.4byte	.LVL137
 4851 0628 4F010000 		.4byte	.LVL138-1
 4852 062c 0100     		.2byte	0x1
 4853 062e 53       		.byte	0x53
 4854 062f 00000000 		.4byte	0
 4855 0633 00000000 		.4byte	0
 4856              	.LLST49:
 4857 0637 7A010000 		.4byte	.LVL144
 4858 063b 89010000 		.4byte	.LVL145-1
 4859 063f 0100     		.2byte	0x1
 4860 0641 53       		.byte	0x53
 4861 0642 00000000 		.4byte	0
 4862 0646 00000000 		.4byte	0
 4863              	.LLST50:
 4864 064a AA010000 		.4byte	.LVL148
 4865 064e AD010000 		.4byte	.LVL149-1
 4866 0652 0100     		.2byte	0x1
 4867 0654 53       		.byte	0x53
 4868 0655 00000000 		.4byte	0
 4869 0659 00000000 		.4byte	0
 4870              	.LLST51:
 4871 065d D0010000 		.4byte	.LVL151
 4872 0661 D2010000 		.4byte	.LVL152
 4873 0665 0100     		.2byte	0x1
 4874 0667 53       		.byte	0x53
 4875 0668 00000000 		.4byte	0
 4876 066c 00000000 		.4byte	0
 4877              	.LLST52:
 4878 0670 D6010000 		.4byte	.LVL153
 4879 0674 D9010000 		.4byte	.LVL154-1
 4880 0678 0100     		.2byte	0x1
 4881 067a 53       		.byte	0x53
 4882 067b 00000000 		.4byte	0
 4883 067f 00000000 		.4byte	0
 4884              	.LLST53:
ARM GAS  /tmp/ccQeRi3A.s 			page 87


 4885 0683 04020000 		.4byte	.LVL160
 4886 0687 0D020000 		.4byte	.LVL161-1
 4887 068b 0100     		.2byte	0x1
 4888 068d 53       		.byte	0x53
 4889 068e 00000000 		.4byte	0
 4890 0692 00000000 		.4byte	0
 4891              	.LLST54:
 4892 0696 50020000 		.4byte	.LVL167
 4893 069a 53020000 		.4byte	.LVL168-1
 4894 069e 0100     		.2byte	0x1
 4895 06a0 53       		.byte	0x53
 4896 06a1 00000000 		.4byte	0
 4897 06a5 00000000 		.4byte	0
 4898              	.LLST55:
 4899 06a9 76020000 		.4byte	.LVL170
 4900 06ad 78020000 		.4byte	.LVL171
 4901 06b1 0100     		.2byte	0x1
 4902 06b3 53       		.byte	0x53
 4903 06b4 00000000 		.4byte	0
 4904 06b8 00000000 		.4byte	0
 4905              	.LLST56:
 4906 06bc 7C020000 		.4byte	.LVL172
 4907 06c0 7F020000 		.4byte	.LVL173-1
 4908 06c4 0100     		.2byte	0x1
 4909 06c6 53       		.byte	0x53
 4910 06c7 00000000 		.4byte	0
 4911 06cb 00000000 		.4byte	0
 4912              	.LLST57:
 4913 06cf 98020000 		.4byte	.LVL175
 4914 06d3 9A020000 		.4byte	.LVL176
 4915 06d7 0100     		.2byte	0x1
 4916 06d9 53       		.byte	0x53
 4917 06da 00000000 		.4byte	0
 4918 06de 00000000 		.4byte	0
 4919              	.LLST58:
 4920 06e2 9E020000 		.4byte	.LVL177
 4921 06e6 A1020000 		.4byte	.LVL178-1
 4922 06ea 0100     		.2byte	0x1
 4923 06ec 53       		.byte	0x53
 4924 06ed 00000000 		.4byte	0
 4925 06f1 00000000 		.4byte	0
 4926              	.LLST59:
 4927 06f5 C0020000 		.4byte	.LVL180
 4928 06f9 CA020000 		.4byte	.LVL181
 4929 06fd 0100     		.2byte	0x1
 4930 06ff 53       		.byte	0x53
 4931 0700 00000000 		.4byte	0
 4932 0704 00000000 		.4byte	0
 4933              	.LLST60:
 4934 0708 E2020000 		.4byte	.LVL183
 4935 070c E5020000 		.4byte	.LVL184-1
 4936 0710 0100     		.2byte	0x1
 4937 0712 53       		.byte	0x53
 4938 0713 00000000 		.4byte	0
 4939 0717 00000000 		.4byte	0
 4940              	.LLST61:
 4941 071b 06030000 		.4byte	.LVL186
ARM GAS  /tmp/ccQeRi3A.s 			page 88


 4942 071f 09030000 		.4byte	.LVL187-1
 4943 0723 0100     		.2byte	0x1
 4944 0725 53       		.byte	0x53
 4945 0726 00000000 		.4byte	0
 4946 072a 00000000 		.4byte	0
 4947              	.LLST62:
 4948 072e 50030000 		.4byte	.LVL190
 4949 0732 56030000 		.4byte	.LVL191
 4950 0736 0100     		.2byte	0x1
 4951 0738 53       		.byte	0x53
 4952 0739 00000000 		.4byte	0
 4953 073d 00000000 		.4byte	0
 4954              	.LLST63:
 4955 0741 50030000 		.4byte	.LVL190
 4956 0745 56030000 		.4byte	.LVL191
 4957 0749 0100     		.2byte	0x1
 4958 074b 53       		.byte	0x53
 4959 074c 60030000 		.4byte	.LVL192
 4960 0750 62030000 		.4byte	.LVL193
 4961 0754 0100     		.2byte	0x1
 4962 0756 53       		.byte	0x53
 4963 0757 00000000 		.4byte	0
 4964 075b 00000000 		.4byte	0
 4965              	.LLST64:
 4966 075f 50030000 		.4byte	.LVL190
 4967 0763 56030000 		.4byte	.LVL191
 4968 0767 0100     		.2byte	0x1
 4969 0769 53       		.byte	0x53
 4970 076a 6C030000 		.4byte	.LVL194
 4971 076e 6E030000 		.4byte	.LVL195
 4972 0772 0100     		.2byte	0x1
 4973 0774 53       		.byte	0x53
 4974 0775 00000000 		.4byte	0
 4975 0779 00000000 		.4byte	0
 4976              	.LLST65:
 4977 077d 50030000 		.4byte	.LVL190
 4978 0781 56030000 		.4byte	.LVL191
 4979 0785 0100     		.2byte	0x1
 4980 0787 53       		.byte	0x53
 4981 0788 82030000 		.4byte	.LVL196
 4982 078c 84030000 		.4byte	.LVL197
 4983 0790 0100     		.2byte	0x1
 4984 0792 53       		.byte	0x53
 4985 0793 00000000 		.4byte	0
 4986 0797 00000000 		.4byte	0
 4987              	.LLST66:
 4988 079b 50030000 		.4byte	.LVL190
 4989 079f 56030000 		.4byte	.LVL191
 4990 07a3 0100     		.2byte	0x1
 4991 07a5 53       		.byte	0x53
 4992 07a6 8E030000 		.4byte	.LVL198
 4993 07aa 90030000 		.4byte	.LVL199
 4994 07ae 0100     		.2byte	0x1
 4995 07b0 53       		.byte	0x53
 4996 07b1 00000000 		.4byte	0
 4997 07b5 00000000 		.4byte	0
 4998              	.LLST67:
ARM GAS  /tmp/ccQeRi3A.s 			page 89


 4999 07b9 50030000 		.4byte	.LVL190
 5000 07bd 56030000 		.4byte	.LVL191
 5001 07c1 0100     		.2byte	0x1
 5002 07c3 53       		.byte	0x53
 5003 07c4 9A030000 		.4byte	.LVL200
 5004 07c8 9C030000 		.4byte	.LFE10
 5005 07cc 0100     		.2byte	0x1
 5006 07ce 53       		.byte	0x53
 5007 07cf 00000000 		.4byte	0
 5008 07d3 00000000 		.4byte	0
 5009              		.section	.debug_aranges,"",%progbits
 5010 0000 4C000000 		.4byte	0x4c
 5011 0004 0200     		.2byte	0x2
 5012 0006 00000000 		.4byte	.Ldebug_info0
 5013 000a 04       		.byte	0x4
 5014 000b 00       		.byte	0
 5015 000c 0000     		.2byte	0
 5016 000e 0000     		.2byte	0
 5017 0010 00000000 		.4byte	.LFB7
 5018 0014 02000000 		.4byte	.LFE7-.LFB7
 5019 0018 00000000 		.4byte	.LFB12
 5020 001c 16000000 		.4byte	.LFE12-.LFB12
 5021 0020 00000000 		.4byte	.LFB11
 5022 0024 2C000000 		.4byte	.LFE11-.LFB11
 5023 0028 00000000 		.4byte	.LFB9
 5024 002c 14000000 		.4byte	.LFE9-.LFB9
 5025 0030 00000000 		.4byte	.LFB8
 5026 0034 2C000000 		.4byte	.LFE8-.LFB8
 5027 0038 00000000 		.4byte	.LFB13
 5028 003c 74030000 		.4byte	.LFE13-.LFB13
 5029 0040 00000000 		.4byte	.LFB10
 5030 0044 9C030000 		.4byte	.LFE10-.LFB10
 5031 0048 00000000 		.4byte	0
 5032 004c 00000000 		.4byte	0
 5033              		.section	.debug_ranges,"",%progbits
 5034              	.Ldebug_ranges0:
 5035 0000 04000000 		.4byte	.LBB96
 5036 0004 06000000 		.4byte	.LBE96
 5037 0008 08000000 		.4byte	.LBB97
 5038 000c 0C000000 		.4byte	.LBE97
 5039 0010 00000000 		.4byte	0
 5040 0014 00000000 		.4byte	0
 5041 0018 2C000000 		.4byte	.LBB98
 5042 001c FC020000 		.4byte	.LBE98
 5043 0020 02030000 		.4byte	.LBB135
 5044 0024 2A030000 		.4byte	.LBE135
 5045 0028 30030000 		.4byte	.LBB136
 5046 002c 3C030000 		.4byte	.LBE136
 5047 0030 46030000 		.4byte	.LBB137
 5048 0034 74030000 		.4byte	.LBE137
 5049 0038 00000000 		.4byte	0
 5050 003c 00000000 		.4byte	0
 5051 0040 2C000000 		.4byte	.LBB99
 5052 0044 FC020000 		.4byte	.LBE99
 5053 0048 02030000 		.4byte	.LBB132
 5054 004c 2A030000 		.4byte	.LBE132
 5055 0050 30030000 		.4byte	.LBB133
ARM GAS  /tmp/ccQeRi3A.s 			page 90


 5056 0054 3C030000 		.4byte	.LBE133
 5057 0058 46030000 		.4byte	.LBB134
 5058 005c 74030000 		.4byte	.LBE134
 5059 0060 00000000 		.4byte	0
 5060 0064 00000000 		.4byte	0
 5061 0068 94000000 		.4byte	.LBB104
 5062 006c 9A000000 		.4byte	.LBE104
 5063 0070 B6000000 		.4byte	.LBB106
 5064 0074 BC000000 		.4byte	.LBE106
 5065 0078 D8000000 		.4byte	.LBB108
 5066 007c DE000000 		.4byte	.LBE108
 5067 0080 FA000000 		.4byte	.LBB110
 5068 0084 00010000 		.4byte	.LBE110
 5069 0088 00000000 		.4byte	0
 5070 008c 00000000 		.4byte	0
 5071 0090 AA000000 		.4byte	.LBB105
 5072 0094 B0000000 		.4byte	.LBE105
 5073 0098 CC000000 		.4byte	.LBB107
 5074 009c D2000000 		.4byte	.LBE107
 5075 00a0 EE000000 		.4byte	.LBB109
 5076 00a4 F4000000 		.4byte	.LBE109
 5077 00a8 10010000 		.4byte	.LBB111
 5078 00ac 16010000 		.4byte	.LBE111
 5079 00b0 00000000 		.4byte	0
 5080 00b4 00000000 		.4byte	0
 5081 00b8 F6010000 		.4byte	.LBB118
 5082 00bc F8010000 		.4byte	.LBE118
 5083 00c0 FA010000 		.4byte	.LBB119
 5084 00c4 FE010000 		.4byte	.LBE119
 5085 00c8 00000000 		.4byte	0
 5086 00cc 00000000 		.4byte	0
 5087 00d0 04000000 		.4byte	.LBB174
 5088 00d4 06000000 		.4byte	.LBE174
 5089 00d8 08000000 		.4byte	.LBB175
 5090 00dc 0C000000 		.4byte	.LBE175
 5091 00e0 00000000 		.4byte	0
 5092 00e4 00000000 		.4byte	0
 5093 00e8 2A000000 		.4byte	.LBB176
 5094 00ec 3C030000 		.4byte	.LBE176
 5095 00f0 42030000 		.4byte	.LBB210
 5096 00f4 50030000 		.4byte	.LBE210
 5097 00f8 56030000 		.4byte	.LBB211
 5098 00fc 9C030000 		.4byte	.LBE211
 5099 0100 00000000 		.4byte	0
 5100 0104 00000000 		.4byte	0
 5101 0108 2A000000 		.4byte	.LBB177
 5102 010c 3C030000 		.4byte	.LBE177
 5103 0110 42030000 		.4byte	.LBB208
 5104 0114 50030000 		.4byte	.LBE208
 5105 0118 56030000 		.4byte	.LBB209
 5106 011c 9C030000 		.4byte	.LBE209
 5107 0120 00000000 		.4byte	0
 5108 0124 00000000 		.4byte	0
 5109 0128 DA020000 		.4byte	.LBB199
 5110 012c DC020000 		.4byte	.LBE199
 5111 0130 DE020000 		.4byte	.LBB200
 5112 0134 E2020000 		.4byte	.LBE200
ARM GAS  /tmp/ccQeRi3A.s 			page 91


 5113 0138 00000000 		.4byte	0
 5114 013c 00000000 		.4byte	0
 5115 0140 00000000 		.4byte	.LFB7
 5116 0144 02000000 		.4byte	.LFE7
 5117 0148 00000000 		.4byte	.LFB12
 5118 014c 16000000 		.4byte	.LFE12
 5119 0150 00000000 		.4byte	.LFB11
 5120 0154 2C000000 		.4byte	.LFE11
 5121 0158 00000000 		.4byte	.LFB9
 5122 015c 14000000 		.4byte	.LFE9
 5123 0160 00000000 		.4byte	.LFB8
 5124 0164 2C000000 		.4byte	.LFE8
 5125 0168 00000000 		.4byte	.LFB13
 5126 016c 74030000 		.4byte	.LFE13
 5127 0170 00000000 		.4byte	.LFB10
 5128 0174 9C030000 		.4byte	.LFE10
 5129 0178 00000000 		.4byte	0
 5130 017c 00000000 		.4byte	0
 5131              		.section	.debug_line,"",%progbits
 5132              	.Ldebug_line0:
 5133 0000 02030000 		.section	.debug_str,"MS",%progbits,1
 5133      0200E601 
 5133      00000201 
 5133      FB0E0D00 
 5133      01010101 
 5134              	.LASF40:
 5135 0000 705F6D73 		.ascii	"p_msg\000"
 5135      6700
 5136              	.LASF2:
 5137 0006 73697A65 		.ascii	"size_t\000"
 5137      5F7400
 5138              	.LASF62:
 5139 000d 7264796D 		.ascii	"rdymsg\000"
 5139      736700
 5140              	.LASF12:
 5141 0014 75696E74 		.ascii	"uint64_t\000"
 5141      36345F74 
 5141      00
 5142              	.LASF78:
 5143 001d 4F757470 		.ascii	"OutputQueue\000"
 5143      75745175 
 5143      65756500 
 5144              	.LASF96:
 5145 0029 70617474 		.ascii	"patternqueues\000"
 5145      65726E71 
 5145      75657565 
 5145      7300
 5146              	.LASF13:
 5147 0037 6C6F6E67 		.ascii	"long long unsigned int\000"
 5147      206C6F6E 
 5147      6720756E 
 5147      7369676E 
 5147      65642069 
 5148              	.LASF63:
 5149 004e 65786974 		.ascii	"exitcode\000"
 5149      636F6465 
 5149      00
ARM GAS  /tmp/ccQeRi3A.s 			page 92


 5150              	.LASF89:
 5151 0057 71756575 		.ascii	"queues2_setup\000"
 5151      6573325F 
 5151      73657475 
 5151      7000
 5152              	.LASF93:
 5153 0065 74657374 		.ascii	"test\000"
 5153      00
 5154              	.LASF27:
 5155 006a 705F7072 		.ascii	"p_prio\000"
 5155      696F00
 5156              	.LASF68:
 5157 0071 715F7761 		.ascii	"q_waiting\000"
 5157      6974696E 
 5157      6700
 5158              	.LASF11:
 5159 007b 6C6F6E67 		.ascii	"long long int\000"
 5159      206C6F6E 
 5159      6720696E 
 5159      7400
 5160              	.LASF1:
 5161 0089 7369676E 		.ascii	"signed char\000"
 5161      65642063 
 5161      68617200 
 5162              	.LASF44:
 5163 0095 705F6D70 		.ascii	"p_mpool\000"
 5163      6F6F6C00 
 5164              	.LASF14:
 5165 009d 626F6F6C 		.ascii	"bool_t\000"
 5165      5F7400
 5166              	.LASF59:
 5167 00a4 6D5F7175 		.ascii	"m_queue\000"
 5167      65756500 
 5168              	.LASF19:
 5169 00ac 74736C69 		.ascii	"tslices_t\000"
 5169      6365735F 
 5169      7400
 5170              	.LASF8:
 5171 00b6 6C6F6E67 		.ascii	"long int\000"
 5171      20696E74 
 5171      00
 5172              	.LASF97:
 5173 00bf 474E5520 		.ascii	"GNU C 4.6.2 20120613 (release) [ARM/embedded-4_6-br"
 5173      4320342E 
 5173      362E3220 
 5173      32303132 
 5173      30363133 
 5174 00f2 616E6368 		.ascii	"anch revision 188521]\000"
 5174      20726576 
 5174      6973696F 
 5174      6E203138 
 5174      38353231 
 5175              	.LASF99:
 5176 0108 2F686F6D 		.ascii	"/home/tino/workspace/openrobots/R2P_IR_module/fw\000"
 5176      652F7469 
 5176      6E6F2F77 
 5176      6F726B73 
ARM GAS  /tmp/ccQeRi3A.s 			page 93


 5176      70616365 
 5177              	.LASF17:
 5178 0139 74737461 		.ascii	"tstate_t\000"
 5178      74655F74 
 5178      00
 5179              	.LASF70:
 5180 0142 715F6275 		.ascii	"q_buffer\000"
 5180      66666572 
 5180      00
 5181              	.LASF72:
 5182 014b 715F7772 		.ascii	"q_wrptr\000"
 5182      70747200 
 5183              	.LASF29:
 5184 0153 705F6E65 		.ascii	"p_newer\000"
 5184      77657200 
 5185              	.LASF54:
 5186 015b 725F6E65 		.ascii	"r_newer\000"
 5186      77657200 
 5187              	.LASF47:
 5188 0163 72656761 		.ascii	"regarm_t\000"
 5188      726D5F74 
 5188      00
 5189              	.LASF32:
 5190 016c 705F7374 		.ascii	"p_stklimit\000"
 5190      6B6C696D 
 5190      697400
 5191              	.LASF0:
 5192 0177 756E7369 		.ascii	"unsigned int\000"
 5192      676E6564 
 5192      20696E74 
 5192      00
 5193              	.LASF10:
 5194 0184 6C6F6E67 		.ascii	"long unsigned int\000"
 5194      20756E73 
 5194      69676E65 
 5194      6420696E 
 5194      7400
 5195              	.LASF82:
 5196 0196 74656172 		.ascii	"teardown\000"
 5196      646F776E 
 5196      00
 5197              	.LASF80:
 5198 019f 6E616D65 		.ascii	"name\000"
 5198      00
 5199              	.LASF50:
 5200 01a4 636F6E74 		.ascii	"context\000"
 5200      65787400 
 5201              	.LASF6:
 5202 01ac 73686F72 		.ascii	"short unsigned int\000"
 5202      7420756E 
 5202      7369676E 
 5202      65642069 
 5202      6E7400
 5203              	.LASF86:
 5204 01bf 71756575 		.ascii	"queues1_execute\000"
 5204      6573315F 
 5204      65786563 
ARM GAS  /tmp/ccQeRi3A.s 			page 94


 5204      75746500 
 5205              	.LASF94:
 5206 01cf 74657374 		.ascii	"testqueues1\000"
 5206      71756575 
 5206      65733100 
 5207              	.LASF21:
 5208 01db 6D73675F 		.ascii	"msg_t\000"
 5208      7400
 5209              	.LASF16:
 5210 01e1 746D6F64 		.ascii	"tmode_t\000"
 5210      655F7400 
 5211              	.LASF46:
 5212 01e9 54687265 		.ascii	"ThreadsList\000"
 5212      6164734C 
 5212      69737400 
 5213              	.LASF22:
 5214 01f5 6576656E 		.ascii	"eventmask_t\000"
 5214      746D6173 
 5214      6B5F7400 
 5215              	.LASF77:
 5216 0201 496E7075 		.ascii	"InputQueue\000"
 5216      74517565 
 5216      756500
 5217              	.LASF58:
 5218 020c 4D757465 		.ascii	"Mutex\000"
 5218      7800
 5219              	.LASF67:
 5220 0212 47656E65 		.ascii	"GenericQueue\000"
 5220      72696351 
 5220      75657565 
 5220      00
 5221              	.LASF48:
 5222 021f 73746B61 		.ascii	"stkalign_t\000"
 5222      6C69676E 
 5222      5F7400
 5223              	.LASF101:
 5224 022a 6E6F7469 		.ascii	"notify\000"
 5224      667900
 5225              	.LASF85:
 5226 0231 71756575 		.ascii	"queues2_execute\000"
 5226      6573325F 
 5226      65786563 
 5226      75746500 
 5227              	.LASF69:
 5228 0241 715F636F 		.ascii	"q_counter\000"
 5228      756E7465 
 5228      7200
 5229              	.LASF95:
 5230 024b 74657374 		.ascii	"testqueues2\000"
 5230      71756575 
 5230      65733200 
 5231              	.LASF30:
 5232 0257 705F6F6C 		.ascii	"p_older\000"
 5232      64657200 
 5233              	.LASF88:
 5234 025f 74687265 		.ascii	"thread1\000"
 5234      61643100 
ARM GAS  /tmp/ccQeRi3A.s 			page 95


 5235              	.LASF87:
 5236 0267 74687265 		.ascii	"thread2\000"
 5236      61643200 
 5237              	.LASF53:
 5238 026f 725F6374 		.ascii	"r_ctx\000"
 5238      7800
 5239              	.LASF45:
 5240 0275 54687265 		.ascii	"ThreadsQueue\000"
 5240      61647351 
 5240      75657565 
 5240      00
 5241              	.LASF81:
 5242 0282 73657475 		.ascii	"setup\000"
 5242      7000
 5243              	.LASF56:
 5244 0288 725F6375 		.ascii	"r_current\000"
 5244      7272656E 
 5244      7400
 5245              	.LASF55:
 5246 0292 725F6F6C 		.ascii	"r_older\000"
 5246      64657200 
 5247              	.LASF98:
 5248 029a 2E2E2F2E 		.ascii	"../../ChibiOS/test/testqueues.c\000"
 5248      2E2F4368 
 5248      6962694F 
 5248      532F7465 
 5248      73742F74 
 5249              	.LASF90:
 5250 02ba 71756575 		.ascii	"queues1_setup\000"
 5250      6573315F 
 5250      73657475 
 5250      7000
 5251              	.LASF18:
 5252 02c8 74726566 		.ascii	"trefs_t\000"
 5252      735F7400 
 5253              	.LASF76:
 5254 02d0 716E6F74 		.ascii	"qnotify_t\000"
 5254      6966795F 
 5254      7400
 5255              	.LASF26:
 5256 02da 705F7072 		.ascii	"p_prev\000"
 5256      657600
 5257              	.LASF83:
 5258 02e1 65786563 		.ascii	"execute\000"
 5258      75746500 
 5259              	.LASF20:
 5260 02e9 74707269 		.ascii	"tprio_t\000"
 5260      6F5F7400 
 5261              	.LASF73:
 5262 02f1 715F7264 		.ascii	"q_rdptr\000"
 5262      70747200 
 5263              	.LASF15:
 5264 02f9 5F426F6F 		.ascii	"_Bool\000"
 5264      6C00
 5265              	.LASF7:
 5266 02ff 696E7433 		.ascii	"int32_t\000"
 5266      325F7400 
ARM GAS  /tmp/ccQeRi3A.s 			page 96


 5267              	.LASF4:
 5268 0307 756E7369 		.ascii	"unsigned char\000"
 5268      676E6564 
 5268      20636861 
 5268      7200
 5269              	.LASF42:
 5270 0315 705F6D74 		.ascii	"p_mtxlist\000"
 5270      786C6973 
 5270      7400
 5271              	.LASF5:
 5272 031f 73686F72 		.ascii	"short int\000"
 5272      7420696E 
 5272      7400
 5273              	.LASF33:
 5274 0329 705F7374 		.ascii	"p_state\000"
 5274      61746500 
 5275              	.LASF36:
 5276 0331 705F7072 		.ascii	"p_preempt\000"
 5276      65656D70 
 5276      7400
 5277              	.LASF92:
 5278 033b 74687265 		.ascii	"threads\000"
 5278      61647300 
 5279              	.LASF52:
 5280 0343 725F7072 		.ascii	"r_prio\000"
 5280      696F00
 5281              	.LASF65:
 5282 034a 65776D61 		.ascii	"ewmask\000"
 5282      736B00
 5283              	.LASF25:
 5284 0351 705F6E65 		.ascii	"p_next\000"
 5284      787400
 5285              	.LASF34:
 5286 0358 705F666C 		.ascii	"p_flags\000"
 5286      61677300 
 5287              	.LASF24:
 5288 0360 54687265 		.ascii	"Thread\000"
 5288      616400
 5289              	.LASF79:
 5290 0367 74657374 		.ascii	"testcase\000"
 5290      63617365 
 5290      00
 5291              	.LASF41:
 5292 0370 705F6570 		.ascii	"p_epending\000"
 5292      656E6469 
 5292      6E6700
 5293              	.LASF9:
 5294 037b 75696E74 		.ascii	"uint32_t\000"
 5294      33325F74 
 5294      00
 5295              	.LASF51:
 5296 0384 725F7175 		.ascii	"r_queue\000"
 5296      65756500 
 5297              	.LASF66:
 5298 038c 63686172 		.ascii	"char\000"
 5298      00
 5299              	.LASF100:
ARM GAS  /tmp/ccQeRi3A.s 			page 97


 5300 0391 74657374 		.ascii	"test_buffers\000"
 5300      5F627566 
 5300      66657273 
 5300      00
 5301              	.LASF61:
 5302 039e 6D5F6E65 		.ascii	"m_next\000"
 5302      787400
 5303              	.LASF23:
 5304 03a5 73797374 		.ascii	"systime_t\000"
 5304      696D655F 
 5304      7400
 5305              	.LASF43:
 5306 03af 705F7265 		.ascii	"p_realprio\000"
 5306      616C7072 
 5306      696F00
 5307              	.LASF84:
 5308 03ba 62756666 		.ascii	"buffer\000"
 5308      657200
 5309              	.LASF37:
 5310 03c1 705F7469 		.ascii	"p_time\000"
 5310      6D6500
 5311              	.LASF49:
 5312 03c8 696E7463 		.ascii	"intctx\000"
 5312      747800
 5313              	.LASF39:
 5314 03cf 705F6D73 		.ascii	"p_msgqueue\000"
 5314      67717565 
 5314      756500
 5315              	.LASF71:
 5316 03da 715F746F 		.ascii	"q_top\000"
 5316      7000
 5317              	.LASF35:
 5318 03e0 705F7265 		.ascii	"p_refs\000"
 5318      667300
 5319              	.LASF57:
 5320 03e7 52656164 		.ascii	"ReadyList\000"
 5320      794C6973 
 5320      7400
 5321              	.LASF74:
 5322 03f1 715F6E6F 		.ascii	"q_notify\000"
 5322      74696679 
 5322      00
 5323              	.LASF91:
 5324 03fa 726C6973 		.ascii	"rlist\000"
 5324      7400
 5325              	.LASF3:
 5326 0400 75696E74 		.ascii	"uint8_t\000"
 5326      385F7400 
 5327              	.LASF64:
 5328 0408 77746F62 		.ascii	"wtobjp\000"
 5328      6A7000
 5329              	.LASF31:
 5330 040f 705F6E61 		.ascii	"p_name\000"
 5330      6D6500
 5331              	.LASF75:
 5332 0416 715F6C69 		.ascii	"q_link\000"
 5332      6E6B00
ARM GAS  /tmp/ccQeRi3A.s 			page 98


 5333              	.LASF60:
 5334 041d 6D5F6F77 		.ascii	"m_owner\000"
 5334      6E657200 
 5335              	.LASF28:
 5336 0425 705F6374 		.ascii	"p_ctx\000"
 5336      7800
 5337              	.LASF38:
 5338 042b 705F7761 		.ascii	"p_waiting\000"
 5338      6974696E 
 5338      6700
 5339              		.ident	"GCC: (GNU Tools for ARM Embedded Processors) 4.6.2 20120613 (release) [ARM/embedded-4_6-br
ARM GAS  /tmp/ccQeRi3A.s 			page 99


DEFINED SYMBOLS
                            *ABS*:00000000 testqueues.c
     /tmp/ccQeRi3A.s:19     .text.notify:00000000 $t
     /tmp/ccQeRi3A.s:24     .text.notify:00000000 notify
     /tmp/ccQeRi3A.s:39     .text.thread2:00000000 $t
     /tmp/ccQeRi3A.s:44     .text.thread2:00000000 thread2
     /tmp/ccQeRi3A.s:1559   .data.oq:00000000 .LANCHOR0
     /tmp/ccQeRi3A.s:72     .text.queues2_setup:00000000 $t
     /tmp/ccQeRi3A.s:77     .text.queues2_setup:00000000 queues2_setup
     /tmp/ccQeRi3A.s:111    .text.thread1:00000000 $t
     /tmp/ccQeRi3A.s:116    .text.thread1:00000000 thread1
     /tmp/ccQeRi3A.s:1574   .data.iq:00000000 .LANCHOR1
     /tmp/ccQeRi3A.s:143    .text.queues1_setup:00000000 $t
     /tmp/ccQeRi3A.s:148    .text.queues1_setup:00000000 queues1_setup
     /tmp/ccQeRi3A.s:182    .text.queues2_execute:00000000 $t
     /tmp/ccQeRi3A.s:187    .text.queues2_execute:00000000 queues2_execute
     /tmp/ccQeRi3A.s:751    .text.queues2_execute:00000308 $d
     /tmp/ccQeRi3A.s:759    .text.queues2_execute:00000320 $t
     /tmp/ccQeRi3A.s:855    .text.queues1_execute:00000000 $t
     /tmp/ccQeRi3A.s:860    .text.queues1_execute:00000000 queues1_execute
     /tmp/ccQeRi3A.s:1404   .text.queues1_execute:00000324 $d
     /tmp/ccQeRi3A.s:1414   .text.queues1_execute:0000033c $t
     /tmp/ccQeRi3A.s:1553   .rodata.patternqueues:00000000 patternqueues
     /tmp/ccQeRi3A.s:1534   .rodata.testqueues2:00000000 testqueues2
     /tmp/ccQeRi3A.s:1525   .rodata.testqueues1:00000000 testqueues1
     /tmp/ccQeRi3A.s:1522   .rodata.testqueues1:00000000 $d
     /tmp/ccQeRi3A.s:1531   .rodata.testqueues2:00000000 $d
     /tmp/ccQeRi3A.s:1540   .rodata.str1.4:00000000 $d
     /tmp/ccQeRi3A.s:1550   .rodata.patternqueues:00000000 $d
     /tmp/ccQeRi3A.s:1558   .data.oq:00000000 $d
     /tmp/ccQeRi3A.s:1562   .data.oq:00000000 oq
     /tmp/ccQeRi3A.s:1573   .data.iq:00000000 $d
     /tmp/ccQeRi3A.s:1577   .data.iq:00000000 iq
                     .debug_frame:00000010 $d

UNDEFINED SYMBOLS
chOQPutTimeout
wa
chOQInit
chIQGetTimeout
chIQInit
dbg_check_lock
_test_assert
dbg_check_unlock
chOQGetI
test_emit_token
_test_assert_sequence
chOQWriteTimeout
chThdCreateStatic
test_wait_threads
chOQResetI
rlist
threads
chIQPutI
chIQReadTimeout
chIQResetI
test
ARM GAS  /tmp/ccQeRi3A.s 			page 100


