ARM GAS  /tmp/cc66XAnl.s 			page 1


   1              		.syntax unified
   2              		.cpu cortex-m3
   3              		.fpu softvfp
   4              		.eabi_attribute 20, 1
   5              		.eabi_attribute 21, 1
   6              		.eabi_attribute 23, 3
   7              		.eabi_attribute 24, 1
   8              		.eabi_attribute 25, 1
   9              		.eabi_attribute 26, 1
  10              		.eabi_attribute 30, 2
  11              		.eabi_attribute 34, 1
  12              		.eabi_attribute 18, 4
  13              		.thumb
  14              		.file	"testevt.c"
  15              		.text
  16              	.Ltext0:
  17              		.cfi_sections	.debug_frame
  18              		.section	.text.evt3_setup,"ax",%progbits
  19              		.align	2
  20              		.p2align 4,,15
  21              		.thumb
  22              		.thumb_func
  23              		.type	evt3_setup, %function
  24              	evt3_setup:
  25              	.LFB16:
  26              		.file 1 "../../ChibiOS/test/testevt.c"
  27              		.loc 1 247 0
  28              		.cfi_startproc
  29              		@ args = 0, pretend = 0, frame = 0
  30              		@ frame_needed = 0, uses_anonymous_args = 0
  31              		@ link register save eliminated.
  32              		.loc 1 249 0
  33 0000 4FF0FF30 		mov	r0, #-1
  34              		.loc 1 250 0
  35              		.loc 1 249 0
  36 0004 FFF7FEBF 		b	chEvtGetAndClearEvents
  37              		.cfi_endproc
  38              	.LFE16:
  39              		.size	evt3_setup, .-evt3_setup
  40 0008 AFF30080 		.section	.text.evt2_setup,"ax",%progbits
  40      AFF30080 
  41              		.align	2
  42              		.p2align 4,,15
  43              		.thumb
  44              		.thumb_func
  45              		.type	evt2_setup, %function
  46              	evt2_setup:
  47              	.LFB12:
  48              		.loc 1 128 0
  49              		.cfi_startproc
  50              		@ args = 0, pretend = 0, frame = 0
  51              		@ frame_needed = 0, uses_anonymous_args = 0
  52              		@ link register save eliminated.
  53              		.loc 1 130 0
  54 0000 4FF0FF30 		mov	r0, #-1
  55              		.loc 1 131 0
  56              		.loc 1 130 0
ARM GAS  /tmp/cc66XAnl.s 			page 2


  57 0004 FFF7FEBF 		b	chEvtGetAndClearEvents
  58              		.cfi_endproc
  59              	.LFE12:
  60              		.size	evt2_setup, .-evt2_setup
  61 0008 AFF30080 		.section	.text.evt1_setup,"ax",%progbits
  61      AFF30080 
  62              		.align	2
  63              		.p2align 4,,15
  64              		.thumb
  65              		.thumb_func
  66              		.type	evt1_setup, %function
  67              	evt1_setup:
  68              	.LFB7:
  69              		.loc 1 75 0
  70              		.cfi_startproc
  71              		@ args = 0, pretend = 0, frame = 0
  72              		@ frame_needed = 0, uses_anonymous_args = 0
  73              		@ link register save eliminated.
  74              		.loc 1 77 0
  75 0000 4FF0FF30 		mov	r0, #-1
  76              		.loc 1 78 0
  77              		.loc 1 77 0
  78 0004 FFF7FEBF 		b	chEvtGetAndClearEvents
  79              		.cfi_endproc
  80              	.LFE7:
  81              		.size	evt1_setup, .-evt1_setup
  82 0008 AFF30080 		.section	.text.thread2,"ax",%progbits
  82      AFF30080 
  83              		.align	2
  84              		.p2align 4,,15
  85              		.thumb
  86              		.thumb_func
  87              		.type	thread2, %function
  88              	thread2:
  89              	.LFB14:
  90              		.loc 1 140 0
  91              		.cfi_startproc
  92              		@ args = 0, pretend = 0, frame = 0
  93              		@ frame_needed = 0, uses_anonymous_args = 0
  94              	.LVL0:
  95              		.loc 1 143 0
  96 0000 40F20000 		movw	r0, #:lower16:.LANCHOR0
  97              	.LVL1:
  98              		.loc 1 140 0
  99 0004 08B5     		push	{r3, lr}
 100              	.LCFI0:
 101              		.cfi_def_cfa_offset 8
 102              		.cfi_offset 14, -4
 103              		.cfi_offset 3, -8
 104              		.loc 1 143 0
 105 0006 0021     		movs	r1, #0
 106 0008 C0F20000 		movt	r0, #:upper16:.LANCHOR0
 107 000c FFF7FEFF 		bl	chEvtBroadcastFlags
 108              		.loc 1 144 0
 109 0010 3220     		movs	r0, #50
 110 0012 FFF7FEFF 		bl	chThdSleep
 111              		.loc 1 145 0
ARM GAS  /tmp/cc66XAnl.s 			page 3


 112 0016 40F20000 		movw	r0, #:lower16:.LANCHOR1
 113 001a C0F20000 		movt	r0, #:upper16:.LANCHOR1
 114 001e 0021     		movs	r1, #0
 115 0020 FFF7FEFF 		bl	chEvtBroadcastFlags
 116              		.loc 1 147 0
 117 0024 0020     		movs	r0, #0
 118 0026 08BD     		pop	{r3, pc}
 119              		.cfi_endproc
 120              	.LFE14:
 121              		.size	thread2, .-thread2
 122 0028 AFF30080 		.section	.text.thread1,"ax",%progbits
 122      AFF30080 
 123              		.align	2
 124              		.p2align 4,,15
 125              		.thumb
 126              		.thumb_func
 127              		.type	thread1, %function
 128              	thread1:
 129              	.LFB13:
 130              		.loc 1 133 0
 131              		.cfi_startproc
 132              		@ args = 0, pretend = 0, frame = 0
 133              		@ frame_needed = 0, uses_anonymous_args = 0
 134              	.LVL2:
 135 0000 10B5     		push	{r4, lr}
 136              	.LCFI1:
 137              		.cfi_def_cfa_offset 8
 138              		.cfi_offset 14, -4
 139              		.cfi_offset 4, -8
 140              		.loc 1 133 0
 141 0002 0446     		mov	r4, r0
 142              		.loc 1 135 0
 143 0004 3220     		movs	r0, #50
 144              	.LVL3:
 145 0006 FFF7FEFF 		bl	chThdSleep
 146              		.loc 1 136 0
 147 000a 2046     		mov	r0, r4
 148 000c 0121     		movs	r1, #1
 149 000e FFF7FEFF 		bl	chEvtSignal
 150              		.loc 1 138 0
 151 0012 0020     		movs	r0, #0
 152 0014 10BD     		pop	{r4, pc}
 153              		.cfi_endproc
 154              	.LFE13:
 155              		.size	thread1, .-thread1
 156 0016 00BFAFF3 		.section	.text.evt1_execute,"ax",%progbits
 156      0080AFF3 
 156      0080
 157              		.align	2
 158              		.p2align 4,,15
 159              		.thumb
 160              		.thumb_func
 161              		.type	evt1_execute, %function
 162              	evt1_execute:
 163              	.LFB11:
 164              		.loc 1 85 0
 165              		.cfi_startproc
ARM GAS  /tmp/cc66XAnl.s 			page 4


 166              		@ args = 0, pretend = 0, frame = 32
 167              		@ frame_needed = 0, uses_anonymous_args = 0
 168 0000 10B5     		push	{r4, lr}
 169              	.LCFI2:
 170              		.cfi_def_cfa_offset 8
 171              		.cfi_offset 14, -4
 172              		.cfi_offset 4, -8
 173              		.loc 1 91 0
 174 0002 1E4C     		ldr	r4, .L10
 175              		.loc 1 85 0
 176 0004 88B0     		sub	sp, sp, #32
 177              	.LCFI3:
 178              		.cfi_def_cfa_offset 40
 179              		.loc 1 92 0
 180 0006 0122     		movs	r2, #1
 181 0008 2046     		mov	r0, r4
 182 000a 6946     		mov	r1, sp
 183              		.loc 1 91 0
 184 000c 2460     		str	r4, [r4, #0]
 185              		.loc 1 92 0
 186 000e FFF7FEFF 		bl	chEvtRegisterMask
 187              		.loc 1 93 0
 188 0012 2046     		mov	r0, r4
 189 0014 04A9     		add	r1, sp, #16
 190 0016 0222     		movs	r2, #2
 191 0018 FFF7FEFF 		bl	chEvtRegisterMask
 192              		.loc 1 94 0
 193 001c 2168     		ldr	r1, [r4, #0]
 194 001e 0120     		movs	r0, #1
 195 0020 091B     		subs	r1, r1, r4
 196 0022 18BF     		it	ne
 197 0024 0121     		movne	r1, #1
 198 0026 FFF7FEFF 		bl	_test_assert
 199 002a 08B1     		cbz	r0, .L9
 200              	.L6:
 201              		.loc 1 105 0
 202 002c 08B0     		add	sp, sp, #32
 203 002e 10BD     		pop	{r4, pc}
 204              	.L9:
 205              		.loc 1 95 0
 206 0030 2046     		mov	r0, r4
 207 0032 6946     		mov	r1, sp
 208 0034 FFF7FEFF 		bl	chEvtUnregister
 209              		.loc 1 96 0
 210 0038 2268     		ldr	r2, [r4, #0]
 211 003a 0220     		movs	r0, #2
 212 003c 111B     		subs	r1, r2, r4
 213 003e 18BF     		it	ne
 214 0040 0121     		movne	r1, #1
 215 0042 FFF7FEFF 		bl	_test_assert
 216 0046 0028     		cmp	r0, #0
 217 0048 F0D1     		bne	.L6
 218              		.loc 1 97 0
 219 004a 2046     		mov	r0, r4
 220 004c 04A9     		add	r1, sp, #16
 221 004e FFF7FEFF 		bl	chEvtUnregister
 222              		.loc 1 98 0
ARM GAS  /tmp/cc66XAnl.s 			page 5


 223 0052 2168     		ldr	r1, [r4, #0]
 224 0054 0320     		movs	r0, #3
 225 0056 0B1B     		subs	r3, r1, r4
 226 0058 D3F1000C 		rsbs	ip, r3, #0
 227 005c 4CEB0301 		adc	r1, ip, r3
 228 0060 FFF7FEFF 		bl	_test_assert
 229 0064 0028     		cmp	r0, #0
 230 0066 E1D1     		bne	.L6
 231              		.loc 1 103 0
 232 0068 0721     		movs	r1, #7
 233 006a 0548     		ldr	r0, .L10+4
 234 006c FFF7FEFF 		bl	chEvtDispatch
 235              		.loc 1 104 0
 236 0070 0420     		movs	r0, #4
 237 0072 0449     		ldr	r1, .L10+8
 238 0074 FFF7FEFF 		bl	_test_assert_sequence
 239 0078 D8E7     		b	.L6
 240              	.L11:
 241 007a 00BF     		.align	2
 242              	.L10:
 243 007c 00000000 		.word	.LANCHOR0
 244 0080 00000000 		.word	.LANCHOR2
 245 0084 00000000 		.word	.LC0
 246              		.cfi_endproc
 247              	.LFE11:
 248              		.size	evt1_execute, .-evt1_execute
 249 0088 AFF30080 		.section	.text.h3,"ax",%progbits
 249      AFF30080 
 250              		.align	2
 251              		.p2align 4,,15
 252              		.thumb
 253              		.thumb_func
 254              		.type	h3, %function
 255              	h3:
 256              	.LFB10:
 257              		.loc 1 82 0
 258              		.cfi_startproc
 259              		@ args = 0, pretend = 0, frame = 0
 260              		@ frame_needed = 0, uses_anonymous_args = 0
 261              		@ link register save eliminated.
 262              	.LVL4:
 263              		.loc 1 82 0
 264 0000 4320     		movs	r0, #67
 265              	.LVL5:
 266 0002 FFF7FEBF 		b	test_emit_token
 267              		.cfi_endproc
 268              	.LFE10:
 269              		.size	h3, .-h3
 270 0006 00BFAFF3 		.section	.text.h2,"ax",%progbits
 270      0080AFF3 
 270      0080
 271              		.align	2
 272              		.p2align 4,,15
 273              		.thumb
 274              		.thumb_func
 275              		.type	h2, %function
 276              	h2:
ARM GAS  /tmp/cc66XAnl.s 			page 6


 277              	.LFB9:
 278              		.loc 1 81 0
 279              		.cfi_startproc
 280              		@ args = 0, pretend = 0, frame = 0
 281              		@ frame_needed = 0, uses_anonymous_args = 0
 282              		@ link register save eliminated.
 283              	.LVL6:
 284              		.loc 1 81 0
 285 0000 4220     		movs	r0, #66
 286              	.LVL7:
 287 0002 FFF7FEBF 		b	test_emit_token
 288              		.cfi_endproc
 289              	.LFE9:
 290              		.size	h2, .-h2
 291 0006 00BFAFF3 		.section	.text.h1,"ax",%progbits
 291      0080AFF3 
 291      0080
 292              		.align	2
 293              		.p2align 4,,15
 294              		.thumb
 295              		.thumb_func
 296              		.type	h1, %function
 297              	h1:
 298              	.LFB8:
 299              		.loc 1 80 0
 300              		.cfi_startproc
 301              		@ args = 0, pretend = 0, frame = 0
 302              		@ frame_needed = 0, uses_anonymous_args = 0
 303              		@ link register save eliminated.
 304              	.LVL8:
 305              		.loc 1 80 0
 306 0000 4120     		movs	r0, #65
 307              	.LVL9:
 308 0002 FFF7FEBF 		b	test_emit_token
 309              		.cfi_endproc
 310              	.LFE8:
 311              		.size	h1, .-h1
 312 0006 00BFAFF3 		.section	.text.evt3_execute,"ax",%progbits
 312      0080AFF3 
 312      0080
 313              		.align	2
 314              		.p2align 4,,15
 315              		.thumb
 316              		.thumb_func
 317              		.type	evt3_execute, %function
 318              	evt3_execute:
 319              	.LFB17:
 320              		.loc 1 252 0
 321              		.cfi_startproc
 322              		@ args = 0, pretend = 0, frame = 0
 323              		@ frame_needed = 0, uses_anonymous_args = 0
 324              		.loc 1 258 0
 325 0000 0021     		movs	r1, #0
 326              		.loc 1 252 0
 327 0002 08B5     		push	{r3, lr}
 328              	.LCFI4:
 329              		.cfi_def_cfa_offset 8
ARM GAS  /tmp/cc66XAnl.s 			page 7


 330              		.cfi_offset 14, -4
 331              		.cfi_offset 3, -8
 332              		.loc 1 258 0
 333 0004 4FF0FF30 		mov	r0, #-1
 334 0008 FFF7FEFF 		bl	chEvtWaitOneTimeout
 335              	.LVL10:
 336              		.loc 1 259 0
 337 000c D0F10101 		rsbs	r1, r0, #1
 338 0010 38BF     		it	cc
 339 0012 0021     		movcc	r1, #0
 340 0014 0120     		movs	r0, #1
 341              	.LVL11:
 342 0016 FFF7FEFF 		bl	_test_assert
 343 001a 00B1     		cbz	r0, .L17
 344              	.L15:
 345 001c 08BD     		pop	{r3, pc}
 346              	.L17:
 347              		.loc 1 260 0
 348 001e 0146     		mov	r1, r0
 349 0020 4FF0FF30 		mov	r0, #-1
 350 0024 FFF7FEFF 		bl	chEvtWaitAnyTimeout
 351              	.LVL12:
 352              		.loc 1 261 0
 353 0028 D0F10101 		rsbs	r1, r0, #1
 354 002c 38BF     		it	cc
 355 002e 0021     		movcc	r1, #0
 356 0030 0220     		movs	r0, #2
 357              	.LVL13:
 358 0032 FFF7FEFF 		bl	_test_assert
 359 0036 0028     		cmp	r0, #0
 360 0038 F0D1     		bne	.L15
 361              		.loc 1 262 0
 362 003a 0146     		mov	r1, r0
 363 003c 4FF0FF30 		mov	r0, #-1
 364 0040 FFF7FEFF 		bl	chEvtWaitAllTimeout
 365              	.LVL14:
 366              		.loc 1 263 0
 367 0044 D0F10101 		rsbs	r1, r0, #1
 368 0048 38BF     		it	cc
 369 004a 0021     		movcc	r1, #0
 370 004c 0320     		movs	r0, #3
 371              	.LVL15:
 372 004e FFF7FEFF 		bl	_test_assert
 373 0052 0028     		cmp	r0, #0
 374 0054 E2D1     		bne	.L15
 375              	.LBB4:
 376              	.LBB5:
 377              		.loc 1 264 0
 378 0056 0A21     		movs	r1, #10
 379 0058 4FF0FF30 		mov	r0, #-1
 380 005c FFF7FEFF 		bl	chEvtWaitOneTimeout
 381              	.LVL16:
 382              		.loc 1 265 0
 383 0060 D0F10101 		rsbs	r1, r0, #1
 384 0064 38BF     		it	cc
 385 0066 0021     		movcc	r1, #0
 386 0068 0420     		movs	r0, #4
ARM GAS  /tmp/cc66XAnl.s 			page 8


 387              	.LVL17:
 388 006a FFF7FEFF 		bl	_test_assert
 389 006e 0028     		cmp	r0, #0
 390 0070 D4D1     		bne	.L15
 391              		.loc 1 266 0
 392 0072 0A21     		movs	r1, #10
 393 0074 4FF0FF30 		mov	r0, #-1
 394 0078 FFF7FEFF 		bl	chEvtWaitAnyTimeout
 395              	.LVL18:
 396              		.loc 1 267 0
 397 007c D0F10101 		rsbs	r1, r0, #1
 398 0080 38BF     		it	cc
 399 0082 0021     		movcc	r1, #0
 400 0084 0520     		movs	r0, #5
 401              	.LVL19:
 402 0086 FFF7FEFF 		bl	_test_assert
 403 008a 0028     		cmp	r0, #0
 404 008c C6D1     		bne	.L15
 405              		.loc 1 268 0
 406 008e 0A21     		movs	r1, #10
 407 0090 4FF0FF30 		mov	r0, #-1
 408 0094 FFF7FEFF 		bl	chEvtWaitAllTimeout
 409              	.LVL20:
 410              		.loc 1 269 0
 411 0098 D0F10101 		rsbs	r1, r0, #1
 412 009c 38BF     		it	cc
 413 009e 0021     		movcc	r1, #0
 414 00a0 0620     		movs	r0, #6
 415              	.LVL21:
 416              	.LBE5:
 417              	.LBE4:
 418              		.loc 1 270 0
 419 00a2 BDE80840 		pop	{r3, lr}
 420              	.LBB7:
 421              	.LBB6:
 422              		.loc 1 269 0
 423 00a6 FFF7FEBF 		b	_test_assert
 424              	.LBE6:
 425              	.LBE7:
 426              		.cfi_endproc
 427              	.LFE17:
 428              		.size	evt3_execute, .-evt3_execute
 429 00aa 00BFAFF3 		.section	.text.evt2_execute,"ax",%progbits
 429      0080
 430              		.align	2
 431              		.p2align 4,,15
 432              		.thumb
 433              		.thumb_func
 434              		.type	evt2_execute, %function
 435              	evt2_execute:
 436              	.LFB15:
 437              		.loc 1 149 0
 438              		.cfi_startproc
 439              		@ args = 0, pretend = 0, frame = 32
 440              		@ frame_needed = 0, uses_anonymous_args = 0
 441 0000 2DE9F043 		push	{r4, r5, r6, r7, r8, r9, lr}
 442              	.LCFI5:
ARM GAS  /tmp/cc66XAnl.s 			page 9


 443              		.cfi_def_cfa_offset 28
 444              		.cfi_offset 14, -4
 445              		.cfi_offset 9, -8
 446              		.cfi_offset 8, -12
 447              		.cfi_offset 7, -16
 448              		.cfi_offset 6, -20
 449              		.cfi_offset 5, -24
 450              		.cfi_offset 4, -28
 451              		.loc 1 157 0
 452 0004 0520     		movs	r0, #5
 453              		.loc 1 149 0
 454 0006 8BB0     		sub	sp, sp, #44
 455              	.LCFI6:
 456              		.cfi_def_cfa_offset 72
 457              		.loc 1 157 0
 458 0008 FFF7FEFF 		bl	chEvtAddEvents
 459              		.loc 1 158 0
 460 000c 4FF0FF30 		mov	r0, #-1
 461 0010 FFF7FEFF 		bl	chEvtWaitOne
 462              	.LVL22:
 463              		.loc 1 159 0
 464 0014 A0F10100 		sub	r0, r0, #1
 465              	.LVL23:
 466 0018 4142     		rsbs	r1, r0, #0
 467 001a 41EB0001 		adc	r1, r1, r0
 468 001e 0120     		movs	r0, #1
 469              	.LVL24:
 470 0020 FFF7FEFF 		bl	_test_assert
 471 0024 10B1     		cbz	r0, .L20
 472              	.L18:
 473              		.loc 1 222 0
 474 0026 0BB0     		add	sp, sp, #44
 475 0028 BDE8F083 		pop	{r4, r5, r6, r7, r8, r9, pc}
 476              	.L20:
 477              		.loc 1 160 0
 478 002c 4FF0FF30 		mov	r0, #-1
 479 0030 FFF7FEFF 		bl	chEvtWaitOne
 480              	.LVL25:
 481              		.loc 1 161 0
 482 0034 A0F10403 		sub	r3, r0, #4
 483 0038 5A42     		rsbs	r2, r3, #0
 484 003a 42EB0301 		adc	r1, r2, r3
 485 003e 0220     		movs	r0, #2
 486              	.LVL26:
 487 0040 FFF7FEFF 		bl	_test_assert
 488              	.LVL27:
 489 0044 0028     		cmp	r0, #0
 490 0046 EED1     		bne	.L18
 491              		.loc 1 162 0
 492 0048 4FF0FF30 		mov	r0, #-1
 493 004c FFF7FEFF 		bl	chEvtGetAndClearEvents
 494              	.LVL28:
 495              		.loc 1 163 0
 496 0050 D0F10101 		rsbs	r1, r0, #1
 497 0054 38BF     		it	cc
 498 0056 0021     		movcc	r1, #0
 499 0058 0320     		movs	r0, #3
ARM GAS  /tmp/cc66XAnl.s 			page 10


 500              	.LVL29:
 501 005a FFF7FEFF 		bl	_test_assert
 502 005e 0028     		cmp	r0, #0
 503 0060 E1D1     		bne	.L18
 504              	.LBB10:
 505              	.LBB11:
 506              		.loc 1 170 0
 507 0062 7B4F     		ldr	r7, .L21
 508              		.loc 1 168 0
 509 0064 FFF7FEFF 		bl	test_wait_tick
 510              		.loc 1 170 0
 511 0068 7A4D     		ldr	r5, .L21+4
 512 006a D7F818E0 		ldr	lr, [r7, #24]
 513 006e D5F80080 		ldr	r8, [r5, #0]
 514 0072 DEF80840 		ldr	r4, [lr, #8]
 515              		.loc 1 169 0
 516 0076 784E     		ldr	r6, .L21+8
 517              		.loc 1 170 0
 518 0078 621E     		subs	r2, r4, #1
 519 007a 4FF40471 		mov	r1, #528
 520 007e 774B     		ldr	r3, .L21+12
 521 0080 4046     		mov	r0, r8
 522              		.loc 1 169 0
 523 0082 F468     		ldr	r4, [r6, #12]
 524              	.LVL30:
 525              		.loc 1 170 0
 526 0084 CDF800E0 		str	lr, [sp, #0]
 527 0088 FFF7FEFF 		bl	chThdCreateStatic
 528 008c 744D     		ldr	r5, .L21+16
 529 008e 0146     		mov	r1, r0
 530 0090 2960     		str	r1, [r5, #0]
 531              		.loc 1 172 0
 532 0092 4FF0FF30 		mov	r0, #-1
 533 0096 FFF7FEFF 		bl	chEvtWaitOne
 534              		.loc 1 169 0
 535 009a 04F13201 		add	r1, r4, #50
 536              		.loc 1 172 0
 537 009e 8146     		mov	r9, r0
 538              	.LVL31:
 539              		.loc 1 173 0
 540 00a0 04F13702 		add	r2, r4, #55
 541 00a4 0420     		movs	r0, #4
 542              	.LVL32:
 543 00a6 FFF7FEFF 		bl	_test_assert_time_window
 544 00aa 0028     		cmp	r0, #0
 545 00ac BBD1     		bne	.L18
 546              		.loc 1 174 0
 547 00ae A9F1010C 		sub	ip, r9, #1
 548 00b2 DCF10000 		rsbs	r0, ip, #0
 549 00b6 40EB0C01 		adc	r1, r0, ip
 550 00ba 0520     		movs	r0, #5
 551 00bc FFF7FEFF 		bl	_test_assert
 552 00c0 0028     		cmp	r0, #0
 553 00c2 B0D1     		bne	.L18
 554              		.loc 1 175 0
 555 00c4 4FF0FF30 		mov	r0, #-1
 556 00c8 FFF7FEFF 		bl	chEvtGetAndClearEvents
ARM GAS  /tmp/cc66XAnl.s 			page 11


 557              	.LVL33:
 558              		.loc 1 176 0
 559 00cc D0F10101 		rsbs	r1, r0, #1
 560 00d0 38BF     		it	cc
 561 00d2 0021     		movcc	r1, #0
 562 00d4 0620     		movs	r0, #6
 563              	.LVL34:
 564 00d6 FFF7FEFF 		bl	_test_assert
 565 00da 0028     		cmp	r0, #0
 566 00dc A3D1     		bne	.L18
 567              		.loc 1 177 0
 568 00de FFF7FEFF 		bl	test_wait_threads
 569              		.loc 1 182 0
 570 00e2 0520     		movs	r0, #5
 571 00e4 FFF7FEFF 		bl	chEvtAddEvents
 572              		.loc 1 183 0
 573 00e8 4FF0FF30 		mov	r0, #-1
 574 00ec FFF7FEFF 		bl	chEvtWaitAny
 575              	.LVL35:
 576              		.loc 1 184 0
 577 00f0 A0F10503 		sub	r3, r0, #5
 578 00f4 5A42     		rsbs	r2, r3, #0
 579 00f6 42EB0301 		adc	r1, r2, r3
 580 00fa 0720     		movs	r0, #7
 581              	.LVL36:
 582 00fc FFF7FEFF 		bl	_test_assert
 583              	.LVL37:
 584 0100 0028     		cmp	r0, #0
 585 0102 90D1     		bne	.L18
 586              		.loc 1 185 0
 587 0104 4FF0FF30 		mov	r0, #-1
 588 0108 FFF7FEFF 		bl	chEvtGetAndClearEvents
 589              	.LVL38:
 590              		.loc 1 186 0
 591 010c D0F10101 		rsbs	r1, r0, #1
 592 0110 38BF     		it	cc
 593 0112 0021     		movcc	r1, #0
 594 0114 0820     		movs	r0, #8
 595              	.LVL39:
 596 0116 FFF7FEFF 		bl	_test_assert
 597 011a 0028     		cmp	r0, #0
 598 011c 83D1     		bne	.L18
 599              		.loc 1 191 0
 600 011e FFF7FEFF 		bl	test_wait_tick
 601              		.loc 1 193 0
 602 0122 D7F81890 		ldr	r9, [r7, #24]
 603 0126 4FF40471 		mov	r1, #528
 604 012a D9F80800 		ldr	r0, [r9, #8]
 605 012e 4B4B     		ldr	r3, .L21+12
 606 0130 421E     		subs	r2, r0, #1
 607 0132 4046     		mov	r0, r8
 608              		.loc 1 192 0
 609 0134 F468     		ldr	r4, [r6, #12]
 610              	.LVL40:
 611              		.loc 1 193 0
 612 0136 CDF80090 		str	r9, [sp, #0]
 613 013a FFF7FEFF 		bl	chThdCreateStatic
ARM GAS  /tmp/cc66XAnl.s 			page 12


 614 013e 0146     		mov	r1, r0
 615 0140 2960     		str	r1, [r5, #0]
 616              		.loc 1 195 0
 617 0142 4FF0FF30 		mov	r0, #-1
 618 0146 FFF7FEFF 		bl	chEvtWaitAny
 619              		.loc 1 192 0
 620 014a 04F13201 		add	r1, r4, #50
 621              		.loc 1 195 0
 622 014e 8146     		mov	r9, r0
 623              	.LVL41:
 624              		.loc 1 196 0
 625 0150 04F13702 		add	r2, r4, #55
 626 0154 0920     		movs	r0, #9
 627              	.LVL42:
 628 0156 FFF7FEFF 		bl	_test_assert_time_window
 629 015a 0028     		cmp	r0, #0
 630 015c 7FF463AF 		bne	.L18
 631              		.loc 1 197 0
 632 0160 A9F10103 		sub	r3, r9, #1
 633 0164 5A42     		rsbs	r2, r3, #0
 634 0166 42EB0301 		adc	r1, r2, r3
 635 016a 0A20     		movs	r0, #10
 636 016c FFF7FEFF 		bl	_test_assert
 637 0170 0028     		cmp	r0, #0
 638 0172 7FF458AF 		bne	.L18
 639              		.loc 1 198 0
 640 0176 4FF0FF30 		mov	r0, #-1
 641 017a FFF7FEFF 		bl	chEvtGetAndClearEvents
 642              	.LVL43:
 643              		.loc 1 199 0
 644 017e D0F10101 		rsbs	r1, r0, #1
 645 0182 38BF     		it	cc
 646 0184 0021     		movcc	r1, #0
 647 0186 0B20     		movs	r0, #11
 648              	.LVL44:
 649 0188 FFF7FEFF 		bl	_test_assert
 650 018c 0028     		cmp	r0, #0
 651 018e 7FF44AAF 		bne	.L18
 652              		.loc 1 205 0
 653 0192 344C     		ldr	r4, .L21+20
 654              	.LVL45:
 655              		.loc 1 206 0
 656 0194 DFF8D890 		ldr	r9, .L21+32
 657              		.loc 1 200 0
 658 0198 FFF7FEFF 		bl	test_wait_threads
 659              		.loc 1 207 0
 660 019c 2046     		mov	r0, r4
 661 019e 02A9     		add	r1, sp, #8
 662 01a0 0122     		movs	r2, #1
 663              		.loc 1 205 0
 664 01a2 2460     		str	r4, [r4, #0]
 665              		.loc 1 206 0
 666 01a4 C9F80090 		str	r9, [r9, #0]
 667              		.loc 1 207 0
 668 01a8 FFF7FEFF 		bl	chEvtRegisterMask
 669              		.loc 1 208 0
 670 01ac 06A9     		add	r1, sp, #24
ARM GAS  /tmp/cc66XAnl.s 			page 13


 671 01ae 0422     		movs	r2, #4
 672 01b0 4846     		mov	r0, r9
 673 01b2 FFF7FEFF 		bl	chEvtRegisterMask
 674              		.loc 1 209 0
 675 01b6 FFF7FEFF 		bl	test_wait_tick
 676              		.loc 1 211 0
 677 01ba B869     		ldr	r0, [r7, #24]
 678 01bc 4FF40471 		mov	r1, #528
 679 01c0 8768     		ldr	r7, [r0, #8]
 680 01c2 294B     		ldr	r3, .L21+24
 681 01c4 7A1E     		subs	r2, r7, #1
 682 01c6 294F     		ldr	r7, .L21+28
 683 01c8 4046     		mov	r0, r8
 684              		.loc 1 210 0
 685 01ca F668     		ldr	r6, [r6, #12]
 686              	.LVL46:
 687              		.loc 1 211 0
 688 01cc 0097     		str	r7, [sp, #0]
 689 01ce FFF7FEFF 		bl	chThdCreateStatic
 690 01d2 0146     		mov	r1, r0
 691 01d4 2960     		str	r1, [r5, #0]
 692              		.loc 1 213 0
 693 01d6 0520     		movs	r0, #5
 694 01d8 FFF7FEFF 		bl	chEvtWaitAll
 695              		.loc 1 210 0
 696 01dc 06F13201 		add	r1, r6, #50
 697              		.loc 1 214 0
 698 01e0 06F13702 		add	r2, r6, #55
 699 01e4 0C20     		movs	r0, #12
 700 01e6 FFF7FEFF 		bl	_test_assert_time_window
 701 01ea 0028     		cmp	r0, #0
 702 01ec 7FF41BAF 		bne	.L18
 703              		.loc 1 215 0
 704 01f0 4FF0FF30 		mov	r0, #-1
 705 01f4 FFF7FEFF 		bl	chEvtGetAndClearEvents
 706              	.LVL47:
 707              		.loc 1 216 0
 708 01f8 D0F10101 		rsbs	r1, r0, #1
 709 01fc 38BF     		it	cc
 710 01fe 0021     		movcc	r1, #0
 711 0200 0D20     		movs	r0, #13
 712              	.LVL48:
 713 0202 FFF7FEFF 		bl	_test_assert
 714 0206 0028     		cmp	r0, #0
 715 0208 7FF40DAF 		bne	.L18
 716              		.loc 1 217 0
 717 020c FFF7FEFF 		bl	test_wait_threads
 718              		.loc 1 218 0
 719 0210 2046     		mov	r0, r4
 720 0212 02A9     		add	r1, sp, #8
 721 0214 FFF7FEFF 		bl	chEvtUnregister
 722              		.loc 1 219 0
 723 0218 4846     		mov	r0, r9
 724 021a 06A9     		add	r1, sp, #24
 725 021c FFF7FEFF 		bl	chEvtUnregister
 726              		.loc 1 220 0
 727 0220 2168     		ldr	r1, [r4, #0]
ARM GAS  /tmp/cc66XAnl.s 			page 14


 728 0222 0E20     		movs	r0, #14
 729 0224 0B1B     		subs	r3, r1, r4
 730 0226 5A42     		rsbs	r2, r3, #0
 731 0228 42EB0301 		adc	r1, r2, r3
 732 022c FFF7FEFF 		bl	_test_assert
 733 0230 0028     		cmp	r0, #0
 734 0232 7FF4F8AE 		bne	.L18
 735              		.loc 1 221 0
 736 0236 D9F80020 		ldr	r2, [r9, #0]
 737 023a C9EB020E 		rsb	lr, r9, r2
 738 023e DEF10000 		rsbs	r0, lr, #0
 739 0242 40EB0E01 		adc	r1, r0, lr
 740 0246 0F20     		movs	r0, #15
 741 0248 FFF7FEFF 		bl	_test_assert
 742 024c EBE6     		b	.L18
 743              	.L22:
 744 024e 00BF     		.align	2
 745              	.L21:
 746 0250 00000000 		.word	rlist
 747 0254 00000000 		.word	wa
 748 0258 00000000 		.word	vtlist
 749 025c 00000000 		.word	thread1
 750 0260 00000000 		.word	threads
 751 0264 00000000 		.word	.LANCHOR0
 752 0268 00000000 		.word	thread2
 753 026c 04000000 		.word	.LC1
 754 0270 00000000 		.word	.LANCHOR1
 755              	.LBE11:
 756              	.LBE10:
 757              		.cfi_endproc
 758              	.LFE15:
 759              		.size	evt2_execute, .-evt2_execute
 760              		.global	patternevt
 761              		.global	testevt3
 762              		.global	testevt2
 763              		.global	testevt1
 764 0274 AFF30080 		.section	.rodata.patternevt,"a",%progbits
 764      AFF30080 
 764      AFF30080 
 765              		.align	2
 766              		.type	patternevt, %object
 767              		.size	patternevt, 16
 768              	patternevt:
 769 0000 00000000 		.word	testevt1
 770 0004 00000000 		.word	testevt2
 771 0008 00000000 		.word	testevt3
 772 000c 00000000 		.word	0
 773              		.section	.rodata.testevt2,"a",%progbits
 774              		.align	2
 775              		.type	testevt2, %object
 776              		.size	testevt2, 16
 777              	testevt2:
 778 0000 1C000000 		.word	.LC3
 779 0004 00000000 		.word	evt2_setup
 780 0008 00000000 		.word	0
 781 000c 00000000 		.word	evt2_execute
 782              		.section	.rodata.str1.4,"aMS",%progbits,1
ARM GAS  /tmp/cc66XAnl.s 			page 15


 783              		.align	2
 784              	.LC0:
 785 0000 41424300 		.ascii	"ABC\000"
 786              	.LC1:
 787 0004 4100     		.ascii	"A\000"
 788 0006 0000     		.space	2
 789              	.LC2:
 790 0008 4576656E 		.ascii	"Events, timeouts\000"
 790      74732C20 
 790      74696D65 
 790      6F757473 
 790      00
 791 0019 000000   		.space	3
 792              	.LC3:
 793 001c 4576656E 		.ascii	"Events, wait and broadcast\000"
 793      74732C20 
 793      77616974 
 793      20616E64 
 793      2062726F 
 794 0037 00       		.space	1
 795              	.LC4:
 796 0038 4576656E 		.ascii	"Events, registration and dispatch\000"
 796      74732C20 
 796      72656769 
 796      73747261 
 796      74696F6E 
 797 005a 0000     		.section	.rodata.testevt1,"a",%progbits
 798              		.align	2
 799              		.type	testevt1, %object
 800              		.size	testevt1, 16
 801              	testevt1:
 802 0000 38000000 		.word	.LC4
 803 0004 00000000 		.word	evt1_setup
 804 0008 00000000 		.word	0
 805 000c 00000000 		.word	evt1_execute
 806              		.section	.rodata.evhndl,"a",%progbits
 807              		.align	2
 808              		.set	.LANCHOR2,. + 0
 809              		.type	evhndl, %object
 810              		.size	evhndl, 12
 811              	evhndl:
 812 0000 00000000 		.word	h1
 813 0004 00000000 		.word	h2
 814 0008 00000000 		.word	h3
 815              		.section	.rodata.testevt3,"a",%progbits
 816              		.align	2
 817              		.type	testevt3, %object
 818              		.size	testevt3, 16
 819              	testevt3:
 820 0000 08000000 		.word	.LC2
 821 0004 00000000 		.word	evt3_setup
 822 0008 00000000 		.word	0
 823 000c 00000000 		.word	evt3_execute
 824              		.section	.data.es1,"aw",%progbits
 825              		.align	2
 826              		.set	.LANCHOR0,. + 0
 827              		.type	es1, %object
ARM GAS  /tmp/cc66XAnl.s 			page 16


 828              		.size	es1, 4
 829              	es1:
 830 0000 00000000 		.word	es1
 831              		.section	.data.es2,"aw",%progbits
 832              		.align	2
 833              		.set	.LANCHOR1,. + 0
 834              		.type	es2, %object
 835              		.size	es2, 4
 836              	es2:
 837 0000 00000000 		.word	es2
 838              		.text
 839              	.Letext0:
 840              		.file 2 "/home/tino/ChibiStudio/tools/GNU Tools ARM Embedded/4.6 2012q2/bin/../lib/gcc/arm-none-ea
 841              		.file 3 "../../ChibiOS/os/ports/GCC/ARMCMx/chtypes.h"
 842              		.file 4 "../../ChibiOS/os/kernel/include/chlists.h"
 843              		.file 5 "../../ChibiOS/os/kernel/include/chthreads.h"
 844              		.file 6 "../../ChibiOS/os/ports/GCC/ARMCMx/chcore_v7m.h"
 845              		.file 7 "../../ChibiOS/os/kernel/include/chvt.h"
 846              		.file 8 "../../ChibiOS/os/kernel/include/chschd.h"
 847              		.file 9 "../../ChibiOS/os/kernel/include/chmtx.h"
 848              		.file 10 "../../ChibiOS/os/kernel/include/chevents.h"
 849              		.file 11 "../../ChibiOS/test/test.h"