ARM GAS  /tmp/cc5Rzgt2.s 			page 1


   1              		.syntax unified
   2              		.cpu cortex-m3
   3              		.fpu softvfp
   4              		.eabi_attribute 20, 1
   5              		.eabi_attribute 21, 1
   6              		.eabi_attribute 23, 3
   7              		.eabi_attribute 24, 1
   8              		.eabi_attribute 25, 1
   9              		.eabi_attribute 26, 1
  10              		.eabi_attribute 30, 2
  11              		.eabi_attribute 34, 1
  12              		.eabi_attribute 18, 4
  13              		.thumb
  14              		.file	"testsem.c"
  15              		.text
  16              	.Ltext0:
  17              		.cfi_sections	.debug_frame
  18              		.section	.text.sem3_setup,"ax",%progbits
  19              		.align	2
  20              		.p2align 4,,15
  21              		.thumb
  22              		.thumb_func
  23              		.type	sem3_setup, %function
  24              	sem3_setup:
  25              	.LFB13:
  26              		.file 1 "../../ChibiOS/test/testsem.c"
  27              		.loc 1 204 0
  28              		.cfi_startproc
  29              		@ args = 0, pretend = 0, frame = 0
  30              		@ frame_needed = 0, uses_anonymous_args = 0
  31              		@ link register save eliminated.
  32              		.loc 1 206 0
  33 0000 40F20000 		movw	r0, #:lower16:.LANCHOR0
  34 0004 C0F20000 		movt	r0, #:upper16:.LANCHOR0
  35 0008 0021     		movs	r1, #0
  36              		.loc 1 207 0
  37              		.loc 1 206 0
  38 000a FFF7FEBF 		b	chSemInit
  39              		.cfi_endproc
  40              	.LFE13:
  41              		.size	sem3_setup, .-sem3_setup
  42 000e 00BF     		.section	.text.sem2_setup,"ax",%progbits
  43              		.align	2
  44              		.p2align 4,,15
  45              		.thumb
  46              		.thumb_func
  47              		.type	sem2_setup, %function
  48              	sem2_setup:
  49              	.LFB10:
  50              		.loc 1 128 0
  51              		.cfi_startproc
  52              		@ args = 0, pretend = 0, frame = 0
  53              		@ frame_needed = 0, uses_anonymous_args = 0
  54              		@ link register save eliminated.
  55              		.loc 1 130 0
  56 0000 40F20000 		movw	r0, #:lower16:.LANCHOR0
  57 0004 C0F20000 		movt	r0, #:upper16:.LANCHOR0
ARM GAS  /tmp/cc5Rzgt2.s 			page 2


  58 0008 0021     		movs	r1, #0
  59              		.loc 1 131 0
  60              		.loc 1 130 0
  61 000a FFF7FEBF 		b	chSemInit
  62              		.cfi_endproc
  63              	.LFE10:
  64              		.size	sem2_setup, .-sem2_setup
  65 000e 00BF     		.section	.text.sem1_setup,"ax",%progbits
  66              		.align	2
  67              		.p2align 4,,15
  68              		.thumb
  69              		.thumb_func
  70              		.type	sem1_setup, %function
  71              	sem1_setup:
  72              	.LFB7:
  73              		.loc 1 72 0
  74              		.cfi_startproc
  75              		@ args = 0, pretend = 0, frame = 0
  76              		@ frame_needed = 0, uses_anonymous_args = 0
  77              		@ link register save eliminated.
  78              		.loc 1 74 0
  79 0000 40F20000 		movw	r0, #:lower16:.LANCHOR0
  80 0004 C0F20000 		movt	r0, #:upper16:.LANCHOR0
  81 0008 0021     		movs	r1, #0
  82              		.loc 1 75 0
  83              		.loc 1 74 0
  84 000a FFF7FEBF 		b	chSemInit
  85              		.cfi_endproc
  86              	.LFE7:
  87              		.size	sem1_setup, .-sem1_setup
  88 000e 00BF     		.section	.text.sem4_execute,"ax",%progbits
  89              		.align	2
  90              		.p2align 4,,15
  91              		.thumb
  92              		.thumb_func
  93              		.type	sem4_execute, %function
  94              	sem4_execute:
  95              	.LFB17:
  96              		.loc 1 251 0
  97              		.cfi_startproc
  98              		@ args = 0, pretend = 0, frame = 16
  99              		@ frame_needed = 0, uses_anonymous_args = 0
 100 0000 10B5     		push	{r4, lr}
 101              	.LCFI0:
 102              		.cfi_def_cfa_offset 8
 103              		.cfi_offset 14, -4
 104              		.cfi_offset 4, -8
 105 0002 86B0     		sub	sp, sp, #24
 106              	.LCFI1:
 107              		.cfi_def_cfa_offset 32
 108              		.loc 1 255 0
 109 0004 0021     		movs	r1, #0
 110 0006 03A8     		add	r0, sp, #12
 111 0008 FFF7FEFF 		bl	chSemInit
 112              		.loc 1 256 0
 113 000c 0021     		movs	r1, #0
 114 000e 03A8     		add	r0, sp, #12
ARM GAS  /tmp/cc5Rzgt2.s 			page 3


 115 0010 FFF7FEFF 		bl	chSemReset
 116              		.loc 1 257 0
 117 0014 0599     		ldr	r1, [sp, #20]
 118 0016 0120     		movs	r0, #1
 119 0018 0029     		cmp	r1, #0
 120 001a CCBF     		ite	gt
 121 001c 0021     		movgt	r1, #0
 122 001e 0121     		movle	r1, #1
 123 0020 FFF7FEFF 		bl	_test_assert
 124 0024 08B1     		cbz	r0, .L9
 125              	.L4:
 126              		.loc 1 279 0
 127 0026 06B0     		add	sp, sp, #24
 128 0028 10BD     		pop	{r4, pc}
 129              	.L9:
 130              		.loc 1 261 0
 131 002a 374A     		ldr	r2, .L12
 132              		.loc 1 260 0
 133 002c 3748     		ldr	r0, .L12+4
 134              		.loc 1 261 0
 135 002e 9169     		ldr	r1, [r2, #24]
 136              		.loc 1 260 0
 137 0030 374B     		ldr	r3, .L12+8
 138 0032 8C68     		ldr	r4, [r1, #8]
 139 0034 0068     		ldr	r0, [r0, #0]
 140 0036 621E     		subs	r2, r4, #1
 141 0038 4FF40471 		mov	r1, #528
 142 003c 03AC     		add	r4, sp, #12
 143 003e 0094     		str	r4, [sp, #0]
 144 0040 FFF7FEFF 		bl	chThdCreateStatic
 145 0044 334B     		ldr	r3, .L12+12
 146 0046 0246     		mov	r2, r0
 147 0048 1A60     		str	r2, [r3, #0]
 148              		.loc 1 264 0
 149 004a 03A8     		add	r0, sp, #12
 150 004c FFF7FEFF 		bl	chSemWait
 151              		.loc 1 267 0
 152 0050 0599     		ldr	r1, [sp, #20]
 153 0052 0220     		movs	r0, #2
 154 0054 0029     		cmp	r1, #0
 155 0056 CCBF     		ite	gt
 156 0058 0021     		movgt	r1, #0
 157 005a 0121     		movle	r1, #1
 158 005c FFF7FEFF 		bl	_test_assert
 159 0060 0028     		cmp	r0, #0
 160 0062 E0D1     		bne	.L4
 161              	.LBB2:
 162              		.loc 1 271 0
 163 0064 2023     		movs	r3, #32
 164              	.LVL0:
 165              	@ 271 "../../ChibiOS/test/testsem.c" 1
 166 0066 83F31188 		msr     BASEPRI, r3
 167              	@ 0 "" 2
 168              	.LVL1:
 169              		.thumb
 170              	.LBE2:
 171 006a FFF7FEFF 		bl	dbg_check_lock
ARM GAS  /tmp/cc5Rzgt2.s 			page 4


 172              	.LVL2:
 173 006e 059B     		ldr	r3, [sp, #20]
 174 0070 002B     		cmp	r3, #0
 175 0072 40DD     		ble	.L10
 176              	.L6:
 177              		.loc 1 271 0 is_stmt 0 discriminator 2
 178 0074 FFF7FEFF 		bl	chSchRescheduleS
 179 0078 FFF7FEFF 		bl	dbg_check_unlock
 180              	.LBB3:
 181 007c 0023     		movs	r3, #0
 182              	.LVL3:
 183              	@ 271 "../../ChibiOS/test/testsem.c" 1
 184 007e 83F31188 		msr     BASEPRI, r3
 185              	@ 0 "" 2
 186              	.LVL4:
 187              		.thumb
 188              	.LBE3:
 189              		.loc 1 272 0 is_stmt 1 discriminator 2
 190 0082 0599     		ldr	r1, [sp, #20]
 191 0084 0320     		movs	r0, #3
 192 0086 9942     		cmp	r1, r3
 193              	.LVL5:
 194 0088 D4BF     		ite	le
 195 008a 0021     		movle	r1, #0
 196 008c 0121     		movgt	r1, #1
 197 008e FFF7FEFF 		bl	_test_assert
 198 0092 0028     		cmp	r0, #0
 199 0094 C7D1     		bne	.L4
 200              		.loc 1 273 0
 201 0096 059A     		ldr	r2, [sp, #20]
 202 0098 0420     		movs	r0, #4
 203 009a A2F10101 		sub	r1, r2, #1
 204 009e D1F1000C 		rsbs	ip, r1, #0
 205 00a2 4CEB0101 		adc	r1, ip, r1
 206 00a6 FFF7FEFF 		bl	_test_assert
 207 00aa 0028     		cmp	r0, #0
 208 00ac BBD1     		bne	.L4
 209              	.LBB4:
 210              		.loc 1 276 0
 211 00ae 2023     		movs	r3, #32
 212              	.LVL6:
 213              	@ 276 "../../ChibiOS/test/testsem.c" 1
 214 00b0 83F31188 		msr     BASEPRI, r3
 215              	@ 0 "" 2
 216              	.LVL7:
 217              		.thumb
 218              	.LBE4:
 219 00b4 FFF7FEFF 		bl	dbg_check_lock
 220              	.LVL8:
 221 00b8 0598     		ldr	r0, [sp, #20]
 222 00ba 0028     		cmp	r0, #0
 223 00bc 1FDD     		ble	.L11
 224              	.L7:
 225              		.loc 1 276 0 is_stmt 0 discriminator 2
 226 00be FFF7FEFF 		bl	chSchRescheduleS
 227 00c2 FFF7FEFF 		bl	dbg_check_unlock
 228              	.LBB5:
ARM GAS  /tmp/cc5Rzgt2.s 			page 5


 229 00c6 0023     		movs	r3, #0
 230              	.LVL9:
 231              	@ 276 "../../ChibiOS/test/testsem.c" 1
 232 00c8 83F31188 		msr     BASEPRI, r3
 233              	@ 0 "" 2
 234              	.LVL10:
 235              		.thumb
 236              	.LBE5:
 237              		.loc 1 277 0 is_stmt 1 discriminator 2
 238 00cc 0599     		ldr	r1, [sp, #20]
 239 00ce 0320     		movs	r0, #3
 240 00d0 9942     		cmp	r1, r3
 241              	.LVL11:
 242 00d2 D4BF     		ite	le
 243 00d4 0021     		movle	r1, #0
 244 00d6 0121     		movgt	r1, #1
 245 00d8 FFF7FEFF 		bl	_test_assert
 246 00dc 0028     		cmp	r0, #0
 247 00de A2D1     		bne	.L4
 248              		.loc 1 278 0
 249 00e0 0599     		ldr	r1, [sp, #20]
 250 00e2 A1F10103 		sub	r3, r1, #1
 251 00e6 D3F1000E 		rsbs	lr, r3, #0
 252 00ea 4EEB0301 		adc	r1, lr, r3
 253 00ee 0520     		movs	r0, #5
 254 00f0 FFF7FEFF 		bl	_test_assert
 255 00f4 97E7     		b	.L4
 256              	.L10:
 257              		.loc 1 271 0 discriminator 1
 258 00f6 03A8     		add	r0, sp, #12
 259 00f8 FFF7FEFF 		bl	chSemSignalI
 260 00fc BAE7     		b	.L6
 261              	.L11:
 262              		.loc 1 276 0 discriminator 1
 263 00fe 03A8     		add	r0, sp, #12
 264 0100 FFF7FEFF 		bl	chSemSignalI
 265 0104 DBE7     		b	.L7
 266              	.L13:
 267 0106 00BF     		.align	2
 268              	.L12:
 269 0108 00000000 		.word	rlist
 270 010c 00000000 		.word	wa
 271 0110 00000000 		.word	thread4
 272 0114 00000000 		.word	threads
 273              		.cfi_endproc
 274              	.LFE17:
 275              		.size	sem4_execute, .-sem4_execute
 276 0118 AFF30080 		.section	.text.thread4,"ax",%progbits
 276      AFF30080 
 277              		.align	2
 278              		.p2align 4,,15
 279              		.thumb
 280              		.thumb_func
 281              		.type	thread4, %function
 282              	thread4:
 283              	.LFB16:
 284              		.loc 1 245 0
ARM GAS  /tmp/cc5Rzgt2.s 			page 6


 285              		.cfi_startproc
 286              		@ args = 0, pretend = 0, frame = 0
 287              		@ frame_needed = 0, uses_anonymous_args = 0
 288              	.LVL12:
 289 0000 10B5     		push	{r4, lr}
 290              	.LCFI2:
 291              		.cfi_def_cfa_offset 8
 292              		.cfi_offset 14, -4
 293              		.cfi_offset 4, -8
 294              	.LBB6:
 295              		.loc 1 247 0
 296 0002 2023     		movs	r3, #32
 297              	.LVL13:
 298              	.LBE6:
 299              		.loc 1 245 0
 300 0004 0446     		mov	r4, r0
 301              	.LBB7:
 302              		.loc 1 247 0
 303              	@ 247 "../../ChibiOS/test/testsem.c" 1
 304 0006 83F31188 		msr     BASEPRI, r3
 305              	@ 0 "" 2
 306              	.LVL14:
 307              		.thumb
 308              	.LBE7:
 309 000a FFF7FEFF 		bl	dbg_check_lock
 310              	.LVL15:
 311 000e A368     		ldr	r3, [r4, #8]
 312 0010 002B     		cmp	r3, #0
 313 0012 08DD     		ble	.L16
 314              		.loc 1 247 0 is_stmt 0 discriminator 2
 315 0014 FFF7FEFF 		bl	chSchRescheduleS
 316 0018 FFF7FEFF 		bl	dbg_check_unlock
 317              	.LBB8:
 318 001c 0023     		movs	r3, #0
 319              	.LVL16:
 320              	@ 247 "../../ChibiOS/test/testsem.c" 1
 321 001e 83F31188 		msr     BASEPRI, r3
 322              	@ 0 "" 2
 323              	.LVL17:
 324              		.thumb
 325              	.LBE8:
 326              		.loc 1 249 0 is_stmt 1 discriminator 2
 327 0022 1846     		mov	r0, r3
 328 0024 10BD     		pop	{r4, pc}
 329              	.LVL18:
 330              	.L16:
 331              		.loc 1 247 0 discriminator 1
 332 0026 2046     		mov	r0, r4
 333 0028 FFF7FEFF 		bl	chSemSignalI
 334 002c FFF7FEFF 		bl	chSchRescheduleS
 335 0030 FFF7FEFF 		bl	dbg_check_unlock
 336              	.LBB9:
 337 0034 0023     		movs	r3, #0
 338              	@ 247 "../../ChibiOS/test/testsem.c" 1
 339 0036 83F31188 		msr     BASEPRI, r3
 340              	@ 0 "" 2
 341              	.LVL19:
ARM GAS  /tmp/cc5Rzgt2.s 			page 7


 342              		.thumb
 343              	.LBE9:
 344              		.loc 1 249 0 discriminator 1
 345 003a 1846     		mov	r0, r3
 346 003c 10BD     		pop	{r4, pc}
 347              		.cfi_endproc
 348              	.LFE16:
 349              		.size	thread4, .-thread4
 350 003e 00BF     		.section	.text.thread3,"ax",%progbits
 351              		.align	2
 352              		.p2align 4,,15
 353              		.thumb
 354              		.thumb_func
 355              		.type	thread3, %function
 356              	thread3:
 357              	.LFB14:
 358              		.loc 1 209 0
 359              		.cfi_startproc
 360              		@ args = 0, pretend = 0, frame = 0
 361              		@ frame_needed = 0, uses_anonymous_args = 0
 362              	.LVL20:
 363 0000 10B5     		push	{r4, lr}
 364              	.LCFI3:
 365              		.cfi_def_cfa_offset 8
 366              		.cfi_offset 14, -4
 367              		.cfi_offset 4, -8
 368              		.loc 1 212 0
 369 0002 40F20004 		movw	r4, #:lower16:.LANCHOR0
 370 0006 C0F20004 		movt	r4, #:upper16:.LANCHOR0
 371 000a 2046     		mov	r0, r4
 372              	.LVL21:
 373 000c FFF7FEFF 		bl	chSemWait
 374              		.loc 1 213 0
 375 0010 2046     		mov	r0, r4
 376 0012 FFF7FEFF 		bl	chSemSignal
 377              		.loc 1 215 0
 378 0016 0020     		movs	r0, #0
 379 0018 10BD     		pop	{r4, pc}
 380              		.cfi_endproc
 381              	.LFE14:
 382              		.size	thread3, .-thread3
 383 001a 00BFAFF3 		.section	.text.thread1,"ax",%progbits
 383      0080
 384              		.align	2
 385              		.p2align 4,,15
 386              		.thumb
 387              		.thumb_func
 388              		.type	thread1, %function
 389              	thread1:
 390              	.LFB8:
 391              		.loc 1 77 0
 392              		.cfi_startproc
 393              		@ args = 0, pretend = 0, frame = 0
 394              		@ frame_needed = 0, uses_anonymous_args = 0
 395              	.LVL22:
 396              		.loc 1 79 0
 397 0000 40F20003 		movw	r3, #:lower16:.LANCHOR0
ARM GAS  /tmp/cc5Rzgt2.s 			page 8


 398 0004 C0F20003 		movt	r3, #:upper16:.LANCHOR0
 399              		.loc 1 77 0
 400 0008 10B5     		push	{r4, lr}
 401              	.LCFI4:
 402              		.cfi_def_cfa_offset 8
 403              		.cfi_offset 14, -4
 404              		.cfi_offset 4, -8
 405              		.loc 1 77 0
 406 000a 0446     		mov	r4, r0
 407              		.loc 1 79 0
 408 000c 1846     		mov	r0, r3
 409              	.LVL23:
 410 000e FFF7FEFF 		bl	chSemWait
 411              		.loc 1 80 0
 412 0012 2078     		ldrb	r0, [r4, #0]	@ zero_extendqisi2
 413 0014 FFF7FEFF 		bl	test_emit_token
 414              		.loc 1 82 0
 415 0018 0020     		movs	r0, #0
 416 001a 10BD     		pop	{r4, pc}
 417              		.cfi_endproc
 418              	.LFE8:
 419              		.size	thread1, .-thread1
 420 001c AFF30080 		.section	.text.thread2,"ax",%progbits
 421              		.align	2
 422              		.p2align 4,,15
 423              		.thumb
 424              		.thumb_func
 425              		.type	thread2, %function
 426              	thread2:
 427              	.LFB11:
 428              		.loc 1 133 0
 429              		.cfi_startproc
 430              		@ args = 0, pretend = 0, frame = 0
 431              		@ frame_needed = 0, uses_anonymous_args = 0
 432              	.LVL24:
 433 0000 08B5     		push	{r3, lr}
 434              	.LCFI5:
 435              		.cfi_def_cfa_offset 8
 436              		.cfi_offset 14, -4
 437              		.cfi_offset 3, -8
 438              		.loc 1 136 0
 439 0002 3220     		movs	r0, #50
 440              	.LVL25:
 441 0004 FFF7FEFF 		bl	chThdSleep
 442              	.LBB10:
 443              		.loc 1 137 0
 444 0008 2023     		movs	r3, #32
 445              	.LVL26:
 446              	@ 137 "../../ChibiOS/test/testsem.c" 1
 447 000a 83F31188 		msr     BASEPRI, r3
 448              	@ 0 "" 2
 449              	.LVL27:
 450              		.thumb
 451              	.LBE10:
 452 000e FFF7FEFF 		bl	dbg_check_lock
 453              	.LVL28:
 454              		.loc 1 138 0
ARM GAS  /tmp/cc5Rzgt2.s 			page 9


 455 0012 40F20000 		movw	r0, #:lower16:.LANCHOR0
 456 0016 C0F20000 		movt	r0, #:upper16:.LANCHOR0
 457 001a FFF7FEFF 		bl	chSemSignalI
 458              		.loc 1 139 0
 459 001e FFF7FEFF 		bl	chSchRescheduleS
 460              		.loc 1 140 0
 461 0022 FFF7FEFF 		bl	dbg_check_unlock
 462              	.LBB11:
 463 0026 0023     		movs	r3, #0
 464              	.LVL29:
 465              	@ 140 "../../ChibiOS/test/testsem.c" 1
 466 0028 83F31188 		msr     BASEPRI, r3
 467              	@ 0 "" 2
 468              	.LVL30:
 469              		.thumb
 470              	.LBE11:
 471              		.loc 1 142 0
 472 002c 1846     		mov	r0, r3
 473 002e 08BD     		pop	{r3, pc}
 474              		.cfi_endproc
 475              	.LFE11:
 476              		.size	thread2, .-thread2
 477              		.section	.text.sem1_execute,"ax",%progbits
 478              		.align	2
 479              		.p2align 4,,15
 480              		.thumb
 481              		.thumb_func
 482              		.type	sem1_execute, %function
 483              	sem1_execute:
 484              	.LFB9:
 485              		.loc 1 84 0
 486              		.cfi_startproc
 487              		@ args = 0, pretend = 0, frame = 0
 488              		@ frame_needed = 0, uses_anonymous_args = 0
 489 0000 2DE9F043 		push	{r4, r5, r6, r7, r8, r9, lr}
 490              	.LCFI6:
 491              		.cfi_def_cfa_offset 28
 492              		.cfi_offset 14, -4
 493              		.cfi_offset 9, -8
 494              		.cfi_offset 8, -12
 495              		.cfi_offset 7, -16
 496              		.cfi_offset 6, -20
 497              		.cfi_offset 5, -24
 498              		.cfi_offset 4, -28
 499              		.loc 1 86 0
 500 0004 4A4E     		ldr	r6, .L23
 501 0006 4B4C     		ldr	r4, .L23+4
 502 0008 B769     		ldr	r7, [r6, #24]
 503 000a D4F80090 		ldr	r9, [r4, #0]
 504 000e B868     		ldr	r0, [r7, #8]
 505 0010 494F     		ldr	r7, .L23+8
 506              		.loc 1 84 0
 507 0012 83B0     		sub	sp, sp, #12
 508              	.LCFI7:
 509              		.cfi_def_cfa_offset 40
 510              		.loc 1 86 0
 511 0014 421D     		adds	r2, r0, #5
ARM GAS  /tmp/cc5Rzgt2.s 			page 10


 512 0016 4FF40471 		mov	r1, #528
 513 001a 484B     		ldr	r3, .L23+12
 514 001c 4846     		mov	r0, r9
 515 001e 0097     		str	r7, [sp, #0]
 516 0020 FFF7FEFF 		bl	chThdCreateStatic
 517              		.loc 1 87 0
 518 0024 B569     		ldr	r5, [r6, #24]
 519 0026 DFF824E1 		ldr	lr, .L23+28
 520 002a AA68     		ldr	r2, [r5, #8]
 521              		.loc 1 86 0
 522 002c 444D     		ldr	r5, .L23+16
 523 002e 8046     		mov	r8, r0
 524 0030 C5F80080 		str	r8, [r5, #0]
 525              		.loc 1 87 0
 526 0034 6068     		ldr	r0, [r4, #4]
 527 0036 0132     		adds	r2, r2, #1
 528 0038 4FF40471 		mov	r1, #528
 529 003c 3F4B     		ldr	r3, .L23+12
 530 003e CDF800E0 		str	lr, [sp, #0]
 531 0042 FFF7FEFF 		bl	chThdCreateStatic
 532              		.loc 1 88 0
 533 0046 B369     		ldr	r3, [r6, #24]
 534              		.loc 1 87 0
 535 0048 8446     		mov	ip, r0
 536              		.loc 1 88 0
 537 004a 9968     		ldr	r1, [r3, #8]
 538 004c DFF80081 		ldr	r8, .L23+32
 539 0050 CA1C     		adds	r2, r1, #3
 540              		.loc 1 87 0
 541 0052 C5F804C0 		str	ip, [r5, #4]
 542              		.loc 1 88 0
 543 0056 A068     		ldr	r0, [r4, #8]
 544 0058 4FF40471 		mov	r1, #528
 545 005c 374B     		ldr	r3, .L23+12
 546 005e CDF80080 		str	r8, [sp, #0]
 547 0062 FFF7FEFF 		bl	chThdCreateStatic
 548              		.loc 1 89 0
 549 0066 B269     		ldr	r2, [r6, #24]
 550 0068 DFF8E8C0 		ldr	ip, .L23+36
 551 006c 9368     		ldr	r3, [r2, #8]
 552              		.loc 1 88 0
 553 006e 8646     		mov	lr, r0
 554              		.loc 1 89 0
 555 0070 1A1D     		adds	r2, r3, #4
 556              		.loc 1 88 0
 557 0072 C5F808E0 		str	lr, [r5, #8]
 558              		.loc 1 89 0
 559 0076 E068     		ldr	r0, [r4, #12]
 560 0078 4FF40471 		mov	r1, #528
 561 007c 2F4B     		ldr	r3, .L23+12
 562 007e CDF800C0 		str	ip, [sp, #0]
 563 0082 FFF7FEFF 		bl	chThdCreateStatic
 564              		.loc 1 90 0
 565 0086 B169     		ldr	r1, [r6, #24]
 566 0088 DFF8CCE0 		ldr	lr, .L23+40
 567 008c 8A68     		ldr	r2, [r1, #8]
 568              		.loc 1 89 0
ARM GAS  /tmp/cc5Rzgt2.s 			page 11


 569 008e 8046     		mov	r8, r0
 570              		.loc 1 90 0
 571 0090 0232     		adds	r2, r2, #2
 572 0092 4FF40471 		mov	r1, #528
 573              		.loc 1 89 0
 574 0096 C5F80C80 		str	r8, [r5, #12]
 575              		.loc 1 90 0
 576 009a 2069     		ldr	r0, [r4, #16]
 577 009c 274B     		ldr	r3, .L23+12
 578 009e CDF800E0 		str	lr, [sp, #0]
 579 00a2 FFF7FEFF 		bl	chThdCreateStatic
 580              		.loc 1 91 0
 581 00a6 274C     		ldr	r4, .L23+20
 582              		.loc 1 90 0
 583 00a8 0346     		mov	r3, r0
 584 00aa 2B61     		str	r3, [r5, #16]
 585              		.loc 1 91 0
 586 00ac 2046     		mov	r0, r4
 587 00ae FFF7FEFF 		bl	chSemSignal
 588              		.loc 1 92 0
 589 00b2 2046     		mov	r0, r4
 590 00b4 FFF7FEFF 		bl	chSemSignal
 591              		.loc 1 93 0
 592 00b8 2046     		mov	r0, r4
 593 00ba FFF7FEFF 		bl	chSemSignal
 594              		.loc 1 94 0
 595 00be 2046     		mov	r0, r4
 596 00c0 FFF7FEFF 		bl	chSemSignal
 597              		.loc 1 95 0
 598 00c4 2046     		mov	r0, r4
 599 00c6 FFF7FEFF 		bl	chSemSignal
 600              		.loc 1 96 0
 601 00ca FFF7FEFF 		bl	test_wait_threads
 602              		.loc 1 100 0
 603 00ce 0120     		movs	r0, #1
 604 00d0 1D49     		ldr	r1, .L23+24
 605 00d2 FFF7FEFF 		bl	_test_assert_sequence
 606 00d6 8046     		mov	r8, r0
 607 00d8 10B1     		cbz	r0, .L22
 608              		.loc 1 108 0
 609 00da 03B0     		add	sp, sp, #12
 610 00dc BDE8F083 		pop	{r4, r5, r6, r7, r8, r9, pc}
 611              	.L22:
 612              		.loc 1 102 0
 613 00e0 B169     		ldr	r1, [r6, #24]
 614 00e2 4846     		mov	r0, r9
 615 00e4 8A68     		ldr	r2, [r1, #8]
 616 00e6 154B     		ldr	r3, .L23+12
 617 00e8 4FF40471 		mov	r1, #528
 618 00ec 0532     		adds	r2, r2, #5
 619 00ee 0097     		str	r7, [sp, #0]
 620 00f0 FFF7FEFF 		bl	chThdCreateStatic
 621              	.LBB12:
 622              		.loc 1 103 0
 623 00f4 2023     		movs	r3, #32
 624              	.LVL31:
 625              	.LBE12:
ARM GAS  /tmp/cc5Rzgt2.s 			page 12


 626              		.loc 1 102 0
 627 00f6 2860     		str	r0, [r5, #0]
 628              	.LBB13:
 629              		.loc 1 103 0
 630              	@ 103 "../../ChibiOS/test/testsem.c" 1
 631 00f8 83F31188 		msr     BASEPRI, r3
 632              	@ 0 "" 2
 633              	.LVL32:
 634              		.thumb
 635              	.LBE13:
 636 00fc FFF7FEFF 		bl	dbg_check_lock
 637              	.LVL33:
 638              		.loc 1 104 0
 639 0100 2046     		mov	r0, r4
 640 0102 0221     		movs	r1, #2
 641 0104 FFF7FEFF 		bl	chSemAddCounterI
 642              		.loc 1 105 0
 643 0108 FFF7FEFF 		bl	dbg_check_unlock
 644              	.LBB14:
 645 010c 4346     		mov	r3, r8
 646              	.LVL34:
 647              	@ 105 "../../ChibiOS/test/testsem.c" 1
 648 010e 83F31188 		msr     BASEPRI, r3
 649              	@ 0 "" 2
 650              	.LVL35:
 651              		.thumb
 652              	.LBE14:
 653              		.loc 1 106 0
 654 0112 FFF7FEFF 		bl	test_wait_threads
 655              	.LVL36:
 656              		.loc 1 107 0
 657 0116 A368     		ldr	r3, [r4, #8]
 658 0118 A3F10101 		sub	r1, r3, #1
 659 011c D1F1000C 		rsbs	ip, r1, #0
 660 0120 4CEB0101 		adc	r1, ip, r1
 661 0124 0220     		movs	r0, #2
 662              		.loc 1 108 0
 663 0126 03B0     		add	sp, sp, #12
 664 0128 BDE8F043 		pop	{r4, r5, r6, r7, r8, r9, lr}
 665              		.loc 1 107 0
 666 012c FFF7FEBF 		b	_test_assert
 667              	.L24:
 668              		.align	2
 669              	.L23:
 670 0130 00000000 		.word	rlist
 671 0134 00000000 		.word	wa
 672 0138 00000000 		.word	.LC0
 673 013c 00000000 		.word	thread1
 674 0140 00000000 		.word	threads
 675 0144 00000000 		.word	.LANCHOR0
 676 0148 14000000 		.word	.LC5
 677 014c 04000000 		.word	.LC1
 678 0150 08000000 		.word	.LC2
 679 0154 0C000000 		.word	.LC3
 680 0158 10000000 		.word	.LC4
 681              		.cfi_endproc
 682              	.LFE9:
ARM GAS  /tmp/cc5Rzgt2.s 			page 13


 683              		.size	sem1_execute, .-sem1_execute
 684 015c AFF30080 		.section	.text.sem3_execute,"ax",%progbits
 685              		.align	2
 686              		.p2align 4,,15
 687              		.thumb
 688              		.thumb_func
 689              		.type	sem3_execute, %function
 690              	sem3_execute:
 691              	.LFB15:
 692              		.loc 1 217 0
 693              		.cfi_startproc
 694              		@ args = 0, pretend = 0, frame = 0
 695              		@ frame_needed = 0, uses_anonymous_args = 0
 696              		.loc 1 219 0
 697 0000 2349     		ldr	r1, .L28
 698              		.loc 1 217 0
 699 0002 30B5     		push	{r4, r5, lr}
 700              	.LCFI8:
 701              		.cfi_def_cfa_offset 12
 702              		.cfi_offset 14, -4
 703              		.cfi_offset 5, -8
 704              		.cfi_offset 4, -12
 705              		.loc 1 219 0
 706 0004 8C69     		ldr	r4, [r1, #24]
 707 0006 2348     		ldr	r0, .L28+4
 708 0008 A568     		ldr	r5, [r4, #8]
 709              		.loc 1 217 0
 710 000a 83B0     		sub	sp, sp, #12
 711              	.LCFI9:
 712              		.cfi_def_cfa_offset 24
 713              		.loc 1 219 0
 714 000c 6A1C     		adds	r2, r5, #1
 715 000e 224B     		ldr	r3, .L28+8
 716 0010 4FF40471 		mov	r1, #528
 717 0014 0025     		movs	r5, #0
 718 0016 0068     		ldr	r0, [r0, #0]
 719 0018 0095     		str	r5, [sp, #0]
 720 001a FFF7FEFF 		bl	chThdCreateStatic
 721              		.loc 1 220 0
 722 001e 1F4C     		ldr	r4, .L28+12
 723              		.loc 1 219 0
 724 0020 1F4B     		ldr	r3, .L28+16
 725 0022 0246     		mov	r2, r0
 726 0024 1A60     		str	r2, [r3, #0]
 727              		.loc 1 220 0
 728 0026 2146     		mov	r1, r4
 729 0028 2046     		mov	r0, r4
 730 002a FFF7FEFF 		bl	chSemSignalWait
 731              		.loc 1 221 0
 732 002e 2368     		ldr	r3, [r4, #0]
 733 0030 0120     		movs	r0, #1
 734 0032 1A1B     		subs	r2, r3, r4
 735 0034 5142     		rsbs	r1, r2, #0
 736 0036 41EB0201 		adc	r1, r1, r2
 737 003a FFF7FEFF 		bl	_test_assert
 738 003e 08B1     		cbz	r0, .L27
 739              	.L25:
ARM GAS  /tmp/cc5Rzgt2.s 			page 14


 740              		.loc 1 227 0
 741 0040 03B0     		add	sp, sp, #12
 742 0042 30BD     		pop	{r4, r5, pc}
 743              	.L27:
 744              		.loc 1 222 0
 745 0044 A268     		ldr	r2, [r4, #8]
 746 0046 0220     		movs	r0, #2
 747 0048 C5EB020C 		rsb	ip, r5, r2
 748 004c DCF10003 		rsbs	r3, ip, #0
 749 0050 43EB0C01 		adc	r1, r3, ip
 750 0054 FFF7FEFF 		bl	_test_assert
 751 0058 0028     		cmp	r0, #0
 752 005a F1D1     		bne	.L25
 753              	.LBB17:
 754              	.LBB18:
 755              		.loc 1 224 0
 756 005c 2146     		mov	r1, r4
 757 005e 2046     		mov	r0, r4
 758 0060 FFF7FEFF 		bl	chSemSignalWait
 759              		.loc 1 225 0
 760 0064 2268     		ldr	r2, [r4, #0]
 761 0066 0320     		movs	r0, #3
 762 0068 131B     		subs	r3, r2, r4
 763 006a 5942     		rsbs	r1, r3, #0
 764 006c 41EB0301 		adc	r1, r1, r3
 765 0070 FFF7FEFF 		bl	_test_assert
 766 0074 0028     		cmp	r0, #0
 767 0076 E3D1     		bne	.L25
 768              		.loc 1 226 0
 769 0078 A368     		ldr	r3, [r4, #8]
 770 007a 591B     		subs	r1, r3, r5
 771 007c 4842     		rsbs	r0, r1, #0
 772 007e 40EB0101 		adc	r1, r0, r1
 773 0082 0420     		movs	r0, #4
 774              	.LBE18:
 775              	.LBE17:
 776              		.loc 1 227 0
 777 0084 03B0     		add	sp, sp, #12
 778 0086 BDE83040 		pop	{r4, r5, lr}
 779              	.LBB20:
 780              	.LBB19:
 781              		.loc 1 226 0
 782 008a FFF7FEBF 		b	_test_assert
 783              	.L29:
 784 008e 00BF     		.align	2
 785              	.L28:
 786 0090 00000000 		.word	rlist
 787 0094 00000000 		.word	wa
 788 0098 00000000 		.word	thread3
 789 009c 00000000 		.word	.LANCHOR0
 790 00a0 00000000 		.word	threads
 791              	.LBE19:
 792              	.LBE20:
 793              		.cfi_endproc
 794              	.LFE15:
 795              		.size	sem3_execute, .-sem3_execute
 796 00a4 AFF30080 		.section	.text.sem2_execute,"ax",%progbits
ARM GAS  /tmp/cc5Rzgt2.s 			page 15


 796      AFF30080 
 796      AFF30080 
 797              		.align	2
 798              		.p2align 4,,15
 799              		.thumb
 800              		.thumb_func
 801              		.type	sem2_execute, %function
 802              	sem2_execute:
 803              	.LFB12:
 804              		.loc 1 144 0
 805              		.cfi_startproc
 806              		@ args = 0, pretend = 0, frame = 0
 807              		@ frame_needed = 0, uses_anonymous_args = 0
 808 0000 70B5     		push	{r4, r5, r6, lr}
 809              	.LCFI10:
 810              		.cfi_def_cfa_offset 16
 811              		.cfi_offset 14, -4
 812              		.cfi_offset 6, -8
 813              		.cfi_offset 5, -12
 814              		.cfi_offset 4, -16
 815              		.loc 1 152 0
 816 0002 9E4C     		ldr	r4, .L33
 817 0004 0021     		movs	r1, #0
 818              		.loc 1 144 0
 819 0006 82B0     		sub	sp, sp, #8
 820              	.LCFI11:
 821              		.cfi_def_cfa_offset 24
 822              		.loc 1 152 0
 823 0008 2046     		mov	r0, r4
 824 000a FFF7FEFF 		bl	chSemWaitTimeout
 825              	.LVL37:
 826              		.loc 1 153 0
 827 000e A0F1FF30 		sub	r0, r0, #-1
 828              	.LVL38:
 829 0012 4142     		rsbs	r1, r0, #0
 830 0014 41EB0001 		adc	r1, r1, r0
 831 0018 0120     		movs	r0, #1
 832              	.LVL39:
 833 001a FFF7FEFF 		bl	_test_assert
 834 001e 08B1     		cbz	r0, .L32
 835              	.L30:
 836              		.loc 1 182 0
 837 0020 02B0     		add	sp, sp, #8
 838 0022 70BD     		pop	{r4, r5, r6, pc}
 839              	.L32:
 840              		.loc 1 154 0
 841 0024 2168     		ldr	r1, [r4, #0]
 842 0026 0220     		movs	r0, #2
 843 0028 0A1B     		subs	r2, r1, r4
 844 002a 5342     		rsbs	r3, r2, #0
 845 002c 43EB0201 		adc	r1, r3, r2
 846 0030 FFF7FEFF 		bl	_test_assert
 847 0034 0028     		cmp	r0, #0
 848 0036 F3D1     		bne	.L30
 849              		.loc 1 155 0
 850 0038 A568     		ldr	r5, [r4, #8]
 851 003a 0320     		movs	r0, #3
ARM GAS  /tmp/cc5Rzgt2.s 			page 16


 852 003c D5F10101 		rsbs	r1, r5, #1
 853 0040 38BF     		it	cc
 854 0042 0021     		movcc	r1, #0
 855 0044 FFF7FEFF 		bl	_test_assert
 856 0048 0546     		mov	r5, r0
 857 004a 0028     		cmp	r0, #0
 858 004c E8D1     		bne	.L30
 859              	.LBB23:
 860              	.LBB24:
 861              		.loc 1 160 0
 862 004e 8C4B     		ldr	r3, .L33+4
 863 0050 8C48     		ldr	r0, .L33+8
 864 0052 9A69     		ldr	r2, [r3, #24]
 865 0054 0068     		ldr	r0, [r0, #0]
 866 0056 9168     		ldr	r1, [r2, #8]
 867 0058 8B4B     		ldr	r3, .L33+12
 868 005a 4A1E     		subs	r2, r1, #1
 869 005c 4FF40471 		mov	r1, #528
 870 0060 0095     		str	r5, [sp, #0]
 871 0062 FFF7FEFF 		bl	chThdCreateStatic
 872 0066 894B     		ldr	r3, .L33+16
 873 0068 0246     		mov	r2, r0
 874              		.loc 1 162 0
 875 006a 4FF4FA71 		mov	r1, #500
 876              		.loc 1 160 0
 877 006e 1A60     		str	r2, [r3, #0]
 878              		.loc 1 162 0
 879 0070 2046     		mov	r0, r4
 880 0072 FFF7FEFF 		bl	chSemWaitTimeout
 881 0076 0546     		mov	r5, r0
 882              	.LVL40:
 883              		.loc 1 163 0
 884 0078 FFF7FEFF 		bl	test_wait_threads
 885              	.LVL41:
 886              		.loc 1 164 0
 887 007c D5F10101 		rsbs	r1, r5, #1
 888 0080 38BF     		it	cc
 889 0082 0021     		movcc	r1, #0
 890 0084 0420     		movs	r0, #4
 891 0086 FFF7FEFF 		bl	_test_assert
 892 008a 0028     		cmp	r0, #0
 893 008c C8D1     		bne	.L30
 894              		.loc 1 165 0
 895 008e 2268     		ldr	r2, [r4, #0]
 896 0090 0520     		movs	r0, #5
 897 0092 111B     		subs	r1, r2, r4
 898 0094 D1F1000C 		rsbs	ip, r1, #0
 899 0098 4CEB0101 		adc	r1, ip, r1
 900 009c FFF7FEFF 		bl	_test_assert
 901 00a0 0028     		cmp	r0, #0
 902 00a2 BDD1     		bne	.L30
 903              		.loc 1 166 0
 904 00a4 A368     		ldr	r3, [r4, #8]
 905 00a6 0620     		movs	r0, #6
 906 00a8 D3F10101 		rsbs	r1, r3, #1
 907 00ac 38BF     		it	cc
 908 00ae 0021     		movcc	r1, #0
ARM GAS  /tmp/cc5Rzgt2.s 			page 17


 909 00b0 FFF7FEFF 		bl	_test_assert
 910 00b4 0028     		cmp	r0, #0
 911 00b6 B3D1     		bne	.L30
 912              		.loc 1 172 0
 913 00b8 754E     		ldr	r6, .L33+20
 914              		.loc 1 171 0
 915 00ba FFF7FEFF 		bl	test_wait_tick
 916              		.loc 1 174 0
 917 00be 4120     		movs	r0, #65
 918              		.loc 1 172 0
 919 00c0 F668     		ldr	r6, [r6, #12]
 920              	.LVL42:
 921              		.loc 1 174 0
 922 00c2 FFF7FEFF 		bl	test_emit_token
 923              		.loc 1 175 0
 924 00c6 4FF4FA71 		mov	r1, #500
 925 00ca 2046     		mov	r0, r4
 926 00cc FFF7FEFF 		bl	chSemWaitTimeout
 927              	.LVL43:
 928              		.loc 1 176 0
 929 00d0 A0F1FF31 		sub	r1, r0, #-1
 930 00d4 4842     		rsbs	r0, r1, #0
 931              	.LVL44:
 932 00d6 40EB0101 		adc	r1, r0, r1
 933              	.LVL45:
 934 00da 0720     		movs	r0, #7
 935 00dc FFF7FEFF 		bl	_test_assert
 936 00e0 0028     		cmp	r0, #0
 937 00e2 9DD1     		bne	.L30
 938              		.loc 1 177 0
 939 00e4 2168     		ldr	r1, [r4, #0]
 940 00e6 0820     		movs	r0, #8
 941 00e8 0B1B     		subs	r3, r1, r4
 942 00ea 5A42     		rsbs	r2, r3, #0
 943 00ec 42EB0301 		adc	r1, r2, r3
 944 00f0 FFF7FEFF 		bl	_test_assert
 945 00f4 0028     		cmp	r0, #0
 946 00f6 93D1     		bne	.L30
 947              		.loc 1 178 0
 948 00f8 A268     		ldr	r2, [r4, #8]
 949 00fa 0920     		movs	r0, #9
 950 00fc D2F10101 		rsbs	r1, r2, #1
 951 0100 38BF     		it	cc
 952 0102 0021     		movcc	r1, #0
 953 0104 FFF7FEFF 		bl	_test_assert
 954 0108 0028     		cmp	r0, #0
 955 010a 89D1     		bne	.L30
 956              	.LVL46:
 957              		.loc 1 174 0
 958 010c 4220     		movs	r0, #66
 959 010e FFF7FEFF 		bl	test_emit_token
 960              		.loc 1 175 0
 961 0112 4FF4FA71 		mov	r1, #500
 962 0116 2046     		mov	r0, r4
 963 0118 FFF7FEFF 		bl	chSemWaitTimeout
 964              	.LVL47:
 965              		.loc 1 176 0
ARM GAS  /tmp/cc5Rzgt2.s 			page 18


 966 011c A0F1FF33 		sub	r3, r0, #-1
 967 0120 5842     		rsbs	r0, r3, #0
 968              	.LVL48:
 969 0122 40EB0301 		adc	r1, r0, r3
 970 0126 0720     		movs	r0, #7
 971 0128 FFF7FEFF 		bl	_test_assert
 972              	.LVL49:
 973 012c 0028     		cmp	r0, #0
 974 012e 7FF477AF 		bne	.L30
 975              		.loc 1 177 0
 976 0132 2268     		ldr	r2, [r4, #0]
 977 0134 0820     		movs	r0, #8
 978 0136 111B     		subs	r1, r2, r4
 979 0138 4D42     		rsbs	r5, r1, #0
 980 013a 45EB0101 		adc	r1, r5, r1
 981 013e FFF7FEFF 		bl	_test_assert
 982 0142 2546     		mov	r5, r4
 983 0144 0028     		cmp	r0, #0
 984 0146 7FF46BAF 		bne	.L30
 985              		.loc 1 178 0
 986 014a A368     		ldr	r3, [r4, #8]
 987 014c 0920     		movs	r0, #9
 988 014e D3F10101 		rsbs	r1, r3, #1
 989 0152 38BF     		it	cc
 990 0154 0021     		movcc	r1, #0
 991 0156 FFF7FEFF 		bl	_test_assert
 992 015a 0028     		cmp	r0, #0
 993 015c 7FF460AF 		bne	.L30
 994              	.LVL50:
 995              		.loc 1 174 0
 996 0160 4320     		movs	r0, #67
 997 0162 FFF7FEFF 		bl	test_emit_token
 998              		.loc 1 175 0
 999 0166 4FF4FA71 		mov	r1, #500
 1000 016a 2046     		mov	r0, r4
 1001 016c FFF7FEFF 		bl	chSemWaitTimeout
 1002              	.LVL51:
 1003              		.loc 1 176 0
 1004 0170 A0F1FF31 		sub	r1, r0, #-1
 1005 0174 4842     		rsbs	r0, r1, #0
 1006              	.LVL52:
 1007 0176 40EB0101 		adc	r1, r0, r1
 1008              	.LVL53:
 1009 017a 0720     		movs	r0, #7
 1010 017c FFF7FEFF 		bl	_test_assert
 1011 0180 0028     		cmp	r0, #0
 1012 0182 7FF44DAF 		bne	.L30
 1013              		.loc 1 177 0
 1014 0186 2168     		ldr	r1, [r4, #0]
 1015 0188 0820     		movs	r0, #8
 1016 018a 0B1B     		subs	r3, r1, r4
 1017 018c 5A42     		rsbs	r2, r3, #0
 1018 018e 42EB0301 		adc	r1, r2, r3
 1019 0192 FFF7FEFF 		bl	_test_assert
 1020 0196 0028     		cmp	r0, #0
 1021 0198 7FF442AF 		bne	.L30
 1022              		.loc 1 178 0
ARM GAS  /tmp/cc5Rzgt2.s 			page 19


 1023 019c A268     		ldr	r2, [r4, #8]
 1024 019e 0920     		movs	r0, #9
 1025 01a0 D2F10101 		rsbs	r1, r2, #1
 1026 01a4 38BF     		it	cc
 1027 01a6 0021     		movcc	r1, #0
 1028 01a8 FFF7FEFF 		bl	_test_assert
 1029 01ac 0028     		cmp	r0, #0
 1030 01ae 7FF437AF 		bne	.L30
 1031              	.LVL54:
 1032              		.loc 1 174 0
 1033 01b2 4420     		movs	r0, #68
 1034 01b4 FFF7FEFF 		bl	test_emit_token
 1035              		.loc 1 175 0
 1036 01b8 4FF4FA71 		mov	r1, #500
 1037 01bc 2046     		mov	r0, r4
 1038 01be FFF7FEFF 		bl	chSemWaitTimeout
 1039              	.LVL55:
 1040              		.loc 1 176 0
 1041 01c2 A0F1FF3C 		sub	ip, r0, #-1
 1042 01c6 DCF10003 		rsbs	r3, ip, #0
 1043 01ca 43EB0C01 		adc	r1, r3, ip
 1044 01ce 0720     		movs	r0, #7
 1045              	.LVL56:
 1046 01d0 FFF7FEFF 		bl	_test_assert
 1047              	.LVL57:
 1048 01d4 0028     		cmp	r0, #0
 1049 01d6 7FF423AF 		bne	.L30
 1050              		.loc 1 177 0
 1051 01da 2268     		ldr	r2, [r4, #0]
 1052 01dc 0820     		movs	r0, #8
 1053 01de 111B     		subs	r1, r2, r4
 1054 01e0 D1F1000E 		rsbs	lr, r1, #0
 1055 01e4 4EEB0101 		adc	r1, lr, r1
 1056 01e8 FFF7FEFF 		bl	_test_assert
 1057 01ec 0028     		cmp	r0, #0
 1058 01ee 7FF417AF 		bne	.L30
 1059              		.loc 1 178 0
 1060 01f2 A368     		ldr	r3, [r4, #8]
 1061 01f4 0920     		movs	r0, #9
 1062 01f6 D3F10101 		rsbs	r1, r3, #1
 1063 01fa 38BF     		it	cc
 1064 01fc 0021     		movcc	r1, #0
 1065 01fe FFF7FEFF 		bl	_test_assert
 1066 0202 0028     		cmp	r0, #0
 1067 0204 7FF40CAF 		bne	.L30
 1068              	.LVL58:
 1069              		.loc 1 174 0
 1070 0208 4520     		movs	r0, #69
 1071 020a FFF7FEFF 		bl	test_emit_token
 1072              		.loc 1 175 0
 1073 020e 4FF4FA71 		mov	r1, #500
 1074 0212 2046     		mov	r0, r4
 1075 0214 FFF7FEFF 		bl	chSemWaitTimeout
 1076              	.LVL59:
 1077              		.loc 1 176 0
 1078 0218 A0F1FF31 		sub	r1, r0, #-1
 1079 021c 4842     		rsbs	r0, r1, #0
ARM GAS  /tmp/cc5Rzgt2.s 			page 20


 1080              	.LVL60:
 1081 021e 40EB0101 		adc	r1, r0, r1
 1082              	.LVL61:
 1083 0222 0720     		movs	r0, #7
 1084 0224 FFF7FEFF 		bl	_test_assert
 1085 0228 0028     		cmp	r0, #0
 1086 022a 7FF4F9AE 		bne	.L30
 1087              		.loc 1 177 0
 1088 022e 2168     		ldr	r1, [r4, #0]
 1089 0230 0820     		movs	r0, #8
 1090 0232 0B1B     		subs	r3, r1, r4
 1091 0234 5A42     		rsbs	r2, r3, #0
 1092 0236 42EB0301 		adc	r1, r2, r3
 1093 023a FFF7FEFF 		bl	_test_assert
 1094 023e 0028     		cmp	r0, #0
 1095 0240 7FF4EEAE 		bne	.L30
 1096              		.loc 1 178 0
 1097 0244 A268     		ldr	r2, [r4, #8]
 1098 0246 0920     		movs	r0, #9
 1099 0248 D2F10101 		rsbs	r1, r2, #1
 1100 024c 38BF     		it	cc
 1101 024e 0021     		movcc	r1, #0
 1102 0250 FFF7FEFF 		bl	_test_assert
 1103 0254 0028     		cmp	r0, #0
 1104 0256 7FF4E3AE 		bne	.L30
 1105              	.LVL62:
 1106              		.loc 1 180 0
 1107 025a 0A20     		movs	r0, #10
 1108 025c 0D49     		ldr	r1, .L33+24
 1109 025e FFF7FEFF 		bl	_test_assert_sequence
 1110 0262 0028     		cmp	r0, #0
 1111 0264 7FF4DCAE 		bne	.L30
 1112              		.loc 1 172 0
 1113 0268 06F51C62 		add	r2, r6, #2496
 1114 026c 111D     		adds	r1, r2, #4
 1115              		.loc 1 181 0
 1116 026e 0B20     		movs	r0, #11
 1117 0270 0932     		adds	r2, r2, #9
 1118              	.LBE24:
 1119              	.LBE23:
 1120              		.loc 1 182 0
 1121 0272 02B0     		add	sp, sp, #8
 1122 0274 BDE87040 		pop	{r4, r5, r6, lr}
 1123              	.LBB26:
 1124              	.LBB25:
 1125              		.loc 1 181 0
 1126 0278 FFF7FEBF 		b	_test_assert_time_window
 1127              	.L34:
 1128              		.align	2
 1129              	.L33:
 1130 027c 00000000 		.word	.LANCHOR0
 1131 0280 00000000 		.word	rlist
 1132 0284 00000000 		.word	wa
 1133 0288 00000000 		.word	thread2
 1134 028c 00000000 		.word	threads
 1135 0290 00000000 		.word	vtlist
 1136 0294 14000000 		.word	.LC5
ARM GAS  /tmp/cc5Rzgt2.s 			page 21


 1137              	.LBE25:
 1138              	.LBE26:
 1139              		.cfi_endproc
 1140              	.LFE12:
 1141              		.size	sem2_execute, .-sem2_execute
 1142              		.global	patternsem
 1143              		.global	testsem4
 1144              		.global	testsem3
 1145              		.global	testsem2
 1146              		.global	testsem1
 1147 0298 AFF30080 		.section	.rodata.testsem1,"a",%progbits
 1147      AFF30080 
 1148              		.align	2
 1149              		.type	testsem1, %object
 1150              		.size	testsem1, 16
 1151              	testsem1:
 1152 0000 74000000 		.word	.LC9
 1153 0004 00000000 		.word	sem1_setup
 1154 0008 00000000 		.word	0
 1155 000c 00000000 		.word	sem1_execute
 1156              		.section	.rodata.testsem2,"a",%progbits
 1157              		.align	2
 1158              		.type	testsem2, %object
 1159              		.size	testsem2, 16
 1160              	testsem2:
 1161 0000 60000000 		.word	.LC8
 1162 0004 00000000 		.word	sem2_setup
 1163 0008 00000000 		.word	0
 1164 000c 00000000 		.word	sem2_execute
 1165              		.section	.rodata.testsem3,"a",%progbits
 1166              		.align	2
 1167              		.type	testsem3, %object
 1168              		.size	testsem3, 16
 1169              	testsem3:
 1170 0000 40000000 		.word	.LC7
 1171 0004 00000000 		.word	sem3_setup
 1172 0008 00000000 		.word	0
 1173 000c 00000000 		.word	sem3_execute
 1174              		.section	.rodata.testsem4,"a",%progbits
 1175              		.align	2
 1176              		.type	testsem4, %object
 1177              		.size	testsem4, 16
 1178              	testsem4:
 1179 0000 1C000000 		.word	.LC6
 1180 0004 00000000 		.word	0
 1181 0008 00000000 		.word	0
 1182 000c 00000000 		.word	sem4_execute
 1183              		.section	.data.sem1,"aw",%progbits
 1184              		.align	2
 1185              		.set	.LANCHOR0,. + 0
 1186              		.type	sem1, %object
 1187              		.size	sem1, 12
 1188              	sem1:
 1189 0000 00000000 		.word	sem1
 1190 0004 00000000 		.word	sem1
 1191 0008 00000000 		.word	0
 1192              		.section	.rodata.patternsem,"a",%progbits
ARM GAS  /tmp/cc5Rzgt2.s 			page 22


 1193              		.align	2
 1194              		.type	patternsem, %object
 1195              		.size	patternsem, 20
 1196              	patternsem:
 1197 0000 00000000 		.word	testsem1
 1198 0004 00000000 		.word	testsem2
 1199 0008 00000000 		.word	testsem3
 1200 000c 00000000 		.word	testsem4
 1201 0010 00000000 		.word	0
 1202              		.section	.rodata.str1.4,"aMS",%progbits,1
 1203              		.align	2
 1204              	.LC0:
 1205 0000 4100     		.ascii	"A\000"
 1206 0002 0000     		.space	2
 1207              	.LC1:
 1208 0004 4200     		.ascii	"B\000"
 1209 0006 0000     		.space	2
 1210              	.LC2:
 1211 0008 4300     		.ascii	"C\000"
 1212 000a 0000     		.space	2
 1213              	.LC3:
 1214 000c 4400     		.ascii	"D\000"
 1215 000e 0000     		.space	2
 1216              	.LC4:
 1217 0010 4500     		.ascii	"E\000"
 1218 0012 0000     		.space	2
 1219              	.LC5:
 1220 0014 41424344 		.ascii	"ABCDE\000"
 1220      4500
 1221 001a 0000     		.space	2
 1222              	.LC6:
 1223 001c 42696E61 		.ascii	"Binary Semaphores, functionality\000"
 1223      72792053 
 1223      656D6170 
 1223      686F7265 
 1223      732C2066 
 1224 003d 000000   		.space	3
 1225              	.LC7:
 1226 0040 53656D61 		.ascii	"Semaphores, atomic signal-wait\000"
 1226      70686F72 
 1226      65732C20 
 1226      61746F6D 
 1226      69632073 
 1227 005f 00       		.space	1
 1228              	.LC8:
 1229 0060 53656D61 		.ascii	"Semaphores, timeout\000"
 1229      70686F72 
 1229      65732C20 
 1229      74696D65 
 1229      6F757400 
 1230              	.LC9:
 1231 0074 53656D61 		.ascii	"Semaphores, enqueuing\000"
 1231      70686F72 
 1231      65732C20 
 1231      656E7175 
 1231      6575696E 
 1232 008a 0000     		.text
ARM GAS  /tmp/cc5Rzgt2.s 			page 23


 1233              	.Letext0:
 1234              		.file 2 "/home/tino/ChibiStudio/tools/GNU Tools ARM Embedded/4.6 2012q2/bin/../lib/gcc/arm-none-ea
 1235              		.file 3 "../../ChibiOS/os/ports/GCC/ARMCMx/chtypes.h"
 1236              		.file 4 "../../ChibiOS/os/kernel/include/chlists.h"
 1237              		.file 5 "../../ChibiOS/os/kernel/include/chthreads.h"
 1238              		.file 6 "../../ChibiOS/os/ports/GCC/ARMCMx/chcore_v7m.h"
 1239              		.file 7 "../../ChibiOS/os/kernel/include/chvt.h"
 1240              		.file 8 "../../ChibiOS/os/kernel/include/chschd.h"
 1241              		.file 9 "../../ChibiOS/os/kernel/include/chsem.h"
 1242              		.file 10 "../../ChibiOS/os/kernel/include/chbsem.h"
 1243              		.file 11 "../../ChibiOS/os/kernel/include/chmtx.h"
 1244              		.file 12 "../../ChibiOS/test/test.h"