ARM GAS  /tmp/ccha5Aix.s 			page 1


   1              		.syntax unified
   2              		.cpu cortex-m3
   3              		.fpu softvfp
   4              		.eabi_attribute 20, 1
   5              		.eabi_attribute 21, 1
   6              		.eabi_attribute 23, 3
   7              		.eabi_attribute 24, 1
   8              		.eabi_attribute 25, 1
   9              		.eabi_attribute 26, 1
  10              		.eabi_attribute 30, 2
  11              		.eabi_attribute 34, 1
  12              		.eabi_attribute 18, 4
  13              		.thumb
  14              		.file	"testdyn.c"
  15              		.text
  16              	.Ltext0:
  17              		.cfi_sections	.debug_frame
  18              		.section	.text.regfind,"ax",%progbits
  19              		.align	2
  20              		.p2align 4,,15
  21              		.thumb
  22              		.thumb_func
  23              		.type	regfind, %function
  24              	regfind:
  25              	.LFB12:
  26              		.file 1 "../../ChibiOS/test/testdyn.c"
  27              		.loc 1 191 0
  28              		.cfi_startproc
  29              		@ args = 0, pretend = 0, frame = 0
  30              		@ frame_needed = 0, uses_anonymous_args = 0
  31              	.LVL0:
  32 0000 38B5     		push	{r3, r4, r5, lr}
  33              	.LCFI0:
  34              		.cfi_def_cfa_offset 16
  35              		.cfi_offset 14, -4
  36              		.cfi_offset 5, -8
  37              		.cfi_offset 4, -12
  38              		.cfi_offset 3, -16
  39              		.loc 1 191 0
  40 0002 0546     		mov	r5, r0
  41              		.loc 1 195 0
  42 0004 FFF7FEFF 		bl	chRegFirstThread
  43              	.LVL1:
  44              		.loc 1 193 0
  45 0008 0024     		movs	r4, #0
  46              		.loc 1 195 0
  47 000a 0346     		mov	r3, r0
  48              	.LVL2:
  49              	.L2:
  50              		.loc 1 198 0 discriminator 1
  51 000c 1846     		mov	r0, r3
  52              	.LVL3:
  53              		.loc 1 197 0 discriminator 1
  54 000e AB42     		cmp	r3, r5
  55 0010 08BF     		it	eq
  56 0012 44F00104 		orreq	r4, r4, #1
  57              	.LVL4:
ARM GAS  /tmp/ccha5Aix.s 			page 2


  58              		.loc 1 198 0 discriminator 1
  59 0016 FFF7FEFF 		bl	chRegNextThread
  60              	.LVL5:
  61 001a 0346     		mov	r3, r0
  62              	.LVL6:
  63              		.loc 1 199 0 discriminator 1
  64 001c 0028     		cmp	r0, #0
  65 001e F5D1     		bne	.L2
  66              		.loc 1 201 0
  67 0020 2046     		mov	r0, r4
  68              	.LVL7:
  69 0022 38BD     		pop	{r3, r4, r5, pc}
  70              		.cfi_endproc
  71              	.LFE12:
  72              		.size	regfind, .-regfind
  73 0024 AFF30080 		.section	.text.thread,"ax",%progbits
  73      AFF30080 
  73      AFF30080 
  74              		.align	2
  75              		.p2align 4,,15
  76              		.thumb
  77              		.thumb_func
  78              		.type	thread, %function
  79              	thread:
  80              	.LFB7:
  81              		.loc 1 71 0
  82              		.cfi_startproc
  83              		@ args = 0, pretend = 0, frame = 0
  84              		@ frame_needed = 0, uses_anonymous_args = 0
  85              	.LVL8:
  86 0000 08B5     		push	{r3, lr}
  87              	.LCFI1:
  88              		.cfi_def_cfa_offset 8
  89              		.cfi_offset 14, -4
  90              		.cfi_offset 3, -8
  91              		.loc 1 73 0
  92 0002 0078     		ldrb	r0, [r0, #0]	@ zero_extendqisi2
  93              	.LVL9:
  94 0004 FFF7FEFF 		bl	test_emit_token
  95              		.loc 1 75 0
  96 0008 0020     		movs	r0, #0
  97 000a 08BD     		pop	{r3, pc}
  98              		.cfi_endproc
  99              	.LFE7:
 100              		.size	thread, .-thread
 101 000c AFF30080 		.section	.text.dyn3_setup,"ax",%progbits
 102              		.align	2
 103              		.p2align 4,,15
 104              		.thumb
 105              		.thumb_func
 106              		.type	dyn3_setup, %function
 107              	dyn3_setup:
 108              	.LFB13:
 109              		.loc 1 203 0
 110              		.cfi_startproc
 111              		@ args = 0, pretend = 0, frame = 0
 112              		@ frame_needed = 0, uses_anonymous_args = 0
ARM GAS  /tmp/ccha5Aix.s 			page 3


 113              		@ link register save eliminated.
 114              		.loc 1 205 0
 115 0000 40F20000 		movw	r0, #:lower16:.LANCHOR0
 116 0004 40F20001 		movw	r1, #:lower16:test
 117 0008 C0F20001 		movt	r1, #:upper16:test
 118 000c C0F20000 		movt	r0, #:upper16:.LANCHOR0
 119 0010 4FF42562 		mov	r2, #2640
 120              		.loc 1 206 0
 121              		.loc 1 205 0
 122 0014 FFF7FEBF 		b	chHeapInit
 123              		.cfi_endproc
 124              	.LFE13:
 125              		.size	dyn3_setup, .-dyn3_setup
 126 0018 AFF30080 		.section	.text.dyn1_setup,"ax",%progbits
 126      AFF30080 
 127              		.align	2
 128              		.p2align 4,,15
 129              		.thumb
 130              		.thumb_func
 131              		.type	dyn1_setup, %function
 132              	dyn1_setup:
 133              	.LFB8:
 134              		.loc 1 78 0
 135              		.cfi_startproc
 136              		@ args = 0, pretend = 0, frame = 0
 137              		@ frame_needed = 0, uses_anonymous_args = 0
 138              		@ link register save eliminated.
 139              		.loc 1 80 0
 140 0000 40F20000 		movw	r0, #:lower16:.LANCHOR0
 141 0004 40F20001 		movw	r1, #:lower16:test
 142 0008 C0F20001 		movt	r1, #:upper16:test
 143 000c C0F20000 		movt	r0, #:upper16:.LANCHOR0
 144 0010 4FF42562 		mov	r2, #2640
 145              		.loc 1 81 0
 146              		.loc 1 80 0
 147 0014 FFF7FEBF 		b	chHeapInit
 148              		.cfi_endproc
 149              	.LFE8:
 150              		.size	dyn1_setup, .-dyn1_setup
 151 0018 AFF30080 		.section	.text.dyn2_execute,"ax",%progbits
 151      AFF30080 
 152              		.align	2
 153              		.p2align 4,,15
 154              		.thumb
 155              		.thumb_func
 156              		.type	dyn2_execute, %function
 157              	dyn2_execute:
 158              	.LFB11:
 159              		.loc 1 141 0
 160              		.cfi_startproc
 161              		@ args = 0, pretend = 0, frame = 0
 162              		@ frame_needed = 0, uses_anonymous_args = 0
 163              		.loc 1 143 0
 164 0000 4648     		ldr	r0, .L16
 165              		.loc 1 141 0
 166 0002 70B5     		push	{r4, r5, r6, lr}
 167              	.LCFI2:
ARM GAS  /tmp/ccha5Aix.s 			page 4


 168              		.cfi_def_cfa_offset 16
 169              		.cfi_offset 14, -4
 170              		.cfi_offset 6, -8
 171              		.cfi_offset 5, -12
 172              		.cfi_offset 4, -16
 173              		.loc 1 147 0
 174 0004 464C     		ldr	r4, .L16+4
 175              		.loc 1 143 0
 176 0006 8369     		ldr	r3, [r0, #24]
 177              		.loc 1 147 0
 178 0008 2168     		ldr	r1, [r4, #0]
 179 000a 4648     		ldr	r0, .L16+8
 180              		.loc 1 143 0
 181 000c 9D68     		ldr	r5, [r3, #8]
 182              	.LVL10:
 183              		.loc 1 147 0
 184 000e FFF7FEFF 		bl	chPoolFree
 185              	.LVL11:
 186 0012 6168     		ldr	r1, [r4, #4]
 187 0014 4348     		ldr	r0, .L16+8
 188 0016 FFF7FEFF 		bl	chPoolFree
 189              	.LVL12:
 190 001a A168     		ldr	r1, [r4, #8]
 191 001c 4148     		ldr	r0, .L16+8
 192 001e FFF7FEFF 		bl	chPoolFree
 193              	.LVL13:
 194 0022 E168     		ldr	r1, [r4, #12]
 195 0024 3F48     		ldr	r0, .L16+8
 196 0026 FFF7FEFF 		bl	chPoolFree
 197              	.LVL14:
 198              		.loc 1 150 0
 199 002a 691E     		subs	r1, r5, #1
 200 002c 3E4A     		ldr	r2, .L16+12
 201 002e 3F4B     		ldr	r3, .L16+16
 202 0030 3C48     		ldr	r0, .L16+8
 203 0032 FFF7FEFF 		bl	chThdCreateFromMemoryPool
 204 0036 3E4C     		ldr	r4, .L16+20
 205 0038 0646     		mov	r6, r0
 206              		.loc 1 151 0
 207 003a A91E     		subs	r1, r5, #2
 208 003c 3A4A     		ldr	r2, .L16+12
 209 003e 3D4B     		ldr	r3, .L16+24
 210              		.loc 1 150 0
 211 0040 2660     		str	r6, [r4, #0]
 212              		.loc 1 151 0
 213 0042 3848     		ldr	r0, .L16+8
 214 0044 FFF7FEFF 		bl	chThdCreateFromMemoryPool
 215 0048 0646     		mov	r6, r0
 216              		.loc 1 152 0
 217 004a E91E     		subs	r1, r5, #3
 218 004c 364A     		ldr	r2, .L16+12
 219 004e 3A4B     		ldr	r3, .L16+28
 220              		.loc 1 151 0
 221 0050 6660     		str	r6, [r4, #4]
 222              		.loc 1 152 0
 223 0052 3448     		ldr	r0, .L16+8
 224 0054 FFF7FEFF 		bl	chThdCreateFromMemoryPool
ARM GAS  /tmp/ccha5Aix.s 			page 5


 225 0058 0646     		mov	r6, r0
 226              		.loc 1 153 0
 227 005a 291F     		subs	r1, r5, #4
 228 005c 324A     		ldr	r2, .L16+12
 229 005e 374B     		ldr	r3, .L16+32
 230              		.loc 1 152 0
 231 0060 A660     		str	r6, [r4, #8]
 232              		.loc 1 153 0
 233 0062 3048     		ldr	r0, .L16+8
 234 0064 FFF7FEFF 		bl	chThdCreateFromMemoryPool
 235 0068 0646     		mov	r6, r0
 236              		.loc 1 154 0
 237 006a 691F     		subs	r1, r5, #5
 238 006c 2D48     		ldr	r0, .L16+8
 239 006e 2E4A     		ldr	r2, .L16+12
 240 0070 334B     		ldr	r3, .L16+36
 241              		.loc 1 153 0
 242 0072 E660     		str	r6, [r4, #12]
 243              		.loc 1 154 0
 244 0074 FFF7FEFF 		bl	chThdCreateFromMemoryPool
 245              		.loc 1 156 0
 246 0078 2168     		ldr	r1, [r4, #0]
 247              		.loc 1 154 0
 248 007a 2061     		str	r0, [r4, #16]
 249              		.loc 1 156 0
 250 007c 49B1     		cbz	r1, .L9
 251              		.loc 1 156 0 is_stmt 0 discriminator 1
 252 007e 6168     		ldr	r1, [r4, #4]
 253 0080 39B1     		cbz	r1, .L9
 254              		.loc 1 156 0 discriminator 3
 255 0082 A168     		ldr	r1, [r4, #8]
 256 0084 29B1     		cbz	r1, .L9
 257              		.loc 1 156 0 discriminator 4
 258 0086 E168     		ldr	r1, [r4, #12]
 259 0088 19B1     		cbz	r1, .L9
 260              		.loc 1 141 0 is_stmt 1 discriminator 5
 261 008a D0F10101 		rsbs	r1, r0, #1
 262 008e 38BF     		it	cc
 263 0090 0021     		movcc	r1, #0
 264              	.L9:
 265              		.loc 1 156 0 discriminator 7
 266 0092 0120     		movs	r0, #1
 267 0094 FFF7FEFF 		bl	_test_assert
 268 0098 00B1     		cbz	r0, .L15
 269              	.LVL15:
 270              	.L8:
 271 009a 70BD     		pop	{r4, r5, r6, pc}
 272              	.LVL16:
 273              	.L15:
 274              		.loc 1 164 0
 275 009c FFF7FEFF 		bl	test_wait_threads
 276              		.loc 1 165 0
 277 00a0 0220     		movs	r0, #2
 278 00a2 2849     		ldr	r1, .L16+40
 279 00a4 FFF7FEFF 		bl	_test_assert_sequence
 280 00a8 0028     		cmp	r0, #0
 281 00aa F6D1     		bne	.L8
ARM GAS  /tmp/ccha5Aix.s 			page 6


 282              		.loc 1 169 0
 283 00ac 1D48     		ldr	r0, .L16+8
 284 00ae FFF7FEFF 		bl	chPoolAlloc
 285 00b2 011C     		adds	r1, r0, #0
 286 00b4 18BF     		it	ne
 287 00b6 0121     		movne	r1, #1
 288 00b8 0320     		movs	r0, #3
 289 00ba FFF7FEFF 		bl	_test_assert
 290 00be 0028     		cmp	r0, #0
 291 00c0 EBD1     		bne	.L8
 292              	.LVL17:
 293 00c2 1848     		ldr	r0, .L16+8
 294 00c4 FFF7FEFF 		bl	chPoolAlloc
 295 00c8 011C     		adds	r1, r0, #0
 296 00ca 18BF     		it	ne
 297 00cc 0121     		movne	r1, #1
 298 00ce 0320     		movs	r0, #3
 299 00d0 FFF7FEFF 		bl	_test_assert
 300 00d4 0028     		cmp	r0, #0
 301 00d6 E0D1     		bne	.L8
 302 00d8 1248     		ldr	r0, .L16+8
 303 00da FFF7FEFF 		bl	chPoolAlloc
 304 00de 011C     		adds	r1, r0, #0
 305 00e0 18BF     		it	ne
 306 00e2 0121     		movne	r1, #1
 307 00e4 0320     		movs	r0, #3
 308 00e6 FFF7FEFF 		bl	_test_assert
 309 00ea 0028     		cmp	r0, #0
 310 00ec D5D1     		bne	.L8
 311 00ee 0D48     		ldr	r0, .L16+8
 312 00f0 FFF7FEFF 		bl	chPoolAlloc
 313 00f4 011C     		adds	r1, r0, #0
 314 00f6 18BF     		it	ne
 315 00f8 0121     		movne	r1, #1
 316 00fa 0320     		movs	r0, #3
 317 00fc FFF7FEFF 		bl	_test_assert
 318 0100 0028     		cmp	r0, #0
 319 0102 CAD1     		bne	.L8
 320              		.loc 1 170 0
 321 0104 0748     		ldr	r0, .L16+8
 322 0106 FFF7FEFF 		bl	chPoolAlloc
 323 010a D0F10101 		rsbs	r1, r0, #1
 324 010e 38BF     		it	cc
 325 0110 0021     		movcc	r1, #0
 326 0112 0420     		movs	r0, #4
 327              		.loc 1 171 0
 328 0114 BDE87040 		pop	{r4, r5, r6, lr}
 329              		.loc 1 170 0
 330 0118 FFF7FEBF 		b	_test_assert
 331              	.L17:
 332              		.align	2
 333              	.L16:
 334 011c 00000000 		.word	rlist
 335 0120 00000000 		.word	wa
 336 0124 00000000 		.word	.LANCHOR1
 337 0128 00000000 		.word	thread
 338 012c 00000000 		.word	.LC0
ARM GAS  /tmp/ccha5Aix.s 			page 7


 339 0130 00000000 		.word	threads
 340 0134 04000000 		.word	.LC1
 341 0138 08000000 		.word	.LC2
 342 013c 0C000000 		.word	.LC3
 343 0140 10000000 		.word	.LC4
 344 0144 14000000 		.word	.LC5
 345              		.cfi_endproc
 346              	.LFE11:
 347              		.size	dyn2_execute, .-dyn2_execute
 348 0148 AFF30080 		.section	.text.dyn2_setup,"ax",%progbits
 348      AFF30080 
 349              		.align	2
 350              		.p2align 4,,15
 351              		.thumb
 352              		.thumb_func
 353              		.type	dyn2_setup, %function
 354              	dyn2_setup:
 355              	.LFB10:
 356              		.loc 1 136 0
 357              		.cfi_startproc
 358              		@ args = 0, pretend = 0, frame = 0
 359              		@ frame_needed = 0, uses_anonymous_args = 0
 360              		@ link register save eliminated.
 361              		.loc 1 138 0
 362 0000 40F20000 		movw	r0, #:lower16:.LANCHOR1
 363 0004 C0F20000 		movt	r0, #:upper16:.LANCHOR1
 364 0008 4FF40471 		mov	r1, #528
 365 000c 0022     		movs	r2, #0
 366              		.loc 1 139 0
 367              		.loc 1 138 0
 368 000e FFF7FEBF 		b	chPoolInit
 369              		.cfi_endproc
 370              	.LFE10:
 371              		.size	dyn2_setup, .-dyn2_setup
 372 0012 00BFAFF3 		.section	.text.dyn1_execute,"ax",%progbits
 372      0080AFF3 
 372      0080AFF3 
 372      0080
 373              		.align	2
 374              		.p2align 4,,15
 375              		.thumb
 376              		.thumb_func
 377              		.type	dyn1_execute, %function
 378              	dyn1_execute:
 379              	.LFB9:
 380              		.loc 1 83 0
 381              		.cfi_startproc
 382              		@ args = 0, pretend = 0, frame = 8
 383              		@ frame_needed = 0, uses_anonymous_args = 0
 384 0000 70B5     		push	{r4, r5, r6, lr}
 385              	.LCFI3:
 386              		.cfi_def_cfa_offset 16
 387              		.cfi_offset 14, -4
 388              		.cfi_offset 6, -8
 389              		.cfi_offset 5, -12
 390              		.cfi_offset 4, -16
 391              		.loc 1 86 0
ARM GAS  /tmp/ccha5Aix.s 			page 8


 392 0002 3749     		ldr	r1, .L28
 393              		.loc 1 83 0
 394 0004 84B0     		sub	sp, sp, #16
 395              	.LCFI4:
 396              		.cfi_def_cfa_offset 32
 397              		.loc 1 86 0
 398 0006 8869     		ldr	r0, [r1, #24]
 399              		.loc 1 90 0
 400 0008 364E     		ldr	r6, .L28+4
 401              		.loc 1 86 0
 402 000a 8568     		ldr	r5, [r0, #8]
 403              	.LVL18:
 404              		.loc 1 88 0
 405 000c 03A9     		add	r1, sp, #12
 406              	.LVL19:
 407 000e 3648     		ldr	r0, .L28+8
 408 0010 FFF7FEFF 		bl	chHeapStatus
 409              	.LVL20:
 410              		.loc 1 90 0
 411 0014 6A1E     		subs	r2, r5, #1
 412 0016 4FF40471 		mov	r1, #528
 413 001a 344B     		ldr	r3, .L28+12
 414 001c 3248     		ldr	r0, .L28+8
 415 001e 0096     		str	r6, [sp, #0]
 416 0020 FFF7FEFF 		bl	chThdCreateFromHeap
 417 0024 324C     		ldr	r4, .L28+16
 418 0026 0646     		mov	r6, r0
 419 0028 2660     		str	r6, [r4, #0]
 420              		.loc 1 92 0
 421 002a 324E     		ldr	r6, .L28+20
 422 002c 2F4B     		ldr	r3, .L28+12
 423 002e AA1E     		subs	r2, r5, #2
 424 0030 4FF40471 		mov	r1, #528
 425 0034 2C48     		ldr	r0, .L28+8
 426 0036 0096     		str	r6, [sp, #0]
 427 0038 FFF7FEFF 		bl	chThdCreateFromHeap
 428              		.loc 1 95 0
 429 003c 02A9     		add	r1, sp, #8
 430              		.loc 1 92 0
 431 003e 0246     		mov	r2, r0
 432              		.loc 1 95 0
 433 0040 2948     		ldr	r0, .L28+8
 434              		.loc 1 92 0
 435 0042 6260     		str	r2, [r4, #4]
 436              		.loc 1 95 0
 437 0044 FFF7FEFF 		bl	chHeapStatus
 438              	.LVL21:
 439              		.loc 1 96 0
 440 0048 0299     		ldr	r1, [sp, #8]
 441 004a 2748     		ldr	r0, .L28+8
 442 004c FFF7FEFF 		bl	chHeapAlloc
 443              		.loc 1 97 0
 444 0050 EA1E     		subs	r2, r5, #3
 445 0052 294D     		ldr	r5, .L28+24
 446              	.LVL22:
 447 0054 4FF40471 		mov	r1, #528
 448              		.loc 1 96 0
ARM GAS  /tmp/ccha5Aix.s 			page 9


 449 0058 0646     		mov	r6, r0
 450              	.LVL23:
 451              		.loc 1 97 0
 452 005a 244B     		ldr	r3, .L28+12
 453 005c 2248     		ldr	r0, .L28+8
 454              	.LVL24:
 455 005e 0095     		str	r5, [sp, #0]
 456 0060 FFF7FEFF 		bl	chThdCreateFromHeap
 457              	.LVL25:
 458 0064 0346     		mov	r3, r0
 459              		.loc 1 99 0
 460 0066 3046     		mov	r0, r6
 461              		.loc 1 97 0
 462 0068 A360     		str	r3, [r4, #8]
 463              		.loc 1 99 0
 464 006a FFF7FEFF 		bl	chHeapFree
 465              		.loc 1 101 0
 466 006e 2168     		ldr	r1, [r4, #0]
 467 0070 29B1     		cbz	r1, .L20
 468              		.loc 1 101 0 is_stmt 0 discriminator 1
 469 0072 6168     		ldr	r1, [r4, #4]
 470 0074 19B1     		cbz	r1, .L20
 471              		.loc 1 101 0 discriminator 3
 472 0076 A168     		ldr	r1, [r4, #8]
 473 0078 0029     		cmp	r1, #0
 474 007a 28D0     		beq	.L26
 475              		.loc 1 101 0
 476 007c 0021     		movs	r1, #0
 477              	.L20:
 478              		.loc 1 101 0 discriminator 7
 479 007e 0120     		movs	r0, #1
 480 0080 FFF7FEFF 		bl	_test_assert
 481 0084 08B1     		cbz	r0, .L27
 482              	.LVL26:
 483              	.L19:
 484              		.loc 1 115 0 is_stmt 1
 485 0086 04B0     		add	sp, sp, #16
 486 0088 70BD     		pop	{r4, r5, r6, pc}
 487              	.LVL27:
 488              	.L27:
 489              		.loc 1 109 0
 490 008a FFF7FEFF 		bl	test_wait_threads
 491              		.loc 1 110 0
 492 008e 0220     		movs	r0, #2
 493 0090 1A49     		ldr	r1, .L28+28
 494 0092 FFF7FEFF 		bl	_test_assert_sequence
 495 0096 0028     		cmp	r0, #0
 496 0098 F5D1     		bne	.L19
 497              		.loc 1 113 0
 498 009a 02A9     		add	r1, sp, #8
 499 009c 1248     		ldr	r0, .L28+8
 500 009e FFF7FEFF 		bl	chHeapStatus
 501 00a2 A0F10101 		sub	r1, r0, #1
 502 00a6 4842     		rsbs	r0, r1, #0
 503 00a8 40EB0101 		adc	r1, r0, r1
 504 00ac 0320     		movs	r0, #3
 505 00ae FFF7FEFF 		bl	_test_assert
ARM GAS  /tmp/ccha5Aix.s 			page 10


 506 00b2 0028     		cmp	r0, #0
 507 00b4 E7D1     		bne	.L19
 508              		.loc 1 114 0
 509 00b6 0298     		ldr	r0, [sp, #8]
 510              	.LVL28:
 511 00b8 039B     		ldr	r3, [sp, #12]
 512 00ba C3EB000C 		rsb	ip, r3, r0
 513 00be DCF10002 		rsbs	r2, ip, #0
 514 00c2 42EB0C01 		adc	r1, r2, ip
 515 00c6 0420     		movs	r0, #4
 516 00c8 FFF7FEFF 		bl	_test_assert
 517 00cc DBE7     		b	.L19
 518              	.LVL29:
 519              	.L26:
 520              		.loc 1 101 0 discriminator 4
 521 00ce E368     		ldr	r3, [r4, #12]
 522 00d0 002B     		cmp	r3, #0
 523 00d2 D4D1     		bne	.L20
 524              		.loc 1 83 0 discriminator 5
 525 00d4 2269     		ldr	r2, [r4, #16]
 526 00d6 D2F10101 		rsbs	r1, r2, #1
 527 00da 38BF     		it	cc
 528 00dc 0021     		movcc	r1, #0
 529 00de CEE7     		b	.L20
 530              	.L29:
 531              		.align	2
 532              	.L28:
 533 00e0 00000000 		.word	rlist
 534 00e4 00000000 		.word	.LC0
 535 00e8 00000000 		.word	.LANCHOR0
 536 00ec 00000000 		.word	thread
 537 00f0 00000000 		.word	threads
 538 00f4 04000000 		.word	.LC1
 539 00f8 08000000 		.word	.LC2
 540 00fc 1C000000 		.word	.LC6
 541              		.cfi_endproc
 542              	.LFE9:
 543              		.size	dyn1_execute, .-dyn1_execute
 544              		.section	.text.dyn3_execute,"ax",%progbits
 545              		.align	2
 546              		.p2align 4,,15
 547              		.thumb
 548              		.thumb_func
 549              		.type	dyn3_execute, %function
 550              	dyn3_execute:
 551              	.LFB14:
 552              		.loc 1 208 0
 553              		.cfi_startproc
 554              		@ args = 0, pretend = 0, frame = 0
 555              		@ frame_needed = 0, uses_anonymous_args = 0
 556              	.LVL30:
 557              		.loc 1 210 0
 558 0000 5949     		ldr	r1, .L37
 559              		.loc 1 208 0
 560 0002 70B5     		push	{r4, r5, r6, lr}
 561              	.LCFI5:
 562              		.cfi_def_cfa_offset 16
ARM GAS  /tmp/ccha5Aix.s 			page 11


 563              		.cfi_offset 14, -4
 564              		.cfi_offset 6, -8
 565              		.cfi_offset 5, -12
 566              		.cfi_offset 4, -16
 567              		.loc 1 210 0
 568 0004 8A69     		ldr	r2, [r1, #24]
 569              		.loc 1 213 0
 570 0006 594C     		ldr	r4, .L37+4
 571 0008 9068     		ldr	r0, [r2, #8]
 572              		.loc 1 208 0
 573 000a 82B0     		sub	sp, sp, #8
 574              	.LCFI6:
 575              		.cfi_def_cfa_offset 24
 576              		.loc 1 213 0
 577 000c 421E     		subs	r2, r0, #1
 578 000e 4FF40471 		mov	r1, #528
 579 0012 574B     		ldr	r3, .L37+8
 580 0014 5748     		ldr	r0, .L37+12
 581 0016 0094     		str	r4, [sp, #0]
 582 0018 FFF7FEFF 		bl	chThdCreateFromHeap
 583              	.LVL31:
 584              		.loc 1 214 0
 585 001c 90F82230 		ldrb	r3, [r0, #34]	@ zero_extendqisi2
 586              		.loc 1 213 0
 587 0020 0446     		mov	r4, r0
 588              	.LVL32:
 589              		.loc 1 214 0
 590 0022 0120     		movs	r0, #1
 591              	.LVL33:
 592 0024 1A1A     		subs	r2, r3, r0
 593 0026 5142     		rsbs	r1, r2, #0
 594 0028 41EB0201 		adc	r1, r1, r2
 595 002c FFF7FEFF 		bl	_test_assert
 596 0030 08B1     		cbz	r0, .L36
 597              	.L30:
 598              		.loc 1 236 0
 599 0032 02B0     		add	sp, sp, #8
 600 0034 70BD     		pop	{r4, r5, r6, pc}
 601              	.L36:
 602              		.loc 1 215 0
 603 0036 2046     		mov	r0, r4
 604 0038 FFF7FEFF 		bl	chThdAddRef
 605              		.loc 1 216 0
 606 003c 94F82230 		ldrb	r3, [r4, #34]	@ zero_extendqisi2
 607 0040 0220     		movs	r0, #2
 608 0042 C0EB030C 		rsb	ip, r0, r3
 609 0046 DCF10002 		rsbs	r2, ip, #0
 610 004a 42EB0C01 		adc	r1, r2, ip
 611 004e FFF7FEFF 		bl	_test_assert
 612 0052 0028     		cmp	r0, #0
 613 0054 EDD1     		bne	.L30
 614              		.loc 1 217 0
 615 0056 2046     		mov	r0, r4
 616 0058 FFF7FEFF 		bl	chThdRelease
 617              		.loc 1 218 0
 618 005c 94F82220 		ldrb	r2, [r4, #34]	@ zero_extendqisi2
 619 0060 0320     		movs	r0, #3
ARM GAS  /tmp/ccha5Aix.s 			page 12


 620 0062 A2F10101 		sub	r1, r2, #1
 621 0066 4E42     		rsbs	r6, r1, #0
 622 0068 46EB0101 		adc	r1, r6, r1
 623 006c FFF7FEFF 		bl	_test_assert
 624 0070 0646     		mov	r6, r0
 625 0072 0028     		cmp	r0, #0
 626 0074 DDD1     		bne	.L30
 627              	.LVL34:
 628              	.LBB6:
 629              	.LBB7:
 630              		.loc 1 195 0
 631 0076 FFF7FEFF 		bl	chRegFirstThread
 632 007a 0546     		mov	r5, r0
 633              	.LVL35:
 634              	.L32:
 635              		.loc 1 198 0
 636 007c 2846     		mov	r0, r5
 637              	.LVL36:
 638 007e FFF7FEFF 		bl	chRegNextThread
 639              		.loc 1 197 0
 640 0082 AC42     		cmp	r4, r5
 641 0084 08BF     		it	eq
 642 0086 46F00106 		orreq	r6, r6, #1
 643              	.LVL37:
 644 008a F6B2     		uxtb	r6, r6
 645              	.LVL38:
 646              		.loc 1 198 0
 647 008c 0546     		mov	r5, r0
 648              	.LVL39:
 649              		.loc 1 199 0
 650 008e 0028     		cmp	r0, #0
 651 0090 F4D1     		bne	.L32
 652              	.LBE7:
 653              	.LBE6:
 654              		.loc 1 221 0
 655 0092 0420     		movs	r0, #4
 656              	.LVL40:
 657 0094 3146     		mov	r1, r6
 658 0096 FFF7FEFF 		bl	_test_assert
 659 009a 0028     		cmp	r0, #0
 660 009c C9D1     		bne	.L30
 661              	.LVL41:
 662              	.LBB8:
 663              	.LBB9:
 664              		.loc 1 195 0
 665 009e FFF7FEFF 		bl	chRegFirstThread
 666              	.LVL42:
 667              	.L33:
 668              		.loc 1 197 0
 669 00a2 8442     		cmp	r4, r0
 670 00a4 08BF     		it	eq
 671 00a6 45F00105 		orreq	r5, r5, #1
 672              	.LVL43:
 673 00aa EDB2     		uxtb	r5, r5
 674              	.LVL44:
 675              		.loc 1 198 0
 676 00ac FFF7FEFF 		bl	chRegNextThread
ARM GAS  /tmp/ccha5Aix.s 			page 13


 677              	.LVL45:
 678              		.loc 1 199 0
 679 00b0 0028     		cmp	r0, #0
 680 00b2 F6D1     		bne	.L33
 681              	.LBE9:
 682              	.LBE8:
 683              		.loc 1 222 0
 684 00b4 0520     		movs	r0, #5
 685              	.LVL46:
 686 00b6 2946     		mov	r1, r5
 687 00b8 FFF7FEFF 		bl	_test_assert
 688 00bc 0028     		cmp	r0, #0
 689 00be B8D1     		bne	.L30
 690              		.loc 1 225 0
 691 00c0 2046     		mov	r0, r4
 692 00c2 FFF7FEFF 		bl	chThdRelease
 693              		.loc 1 226 0
 694 00c6 94F82230 		ldrb	r3, [r4, #34]	@ zero_extendqisi2
 695 00ca 0620     		movs	r0, #6
 696 00cc D3F10101 		rsbs	r1, r3, #1
 697 00d0 38BF     		it	cc
 698 00d2 0021     		movcc	r1, #0
 699 00d4 FFF7FEFF 		bl	_test_assert
 700 00d8 0028     		cmp	r0, #0
 701 00da AAD1     		bne	.L30
 702              		.loc 1 227 0
 703 00dc 94F820E0 		ldrb	lr, [r4, #32]	@ zero_extendqisi2
 704 00e0 0720     		movs	r0, #7
 705 00e2 DEF10101 		rsbs	r1, lr, #1
 706 00e6 38BF     		it	cc
 707 00e8 0021     		movcc	r1, #0
 708 00ea FFF7FEFF 		bl	_test_assert
 709 00ee 0028     		cmp	r0, #0
 710 00f0 9FD1     		bne	.L30
 711              		.loc 1 228 0
 712 00f2 2046     		mov	r0, r4
 713 00f4 FFF7FEFF 		bl	regfind
 714 00f8 0146     		mov	r1, r0
 715 00fa 0820     		movs	r0, #8
 716 00fc FFF7FEFF 		bl	_test_assert
 717 0100 0028     		cmp	r0, #0
 718 0102 96D1     		bne	.L30
 719              		.loc 1 229 0
 720 0104 2046     		mov	r0, r4
 721 0106 FFF7FEFF 		bl	regfind
 722 010a 0146     		mov	r1, r0
 723 010c 0920     		movs	r0, #9
 724 010e FFF7FEFF 		bl	_test_assert
 725 0112 0028     		cmp	r0, #0
 726 0114 8DD1     		bne	.L30
 727              		.loc 1 230 0
 728 0116 3220     		movs	r0, #50
 729 0118 FFF7FEFF 		bl	chThdSleep
 730              		.loc 1 231 0
 731 011c 94F82020 		ldrb	r2, [r4, #32]	@ zero_extendqisi2
 732 0120 0A20     		movs	r0, #10
 733 0122 A2F10E01 		sub	r1, r2, #14
ARM GAS  /tmp/ccha5Aix.s 			page 14


 734 0126 D1F1000C 		rsbs	ip, r1, #0
 735 012a 4CEB0101 		adc	r1, ip, r1
 736 012e FFF7FEFF 		bl	_test_assert
 737 0132 0028     		cmp	r0, #0
 738 0134 7FF47DAF 		bne	.L30
 739              		.loc 1 234 0
 740 0138 2046     		mov	r0, r4
 741 013a FFF7FEFF 		bl	regfind
 742 013e 0146     		mov	r1, r0
 743 0140 0B20     		movs	r0, #11
 744 0142 FFF7FEFF 		bl	_test_assert
 745 0146 0028     		cmp	r0, #0
 746 0148 7FF473AF 		bne	.L30
 747              		.loc 1 235 0
 748 014c 2046     		mov	r0, r4
 749 014e FFF7FEFF 		bl	regfind
 750 0152 D0F10101 		rsbs	r1, r0, #1
 751 0156 38BF     		it	cc
 752 0158 0021     		movcc	r1, #0
 753 015a 0C20     		movs	r0, #12
 754              		.loc 1 236 0
 755 015c 02B0     		add	sp, sp, #8
 756 015e BDE87040 		pop	{r4, r5, r6, lr}
 757              		.loc 1 235 0
 758 0162 FFF7FEBF 		b	_test_assert
 759              	.L38:
 760 0166 00BF     		.align	2
 761              	.L37:
 762 0168 00000000 		.word	rlist
 763 016c 00000000 		.word	.LC0
 764 0170 00000000 		.word	thread
 765 0174 00000000 		.word	.LANCHOR0
 766              		.cfi_endproc
 767              	.LFE14:
 768              		.size	dyn3_execute, .-dyn3_execute
 769              		.global	patterndyn
 770              		.global	testdyn3
 771              		.global	testdyn2
 772              		.global	testdyn1
 773 0178 AFF30080 		.section	.rodata.testdyn1,"a",%progbits
 773      AFF30080 
 774              		.align	2
 775              		.type	testdyn1, %object
 776              		.size	testdyn1, 16
 777              	testdyn1:
 778 0000 78000000 		.word	.LC9
 779 0004 00000000 		.word	dyn1_setup
 780 0008 00000000 		.word	0
 781 000c 00000000 		.word	dyn1_execute
 782              		.section	.rodata.testdyn2,"a",%progbits
 783              		.align	2
 784              		.type	testdyn2, %object
 785              		.size	testdyn2, 16
 786              	testdyn2:
 787 0000 48000000 		.word	.LC8
 788 0004 00000000 		.word	dyn2_setup
 789 0008 00000000 		.word	0
ARM GAS  /tmp/ccha5Aix.s 			page 15


 790 000c 00000000 		.word	dyn2_execute
 791              		.section	.rodata.testdyn3,"a",%progbits
 792              		.align	2
 793              		.type	testdyn3, %object
 794              		.size	testdyn3, 16
 795              	testdyn3:
 796 0000 20000000 		.word	.LC7
 797 0004 00000000 		.word	dyn3_setup
 798 0008 00000000 		.word	0
 799 000c 00000000 		.word	dyn3_execute
 800              		.section	.bss.mp1,"aw",%nobits
 801              		.align	2
 802              		.set	.LANCHOR1,. + 0
 803              		.type	mp1, %object
 804              		.size	mp1, 12
 805              	mp1:
 806 0000 00000000 		.space	12
 806      00000000 
 806      00000000 
 807              		.section	.rodata.str1.4,"aMS",%progbits,1
 808              		.align	2
 809              	.LC0:
 810 0000 4100     		.ascii	"A\000"
 811 0002 0000     		.space	2
 812              	.LC1:
 813 0004 4200     		.ascii	"B\000"
 814 0006 0000     		.space	2
 815              	.LC2:
 816 0008 4300     		.ascii	"C\000"
 817 000a 0000     		.space	2
 818              	.LC3:
 819 000c 4400     		.ascii	"D\000"
 820 000e 0000     		.space	2
 821              	.LC4:
 822 0010 4500     		.ascii	"E\000"
 823 0012 0000     		.space	2
 824              	.LC5:
 825 0014 41424344 		.ascii	"ABCD\000"
 825      00
 826 0019 000000   		.space	3
 827              	.LC6:
 828 001c 414200   		.ascii	"AB\000"
 829 001f 00       		.space	1
 830              	.LC7:
 831 0020 44796E61 		.ascii	"Dynamic APIs, registry and references\000"
 831      6D696320 
 831      41504973 
 831      2C207265 
 831      67697374 
 832 0046 0000     		.space	2
 833              	.LC8:
 834 0048 44796E61 		.ascii	"Dynamic APIs, threads creation from memory pool\000"
 834      6D696320 
 834      41504973 
 834      2C207468 
 834      72656164 
 835              	.LC9:
ARM GAS  /tmp/ccha5Aix.s 			page 16


 836 0078 44796E61 		.ascii	"Dynamic APIs, threads creation from heap\000"
 836      6D696320 
 836      41504973 
 836      2C207468 
 836      72656164 
 837 00a1 000000   		.section	.rodata.patterndyn,"a",%progbits
 838              		.align	2
 839              		.type	patterndyn, %object
 840              		.size	patterndyn, 16
 841              	patterndyn:
 842 0000 00000000 		.word	testdyn1
 843 0004 00000000 		.word	testdyn2
 844 0008 00000000 		.word	testdyn3
 845 000c 00000000 		.word	0
 846              		.section	.bss.heap1,"aw",%nobits
 847              		.align	3
 848              		.set	.LANCHOR0,. + 0
 849              		.type	heap1, %object
 850              		.size	heap1, 32
 851              	heap1:
 852 0000 00000000 		.space	32
 852      00000000 
 852      00000000 
 852      00000000 
 852      00000000 
 853              		.text
 854              	.Letext0:
 855              		.file 2 "/home/tino/ChibiStudio/tools/GNU Tools ARM Embedded/4.6 2012q2/bin/../lib/gcc/arm-none-ea
 856              		.file 3 "/home/tino/ChibiStudio/tools/GNU Tools ARM Embedded/4.6 2012q2/bin/../lib/gcc/arm-none-ea
 857              		.file 4 "../../ChibiOS/os/ports/GCC/ARMCMx/chtypes.h"
 858              		.file 5 "../../ChibiOS/os/kernel/include/chlists.h"
 859              		.file 6 "../../ChibiOS/os/kernel/include/chthreads.h"
 860              		.file 7 "../../ChibiOS/os/ports/GCC/ARMCMx/chcore_v7m.h"
 861              		.file 8 "../../ChibiOS/os/kernel/include/chschd.h"
 862              		.file 9 "../../ChibiOS/os/kernel/include/chmtx.h"
 863              		.file 10 "../../ChibiOS/os/kernel/include/chmemcore.h"
 864              		.file 11 "../../ChibiOS/os/kernel/include/chheap.h"
 865              		.file 12 "../../ChibiOS/os/kernel/include/chmempools.h"
 866              		.file 13 "../../ChibiOS/test/test.h"