ARM GAS  /tmp/ccd0Hvab.s 			page 1


   1              		.syntax unified
   2              		.cpu cortex-m3
   3              		.fpu softvfp
   4              		.eabi_attribute 20, 1
   5              		.eabi_attribute 21, 1
   6              		.eabi_attribute 23, 3
   7              		.eabi_attribute 24, 1
   8              		.eabi_attribute 25, 1
   9              		.eabi_attribute 26, 1
  10              		.eabi_attribute 30, 2
  11              		.eabi_attribute 34, 1
  12              		.eabi_attribute 18, 4
  13              		.thumb
  14              		.file	"testmbox.c"
  15              		.text
  16              	.Ltext0:
  17              		.cfi_sections	.debug_frame
  18              		.section	.text.mbox1_setup,"ax",%progbits
  19              		.align	2
  20              		.p2align 4,,15
  21              		.thumb
  22              		.thumb_func
  23              		.type	mbox1_setup, %function
  24              	mbox1_setup:
  25              	.LFB7:
  26              		.file 1 "../../ChibiOS/test/testmbox.c"
  27              		.loc 1 71 0
  28              		.cfi_startproc
  29              		@ args = 0, pretend = 0, frame = 0
  30              		@ frame_needed = 0, uses_anonymous_args = 0
  31              		@ link register save eliminated.
  32              		.loc 1 73 0
  33 0000 40F20000 		movw	r0, #:lower16:.LANCHOR0
  34 0004 40F20001 		movw	r1, #:lower16:test
  35 0008 C0F20001 		movt	r1, #:upper16:test
  36 000c C0F20000 		movt	r0, #:upper16:.LANCHOR0
  37 0010 0522     		movs	r2, #5
  38              		.loc 1 74 0
  39              		.loc 1 73 0
  40 0012 FFF7FEBF 		b	chMBInit
  41              		.cfi_endproc
  42              	.LFE7:
  43              		.size	mbox1_setup, .-mbox1_setup
  44 0016 00BFAFF3 		.section	.text.mbox1_execute,"ax",%progbits
  44      0080AFF3 
  44      0080
  45              		.align	2
  46              		.p2align 4,,15
  47              		.thumb
  48              		.thumb_func
  49              		.type	mbox1_execute, %function
  50              	mbox1_execute:
  51              	.LFB8:
  52              		.loc 1 76 0
  53              		.cfi_startproc
  54              		@ args = 0, pretend = 0, frame = 8
  55              		@ frame_needed = 0, uses_anonymous_args = 0
ARM GAS  /tmp/ccd0Hvab.s 			page 2


  56 0000 70B5     		push	{r4, r5, r6, lr}
  57              	.LCFI0:
  58              		.cfi_def_cfa_offset 16
  59              		.cfi_offset 14, -4
  60              		.cfi_offset 6, -8
  61              		.cfi_offset 5, -12
  62              		.cfi_offset 4, -16
  63              		.loc 1 83 0
  64 0002 2A4C     		ldr	r4, .L27
  65 0004 0120     		movs	r0, #1
  66 0006 626A     		ldr	r2, [r4, #36]
  67              		.loc 1 76 0
  68 0008 82B0     		sub	sp, sp, #8
  69              	.LCFI1:
  70              		.cfi_def_cfa_offset 24
  71              		.loc 1 83 0
  72 000a A2F10503 		sub	r3, r2, #5
  73 000e 5942     		rsbs	r1, r3, #0
  74 0010 41EB0301 		adc	r1, r1, r3
  75 0014 FFF7FEFF 		bl	_test_assert
  76 0018 0028     		cmp	r0, #0
  77 001a 45D1     		bne	.L2
  78              		.loc 1 89 0
  79 001c 4221     		movs	r1, #66
  80 001e 4FF0FF32 		mov	r2, #-1
  81 0022 2046     		mov	r0, r4
  82 0024 FFF7FEFF 		bl	chMBPost
  83              	.LVL0:
  84              		.loc 1 90 0
  85 0028 D0F10101 		rsbs	r1, r0, #1
  86 002c 38BF     		it	cc
  87 002e 0021     		movcc	r1, #0
  88 0030 0220     		movs	r0, #2
  89              	.LVL1:
  90 0032 FFF7FEFF 		bl	_test_assert
  91 0036 B8BB     		cbnz	r0, .L2
  92              	.LVL2:
  93              		.loc 1 89 0
  94 0038 4321     		movs	r1, #67
  95 003a 4FF0FF32 		mov	r2, #-1
  96 003e 2046     		mov	r0, r4
  97 0040 FFF7FEFF 		bl	chMBPost
  98              	.LVL3:
  99              		.loc 1 90 0
 100 0044 D0F10101 		rsbs	r1, r0, #1
 101 0048 38BF     		it	cc
 102 004a 0021     		movcc	r1, #0
 103 004c 0220     		movs	r0, #2
 104              	.LVL4:
 105 004e FFF7FEFF 		bl	_test_assert
 106 0052 48BB     		cbnz	r0, .L2
 107              	.LVL5:
 108              		.loc 1 89 0
 109 0054 4421     		movs	r1, #68
 110 0056 4FF0FF32 		mov	r2, #-1
 111 005a 2046     		mov	r0, r4
 112 005c FFF7FEFF 		bl	chMBPost
ARM GAS  /tmp/ccd0Hvab.s 			page 3


 113              	.LVL6:
 114              		.loc 1 90 0
 115 0060 D0F10101 		rsbs	r1, r0, #1
 116 0064 38BF     		it	cc
 117 0066 0021     		movcc	r1, #0
 118 0068 0220     		movs	r0, #2
 119              	.LVL7:
 120 006a FFF7FEFF 		bl	_test_assert
 121 006e D8B9     		cbnz	r0, .L2
 122              	.LVL8:
 123              		.loc 1 89 0
 124 0070 4521     		movs	r1, #69
 125 0072 4FF0FF32 		mov	r2, #-1
 126 0076 2046     		mov	r0, r4
 127 0078 FFF7FEFF 		bl	chMBPost
 128              	.LVL9:
 129              		.loc 1 90 0
 130 007c D0F10101 		rsbs	r1, r0, #1
 131 0080 38BF     		it	cc
 132 0082 0021     		movcc	r1, #0
 133 0084 0220     		movs	r0, #2
 134              	.LVL10:
 135 0086 FFF7FEFF 		bl	_test_assert
 136 008a 68B9     		cbnz	r0, .L2
 137              	.LVL11:
 138              		.loc 1 92 0
 139 008c 4121     		movs	r1, #65
 140 008e 4FF0FF32 		mov	r2, #-1
 141 0092 2046     		mov	r0, r4
 142 0094 FFF7FEFF 		bl	chMBPostAhead
 143              	.LVL12:
 144              		.loc 1 93 0
 145 0098 D0F10101 		rsbs	r1, r0, #1
 146 009c 38BF     		it	cc
 147 009e 0021     		movcc	r1, #0
 148 00a0 0320     		movs	r0, #3
 149              	.LVL13:
 150 00a2 FFF7FEFF 		bl	_test_assert
 151 00a6 18B1     		cbz	r0, .L26
 152              	.LVL14:
 153              	.L2:
 154              		.loc 1 220 0
 155 00a8 02B0     		add	sp, sp, #8
 156 00aa 70BD     		pop	{r4, r5, r6, pc}
 157              	.L28:
 158              		.align	2
 159              	.L27:
 160 00ac 00000000 		.word	.LANCHOR0
 161              	.LVL15:
 162              	.L26:
 163              	.LBB116:
 164              	.LBB117:
 165              		.loc 1 98 0
 166 00b0 5821     		movs	r1, #88
 167 00b2 0122     		movs	r2, #1
 168 00b4 2046     		mov	r0, r4
 169 00b6 FFF7FEFF 		bl	chMBPost
ARM GAS  /tmp/ccd0Hvab.s 			page 4


 170              	.LVL16:
 171              		.loc 1 99 0
 172 00ba A0F1FF35 		sub	r5, r0, #-1
 173 00be 6842     		rsbs	r0, r5, #0
 174              	.LVL17:
 175 00c0 40EB0501 		adc	r1, r0, r5
 176 00c4 0420     		movs	r0, #4
 177 00c6 FFF7FEFF 		bl	_test_assert
 178 00ca 0546     		mov	r5, r0
 179              	.LVL18:
 180 00cc 0028     		cmp	r0, #0
 181 00ce EBD1     		bne	.L2
 182              	.LBB118:
 183              		.loc 1 100 0
 184 00d0 2023     		movs	r3, #32
 185              	.LVL19:
 186              	@ 100 "../../ChibiOS/test/testmbox.c" 1
 187 00d2 83F31188 		msr     BASEPRI, r3
 188              	@ 0 "" 2
 189              	.LVL20:
 190              		.thumb
 191              	.LBE118:
 192 00d6 FFF7FEFF 		bl	dbg_check_lock
 193              	.LVL21:
 194              		.loc 1 101 0
 195 00da 5821     		movs	r1, #88
 196 00dc 2046     		mov	r0, r4
 197 00de FFF7FEFF 		bl	chMBPostI
 198 00e2 0646     		mov	r6, r0
 199              	.LVL22:
 200              		.loc 1 102 0
 201 00e4 FFF7FEFF 		bl	dbg_check_unlock
 202              	.LVL23:
 203              	.LBB119:
 204 00e8 2B46     		mov	r3, r5
 205              	.LVL24:
 206              	@ 102 "../../ChibiOS/test/testmbox.c" 1
 207 00ea 83F31188 		msr     BASEPRI, r3
 208              	@ 0 "" 2
 209              	.LVL25:
 210              		.thumb
 211              	.LBE119:
 212              		.loc 1 103 0
 213 00ee A6F1FF31 		sub	r1, r6, #-1
 214 00f2 D1F1000C 		rsbs	ip, r1, #0
 215 00f6 4CEB0101 		adc	r1, ip, r1
 216 00fa 0520     		movs	r0, #5
 217 00fc FFF7FEFF 		bl	_test_assert
 218              	.LVL26:
 219 0100 0028     		cmp	r0, #0
 220 0102 D1D1     		bne	.L2
 221              		.loc 1 104 0
 222 0104 5821     		movs	r1, #88
 223 0106 0122     		movs	r2, #1
 224 0108 2046     		mov	r0, r4
 225 010a FFF7FEFF 		bl	chMBPostAhead
 226              	.LVL27:
ARM GAS  /tmp/ccd0Hvab.s 			page 5


 227              		.loc 1 105 0
 228 010e A0F1FF32 		sub	r2, r0, #-1
 229 0112 5342     		rsbs	r3, r2, #0
 230 0114 43EB0201 		adc	r1, r3, r2
 231 0118 0620     		movs	r0, #6
 232              	.LVL28:
 233 011a FFF7FEFF 		bl	_test_assert
 234              	.LVL29:
 235 011e 0546     		mov	r5, r0
 236 0120 0028     		cmp	r0, #0
 237 0122 C1D1     		bne	.L2
 238              	.LBB120:
 239              		.loc 1 106 0
 240 0124 2023     		movs	r3, #32
 241              	.LVL30:
 242              	@ 106 "../../ChibiOS/test/testmbox.c" 1
 243 0126 83F31188 		msr     BASEPRI, r3
 244              	@ 0 "" 2
 245              	.LVL31:
 246              		.thumb
 247              	.LBE120:
 248 012a FFF7FEFF 		bl	dbg_check_lock
 249              	.LVL32:
 250              		.loc 1 107 0
 251 012e 5821     		movs	r1, #88
 252 0130 2046     		mov	r0, r4
 253 0132 FFF7FEFF 		bl	chMBPostAheadI
 254 0136 0646     		mov	r6, r0
 255              	.LVL33:
 256              		.loc 1 108 0
 257 0138 FFF7FEFF 		bl	dbg_check_unlock
 258              	.LVL34:
 259              	.LBB121:
 260 013c 2B46     		mov	r3, r5
 261              	.LVL35:
 262              	@ 108 "../../ChibiOS/test/testmbox.c" 1
 263 013e 83F31188 		msr     BASEPRI, r3
 264              	@ 0 "" 2
 265              	.LVL36:
 266              		.thumb
 267              	.LBE121:
 268              		.loc 1 109 0
 269 0142 A6F1FF30 		sub	r0, r6, #-1
 270 0146 D0F1000C 		rsbs	ip, r0, #0
 271 014a 4CEB0001 		adc	r1, ip, r0
 272 014e 0720     		movs	r0, #7
 273 0150 FFF7FEFF 		bl	_test_assert
 274              	.LVL37:
 275 0154 0028     		cmp	r0, #0
 276 0156 A7D1     		bne	.L2
 277              	.LBB122:
 278              		.loc 1 114 0
 279 0158 2023     		movs	r3, #32
 280              	.LVL38:
 281              	@ 114 "../../ChibiOS/test/testmbox.c" 1
 282 015a 83F31188 		msr     BASEPRI, r3
 283              	@ 0 "" 2
ARM GAS  /tmp/ccd0Hvab.s 			page 6


 284              	.LVL39:
 285              		.thumb
 286              	.LBE122:
 287 015e FFF7FEFF 		bl	dbg_check_lock
 288              	.LVL40:
 289 0162 666A     		ldr	r6, [r4, #36]
 290              	.LVL41:
 291 0164 0820     		movs	r0, #8
 292 0166 D6F10101 		rsbs	r1, r6, #1
 293 016a 38BF     		it	cc
 294 016c 0021     		movcc	r1, #0
 295 016e FFF7FEFF 		bl	_test_assert
 296 0172 0646     		mov	r6, r0
 297 0174 0028     		cmp	r0, #0
 298 0176 40F01D83 		bne	.L19
 299 017a FFF7FEFF 		bl	dbg_check_unlock
 300              	.LBB123:
 301 017e 3346     		mov	r3, r6
 302              	.LVL42:
 303              	@ 114 "../../ChibiOS/test/testmbox.c" 1
 304 0180 83F31188 		msr     BASEPRI, r3
 305              	@ 0 "" 2
 306              	.LVL43:
 307              		.thumb
 308              	.LBE123:
 309              	.LBB124:
 310              		.loc 1 115 0
 311 0184 2023     		movs	r3, #32
 312              	.LVL44:
 313              	@ 115 "../../ChibiOS/test/testmbox.c" 1
 314 0186 83F31188 		msr     BASEPRI, r3
 315              	@ 0 "" 2
 316              	.LVL45:
 317              		.thumb
 318              	.LBE124:
 319 018a FFF7FEFF 		bl	dbg_check_lock
 320              	.LVL46:
 321 018e A369     		ldr	r3, [r4, #24]
 322 0190 0920     		movs	r0, #9
 323 0192 A3F10501 		sub	r1, r3, #5
 324 0196 4D42     		rsbs	r5, r1, #0
 325 0198 45EB0101 		adc	r1, r5, r1
 326 019c FFF7FEFF 		bl	_test_assert
 327 01a0 0546     		mov	r5, r0
 328 01a2 0028     		cmp	r0, #0
 329 01a4 40F00C83 		bne	.L23
 330 01a8 FFF7FEFF 		bl	dbg_check_unlock
 331              	.LBB125:
 332 01ac 2B46     		mov	r3, r5
 333              	.LVL47:
 334              	@ 115 "../../ChibiOS/test/testmbox.c" 1
 335 01ae 83F31188 		msr     BASEPRI, r3
 336              	@ 0 "" 2
 337              	.LVL48:
 338              		.thumb
 339              	.LBE125:
 340              	.LBB126:
ARM GAS  /tmp/ccd0Hvab.s 			page 7


 341              		.loc 1 116 0
 342 01b2 2023     		movs	r3, #32
 343              	.LVL49:
 344              	@ 116 "../../ChibiOS/test/testmbox.c" 1
 345 01b4 83F31188 		msr     BASEPRI, r3
 346              	@ 0 "" 2
 347              	.LVL50:
 348              		.thumb
 349              	.LBE126:
 350 01b8 FFF7FEFF 		bl	dbg_check_lock
 351              	.LVL51:
 352 01bc E168     		ldr	r1, [r4, #12]
 353 01be A368     		ldr	r3, [r4, #8]
 354 01c0 0A20     		movs	r0, #10
 355 01c2 CE1A     		subs	r6, r1, r3
 356 01c4 7242     		rsbs	r2, r6, #0
 357 01c6 42EB0601 		adc	r1, r2, r6
 358 01ca FFF7FEFF 		bl	_test_assert
 359 01ce 0646     		mov	r6, r0
 360 01d0 0028     		cmp	r0, #0
 361 01d2 40F0FB82 		bne	.L24
 362 01d6 FFF7FEFF 		bl	dbg_check_unlock
 363              	.LBB127:
 364 01da 3346     		mov	r3, r6
 365              	.LVL52:
 366              	@ 116 "../../ChibiOS/test/testmbox.c" 1
 367 01dc 83F31188 		msr     BASEPRI, r3
 368              	@ 0 "" 2
 369              	.LVL53:
 370              		.thumb
 371              	.LBE127:
 372              		.loc 1 122 0
 373 01e0 4FF0FF32 		mov	r2, #-1
 374 01e4 01A9     		add	r1, sp, #4
 375 01e6 2046     		mov	r0, r4
 376 01e8 FFF7FEFF 		bl	chMBFetch
 377              	.LVL54:
 378              		.loc 1 123 0
 379 01ec D0F10101 		rsbs	r1, r0, #1
 380 01f0 38BF     		it	cc
 381 01f2 0021     		movcc	r1, #0
 382 01f4 0B20     		movs	r0, #11
 383              	.LVL55:
 384 01f6 FFF7FEFF 		bl	_test_assert
 385 01fa 0028     		cmp	r0, #0
 386 01fc 7FF454AF 		bne	.L2
 387              	.LVL56:
 388              		.loc 1 124 0
 389 0200 9DF80400 		ldrb	r0, [sp, #4]	@ zero_extendqisi2
 390 0204 FFF7FEFF 		bl	test_emit_token
 391              	.LVL57:
 392              		.loc 1 122 0
 393 0208 01A9     		add	r1, sp, #4
 394 020a 2046     		mov	r0, r4
 395 020c 4FF0FF32 		mov	r2, #-1
 396 0210 FFF7FEFF 		bl	chMBFetch
 397              	.LVL58:
ARM GAS  /tmp/ccd0Hvab.s 			page 8


 398              		.loc 1 123 0
 399 0214 D0F10101 		rsbs	r1, r0, #1
 400 0218 38BF     		it	cc
 401 021a 0021     		movcc	r1, #0
 402 021c 0B20     		movs	r0, #11
 403              	.LVL59:
 404 021e FFF7FEFF 		bl	_test_assert
 405 0222 0028     		cmp	r0, #0
 406 0224 7FF440AF 		bne	.L2
 407              		.loc 1 124 0
 408 0228 9DF80400 		ldrb	r0, [sp, #4]	@ zero_extendqisi2
 409 022c FFF7FEFF 		bl	test_emit_token
 410              		.loc 1 122 0
 411 0230 01A9     		add	r1, sp, #4
 412 0232 2046     		mov	r0, r4
 413 0234 4FF0FF32 		mov	r2, #-1
 414 0238 FFF7FEFF 		bl	chMBFetch
 415              	.LVL60:
 416              		.loc 1 123 0
 417 023c D0F10101 		rsbs	r1, r0, #1
 418 0240 38BF     		it	cc
 419 0242 0021     		movcc	r1, #0
 420 0244 0B20     		movs	r0, #11
 421              	.LVL61:
 422 0246 FFF7FEFF 		bl	_test_assert
 423 024a 0028     		cmp	r0, #0
 424 024c 7FF42CAF 		bne	.L2
 425              		.loc 1 124 0
 426 0250 9DF80400 		ldrb	r0, [sp, #4]	@ zero_extendqisi2
 427 0254 FFF7FEFF 		bl	test_emit_token
 428              		.loc 1 122 0
 429 0258 01A9     		add	r1, sp, #4
 430 025a 2046     		mov	r0, r4
 431 025c 4FF0FF32 		mov	r2, #-1
 432 0260 FFF7FEFF 		bl	chMBFetch
 433              	.LVL62:
 434              		.loc 1 123 0
 435 0264 D0F10101 		rsbs	r1, r0, #1
 436 0268 38BF     		it	cc
 437 026a 0021     		movcc	r1, #0
 438 026c 0B20     		movs	r0, #11
 439              	.LVL63:
 440 026e FFF7FEFF 		bl	_test_assert
 441 0272 0028     		cmp	r0, #0
 442 0274 7FF418AF 		bne	.L2
 443              		.loc 1 124 0
 444 0278 9DF80400 		ldrb	r0, [sp, #4]	@ zero_extendqisi2
 445 027c FFF7FEFF 		bl	test_emit_token
 446              		.loc 1 122 0
 447 0280 01A9     		add	r1, sp, #4
 448 0282 2046     		mov	r0, r4
 449 0284 4FF0FF32 		mov	r2, #-1
 450 0288 FFF7FEFF 		bl	chMBFetch
 451              	.LVL64:
 452              		.loc 1 123 0
 453 028c D0F10101 		rsbs	r1, r0, #1
 454 0290 38BF     		it	cc
ARM GAS  /tmp/ccd0Hvab.s 			page 9


 455 0292 0021     		movcc	r1, #0
 456 0294 0B20     		movs	r0, #11
 457              	.LVL65:
 458 0296 FFF7FEFF 		bl	_test_assert
 459 029a 0028     		cmp	r0, #0
 460 029c 7FF404AF 		bne	.L2
 461              		.loc 1 124 0
 462 02a0 9DF80400 		ldrb	r0, [sp, #4]	@ zero_extendqisi2
 463 02a4 FFF7FEFF 		bl	test_emit_token
 464              		.loc 1 126 0
 465 02a8 0C20     		movs	r0, #12
 466 02aa CA49     		ldr	r1, .L29
 467 02ac FFF7FEFF 		bl	_test_assert_sequence
 468 02b0 0028     		cmp	r0, #0
 469 02b2 7FF4F9AE 		bne	.L2
 470              		.loc 1 131 0
 471 02b6 4721     		movs	r1, #71
 472 02b8 4FF0FF32 		mov	r2, #-1
 473 02bc 2046     		mov	r0, r4
 474 02be FFF7FEFF 		bl	chMBPost
 475              	.LVL66:
 476              		.loc 1 132 0
 477 02c2 D0F10101 		rsbs	r1, r0, #1
 478 02c6 38BF     		it	cc
 479 02c8 0021     		movcc	r1, #0
 480 02ca 0D20     		movs	r0, #13
 481              	.LVL67:
 482 02cc FFF7FEFF 		bl	_test_assert
 483 02d0 0028     		cmp	r0, #0
 484 02d2 7FF4E9AE 		bne	.L2
 485              		.loc 1 133 0
 486 02d6 C04C     		ldr	r4, .L29+4
 487 02d8 01A9     		add	r1, sp, #4
 488 02da 4FF0FF32 		mov	r2, #-1
 489 02de 2046     		mov	r0, r4
 490 02e0 FFF7FEFF 		bl	chMBFetch
 491              	.LVL68:
 492              		.loc 1 134 0
 493 02e4 D0F10101 		rsbs	r1, r0, #1
 494 02e8 38BF     		it	cc
 495 02ea 0021     		movcc	r1, #0
 496 02ec 0E20     		movs	r0, #14
 497              	.LVL69:
 498 02ee FFF7FEFF 		bl	_test_assert
 499 02f2 0028     		cmp	r0, #0
 500 02f4 7FF4D8AE 		bne	.L2
 501              		.loc 1 135 0
 502 02f8 2168     		ldr	r1, [r4, #0]
 503 02fa A268     		ldr	r2, [r4, #8]
 504 02fc 0F20     		movs	r0, #15
 505 02fe 8B1A     		subs	r3, r1, r2
 506 0300 5A42     		rsbs	r2, r3, #0
 507 0302 42EB0301 		adc	r1, r2, r3
 508 0306 FFF7FEFF 		bl	_test_assert
 509 030a 0028     		cmp	r0, #0
 510 030c 7FF4CCAE 		bne	.L2
 511              		.loc 1 136 0
ARM GAS  /tmp/ccd0Hvab.s 			page 10


 512 0310 E368     		ldr	r3, [r4, #12]
 513 0312 2268     		ldr	r2, [r4, #0]
 514 0314 1020     		movs	r0, #16
 515 0316 D11A     		subs	r1, r2, r3
 516 0318 4B42     		rsbs	r3, r1, #0
 517 031a 43EB0101 		adc	r1, r3, r1
 518 031e FFF7FEFF 		bl	_test_assert
 519 0322 0028     		cmp	r0, #0
 520 0324 7FF4C0AE 		bne	.L2
 521              		.loc 1 141 0
 522 0328 0122     		movs	r2, #1
 523 032a 01A9     		add	r1, sp, #4
 524 032c 2046     		mov	r0, r4
 525 032e FFF7FEFF 		bl	chMBFetch
 526              	.LVL70:
 527              		.loc 1 142 0
 528 0332 A0F1FF3C 		sub	ip, r0, #-1
 529 0336 DCF10005 		rsbs	r5, ip, #0
 530 033a 45EB0C01 		adc	r1, r5, ip
 531 033e 1120     		movs	r0, #17
 532              	.LVL71:
 533 0340 FFF7FEFF 		bl	_test_assert
 534              	.LVL72:
 535 0344 0546     		mov	r5, r0
 536 0346 0028     		cmp	r0, #0
 537 0348 7FF4AEAE 		bne	.L2
 538              	.LBB128:
 539              		.loc 1 143 0
 540 034c 2023     		movs	r3, #32
 541              	.LVL73:
 542              	@ 143 "../../ChibiOS/test/testmbox.c" 1
 543 034e 83F31188 		msr     BASEPRI, r3
 544              	@ 0 "" 2
 545              	.LVL74:
 546              		.thumb
 547              	.LBE128:
 548 0352 FFF7FEFF 		bl	dbg_check_lock
 549              	.LVL75:
 550              		.loc 1 144 0
 551 0356 01A9     		add	r1, sp, #4
 552 0358 2046     		mov	r0, r4
 553 035a FFF7FEFF 		bl	chMBFetchI
 554 035e 0646     		mov	r6, r0
 555              	.LVL76:
 556              		.loc 1 145 0
 557 0360 FFF7FEFF 		bl	dbg_check_unlock
 558              	.LVL77:
 559              	.LBB129:
 560 0364 2B46     		mov	r3, r5
 561              	.LVL78:
 562              	@ 145 "../../ChibiOS/test/testmbox.c" 1
 563 0366 83F31188 		msr     BASEPRI, r3
 564              	@ 0 "" 2
 565              	.LVL79:
 566              		.thumb
 567              	.LBE129:
 568              		.loc 1 146 0
ARM GAS  /tmp/ccd0Hvab.s 			page 11


 569 036a A6F1FF31 		sub	r1, r6, #-1
 570 036e 4842     		rsbs	r0, r1, #0
 571 0370 40EB0101 		adc	r1, r0, r1
 572 0374 1220     		movs	r0, #18
 573 0376 FFF7FEFF 		bl	_test_assert
 574              	.LVL80:
 575 037a 0546     		mov	r5, r0
 576 037c 0028     		cmp	r0, #0
 577 037e 7FF493AE 		bne	.L2
 578              	.LBB130:
 579              		.loc 1 151 0
 580 0382 2023     		movs	r3, #32
 581              	.LVL81:
 582              	@ 151 "../../ChibiOS/test/testmbox.c" 1
 583 0384 83F31188 		msr     BASEPRI, r3
 584              	@ 0 "" 2
 585              	.LVL82:
 586              		.thumb
 587              	.LBE130:
 588 0388 FFF7FEFF 		bl	dbg_check_lock
 589              	.LVL83:
 590 038c 636A     		ldr	r3, [r4, #36]
 591 038e 1320     		movs	r0, #19
 592 0390 A3F10502 		sub	r2, r3, #5
 593 0394 5642     		rsbs	r6, r2, #0
 594              	.LVL84:
 595 0396 46EB0201 		adc	r1, r6, r2
 596 039a FFF7FEFF 		bl	_test_assert
 597 039e 0646     		mov	r6, r0
 598 03a0 0028     		cmp	r0, #0
 599 03a2 40F01382 		bne	.L24
 600 03a6 FFF7FEFF 		bl	dbg_check_unlock
 601              	.LBB131:
 602 03aa 3346     		mov	r3, r6
 603              	.LVL85:
 604              	@ 151 "../../ChibiOS/test/testmbox.c" 1
 605 03ac 83F31188 		msr     BASEPRI, r3
 606              	@ 0 "" 2
 607              	.LVL86:
 608              		.thumb
 609              	.LBE131:
 610              	.LBB132:
 611              		.loc 1 152 0
 612 03b0 2023     		movs	r3, #32
 613              	.LVL87:
 614              	@ 152 "../../ChibiOS/test/testmbox.c" 1
 615 03b2 83F31188 		msr     BASEPRI, r3
 616              	@ 0 "" 2
 617              	.LVL88:
 618              		.thumb
 619              	.LBE132:
 620 03b6 FFF7FEFF 		bl	dbg_check_lock
 621              	.LVL89:
 622 03ba A569     		ldr	r5, [r4, #24]
 623 03bc 1420     		movs	r0, #20
 624 03be D5F10101 		rsbs	r1, r5, #1
 625 03c2 38BF     		it	cc
ARM GAS  /tmp/ccd0Hvab.s 			page 12


 626 03c4 0021     		movcc	r1, #0
 627 03c6 FFF7FEFF 		bl	_test_assert
 628 03ca 0546     		mov	r5, r0
 629 03cc 0028     		cmp	r0, #0
 630 03ce 40F0F781 		bne	.L23
 631 03d2 FFF7FEFF 		bl	dbg_check_unlock
 632              	.LBB133:
 633 03d6 2B46     		mov	r3, r5
 634              	.LVL90:
 635              	@ 152 "../../ChibiOS/test/testmbox.c" 1
 636 03d8 83F31188 		msr     BASEPRI, r3
 637              	@ 0 "" 2
 638              	.LVL91:
 639              		.thumb
 640              	.LBE133:
 641              	.LBB134:
 642              		.loc 1 153 0
 643 03dc 2023     		movs	r3, #32
 644              	.LVL92:
 645              	@ 153 "../../ChibiOS/test/testmbox.c" 1
 646 03de 83F31188 		msr     BASEPRI, r3
 647              	@ 0 "" 2
 648              	.LVL93:
 649              		.thumb
 650              	.LBE134:
 651 03e2 FFF7FEFF 		bl	dbg_check_lock
 652              	.LVL94:
 653 03e6 E268     		ldr	r2, [r4, #12]
 654 03e8 A368     		ldr	r3, [r4, #8]
 655 03ea 1520     		movs	r0, #21
 656 03ec D61A     		subs	r6, r2, r3
 657 03ee 7142     		rsbs	r1, r6, #0
 658 03f0 41EB0601 		adc	r1, r1, r6
 659 03f4 FFF7FEFF 		bl	_test_assert
 660 03f8 0646     		mov	r6, r0
 661 03fa 0028     		cmp	r0, #0
 662 03fc 40F0E681 		bne	.L24
 663 0400 FFF7FEFF 		bl	dbg_check_unlock
 664              	.LBB135:
 665 0404 3346     		mov	r3, r6
 666              	.LVL95:
 667              	@ 153 "../../ChibiOS/test/testmbox.c" 1
 668 0406 83F31188 		msr     BASEPRI, r3
 669              	@ 0 "" 2
 670              	.LVL96:
 671              		.thumb
 672              	.LBE135:
 673              	.LBB136:
 674              		.loc 1 158 0
 675 040a 2023     		movs	r3, #32
 676              	.LVL97:
 677              	@ 158 "../../ChibiOS/test/testmbox.c" 1
 678 040c 83F31188 		msr     BASEPRI, r3
 679              	@ 0 "" 2
 680              	.LVL98:
 681              		.thumb
 682              	.LBE136:
ARM GAS  /tmp/ccd0Hvab.s 			page 13


 683 0410 FFF7FEFF 		bl	dbg_check_lock
 684              	.LVL99:
 685              		.loc 1 159 0
 686 0414 4121     		movs	r1, #65
 687 0416 2046     		mov	r0, r4
 688 0418 FFF7FEFF 		bl	chMBPostI
 689              	.LVL100:
 690              		.loc 1 160 0
 691 041c D0F10101 		rsbs	r1, r0, #1
 692 0420 38BF     		it	cc
 693 0422 0021     		movcc	r1, #0
 694 0424 1620     		movs	r0, #22
 695              	.LVL101:
 696 0426 FFF7FEFF 		bl	_test_assert
 697 042a 0028     		cmp	r0, #0
 698 042c 7FF43CAE 		bne	.L2
 699              		.loc 1 161 0
 700 0430 4221     		movs	r1, #66
 701 0432 2046     		mov	r0, r4
 702 0434 FFF7FEFF 		bl	chMBPostI
 703              	.LVL102:
 704              		.loc 1 162 0
 705 0438 D0F10101 		rsbs	r1, r0, #1
 706 043c 38BF     		it	cc
 707 043e 0021     		movcc	r1, #0
 708 0440 1720     		movs	r0, #23
 709              	.LVL103:
 710 0442 FFF7FEFF 		bl	_test_assert
 711 0446 0028     		cmp	r0, #0
 712 0448 7FF42EAE 		bne	.L2
 713              		.loc 1 163 0
 714 044c 624C     		ldr	r4, .L29+4
 715 044e 4321     		movs	r1, #67
 716 0450 2046     		mov	r0, r4
 717 0452 FFF7FEFF 		bl	chMBPostI
 718              	.LVL104:
 719              		.loc 1 164 0
 720 0456 D0F10101 		rsbs	r1, r0, #1
 721 045a 38BF     		it	cc
 722 045c 0021     		movcc	r1, #0
 723 045e 1820     		movs	r0, #24
 724              	.LVL105:
 725 0460 FFF7FEFF 		bl	_test_assert
 726 0464 0028     		cmp	r0, #0
 727 0466 7FF41FAE 		bne	.L2
 728              		.loc 1 165 0
 729 046a 4421     		movs	r1, #68
 730 046c 2046     		mov	r0, r4
 731 046e FFF7FEFF 		bl	chMBPostI
 732              	.LVL106:
 733              		.loc 1 166 0
 734 0472 D0F10101 		rsbs	r1, r0, #1
 735 0476 38BF     		it	cc
 736 0478 0021     		movcc	r1, #0
 737 047a 1920     		movs	r0, #25
 738              	.LVL107:
 739 047c FFF7FEFF 		bl	_test_assert
ARM GAS  /tmp/ccd0Hvab.s 			page 14


 740 0480 0546     		mov	r5, r0
 741 0482 0028     		cmp	r0, #0
 742 0484 7FF410AE 		bne	.L2
 743              		.loc 1 167 0
 744 0488 4521     		movs	r1, #69
 745 048a 2046     		mov	r0, r4
 746 048c FFF7FEFF 		bl	chMBPostI
 747 0490 0646     		mov	r6, r0
 748              	.LVL108:
 749              		.loc 1 168 0
 750 0492 FFF7FEFF 		bl	dbg_check_unlock
 751              	.LVL109:
 752              	.LBB137:
 753 0496 2B46     		mov	r3, r5
 754              	.LVL110:
 755              	@ 168 "../../ChibiOS/test/testmbox.c" 1
 756 0498 83F31188 		msr     BASEPRI, r3
 757              	@ 0 "" 2
 758              	.LVL111:
 759              		.thumb
 760              	.LBE137:
 761              		.loc 1 169 0
 762 049c D6F10101 		rsbs	r1, r6, #1
 763 04a0 38BF     		it	cc
 764 04a2 0021     		movcc	r1, #0
 765 04a4 1A20     		movs	r0, #26
 766 04a6 FFF7FEFF 		bl	_test_assert
 767              	.LVL112:
 768 04aa 0028     		cmp	r0, #0
 769 04ac 7FF4FCAD 		bne	.L2
 770              		.loc 1 170 0
 771 04b0 E268     		ldr	r2, [r4, #12]
 772 04b2 A368     		ldr	r3, [r4, #8]
 773 04b4 1B20     		movs	r0, #27
 774 04b6 D11A     		subs	r1, r2, r3
 775 04b8 D1F1000C 		rsbs	ip, r1, #0
 776 04bc 4CEB0101 		adc	r1, ip, r1
 777 04c0 FFF7FEFF 		bl	_test_assert
 778 04c4 0028     		cmp	r0, #0
 779 04c6 7FF4EFAD 		bne	.L2
 780 04ca 0525     		movs	r5, #5
 781              	.L10:
 782              	.LBB138:
 783              		.loc 1 172 0
 784 04cc 2023     		movs	r3, #32
 785              	.LVL113:
 786              	@ 172 "../../ChibiOS/test/testmbox.c" 1
 787 04ce 83F31188 		msr     BASEPRI, r3
 788              	@ 0 "" 2
 789              	.LVL114:
 790              		.thumb
 791              	.LBE138:
 792              		.loc 1 173 0
 793 04d2 414C     		ldr	r4, .L29+4
 794              		.loc 1 172 0
 795 04d4 FFF7FEFF 		bl	dbg_check_lock
 796              	.LVL115:
ARM GAS  /tmp/ccd0Hvab.s 			page 15


 797              		.loc 1 173 0
 798 04d8 01A9     		add	r1, sp, #4
 799 04da 2046     		mov	r0, r4
 800 04dc FFF7FEFF 		bl	chMBFetchI
 801 04e0 0646     		mov	r6, r0
 802              	.LVL116:
 803              		.loc 1 174 0
 804 04e2 FFF7FEFF 		bl	dbg_check_unlock
 805              	.LVL117:
 806              	.LBB139:
 807 04e6 0023     		movs	r3, #0
 808              	.LVL118:
 809              	@ 174 "../../ChibiOS/test/testmbox.c" 1
 810 04e8 83F31188 		msr     BASEPRI, r3
 811              	@ 0 "" 2
 812              	.LVL119:
 813              		.thumb
 814              	.LBE139:
 815              		.loc 1 175 0
 816 04ec F01A     		subs	r0, r6, r3
 817              	.LVL120:
 818 04ee D0F1000C 		rsbs	ip, r0, #0
 819 04f2 4CEB0001 		adc	r1, ip, r0
 820 04f6 1C20     		movs	r0, #28
 821 04f8 FFF7FEFF 		bl	_test_assert
 822 04fc 0028     		cmp	r0, #0
 823 04fe 7FF4D3AD 		bne	.L2
 824              		.loc 1 176 0
 825 0502 9DF80400 		ldrb	r0, [sp, #4]	@ zero_extendqisi2
 826 0506 FFF7FEFF 		bl	test_emit_token
 827              		.loc 1 171 0
 828 050a 013D     		subs	r5, r5, #1
 829 050c DED1     		bne	.L10
 830              		.loc 1 178 0
 831 050e 1D20     		movs	r0, #29
 832 0510 3049     		ldr	r1, .L29
 833 0512 FFF7FEFF 		bl	_test_assert_sequence
 834 0516 0028     		cmp	r0, #0
 835 0518 7FF4C6AD 		bne	.L2
 836              	.LBB140:
 837              		.loc 1 179 0
 838 051c 2023     		movs	r3, #32
 839              	.LVL121:
 840              	@ 179 "../../ChibiOS/test/testmbox.c" 1
 841 051e 83F31188 		msr     BASEPRI, r3
 842              	@ 0 "" 2
 843              	.LVL122:
 844              		.thumb
 845              	.LBE140:
 846 0522 FFF7FEFF 		bl	dbg_check_lock
 847              	.LVL123:
 848 0526 636A     		ldr	r3, [r4, #36]
 849 0528 1E20     		movs	r0, #30
 850 052a A3F10502 		sub	r2, r3, #5
 851 052e 5142     		rsbs	r1, r2, #0
 852 0530 41EB0201 		adc	r1, r1, r2
 853 0534 FFF7FEFF 		bl	_test_assert
ARM GAS  /tmp/ccd0Hvab.s 			page 16


 854 0538 0028     		cmp	r0, #0
 855 053a 40F04781 		bne	.L24
 856 053e FFF7FEFF 		bl	dbg_check_unlock
 857              	.LBB141:
 858 0542 2B46     		mov	r3, r5
 859              	.LVL124:
 860              	@ 179 "../../ChibiOS/test/testmbox.c" 1
 861 0544 83F31188 		msr     BASEPRI, r3
 862              	@ 0 "" 2
 863              	.LVL125:
 864              		.thumb
 865              	.LBE141:
 866              	.LBB142:
 867              		.loc 1 180 0
 868 0548 2023     		movs	r3, #32
 869              	.LVL126:
 870              	@ 180 "../../ChibiOS/test/testmbox.c" 1
 871 054a 83F31188 		msr     BASEPRI, r3
 872              	@ 0 "" 2
 873              	.LVL127:
 874              		.thumb
 875              	.LBE142:
 876 054e FFF7FEFF 		bl	dbg_check_lock
 877              	.LVL128:
 878 0552 A169     		ldr	r1, [r4, #24]
 879 0554 1F20     		movs	r0, #31
 880 0556 D1F10101 		rsbs	r1, r1, #1
 881 055a 38BF     		it	cc
 882 055c 0021     		movcc	r1, #0
 883 055e FFF7FEFF 		bl	_test_assert
 884 0562 0028     		cmp	r0, #0
 885 0564 40F03281 		bne	.L24
 886 0568 FFF7FEFF 		bl	dbg_check_unlock
 887              	.LBB143:
 888 056c 2B46     		mov	r3, r5
 889              	.LVL129:
 890              	@ 180 "../../ChibiOS/test/testmbox.c" 1
 891 056e 83F31188 		msr     BASEPRI, r3
 892              	@ 0 "" 2
 893              	.LVL130:
 894              		.thumb
 895              	.LBE143:
 896              		.loc 1 181 0
 897 0572 E168     		ldr	r1, [r4, #12]
 898 0574 A368     		ldr	r3, [r4, #8]
 899              	.LVL131:
 900 0576 2020     		movs	r0, #32
 901 0578 C3EB010C 		rsb	ip, r3, r1
 902 057c DCF10002 		rsbs	r2, ip, #0
 903 0580 42EB0C01 		adc	r1, r2, ip
 904 0584 FFF7FEFF 		bl	_test_assert
 905 0588 0028     		cmp	r0, #0
 906 058a 7FF48DAD 		bne	.L2
 907              	.LBB144:
 908              		.loc 1 183 0
 909 058e 2023     		movs	r3, #32
 910              	.LVL132:
ARM GAS  /tmp/ccd0Hvab.s 			page 17


 911              	@ 183 "../../ChibiOS/test/testmbox.c" 1
 912 0590 83F31188 		msr     BASEPRI, r3
 913              	@ 0 "" 2
 914              	.LVL133:
 915              		.thumb
 916              	.LBE144:
 917 0594 FFF7FEFF 		bl	dbg_check_lock
 918              	.LVL134:
 919              		.loc 1 184 0
 920 0598 4521     		movs	r1, #69
 921 059a 2046     		mov	r0, r4
 922 059c FFF7FEFF 		bl	chMBPostAheadI
 923              	.LVL135:
 924              		.loc 1 185 0
 925 05a0 D0F10101 		rsbs	r1, r0, #1
 926 05a4 38BF     		it	cc
 927 05a6 0021     		movcc	r1, #0
 928 05a8 2120     		movs	r0, #33
 929              	.LVL136:
 930 05aa FFF7FEFF 		bl	_test_assert
 931 05ae 0028     		cmp	r0, #0
 932 05b0 7FF47AAD 		bne	.L2
 933              		.loc 1 186 0
 934 05b4 4421     		movs	r1, #68
 935 05b6 2046     		mov	r0, r4
 936 05b8 FFF7FEFF 		bl	chMBPostAheadI
 937              	.LVL137:
 938              		.loc 1 187 0
 939 05bc D0F10101 		rsbs	r1, r0, #1
 940 05c0 38BF     		it	cc
 941 05c2 0021     		movcc	r1, #0
 942 05c4 2220     		movs	r0, #34
 943              	.LVL138:
 944 05c6 FFF7FEFF 		bl	_test_assert
 945 05ca 0028     		cmp	r0, #0
 946 05cc 7FF46CAD 		bne	.L2
 947 05d0 04E0     		b	.L30
 948              	.L31:
 949 05d2 00BF     		.align	2
 950              	.L29:
 951 05d4 00000000 		.word	.LC0
 952 05d8 00000000 		.word	.LANCHOR0
 953              	.L30:
 954              		.loc 1 188 0
 955 05dc 4321     		movs	r1, #67
 956 05de 2046     		mov	r0, r4
 957 05e0 FFF7FEFF 		bl	chMBPostAheadI
 958              	.LVL139:
 959              		.loc 1 189 0
 960 05e4 D0F10101 		rsbs	r1, r0, #1
 961 05e8 38BF     		it	cc
 962 05ea 0021     		movcc	r1, #0
 963 05ec 2320     		movs	r0, #35
 964              	.LVL140:
 965 05ee FFF7FEFF 		bl	_test_assert
 966 05f2 0028     		cmp	r0, #0
 967 05f4 7FF458AD 		bne	.L2
ARM GAS  /tmp/ccd0Hvab.s 			page 18


 968              		.loc 1 190 0
 969 05f8 4221     		movs	r1, #66
 970 05fa 2046     		mov	r0, r4
 971 05fc FFF7FEFF 		bl	chMBPostAheadI
 972              	.LVL141:
 973              		.loc 1 191 0
 974 0600 D0F10101 		rsbs	r1, r0, #1
 975 0604 38BF     		it	cc
 976 0606 0021     		movcc	r1, #0
 977 0608 2420     		movs	r0, #36
 978              	.LVL142:
 979 060a FFF7FEFF 		bl	_test_assert
 980 060e 0028     		cmp	r0, #0
 981 0610 7FF44AAD 		bne	.L2
 982              		.loc 1 192 0
 983 0614 734C     		ldr	r4, .L32
 984 0616 4121     		movs	r1, #65
 985 0618 2046     		mov	r0, r4
 986 061a FFF7FEFF 		bl	chMBPostAheadI
 987 061e 0546     		mov	r5, r0
 988              	.LVL143:
 989              		.loc 1 193 0
 990 0620 FFF7FEFF 		bl	dbg_check_unlock
 991              	.LVL144:
 992              	.LBB145:
 993 0624 0023     		movs	r3, #0
 994              	.LVL145:
 995              	@ 193 "../../ChibiOS/test/testmbox.c" 1
 996 0626 83F31188 		msr     BASEPRI, r3
 997              	@ 0 "" 2
 998              	.LVL146:
 999              		.thumb
 1000              	.LBE145:
 1001              		.loc 1 194 0
 1002 062a EA1A     		subs	r2, r5, r3
 1003              	.LVL147:
 1004 062c 5042     		rsbs	r0, r2, #0
 1005 062e 40EB0201 		adc	r1, r0, r2
 1006 0632 2520     		movs	r0, #37
 1007 0634 FFF7FEFF 		bl	_test_assert
 1008 0638 0028     		cmp	r0, #0
 1009 063a 7FF435AD 		bne	.L2
 1010              		.loc 1 195 0
 1011 063e A368     		ldr	r3, [r4, #8]
 1012 0640 E268     		ldr	r2, [r4, #12]
 1013 0642 2620     		movs	r0, #38
 1014 0644 D11A     		subs	r1, r2, r3
 1015 0646 4B42     		rsbs	r3, r1, #0
 1016 0648 43EB0101 		adc	r1, r3, r1
 1017 064c FFF7FEFF 		bl	_test_assert
 1018 0650 0028     		cmp	r0, #0
 1019 0652 7FF429AD 		bne	.L2
 1020 0656 0524     		movs	r4, #5
 1021              	.LVL148:
 1022              	.L13:
 1023              	.LBB146:
 1024              		.loc 1 197 0
ARM GAS  /tmp/ccd0Hvab.s 			page 19


 1025 0658 2023     		movs	r3, #32
 1026              	.LVL149:
 1027              	@ 197 "../../ChibiOS/test/testmbox.c" 1
 1028 065a 83F31188 		msr     BASEPRI, r3
 1029              	@ 0 "" 2
 1030              	.LVL150:
 1031              		.thumb
 1032              	.LBE146:
 1033              		.loc 1 198 0
 1034 065e 614D     		ldr	r5, .L32
 1035              		.loc 1 197 0
 1036 0660 FFF7FEFF 		bl	dbg_check_lock
 1037              	.LVL151:
 1038              		.loc 1 198 0
 1039 0664 01A9     		add	r1, sp, #4
 1040 0666 2846     		mov	r0, r5
 1041 0668 FFF7FEFF 		bl	chMBFetchI
 1042 066c 0646     		mov	r6, r0
 1043              	.LVL152:
 1044              		.loc 1 199 0
 1045 066e FFF7FEFF 		bl	dbg_check_unlock
 1046              	.LVL153:
 1047              	.LBB147:
 1048 0672 0023     		movs	r3, #0
 1049              	.LVL154:
 1050              	@ 199 "../../ChibiOS/test/testmbox.c" 1
 1051 0674 83F31188 		msr     BASEPRI, r3
 1052              	@ 0 "" 2
 1053              	.LVL155:
 1054              		.thumb
 1055              	.LBE147:
 1056              		.loc 1 200 0
 1057 0678 F11A     		subs	r1, r6, r3
 1058              	.LVL156:
 1059 067a 4842     		rsbs	r0, r1, #0
 1060 067c 40EB0101 		adc	r1, r0, r1
 1061 0680 2720     		movs	r0, #39
 1062 0682 FFF7FEFF 		bl	_test_assert
 1063 0686 0028     		cmp	r0, #0
 1064 0688 7FF40EAD 		bne	.L2
 1065              		.loc 1 201 0
 1066 068c 9DF80400 		ldrb	r0, [sp, #4]	@ zero_extendqisi2
 1067 0690 FFF7FEFF 		bl	test_emit_token
 1068              		.loc 1 196 0
 1069 0694 013C     		subs	r4, r4, #1
 1070 0696 DFD1     		bne	.L13
 1071              		.loc 1 203 0
 1072 0698 2820     		movs	r0, #40
 1073 069a 5349     		ldr	r1, .L32+4
 1074 069c FFF7FEFF 		bl	_test_assert_sequence
 1075 06a0 0028     		cmp	r0, #0
 1076 06a2 7FF401AD 		bne	.L2
 1077              	.LBB148:
 1078              		.loc 1 204 0
 1079 06a6 2023     		movs	r3, #32
 1080              	.LVL157:
 1081              	@ 204 "../../ChibiOS/test/testmbox.c" 1
ARM GAS  /tmp/ccd0Hvab.s 			page 20


 1082 06a8 83F31188 		msr     BASEPRI, r3
 1083              	@ 0 "" 2
 1084              	.LVL158:
 1085              		.thumb
 1086              	.LBE148:
 1087 06ac FFF7FEFF 		bl	dbg_check_lock
 1088              	.LVL159:
 1089 06b0 6B6A     		ldr	r3, [r5, #36]
 1090 06b2 2920     		movs	r0, #41
 1091 06b4 A3F1050C 		sub	ip, r3, #5
 1092 06b8 DCF10002 		rsbs	r2, ip, #0
 1093 06bc 42EB0C01 		adc	r1, r2, ip
 1094 06c0 FFF7FEFF 		bl	_test_assert
 1095 06c4 0028     		cmp	r0, #0
 1096 06c6 40F08780 		bne	.L22
 1097 06ca FFF7FEFF 		bl	dbg_check_unlock
 1098              	.LBB149:
 1099 06ce 2346     		mov	r3, r4
 1100              	.LVL160:
 1101              	@ 204 "../../ChibiOS/test/testmbox.c" 1
 1102 06d0 83F31188 		msr     BASEPRI, r3
 1103              	@ 0 "" 2
 1104              	.LVL161:
 1105              		.thumb
 1106              	.LBE149:
 1107              	.LBB150:
 1108              		.loc 1 205 0
 1109 06d4 2023     		movs	r3, #32
 1110              	.LVL162:
 1111              	@ 205 "../../ChibiOS/test/testmbox.c" 1
 1112 06d6 83F31188 		msr     BASEPRI, r3
 1113              	@ 0 "" 2
 1114              	.LVL163:
 1115              		.thumb
 1116              	.LBE150:
 1117 06da FFF7FEFF 		bl	dbg_check_lock
 1118              	.LVL164:
 1119 06de A969     		ldr	r1, [r5, #24]
 1120 06e0 2A20     		movs	r0, #42
 1121 06e2 D1F10101 		rsbs	r1, r1, #1
 1122 06e6 38BF     		it	cc
 1123 06e8 0021     		movcc	r1, #0
 1124 06ea FFF7FEFF 		bl	_test_assert
 1125 06ee 0028     		cmp	r0, #0
 1126 06f0 72D1     		bne	.L22
 1127 06f2 FFF7FEFF 		bl	dbg_check_unlock
 1128              	.LBB151:
 1129 06f6 2346     		mov	r3, r4
 1130              	.LVL165:
 1131              	@ 205 "../../ChibiOS/test/testmbox.c" 1
 1132 06f8 83F31188 		msr     BASEPRI, r3
 1133              	@ 0 "" 2
 1134              	.LVL166:
 1135              		.thumb
 1136              	.LBE151:
 1137              		.loc 1 206 0
 1138 06fc E968     		ldr	r1, [r5, #12]
ARM GAS  /tmp/ccd0Hvab.s 			page 21


 1139 06fe AA68     		ldr	r2, [r5, #8]
 1140 0700 2B20     		movs	r0, #43
 1141 0702 8B1A     		subs	r3, r1, r2
 1142              	.LVL167:
 1143 0704 5A42     		rsbs	r2, r3, #0
 1144 0706 42EB0301 		adc	r1, r2, r3
 1145 070a FFF7FEFF 		bl	_test_assert
 1146 070e 0028     		cmp	r0, #0
 1147 0710 7FF4CAAC 		bne	.L2
 1148              		.loc 1 211 0
 1149 0714 2846     		mov	r0, r5
 1150 0716 FFF7FEFF 		bl	chMBReset
 1151              	.LBB152:
 1152              		.loc 1 216 0
 1153 071a 2023     		movs	r3, #32
 1154              	.LVL168:
 1155              	@ 216 "../../ChibiOS/test/testmbox.c" 1
 1156 071c 83F31188 		msr     BASEPRI, r3
 1157              	@ 0 "" 2
 1158              	.LVL169:
 1159              		.thumb
 1160              	.LBE152:
 1161 0720 FFF7FEFF 		bl	dbg_check_lock
 1162              	.LVL170:
 1163 0724 6A6A     		ldr	r2, [r5, #36]
 1164 0726 2C20     		movs	r0, #44
 1165 0728 A2F10501 		sub	r1, r2, #5
 1166 072c 4B42     		rsbs	r3, r1, #0
 1167 072e 43EB0101 		adc	r1, r3, r1
 1168 0732 FFF7FEFF 		bl	_test_assert
 1169 0736 0028     		cmp	r0, #0
 1170 0738 4ED1     		bne	.L22
 1171 073a FFF7FEFF 		bl	dbg_check_unlock
 1172              	.LBB153:
 1173 073e 2346     		mov	r3, r4
 1174              	.LVL171:
 1175              	@ 216 "../../ChibiOS/test/testmbox.c" 1
 1176 0740 83F31188 		msr     BASEPRI, r3
 1177              	@ 0 "" 2
 1178              	.LVL172:
 1179              		.thumb
 1180              	.LBE153:
 1181              	.LBB154:
 1182              		.loc 1 217 0
 1183 0744 2023     		movs	r3, #32
 1184              	.LVL173:
 1185              	@ 217 "../../ChibiOS/test/testmbox.c" 1
 1186 0746 83F31188 		msr     BASEPRI, r3
 1187              	@ 0 "" 2
 1188              	.LVL174:
 1189              		.thumb
 1190              	.LBE154:
 1191 074a FFF7FEFF 		bl	dbg_check_lock
 1192              	.LVL175:
 1193 074e AB69     		ldr	r3, [r5, #24]
 1194 0750 2D20     		movs	r0, #45
 1195 0752 D3F10101 		rsbs	r1, r3, #1
ARM GAS  /tmp/ccd0Hvab.s 			page 22


 1196 0756 38BF     		it	cc
 1197 0758 0021     		movcc	r1, #0
 1198 075a FFF7FEFF 		bl	_test_assert
 1199 075e 0028     		cmp	r0, #0
 1200 0760 3AD1     		bne	.L22
 1201 0762 FFF7FEFF 		bl	dbg_check_unlock
 1202              	.LBB155:
 1203 0766 2346     		mov	r3, r4
 1204              	.LVL176:
 1205              	@ 217 "../../ChibiOS/test/testmbox.c" 1
 1206 0768 83F31188 		msr     BASEPRI, r3
 1207              	@ 0 "" 2
 1208              	.LVL177:
 1209              		.thumb
 1210              	.LBE155:
 1211              	.LBB156:
 1212              		.loc 1 218 0
 1213 076c 2023     		movs	r3, #32
 1214              	.LVL178:
 1215              	@ 218 "../../ChibiOS/test/testmbox.c" 1
 1216 076e 83F31188 		msr     BASEPRI, r3
 1217              	@ 0 "" 2
 1218              	.LVL179:
 1219              		.thumb
 1220              	.LBE156:
 1221 0772 FFF7FEFF 		bl	dbg_check_lock
 1222              	.LVL180:
 1223 0776 2A68     		ldr	r2, [r5, #0]
 1224 0778 AB68     		ldr	r3, [r5, #8]
 1225 077a 2E20     		movs	r0, #46
 1226 077c D11A     		subs	r1, r2, r3
 1227 077e D1F1000C 		rsbs	ip, r1, #0
 1228 0782 4CEB0101 		adc	r1, ip, r1
 1229 0786 FFF7FEFF 		bl	_test_assert
 1230 078a 28BB     		cbnz	r0, .L22
 1231 078c FFF7FEFF 		bl	dbg_check_unlock
 1232              	.LBB157:
 1233 0790 2346     		mov	r3, r4
 1234              	.LVL181:
 1235              	@ 218 "../../ChibiOS/test/testmbox.c" 1
 1236 0792 83F31188 		msr     BASEPRI, r3
 1237              	@ 0 "" 2
 1238              	.LVL182:
 1239              		.thumb
 1240              	.LBE157:
 1241              	.LBB158:
 1242              		.loc 1 219 0
 1243 0796 2023     		movs	r3, #32
 1244              	.LVL183:
 1245              	@ 219 "../../ChibiOS/test/testmbox.c" 1
 1246 0798 83F31188 		msr     BASEPRI, r3
 1247              	@ 0 "" 2
 1248              	.LVL184:
 1249              		.thumb
 1250              	.LBE158:
 1251 079c FFF7FEFF 		bl	dbg_check_lock
 1252              	.LVL185:
ARM GAS  /tmp/ccd0Hvab.s 			page 23


 1253 07a0 2B68     		ldr	r3, [r5, #0]
 1254 07a2 EA68     		ldr	r2, [r5, #12]
 1255 07a4 2F20     		movs	r0, #47
 1256 07a6 991A     		subs	r1, r3, r2
 1257 07a8 D1F1000C 		rsbs	ip, r1, #0
 1258 07ac 4CEB0101 		adc	r1, ip, r1
 1259 07b0 FFF7FEFF 		bl	_test_assert
 1260              	.LVL186:
 1261              	.L19:
 1262 07b4 FFF7FEFF 		bl	dbg_check_unlock
 1263              	.LBB159:
 1264 07b8 0023     		movs	r3, #0
 1265              	@ 219 "../../ChibiOS/test/testmbox.c" 1
 1266 07ba 83F31188 		msr     BASEPRI, r3
 1267              	@ 0 "" 2
 1268              	.LVL187:
 1269              		.thumb
 1270 07be 73E4     		b	.L2
 1271              	.LVL188:
 1272              	.L23:
 1273              	.LBE159:
 1274              		.loc 1 152 0
 1275 07c0 FFF7FEFF 		bl	dbg_check_unlock
 1276              	.LBB160:
 1277 07c4 3346     		mov	r3, r6
 1278              	@ 152 "../../ChibiOS/test/testmbox.c" 1
 1279 07c6 83F31188 		msr     BASEPRI, r3
 1280              	@ 0 "" 2
 1281              	.LVL189:
 1282              		.thumb
 1283 07ca 6DE4     		b	.L2
 1284              	.LVL190:
 1285              	.L24:
 1286              	.LBE160:
 1287              		.loc 1 180 0
 1288 07cc FFF7FEFF 		bl	dbg_check_unlock
 1289              	.LBB161:
 1290 07d0 2B46     		mov	r3, r5
 1291              	@ 180 "../../ChibiOS/test/testmbox.c" 1
 1292 07d2 83F31188 		msr     BASEPRI, r3
 1293              	@ 0 "" 2
 1294              	.LVL191:
 1295              		.thumb
 1296 07d6 67E4     		b	.L2
 1297              	.LVL192:
 1298              	.L22:
 1299              	.LBE161:
 1300              		.loc 1 218 0
 1301 07d8 FFF7FEFF 		bl	dbg_check_unlock
 1302              	.LBB162:
 1303 07dc 2346     		mov	r3, r4
 1304              	@ 218 "../../ChibiOS/test/testmbox.c" 1
 1305 07de 83F31188 		msr     BASEPRI, r3
 1306              	@ 0 "" 2
 1307              	.LVL193:
 1308              		.thumb
 1309 07e2 61E4     		b	.L2
ARM GAS  /tmp/ccd0Hvab.s 			page 24


 1310              	.L33:
 1311              		.align	2
 1312              	.L32:
 1313 07e4 00000000 		.word	.LANCHOR0
 1314 07e8 00000000 		.word	.LC0
 1315              	.LBE162:
 1316              	.LBE117:
 1317              	.LBE116:
 1318              		.cfi_endproc
 1319              	.LFE8:
 1320              		.size	mbox1_execute, .-mbox1_execute
 1321              		.global	patternmbox
 1322              		.global	testmbox1
 1323 07ec AFF30080 		.section	.data.mb1,"aw",%progbits
 1324              		.align	2
 1325              		.set	.LANCHOR0,. + 0
 1326              		.type	mb1, %object
 1327              		.size	mb1, 40
 1328              	mb1:
 1329 0000 00000000 		.word	test
 1330 0004 14000000 		.word	test+20
 1331 0008 00000000 		.word	test
 1332 000c 00000000 		.word	test
 1333 0010 10000000 		.word	mb1+16
 1334 0014 10000000 		.word	mb1+16
 1335 0018 00000000 		.word	0
 1336 001c 1C000000 		.word	mb1+28
 1337 0020 1C000000 		.word	mb1+28
 1338 0024 05000000 		.word	5
 1339              		.section	.rodata.patternmbox,"a",%progbits
 1340              		.align	2
 1341              		.type	patternmbox, %object
 1342              		.size	patternmbox, 8
 1343              	patternmbox:
 1344 0000 00000000 		.word	testmbox1
 1345 0004 00000000 		.word	0
 1346              		.section	.rodata.str1.4,"aMS",%progbits,1
 1347              		.align	2
 1348              	.LC0:
 1349 0000 41424344 		.ascii	"ABCDE\000"
 1349      4500
 1350 0006 0000     		.space	2
 1351              	.LC1:
 1352 0008 4D61696C 		.ascii	"Mailboxes, queuing and timeouts\000"
 1352      626F7865 
 1352      732C2071 
 1352      75657569 
 1352      6E672061 
 1353              		.section	.rodata.testmbox1,"a",%progbits
 1354              		.align	2
 1355              		.type	testmbox1, %object
 1356              		.size	testmbox1, 16
 1357              	testmbox1:
 1358 0000 08000000 		.word	.LC1
 1359 0004 00000000 		.word	mbox1_setup
 1360 0008 00000000 		.word	0
 1361 000c 00000000 		.word	mbox1_execute
ARM GAS  /tmp/ccd0Hvab.s 			page 25


 1362              		.text
 1363              	.Letext0:
 1364              		.file 2 "/home/tino/ChibiStudio/tools/GNU Tools ARM Embedded/4.6 2012q2/bin/../lib/gcc/arm-none-ea
 1365              		.file 3 "../../ChibiOS/os/ports/GCC/ARMCMx/chtypes.h"
 1366              		.file 4 "../../ChibiOS/os/kernel/include/chlists.h"
 1367              		.file 5 "../../ChibiOS/os/kernel/include/chthreads.h"
 1368              		.file 6 "../../ChibiOS/os/ports/GCC/ARMCMx/chcore_v7m.h"
 1369              		.file 7 "../../ChibiOS/os/kernel/include/chsem.h"
 1370              		.file 8 "../../ChibiOS/os/kernel/include/chmtx.h"
 1371              		.file 9 "../../ChibiOS/os/kernel/include/chmboxes.h"
 1372              		.file 10 "../../ChibiOS/test/test.h"