ARM GAS  /tmp/cciG4tbu.s 			page 1


   1              		.syntax unified
   2              		.cpu cortex-m3
   3              		.fpu softvfp
   4              		.eabi_attribute 20, 1
   5              		.eabi_attribute 21, 1
   6              		.eabi_attribute 23, 3
   7              		.eabi_attribute 24, 1
   8              		.eabi_attribute 25, 1
   9              		.eabi_attribute 26, 1
  10              		.eabi_attribute 30, 2
  11              		.eabi_attribute 34, 1
  12              		.eabi_attribute 18, 4
  13              		.thumb
  14              		.file	"testpools.c"
  15              		.text
  16              	.Ltext0:
  17              		.cfi_sections	.debug_frame
  18              		.section	.text.null_provider,"ax",%progbits
  19              		.align	2
  20              		.p2align 4,,15
  21              		.thumb
  22              		.thumb_func
  23              		.type	null_provider, %function
  24              	null_provider:
  25              	.LFB7:
  26              		.file 1 "../../ChibiOS/test/testpools.c"
  27              		.loc 1 60 0
  28              		.cfi_startproc
  29              		@ args = 0, pretend = 0, frame = 0
  30              		@ frame_needed = 0, uses_anonymous_args = 0
  31              		@ link register save eliminated.
  32              	.LVL0:
  33              		.loc 1 64 0
  34 0000 0020     		movs	r0, #0
  35              	.LVL1:
  36 0002 7047     		bx	lr
  37              		.cfi_endproc
  38              	.LFE7:
  39              		.size	null_provider, .-null_provider
  40 0004 AFF30080 		.section	.text.pools1_setup,"ax",%progbits
  40      AFF30080 
  40      AFF30080 
  41              		.align	2
  42              		.p2align 4,,15
  43              		.thumb
  44              		.thumb_func
  45              		.type	pools1_setup, %function
  46              	pools1_setup:
  47              	.LFB8:
  48              		.loc 1 66 0
  49              		.cfi_startproc
  50              		@ args = 0, pretend = 0, frame = 0
  51              		@ frame_needed = 0, uses_anonymous_args = 0
  52              		@ link register save eliminated.
  53              		.loc 1 68 0
  54 0000 40F20000 		movw	r0, #:lower16:.LANCHOR0
  55 0004 C0F20000 		movt	r0, #:upper16:.LANCHOR0
ARM GAS  /tmp/cciG4tbu.s 			page 2


  56 0008 4FF40471 		mov	r1, #528
  57 000c 0022     		movs	r2, #0
  58              		.loc 1 69 0
  59              		.loc 1 68 0
  60 000e FFF7FEBF 		b	chPoolInit
  61              		.cfi_endproc
  62              	.LFE8:
  63              		.size	pools1_setup, .-pools1_setup
  64 0012 00BFAFF3 		.section	.text.pools1_execute,"ax",%progbits
  64      0080AFF3 
  64      0080AFF3 
  64      0080
  65              		.align	2
  66              		.p2align 4,,15
  67              		.thumb
  68              		.thumb_func
  69              		.type	pools1_execute, %function
  70              	pools1_execute:
  71              	.LFB9:
  72              		.loc 1 71 0
  73              		.cfi_startproc
  74              		@ args = 0, pretend = 0, frame = 0
  75              		@ frame_needed = 0, uses_anonymous_args = 0
  76 0000 38B5     		push	{r3, r4, r5, lr}
  77              	.LCFI0:
  78              		.cfi_def_cfa_offset 16
  79              		.cfi_offset 14, -4
  80              		.cfi_offset 5, -8
  81              		.cfi_offset 4, -12
  82              		.cfi_offset 3, -16
  83              		.loc 1 75 0
  84 0002 574C     		ldr	r4, .L7
  85 0004 0522     		movs	r2, #5
  86 0006 2568     		ldr	r5, [r4, #0]
  87 0008 5648     		ldr	r0, .L7+4
  88 000a 2946     		mov	r1, r5
  89 000c FFF7FEFF 		bl	chPoolLoadArray
  90              	.LVL2:
  91              		.loc 1 79 0
  92 0010 5448     		ldr	r0, .L7+4
  93 0012 FFF7FEFF 		bl	chPoolAlloc
  94 0016 011C     		adds	r1, r0, #0
  95 0018 18BF     		it	ne
  96 001a 0121     		movne	r1, #1
  97 001c 0120     		movs	r0, #1
  98 001e FFF7FEFF 		bl	_test_assert
  99 0022 0028     		cmp	r0, #0
 100 0024 40F08A80 		bne	.L3
 101              	.LVL3:
 102 0028 4E48     		ldr	r0, .L7+4
 103 002a FFF7FEFF 		bl	chPoolAlloc
 104 002e 011C     		adds	r1, r0, #0
 105 0030 18BF     		it	ne
 106 0032 0121     		movne	r1, #1
 107 0034 0120     		movs	r0, #1
 108 0036 FFF7FEFF 		bl	_test_assert
 109 003a 0028     		cmp	r0, #0
ARM GAS  /tmp/cciG4tbu.s 			page 3


 110 003c 7ED1     		bne	.L3
 111 003e 4948     		ldr	r0, .L7+4
 112 0040 FFF7FEFF 		bl	chPoolAlloc
 113 0044 011C     		adds	r1, r0, #0
 114 0046 18BF     		it	ne
 115 0048 0121     		movne	r1, #1
 116 004a 0120     		movs	r0, #1
 117 004c FFF7FEFF 		bl	_test_assert
 118 0050 0028     		cmp	r0, #0
 119 0052 73D1     		bne	.L3
 120 0054 4348     		ldr	r0, .L7+4
 121 0056 FFF7FEFF 		bl	chPoolAlloc
 122 005a 011C     		adds	r1, r0, #0
 123 005c 18BF     		it	ne
 124 005e 0121     		movne	r1, #1
 125 0060 0120     		movs	r0, #1
 126 0062 FFF7FEFF 		bl	_test_assert
 127 0066 0028     		cmp	r0, #0
 128 0068 68D1     		bne	.L3
 129 006a 3E48     		ldr	r0, .L7+4
 130 006c FFF7FEFF 		bl	chPoolAlloc
 131 0070 011C     		adds	r1, r0, #0
 132 0072 18BF     		it	ne
 133 0074 0121     		movne	r1, #1
 134 0076 0120     		movs	r0, #1
 135 0078 FFF7FEFF 		bl	_test_assert
 136 007c 0028     		cmp	r0, #0
 137 007e 5DD1     		bne	.L3
 138              		.loc 1 82 0
 139 0080 3848     		ldr	r0, .L7+4
 140 0082 FFF7FEFF 		bl	chPoolAlloc
 141 0086 D0F10101 		rsbs	r1, r0, #1
 142 008a 38BF     		it	cc
 143 008c 0021     		movcc	r1, #0
 144 008e 0220     		movs	r0, #2
 145 0090 FFF7FEFF 		bl	_test_assert
 146 0094 0028     		cmp	r0, #0
 147 0096 51D1     		bne	.L3
 148              	.LBB4:
 149              	.LBB5:
 150              		.loc 1 86 0
 151 0098 3248     		ldr	r0, .L7+4
 152 009a 2946     		mov	r1, r5
 153 009c FFF7FEFF 		bl	chPoolFree
 154              	.LVL4:
 155 00a0 6168     		ldr	r1, [r4, #4]
 156 00a2 3048     		ldr	r0, .L7+4
 157 00a4 FFF7FEFF 		bl	chPoolFree
 158              	.LVL5:
 159 00a8 A168     		ldr	r1, [r4, #8]
 160 00aa 2E48     		ldr	r0, .L7+4
 161 00ac FFF7FEFF 		bl	chPoolFree
 162              	.LVL6:
 163 00b0 E168     		ldr	r1, [r4, #12]
 164 00b2 2C48     		ldr	r0, .L7+4
 165 00b4 FFF7FEFF 		bl	chPoolFree
 166              	.LVL7:
ARM GAS  /tmp/cciG4tbu.s 			page 4


 167 00b8 2169     		ldr	r1, [r4, #16]
 168 00ba 2A48     		ldr	r0, .L7+4
 169 00bc FFF7FEFF 		bl	chPoolFree
 170              	.LVL8:
 171              		.loc 1 90 0
 172 00c0 2848     		ldr	r0, .L7+4
 173 00c2 FFF7FEFF 		bl	chPoolAlloc
 174 00c6 011C     		adds	r1, r0, #0
 175 00c8 18BF     		it	ne
 176 00ca 0121     		movne	r1, #1
 177 00cc 0320     		movs	r0, #3
 178 00ce FFF7FEFF 		bl	_test_assert
 179 00d2 0028     		cmp	r0, #0
 180 00d4 32D1     		bne	.L3
 181              	.LVL9:
 182 00d6 2348     		ldr	r0, .L7+4
 183 00d8 FFF7FEFF 		bl	chPoolAlloc
 184 00dc 011C     		adds	r1, r0, #0
 185 00de 18BF     		it	ne
 186 00e0 0121     		movne	r1, #1
 187 00e2 0320     		movs	r0, #3
 188 00e4 FFF7FEFF 		bl	_test_assert
 189 00e8 40BB     		cbnz	r0, .L3
 190 00ea 1E48     		ldr	r0, .L7+4
 191 00ec FFF7FEFF 		bl	chPoolAlloc
 192 00f0 011C     		adds	r1, r0, #0
 193 00f2 18BF     		it	ne
 194 00f4 0121     		movne	r1, #1
 195 00f6 0320     		movs	r0, #3
 196 00f8 FFF7FEFF 		bl	_test_assert
 197 00fc F0B9     		cbnz	r0, .L3
 198 00fe 1948     		ldr	r0, .L7+4
 199 0100 FFF7FEFF 		bl	chPoolAlloc
 200 0104 011C     		adds	r1, r0, #0
 201 0106 18BF     		it	ne
 202 0108 0121     		movne	r1, #1
 203 010a 0320     		movs	r0, #3
 204 010c FFF7FEFF 		bl	_test_assert
 205 0110 A0B9     		cbnz	r0, .L3
 206 0112 1448     		ldr	r0, .L7+4
 207 0114 FFF7FEFF 		bl	chPoolAlloc
 208 0118 011C     		adds	r1, r0, #0
 209 011a 18BF     		it	ne
 210 011c 0121     		movne	r1, #1
 211 011e 0320     		movs	r0, #3
 212 0120 FFF7FEFF 		bl	_test_assert
 213 0124 50B9     		cbnz	r0, .L3
 214              		.loc 1 93 0
 215 0126 0F48     		ldr	r0, .L7+4
 216 0128 FFF7FEFF 		bl	chPoolAlloc
 217 012c D0F10101 		rsbs	r1, r0, #1
 218 0130 38BF     		it	cc
 219 0132 0021     		movcc	r1, #0
 220 0134 0420     		movs	r0, #4
 221 0136 FFF7FEFF 		bl	_test_assert
 222 013a 00B1     		cbz	r0, .L6
 223              	.L3:
ARM GAS  /tmp/cciG4tbu.s 			page 5


 224 013c 38BD     		pop	{r3, r4, r5, pc}
 225              	.L6:
 226              		.loc 1 96 0
 227 013e 1021     		movs	r1, #16
 228 0140 094A     		ldr	r2, .L7+8
 229 0142 0848     		ldr	r0, .L7+4
 230 0144 FFF7FEFF 		bl	chPoolInit
 231              		.loc 1 97 0
 232 0148 0648     		ldr	r0, .L7+4
 233 014a FFF7FEFF 		bl	chPoolAlloc
 234 014e D0F10101 		rsbs	r1, r0, #1
 235 0152 38BF     		it	cc
 236 0154 0021     		movcc	r1, #0
 237 0156 0520     		movs	r0, #5
 238              	.LBE5:
 239              	.LBE4:
 240              		.loc 1 98 0
 241 0158 BDE83840 		pop	{r3, r4, r5, lr}
 242              	.LBB7:
 243              	.LBB6:
 244              		.loc 1 97 0
 245 015c FFF7FEBF 		b	_test_assert
 246              	.L8:
 247              		.align	2
 248              	.L7:
 249 0160 00000000 		.word	wa
 250 0164 00000000 		.word	.LANCHOR0
 251 0168 00000000 		.word	null_provider
 252              	.LBE6:
 253              	.LBE7:
 254              		.cfi_endproc
 255              	.LFE9:
 256              		.size	pools1_execute, .-pools1_execute
 257              		.global	patternpools
 258              		.global	testpools1
 259 016c AFF30080 		.section	.rodata.str1.4,"aMS",%progbits,1
 260              		.align	2
 261              	.LC0:
 262 0000 4D656D6F 		.ascii	"Memory Pools, queue/dequeue\000"
 262      72792050 
 262      6F6F6C73 
 262      2C207175 
 262      6575652F 
 263              		.section	.rodata.patternpools,"a",%progbits
 264              		.align	2
 265              		.type	patternpools, %object
 266              		.size	patternpools, 8
 267              	patternpools:
 268 0000 00000000 		.word	testpools1
 269 0004 00000000 		.word	0
 270              		.section	.data.mp1,"aw",%progbits
 271              		.align	2
 272              		.set	.LANCHOR0,. + 0
 273              		.type	mp1, %object
 274              		.size	mp1, 12
 275              	mp1:
 276 0000 00000000 		.word	0
ARM GAS  /tmp/cciG4tbu.s 			page 6


 277 0004 10020000 		.word	528
 278 0008 00000000 		.word	0
 279              		.section	.rodata.testpools1,"a",%progbits
 280              		.align	2
 281              		.type	testpools1, %object
 282              		.size	testpools1, 16
 283              	testpools1:
 284 0000 00000000 		.word	.LC0
 285 0004 00000000 		.word	pools1_setup
 286 0008 00000000 		.word	0
 287 000c 00000000 		.word	pools1_execute
 288              		.text
 289              	.Letext0:
 290              		.file 2 "/home/tino/ChibiStudio/tools/GNU Tools ARM Embedded/4.6 2012q2/bin/../lib/gcc/arm-none-ea
 291              		.file 3 "../../ChibiOS/os/kernel/include/chmemcore.h"
 292              		.file 4 "../../ChibiOS/os/kernel/include/chmempools.h"
 293              		.file 5 "../../ChibiOS/test/test.h"