ARM GAS  /tmp/ccV33Meo.s 			page 1


   1              		.syntax unified
   2              		.cpu cortex-m3
   3              		.fpu softvfp
   4              		.eabi_attribute 20, 1
   5              		.eabi_attribute 21, 1
   6              		.eabi_attribute 23, 3
   7              		.eabi_attribute 24, 1
   8              		.eabi_attribute 25, 1
   9              		.eabi_attribute 26, 1
  10              		.eabi_attribute 30, 2
  11              		.eabi_attribute 34, 1
  12              		.eabi_attribute 18, 4
  13              		.thumb
  14              		.file	"testheap.c"
  15              		.text
  16              	.Ltext0:
  17              		.cfi_sections	.debug_frame
  18              		.section	.text.heap1_execute,"ax",%progbits
  19              		.align	2
  20              		.p2align 4,,15
  21              		.thumb
  22              		.thumb_func
  23              		.type	heap1_execute, %function
  24              	heap1_execute:
  25              	.LFB8:
  26              		.file 1 "../../ChibiOS/test/testheap.c"
  27              		.loc 1 69 0
  28              		.cfi_startproc
  29              		@ args = 0, pretend = 0, frame = 8
  30              		@ frame_needed = 0, uses_anonymous_args = 0
  31 0000 70B5     		push	{r4, r5, r6, lr}
  32              	.LCFI0:
  33              		.cfi_def_cfa_offset 16
  34              		.cfi_offset 14, -4
  35              		.cfi_offset 6, -8
  36              		.cfi_offset 5, -12
  37              		.cfi_offset 4, -16
  38 0002 82B0     		sub	sp, sp, #8
  39              	.LCFI1:
  40              		.cfi_def_cfa_offset 24
  41              		.loc 1 74 0
  42 0004 FFF7FEFF 		bl	chCoreStatus
  43              		.loc 1 80 0
  44 0008 01A9     		add	r1, sp, #4
  45 000a 0020     		movs	r0, #0
  46 000c FFF7FEFF 		bl	chHeapStatus
  47              		.loc 1 81 0
  48 0010 1021     		movs	r1, #16
  49 0012 0020     		movs	r0, #0
  50 0014 FFF7FEFF 		bl	chHeapAlloc
  51              		.loc 1 82 0
  52 0018 011C     		adds	r1, r0, #0
  53 001a 18BF     		it	ne
  54 001c 0121     		movne	r1, #1
  55              		.loc 1 81 0
  56 001e 0446     		mov	r4, r0
  57              	.LVL0:
ARM GAS  /tmp/ccV33Meo.s 			page 2


  58              		.loc 1 82 0
  59 0020 0120     		movs	r0, #1
  60              	.LVL1:
  61 0022 FFF7FEFF 		bl	_test_assert
  62 0026 0546     		mov	r5, r0
  63 0028 08B1     		cbz	r0, .L7
  64              	.LVL2:
  65              	.L1:
  66              		.loc 1 140 0
  67 002a 02B0     		add	sp, sp, #8
  68 002c 70BD     		pop	{r4, r5, r6, pc}
  69              	.LVL3:
  70              	.L7:
  71              		.loc 1 83 0
  72 002e 2046     		mov	r0, r4
  73 0030 FFF7FEFF 		bl	chHeapFree
  74              		.loc 1 84 0
  75 0034 6FF0FF01 		mvn	r1, #255
  76 0038 2846     		mov	r0, r5
  77 003a FFF7FEFF 		bl	chHeapAlloc
  78              	.LVL4:
  79              		.loc 1 85 0
  80 003e D0F10101 		rsbs	r1, r0, #1
  81 0042 38BF     		it	cc
  82 0044 0021     		movcc	r1, #0
  83 0046 0220     		movs	r0, #2
  84              	.LVL5:
  85 0048 FFF7FEFF 		bl	_test_assert
  86 004c 0028     		cmp	r0, #0
  87 004e ECD1     		bne	.L1
  88              		.loc 1 88 0
  89 0050 01A9     		add	r1, sp, #4
  90 0052 8248     		ldr	r0, .L8
  91 0054 FFF7FEFF 		bl	chHeapStatus
  92              		.loc 1 91 0
  93 0058 1021     		movs	r1, #16
  94 005a 8048     		ldr	r0, .L8
  95 005c FFF7FEFF 		bl	chHeapAlloc
  96              		.loc 1 92 0
  97 0060 1021     		movs	r1, #16
  98              		.loc 1 91 0
  99 0062 0546     		mov	r5, r0
 100              	.LVL6:
 101              		.loc 1 92 0
 102 0064 7D48     		ldr	r0, .L8
 103              	.LVL7:
 104 0066 FFF7FEFF 		bl	chHeapAlloc
 105              		.loc 1 93 0
 106 006a 1021     		movs	r1, #16
 107              		.loc 1 92 0
 108 006c 0446     		mov	r4, r0
 109              	.LVL8:
 110              		.loc 1 93 0
 111 006e 7B48     		ldr	r0, .L8
 112              	.LVL9:
 113 0070 FFF7FEFF 		bl	chHeapAlloc
 114 0074 0646     		mov	r6, r0
ARM GAS  /tmp/ccV33Meo.s 			page 3


 115              	.LVL10:
 116              		.loc 1 94 0
 117 0076 2846     		mov	r0, r5
 118              	.LVL11:
 119 0078 FFF7FEFF 		bl	chHeapFree
 120              		.loc 1 95 0
 121 007c 2046     		mov	r0, r4
 122 007e FFF7FEFF 		bl	chHeapFree
 123              		.loc 1 96 0
 124 0082 3046     		mov	r0, r6
 125 0084 FFF7FEFF 		bl	chHeapFree
 126              		.loc 1 97 0
 127 0088 6946     		mov	r1, sp
 128 008a 7448     		ldr	r0, .L8
 129 008c FFF7FEFF 		bl	chHeapStatus
 130 0090 A0F10100 		sub	r0, r0, #1
 131 0094 4142     		rsbs	r1, r0, #0
 132 0096 41EB0001 		adc	r1, r1, r0
 133 009a 0320     		movs	r0, #3
 134 009c FFF7FEFF 		bl	_test_assert
 135 00a0 0028     		cmp	r0, #0
 136 00a2 C2D1     		bne	.L1
 137              		.loc 1 100 0
 138 00a4 1021     		movs	r1, #16
 139 00a6 6D48     		ldr	r0, .L8
 140 00a8 FFF7FEFF 		bl	chHeapAlloc
 141              		.loc 1 101 0
 142 00ac 1021     		movs	r1, #16
 143              		.loc 1 100 0
 144 00ae 0446     		mov	r4, r0
 145              	.LVL12:
 146              		.loc 1 101 0
 147 00b0 6A48     		ldr	r0, .L8
 148              	.LVL13:
 149 00b2 FFF7FEFF 		bl	chHeapAlloc
 150              		.loc 1 102 0
 151 00b6 1021     		movs	r1, #16
 152              		.loc 1 101 0
 153 00b8 0546     		mov	r5, r0
 154              	.LVL14:
 155              		.loc 1 102 0
 156 00ba 6848     		ldr	r0, .L8
 157              	.LVL15:
 158 00bc FFF7FEFF 		bl	chHeapAlloc
 159              	.LVL16:
 160              		.loc 1 103 0
 161 00c0 FFF7FEFF 		bl	chHeapFree
 162              	.LVL17:
 163              		.loc 1 104 0
 164 00c4 2846     		mov	r0, r5
 165 00c6 FFF7FEFF 		bl	chHeapFree
 166              		.loc 1 105 0
 167 00ca 2046     		mov	r0, r4
 168 00cc FFF7FEFF 		bl	chHeapFree
 169              		.loc 1 106 0
 170 00d0 6946     		mov	r1, sp
 171 00d2 6248     		ldr	r0, .L8
ARM GAS  /tmp/ccV33Meo.s 			page 4


 172 00d4 FFF7FEFF 		bl	chHeapStatus
 173 00d8 A0F10103 		sub	r3, r0, #1
 174 00dc 5A42     		rsbs	r2, r3, #0
 175 00de 42EB0301 		adc	r1, r2, r3
 176 00e2 0420     		movs	r0, #4
 177 00e4 FFF7FEFF 		bl	_test_assert
 178 00e8 0028     		cmp	r0, #0
 179 00ea 9ED1     		bne	.L1
 180              		.loc 1 109 0
 181 00ec 1121     		movs	r1, #17
 182 00ee 5B48     		ldr	r0, .L8
 183 00f0 FFF7FEFF 		bl	chHeapAlloc
 184              		.loc 1 110 0
 185 00f4 1021     		movs	r1, #16
 186              		.loc 1 109 0
 187 00f6 0446     		mov	r4, r0
 188              	.LVL18:
 189              		.loc 1 110 0
 190 00f8 5848     		ldr	r0, .L8
 191              	.LVL19:
 192 00fa FFF7FEFF 		bl	chHeapAlloc
 193 00fe 0546     		mov	r5, r0
 194              	.LVL20:
 195              		.loc 1 111 0
 196 0100 2046     		mov	r0, r4
 197              	.LVL21:
 198 0102 FFF7FEFF 		bl	chHeapFree
 199              		.loc 1 112 0
 200 0106 6946     		mov	r1, sp
 201 0108 5448     		ldr	r0, .L8
 202 010a FFF7FEFF 		bl	chHeapStatus
 203 010e A0F10201 		sub	r1, r0, #2
 204 0112 D1F1000C 		rsbs	ip, r1, #0
 205 0116 4CEB0101 		adc	r1, ip, r1
 206 011a 0520     		movs	r0, #5
 207 011c FFF7FEFF 		bl	_test_assert
 208 0120 0028     		cmp	r0, #0
 209 0122 82D1     		bne	.L1
 210              		.loc 1 113 0
 211 0124 1021     		movs	r1, #16
 212 0126 4D48     		ldr	r0, .L8
 213 0128 FFF7FEFF 		bl	chHeapAlloc
 214              		.loc 1 116 0
 215 012c 6946     		mov	r1, sp
 216              		.loc 1 113 0
 217 012e 0446     		mov	r4, r0
 218              	.LVL22:
 219              		.loc 1 116 0
 220 0130 4A48     		ldr	r0, .L8
 221              	.LVL23:
 222 0132 FFF7FEFF 		bl	chHeapStatus
 223 0136 0128     		cmp	r0, #1
 224 0138 00F08E80 		beq	.L4
 225              		.loc 1 116 0 is_stmt 0 discriminator 2
 226 013c 6946     		mov	r1, sp
 227 013e 4748     		ldr	r0, .L8
 228 0140 FFF7FEFF 		bl	chHeapStatus
ARM GAS  /tmp/ccV33Meo.s 			page 5


 229 0144 A0F10202 		sub	r2, r0, #2
 230 0148 5042     		rsbs	r0, r2, #0
 231 014a 40EB0201 		adc	r1, r0, r2
 232              	.L3:
 233              		.loc 1 116 0 discriminator 4
 234 014e 0620     		movs	r0, #6
 235 0150 FFF7FEFF 		bl	_test_assert
 236 0154 0028     		cmp	r0, #0
 237 0156 7FF468AF 		bne	.L1
 238              		.loc 1 118 0 is_stmt 1
 239 015a 2846     		mov	r0, r5
 240 015c FFF7FEFF 		bl	chHeapFree
 241              		.loc 1 119 0
 242 0160 2046     		mov	r0, r4
 243 0162 FFF7FEFF 		bl	chHeapFree
 244              		.loc 1 120 0
 245 0166 6946     		mov	r1, sp
 246 0168 3C48     		ldr	r0, .L8
 247 016a FFF7FEFF 		bl	chHeapStatus
 248 016e A0F10101 		sub	r1, r0, #1
 249 0172 4B42     		rsbs	r3, r1, #0
 250 0174 43EB0101 		adc	r1, r3, r1
 251 0178 0720     		movs	r0, #7
 252 017a FFF7FEFF 		bl	_test_assert
 253 017e 0028     		cmp	r0, #0
 254 0180 7FF453AF 		bne	.L1
 255              		.loc 1 123 0
 256 0184 1021     		movs	r1, #16
 257 0186 3548     		ldr	r0, .L8
 258 0188 FFF7FEFF 		bl	chHeapAlloc
 259              		.loc 1 124 0
 260 018c 1021     		movs	r1, #16
 261              		.loc 1 123 0
 262 018e 0546     		mov	r5, r0
 263              	.LVL24:
 264              		.loc 1 124 0
 265 0190 3248     		ldr	r0, .L8
 266              	.LVL25:
 267 0192 FFF7FEFF 		bl	chHeapAlloc
 268 0196 0446     		mov	r4, r0
 269              	.LVL26:
 270              		.loc 1 125 0
 271 0198 2846     		mov	r0, r5
 272              	.LVL27:
 273 019a FFF7FEFF 		bl	chHeapFree
 274              		.loc 1 126 0
 275 019e 6946     		mov	r1, sp
 276 01a0 2E48     		ldr	r0, .L8
 277 01a2 FFF7FEFF 		bl	chHeapStatus
 278 01a6 A0F10202 		sub	r2, r0, #2
 279 01aa 5042     		rsbs	r0, r2, #0
 280 01ac 40EB0201 		adc	r1, r0, r2
 281 01b0 0820     		movs	r0, #8
 282 01b2 FFF7FEFF 		bl	_test_assert
 283 01b6 0028     		cmp	r0, #0
 284 01b8 7FF437AF 		bne	.L1
 285              		.loc 1 127 0
ARM GAS  /tmp/ccV33Meo.s 			page 6


 286 01bc 2021     		movs	r1, #32
 287 01be 2748     		ldr	r0, .L8
 288 01c0 FFF7FEFF 		bl	chHeapAlloc
 289              	.LVL28:
 290              		.loc 1 128 0
 291 01c4 FFF7FEFF 		bl	chHeapFree
 292              	.LVL29:
 293              		.loc 1 129 0
 294 01c8 2046     		mov	r0, r4
 295 01ca FFF7FEFF 		bl	chHeapFree
 296              		.loc 1 130 0
 297 01ce 6946     		mov	r1, sp
 298 01d0 2248     		ldr	r0, .L8
 299 01d2 FFF7FEFF 		bl	chHeapStatus
 300 01d6 A0F10101 		sub	r1, r0, #1
 301 01da 4B42     		rsbs	r3, r1, #0
 302 01dc 43EB0101 		adc	r1, r3, r1
 303 01e0 0920     		movs	r0, #9
 304 01e2 FFF7FEFF 		bl	_test_assert
 305 01e6 0028     		cmp	r0, #0
 306 01e8 7FF41FAF 		bne	.L1
 307              		.loc 1 133 0
 308 01ec 6946     		mov	r1, sp
 309 01ee 1B48     		ldr	r0, .L8
 310 01f0 FFF7FEFF 		bl	chHeapStatus
 311              	.LVL30:
 312              		.loc 1 134 0
 313 01f4 0099     		ldr	r1, [sp, #0]
 314 01f6 1948     		ldr	r0, .L8
 315 01f8 FFF7FEFF 		bl	chHeapAlloc
 316              		.loc 1 135 0
 317 01fc 6946     		mov	r1, sp
 318              		.loc 1 134 0
 319 01fe 0446     		mov	r4, r0
 320              	.LVL31:
 321              		.loc 1 135 0
 322 0200 1648     		ldr	r0, .L8
 323              	.LVL32:
 324 0202 FFF7FEFF 		bl	chHeapStatus
 325 0206 D0F10101 		rsbs	r1, r0, #1
 326 020a 38BF     		it	cc
 327 020c 0021     		movcc	r1, #0
 328 020e 0A20     		movs	r0, #10
 329 0210 FFF7FEFF 		bl	_test_assert
 330 0214 0028     		cmp	r0, #0
 331 0216 7FF408AF 		bne	.L1
 332              		.loc 1 136 0
 333 021a 2046     		mov	r0, r4
 334 021c FFF7FEFF 		bl	chHeapFree
 335              		.loc 1 138 0
 336 0220 6946     		mov	r1, sp
 337 0222 0E48     		ldr	r0, .L8
 338 0224 FFF7FEFF 		bl	chHeapStatus
 339 0228 A0F1010C 		sub	ip, r0, #1
 340 022c DCF10000 		rsbs	r0, ip, #0
 341 0230 40EB0C01 		adc	r1, r0, ip
 342 0234 0B20     		movs	r0, #11
ARM GAS  /tmp/ccV33Meo.s 			page 7


 343 0236 FFF7FEFF 		bl	_test_assert
 344 023a 0028     		cmp	r0, #0
 345 023c 7FF4F5AE 		bne	.L1
 346              	.LVL33:
 347              		.loc 1 139 0
 348 0240 9DE80A00 		ldmia	sp, {r1, r3}
 349 0244 C3EB010E 		rsb	lr, r3, r1
 350 0248 DEF10002 		rsbs	r2, lr, #0
 351 024c 42EB0E01 		adc	r1, r2, lr
 352 0250 0C20     		movs	r0, #12
 353 0252 FFF7FEFF 		bl	_test_assert
 354 0256 E8E6     		b	.L1
 355              	.LVL34:
 356              	.L4:
 357              		.loc 1 116 0
 358 0258 0146     		mov	r1, r0
 359 025a 78E7     		b	.L3
 360              	.L9:
 361              		.align	2
 362              	.L8:
 363 025c 00000000 		.word	.LANCHOR0
 364              		.cfi_endproc
 365              	.LFE8:
 366              		.size	heap1_execute, .-heap1_execute
 367              		.section	.text.heap1_setup,"ax",%progbits
 368              		.align	2
 369              		.p2align 4,,15
 370              		.thumb
 371              		.thumb_func
 372              		.type	heap1_setup, %function
 373              	heap1_setup:
 374              	.LFB7:
 375              		.loc 1 64 0
 376              		.cfi_startproc
 377              		@ args = 0, pretend = 0, frame = 0
 378              		@ frame_needed = 0, uses_anonymous_args = 0
 379              		@ link register save eliminated.
 380              		.loc 1 66 0
 381 0000 40F20000 		movw	r0, #:lower16:.LANCHOR0
 382 0004 40F20001 		movw	r1, #:lower16:test
 383 0008 C0F20001 		movt	r1, #:upper16:test
 384 000c C0F20000 		movt	r0, #:upper16:.LANCHOR0
 385 0010 4FF42562 		mov	r2, #2640
 386              		.loc 1 67 0
 387              		.loc 1 66 0
 388 0014 FFF7FEBF 		b	chHeapInit
 389              		.cfi_endproc
 390              	.LFE7:
 391              		.size	heap1_setup, .-heap1_setup
 392              		.global	patternheap
 393              		.global	testheap1
 394 0018 AFF30080 		.section	.rodata.patternheap,"a",%progbits
 394      AFF30080 
 395              		.align	2
 396              		.type	patternheap, %object
 397              		.size	patternheap, 8
 398              	patternheap:
ARM GAS  /tmp/ccV33Meo.s 			page 8


 399 0000 00000000 		.word	testheap1
 400 0004 00000000 		.word	0
 401              		.section	.rodata.str1.4,"aMS",%progbits,1
 402              		.align	2
 403              	.LC0:
 404 0000 48656170 		.ascii	"Heap, allocation and fragmentation test\000"
 404      2C20616C 
 404      6C6F6361 
 404      74696F6E 
 404      20616E64 
 405              		.section	.rodata.testheap1,"a",%progbits
 406              		.align	2
 407              		.type	testheap1, %object
 408              		.size	testheap1, 16
 409              	testheap1:
 410 0000 00000000 		.word	.LC0
 411 0004 00000000 		.word	heap1_setup
 412 0008 00000000 		.word	0
 413 000c 00000000 		.word	heap1_execute
 414              		.section	.bss.test_heap,"aw",%nobits
 415              		.align	3
 416              		.set	.LANCHOR0,. + 0
 417              		.type	test_heap, %object
 418              		.size	test_heap, 32
 419              	test_heap:
 420 0000 00000000 		.space	32
 420      00000000 
 420      00000000 
 420      00000000 
 420      00000000 
 421              		.text
 422              	.Letext0:
 423              		.file 2 "/home/tino/ChibiStudio/tools/GNU Tools ARM Embedded/4.6 2012q2/bin/../lib/gcc/arm-none-ea
 424              		.file 3 "/home/tino/ChibiStudio/tools/GNU Tools ARM Embedded/4.6 2012q2/bin/../lib/gcc/arm-none-ea
 425              		.file 4 "../../ChibiOS/os/ports/GCC/ARMCMx/chtypes.h"
 426              		.file 5 "../../ChibiOS/os/kernel/include/chlists.h"
 427              		.file 6 "../../ChibiOS/os/kernel/include/chthreads.h"
 428              		.file 7 "../../ChibiOS/os/ports/GCC/ARMCMx/chcore_v7m.h"
 429              		.file 8 "../../ChibiOS/os/kernel/include/chmtx.h"
 430              		.file 9 "../../ChibiOS/os/kernel/include/chmemcore.h"
 431              		.file 10 "../../ChibiOS/os/kernel/include/chheap.h"
 432              		.file 11 "../../ChibiOS/test/test.h"