ARM GAS  /tmp/ccltjQLK.s 			page 1


   1              		.syntax unified
   2              		.cpu cortex-m3
   3              		.fpu softvfp
   4              		.eabi_attribute 20, 1
   5              		.eabi_attribute 21, 1
   6              		.eabi_attribute 23, 3
   7              		.eabi_attribute 24, 1
   8              		.eabi_attribute 25, 1
   9              		.eabi_attribute 26, 1
  10              		.eabi_attribute 30, 2
  11              		.eabi_attribute 34, 1
  12              		.eabi_attribute 18, 4
  13              		.thumb
  14              		.file	"test.c"
  15              		.text
  16              	.Ltext0:
  17              		.cfi_sections	.debug_frame
  18              		.section	.text.tmr,"ax",%progbits
  19              		.align	2
  20              		.p2align 4,,15
  21              		.thumb
  22              		.thumb_func
  23              		.type	tmr, %function
  24              	tmr:
  25              	.LFB77:
  26              		.file 1 "../../ChibiOS/test/test.c"
  27              		.loc 1 261 0
  28              		.cfi_startproc
  29              		@ args = 0, pretend = 0, frame = 0
  30              		@ frame_needed = 0, uses_anonymous_args = 0
  31              		@ link register save eliminated.
  32              	.LVL0:
  33              		.loc 1 264 0
  34 0000 40F20003 		movw	r3, #:lower16:.LANCHOR0
  35 0004 C0F20003 		movt	r3, #:upper16:.LANCHOR0
  36 0008 0122     		movs	r2, #1
  37 000a 1A70     		strb	r2, [r3, #0]
  38              		.loc 1 265 0
  39 000c 7047     		bx	lr
  40              		.cfi_endproc
  41              	.LFE77:
  42              		.size	tmr, .-tmr
  43 000e 00BF     		.section	.text.test_printn,"ax",%progbits
  44              		.align	2
  45              		.p2align 4,,15
  46              		.global	test_printn
  47              		.thumb
  48              		.thumb_func
  49              		.type	test_printn, %function
  50              	test_printn:
  51              	.LFB63:
  52              		.loc 1 91 0
  53              		.cfi_startproc
  54              		@ args = 0, pretend = 0, frame = 16
  55              		@ frame_needed = 0, uses_anonymous_args = 0
  56              	.LVL1:
  57 0000 F0B5     		push	{r4, r5, r6, r7, lr}
ARM GAS  /tmp/ccltjQLK.s 			page 2


  58              	.LCFI0:
  59              		.cfi_def_cfa_offset 20
  60              		.cfi_offset 14, -4
  61              		.cfi_offset 7, -8
  62              		.cfi_offset 6, -12
  63              		.cfi_offset 5, -16
  64              		.cfi_offset 4, -20
  65 0002 85B0     		sub	sp, sp, #20
  66              	.LCFI1:
  67              		.cfi_def_cfa_offset 40
  68              		.loc 1 94 0
  69 0004 0028     		cmp	r0, #0
  70 0006 3DD0     		beq	.L15
  71              		.loc 1 99 0
  72 0008 4CF6CD41 		movw	r1, #52429
  73              	.LBB24:
  74              	.LBB25:
  75              		.loc 1 97 0
  76 000c 6E46     		mov	r6, sp
  77              	.LBE25:
  78              	.LBE24:
  79              		.loc 1 94 0
  80 000e 6F46     		mov	r7, sp
  81              		.loc 1 99 0
  82 0010 CCF6CC41 		movt	r1, 52428
  83              	.LVL2:
  84              	.L5:
  85 0014 A1FB0023 		umull	r2, r3, r1, r0
  86 0018 DB08     		lsrs	r3, r3, #3
  87 001a 03EB8302 		add	r2, r3, r3, lsl #2
  88 001e A0EB420C 		sub	ip, r0, r2, lsl #1
  89 0022 0CF13002 		add	r2, ip, #48
  90              		.loc 1 98 0
  91 0026 1846     		mov	r0, r3
  92              		.loc 1 99 0
  93 0028 07F8012B 		strb	r2, [r7], #1
  94              	.LVL3:
  95              		.loc 1 98 0
  96 002c 002B     		cmp	r3, #0
  97 002e F1D1     		bne	.L5
  98              		.loc 1 100 0
  99 0030 B742     		cmp	r7, r6
 100 0032 25D9     		bls	.L2
 101 0034 174D     		ldr	r5, .L16
 102              		.loc 1 101 0
 103 0036 3C46     		mov	r4, r7
 104 0038 2868     		ldr	r0, [r5, #0]
 105              	.LVL4:
 106 003a 14F8011D 		ldrb	r1, [r4, #-1]!	@ zero_extendqisi2
 107 003e 0368     		ldr	r3, [r0, #0]
 108              	.LVL5:
 109 0040 F21B     		subs	r2, r6, r7
 110 0042 D743     		mvns	r7, r2
 111 0044 9A68     		ldr	r2, [r3, #8]
 112 0046 9047     		blx	r2
 113              		.loc 1 100 0
 114 0048 B442     		cmp	r4, r6
ARM GAS  /tmp/ccltjQLK.s 			page 3


 115 004a 07F00107 		and	r7, r7, #1
 116 004e 17D0     		beq	.L2
 117 0050 3FB1     		cbz	r7, .L6
 118              		.loc 1 101 0
 119 0052 2868     		ldr	r0, [r5, #0]
 120 0054 14F8011D 		ldrb	r1, [r4, #-1]!	@ zero_extendqisi2
 121 0058 0268     		ldr	r2, [r0, #0]
 122 005a 9368     		ldr	r3, [r2, #8]
 123 005c 9847     		blx	r3
 124              		.loc 1 100 0
 125 005e B442     		cmp	r4, r6
 126 0060 0ED0     		beq	.L2
 127              	.L6:
 128              		.loc 1 101 0
 129 0062 2868     		ldr	r0, [r5, #0]
 130 0064 14F8011C 		ldrb	r1, [r4, #-1]	@ zero_extendqisi2
 131 0068 0268     		ldr	r2, [r0, #0]
 132 006a 9368     		ldr	r3, [r2, #8]
 133 006c 9847     		blx	r3
 134 006e 2868     		ldr	r0, [r5, #0]
 135 0070 14F8021C 		ldrb	r1, [r4, #-2]	@ zero_extendqisi2
 136 0074 0268     		ldr	r2, [r0, #0]
 137 0076 023C     		subs	r4, r4, #2
 138 0078 9368     		ldr	r3, [r2, #8]
 139 007a 9847     		blx	r3
 140              		.loc 1 100 0
 141 007c B442     		cmp	r4, r6
 142 007e F0D1     		bne	.L6
 143              	.L2:
 144              		.loc 1 103 0
 145 0080 05B0     		add	sp, sp, #20
 146 0082 F0BD     		pop	{r4, r5, r6, r7, pc}
 147              	.LVL6:
 148              	.L15:
 149              	.LBB27:
 150              	.LBB26:
 151              		.loc 1 95 0
 152 0084 0348     		ldr	r0, .L16
 153              	.LVL7:
 154 0086 0068     		ldr	r0, [r0, #0]
 155 0088 0168     		ldr	r1, [r0, #0]
 156 008a 8B68     		ldr	r3, [r1, #8]
 157 008c 3021     		movs	r1, #48
 158 008e 9847     		blx	r3
 159 0090 F6E7     		b	.L2
 160              	.L17:
 161 0092 00BF     		.align	2
 162              	.L16:
 163 0094 00000000 		.word	.LANCHOR1
 164              	.LBE26:
 165              	.LBE27:
 166              		.cfi_endproc
 167              	.LFE63:
 168              		.size	test_printn, .-test_printn
 169 0098 AFF30080 		.section	.text.test_print,"ax",%progbits
 169      AFF30080 
 170              		.align	2
ARM GAS  /tmp/ccltjQLK.s 			page 4


 171              		.p2align 4,,15
 172              		.global	test_print
 173              		.thumb
 174              		.thumb_func
 175              		.type	test_print, %function
 176              	test_print:
 177              	.LFB64:
 178              		.loc 1 110 0
 179              		.cfi_startproc
 180              		@ args = 0, pretend = 0, frame = 0
 181              		@ frame_needed = 0, uses_anonymous_args = 0
 182              	.LVL8:
 183 0000 38B5     		push	{r3, r4, r5, lr}
 184              	.LCFI2:
 185              		.cfi_def_cfa_offset 16
 186              		.cfi_offset 14, -4
 187              		.cfi_offset 5, -8
 188              		.cfi_offset 4, -12
 189              		.cfi_offset 3, -16
 190              		.loc 1 112 0
 191 0002 0178     		ldrb	r1, [r0, #0]	@ zero_extendqisi2
 192 0004 49B1     		cbz	r1, .L18
 193 0006 054D     		ldr	r5, .L22
 194 0008 0446     		mov	r4, r0
 195              	.LVL9:
 196              	.L20:
 197              		.loc 1 113 0
 198 000a 2868     		ldr	r0, [r5, #0]
 199 000c 0268     		ldr	r2, [r0, #0]
 200 000e 9368     		ldr	r3, [r2, #8]
 201 0010 9847     		blx	r3
 202              		.loc 1 112 0
 203 0012 14F8011F 		ldrb	r1, [r4, #1]!	@ zero_extendqisi2
 204 0016 0029     		cmp	r1, #0
 205 0018 F7D1     		bne	.L20
 206              	.L18:
 207 001a 38BD     		pop	{r3, r4, r5, pc}
 208              	.L23:
 209              		.align	2
 210              	.L22:
 211 001c 00000000 		.word	.LANCHOR1
 212              		.cfi_endproc
 213              	.LFE64:
 214              		.size	test_print, .-test_print
 215              		.section	.text.test_println,"ax",%progbits
 216              		.align	2
 217              		.p2align 4,,15
 218              		.global	test_println
 219              		.thumb
 220              		.thumb_func
 221              		.type	test_println, %function
 222              	test_println:
 223              	.LFB65:
 224              		.loc 1 121 0
 225              		.cfi_startproc
 226              		@ args = 0, pretend = 0, frame = 0
 227              		@ frame_needed = 0, uses_anonymous_args = 0
ARM GAS  /tmp/ccltjQLK.s 			page 5


 228              	.LVL10:
 229 0000 38B5     		push	{r3, r4, r5, lr}
 230              	.LCFI3:
 231              		.cfi_def_cfa_offset 16
 232              		.cfi_offset 14, -4
 233              		.cfi_offset 5, -8
 234              		.cfi_offset 4, -12
 235              		.cfi_offset 3, -16
 236              	.LBB30:
 237              	.LBB31:
 238              		.loc 1 112 0
 239 0002 0178     		ldrb	r1, [r0, #0]	@ zero_extendqisi2
 240 0004 084D     		ldr	r5, .L30
 241 0006 41B1     		cbz	r1, .L25
 242 0008 0446     		mov	r4, r0
 243              	.LVL11:
 244              	.L26:
 245              		.loc 1 113 0
 246 000a 2868     		ldr	r0, [r5, #0]
 247 000c 0268     		ldr	r2, [r0, #0]
 248 000e 9368     		ldr	r3, [r2, #8]
 249 0010 9847     		blx	r3
 250              		.loc 1 112 0
 251 0012 14F8011F 		ldrb	r1, [r4, #1]!	@ zero_extendqisi2
 252 0016 0029     		cmp	r1, #0
 253 0018 F7D1     		bne	.L26
 254              	.L25:
 255              	.LBE31:
 256              	.LBE30:
 257              		.loc 1 124 0
 258 001a 2868     		ldr	r0, [r5, #0]
 259 001c 0222     		movs	r2, #2
 260 001e 0168     		ldr	r1, [r0, #0]
 261 0020 0B68     		ldr	r3, [r1, #0]
 262 0022 0249     		ldr	r1, .L30+4
 263 0024 9847     		blx	r3
 264              		.loc 1 125 0
 265 0026 38BD     		pop	{r3, r4, r5, pc}
 266              	.L31:
 267              		.align	2
 268              	.L30:
 269 0028 00000000 		.word	.LANCHOR1
 270 002c 00000000 		.word	.LC0
 271              		.cfi_endproc
 272              	.LFE65:
 273              		.size	test_println, .-test_println
 274              		.section	.text.test_emit_token,"ax",%progbits
 275              		.align	2
 276              		.p2align 4,,15
 277              		.global	test_emit_token
 278              		.thumb
 279              		.thumb_func
 280              		.type	test_emit_token, %function
 281              	test_emit_token:
 282              	.LFB68:
 283              		.loc 1 147 0
 284              		.cfi_startproc
ARM GAS  /tmp/ccltjQLK.s 			page 6


 285              		@ args = 0, pretend = 0, frame = 0
 286              		@ frame_needed = 0, uses_anonymous_args = 0
 287              	.LVL12:
 288 0000 10B5     		push	{r4, lr}
 289              	.LCFI4:
 290              		.cfi_def_cfa_offset 8
 291              		.cfi_offset 14, -4
 292              		.cfi_offset 4, -8
 293              	.LBB32:
 294              		.loc 1 149 0
 295 0002 2023     		movs	r3, #32
 296              	.LVL13:
 297              	.LBE32:
 298              		.loc 1 147 0
 299 0004 0446     		mov	r4, r0
 300              	.LBB33:
 301              		.loc 1 149 0
 302              	@ 149 "../../ChibiOS/test/test.c" 1
 303 0006 83F31188 		msr     BASEPRI, r3
 304              	@ 0 "" 2
 305              	.LVL14:
 306              		.thumb
 307              	.LBE33:
 308 000a FFF7FEFF 		bl	dbg_check_lock
 309              	.LVL15:
 310              		.loc 1 150 0
 311 000e 40F20003 		movw	r3, #:lower16:.LANCHOR2
 312 0012 C0F20003 		movt	r3, #:upper16:.LANCHOR2
 313 0016 1A68     		ldr	r2, [r3, #0]
 314 0018 02F8014B 		strb	r4, [r2], #1
 315 001c 1A60     		str	r2, [r3, #0]
 316              		.loc 1 151 0
 317 001e FFF7FEFF 		bl	dbg_check_unlock
 318              	.LBB34:
 319 0022 0023     		movs	r3, #0
 320              	.LVL16:
 321              	@ 151 "../../ChibiOS/test/test.c" 1
 322 0024 83F31188 		msr     BASEPRI, r3
 323              	@ 0 "" 2
 324              	.LVL17:
 325              		.thumb
 326              	.LBE34:
 327              		.loc 1 152 0
 328 0028 10BD     		pop	{r4, pc}
 329              		.cfi_endproc
 330              	.LFE68:
 331              		.size	test_emit_token, .-test_emit_token
 332 002a 00BFAFF3 		.section	.text._test_fail,"ax",%progbits
 332      0080
 333              		.align	2
 334              		.p2align 4,,15
 335              		.global	_test_fail
 336              		.thumb
 337              		.thumb_func
 338              		.type	_test_fail, %function
 339              	_test_fail:
 340              	.LFB69:
ARM GAS  /tmp/ccltjQLK.s 			page 7


 341              		.loc 1 157 0
 342              		.cfi_startproc
 343              		@ args = 0, pretend = 0, frame = 0
 344              		@ frame_needed = 0, uses_anonymous_args = 0
 345              		@ link register save eliminated.
 346              	.LVL18:
 347 0000 10B4     		push	{r4}
 348              	.LCFI5:
 349              		.cfi_def_cfa_offset 4
 350              		.cfi_offset 4, -4
 351              		.loc 1 160 0
 352 0002 40F20001 		movw	r1, #:lower16:.LANCHOR4
 353              		.loc 1 159 0
 354 0006 40F20004 		movw	r4, #:lower16:.LANCHOR3
 355              		.loc 1 161 0
 356 000a 40F20002 		movw	r2, #:lower16:.LANCHOR5
 357              		.loc 1 159 0
 358 000e 0123     		movs	r3, #1
 359 0010 C0F20004 		movt	r4, #:upper16:.LANCHOR3
 360              		.loc 1 160 0
 361 0014 C0F20001 		movt	r1, #:upper16:.LANCHOR4
 362              		.loc 1 161 0
 363 0018 C0F20002 		movt	r2, #:upper16:.LANCHOR5
 364 001c 1060     		str	r0, [r2, #0]
 365              		.loc 1 159 0
 366 001e 2370     		strb	r3, [r4, #0]
 367              		.loc 1 160 0
 368 0020 0B70     		strb	r3, [r1, #0]
 369              		.loc 1 163 0
 370 0022 1846     		mov	r0, r3
 371              	.LVL19:
 372 0024 10BC     		pop	{r4}
 373 0026 7047     		bx	lr
 374              		.cfi_endproc
 375              	.LFE69:
 376              		.size	_test_fail, .-_test_fail
 377 0028 AFF30080 		.section	.text._test_assert,"ax",%progbits
 377      AFF30080 
 378              		.align	2
 379              		.p2align 4,,15
 380              		.global	_test_assert
 381              		.thumb
 382              		.thumb_func
 383              		.type	_test_assert, %function
 384              	_test_assert:
 385              	.LFB70:
 386              		.loc 1 165 0
 387              		.cfi_startproc
 388              		@ args = 0, pretend = 0, frame = 0
 389              		@ frame_needed = 0, uses_anonymous_args = 0
 390              		@ link register save eliminated.
 391              	.LVL20:
 392              		.loc 1 167 0
 393 0000 41B9     		cbnz	r1, .L36
 394              	.LVL21:
 395              	.LBB35:
 396              	.LBB36:
ARM GAS  /tmp/ccltjQLK.s 			page 8


 397              		.loc 1 159 0
 398 0002 054A     		ldr	r2, .L37
 399 0004 0123     		movs	r3, #1
 400 0006 1370     		strb	r3, [r2, #0]
 401              		.loc 1 160 0
 402 0008 0449     		ldr	r1, .L37+4
 403              	.LVL22:
 404              		.loc 1 161 0
 405 000a 054A     		ldr	r2, .L37+8
 406              		.loc 1 160 0
 407 000c 0B70     		strb	r3, [r1, #0]
 408              		.loc 1 161 0
 409 000e 1060     		str	r0, [r2, #0]
 410              	.LBE36:
 411              	.LBE35:
 412              		.loc 1 168 0
 413 0010 1846     		mov	r0, r3
 414              	.LVL23:
 415 0012 7047     		bx	lr
 416              	.LVL24:
 417              	.L36:
 418              		.loc 1 169 0
 419 0014 0020     		movs	r0, #0
 420              	.LVL25:
 421              		.loc 1 170 0
 422 0016 7047     		bx	lr
 423              	.L38:
 424              		.align	2
 425              	.L37:
 426 0018 00000000 		.word	.LANCHOR3
 427 001c 00000000 		.word	.LANCHOR4
 428 0020 00000000 		.word	.LANCHOR5
 429              		.cfi_endproc
 430              	.LFE70:
 431              		.size	_test_assert, .-_test_assert
 432 0024 AFF30080 		.section	.text._test_assert_sequence,"ax",%progbits
 432      AFF30080 
 432      AFF30080 
 433              		.align	2
 434              		.p2align 4,,15
 435              		.global	_test_assert_sequence
 436              		.thumb
 437              		.thumb_func
 438              		.type	_test_assert_sequence, %function
 439              	_test_assert_sequence:
 440              	.LFB71:
 441              		.loc 1 172 0
 442              		.cfi_startproc
 443              		@ args = 0, pretend = 0, frame = 0
 444              		@ frame_needed = 0, uses_anonymous_args = 0
 445              		@ link register save eliminated.
 446              	.LVL26:
 447 0000 2DE9F001 		push	{r4, r5, r6, r7, r8}
 448              	.LCFI6:
 449              		.cfi_def_cfa_offset 20
 450              		.cfi_offset 8, -4
 451              		.cfi_offset 7, -8
ARM GAS  /tmp/ccltjQLK.s 			page 9


 452              		.cfi_offset 6, -12
 453              		.cfi_offset 5, -16
 454              		.cfi_offset 4, -20
 455              		.loc 1 181 0
 456 0004 194C     		ldr	r4, .L55
 457              		.loc 1 173 0
 458 0006 1A4A     		ldr	r2, .L55+4
 459              		.loc 1 181 0
 460 0008 2368     		ldr	r3, [r4, #0]
 461              		.loc 1 173 0
 462 000a 1646     		mov	r6, r2
 463 000c 9D1A     		subs	r5, r3, r2
 464 000e 15F0010F 		tst	r5, #1
 465 0012 15D0     		beq	.L40
 466              	.LVL27:
 467              		.loc 1 174 0
 468 0014 9342     		cmp	r3, r2
 469 0016 18D9     		bls	.L52
 470              		.loc 1 175 0
 471 0018 11F8015B 		ldrb	r5, [r1], #1	@ zero_extendqisi2
 472              	.LVL28:
 473 001c 1778     		ldrb	r7, [r2, #0]	@ zero_extendqisi2
 474              		.loc 1 174 0
 475 001e 561C     		adds	r6, r2, #1
 476              		.loc 1 175 0
 477 0020 AF42     		cmp	r7, r5
 478 0022 0DD0     		beq	.L40
 479 0024 16E0     		b	.L54
 480              	.L42:
 481 0026 96F80080 		ldrb	r8, [r6, #0]	@ zero_extendqisi2
 482 002a 15F801CB 		ldrb	ip, [r5], #1	@ zero_extendqisi2
 483              		.loc 1 174 0
 484 002e 7E1C     		adds	r6, r7, #1
 485              		.loc 1 175 0
 486 0030 E045     		cmp	r8, ip
 487 0032 0FD1     		bne	.L54
 488              	.LVL29:
 489 0034 91F801C0 		ldrb	ip, [r1, #1]	@ zero_extendqisi2
 490 0038 3F78     		ldrb	r7, [r7, #0]	@ zero_extendqisi2
 491 003a 691C     		adds	r1, r5, #1
 492              	.LVL30:
 493 003c 6745     		cmp	r7, ip
 494 003e 09D1     		bne	.L54
 495              	.L40:
 496              		.loc 1 174 0 discriminator 1
 497 0040 B342     		cmp	r3, r6
 498              		.loc 1 175 0 discriminator 1
 499 0042 0D46     		mov	r5, r1
 500              		.loc 1 174 0 discriminator 1
 501 0044 06F10107 		add	r7, r6, #1
 502 0048 EDD8     		bhi	.L42
 503              	.L52:
 504              		.loc 1 178 0
 505 004a 0B78     		ldrb	r3, [r1, #0]	@ zero_extendqisi2
 506 004c 13B9     		cbnz	r3, .L54
 507              	.LBB37:
 508              	.LBB38:
ARM GAS  /tmp/ccltjQLK.s 			page 10


 509              		.loc 1 132 0
 510 004e 2260     		str	r2, [r4, #0]
 511              	.LBE38:
 512              	.LBE37:
 513              		.loc 1 181 0
 514 0050 1846     		mov	r0, r3
 515              	.LVL31:
 516 0052 07E0     		b	.L41
 517              	.LVL32:
 518              	.L54:
 519              	.LBB39:
 520              	.LBB40:
 521              		.loc 1 159 0
 522 0054 074A     		ldr	r2, .L55+8
 523 0056 0123     		movs	r3, #1
 524 0058 1370     		strb	r3, [r2, #0]
 525              		.loc 1 160 0
 526 005a 0749     		ldr	r1, .L55+12
 527              		.loc 1 161 0
 528 005c 074A     		ldr	r2, .L55+16
 529              		.loc 1 160 0
 530 005e 0B70     		strb	r3, [r1, #0]
 531              		.loc 1 161 0
 532 0060 1060     		str	r0, [r2, #0]
 533              	.LBE40:
 534              	.LBE39:
 535              		.loc 1 179 0
 536 0062 1846     		mov	r0, r3
 537              	.LVL33:
 538              	.L41:
 539              		.loc 1 182 0
 540 0064 BDE8F001 		pop	{r4, r5, r6, r7, r8}
 541 0068 7047     		bx	lr
 542              	.L56:
 543 006a 00BF     		.align	2
 544              	.L55:
 545 006c 00000000 		.word	.LANCHOR2
 546 0070 00000000 		.word	.LANCHOR6
 547 0074 00000000 		.word	.LANCHOR3
 548 0078 00000000 		.word	.LANCHOR4
 549 007c 00000000 		.word	.LANCHOR5
 550              		.cfi_endproc
 551              	.LFE71:
 552              		.size	_test_assert_sequence, .-_test_assert_sequence
 553              		.section	.text._test_assert_time_window,"ax",%progbits
 554              		.align	2
 555              		.p2align 4,,15
 556              		.global	_test_assert_time_window
 557              		.thumb
 558              		.thumb_func
 559              		.type	_test_assert_time_window, %function
 560              	_test_assert_time_window:
 561              	.LFB72:
 562              		.loc 1 184 0
 563              		.cfi_startproc
 564              		@ args = 0, pretend = 0, frame = 0
 565              		@ frame_needed = 0, uses_anonymous_args = 0
ARM GAS  /tmp/ccltjQLK.s 			page 11


 566              	.LVL34:
 567 0000 0B46     		mov	r3, r1
 568 0002 10B5     		push	{r4, lr}
 569              	.LCFI7:
 570              		.cfi_def_cfa_offset 8
 571              		.cfi_offset 14, -4
 572              		.cfi_offset 4, -8
 573              		.loc 1 186 0
 574 0004 1146     		mov	r1, r2
 575              	.LVL35:
 576              		.loc 1 184 0
 577 0006 0446     		mov	r4, r0
 578              		.loc 1 186 0
 579 0008 1846     		mov	r0, r3
 580              	.LVL36:
 581 000a FFF7FEFF 		bl	chTimeIsWithin
 582              	.LVL37:
 583              	.LBB41:
 584              	.LBB42:
 585              		.loc 1 167 0
 586 000e 38B9     		cbnz	r0, .L59
 587              	.LVL38:
 588              	.LBB43:
 589              	.LBB44:
 590              		.loc 1 159 0
 591 0010 044B     		ldr	r3, .L60
 592              		.loc 1 160 0
 593 0012 054A     		ldr	r2, .L60+4
 594              		.loc 1 161 0
 595 0014 0549     		ldr	r1, .L60+8
 596              		.loc 1 159 0
 597 0016 0120     		movs	r0, #1
 598              	.LVL39:
 599 0018 1870     		strb	r0, [r3, #0]
 600              		.loc 1 160 0
 601 001a 1070     		strb	r0, [r2, #0]
 602              		.loc 1 161 0
 603 001c 0C60     		str	r4, [r1, #0]
 604 001e 10BD     		pop	{r4, pc}
 605              	.LVL40:
 606              	.L59:
 607              	.LBE44:
 608              	.LBE43:
 609              		.loc 1 169 0
 610 0020 0020     		movs	r0, #0
 611              	.LVL41:
 612              	.LBE42:
 613              	.LBE41:
 614              		.loc 1 187 0
 615 0022 10BD     		pop	{r4, pc}
 616              	.L61:
 617              		.align	2
 618              	.L60:
 619 0024 00000000 		.word	.LANCHOR3
 620 0028 00000000 		.word	.LANCHOR4
 621 002c 00000000 		.word	.LANCHOR5
 622              		.cfi_endproc
ARM GAS  /tmp/ccltjQLK.s 			page 12


 623              	.LFE72:
 624              		.size	_test_assert_time_window, .-_test_assert_time_window
 625              		.section	.text.test_terminate_threads,"ax",%progbits
 626              		.align	2
 627              		.p2align 4,,15
 628              		.global	test_terminate_threads
 629              		.thumb
 630              		.thumb_func
 631              		.type	test_terminate_threads, %function
 632              	test_terminate_threads:
 633              	.LFB73:
 634              		.loc 1 196 0
 635              		.cfi_startproc
 636              		@ args = 0, pretend = 0, frame = 0
 637              		@ frame_needed = 0, uses_anonymous_args = 0
 638              	.LVL42:
 639 0000 10B5     		push	{r4, lr}
 640              	.LCFI8:
 641              		.cfi_def_cfa_offset 8
 642              		.cfi_offset 14, -4
 643              		.cfi_offset 4, -8
 644              		.loc 1 200 0
 645 0002 0C4C     		ldr	r4, .L68
 646 0004 2068     		ldr	r0, [r4, #0]
 647 0006 08B1     		cbz	r0, .L63
 648              		.loc 1 201 0
 649 0008 FFF7FEFF 		bl	chThdTerminate
 650              	.L63:
 651              	.LVL43:
 652              		.loc 1 200 0
 653 000c 6068     		ldr	r0, [r4, #4]
 654 000e 08B1     		cbz	r0, .L64
 655              		.loc 1 201 0
 656 0010 FFF7FEFF 		bl	chThdTerminate
 657              	.L64:
 658              	.LVL44:
 659              		.loc 1 200 0
 660 0014 A068     		ldr	r0, [r4, #8]
 661 0016 08B1     		cbz	r0, .L65
 662              		.loc 1 201 0
 663 0018 FFF7FEFF 		bl	chThdTerminate
 664              	.L65:
 665              	.LVL45:
 666              		.loc 1 200 0
 667 001c E068     		ldr	r0, [r4, #12]
 668 001e 08B1     		cbz	r0, .L66
 669              		.loc 1 201 0
 670 0020 FFF7FEFF 		bl	chThdTerminate
 671              	.L66:
 672              	.LVL46:
 673              		.loc 1 200 0
 674 0024 2069     		ldr	r0, [r4, #16]
 675 0026 18B1     		cbz	r0, .L62
 676              		.loc 1 202 0
 677 0028 BDE81040 		pop	{r4, lr}
 678              		.loc 1 201 0
 679 002c FFF7FEBF 		b	chThdTerminate
ARM GAS  /tmp/ccltjQLK.s 			page 13


 680              	.L62:
 681 0030 10BD     		pop	{r4, pc}
 682              	.L69:
 683 0032 00BF     		.align	2
 684              	.L68:
 685 0034 00000000 		.word	.LANCHOR7
 686              		.cfi_endproc
 687              	.LFE73:
 688              		.size	test_terminate_threads, .-test_terminate_threads
 689 0038 AFF30080 		.section	.text.test_wait_threads,"ax",%progbits
 689      AFF30080 
 690              		.align	2
 691              		.p2align 4,,15
 692              		.global	test_wait_threads
 693              		.thumb
 694              		.thumb_func
 695              		.type	test_wait_threads, %function
 696              	test_wait_threads:
 697              	.LFB74:
 698              		.loc 1 207 0
 699              		.cfi_startproc
 700              		@ args = 0, pretend = 0, frame = 0
 701              		@ frame_needed = 0, uses_anonymous_args = 0
 702              	.LVL47:
 703 0000 10B5     		push	{r4, lr}
 704              	.LCFI9:
 705              		.cfi_def_cfa_offset 8
 706              		.cfi_offset 14, -4
 707              		.cfi_offset 4, -8
 708              		.loc 1 211 0
 709 0002 124C     		ldr	r4, .L76
 710 0004 2068     		ldr	r0, [r4, #0]
 711 0006 18B1     		cbz	r0, .L71
 712              		.loc 1 212 0
 713 0008 FFF7FEFF 		bl	chThdWait
 714              		.loc 1 213 0
 715 000c 0023     		movs	r3, #0
 716 000e 2360     		str	r3, [r4, #0]
 717              	.L71:
 718              	.LVL48:
 719              		.loc 1 211 0
 720 0010 6068     		ldr	r0, [r4, #4]
 721 0012 20B1     		cbz	r0, .L72
 722              		.loc 1 212 0
 723 0014 FFF7FEFF 		bl	chThdWait
 724              		.loc 1 213 0
 725 0018 0C48     		ldr	r0, .L76
 726 001a 0022     		movs	r2, #0
 727 001c 4260     		str	r2, [r0, #4]
 728              	.L72:
 729              	.LVL49:
 730              		.loc 1 211 0
 731 001e A068     		ldr	r0, [r4, #8]
 732 0020 20B1     		cbz	r0, .L73
 733              		.loc 1 212 0
 734 0022 FFF7FEFF 		bl	chThdWait
 735              		.loc 1 213 0
ARM GAS  /tmp/ccltjQLK.s 			page 14


 736 0026 094B     		ldr	r3, .L76
 737 0028 0021     		movs	r1, #0
 738 002a 9960     		str	r1, [r3, #8]
 739              	.L73:
 740              	.LVL50:
 741              		.loc 1 211 0
 742 002c E068     		ldr	r0, [r4, #12]
 743 002e 20B1     		cbz	r0, .L74
 744              		.loc 1 212 0
 745 0030 FFF7FEFF 		bl	chThdWait
 746              		.loc 1 213 0
 747 0034 0548     		ldr	r0, .L76
 748 0036 0022     		movs	r2, #0
 749 0038 C260     		str	r2, [r0, #12]
 750              	.L74:
 751              	.LVL51:
 752              		.loc 1 211 0
 753 003a 2069     		ldr	r0, [r4, #16]
 754 003c 20B1     		cbz	r0, .L70
 755              		.loc 1 212 0
 756 003e FFF7FEFF 		bl	chThdWait
 757              		.loc 1 213 0
 758 0042 024B     		ldr	r3, .L76
 759 0044 0021     		movs	r1, #0
 760 0046 1961     		str	r1, [r3, #16]
 761              	.LVL52:
 762              	.L70:
 763 0048 10BD     		pop	{r4, pc}
 764              	.L77:
 765 004a 00BF     		.align	2
 766              	.L76:
 767 004c 00000000 		.word	.LANCHOR7
 768              		.cfi_endproc
 769              	.LFE74:
 770              		.size	test_wait_threads, .-test_wait_threads
 771              		.section	.text.test_cpu_pulse,"ax",%progbits
 772              		.align	2
 773              		.p2align 4,,15
 774              		.global	test_cpu_pulse
 775              		.thumb
 776              		.thumb_func
 777              		.type	test_cpu_pulse, %function
 778              	test_cpu_pulse:
 779              	.LFB75:
 780              		.loc 1 224 0
 781              		.cfi_startproc
 782              		@ args = 0, pretend = 0, frame = 0
 783              		@ frame_needed = 0, uses_anonymous_args = 0
 784              		@ link register save eliminated.
 785              	.LVL53:
 786              		.loc 1 228 0
 787 0000 4FF47A71 		mov	r1, #1000
 788 0004 01FB00F0 		mul	r0, r1, r0
 789              	.LVL54:
 790              		.loc 1 227 0
 791 0008 0D4A     		ldr	r2, .L87
 792              		.loc 1 228 0
ARM GAS  /tmp/ccltjQLK.s 			page 15


 793 000a 44F6D353 		movw	r3, #19923
 794 000e C1F26203 		movt	r3, 4194
 795              		.loc 1 227 0
 796 0012 9269     		ldr	r2, [r2, #24]
 797              		.loc 1 228 0
 798 0014 A0F57A7C 		sub	ip, r0, #1000
 799 0018 A3FB0C10 		umull	r1, r0, r3, ip
 800              		.loc 1 227 0
 801 001c 536A     		ldr	r3, [r2, #36]
 802              	.LVL55:
 803              		.loc 1 228 0
 804 001e 591C     		adds	r1, r3, #1
 805 0020 01EB9010 		add	r0, r1, r0, lsr #6
 806              	.LVL56:
 807 0024 8342     		cmp	r3, r0
 808 0026 05D3     		bcc	.L83
 809              	.L86:
 810              		.loc 1 230 0
 811 0028 516A     		ldr	r1, [r2, #36]
 812              	.LVL57:
 813              		.loc 1 235 0
 814 002a 9942     		cmp	r1, r3
 815 002c FCD2     		bcs	.L86
 816              		.loc 1 236 0
 817 002e 8142     		cmp	r1, r0
 818 0030 FAD3     		bcc	.L86
 819              	.L78:
 820 0032 7047     		bx	lr
 821              	.LVL58:
 822              	.L83:
 823              		.loc 1 230 0
 824 0034 516A     		ldr	r1, [r2, #36]
 825              	.LVL59:
 826              		.loc 1 235 0
 827 0036 8B42     		cmp	r3, r1
 828 0038 FBD8     		bhi	.L78
 829              		.loc 1 235 0 is_stmt 0 discriminator 3
 830 003a 8842     		cmp	r0, r1
 831 003c FAD8     		bhi	.L83
 832 003e 7047     		bx	lr
 833              	.L88:
 834              		.align	2
 835              	.L87:
 836 0040 00000000 		.word	rlist
 837              		.cfi_endproc
 838              	.LFE75:
 839              		.size	test_cpu_pulse, .-test_cpu_pulse
 840 0044 AFF30080 		.section	.text.test_wait_tick,"ax",%progbits
 840      AFF30080 
 840      AFF30080 
 841              		.align	2
 842              		.p2align 4,,15
 843              		.global	test_wait_tick
 844              		.thumb
 845              		.thumb_func
 846              		.type	test_wait_tick, %function
 847              	test_wait_tick:
ARM GAS  /tmp/ccltjQLK.s 			page 16


 848              	.LFB76:
 849              		.loc 1 245 0 is_stmt 1
 850              		.cfi_startproc
 851              		@ args = 0, pretend = 0, frame = 0
 852              		@ frame_needed = 0, uses_anonymous_args = 0
 853 0000 08B5     		push	{r3, lr}
 854              	.LCFI10:
 855              		.cfi_def_cfa_offset 8
 856              		.cfi_offset 14, -4
 857              		.cfi_offset 3, -8
 858              		.loc 1 247 0
 859 0002 0120     		movs	r0, #1
 860 0004 FFF7FEFF 		bl	chThdSleep
 861              		.loc 1 248 0
 862 0008 40F20003 		movw	r3, #:lower16:vtlist
 863 000c C0F20003 		movt	r3, #:upper16:vtlist
 864 0010 D868     		ldr	r0, [r3, #12]
 865              		.loc 1 249 0
 866 0012 08BD     		pop	{r3, pc}
 867              		.cfi_endproc
 868              	.LFE76:
 869              		.size	test_wait_tick, .-test_wait_tick
 870 0014 AFF30080 		.section	.text.test_start_timer,"ax",%progbits
 870      AFF30080 
 870      AFF30080 
 871              		.align	2
 872              		.p2align 4,,15
 873              		.global	test_start_timer
 874              		.thumb
 875              		.thumb_func
 876              		.type	test_start_timer, %function
 877              	test_start_timer:
 878              	.LFB78:
 879              		.loc 1 272 0
 880              		.cfi_startproc
 881              		@ args = 0, pretend = 0, frame = 0
 882              		@ frame_needed = 0, uses_anonymous_args = 0
 883              	.LVL60:
 884 0000 38B5     		push	{r3, r4, r5, lr}
 885              	.LCFI11:
 886              		.cfi_def_cfa_offset 16
 887              		.cfi_offset 14, -4
 888              		.cfi_offset 5, -8
 889              		.cfi_offset 4, -12
 890              		.cfi_offset 3, -16
 891              		.loc 1 275 0
 892 0002 40F20005 		movw	r5, #:lower16:.LANCHOR0
 893 0006 C0F20005 		movt	r5, #:upper16:.LANCHOR0
 894 000a 0024     		movs	r4, #0
 895 000c 2C70     		strb	r4, [r5, #0]
 896              	.LBB45:
 897              		.loc 1 276 0
 898 000e 2023     		movs	r3, #32
 899              	.LVL61:
 900              	.LBE45:
 901              		.loc 1 272 0
 902 0010 0546     		mov	r5, r0
ARM GAS  /tmp/ccltjQLK.s 			page 17


 903              	.LVL62:
 904              	.LBB46:
 905              		.loc 1 276 0
 906              	@ 276 "../../ChibiOS/test/test.c" 1
 907 0012 83F31188 		msr     BASEPRI, r3
 908              	@ 0 "" 2
 909              	.LVL63:
 910              		.thumb
 911              	.LBE46:
 912 0016 FFF7FEFF 		bl	dbg_check_lock
 913              	.LVL64:
 914              		.loc 1 274 0
 915 001a 4FF47A71 		mov	r1, #1000
 916 001e 01FB05FC 		mul	ip, r1, r5
 917 0022 44F6D352 		movw	r2, #19923
 918 0026 ACF57A70 		sub	r0, ip, #1000
 919 002a C1F26202 		movt	r2, 4194
 920 002e A2FB0023 		umull	r2, r3, r2, r0
 921              		.loc 1 276 0
 922 0032 40F20000 		movw	r0, #:lower16:.LANCHOR8
 923              		.loc 1 274 0
 924 0036 9909     		lsrs	r1, r3, #6
 925              		.loc 1 276 0
 926 0038 40F20002 		movw	r2, #:lower16:tmr
 927 003c 2346     		mov	r3, r4
 928 003e C0F20000 		movt	r0, #:upper16:.LANCHOR8
 929              		.loc 1 274 0
 930 0042 0131     		adds	r1, r1, #1
 931              		.loc 1 276 0
 932 0044 C0F20002 		movt	r2, #:upper16:tmr
 933 0048 FFF7FEFF 		bl	chVTSetI
 934 004c FFF7FEFF 		bl	dbg_check_unlock
 935              	.LBB47:
 936 0050 2346     		mov	r3, r4
 937              	.LVL65:
 938              	@ 276 "../../ChibiOS/test/test.c" 1
 939 0052 83F31188 		msr     BASEPRI, r3
 940              	@ 0 "" 2
 941              	.LVL66:
 942              		.thumb
 943              	.LBE47:
 944              		.loc 1 277 0
 945 0056 38BD     		pop	{r3, r4, r5, pc}
 946              		.cfi_endproc
 947              	.LFE78:
 948              		.size	test_start_timer, .-test_start_timer
 949 0058 AFF30080 		.section	.text.TestThread,"ax",%progbits
 949      AFF30080 
 950              		.align	2
 951              		.p2align 4,,15
 952              		.global	TestThread
 953              		.thumb
 954              		.thumb_func
 955              		.type	TestThread, %function
 956              	TestThread:
 957              	.LFB81:
 958              		.loc 1 314 0
ARM GAS  /tmp/ccltjQLK.s 			page 18


 959              		.cfi_startproc
 960              		@ args = 0, pretend = 0, frame = 40
 961              		@ frame_needed = 0, uses_anonymous_args = 0
 962              	.LVL67:
 963 0000 2DE9F04F 		push	{r4, r5, r6, r7, r8, r9, sl, fp, lr}
 964              	.LCFI12:
 965              		.cfi_def_cfa_offset 36
 966              		.cfi_offset 14, -4
 967              		.cfi_offset 11, -8
 968              		.cfi_offset 10, -12
 969              		.cfi_offset 9, -16
 970              		.cfi_offset 8, -20
 971              		.cfi_offset 7, -24
 972              		.cfi_offset 6, -28
 973              		.cfi_offset 5, -32
 974              		.cfi_offset 4, -36
 975              	.LBB174:
 976              	.LBB175:
 977              		.loc 1 124 0
 978 0004 0168     		ldr	r1, [r0, #0]
 979              	.LBE175:
 980              	.LBE174:
 981              		.loc 1 317 0
 982 0006 944C     		ldr	r4, .L222
 983              	.LBB179:
 984              	.LBB176:
 985              		.loc 1 124 0
 986 0008 0B68     		ldr	r3, [r1, #0]
 987              	.LBE176:
 988              	.LBE179:
 989              		.loc 1 314 0
 990 000a 8BB0     		sub	sp, sp, #44
 991              	.LCFI13:
 992              		.cfi_def_cfa_offset 80
 993              	.LBB180:
 994              	.LBB177:
 995              		.loc 1 124 0
 996 000c 9349     		ldr	r1, .L222+4
 997              	.LBE177:
 998              	.LBE180:
 999              		.loc 1 317 0
 1000 000e 2060     		str	r0, [r4, #0]
 1001              	.LVL68:
 1002              	.LBB181:
 1003              	.LBB178:
 1004              		.loc 1 124 0
 1005 0010 0222     		movs	r2, #2
 1006 0012 934D     		ldr	r5, .L222+8
 1007 0014 9847     		blx	r3
 1008              	.LVL69:
 1009              		.loc 1 112 0
 1010 0016 2A21     		movs	r1, #42
 1011              	.LVL70:
 1012              	.L92:
 1013              	.LBE178:
 1014              	.LBE181:
 1015              	.LBB182:
ARM GAS  /tmp/ccltjQLK.s 			page 19


 1016              	.LBB183:
 1017              	.LBB184:
 1018              	.LBB185:
 1019              		.loc 1 113 0
 1020 0018 2068     		ldr	r0, [r4, #0]
 1021 001a 0668     		ldr	r6, [r0, #0]
 1022 001c B268     		ldr	r2, [r6, #8]
 1023 001e 9047     		blx	r2
 1024              		.loc 1 112 0
 1025 0020 15F8011F 		ldrb	r1, [r5, #1]!	@ zero_extendqisi2
 1026 0024 0029     		cmp	r1, #0
 1027 0026 F7D1     		bne	.L92
 1028              	.LBE185:
 1029              	.LBE184:
 1030              		.loc 1 124 0
 1031 0028 8B48     		ldr	r0, .L222
 1032 002a 8C49     		ldr	r1, .L222+4
 1033 002c 0068     		ldr	r0, [r0, #0]
 1034 002e 0222     		movs	r2, #2
 1035 0030 0568     		ldr	r5, [r0, #0]
 1036 0032 2F68     		ldr	r7, [r5, #0]
 1037 0034 8B4D     		ldr	r5, .L222+12
 1038 0036 B847     		blx	r7
 1039              	.LVL71:
 1040              		.loc 1 112 0
 1041 0038 2A21     		movs	r1, #42
 1042              	.LVL72:
 1043              	.L93:
 1044              	.LBE183:
 1045              	.LBE182:
 1046              	.LBB186:
 1047              	.LBB187:
 1048              	.LBB188:
 1049              	.LBB189:
 1050              		.loc 1 113 0
 1051 003a 2068     		ldr	r0, [r4, #0]
 1052 003c 0268     		ldr	r2, [r0, #0]
 1053 003e 9368     		ldr	r3, [r2, #8]
 1054 0040 9847     		blx	r3
 1055              		.loc 1 112 0
 1056 0042 15F8011F 		ldrb	r1, [r5, #1]!	@ zero_extendqisi2
 1057 0046 0029     		cmp	r1, #0
 1058 0048 F7D1     		bne	.L93
 1059              	.LBE189:
 1060              	.LBE188:
 1061              		.loc 1 124 0
 1062 004a 8349     		ldr	r1, .L222
 1063 004c 0222     		movs	r2, #2
 1064 004e 0868     		ldr	r0, [r1, #0]
 1065 0050 854D     		ldr	r5, .L222+16
 1066 0052 0768     		ldr	r7, [r0, #0]
 1067 0054 8149     		ldr	r1, .L222+4
 1068 0056 3E68     		ldr	r6, [r7, #0]
 1069 0058 B047     		blx	r6
 1070              	.LVL73:
 1071              		.loc 1 112 0
 1072 005a 2A21     		movs	r1, #42
ARM GAS  /tmp/ccltjQLK.s 			page 20


 1073              	.LVL74:
 1074              	.L94:
 1075              	.LBE187:
 1076              	.LBE186:
 1077              	.LBB190:
 1078              	.LBB191:
 1079              		.loc 1 113 0
 1080 005c 2068     		ldr	r0, [r4, #0]
 1081 005e 0268     		ldr	r2, [r0, #0]
 1082 0060 9368     		ldr	r3, [r2, #8]
 1083 0062 9847     		blx	r3
 1084              		.loc 1 112 0
 1085 0064 15F8011F 		ldrb	r1, [r5, #1]!	@ zero_extendqisi2
 1086 0068 0029     		cmp	r1, #0
 1087 006a F7D1     		bne	.L94
 1088 006c 7F4D     		ldr	r5, .L222+20
 1089 006e 3221     		movs	r1, #50
 1090              	.L95:
 1091              	.LBE191:
 1092              	.LBE190:
 1093              	.LBB192:
 1094              	.LBB193:
 1095              	.LBB194:
 1096              	.LBB195:
 1097              		.loc 1 113 0
 1098 0070 2068     		ldr	r0, [r4, #0]
 1099 0072 0768     		ldr	r7, [r0, #0]
 1100 0074 BE68     		ldr	r6, [r7, #8]
 1101 0076 B047     		blx	r6
 1102              	.LVL75:
 1103              		.loc 1 112 0
 1104 0078 15F8011F 		ldrb	r1, [r5, #1]!	@ zero_extendqisi2
 1105 007c 0029     		cmp	r1, #0
 1106 007e F7D1     		bne	.L95
 1107              	.LBE195:
 1108              	.LBE194:
 1109              		.loc 1 124 0
 1110 0080 7548     		ldr	r0, .L222
 1111 0082 7649     		ldr	r1, .L222+4
 1112 0084 0068     		ldr	r0, [r0, #0]
 1113 0086 0222     		movs	r2, #2
 1114 0088 0568     		ldr	r5, [r0, #0]
 1115 008a 2B68     		ldr	r3, [r5, #0]
 1116 008c 784D     		ldr	r5, .L222+24
 1117 008e 9847     		blx	r3
 1118              	.LVL76:
 1119              		.loc 1 112 0
 1120 0090 2A21     		movs	r1, #42
 1121              	.LVL77:
 1122              	.L96:
 1123              	.LBE193:
 1124              	.LBE192:
 1125              	.LBB196:
 1126              	.LBB197:
 1127              		.loc 1 113 0
 1128 0092 2068     		ldr	r0, [r4, #0]
 1129 0094 0668     		ldr	r6, [r0, #0]
ARM GAS  /tmp/ccltjQLK.s 			page 21


 1130 0096 B268     		ldr	r2, [r6, #8]
 1131 0098 9047     		blx	r2
 1132              		.loc 1 112 0
 1133 009a 15F8011F 		ldrb	r1, [r5, #1]!	@ zero_extendqisi2
 1134 009e 0029     		cmp	r1, #0
 1135 00a0 F7D1     		bne	.L96
 1136 00a2 744D     		ldr	r5, .L222+28
 1137 00a4 4A21     		movs	r1, #74
 1138              	.L97:
 1139              	.LBE197:
 1140              	.LBE196:
 1141              	.LBB198:
 1142              	.LBB199:
 1143              	.LBB200:
 1144              	.LBB201:
 1145              		.loc 1 113 0
 1146 00a6 2068     		ldr	r0, [r4, #0]
 1147 00a8 0368     		ldr	r3, [r0, #0]
 1148 00aa 9F68     		ldr	r7, [r3, #8]
 1149 00ac B847     		blx	r7
 1150              	.LVL78:
 1151              		.loc 1 112 0
 1152 00ae 15F8011F 		ldrb	r1, [r5, #1]!	@ zero_extendqisi2
 1153 00b2 0029     		cmp	r1, #0
 1154 00b4 F7D1     		bne	.L97
 1155              	.LBE201:
 1156              	.LBE200:
 1157              		.loc 1 124 0
 1158 00b6 6849     		ldr	r1, .L222
 1159 00b8 0222     		movs	r2, #2
 1160 00ba 0868     		ldr	r0, [r1, #0]
 1161 00bc 6749     		ldr	r1, .L222+4
 1162 00be 0568     		ldr	r5, [r0, #0]
 1163 00c0 2E68     		ldr	r6, [r5, #0]
 1164 00c2 6D4D     		ldr	r5, .L222+32
 1165 00c4 B047     		blx	r6
 1166              	.LVL79:
 1167              		.loc 1 112 0
 1168 00c6 2A21     		movs	r1, #42
 1169              	.LVL80:
 1170              	.L98:
 1171              	.LBE199:
 1172              	.LBE198:
 1173              	.LBB202:
 1174              	.LBB203:
 1175              		.loc 1 113 0
 1176 00c8 2068     		ldr	r0, [r4, #0]
 1177 00ca 0768     		ldr	r7, [r0, #0]
 1178 00cc BA68     		ldr	r2, [r7, #8]
 1179 00ce 9047     		blx	r2
 1180              		.loc 1 112 0
 1181 00d0 15F8011F 		ldrb	r1, [r5, #1]!	@ zero_extendqisi2
 1182 00d4 0029     		cmp	r1, #0
 1183 00d6 F7D1     		bne	.L98
 1184 00d8 684D     		ldr	r5, .L222+36
 1185 00da 4721     		movs	r1, #71
 1186              	.L99:
ARM GAS  /tmp/ccltjQLK.s 			page 22


 1187              	.LBE203:
 1188              	.LBE202:
 1189              	.LBB204:
 1190              	.LBB205:
 1191              	.LBB206:
 1192              	.LBB207:
 1193              		.loc 1 113 0
 1194 00dc 2068     		ldr	r0, [r4, #0]
 1195 00de 0668     		ldr	r6, [r0, #0]
 1196 00e0 B368     		ldr	r3, [r6, #8]
 1197 00e2 9847     		blx	r3
 1198              	.LVL81:
 1199              		.loc 1 112 0
 1200 00e4 15F8011F 		ldrb	r1, [r5, #1]!	@ zero_extendqisi2
 1201 00e8 0029     		cmp	r1, #0
 1202 00ea F7D1     		bne	.L99
 1203              	.LBE207:
 1204              	.LBE206:
 1205              		.loc 1 124 0
 1206 00ec 5A48     		ldr	r0, .L222
 1207 00ee 5B49     		ldr	r1, .L222+4
 1208 00f0 0068     		ldr	r0, [r0, #0]
 1209 00f2 0222     		movs	r2, #2
 1210 00f4 0568     		ldr	r5, [r0, #0]
 1211 00f6 2F68     		ldr	r7, [r5, #0]
 1212 00f8 614D     		ldr	r5, .L222+40
 1213 00fa B847     		blx	r7
 1214              	.LVL82:
 1215              		.loc 1 112 0
 1216 00fc 2A21     		movs	r1, #42
 1217              	.LVL83:
 1218              	.L100:
 1219              	.LBE205:
 1220              	.LBE204:
 1221              	.LBB208:
 1222              	.LBB209:
 1223              		.loc 1 113 0
 1224 00fe 2068     		ldr	r0, [r4, #0]
 1225 0100 0368     		ldr	r3, [r0, #0]
 1226 0102 9A68     		ldr	r2, [r3, #8]
 1227 0104 9047     		blx	r2
 1228              		.loc 1 112 0
 1229 0106 15F8011F 		ldrb	r1, [r5, #1]!	@ zero_extendqisi2
 1230 010a 0029     		cmp	r1, #0
 1231 010c F7D1     		bne	.L100
 1232 010e 5D4D     		ldr	r5, .L222+44
 1233 0110 4121     		movs	r1, #65
 1234              	.L101:
 1235              	.LBE209:
 1236              	.LBE208:
 1237              	.LBB210:
 1238              	.LBB211:
 1239              	.LBB212:
 1240              	.LBB213:
 1241              		.loc 1 113 0
 1242 0112 2068     		ldr	r0, [r4, #0]
 1243 0114 0768     		ldr	r7, [r0, #0]
ARM GAS  /tmp/ccltjQLK.s 			page 23


 1244 0116 BE68     		ldr	r6, [r7, #8]
 1245 0118 B047     		blx	r6
 1246              	.LVL84:
 1247              		.loc 1 112 0
 1248 011a 15F8011F 		ldrb	r1, [r5, #1]!	@ zero_extendqisi2
 1249 011e 0029     		cmp	r1, #0
 1250 0120 F7D1     		bne	.L101
 1251              	.LBE213:
 1252              	.LBE212:
 1253              		.loc 1 124 0
 1254 0122 4D49     		ldr	r1, .L222
 1255 0124 0222     		movs	r2, #2
 1256 0126 0868     		ldr	r0, [r1, #0]
 1257 0128 4C49     		ldr	r1, .L222+4
 1258 012a 0568     		ldr	r5, [r0, #0]
 1259 012c 2B68     		ldr	r3, [r5, #0]
 1260 012e 564D     		ldr	r5, .L222+48
 1261 0130 9847     		blx	r3
 1262              	.LVL85:
 1263              		.loc 1 112 0
 1264 0132 2A21     		movs	r1, #42
 1265              	.LVL86:
 1266              	.L102:
 1267              	.LBE211:
 1268              	.LBE210:
 1269              	.LBB214:
 1270              	.LBB215:
 1271              		.loc 1 113 0
 1272 0134 2068     		ldr	r0, [r4, #0]
 1273 0136 0668     		ldr	r6, [r0, #0]
 1274 0138 B268     		ldr	r2, [r6, #8]
 1275 013a 9047     		blx	r2
 1276              		.loc 1 112 0
 1277 013c 15F8011F 		ldrb	r1, [r5, #1]!	@ zero_extendqisi2
 1278 0140 0029     		cmp	r1, #0
 1279 0142 F7D1     		bne	.L102
 1280 0144 514D     		ldr	r5, .L222+52
 1281 0146 4321     		movs	r1, #67
 1282              	.L103:
 1283              	.LBE215:
 1284              	.LBE214:
 1285              	.LBB216:
 1286              	.LBB217:
 1287              	.LBB218:
 1288              	.LBB219:
 1289              		.loc 1 113 0
 1290 0148 2068     		ldr	r0, [r4, #0]
 1291 014a 0368     		ldr	r3, [r0, #0]
 1292 014c 9F68     		ldr	r7, [r3, #8]
 1293 014e B847     		blx	r7
 1294              	.LVL87:
 1295              		.loc 1 112 0
 1296 0150 15F8011F 		ldrb	r1, [r5, #1]!	@ zero_extendqisi2
 1297 0154 0029     		cmp	r1, #0
 1298 0156 F7D1     		bne	.L103
 1299              	.LBE219:
 1300              	.LBE218:
ARM GAS  /tmp/ccltjQLK.s 			page 24


 1301              		.loc 1 124 0
 1302 0158 3F48     		ldr	r0, .L222
 1303 015a 4049     		ldr	r1, .L222+4
 1304 015c 0068     		ldr	r0, [r0, #0]
 1305 015e 0222     		movs	r2, #2
 1306 0160 0568     		ldr	r5, [r0, #0]
 1307 0162 2E68     		ldr	r6, [r5, #0]
 1308 0164 4A4D     		ldr	r5, .L222+56
 1309 0166 B047     		blx	r6
 1310              	.LVL88:
 1311              		.loc 1 112 0
 1312 0168 2A21     		movs	r1, #42
 1313              	.LVL89:
 1314              	.L104:
 1315              	.LBE217:
 1316              	.LBE216:
 1317              	.LBB220:
 1318              	.LBB221:
 1319              		.loc 1 113 0
 1320 016a 2068     		ldr	r0, [r4, #0]
 1321 016c 0768     		ldr	r7, [r0, #0]
 1322 016e BA68     		ldr	r2, [r7, #8]
 1323 0170 9047     		blx	r2
 1324              		.loc 1 112 0
 1325 0172 15F8011F 		ldrb	r1, [r5, #1]!	@ zero_extendqisi2
 1326 0176 0029     		cmp	r1, #0
 1327 0178 F7D1     		bne	.L104
 1328 017a 464D     		ldr	r5, .L222+60
 1329 017c 4121     		movs	r1, #65
 1330              	.L105:
 1331              	.LBE221:
 1332              	.LBE220:
 1333              	.LBB222:
 1334              	.LBB223:
 1335              	.LBB224:
 1336              	.LBB225:
 1337              		.loc 1 113 0
 1338 017e 2068     		ldr	r0, [r4, #0]
 1339 0180 0668     		ldr	r6, [r0, #0]
 1340 0182 B368     		ldr	r3, [r6, #8]
 1341 0184 9847     		blx	r3
 1342              	.LVL90:
 1343              		.loc 1 112 0
 1344 0186 15F8011F 		ldrb	r1, [r5, #1]!	@ zero_extendqisi2
 1345 018a 0029     		cmp	r1, #0
 1346 018c F7D1     		bne	.L105
 1347              	.LBE225:
 1348              	.LBE224:
 1349              		.loc 1 124 0
 1350 018e 3249     		ldr	r1, .L222
 1351 0190 0222     		movs	r2, #2
 1352 0192 0868     		ldr	r0, [r1, #0]
 1353 0194 3149     		ldr	r1, .L222+4
 1354 0196 0568     		ldr	r5, [r0, #0]
 1355 0198 2F68     		ldr	r7, [r5, #0]
 1356 019a 3F4D     		ldr	r5, .L222+64
 1357 019c B847     		blx	r7
ARM GAS  /tmp/ccltjQLK.s 			page 25


 1358              	.LVL91:
 1359              		.loc 1 112 0
 1360 019e 2A21     		movs	r1, #42
 1361              	.LVL92:
 1362              	.L106:
 1363              	.LBE223:
 1364              	.LBE222:
 1365              	.LBB226:
 1366              	.LBB227:
 1367              		.loc 1 113 0
 1368 01a0 2068     		ldr	r0, [r4, #0]
 1369 01a2 0368     		ldr	r3, [r0, #0]
 1370 01a4 9A68     		ldr	r2, [r3, #8]
 1371 01a6 9047     		blx	r2
 1372              		.loc 1 112 0
 1373 01a8 15F8011F 		ldrb	r1, [r5, #1]!	@ zero_extendqisi2
 1374 01ac 0029     		cmp	r1, #0
 1375 01ae F7D1     		bne	.L106
 1376 01b0 3A4D     		ldr	r5, .L222+68
 1377 01b2 5321     		movs	r1, #83
 1378              	.L107:
 1379              	.LBE227:
 1380              	.LBE226:
 1381              	.LBB228:
 1382              	.LBB229:
 1383              	.LBB230:
 1384              	.LBB231:
 1385              		.loc 1 113 0
 1386 01b4 2068     		ldr	r0, [r4, #0]
 1387 01b6 0768     		ldr	r7, [r0, #0]
 1388 01b8 BE68     		ldr	r6, [r7, #8]
 1389 01ba B047     		blx	r6
 1390              	.LVL93:
 1391              		.loc 1 112 0
 1392 01bc 15F8011F 		ldrb	r1, [r5, #1]!	@ zero_extendqisi2
 1393 01c0 0029     		cmp	r1, #0
 1394 01c2 F7D1     		bne	.L107
 1395              	.LBE231:
 1396              	.LBE230:
 1397              		.loc 1 124 0
 1398 01c4 2448     		ldr	r0, .L222
 1399 01c6 2549     		ldr	r1, .L222+4
 1400 01c8 0068     		ldr	r0, [r0, #0]
 1401 01ca 0222     		movs	r2, #2
 1402 01cc 0568     		ldr	r5, [r0, #0]
 1403 01ce 2B68     		ldr	r3, [r5, #0]
 1404 01d0 334D     		ldr	r5, .L222+72
 1405 01d2 9847     		blx	r3
 1406              	.LVL94:
 1407              		.loc 1 112 0
 1408 01d4 2A21     		movs	r1, #42
 1409              	.LVL95:
 1410              	.L108:
 1411              	.LBE229:
 1412              	.LBE228:
 1413              	.LBB232:
 1414              	.LBB233:
ARM GAS  /tmp/ccltjQLK.s 			page 26


 1415              		.loc 1 113 0
 1416 01d6 2068     		ldr	r0, [r4, #0]
 1417 01d8 0668     		ldr	r6, [r0, #0]
 1418 01da B268     		ldr	r2, [r6, #8]
 1419 01dc 9047     		blx	r2
 1420              		.loc 1 112 0
 1421 01de 15F8011F 		ldrb	r1, [r5, #1]!	@ zero_extendqisi2
 1422 01e2 0029     		cmp	r1, #0
 1423 01e4 F7D1     		bne	.L108
 1424 01e6 2F4F     		ldr	r7, .L222+76
 1425 01e8 5221     		movs	r1, #82
 1426              	.L109:
 1427              	.LBE233:
 1428              	.LBE232:
 1429              	.LBB234:
 1430              	.LBB235:
 1431              	.LBB236:
 1432              	.LBB237:
 1433              		.loc 1 113 0
 1434 01ea 2068     		ldr	r0, [r4, #0]
 1435 01ec 1A4E     		ldr	r6, .L222
 1436 01ee 0568     		ldr	r5, [r0, #0]
 1437 01f0 AB68     		ldr	r3, [r5, #8]
 1438 01f2 9847     		blx	r3
 1439              	.LVL96:
 1440              		.loc 1 112 0
 1441 01f4 17F8011F 		ldrb	r1, [r7, #1]!	@ zero_extendqisi2
 1442 01f8 0029     		cmp	r1, #0
 1443 01fa F6D1     		bne	.L109
 1444              	.LBE237:
 1445              	.LBE236:
 1446              		.loc 1 124 0
 1447 01fc 3068     		ldr	r0, [r6, #0]
 1448 01fe 0F46     		mov	r7, r1
 1449 0200 0368     		ldr	r3, [r0, #0]
 1450 0202 1649     		ldr	r1, .L222+4
 1451 0204 0222     		movs	r2, #2
 1452 0206 1D68     		ldr	r5, [r3, #0]
 1453 0208 A847     		blx	r5
 1454              	.LVL97:
 1455              	.LBE235:
 1456              	.LBE234:
 1457              	.LBB238:
 1458              	.LBB239:
 1459 020a 3068     		ldr	r0, [r6, #0]
 1460 020c 1349     		ldr	r1, .L222+4
 1461 020e 0268     		ldr	r2, [r0, #0]
 1462              	.LBE239:
 1463              	.LBE238:
 1464              		.loc 1 349 0
 1465 0210 40F20008 		movw	r8, #:lower16:.LANCHOR4
 1466              	.LBB241:
 1467              	.LBB240:
 1468              		.loc 1 124 0
 1469 0214 1368     		ldr	r3, [r2, #0]
 1470 0216 0222     		movs	r2, #2
 1471 0218 9847     		blx	r3
ARM GAS  /tmp/ccltjQLK.s 			page 27


 1472              	.LBE240:
 1473              	.LBE241:
 1474              		.loc 1 349 0
 1475 021a C0F20008 		movt	r8, #:upper16:.LANCHOR4
 1476 021e 2248     		ldr	r0, .L222+80
 1477              	.LBB242:
 1478              	.LBB243:
 1479              		.loc 1 99 0
 1480 0220 4CF6CD46 		movw	r6, #52429
 1481              	.LBE243:
 1482              	.LBE242:
 1483              		.loc 1 349 0
 1484 0224 88F80070 		strb	r7, [r8, #0]
 1485              	.LVL98:
 1486              	.LBB250:
 1487              	.LBB251:
 1488              		.loc 1 304 0
 1489 0228 DFF82C80 		ldr	r8, .L222
 1490              	.LBE251:
 1491              	.LBE250:
 1492              		.loc 1 349 0
 1493 022c 0490     		str	r0, [sp, #16]
 1494              		.loc 1 350 0
 1495 022e 0397     		str	r7, [sp, #12]
 1496              	.LBB253:
 1497              	.LBB246:
 1498              		.loc 1 99 0
 1499 0230 CCF6CC46 		movt	r6, 52428
 1500              	.LVL99:
 1501              	.L110:
 1502              	.LBE246:
 1503              	.LBE253:
 1504              		.loc 1 351 0 discriminator 1
 1505 0234 039B     		ldr	r3, [sp, #12]
 1506              		.loc 1 314 0 discriminator 1
 1507 0236 049F     		ldr	r7, [sp, #16]
 1508              		.loc 1 351 0 discriminator 1
 1509 0238 581C     		adds	r0, r3, #1
 1510              		.loc 1 314 0 discriminator 1
 1511 023a 57F8049C 		ldr	r9, [r7, #-4]
 1512              		.loc 1 351 0 discriminator 1
 1513 023e 0390     		str	r0, [sp, #12]
 1514              		.loc 1 314 0 discriminator 1
 1515 0240 0597     		str	r7, [sp, #20]
 1516              		.loc 1 356 0 discriminator 1
 1517 0242 4FF0000B 		mov	fp, #0
 1518              	.L209:
 1519              	.LVL100:
 1520              		.loc 1 353 0 discriminator 1
 1521 0246 59F82B00 		ldr	r0, [r9, fp, lsl #2]
 1522 024a 09EB8B07 		add	r7, r9, fp, lsl #2
 1523 024e 0028     		cmp	r0, #0
 1524 0250 00F0D681 		beq	.L217
 1525 0254 2AE0     		b	.L223
 1526              	.L224:
 1527 0256 00BF     		.align	2
 1528              	.L222:
ARM GAS  /tmp/ccltjQLK.s 			page 28


 1529 0258 00000000 		.word	.LANCHOR1
 1530 025c 00000000 		.word	.LC0
 1531 0260 04000000 		.word	.LC1
 1532 0264 20000000 		.word	.LC2
 1533 0268 24000000 		.word	.LC3
 1534 026c 38000000 		.word	.LC4
 1535 0270 48000000 		.word	.LC5
 1536 0274 5C000000 		.word	.LC6
 1537 0278 74000000 		.word	.LC7
 1538 027c 88000000 		.word	.LC8
 1539 0280 D0000000 		.word	.LC9
 1540 0284 E4000000 		.word	.LC10
 1541 0288 EC000000 		.word	.LC11
 1542 028c 00010000 		.word	.LC12
 1543 0290 0C010000 		.word	.LC13
 1544 0294 20010000 		.word	.LC14
 1545 0298 38010000 		.word	.LC15
 1546 029c 4C010000 		.word	.LC16
 1547 02a0 78010000 		.word	.LC17
 1548 02a4 8C010000 		.word	.LC18
 1549 02a8 04000000 		.word	.LANCHOR9+4
 1550              	.L223:
 1551              	.L152:
 1552              		.loc 1 353 0 is_stmt 0
 1553 02ac 4C25     		movs	r5, #76
 1554              	.L111:
 1555              	.LBB254:
 1556              	.LBB252:
 1557              		.loc 1 304 0 is_stmt 1
 1558 02ae 2068     		ldr	r0, [r4, #0]
 1559 02b0 2D21     		movs	r1, #45
 1560 02b2 0268     		ldr	r2, [r0, #0]
 1561 02b4 013D     		subs	r5, r5, #1
 1562 02b6 9368     		ldr	r3, [r2, #8]
 1563 02b8 9847     		blx	r3
 1564 02ba 2068     		ldr	r0, [r4, #0]
 1565 02bc 0168     		ldr	r1, [r0, #0]
 1566 02be 8A68     		ldr	r2, [r1, #8]
 1567 02c0 2D21     		movs	r1, #45
 1568 02c2 9047     		blx	r2
 1569              	.LVL101:
 1570              		.loc 1 303 0
 1571 02c4 013D     		subs	r5, r5, #1
 1572 02c6 F2D1     		bne	.L111
 1573              		.loc 1 305 0
 1574 02c8 D8F80000 		ldr	r0, [r8, #0]
 1575 02cc 8E49     		ldr	r1, .L225
 1576 02ce 0568     		ldr	r5, [r0, #0]
 1577 02d0 0222     		movs	r2, #2
 1578 02d2 2B68     		ldr	r3, [r5, #0]
 1579 02d4 8D4D     		ldr	r5, .L225+4
 1580 02d6 9847     		blx	r3
 1581              	.LVL102:
 1582              		.loc 1 112 0
 1583 02d8 2D21     		movs	r1, #45
 1584              	.LVL103:
 1585              	.L112:
ARM GAS  /tmp/ccltjQLK.s 			page 29


 1586              	.LBE252:
 1587              	.LBE254:
 1588              	.LBB255:
 1589              	.LBB256:
 1590              		.loc 1 113 0
 1591 02da 2068     		ldr	r0, [r4, #0]
 1592 02dc 0368     		ldr	r3, [r0, #0]
 1593 02de 9A68     		ldr	r2, [r3, #8]
 1594 02e0 9047     		blx	r2
 1595              		.loc 1 112 0
 1596 02e2 15F8011F 		ldrb	r1, [r5, #1]!	@ zero_extendqisi2
 1597 02e6 0029     		cmp	r1, #0
 1598 02e8 F7D1     		bne	.L112
 1599              	.LVL104:
 1600              	.LBE256:
 1601              	.LBE255:
 1602              	.LBB257:
 1603              	.LBB247:
 1604              		.loc 1 94 0
 1605 02ea 039B     		ldr	r3, [sp, #12]
 1606 02ec 002B     		cmp	r3, #0
 1607 02ee 00F0F281 		beq	.L218
 1608              	.LBE247:
 1609              	.LBE257:
 1610              	.LBB258:
 1611              	.LBB259:
 1612              		.loc 1 97 0
 1613 02f2 0DF1180A 		add	sl, sp, #24
 1614              	.LBE259:
 1615              	.LBE258:
 1616              	.LBB268:
 1617              	.LBB248:
 1618              		.loc 1 94 0
 1619 02f6 5546     		mov	r5, sl
 1620              	.LVL105:
 1621              	.L116:
 1622              		.loc 1 99 0
 1623 02f8 A6FB0310 		umull	r1, r0, r6, r3
 1624 02fc C208     		lsrs	r2, r0, #3
 1625 02fe 02EB820E 		add	lr, r2, r2, lsl #2
 1626 0302 A3EB4E0C 		sub	ip, r3, lr, lsl #1
 1627 0306 0CF13000 		add	r0, ip, #48
 1628              		.loc 1 98 0
 1629 030a 1346     		mov	r3, r2
 1630              		.loc 1 99 0
 1631 030c 05F8010B 		strb	r0, [r5], #1
 1632              	.LVL106:
 1633              		.loc 1 98 0
 1634 0310 002A     		cmp	r2, #0
 1635 0312 F1D1     		bne	.L116
 1636              		.loc 1 100 0
 1637 0314 5545     		cmp	r5, sl
 1638 0316 27D9     		bls	.L117
 1639              		.loc 1 101 0
 1640 0318 2068     		ldr	r0, [r4, #0]
 1641              	.LVL107:
 1642 031a C5EB0A02 		rsb	r2, r5, sl
ARM GAS  /tmp/ccltjQLK.s 			page 30


 1643              	.LVL108:
 1644 031e 0368     		ldr	r3, [r0, #0]
 1645              	.LVL109:
 1646 0320 D243     		mvns	r2, r2
 1647 0322 02F00102 		and	r2, r2, #1
 1648 0326 15F8011C 		ldrb	r1, [r5, #-1]	@ zero_extendqisi2
 1649 032a 0292     		str	r2, [sp, #8]
 1650 032c 013D     		subs	r5, r5, #1
 1651 032e 9B68     		ldr	r3, [r3, #8]
 1652 0330 9847     		blx	r3
 1653              		.loc 1 100 0
 1654 0332 5545     		cmp	r5, sl
 1655 0334 18D0     		beq	.L117
 1656 0336 0298     		ldr	r0, [sp, #8]
 1657 0338 38B1     		cbz	r0, .L118
 1658              		.loc 1 101 0
 1659 033a 2068     		ldr	r0, [r4, #0]
 1660 033c 15F8011D 		ldrb	r1, [r5, #-1]!	@ zero_extendqisi2
 1661 0340 0268     		ldr	r2, [r0, #0]
 1662 0342 9368     		ldr	r3, [r2, #8]
 1663 0344 9847     		blx	r3
 1664              		.loc 1 100 0
 1665 0346 5545     		cmp	r5, sl
 1666 0348 0ED0     		beq	.L117
 1667              	.L118:
 1668              		.loc 1 101 0
 1669 034a 2068     		ldr	r0, [r4, #0]
 1670 034c 15F8011C 		ldrb	r1, [r5, #-1]	@ zero_extendqisi2
 1671 0350 0268     		ldr	r2, [r0, #0]
 1672 0352 9368     		ldr	r3, [r2, #8]
 1673 0354 9847     		blx	r3
 1674 0356 2068     		ldr	r0, [r4, #0]
 1675 0358 15F8021C 		ldrb	r1, [r5, #-2]	@ zero_extendqisi2
 1676 035c 0268     		ldr	r2, [r0, #0]
 1677 035e 023D     		subs	r5, r5, #2
 1678 0360 9368     		ldr	r3, [r2, #8]
 1679 0362 9847     		blx	r3
 1680              		.loc 1 100 0
 1681 0364 5545     		cmp	r5, sl
 1682 0366 F0D1     		bne	.L118
 1683              	.L117:
 1684              	.LVL110:
 1685              	.LBE248:
 1686              	.LBE268:
 1687              	.LBB269:
 1688              	.LBB270:
 1689              		.loc 1 113 0
 1690 0368 2068     		ldr	r0, [r4, #0]
 1691              	.LVL111:
 1692 036a 2E21     		movs	r1, #46
 1693 036c 0368     		ldr	r3, [r0, #0]
 1694              	.LBE270:
 1695              	.LBE269:
 1696              		.loc 1 358 0
 1697 036e 0BF1010B 		add	fp, fp, #1
 1698              	.LVL112:
 1699              	.LBB272:
ARM GAS  /tmp/ccltjQLK.s 			page 31


 1700              	.LBB271:
 1701              		.loc 1 113 0
 1702 0372 9A68     		ldr	r2, [r3, #8]
 1703 0374 9047     		blx	r2
 1704              	.LBE271:
 1705              	.LBE272:
 1706              		.loc 1 358 0
 1707 0376 5B46     		mov	r3, fp
 1708              	.LVL113:
 1709              	.LBB273:
 1710              	.LBB266:
 1711              		.loc 1 94 0
 1712 0378 BBF1000F 		cmp	fp, #0
 1713 037c 00F0A081 		beq	.L219
 1714              	.LBB260:
 1715              	.LBB261:
 1716              		.loc 1 97 0
 1717 0380 0DF1180A 		add	sl, sp, #24
 1718              	.LBE261:
 1719              	.LBE260:
 1720              		.loc 1 94 0
 1721 0384 5546     		mov	r5, sl
 1722              	.LVL114:
 1723              	.L120:
 1724              		.loc 1 99 0
 1725 0386 A6FB0310 		umull	r1, r0, r6, r3
 1726 038a C208     		lsrs	r2, r0, #3
 1727 038c 02EB820E 		add	lr, r2, r2, lsl #2
 1728 0390 A3EB4E0C 		sub	ip, r3, lr, lsl #1
 1729 0394 0CF13000 		add	r0, ip, #48
 1730              		.loc 1 98 0
 1731 0398 1346     		mov	r3, r2
 1732              		.loc 1 99 0
 1733 039a 05F8010B 		strb	r0, [r5], #1
 1734              	.LVL115:
 1735              		.loc 1 98 0
 1736 039e 002A     		cmp	r2, #0
 1737 03a0 F1D1     		bne	.L120
 1738              		.loc 1 100 0
 1739 03a2 5545     		cmp	r5, sl
 1740 03a4 27D9     		bls	.L121
 1741              		.loc 1 101 0
 1742 03a6 2068     		ldr	r0, [r4, #0]
 1743              	.LVL116:
 1744 03a8 C5EB0A02 		rsb	r2, r5, sl
 1745              	.LVL117:
 1746 03ac 0368     		ldr	r3, [r0, #0]
 1747              	.LVL118:
 1748 03ae D243     		mvns	r2, r2
 1749 03b0 02F00102 		and	r2, r2, #1
 1750 03b4 15F8011C 		ldrb	r1, [r5, #-1]	@ zero_extendqisi2
 1751 03b8 0292     		str	r2, [sp, #8]
 1752 03ba 013D     		subs	r5, r5, #1
 1753 03bc 9B68     		ldr	r3, [r3, #8]
 1754 03be 9847     		blx	r3
 1755              		.loc 1 100 0
 1756 03c0 5545     		cmp	r5, sl
ARM GAS  /tmp/ccltjQLK.s 			page 32


 1757 03c2 18D0     		beq	.L121
 1758 03c4 0299     		ldr	r1, [sp, #8]
 1759 03c6 39B1     		cbz	r1, .L122
 1760              		.loc 1 101 0
 1761 03c8 2068     		ldr	r0, [r4, #0]
 1762 03ca 15F8011D 		ldrb	r1, [r5, #-1]!	@ zero_extendqisi2
 1763 03ce 0268     		ldr	r2, [r0, #0]
 1764 03d0 9368     		ldr	r3, [r2, #8]
 1765 03d2 9847     		blx	r3
 1766              		.loc 1 100 0
 1767 03d4 5545     		cmp	r5, sl
 1768 03d6 0ED0     		beq	.L121
 1769              	.L122:
 1770              		.loc 1 101 0
 1771 03d8 2068     		ldr	r0, [r4, #0]
 1772 03da 15F8011C 		ldrb	r1, [r5, #-1]	@ zero_extendqisi2
 1773 03de 0268     		ldr	r2, [r0, #0]
 1774 03e0 9368     		ldr	r3, [r2, #8]
 1775 03e2 9847     		blx	r3
 1776 03e4 2068     		ldr	r0, [r4, #0]
 1777 03e6 15F8021C 		ldrb	r1, [r5, #-2]	@ zero_extendqisi2
 1778 03ea 0268     		ldr	r2, [r0, #0]
 1779 03ec 023D     		subs	r5, r5, #2
 1780 03ee 9368     		ldr	r3, [r2, #8]
 1781 03f0 9847     		blx	r3
 1782              		.loc 1 100 0
 1783 03f2 5545     		cmp	r5, sl
 1784 03f4 F0D1     		bne	.L122
 1785              	.L121:
 1786              	.LVL119:
 1787              	.LBB264:
 1788              	.LBB262:
 1789              		.loc 1 95 0
 1790 03f6 464D     		ldr	r5, .L225+8
 1791              	.LBE262:
 1792              	.LBE264:
 1793              		.loc 1 112 0
 1794 03f8 2021     		movs	r1, #32
 1795              	.LVL120:
 1796              	.L119:
 1797              	.LBE266:
 1798              	.LBE273:
 1799              	.LBB274:
 1800              	.LBB275:
 1801              		.loc 1 113 0
 1802 03fa 2068     		ldr	r0, [r4, #0]
 1803 03fc 0268     		ldr	r2, [r0, #0]
 1804 03fe 9368     		ldr	r3, [r2, #8]
 1805 0400 9847     		blx	r3
 1806              		.loc 1 112 0
 1807 0402 15F8011F 		ldrb	r1, [r5, #1]!	@ zero_extendqisi2
 1808 0406 0029     		cmp	r1, #0
 1809 0408 F7D1     		bne	.L119
 1810              	.LBE275:
 1811              	.LBE274:
 1812              		.loc 1 360 0
 1813 040a 3D68     		ldr	r5, [r7, #0]
ARM GAS  /tmp/ccltjQLK.s 			page 33


 1814 040c 2D68     		ldr	r5, [r5, #0]
 1815              	.LVL121:
 1816              	.LBB276:
 1817              	.LBB277:
 1818              		.loc 1 112 0
 1819 040e 2978     		ldrb	r1, [r5, #0]	@ zero_extendqisi2
 1820 0410 39B1     		cbz	r1, .L123
 1821              	.LVL122:
 1822              	.L124:
 1823              		.loc 1 113 0
 1824 0412 2068     		ldr	r0, [r4, #0]
 1825 0414 0268     		ldr	r2, [r0, #0]
 1826 0416 9368     		ldr	r3, [r2, #8]
 1827 0418 9847     		blx	r3
 1828              		.loc 1 112 0
 1829 041a 15F8011F 		ldrb	r1, [r5, #1]!	@ zero_extendqisi2
 1830 041e 0029     		cmp	r1, #0
 1831 0420 F7D1     		bne	.L124
 1832              	.L123:
 1833              	.LBE277:
 1834              	.LBE276:
 1835              	.LBB278:
 1836              	.LBB279:
 1837              	.LBB280:
 1838              	.LBB281:
 1839              		.loc 1 113 0
 1840 0422 2068     		ldr	r0, [r4, #0]
 1841              	.LVL123:
 1842 0424 2921     		movs	r1, #41
 1843 0426 0368     		ldr	r3, [r0, #0]
 1844              	.LBE281:
 1845              	.LBE280:
 1846              	.LBE279:
 1847              	.LBE278:
 1848              	.LBB285:
 1849              	.LBB286:
 1850              	.LBB287:
 1851              	.LBB288:
 1852              		.loc 1 132 0
 1853 0428 DFF8FCA0 		ldr	sl, .L225+32
 1854              	.LBE288:
 1855              	.LBE287:
 1856              	.LBE286:
 1857              	.LBE285:
 1858              	.LBB297:
 1859              	.LBB284:
 1860              	.LBB283:
 1861              	.LBB282:
 1862              		.loc 1 113 0
 1863 042c 9A68     		ldr	r2, [r3, #8]
 1864 042e 9047     		blx	r2
 1865              	.LBE282:
 1866              	.LBE283:
 1867              		.loc 1 124 0
 1868 0430 2068     		ldr	r0, [r4, #0]
 1869 0432 3549     		ldr	r1, .L225
 1870 0434 0568     		ldr	r5, [r0, #0]
ARM GAS  /tmp/ccltjQLK.s 			page 34


 1871 0436 0222     		movs	r2, #2
 1872 0438 2B68     		ldr	r3, [r5, #0]
 1873 043a 9847     		blx	r3
 1874              	.LBE284:
 1875              	.LBE297:
 1876              	.LBB298:
 1877              	.LBB295:
 1878              		.loc 1 289 0
 1879 043c 354D     		ldr	r5, .L225+12
 1880              	.LBE295:
 1881              	.LBE298:
 1882              		.loc 1 363 0
 1883 043e C820     		movs	r0, #200
 1884 0440 FFF7FEFF 		bl	chThdSleep
 1885              		.loc 1 365 0
 1886 0444 3A68     		ldr	r2, [r7, #0]
 1887              	.LVL124:
 1888              	.LBB299:
 1889              	.LBB296:
 1890              		.loc 1 287 0
 1891 0446 0020     		movs	r0, #0
 1892              		.loc 1 289 0
 1893 0448 2860     		str	r0, [r5, #0]
 1894 044a 6860     		str	r0, [r5, #4]
 1895 044c A860     		str	r0, [r5, #8]
 1896 044e E860     		str	r0, [r5, #12]
 1897 0450 2861     		str	r0, [r5, #16]
 1898              	.LBB291:
 1899              	.LBB289:
 1900              		.loc 1 132 0
 1901 0452 314F     		ldr	r7, .L225+16
 1902              	.LVL125:
 1903              	.LBE289:
 1904              	.LBE291:
 1905              		.loc 1 287 0
 1906 0454 314B     		ldr	r3, .L225+20
 1907              		.loc 1 291 0
 1908 0456 5168     		ldr	r1, [r2, #4]
 1909              	.LBB292:
 1910              	.LBB290:
 1911              		.loc 1 132 0
 1912 0458 C7F800A0 		str	sl, [r7, #0]
 1913              	.LBE290:
 1914              	.LBE292:
 1915              		.loc 1 287 0
 1916 045c 1870     		strb	r0, [r3, #0]
 1917              	.LVL126:
 1918              		.loc 1 291 0
 1919 045e 21B1     		cbz	r1, .L125
 1920              		.loc 1 292 0
 1921 0460 0192     		str	r2, [sp, #4]
 1922 0462 0093     		str	r3, [sp, #0]
 1923 0464 8847     		blx	r1
 1924              	.LVL127:
 1925 0466 009B     		ldr	r3, [sp, #0]
 1926 0468 019A     		ldr	r2, [sp, #4]
 1927              	.L125:
ARM GAS  /tmp/ccltjQLK.s 			page 35


 1928              		.loc 1 293 0
 1929 046a D068     		ldr	r0, [r2, #12]
 1930 046c 0192     		str	r2, [sp, #4]
 1931 046e 0093     		str	r3, [sp, #0]
 1932 0470 8047     		blx	r0
 1933              		.loc 1 294 0
 1934 0472 0199     		ldr	r1, [sp, #4]
 1935 0474 009B     		ldr	r3, [sp, #0]
 1936 0476 8A68     		ldr	r2, [r1, #8]
 1937 0478 0AB1     		cbz	r2, .L126
 1938              		.loc 1 295 0
 1939 047a 9047     		blx	r2
 1940 047c 009B     		ldr	r3, [sp, #0]
 1941              	.L126:
 1942              	.LVL128:
 1943              	.LBB293:
 1944              	.LBB294:
 1945              		.loc 1 211 0
 1946 047e 2868     		ldr	r0, [r5, #0]
 1947 0480 30B1     		cbz	r0, .L127
 1948              		.loc 1 212 0
 1949 0482 0093     		str	r3, [sp, #0]
 1950 0484 FFF7FEFF 		bl	chThdWait
 1951              		.loc 1 213 0
 1952 0488 224A     		ldr	r2, .L225+12
 1953 048a 0023     		movs	r3, #0
 1954 048c 1360     		str	r3, [r2, #0]
 1955 048e 009B     		ldr	r3, [sp, #0]
 1956              	.L127:
 1957              	.LVL129:
 1958              		.loc 1 211 0
 1959 0490 6868     		ldr	r0, [r5, #4]
 1960 0492 30B1     		cbz	r0, .L128
 1961              		.loc 1 212 0
 1962 0494 0093     		str	r3, [sp, #0]
 1963 0496 FFF7FEFF 		bl	chThdWait
 1964              		.loc 1 213 0
 1965 049a 1E48     		ldr	r0, .L225+12
 1966 049c 0021     		movs	r1, #0
 1967 049e 009B     		ldr	r3, [sp, #0]
 1968 04a0 4160     		str	r1, [r0, #4]
 1969              	.L128:
 1970              	.LVL130:
 1971              		.loc 1 211 0
 1972 04a2 A868     		ldr	r0, [r5, #8]
 1973 04a4 30B1     		cbz	r0, .L129
 1974              		.loc 1 212 0
 1975 04a6 0093     		str	r3, [sp, #0]
 1976 04a8 FFF7FEFF 		bl	chThdWait
 1977              		.loc 1 213 0
 1978 04ac 194A     		ldr	r2, .L225+12
 1979 04ae 0023     		movs	r3, #0
 1980 04b0 9360     		str	r3, [r2, #8]
 1981 04b2 009B     		ldr	r3, [sp, #0]
 1982              	.L129:
 1983              	.LVL131:
 1984              		.loc 1 211 0
ARM GAS  /tmp/ccltjQLK.s 			page 36


 1985 04b4 E868     		ldr	r0, [r5, #12]
 1986 04b6 30B1     		cbz	r0, .L130
 1987              		.loc 1 212 0
 1988 04b8 0093     		str	r3, [sp, #0]
 1989 04ba FFF7FEFF 		bl	chThdWait
 1990              		.loc 1 213 0
 1991 04be 1548     		ldr	r0, .L225+12
 1992 04c0 0021     		movs	r1, #0
 1993 04c2 009B     		ldr	r3, [sp, #0]
 1994 04c4 C160     		str	r1, [r0, #12]
 1995              	.L130:
 1996              	.LVL132:
 1997              		.loc 1 211 0
 1998 04c6 2869     		ldr	r0, [r5, #16]
 1999 04c8 30B1     		cbz	r0, .L131
 2000              		.loc 1 212 0
 2001 04ca 0093     		str	r3, [sp, #0]
 2002 04cc FFF7FEFF 		bl	chThdWait
 2003              		.loc 1 213 0
 2004 04d0 104B     		ldr	r3, .L225+12
 2005 04d2 0025     		movs	r5, #0
 2006 04d4 1D61     		str	r5, [r3, #16]
 2007 04d6 009B     		ldr	r3, [sp, #0]
 2008              	.L131:
 2009              	.LVL133:
 2010              	.LBE294:
 2011              	.LBE293:
 2012              	.LBE296:
 2013              	.LBE299:
 2014              		.loc 1 366 0
 2015 04d8 1A78     		ldrb	r2, [r3, #0]	@ zero_extendqisi2
 2016 04da 002A     		cmp	r2, #0
 2017 04dc 00F0DE80 		beq	.L132
 2018 04e0 0F4D     		ldr	r5, .L225+24
 2019              		.loc 1 112 0
 2020 04e2 2D21     		movs	r1, #45
 2021              	.L133:
 2022              	.LBB300:
 2023              	.LBB301:
 2024              		.loc 1 113 0
 2025 04e4 2068     		ldr	r0, [r4, #0]
 2026 04e6 0268     		ldr	r2, [r0, #0]
 2027 04e8 9368     		ldr	r3, [r2, #8]
 2028 04ea 9847     		blx	r3
 2029              	.LVL134:
 2030              		.loc 1 112 0
 2031 04ec 15F8011F 		ldrb	r1, [r5, #1]!	@ zero_extendqisi2
 2032 04f0 0029     		cmp	r1, #0
 2033 04f2 F7D1     		bne	.L133
 2034              	.LBE301:
 2035              	.LBE300:
 2036              		.loc 1 368 0
 2037 04f4 0B49     		ldr	r1, .L225+28
 2038 04f6 0B68     		ldr	r3, [r1, #0]
 2039              	.LVL135:
 2040              	.LBB302:
 2041              	.LBB303:
ARM GAS  /tmp/ccltjQLK.s 			page 37


 2042              		.loc 1 94 0
 2043 04f8 002B     		cmp	r3, #0
 2044 04fa 00F0F380 		beq	.L220
 2045              	.LBB304:
 2046              	.LBB305:
 2047              		.loc 1 97 0
 2048 04fe 0DF11809 		add	r9, sp, #24
 2049              	.LBE305:
 2050              	.LBE304:
 2051              		.loc 1 94 0
 2052 0502 4D46     		mov	r5, r9
 2053 0504 12E0     		b	.L226
 2054              	.L227:
 2055 0506 00BF     		.align	2
 2056              	.L225:
 2057 0508 00000000 		.word	.LC0
 2058 050c 9C010000 		.word	.LC19
 2059 0510 AC010000 		.word	.LC20
 2060 0514 00000000 		.word	.LANCHOR7
 2061 0518 00000000 		.word	.LANCHOR2
 2062 051c 00000000 		.word	.LANCHOR3
 2063 0520 B0010000 		.word	.LC21
 2064 0524 00000000 		.word	.LANCHOR5
 2065 0528 00000000 		.word	.LANCHOR6
 2066              	.L226:
 2067              	.LVL136:
 2068              	.L136:
 2069              		.loc 1 99 0
 2070 052c A6FB0310 		umull	r1, r0, r6, r3
 2071 0530 C208     		lsrs	r2, r0, #3
 2072 0532 02EB820E 		add	lr, r2, r2, lsl #2
 2073 0536 A3EB4E0C 		sub	ip, r3, lr, lsl #1
 2074 053a 0CF13000 		add	r0, ip, #48
 2075              		.loc 1 98 0
 2076 053e 1346     		mov	r3, r2
 2077              		.loc 1 99 0
 2078 0540 05F8010B 		strb	r0, [r5], #1
 2079              	.LVL137:
 2080              		.loc 1 98 0
 2081 0544 002A     		cmp	r2, #0
 2082 0546 F1D1     		bne	.L136
 2083              		.loc 1 100 0
 2084 0548 4D45     		cmp	r5, r9
 2085 054a 27D9     		bls	.L137
 2086              		.loc 1 101 0
 2087 054c 2068     		ldr	r0, [r4, #0]
 2088              	.LVL138:
 2089 054e C5EB0902 		rsb	r2, r5, r9
 2090              	.LVL139:
 2091 0552 0368     		ldr	r3, [r0, #0]
 2092              	.LVL140:
 2093 0554 D243     		mvns	r2, r2
 2094 0556 02F00102 		and	r2, r2, #1
 2095 055a 15F8011C 		ldrb	r1, [r5, #-1]	@ zero_extendqisi2
 2096 055e 9B68     		ldr	r3, [r3, #8]
 2097 0560 013D     		subs	r5, r5, #1
 2098 0562 0192     		str	r2, [sp, #4]
ARM GAS  /tmp/ccltjQLK.s 			page 38


 2099 0564 9847     		blx	r3
 2100              		.loc 1 100 0
 2101 0566 4D45     		cmp	r5, r9
 2102 0568 019A     		ldr	r2, [sp, #4]
 2103 056a 17D0     		beq	.L137
 2104 056c 3AB1     		cbz	r2, .L138
 2105              		.loc 1 101 0
 2106 056e 2068     		ldr	r0, [r4, #0]
 2107 0570 15F8011D 		ldrb	r1, [r5, #-1]!	@ zero_extendqisi2
 2108 0574 0268     		ldr	r2, [r0, #0]
 2109 0576 9368     		ldr	r3, [r2, #8]
 2110 0578 9847     		blx	r3
 2111              		.loc 1 100 0
 2112 057a 4D45     		cmp	r5, r9
 2113 057c 0ED0     		beq	.L137
 2114              	.L138:
 2115              		.loc 1 101 0
 2116 057e 2068     		ldr	r0, [r4, #0]
 2117 0580 15F8011C 		ldrb	r1, [r5, #-1]	@ zero_extendqisi2
 2118 0584 0268     		ldr	r2, [r0, #0]
 2119 0586 9368     		ldr	r3, [r2, #8]
 2120 0588 9847     		blx	r3
 2121 058a 2068     		ldr	r0, [r4, #0]
 2122 058c 15F8021C 		ldrb	r1, [r5, #-2]	@ zero_extendqisi2
 2123 0590 0268     		ldr	r2, [r0, #0]
 2124 0592 023D     		subs	r5, r5, #2
 2125 0594 9368     		ldr	r3, [r2, #8]
 2126 0596 9847     		blx	r3
 2127              		.loc 1 100 0
 2128 0598 4D45     		cmp	r5, r9
 2129 059a F0D1     		bne	.L138
 2130              	.L137:
 2131              	.LVL141:
 2132              	.LBB308:
 2133              	.LBB306:
 2134              		.loc 1 95 0
 2135 059c 5A4D     		ldr	r5, .L228
 2136              	.LBE306:
 2137              	.LBE308:
 2138              		.loc 1 112 0
 2139 059e 2021     		movs	r1, #32
 2140              	.LVL142:
 2141              	.L135:
 2142              	.LBE303:
 2143              	.LBE302:
 2144              	.LBB312:
 2145              	.LBB313:
 2146              		.loc 1 113 0
 2147 05a0 2068     		ldr	r0, [r4, #0]
 2148 05a2 0268     		ldr	r2, [r0, #0]
 2149 05a4 9368     		ldr	r3, [r2, #8]
 2150 05a6 9847     		blx	r3
 2151              		.loc 1 112 0
 2152 05a8 15F8011F 		ldrb	r1, [r5, #1]!	@ zero_extendqisi2
 2153 05ac 0029     		cmp	r1, #0
 2154 05ae F7D1     		bne	.L135
 2155              	.LVL143:
ARM GAS  /tmp/ccltjQLK.s 			page 39


 2156              	.LBE313:
 2157              	.LBE312:
 2158              	.LBB314:
 2159              	.LBB315:
 2160              		.loc 1 138 0
 2161 05b0 3968     		ldr	r1, [r7, #0]
 2162 05b2 5145     		cmp	r1, sl
 2163 05b4 09D9     		bls	.L142
 2164 05b6 554D     		ldr	r5, .L228+4
 2165              	.LVL144:
 2166              	.L141:
 2167              		.loc 1 139 0
 2168 05b8 2068     		ldr	r0, [r4, #0]
 2169 05ba 15F8011B 		ldrb	r1, [r5], #1	@ zero_extendqisi2
 2170              	.LVL145:
 2171 05be 0268     		ldr	r2, [r0, #0]
 2172 05c0 9368     		ldr	r3, [r2, #8]
 2173 05c2 9847     		blx	r3
 2174              		.loc 1 138 0
 2175 05c4 3868     		ldr	r0, [r7, #0]
 2176 05c6 A842     		cmp	r0, r5
 2177 05c8 F6D8     		bhi	.L141
 2178              	.LVL146:
 2179              	.L142:
 2180 05ca 514D     		ldr	r5, .L228+8
 2181              	.LBE315:
 2182              	.LBE314:
 2183              	.LBB316:
 2184              	.LBB310:
 2185              		.loc 1 112 0
 2186 05cc 5D21     		movs	r1, #93
 2187              	.L140:
 2188              	.LBE310:
 2189              	.LBE316:
 2190              	.LBB317:
 2191              	.LBB318:
 2192              	.LBB319:
 2193              	.LBB320:
 2194              		.loc 1 113 0
 2195 05ce 2068     		ldr	r0, [r4, #0]
 2196 05d0 0368     		ldr	r3, [r0, #0]
 2197 05d2 9F68     		ldr	r7, [r3, #8]
 2198 05d4 B847     		blx	r7
 2199              	.LVL147:
 2200              		.loc 1 112 0
 2201 05d6 15F8011F 		ldrb	r1, [r5, #1]!	@ zero_extendqisi2
 2202 05da 0029     		cmp	r1, #0
 2203 05dc F7D1     		bne	.L140
 2204              	.LBE320:
 2205              	.LBE319:
 2206              		.loc 1 124 0
 2207 05de D8F80000 		ldr	r0, [r8, #0]
 2208 05e2 4C49     		ldr	r1, .L228+12
 2209 05e4 0268     		ldr	r2, [r0, #0]
 2210 05e6 1768     		ldr	r7, [r2, #0]
 2211 05e8 0222     		movs	r2, #2
 2212 05ea B847     		blx	r7
ARM GAS  /tmp/ccltjQLK.s 			page 40


 2213 05ec 049D     		ldr	r5, [sp, #16]
 2214 05ee 55F8049C 		ldr	r9, [r5, #-4]
 2215              	.LVL148:
 2216              	.LBE318:
 2217              	.LBE317:
 2218              		.loc 1 353 0
 2219 05f2 59F82B00 		ldr	r0, [r9, fp, lsl #2]
 2220 05f6 09EB8B07 		add	r7, r9, fp, lsl #2
 2221 05fa 0028     		cmp	r0, #0
 2222 05fc 7FF456AE 		bne	.L152
 2223              	.LVL149:
 2224              	.L217:
 2225              		.loc 1 351 0
 2226 0600 0599     		ldr	r1, [sp, #20]
 2227              		.loc 1 353 0
 2228 0602 049D     		ldr	r5, [sp, #16]
 2229              		.loc 1 351 0
 2230 0604 0B68     		ldr	r3, [r1, #0]
 2231              		.loc 1 353 0
 2232 0606 2A1D     		adds	r2, r5, #4
 2233 0608 0492     		str	r2, [sp, #16]
 2234              		.loc 1 351 0
 2235 060a 002B     		cmp	r3, #0
 2236 060c 7FF412AE 		bne	.L110
 2237 0610 4C26     		movs	r6, #76
 2238              	.L145:
 2239              	.LBB322:
 2240              	.LBB323:
 2241              		.loc 1 304 0
 2242 0612 2068     		ldr	r0, [r4, #0]
 2243 0614 2D21     		movs	r1, #45
 2244 0616 0368     		ldr	r3, [r0, #0]
 2245 0618 013E     		subs	r6, r6, #1
 2246 061a 9D68     		ldr	r5, [r3, #8]
 2247 061c A847     		blx	r5
 2248 061e 2068     		ldr	r0, [r4, #0]
 2249 0620 3D4D     		ldr	r5, .L228+16
 2250 0622 0168     		ldr	r1, [r0, #0]
 2251 0624 8A68     		ldr	r2, [r1, #8]
 2252 0626 2D21     		movs	r1, #45
 2253 0628 9047     		blx	r2
 2254              	.LVL150:
 2255              		.loc 1 303 0
 2256 062a 013E     		subs	r6, r6, #1
 2257 062c F1D1     		bne	.L145
 2258              		.loc 1 305 0
 2259 062e 2868     		ldr	r0, [r5, #0]
 2260 0630 3849     		ldr	r1, .L228+12
 2261 0632 0368     		ldr	r3, [r0, #0]
 2262 0634 0222     		movs	r2, #2
 2263 0636 1B68     		ldr	r3, [r3, #0]
 2264 0638 9847     		blx	r3
 2265              	.LVL151:
 2266              	.LBE323:
 2267              	.LBE322:
 2268              	.LBB324:
 2269              	.LBB325:
ARM GAS  /tmp/ccltjQLK.s 			page 41


 2270              		.loc 1 124 0
 2271 063a 2868     		ldr	r0, [r5, #0]
 2272 063c 3549     		ldr	r1, .L228+12
 2273 063e 0268     		ldr	r2, [r0, #0]
 2274 0640 364D     		ldr	r5, .L228+20
 2275 0642 1368     		ldr	r3, [r2, #0]
 2276 0644 0222     		movs	r2, #2
 2277 0646 9847     		blx	r3
 2278              	.LVL152:
 2279              		.loc 1 112 0
 2280 0648 4621     		movs	r1, #70
 2281              	.LVL153:
 2282              	.L147:
 2283              	.LBE325:
 2284              	.LBE324:
 2285              	.LBB326:
 2286              	.LBB327:
 2287              		.loc 1 113 0
 2288 064a 2068     		ldr	r0, [r4, #0]
 2289 064c 0368     		ldr	r3, [r0, #0]
 2290 064e 9A68     		ldr	r2, [r3, #8]
 2291 0650 9047     		blx	r2
 2292              		.loc 1 112 0
 2293 0652 15F8011F 		ldrb	r1, [r5, #1]!	@ zero_extendqisi2
 2294 0656 0029     		cmp	r1, #0
 2295 0658 F7D1     		bne	.L147
 2296              	.LBE327:
 2297              	.LBE326:
 2298              		.loc 1 382 0
 2299 065a 40F2000C 		movw	ip, #:lower16:.LANCHOR4
 2300 065e C0F2000C 		movt	ip, #:upper16:.LANCHOR4
 2301 0662 9CF80000 		ldrb	r0, [ip, #0]	@ zero_extendqisi2
 2302 0666 0028     		cmp	r0, #0
 2303 0668 43D1     		bne	.L221
 2304              	.LBB328:
 2305              	.LBB329:
 2306              		.loc 1 124 0
 2307 066a 2D4D     		ldr	r5, .L228+24
 2308              	.LBE329:
 2309              	.LBE328:
 2310              		.loc 1 112 0
 2311 066c 5321     		movs	r1, #83
 2312              	.L151:
 2313              	.LBB333:
 2314              	.LBB334:
 2315              	.LBB335:
 2316              	.LBB336:
 2317              		.loc 1 113 0
 2318 066e 2068     		ldr	r0, [r4, #0]
 2319 0670 0368     		ldr	r3, [r0, #0]
 2320 0672 9A68     		ldr	r2, [r3, #8]
 2321 0674 9047     		blx	r2
 2322              	.LVL154:
 2323              		.loc 1 112 0
 2324 0676 15F8011F 		ldrb	r1, [r5, #1]!	@ zero_extendqisi2
 2325 067a 0029     		cmp	r1, #0
 2326 067c F7D1     		bne	.L151
ARM GAS  /tmp/ccltjQLK.s 			page 42


 2327              	.L216:
 2328              	.LBE336:
 2329              	.LBE335:
 2330              		.loc 1 124 0
 2331 067e 2648     		ldr	r0, .L228+16
 2332 0680 2449     		ldr	r1, .L228+12
 2333 0682 0068     		ldr	r0, [r0, #0]
 2334 0684 0268     		ldr	r2, [r0, #0]
 2335 0686 1368     		ldr	r3, [r2, #0]
 2336 0688 0222     		movs	r2, #2
 2337 068a 9847     		blx	r3
 2338              	.LBE334:
 2339              	.LBE333:
 2340              		.loc 1 387 0
 2341 068c 40F20001 		movw	r1, #:lower16:.LANCHOR4
 2342 0690 C0F20001 		movt	r1, #:upper16:.LANCHOR4
 2343 0694 0878     		ldrb	r0, [r1, #0]	@ zero_extendqisi2
 2344              		.loc 1 388 0
 2345 0696 0BB0     		add	sp, sp, #44
 2346 0698 BDE8F08F 		pop	{r4, r5, r6, r7, r8, r9, sl, fp, pc}
 2347              	.LVL155:
 2348              	.L132:
 2349              	.LBB337:
 2350              	.LBB321:
 2351              		.loc 1 124 0
 2352 069c 214D     		ldr	r5, .L228+28
 2353              	.LBE321:
 2354              	.LBE337:
 2355              		.loc 1 112 0
 2356 069e 2D21     		movs	r1, #45
 2357              	.L144:
 2358              	.LBB338:
 2359              	.LBB339:
 2360              	.LBB340:
 2361              	.LBB341:
 2362              		.loc 1 113 0
 2363 06a0 2068     		ldr	r0, [r4, #0]
 2364 06a2 0768     		ldr	r7, [r0, #0]
 2365 06a4 BB68     		ldr	r3, [r7, #8]
 2366 06a6 9847     		blx	r3
 2367              	.LVL156:
 2368              		.loc 1 112 0
 2369 06a8 15F8011F 		ldrb	r1, [r5, #1]!	@ zero_extendqisi2
 2370 06ac 0029     		cmp	r1, #0
 2371 06ae F7D1     		bne	.L144
 2372              	.LBE341:
 2373              	.LBE340:
 2374              		.loc 1 124 0
 2375 06b0 D8F80000 		ldr	r0, [r8, #0]
 2376 06b4 0222     		movs	r2, #2
 2377 06b6 0168     		ldr	r1, [r0, #0]
 2378 06b8 0D68     		ldr	r5, [r1, #0]
 2379 06ba 1649     		ldr	r1, .L228+12
 2380 06bc A847     		blx	r5
 2381 06be C2E5     		b	.L209
 2382              	.LVL157:
 2383              	.L219:
ARM GAS  /tmp/ccltjQLK.s 			page 43


 2384              	.LBE339:
 2385              	.LBE338:
 2386              	.LBB342:
 2387              	.LBB267:
 2388              	.LBB265:
 2389              	.LBB263:
 2390              		.loc 1 95 0
 2391 06c0 40F2000A 		movw	sl, #:lower16:.LANCHOR1
 2392 06c4 C0F2000A 		movt	sl, #:upper16:.LANCHOR1
 2393 06c8 DAF80000 		ldr	r0, [sl, #0]
 2394 06cc 0168     		ldr	r1, [r0, #0]
 2395 06ce 8D68     		ldr	r5, [r1, #8]
 2396 06d0 3021     		movs	r1, #48
 2397 06d2 A847     		blx	r5
 2398 06d4 8FE6     		b	.L121
 2399              	.LVL158:
 2400              	.L218:
 2401              	.LBE263:
 2402              	.LBE265:
 2403              	.LBE267:
 2404              	.LBE342:
 2405              	.LBB343:
 2406              	.LBB249:
 2407              	.LBB244:
 2408              	.LBB245:
 2409 06d6 D8F80000 		ldr	r0, [r8, #0]
 2410 06da 0168     		ldr	r1, [r0, #0]
 2411 06dc 8D68     		ldr	r5, [r1, #8]
 2412 06de 3021     		movs	r1, #48
 2413 06e0 A847     		blx	r5
 2414 06e2 41E6     		b	.L117
 2415              	.LVL159:
 2416              	.L220:
 2417              	.LBE245:
 2418              	.LBE244:
 2419              	.LBE249:
 2420              	.LBE343:
 2421              	.LBB344:
 2422              	.LBB311:
 2423              	.LBB309:
 2424              	.LBB307:
 2425 06e4 D8F80000 		ldr	r0, [r8, #0]
 2426 06e8 3021     		movs	r1, #48
 2427 06ea 0368     		ldr	r3, [r0, #0]
 2428              	.LVL160:
 2429 06ec 9D68     		ldr	r5, [r3, #8]
 2430 06ee A847     		blx	r5
 2431              	.LVL161:
 2432 06f0 54E7     		b	.L137
 2433              	.LVL162:
 2434              	.L221:
 2435              	.LBE307:
 2436              	.LBE309:
 2437              	.LBE311:
 2438              	.LBE344:
 2439              		.loc 1 382 0
 2440 06f2 0D4D     		ldr	r5, .L228+32
ARM GAS  /tmp/ccltjQLK.s 			page 44


 2441              		.loc 1 112 0
 2442 06f4 4621     		movs	r1, #70
 2443              	.L149:
 2444              	.LBB345:
 2445              	.LBB332:
 2446              	.LBB330:
 2447              	.LBB331:
 2448              		.loc 1 113 0
 2449 06f6 2068     		ldr	r0, [r4, #0]
 2450 06f8 0368     		ldr	r3, [r0, #0]
 2451 06fa 9A68     		ldr	r2, [r3, #8]
 2452 06fc 9047     		blx	r2
 2453              	.LVL163:
 2454              		.loc 1 112 0
 2455 06fe 15F8011F 		ldrb	r1, [r5, #1]!	@ zero_extendqisi2
 2456 0702 0029     		cmp	r1, #0
 2457 0704 F7D1     		bne	.L149
 2458 0706 BAE7     		b	.L216
 2459              	.L229:
 2460              		.align	2
 2461              	.L228:
 2462 0708 C8010000 		.word	.LC22
 2463 070c 00000000 		.word	.LANCHOR6
 2464 0710 CC010000 		.word	.LC23
 2465 0714 00000000 		.word	.LC0
 2466 0718 00000000 		.word	.LANCHOR1
 2467 071c E4010000 		.word	.LC25
 2468 0720 FC010000 		.word	.LC27
 2469 0724 D0010000 		.word	.LC24
 2470 0728 F4010000 		.word	.LC26
 2471              	.LBE331:
 2472              	.LBE330:
 2473              	.LBE332:
 2474              	.LBE345:
 2475              		.cfi_endproc
 2476              	.LFE81:
 2477              		.size	TestThread, .-TestThread
 2478              		.global	test_timer_done
 2479              		.global	wa
 2480              		.global	threads
 2481              		.global	test
 2482 072c AFF30080 		.section	.bss.test,"aw",%nobits
 2483              		.align	3
 2484              		.type	test, %object
 2485              		.size	test, 2640
 2486              	test:
 2487 0000 00000000 		.space	2640
 2487      00000000 
 2487      00000000 
 2487      00000000 
 2487      00000000 
 2488              		.section	.bss.failpoint,"aw",%nobits
 2489              		.align	2
 2490              		.set	.LANCHOR5,. + 0
 2491              		.type	failpoint, %object
 2492              		.size	failpoint, 4
 2493              	failpoint:
ARM GAS  /tmp/ccltjQLK.s 			page 45


 2494 0000 00000000 		.space	4
 2495              		.section	.bss.local_fail,"aw",%nobits
 2496              		.set	.LANCHOR3,. + 0
 2497              		.type	local_fail, %object
 2498              		.size	local_fail, 1
 2499              	local_fail:
 2500 0000 00       		.space	1
 2501              		.section	.bss.test_timer_done,"aw",%nobits
 2502              		.set	.LANCHOR0,. + 0
 2503              		.type	test_timer_done, %object
 2504              		.size	test_timer_done, 1
 2505              	test_timer_done:
 2506 0000 00       		.space	1
 2507              		.section	.rodata.wa,"a",%progbits
 2508              		.align	2
 2509              		.type	wa, %object
 2510              		.size	wa, 20
 2511              	wa:
 2512 0000 00000000 		.word	test
 2513 0004 10020000 		.word	test+528
 2514 0008 20040000 		.word	test+1056
 2515 000c 30060000 		.word	test+1584
 2516 0010 40080000 		.word	test+2112
 2517              		.section	.bss.tokp,"aw",%nobits
 2518              		.align	2
 2519              		.set	.LANCHOR2,. + 0
 2520              		.type	tokp, %object
 2521              		.size	tokp, 4
 2522              	tokp:
 2523 0000 00000000 		.space	4
 2524              		.section	.bss.global_fail,"aw",%nobits
 2525              		.set	.LANCHOR4,. + 0
 2526              		.type	global_fail, %object
 2527              		.size	global_fail, 1
 2528              	global_fail:
 2529 0000 00       		.space	1
 2530              		.section	.rodata.str1.4,"aMS",%progbits,1
 2531              		.align	2
 2532              	.LC0:
 2533 0000 0D0A00   		.ascii	"\015\012\000"
 2534 0003 00       		.space	1
 2535              	.LC1:
 2536 0004 2A2A2A20 		.ascii	"*** ChibiOS/RT test suite\000"
 2536      43686962 
 2536      694F532F 
 2536      52542074 
 2536      65737420 
 2537 001e 0000     		.space	2
 2538              	.LC2:
 2539 0020 2A2A2A00 		.ascii	"***\000"
 2540              	.LC3:
 2541 0024 2A2A2A20 		.ascii	"*** Kernel:       \000"
 2541      4B65726E 
 2541      656C3A20 
 2541      20202020 
 2541      202000
 2542 0037 00       		.space	1
ARM GAS  /tmp/ccltjQLK.s 			page 46


 2543              	.LC4:
 2544 0038 322E352E 		.ascii	"2.5.2unstable\000"
 2544      32756E73 
 2544      7461626C 
 2544      6500
 2545 0046 0000     		.space	2
 2546              	.LC5:
 2547 0048 2A2A2A20 		.ascii	"*** Compiled:     \000"
 2547      436F6D70 
 2547      696C6564 
 2547      3A202020 
 2547      202000
 2548 005b 00       		.space	1
 2549              	.LC6:
 2550 005c 4A756E20 		.ascii	"Jun 27 2013 - 14:16:42\000"
 2550      32372032 
 2550      30313320 
 2550      2D203134 
 2550      3A31363A 
 2551 0073 00       		.space	1
 2552              	.LC7:
 2553 0074 2A2A2A20 		.ascii	"*** Compiler:     \000"
 2553      436F6D70 
 2553      696C6572 
 2553      3A202020 
 2553      202000
 2554 0087 00       		.space	1
 2555              	.LC8:
 2556 0088 47434320 		.ascii	"GCC 4.6.2 20120613 (release) [ARM/embedded-4_6-bran"
 2556      342E362E 
 2556      32203230 
 2556      31323036 
 2556      31332028 
 2557 00bb 63682072 		.ascii	"ch revision 188521]\000"
 2557      65766973 
 2557      696F6E20 
 2557      31383835 
 2557      32315D00 
 2558 00cf 00       		.space	1
 2559              	.LC9:
 2560 00d0 2A2A2A20 		.ascii	"*** Architecture: \000"
 2560      41726368 
 2560      69746563 
 2560      74757265 
 2560      3A2000
 2561 00e3 00       		.space	1
 2562              	.LC10:
 2563 00e4 41524D76 		.ascii	"ARMv7-M\000"
 2563      372D4D00 
 2564              	.LC11:
 2565 00ec 2A2A2A20 		.ascii	"*** Core Variant: \000"
 2565      436F7265 
 2565      20566172 
 2565      69616E74 
 2565      3A2000
 2566 00ff 00       		.space	1
 2567              	.LC12:
ARM GAS  /tmp/ccltjQLK.s 			page 47


 2568 0100 436F7274 		.ascii	"Cortex-M3\000"
 2568      65782D4D 
 2568      3300
 2569 010a 0000     		.space	2
 2570              	.LC13:
 2571 010c 2A2A2A20 		.ascii	"*** Port Info:    \000"
 2571      506F7274 
 2571      20496E66 
 2571      6F3A2020 
 2571      202000
 2572 011f 00       		.space	1
 2573              	.LC14:
 2574 0120 41647661 		.ascii	"Advanced kernel mode\000"
 2574      6E636564 
 2574      206B6572 
 2574      6E656C20 
 2574      6D6F6465 
 2575 0135 000000   		.space	3
 2576              	.LC15:
 2577 0138 2A2A2A20 		.ascii	"*** Platform:     \000"
 2577      506C6174 
 2577      666F726D 
 2577      3A202020 
 2577      202000
 2578 014b 00       		.space	1
 2579              	.LC16:
 2580 014c 53544D33 		.ascii	"STM32F10x Performance Line Medium Density\000"
 2580      32463130 
 2580      78205065 
 2580      72666F72 
 2580      6D616E63 
 2581 0176 0000     		.space	2
 2582              	.LC17:
 2583 0178 2A2A2A20 		.ascii	"*** Test Board:   \000"
 2583      54657374 
 2583      20426F61 
 2583      72643A20 
 2583      202000
 2584 018b 00       		.space	1
 2585              	.LC18:
 2586 018c 52325020 		.ascii	"R2P IR module\000"
 2586      4952206D 
 2586      6F64756C 
 2586      6500
 2587 019a 0000     		.space	2
 2588              	.LC19:
 2589 019c 2D2D2D20 		.ascii	"--- Test Case \000"
 2589      54657374 
 2589      20436173 
 2589      652000
 2590 01ab 00       		.space	1
 2591              	.LC20:
 2592 01ac 202800   		.ascii	" (\000"
 2593 01af 00       		.space	1
 2594              	.LC21:
 2595 01b0 2D2D2D20 		.ascii	"--- Result: FAILURE (#\000"
 2595      52657375 
ARM GAS  /tmp/ccltjQLK.s 			page 48


 2595      6C743A20 
 2595      4641494C 
 2595      55524520 
 2596 01c7 00       		.space	1
 2597              	.LC22:
 2598 01c8 205B00   		.ascii	" [\000"
 2599 01cb 00       		.space	1
 2600              	.LC23:
 2601 01cc 5D2900   		.ascii	"])\000"
 2602 01cf 00       		.space	1
 2603              	.LC24:
 2604 01d0 2D2D2D20 		.ascii	"--- Result: SUCCESS\000"
 2604      52657375 
 2604      6C743A20 
 2604      53554343 
 2604      45535300 
 2605              	.LC25:
 2606 01e4 46696E61 		.ascii	"Final result: \000"
 2606      6C207265 
 2606      73756C74 
 2606      3A2000
 2607 01f3 00       		.space	1
 2608              	.LC26:
 2609 01f4 4641494C 		.ascii	"FAILURE\000"
 2609      55524500 
 2610              	.LC27:
 2611 01fc 53554343 		.ascii	"SUCCESS\000"
 2611      45535300 
 2612              		.section	.bss.vt,"aw",%nobits
 2613              		.align	2
 2614              		.set	.LANCHOR8,. + 0
 2615              		.type	vt, %object
 2616              		.size	vt, 20
 2617              	vt:
 2618 0000 00000000 		.space	20
 2618      00000000 
 2618      00000000 
 2618      00000000 
 2618      00000000 
 2619              		.section	.bss.threads,"aw",%nobits
 2620              		.align	2
 2621              		.set	.LANCHOR7,. + 0
 2622              		.type	threads, %object
 2623              		.size	threads, 20
 2624              	threads:
 2625 0000 00000000 		.space	20
 2625      00000000 
 2625      00000000 
 2625      00000000 
 2625      00000000 
 2626              		.section	.rodata.patterns,"a",%progbits
 2627              		.align	2
 2628              		.set	.LANCHOR9,. + 0
 2629              		.type	patterns, %object
 2630              		.size	patterns, 48
 2631              	patterns:
 2632 0000 00000000 		.word	patternthd
ARM GAS  /tmp/ccltjQLK.s 			page 49


 2633 0004 00000000 		.word	patternsem
 2634 0008 00000000 		.word	patternmtx
 2635 000c 00000000 		.word	patternmsg
 2636 0010 00000000 		.word	patternmbox
 2637 0014 00000000 		.word	patternevt
 2638 0018 00000000 		.word	patternheap
 2639 001c 00000000 		.word	patternpools
 2640 0020 00000000 		.word	patterndyn
 2641 0024 00000000 		.word	patternqueues
 2642 0028 00000000 		.word	patternbmk
 2643 002c 00000000 		.word	0
 2644              		.section	.bss.chp,"aw",%nobits
 2645              		.align	2
 2646              		.set	.LANCHOR1,. + 0
 2647              		.type	chp, %object
 2648              		.size	chp, 4
 2649              	chp:
 2650 0000 00000000 		.space	4
 2651              		.section	.bss.tokens_buffer,"aw",%nobits
 2652              		.align	2
 2653              		.set	.LANCHOR6,. + 0
 2654              		.type	tokens_buffer, %object
 2655              		.size	tokens_buffer, 16
 2656              	tokens_buffer:
 2657 0000 00000000 		.space	16
 2657      00000000 
 2657      00000000 
 2657      00000000 
 2658              		.text
 2659              	.Letext0:
 2660              		.file 2 "/home/tino/ChibiStudio/tools/GNU Tools ARM Embedded/4.6 2012q2/bin/../lib/gcc/arm-none-ea
 2661              		.file 3 "/home/tino/ChibiStudio/tools/GNU Tools ARM Embedded/4.6 2012q2/bin/../lib/gcc/arm-none-ea
 2662              		.file 4 "../../ChibiOS/os/ports/GCC/ARMCMx/chtypes.h"
 2663              		.file 5 "../../ChibiOS/os/kernel/include/chlists.h"
 2664              		.file 6 "../../ChibiOS/os/kernel/include/chthreads.h"
 2665              		.file 7 "../../ChibiOS/os/ports/GCC/ARMCMx/chcore_v7m.h"
 2666              		.file 8 "../../ChibiOS/os/kernel/include/chvt.h"
 2667              		.file 9 "../../ChibiOS/os/kernel/include/chschd.h"
 2668              		.file 10 "../../ChibiOS/os/kernel/include/chmtx.h"
 2669              		.file 11 "../../ChibiOS/os/kernel/include/chstreams.h"
 2670              		.file 12 "../../ChibiOS/test/test.h"
 2671              		.file 13 "../../ChibiOS/os/ports/common/ARMCMx/CMSIS/include/core_cm3.h"
 2672              		.file 14 "../../ChibiOS/test/testthd.h"
 2673              		.file 15 "../../ChibiOS/test/testsem.h"
 2674              		.file 16 "../../ChibiOS/test/testmtx.h"
 2675              		.file 17 "../../ChibiOS/test/testmsg.h"
 2676              		.file 18 "../../ChibiOS/test/testmbox.h"
 2677              		.file 19 "../../ChibiOS/test/testevt.h"
 2678              		.file 20 "../../ChibiOS/test/testheap.h"
 2679              		.file 21 "../../ChibiOS/test/testpools.h"
 2680              		.file 22 "../../ChibiOS/test/testdyn.h"
 2681              		.file 23 "../../ChibiOS/test/testqueues.h"
 2682              		.file 24 "../../ChibiOS/test/testbmk.h"